GAS LISTING /tmp/ccApC5Gp.s 			page 1


   1              		.file	"interruptRoutine.cpp"
   2              		.option pic
   3              		.option norelax
   4              		.text
   5              	.Ltext0:
   6              		.section	.rodata
   7              		.align	3
   8              	.LC0:
   9 0000 0A4E6570 		.string	"\nNepostojeci op code: "
   9      6F73746F 
   9      6A656369 
   9      206F7020 
   9      636F6465 
  10 0017 00       		.align	3
  11              	.LC1:
  12 0018 0A736361 		.string	"\nscause: "
  12      7573653A 
  12      2000
  13 0022 00000000 		.align	3
  13      0000
  14              	.LC2:
  15 0028 0A736570 		.string	"\nsepc: "
  15      633A2000 
  16              		.align	3
  17              	.LC3:
  18 0030 0A477265 		.string	"\nGreska u prekidnoj rutini\n"
  18      736B6120 
  18      75207072 
  18      656B6964 
  18      6E6F6A20 
  19 004c 00000000 		.align	3
  20              	.LC4:
  21 0050 73636175 		.string	"scause: "
  21      73653A20 
  21      00
  22              		.text
  23              		.align	2
  24              		.globl	interruptRoutine
  26              	interruptRoutine:
  27              	.LFB48:
  28              		.file 1 "src/interruptRoutine.cpp"
   1:src/interruptRoutine.cpp **** //
   2:src/interruptRoutine.cpp **** // Created by os on 5/22/23.
   3:src/interruptRoutine.cpp **** //
   4:src/interruptRoutine.cpp **** 
   5:src/interruptRoutine.cpp **** #include "../lib/console.h"
   6:src/interruptRoutine.cpp **** #include "../lib/hw.h"
   7:src/interruptRoutine.cpp **** #include "../h/MemoryAllocator.hpp"
   8:src/interruptRoutine.cpp **** #include "../h/helper.hpp"
   9:src/interruptRoutine.cpp **** #include "../h/Riscv.hpp"
  10:src/interruptRoutine.cpp **** #include "../h/syscall_c.hpp"
  11:src/interruptRoutine.cpp **** #include "../h/TCB.hpp"
  12:src/interruptRoutine.cpp **** #include "../h/Scheduler.hpp"
  13:src/interruptRoutine.cpp **** #include "../h/KSem.hpp"
  14:src/interruptRoutine.cpp **** 
  15:src/interruptRoutine.cpp **** #pragma GCC optimize("O0")
  16:src/interruptRoutine.cpp **** extern "C" void interruptRoutine() {
GAS LISTING /tmp/ccApC5Gp.s 			page 2


  29              		.loc 1 16 36
  30              		.cfi_startproc
  31 0000 130101EF 		addi	sp,sp,-272
  32              		.cfi_def_cfa_offset 272
  33 0004 23341110 		sd	ra,264(sp)
  34 0008 23308110 		sd	s0,256(sp)
  35              		.cfi_offset 1, -8
  36              		.cfi_offset 8, -16
  37 000c 13040111 		addi	s0,sp,272
  38              		.cfi_def_cfa 8, 0
  17:src/interruptRoutine.cpp **** 	uint64 scause, sepc, sstatus;
  39              		.loc 1 17 2
  18:src/interruptRoutine.cpp **** 	__asm__ volatile("csrr %[scause], scause":[scause] "=r"(scause): : "a5", "a0", "a1", "a2", "a3", "
  40              		.loc 1 18 2
  41              		.loc 1 18 116 is_stmt 0
  42              	#APP
  43              	# 18 "src/interruptRoutine.cpp" 1
  19              		__asm__ volatile("csrr %[sepc], sepc":[sepc] "=r"(sepc): : "a5", "a0", "a1", "a2", "a3", "a4", "a6
  44              		csrr t1, scause
  45              	# 0 "" 2
  46              	#NO_APP
  47 0014 233C64FC 		sd	t1,-40(s0)
  48              	.LVL0:
  49              		.loc 1 19 2 is_stmt 1
  50              		.loc 1 19 108 is_stmt 0
  51              	#APP
  52              	# 19 "src/interruptRoutine.cpp" 1
  20              		__asm__ volatile("csrr %[status], sstatus":[status] "=r"(
  53              		csrr t1, sepc
  54              	# 0 "" 2
  55              	.LVL1:
  56              	#NO_APP
  57 001c 233864FC 		sd	t1,-48(s0)
  58              	.LVL2:
  59              		.loc 1 20 2 is_stmt 1
  21:src/interruptRoutine.cpp **** 			sstatus): : "a5", "a0", "a1", "a2", "a3", "a4", "a6", "a7");
  60              		.loc 1 21 63 is_stmt 0
  61              	#APP
  62              	# 21 "src/interruptRoutine.cpp" 1
  22              		uint64 a0, a1, a2, a3, a4, a5, a6, a7;
  63              		csrr t1, sstatus
  64              	# 0 "" 2
  65              	.LVL3:
  66              	#NO_APP
  67 0024 233464FC 		sd	t1,-56(s0)
  68              	.LVL4:
  69              		.loc 1 22 2 is_stmt 1
  23:src/interruptRoutine.cpp **** 	__asm__ volatile("mv %[ax], a0":[ax] "=r"(a0): : "a5", "a0", "a1", "a2", "a3", "a4", "a6", "a7");
  70              		.loc 1 23 2
  71              		.loc 1 23 98 is_stmt 0
  72              	#APP
  73              	# 23 "src/interruptRoutine.cpp" 1
  24              		__asm__ volatile("mv %[ax], a1":[ax] "=r"(a1): : "a5", "a0", "a1", "a2", "a3", "a4", "a6", "a7");
  74              		mv t1, a0
  75              	# 0 "" 2
  76              	.LVL5:
  77              	#NO_APP
GAS LISTING /tmp/ccApC5Gp.s 			page 3


  78 002c 233064FC 		sd	t1,-64(s0)
  79              	.LVL6:
  80              		.loc 1 24 2 is_stmt 1
  81              		.loc 1 24 98 is_stmt 0
  82              	#APP
  83              	# 24 "src/interruptRoutine.cpp" 1
  25              		__asm__ volatile("mv %[ax], a2":[ax] "=r"(a2): : "a5", "a0", "a1", "a2", "a3", "a4", "a6", "a7");
  84              		mv t1, a1
  85              	# 0 "" 2
  86              	.LVL7:
  87              	#NO_APP
  88 0034 233C64FA 		sd	t1,-72(s0)
  89              	.LVL8:
  90              		.loc 1 25 2 is_stmt 1
  91              		.loc 1 25 98 is_stmt 0
  92              	#APP
  93              	# 25 "src/interruptRoutine.cpp" 1
  26              		__asm__ volatile("mv %[ax], a3":[ax] "=r"(a3): : "a5", "a0", "a1", "a2", "a3", "a4", "a6", "a7");
  94              		mv t1, a2
  95              	# 0 "" 2
  96              	.LVL9:
  97              	#NO_APP
  98 003c 233864FA 		sd	t1,-80(s0)
  99              	.LVL10:
 100              		.loc 1 26 2 is_stmt 1
 101              		.loc 1 26 98 is_stmt 0
 102              	#APP
 103              	# 26 "src/interruptRoutine.cpp" 1
  27              		__asm__ volatile("mv %[ax], a4":[ax] "=r"(a4): : "a5", "a0", "a1", "a2", "a3", "a4", "a6", "a7");
 104              		mv t1, a3
 105              	# 0 "" 2
 106              	.LVL11:
 107              	#NO_APP
 108 0044 233464FA 		sd	t1,-88(s0)
 109              	.LVL12:
 110              		.loc 1 27 2 is_stmt 1
 111              		.loc 1 27 98 is_stmt 0
 112              	#APP
 113              	# 27 "src/interruptRoutine.cpp" 1
  28              		__asm__ volatile("mv %[ax], a5":[ax] "=r"(a5): : "a5", "a0", "a1", "a2", "a3", "a4", "a6", "a7");
 114              		mv t1, a4
 115              	# 0 "" 2
 116              	.LVL13:
 117              	#NO_APP
 118 004c 233064FA 		sd	t1,-96(s0)
 119              	.LVL14:
 120              		.loc 1 28 2 is_stmt 1
 121              		.loc 1 28 98 is_stmt 0
 122              	#APP
 123              	# 28 "src/interruptRoutine.cpp" 1
  29              		__asm__ volatile("mv %[ax], a6":[ax] "=r"(a6): : "a5", "a0", "a1", "a2", "a3", "a4", "a6", "a7");
 124              		mv t1, a5
 125              	# 0 "" 2
 126              	.LVL15:
 127              	#NO_APP
 128 0054 233C64F8 		sd	t1,-104(s0)
 129              	.LVL16:
GAS LISTING /tmp/ccApC5Gp.s 			page 4


 130              		.loc 1 29 2 is_stmt 1
 131              		.loc 1 29 98 is_stmt 0
 132              	#APP
 133              	# 29 "src/interruptRoutine.cpp" 1
  30              		__asm__ volatile("mv %[ax], a7":[ax] "=r"(a7): : "a5", "a0", "a1", "a2", "a3", "a4", "a6", "a7");
 134              		mv t1, a6
 135              	# 0 "" 2
 136              	.LVL17:
 137              	#NO_APP
 138 005c 233864F8 		sd	t1,-112(s0)
 139              	.LVL18:
 140              		.loc 1 30 2 is_stmt 1
 141              		.loc 1 30 98 is_stmt 0
 142              	#APP
 143              	# 30 "src/interruptRoutine.cpp" 1
  31              	
 144              		mv t1, a7
 145              	# 0 "" 2
 146              	.LVL19:
 147              	#NO_APP
 148 0064 233464F8 		sd	t1,-120(s0)
 149              	.LVL20:
  32:src/interruptRoutine.cpp **** 	if (scause == 0x09 || scause == 0x08) {
 150              		.loc 1 32 2 is_stmt 1
 151              	.LBB2:
 152 0068 033784FD 		ld	a4,-40(s0)
 153 006c 93079000 		li	a5,9
 154 0070 6308F700 		beq	a4,a5,.L2
 155              		.loc 1 32 21 is_stmt 0 discriminator 1
 156 0074 033784FD 		ld	a4,-40(s0)
 157 0078 93078000 		li	a5,8
 158 007c 6312F744 		bne	a4,a5,.L3
 159              	.L2:
 160              	.LBB3:
  33:src/interruptRoutine.cpp **** 		//prekid zbog poziva ecall
  34:src/interruptRoutine.cpp **** 		uint64 opCode = a0;
 161              		.loc 1 34 3 is_stmt 1
 162              		.loc 1 34 10 is_stmt 0
 163 0080 833704FC 		ld	a5,-64(s0)
 164 0084 2330F4F8 		sd	a5,-128(s0)
 165              	.LVL21:
  35:src/interruptRoutine.cpp **** 		switch (opCode) {
 166              		.loc 1 35 3 is_stmt 1
 167              	.LBB4:
 168 0088 033704F8 		ld	a4,-128(s0)
 169 008c 93071009 		li	a5,145
 170              	.LVL22:
 171 0090 6300F72C 		beq	a4,a5,.L4
 172 0094 033704F8 		ld	a4,-128(s0)
 173 0098 93071009 		li	a5,145
 174 009c 63EEE738 		bgtu	a4,a5,.L5
 175 00a0 033704F8 		ld	a4,-128(s0)
 176 00a4 93072004 		li	a5,66
 177 00a8 63E2E704 		bgtu	a4,a5,.L6
 178 00ac 833704F8 		ld	a5,-128(s0)
 179 00b0 63840738 		beqz	a5,.L5
 180 00b4 033704F8 		ld	a4,-128(s0)
GAS LISTING /tmp/ccApC5Gp.s 			page 5


 181 00b8 93072004 		li	a5,66
 182 00bc 63EEE736 		bgtu	a4,a5,.L5
 183 00c0 833704F8 		ld	a5,-128(s0)
 184 00c4 13972700 		slli	a4,a5,2
 185              	.LVL23:
 186 00c8 97070000 		lla	a5,.L8
 186      93870700 
 187              	.LVL24:
 188 00d0 B307F700 		add	a5,a4,a5
 189 00d4 83A70700 		lw	a5,0(a5)
 190 00d8 1B870700 		sext.w	a4,a5
 191 00dc 97070000 		lla	a5,.L8
 191      93870700 
 192 00e4 B307F700 		add	a5,a4,a5
 193 00e8 67800700 		jr	a5
 194              		.section	.rodata
 195 0059 000000   		.align	2
 196              		.align	2
 197              	.L8:
 198 005c 00000000 		.word	.L5-.L8
 199 0060 00000000 		.word	.L20-.L8
 200 0064 00000000 		.word	.L19-.L8
 201 0068 00000000 		.word	.L5-.L8
 202 006c 00000000 		.word	.L5-.L8
 203 0070 00000000 		.word	.L5-.L8
 204 0074 00000000 		.word	.L5-.L8
 205 0078 00000000 		.word	.L5-.L8
 206 007c 00000000 		.word	.L5-.L8
 207 0080 00000000 		.word	.L5-.L8
 208 0084 00000000 		.word	.L5-.L8
 209 0088 00000000 		.word	.L5-.L8
 210 008c 00000000 		.word	.L5-.L8
 211 0090 00000000 		.word	.L5-.L8
 212 0094 00000000 		.word	.L5-.L8
 213 0098 00000000 		.word	.L5-.L8
 214 009c 00000000 		.word	.L5-.L8
 215 00a0 00000000 		.word	.L18-.L8
 216 00a4 00000000 		.word	.L17-.L8
 217 00a8 00000000 		.word	.L16-.L8
 218 00ac 00000000 		.word	.L15-.L8
 219 00b0 00000000 		.word	.L5-.L8
 220 00b4 00000000 		.word	.L5-.L8
 221 00b8 00000000 		.word	.L5-.L8
 222 00bc 00000000 		.word	.L5-.L8
 223 00c0 00000000 		.word	.L5-.L8
 224 00c4 00000000 		.word	.L5-.L8
 225 00c8 00000000 		.word	.L5-.L8
 226 00cc 00000000 		.word	.L5-.L8
 227 00d0 00000000 		.word	.L5-.L8
 228 00d4 00000000 		.word	.L5-.L8
 229 00d8 00000000 		.word	.L5-.L8
 230 00dc 00000000 		.word	.L5-.L8
 231 00e0 00000000 		.word	.L14-.L8
 232 00e4 00000000 		.word	.L13-.L8
 233 00e8 00000000 		.word	.L12-.L8
 234 00ec 00000000 		.word	.L11-.L8
 235 00f0 00000000 		.word	.L5-.L8
GAS LISTING /tmp/ccApC5Gp.s 			page 6


 236 00f4 00000000 		.word	.L5-.L8
 237 00f8 00000000 		.word	.L5-.L8
 238 00fc 00000000 		.word	.L5-.L8
 239 0100 00000000 		.word	.L5-.L8
 240 0104 00000000 		.word	.L5-.L8
 241 0108 00000000 		.word	.L5-.L8
 242 010c 00000000 		.word	.L5-.L8
 243 0110 00000000 		.word	.L5-.L8
 244 0114 00000000 		.word	.L5-.L8
 245 0118 00000000 		.word	.L5-.L8
 246 011c 00000000 		.word	.L5-.L8
 247 0120 00000000 		.word	.L10-.L8
 248 0124 00000000 		.word	.L5-.L8
 249 0128 00000000 		.word	.L5-.L8
 250 012c 00000000 		.word	.L5-.L8
 251 0130 00000000 		.word	.L5-.L8
 252 0134 00000000 		.word	.L5-.L8
 253 0138 00000000 		.word	.L5-.L8
 254 013c 00000000 		.word	.L5-.L8
 255 0140 00000000 		.word	.L5-.L8
 256 0144 00000000 		.word	.L5-.L8
 257 0148 00000000 		.word	.L5-.L8
 258 014c 00000000 		.word	.L5-.L8
 259 0150 00000000 		.word	.L5-.L8
 260 0154 00000000 		.word	.L5-.L8
 261 0158 00000000 		.word	.L5-.L8
 262 015c 00000000 		.word	.L5-.L8
 263 0160 00000000 		.word	.L9-.L8
 264 0164 00000000 		.word	.L7-.L8
 265              		.text
 266              	.LVL25:
 267              	.L6:
 268 00ec 033704F8 		ld	a4,-128(s0)
 269              	.LVL26:
 270 00f0 93070009 		li	a5,144
 271 00f4 6302F722 		beq	a4,a5,.L21
 272 00f8 6F000034 		j	.L5
 273              	.L20:
 274              	.LBB5:
  36:src/interruptRoutine.cpp **** 			case 0x01:
 275              		.loc 1 36 4
  37:src/interruptRoutine.cpp **** 				//mem_alloc
  38:src/interruptRoutine.cpp **** 				size_t size;
 276              		.loc 1 38 5
  39:src/interruptRoutine.cpp **** 				size = (size_t)a1;
 277              		.loc 1 39 5
 278              		.loc 1 39 10 is_stmt 0
 279 00fc 833784FB 		ld	a5,-72(s0)
 280 0100 2334F4F0 		sd	a5,-248(s0)
 281              	.LVL27:
  40:src/interruptRoutine.cpp **** 				//__asm__ volatile("mv %[size], a1":[size] "=r"(size));
  41:src/interruptRoutine.cpp **** 				size = size * MEM_BLOCK_SIZE;
 282              		.loc 1 41 5 is_stmt 1
 283              		.loc 1 41 10 is_stmt 0
 284 0104 833784F0 		ld	a5,-248(s0)
 285 0108 93976700 		slli	a5,a5,6
 286              	.LVL28:
GAS LISTING /tmp/ccApC5Gp.s 			page 7


 287 010c 2334F4F0 		sd	a5,-248(s0)
 288              	.LVL29:
  42:src/interruptRoutine.cpp **** 				MemoryAllocator::kmalloc(size);
 289              		.loc 1 42 5 is_stmt 1
 290              		.loc 1 42 29 is_stmt 0
 291 0110 033584F0 		ld	a0,-248(s0)
 292 0114 97000000 		call	_ZN15MemoryAllocator7kmallocEm@plt
 292      E7800000 
 293              	.LVL30:
  43:src/interruptRoutine.cpp **** 				__asm__ volatile("sd a0, 80(s0)");
 294              		.loc 1 43 5 is_stmt 1
 295              		.loc 1 43 38 is_stmt 0
 296              	#APP
 297              	# 43 "src/interruptRoutine.cpp" 1
  44              					break;
 298              		sd a0, 80(s0)
 299              	# 0 "" 2
 300              		.loc 1 44 5 is_stmt 1
 301              	#NO_APP
 302 0120 6F004038 		j	.L22
 303              	.LVL31:
 304              	.L19:
  45:src/interruptRoutine.cpp **** 			case 0x02:
 305              		.loc 1 45 4
  46:src/interruptRoutine.cpp **** 				//mem_free
  47:src/interruptRoutine.cpp **** 				void* ptr;
 306              		.loc 1 47 5
  48:src/interruptRoutine.cpp **** 				ptr = (void*)a1;
 307              		.loc 1 48 5
 308              		.loc 1 48 9 is_stmt 0
 309 0124 833784FB 		ld	a5,-72(s0)
 310 0128 2338F4F0 		sd	a5,-240(s0)
 311              	.LVL32:
  49:src/interruptRoutine.cpp **** 				//__asm__ volatile("mv %[ptr], a1" :[ptr]"=r"(ptr));
  50:src/interruptRoutine.cpp **** 				MemoryAllocator::kfree(ptr);
 312              		.loc 1 50 5 is_stmt 1
 313              		.loc 1 50 27 is_stmt 0
 314 012c 033504F1 		ld	a0,-240(s0)
 315 0130 97000000 		call	_ZN15MemoryAllocator5kfreeEPv@plt
 315      E7800000 
 316              	.LVL33:
  51:src/interruptRoutine.cpp **** 				__asm__ volatile("sd a0, 80(s0)");
 317              		.loc 1 51 5 is_stmt 1
 318              		.loc 1 51 38 is_stmt 0
 319              	#APP
 320              	# 51 "src/interruptRoutine.cpp" 1
  52              					break;
 321              		sd a0, 80(s0)
 322              	# 0 "" 2
 323              		.loc 1 52 5 is_stmt 1
 324              	#NO_APP
 325 013c 6F008036 		j	.L22
 326              	.LVL34:
 327              	.L18:
  53:src/interruptRoutine.cpp **** 			case 0x11:
 328              		.loc 1 53 4
  54:src/interruptRoutine.cpp **** 				//thread_create
GAS LISTING /tmp/ccApC5Gp.s 			page 8


  55:src/interruptRoutine.cpp **** 				thread_t* handle;
 329              		.loc 1 55 5
  56:src/interruptRoutine.cpp **** 				handle = (thread_t*)a1;
 330              		.loc 1 56 5
 331              		.loc 1 56 12 is_stmt 0
 332 0140 833784FB 		ld	a5,-72(s0)
 333 0144 2338F4F2 		sd	a5,-208(s0)
 334              	.LVL35:
  57:src/interruptRoutine.cpp **** 				void (* function)(void*);
 335              		.loc 1 57 5 is_stmt 1
  58:src/interruptRoutine.cpp **** 				function = (void (*)(void*))a2;
 336              		.loc 1 58 5
 337              		.loc 1 58 14 is_stmt 0
 338 0148 833704FB 		ld	a5,-80(s0)
 339              	.LVL36:
 340 014c 2334F4F2 		sd	a5,-216(s0)
 341              	.LVL37:
  59:src/interruptRoutine.cpp **** 				void* args;
 342              		.loc 1 59 5 is_stmt 1
  60:src/interruptRoutine.cpp **** 				args = (void*)a3;
 343              		.loc 1 60 5
 344              		.loc 1 60 10 is_stmt 0
 345 0150 833784FA 		ld	a5,-88(s0)
 346              	.LVL38:
 347 0154 2330F4F2 		sd	a5,-224(s0)
 348              	.LVL39:
  61:src/interruptRoutine.cpp **** 				uint64* sp;
 349              		.loc 1 61 5 is_stmt 1
  62:src/interruptRoutine.cpp **** 				sp = (uint64*)a4;
 350              		.loc 1 62 5
 351              		.loc 1 62 8 is_stmt 0
 352 0158 833704FA 		ld	a5,-96(s0)
 353              	.LVL40:
 354 015c 233CF4F0 		sd	a5,-232(s0)
 355              	.LVL41:
  63:src/interruptRoutine.cpp **** 
  64:src/interruptRoutine.cpp **** 				*handle = TCB::createThread(function, args, sp);
 356              		.loc 1 64 5 is_stmt 1
 357              		.loc 1 64 32 is_stmt 0
 358 0160 033684F1 		ld	a2,-232(s0)
 359 0164 833504F2 		ld	a1,-224(s0)
 360 0168 033584F2 		ld	a0,-216(s0)
 361 016c 97000000 		call	_ZN3TCB12createThreadEPFvPvES0_Pm@plt
 361      E7800000 
 362              	.LVL42:
 363 0174 13070500 		mv	a4,a0
 364              		.loc 1 64 13
 365 0178 833704F3 		ld	a5,-208(s0)
 366 017c 23B0E700 		sd	a4,0(a5)
  65:src/interruptRoutine.cpp **** 				if (*handle != nullptr) {
 367              		.loc 1 65 5 is_stmt 1
 368              		.loc 1 65 9 is_stmt 0
 369 0180 833704F3 		ld	a5,-208(s0)
 370 0184 83B70700 		ld	a5,0(a5)
 371              		.loc 1 65 5
 372 0188 63860700 		beqz	a5,.L23
  66:src/interruptRoutine.cpp **** 					__asm__ volatile("li a0, 0");
GAS LISTING /tmp/ccApC5Gp.s 			page 9


 373              		.loc 1 66 6 is_stmt 1
 374              		.loc 1 66 34 is_stmt 0
 375              	#APP
 376              	# 66 "src/interruptRoutine.cpp" 1
  67              					} else {
 377              		li a0, 0
 378              	# 0 "" 2
 379              	#NO_APP
 380 0190 6F008000 		j	.L24
 381              	.L23:
  68:src/interruptRoutine.cpp **** 					__asm__ volatile("li a0, -1");
 382              		.loc 1 68 6 is_stmt 1
 383              		.loc 1 68 35 is_stmt 0
 384              	#APP
 385              	# 68 "src/interruptRoutine.cpp" 1
  69              					}
 386              		li a0, -1
 387              	# 0 "" 2
 388              	#NO_APP
 389              	.L24:
  70:src/interruptRoutine.cpp **** 				__asm__ volatile("sd a0, 80(s0)");
 390              		.loc 1 70 5 is_stmt 1
 391              		.loc 1 70 38 is_stmt 0
 392              	#APP
 393              	# 70 "src/interruptRoutine.cpp" 1
  71              					break;
 394              		sd a0, 80(s0)
 395              	# 0 "" 2
 396              		.loc 1 71 5 is_stmt 1
 397              	#NO_APP
 398 019c 6F008030 		j	.L22
 399              	.LVL43:
 400              	.L17:
  72:src/interruptRoutine.cpp **** 			case 0x12:
 401              		.loc 1 72 4
  73:src/interruptRoutine.cpp **** 				//thread_exit
  74:src/interruptRoutine.cpp **** 				TCB::running->setFinished(true);
 402              		.loc 1 74 5
 403              		.loc 1 74 30 is_stmt 0
 404 01a0 97070000 		la	a5,_ZN3TCB7runningE
 404      83B70700 
 405 01a8 83B70700 		ld	a5,0(a5)
 406 01ac 93051000 		li	a1,1
 407 01b0 13850700 		mv	a0,a5
 408 01b4 97000000 		call	_ZN3TCB11setFinishedEb
 408      E7800000 
 409              	.LVL44:
  75:src/interruptRoutine.cpp **** 				TCB::releaseJoined();
 410              		.loc 1 75 5 is_stmt 1
 411              		.loc 1 75 23 is_stmt 0
 412 01bc 97000000 		call	_ZN3TCB13releaseJoinedEv@plt
 412      E7800000 
 413              	.LVL45:
  76:src/interruptRoutine.cpp **** 				TCB::yield();
 414              		.loc 1 76 5 is_stmt 1
 415              		.loc 1 76 15 is_stmt 0
 416 01c4 97000000 		call	_ZN3TCB5yieldEv@plt
GAS LISTING /tmp/ccApC5Gp.s 			page 10


 416      E7800000 
 417              	.LVL46:
  77:src/interruptRoutine.cpp **** 				break;
 418              		.loc 1 77 5 is_stmt 1
 419 01cc 6F00802D 		j	.L22
 420              	.LVL47:
 421              	.L16:
  78:src/interruptRoutine.cpp **** 			case 0x13:
 422              		.loc 1 78 4
  79:src/interruptRoutine.cpp **** 				//thread_dispatch
  80:src/interruptRoutine.cpp **** 				TCB::yield();
 423              		.loc 1 80 5
 424              		.loc 1 80 15 is_stmt 0
 425 01d0 97000000 		call	_ZN3TCB5yieldEv@plt
 425      E7800000 
 426              	.LVL48:
  81:src/interruptRoutine.cpp **** 				break;
 427              		.loc 1 81 5 is_stmt 1
 428 01d8 6F00C02C 		j	.L22
 429              	.LVL49:
 430              	.L15:
  82:src/interruptRoutine.cpp **** 			case 0x14:
 431              		.loc 1 82 4
  83:src/interruptRoutine.cpp **** 				//thread_join
  84:src/interruptRoutine.cpp **** 				thread_t handleToJoin;
 432              		.loc 1 84 5
  85:src/interruptRoutine.cpp **** 				handleToJoin = (thread_t)a1;
 433              		.loc 1 85 5
 434              		.loc 1 85 18 is_stmt 0
 435 01dc 833784FB 		ld	a5,-72(s0)
 436 01e0 233CF4F2 		sd	a5,-200(s0)
 437              	.LVL50:
  86:src/interruptRoutine.cpp **** 				TCB::threadJoin(handleToJoin);
 438              		.loc 1 86 5 is_stmt 1
 439              		.loc 1 86 20 is_stmt 0
 440 01e4 033584F3 		ld	a0,-200(s0)
 441 01e8 97000000 		call	_ZN3TCB10threadJoinEPS_@plt
 441      E7800000 
 442              	.LVL51:
  87:src/interruptRoutine.cpp **** 				TCB::yield();
 443              		.loc 1 87 5 is_stmt 1
 444              		.loc 1 87 15 is_stmt 0
 445 01f0 97000000 		call	_ZN3TCB5yieldEv@plt
 445      E7800000 
 446              	.LVL52:
  88:src/interruptRoutine.cpp **** 				break;
 447              		.loc 1 88 5 is_stmt 1
 448 01f8 6F00C02A 		j	.L22
 449              	.LVL53:
 450              	.L14:
  89:src/interruptRoutine.cpp **** 			case 0x21:
 451              		.loc 1 89 4
  90:src/interruptRoutine.cpp **** 				//sem_open
  91:src/interruptRoutine.cpp **** 				sem_t* semHandle;
 452              		.loc 1 91 5
  92:src/interruptRoutine.cpp **** 				semHandle = (sem_t*)a1;
 453              		.loc 1 92 5
GAS LISTING /tmp/ccApC5Gp.s 			page 11


 454              		.loc 1 92 15 is_stmt 0
 455 01fc 833784FB 		ld	a5,-72(s0)
 456 0200 2334F4F4 		sd	a5,-184(s0)
 457              	.LVL54:
  93:src/interruptRoutine.cpp **** 				uint initVal;
 458              		.loc 1 93 5 is_stmt 1
  94:src/interruptRoutine.cpp **** 				initVal = (uint)a2;
 459              		.loc 1 94 5
 460              		.loc 1 94 13 is_stmt 0
 461 0204 833704FB 		ld	a5,-80(s0)
 462              	.LVL55:
 463 0208 2322F4F4 		sw	a5,-188(s0)
 464              	.LVL56:
  95:src/interruptRoutine.cpp **** 				*semHandle = KSem::initSem(initVal);
 465              		.loc 1 95 5 is_stmt 1
 466              		.loc 1 95 31 is_stmt 0
 467 020c 832744F4 		lw	a5,-188(s0)
 468              	.LVL57:
 469 0210 13850700 		mv	a0,a5
 470 0214 97000000 		call	_ZN4KSem7initSemEj@plt
 470      E7800000 
 471              	.LVL58:
 472 021c 13070500 		mv	a4,a0
 473              		.loc 1 95 16
 474 0220 833784F4 		ld	a5,-184(s0)
 475 0224 23B0E700 		sd	a4,0(a5)
  96:src/interruptRoutine.cpp **** 				if (*semHandle != nullptr) {
 476              		.loc 1 96 5 is_stmt 1
 477              		.loc 1 96 9 is_stmt 0
 478 0228 833784F4 		ld	a5,-184(s0)
 479 022c 83B70700 		ld	a5,0(a5)
 480              		.loc 1 96 5
 481 0230 63860700 		beqz	a5,.L25
  97:src/interruptRoutine.cpp **** 					__asm__ volatile("li a0, 0");
 482              		.loc 1 97 6 is_stmt 1
 483              		.loc 1 97 34 is_stmt 0
 484              	#APP
 485              	# 97 "src/interruptRoutine.cpp" 1
  98              					} else {
 486              		li a0, 0
 487              	# 0 "" 2
 488              	#NO_APP
 489 0238 6F008000 		j	.L26
 490              	.L25:
  99:src/interruptRoutine.cpp **** 					__asm__ volatile("li a0, -1");
 491              		.loc 1 99 6 is_stmt 1
 492              		.loc 1 99 35 is_stmt 0
 493              	#APP
 494              	# 99 "src/interruptRoutine.cpp" 1
 100              					}
 495              		li a0, -1
 496              	# 0 "" 2
 497              	#NO_APP
 498              	.L26:
 101:src/interruptRoutine.cpp **** 				__asm__ volatile("sd a0, 80(s0)");
 499              		.loc 1 101 5 is_stmt 1
 500              		.loc 1 101 38 is_stmt 0
GAS LISTING /tmp/ccApC5Gp.s 			page 12


 501              	#APP
 502              	# 101 "src/interruptRoutine.cpp" 1
 102              					break;
 503              		sd a0, 80(s0)
 504              	# 0 "" 2
 505              		.loc 1 102 5 is_stmt 1
 506              	#NO_APP
 507 0244 6F000026 		j	.L22
 508              	.LVL59:
 509              	.L13:
 103:src/interruptRoutine.cpp **** 			case 0x22:
 510              		.loc 1 103 4
 104:src/interruptRoutine.cpp **** 				//sem_close
 105:src/interruptRoutine.cpp **** 				sem_t closeHandle;
 511              		.loc 1 105 5
 106:src/interruptRoutine.cpp **** 				closeHandle = (sem_t)a1;
 512              		.loc 1 106 5
 513              		.loc 1 106 17 is_stmt 0
 514 0248 833784FB 		ld	a5,-72(s0)
 515 024c 2338F4F4 		sd	a5,-176(s0)
 516              	.LVL60:
 107:src/interruptRoutine.cpp **** 				KSem::closeSem(closeHandle);
 517              		.loc 1 107 5 is_stmt 1
 518              		.loc 1 107 19 is_stmt 0
 519 0250 033504F5 		ld	a0,-176(s0)
 520 0254 97000000 		call	_ZN4KSem8closeSemEPS_@plt
 520      E7800000 
 521              	.LVL61:
 108:src/interruptRoutine.cpp **** 				__asm__ volatile("sd a0, 80(s0)");
 522              		.loc 1 108 5 is_stmt 1
 523              		.loc 1 108 38 is_stmt 0
 524              	#APP
 525              	# 108 "src/interruptRoutine.cpp" 1
 109              					break;
 526              		sd a0, 80(s0)
 527              	# 0 "" 2
 528              		.loc 1 109 5 is_stmt 1
 529              	#NO_APP
 530 0260 6F004024 		j	.L22
 531              	.LVL62:
 532              	.L12:
 110:src/interruptRoutine.cpp **** 			case 0x23:
 533              		.loc 1 110 4
 111:src/interruptRoutine.cpp **** 				//sem_wait
 112:src/interruptRoutine.cpp **** 				sem_t waitHandle;
 534              		.loc 1 112 5
 113:src/interruptRoutine.cpp **** 				waitHandle = (sem_t)a1;
 535              		.loc 1 113 5
 536              		.loc 1 113 16 is_stmt 0
 537 0264 833784FB 		ld	a5,-72(s0)
 538 0268 233CF4F4 		sd	a5,-168(s0)
 539              	.LVL63:
 114:src/interruptRoutine.cpp **** 				waitHandle->wait();
 540              		.loc 1 114 5 is_stmt 1
 541              		.loc 1 114 21 is_stmt 0
 542 026c 033584F5 		ld	a0,-168(s0)
 543 0270 97000000 		call	_ZN4KSem4waitEv@plt
GAS LISTING /tmp/ccApC5Gp.s 			page 13


 543      E7800000 
 544              	.LVL64:
 115:src/interruptRoutine.cpp **** 				__asm__ volatile("sd a0, 80(s0)");
 545              		.loc 1 115 5 is_stmt 1
 546              		.loc 1 115 38 is_stmt 0
 547              	#APP
 548              	# 115 "src/interruptRoutine.cpp" 1
 116              					break;
 549              		sd a0, 80(s0)
 550              	# 0 "" 2
 551              		.loc 1 116 5 is_stmt 1
 552              	#NO_APP
 553 027c 6F008022 		j	.L22
 554              	.LVL65:
 555              	.L11:
 117:src/interruptRoutine.cpp **** 			case 0x24:
 556              		.loc 1 117 4
 118:src/interruptRoutine.cpp **** 				//sem_signal
 119:src/interruptRoutine.cpp **** 				sem_t signalHandle;
 557              		.loc 1 119 5
 120:src/interruptRoutine.cpp **** 				signalHandle = (sem_t)a1;
 558              		.loc 1 120 5
 559              		.loc 1 120 18 is_stmt 0
 560 0280 833784FB 		ld	a5,-72(s0)
 561 0284 2330F4F6 		sd	a5,-160(s0)
 562              	.LVL66:
 121:src/interruptRoutine.cpp **** 				signalHandle->signal();
 563              		.loc 1 121 5 is_stmt 1
 564              		.loc 1 121 25 is_stmt 0
 565 0288 033504F6 		ld	a0,-160(s0)
 566 028c 97000000 		call	_ZN4KSem6signalEv@plt
 566      E7800000 
 567              	.LVL67:
 122:src/interruptRoutine.cpp **** 				__asm__ volatile("sd a0, 80(s0)");
 568              		.loc 1 122 5 is_stmt 1
 569              		.loc 1 122 38 is_stmt 0
 570              	#APP
 571              	# 122 "src/interruptRoutine.cpp" 1
 123              					break;
 572              		sd a0, 80(s0)
 573              	# 0 "" 2
 574              		.loc 1 123 5 is_stmt 1
 575              	#NO_APP
 576 0298 6F00C020 		j	.L22
 577              	.LVL68:
 578              	.L10:
 124:src/interruptRoutine.cpp **** 			case 0x31:
 579              		.loc 1 124 4
 125:src/interruptRoutine.cpp **** 				//time_sleep
 126:src/interruptRoutine.cpp **** 				time_t timerPeriods;
 580              		.loc 1 126 5
 127:src/interruptRoutine.cpp **** 				timerPeriods = (time_t)a1;
 581              		.loc 1 127 5
 582              		.loc 1 127 18 is_stmt 0
 583 029c 833784FB 		ld	a5,-72(s0)
 584 02a0 2334F4F6 		sd	a5,-152(s0)
 585              	.LVL69:
GAS LISTING /tmp/ccApC5Gp.s 			page 14


 128:src/interruptRoutine.cpp **** 				if (timerPeriods > 0) {
 586              		.loc 1 128 5 is_stmt 1
 587 02a4 833784F6 		ld	a5,-152(s0)
 588 02a8 63860700 		beqz	a5,.L27
 129:src/interruptRoutine.cpp **** 					__asm__ volatile("li a0, 0");
 589              		.loc 1 129 6
 590              		.loc 1 129 34 is_stmt 0
 591              	#APP
 592              	# 129 "src/interruptRoutine.cpp" 1
 130              					} else {
 593              		li a0, 0
 594              	# 0 "" 2
 595              	#NO_APP
 596 02b0 6F008000 		j	.L28
 597              	.L27:
 131:src/interruptRoutine.cpp **** 					__asm__ volatile("li a0, -1");
 598              		.loc 1 131 6 is_stmt 1
 599              		.loc 1 131 35 is_stmt 0
 600              	#APP
 601              	# 131 "src/interruptRoutine.cpp" 1
 132              					}
 602              		li a0, -1
 603              	# 0 "" 2
 604              	#NO_APP
 605              	.L28:
 133:src/interruptRoutine.cpp **** 				__asm__ volatile("sd a0, 80(s0)");
 606              		.loc 1 133 5 is_stmt 1
 607              		.loc 1 133 38 is_stmt 0
 608              	#APP
 609              	# 133 "src/interruptRoutine.cpp" 1
 134              					if (timerPeriods > 0) {
 610              		sd a0, 80(s0)
 611              	# 0 "" 2
 612              		.loc 1 134 5 is_stmt 1
 613              	#NO_APP
 614 02bc 833784F6 		ld	a5,-152(s0)
 615              	.LVL70:
 616 02c0 6388071C 		beqz	a5,.L41
 135:src/interruptRoutine.cpp **** 					Scheduler::putToSleep(TCB::running, timerPeriods);
 617              		.loc 1 135 6
 618              		.loc 1 135 27 is_stmt 0
 619 02c4 97070000 		la	a5,_ZN3TCB7runningE
 619      83B70700 
 620 02cc 83B70700 		ld	a5,0(a5)
 621 02d0 833584F6 		ld	a1,-152(s0)
 622 02d4 13850700 		mv	a0,a5
 623 02d8 97000000 		call	_ZN9Scheduler10putToSleepEP3TCBm@plt
 623      E7800000 
 624              	.LVL71:
 136:src/interruptRoutine.cpp **** 					TCB::yield();
 625              		.loc 1 136 6 is_stmt 1
 626              		.loc 1 136 16 is_stmt 0
 627 02e0 97000000 		call	_ZN3TCB5yieldEv@plt
 627      E7800000 
 628              	.LVL72:
 137:src/interruptRoutine.cpp **** 				}
 138:src/interruptRoutine.cpp **** 				break;
GAS LISTING /tmp/ccApC5Gp.s 			page 15


 629              		.loc 1 138 5 is_stmt 1
 630 02e8 6F00801A 		j	.L41
 631              	.LVL73:
 632              	.L9:
 139:src/interruptRoutine.cpp **** 			case 0x41:
 633              		.loc 1 139 4
 140:src/interruptRoutine.cpp **** 				//getc
 141:src/interruptRoutine.cpp **** 				__getc();
 634              		.loc 1 141 5
 635              		.loc 1 141 11 is_stmt 0
 636 02ec 97000000 		call	__getc@plt
 636      E7800000 
 637              	.LVL74:
 142:src/interruptRoutine.cpp **** 				__asm__ volatile("sd a0, 80(s0)");
 638              		.loc 1 142 5 is_stmt 1
 639              		.loc 1 142 38 is_stmt 0
 640              	#APP
 641              	# 142 "src/interruptRoutine.cpp" 1
 143              					break;
 642              		sd a0, 80(s0)
 643              	# 0 "" 2
 644              		.loc 1 143 5 is_stmt 1
 645              	#NO_APP
 646 02f8 6F00C01A 		j	.L22
 647              	.LVL75:
 648              	.L7:
 144:src/interruptRoutine.cpp **** 			case 0x42:
 649              		.loc 1 144 4
 145:src/interruptRoutine.cpp **** 				//putc
 146:src/interruptRoutine.cpp **** 				char c;
 650              		.loc 1 146 5
 147:src/interruptRoutine.cpp **** 				c = (char)a1;
 651              		.loc 1 147 5
 652              		.loc 1 147 7 is_stmt 0
 653 02fc 833784FB 		ld	a5,-72(s0)
 654 0300 A309F4F6 		sb	a5,-141(s0)
 655              	.LVL76:
 148:src/interruptRoutine.cpp **** 				__putc(c);
 656              		.loc 1 148 5 is_stmt 1
 657              		.loc 1 148 11 is_stmt 0
 658 0304 834734F7 		lbu	a5,-141(s0)
 659              	.LVL77:
 660 0308 13850700 		mv	a0,a5
 661 030c 97000000 		call	__putc@plt
 661      E7800000 
 662              	.LVL78:
 149:src/interruptRoutine.cpp **** 				break;
 663              		.loc 1 149 5 is_stmt 1
 664 0314 6F000019 		j	.L22
 665              	.LVL79:
 666              	.L21:
 150:src/interruptRoutine.cpp **** 			case 0x90:
 667              		.loc 1 150 4
 151:src/interruptRoutine.cpp **** 				//printString
 152:src/interruptRoutine.cpp **** 				const char* string;
 668              		.loc 1 152 5
 153:src/interruptRoutine.cpp **** 				string = (const char*)a1;
GAS LISTING /tmp/ccApC5Gp.s 			page 16


 669              		.loc 1 153 5
 670              		.loc 1 153 12 is_stmt 0
 671 0318 833784FB 		ld	a5,-72(s0)
 672 031c 2334F4FE 		sd	a5,-24(s0)
 673              	.LVL80:
 674              	.L31:
 154:src/interruptRoutine.cpp **** 				while (*string != '\0') {
 675              		.loc 1 154 5 is_stmt 1
 676              		.loc 1 154 20
 677              		.loc 1 154 12 is_stmt 0
 678 0320 833784FE 		ld	a5,-24(s0)
 679 0324 83C70700 		lbu	a5,0(a5)
 680              		.loc 1 154 20
 681 0328 63880716 		beqz	a5,.L42
 155:src/interruptRoutine.cpp **** 					__putc(*string);
 682              		.loc 1 155 6 is_stmt 1
 683              		.loc 1 155 12 is_stmt 0
 684 032c 833784FE 		ld	a5,-24(s0)
 685 0330 83C70700 		lbu	a5,0(a5)
 686 0334 13850700 		mv	a0,a5
 687 0338 97000000 		call	__putc@plt
 687      E7800000 
 688              	.LVL81:
 156:src/interruptRoutine.cpp **** 					string++;
 689              		.loc 1 156 6 is_stmt 1
 690              		.loc 1 156 12 is_stmt 0
 691 0340 833784FE 		ld	a5,-24(s0)
 692 0344 93871700 		addi	a5,a5,1
 693 0348 2334F4FE 		sd	a5,-24(s0)
 694              	.LVL82:
 154:src/interruptRoutine.cpp **** 				while (*string != '\0') {
 695              		.loc 1 154 5
 696 034c 6FF05FFD 		j	.L31
 697              	.LVL83:
 698              	.L4:
 157:src/interruptRoutine.cpp **** 				}
 158:src/interruptRoutine.cpp **** 				break;
 159:src/interruptRoutine.cpp **** 			case 0x91:
 699              		.loc 1 159 4 is_stmt 1
 160:src/interruptRoutine.cpp **** 				//printInteger
 161:src/interruptRoutine.cpp **** 				uint64 integer;
 700              		.loc 1 161 5
 162:src/interruptRoutine.cpp **** 				integer = a1;
 701              		.loc 1 162 5
 702              		.loc 1 162 13 is_stmt 0
 703 0350 833784FB 		ld	a5,-72(s0)
 704 0354 233CF4F6 		sd	a5,-136(s0)
 705              	.LVL84:
 163:src/interruptRoutine.cpp **** 				static char digits[] = "0123456789";
 706              		.loc 1 163 5 is_stmt 1
 164:src/interruptRoutine.cpp **** 				char buf[16];
 707              		.loc 1 164 5
 165:src/interruptRoutine.cpp **** 				int i, neg;
 708              		.loc 1 165 5
 166:src/interruptRoutine.cpp **** 				uint x;
 709              		.loc 1 166 5
 167:src/interruptRoutine.cpp **** 
GAS LISTING /tmp/ccApC5Gp.s 			page 17


 168:src/interruptRoutine.cpp **** 				neg = 0;
 710              		.loc 1 168 5
 711              		.loc 1 168 9 is_stmt 0
 712 0358 232A04F6 		sw	zero,-140(s0)
 713              	.LVL85:
 169:src/interruptRoutine.cpp **** 				if (integer < 0) {
 714              		.loc 1 169 5 is_stmt 1
 170:src/interruptRoutine.cpp **** 					neg = 1;
 171:src/interruptRoutine.cpp **** 					x = -integer;
 172:src/interruptRoutine.cpp **** 				} else {
 173:src/interruptRoutine.cpp **** 					x = integer;
 715              		.loc 1 173 6
 716              		.loc 1 173 8 is_stmt 0
 717 035c 833784F7 		ld	a5,-136(s0)
 718 0360 2320F4FE 		sw	a5,-32(s0)
 719              	.LVL86:
 174:src/interruptRoutine.cpp **** 				}
 175:src/interruptRoutine.cpp **** 
 176:src/interruptRoutine.cpp **** 				i = 0;
 720              		.loc 1 176 5 is_stmt 1
 721              		.loc 1 176 7 is_stmt 0
 722 0364 232204FE 		sw	zero,-28(s0)
 723              	.LVL87:
 724              	.L33:
 177:src/interruptRoutine.cpp **** 				do {
 725              		.loc 1 177 5 is_stmt 1
 178:src/interruptRoutine.cpp **** 					buf[i++] = digits[x % 10];
 726              		.loc 1 178 6
 727              		.loc 1 178 26 is_stmt 0
 728 0368 032704FE 		lw	a4,-32(s0)
 729 036c 9307A000 		li	a5,10
 730 0370 BB77F702 		remuw	a5,a4,a5
 731 0374 1B860700 		sext.w	a2,a5
 732              		.loc 1 178 11
 733 0378 832744FE 		lw	a5,-28(s0)
 734 037c 1B871700 		addiw	a4,a5,1
 735 0380 2322E4FE 		sw	a4,-28(s0)
 736              	.LVL88:
 737              		.loc 1 178 30
 738 0384 97060000 		lla	a3,_ZZ16interruptRoutineE6digits
 738      93860600 
 739 038c 13170602 		slli	a4,a2,32
 740 0390 13570702 		srli	a4,a4,32
 741              	.LVL89:
 742 0394 3387E600 		add	a4,a3,a4
 743 0398 03470700 		lbu	a4,0(a4)
 744              		.loc 1 178 15
 745 039c 930604FF 		addi	a3,s0,-16
 746 03a0 B387F600 		add	a5,a3,a5
 747 03a4 2384E7F0 		sb	a4,-248(a5)
 179:src/interruptRoutine.cpp **** 				} while ((x /= 10) != 0);
 748              		.loc 1 179 24 is_stmt 1
 749              		.loc 1 179 17 is_stmt 0
 750 03a8 032704FE 		lw	a4,-32(s0)
 751 03ac 9307A000 		li	a5,10
 752 03b0 BB57F702 		divuw	a5,a4,a5
 753 03b4 2320F4FE 		sw	a5,-32(s0)
GAS LISTING /tmp/ccApC5Gp.s 			page 18


 754              	.LVL90:
 755              		.loc 1 179 24
 756 03b8 832704FE 		lw	a5,-32(s0)
 757 03bc 9B870700 		sext.w	a5,a5
 758              	.LVL91:
 759 03c0 B337F000 		snez	a5,a5
 760 03c4 93F7F70F 		andi	a5,a5,0xff
 761 03c8 63840700 		beqz	a5,.L32
 177:src/interruptRoutine.cpp **** 				do {
 762              		.loc 1 177 5
 763 03cc 6FF0DFF9 		j	.L33
 764              	.L32:
 180:src/interruptRoutine.cpp **** 				if (neg) buf[i++] = '-';
 765              		.loc 1 180 5 is_stmt 1
 766 03d0 832744F7 		lw	a5,-140(s0)
 767 03d4 9B870700 		sext.w	a5,a5
 768 03d8 63800702 		beqz	a5,.L36
 769              		.loc 1 180 14 discriminator 1
 770              		.loc 1 180 19 is_stmt 0 discriminator 1
 771 03dc 832744FE 		lw	a5,-28(s0)
 772 03e0 1B871700 		addiw	a4,a5,1
 773 03e4 2322E4FE 		sw	a4,-28(s0)
 774              	.LVL92:
 775              		.loc 1 180 23 discriminator 1
 776 03e8 130704FF 		addi	a4,s0,-16
 777              	.LVL93:
 778 03ec B307F700 		add	a5,a4,a5
 779 03f0 1307D002 		li	a4,45
 780 03f4 2384E7F0 		sb	a4,-248(a5)
 781              	.LVL94:
 782              	.L36:
 181:src/interruptRoutine.cpp **** 
 182:src/interruptRoutine.cpp **** 				while (--i >= 0) {
 783              		.loc 1 182 5 is_stmt 1
 784              		.loc 1 182 16
 785 03f8 832744FE 		lw	a5,-28(s0)
 786 03fc 9B87F7FF 		addiw	a5,a5,-1
 787 0400 2322F4FE 		sw	a5,-28(s0)
 788              	.LVL95:
 789 0404 832744FE 		lw	a5,-28(s0)
 790 0408 93C7F7FF 		not	a5,a5
 791              	.LVL96:
 792 040c 9BD7F701 		srliw	a5,a5,31
 793 0410 93F7F70F 		andi	a5,a5,0xff
 794 0414 63860708 		beqz	a5,.L43
 183:src/interruptRoutine.cpp **** 					__putc(buf[i]);
 795              		.loc 1 183 6
 796              		.loc 1 183 12 is_stmt 0
 797 0418 832744FE 		lw	a5,-28(s0)
 798 041c 130704FF 		addi	a4,s0,-16
 799 0420 B307F700 		add	a5,a4,a5
 800 0424 83C787F0 		lbu	a5,-248(a5)
 801 0428 13850700 		mv	a0,a5
 802 042c 97000000 		call	__putc@plt
 802      E7800000 
 803              	.LVL97:
 182:src/interruptRoutine.cpp **** 					__putc(buf[i]);
GAS LISTING /tmp/ccApC5Gp.s 			page 19


 804              		.loc 1 182 5
 805 0434 6FF05FFC 		j	.L36
 806              	.LVL98:
 807              	.L5:
 184:src/interruptRoutine.cpp **** 				}
 185:src/interruptRoutine.cpp **** 				break;
 186:src/interruptRoutine.cpp **** 			default:
 808              		.loc 1 186 4 is_stmt 1
 187:src/interruptRoutine.cpp **** 				printString("\nNepostojeci op code: ");
 809              		.loc 1 187 5
 810              		.loc 1 187 16 is_stmt 0
 811 0438 17050000 		lla	a0,.LC0
 811      13050500 
 812 0440 97000000 		call	_Z11printStringPKc@plt
 812      E7800000 
 813              	.LVL99:
 188:src/interruptRoutine.cpp **** 				printInteger(opCode);
 814              		.loc 1 188 5 is_stmt 1
 815              		.loc 1 188 17 is_stmt 0
 816 0448 033504F8 		ld	a0,-128(s0)
 817 044c 97000000 		call	_Z12printIntegerm@plt
 817      E7800000 
 818              	.LVL100:
 189:src/interruptRoutine.cpp **** 				printString("\nscause: ");
 819              		.loc 1 189 5 is_stmt 1
 820              		.loc 1 189 16 is_stmt 0
 821 0454 17050000 		lla	a0,.LC1
 821      13050500 
 822 045c 97000000 		call	_Z11printStringPKc@plt
 822      E7800000 
 823              	.LVL101:
 190:src/interruptRoutine.cpp **** 				printInteger(scause);
 824              		.loc 1 190 5 is_stmt 1
 825              		.loc 1 190 17 is_stmt 0
 826 0464 033584FD 		ld	a0,-40(s0)
 827 0468 97000000 		call	_Z12printIntegerm@plt
 827      E7800000 
 828              	.LVL102:
 191:src/interruptRoutine.cpp **** 				printString("\nsepc: ");
 829              		.loc 1 191 5 is_stmt 1
 830              		.loc 1 191 16 is_stmt 0
 831 0470 17050000 		lla	a0,.LC2
 831      13050500 
 832 0478 97000000 		call	_Z11printStringPKc@plt
 832      E7800000 
 833              	.LVL103:
 192:src/interruptRoutine.cpp **** 				printInteger(sepc);
 834              		.loc 1 192 5 is_stmt 1
 835              		.loc 1 192 17 is_stmt 0
 836 0480 033504FD 		ld	a0,-48(s0)
 837 0484 97000000 		call	_Z12printIntegerm@plt
 837      E7800000 
 838              	.LVL104:
 193:src/interruptRoutine.cpp **** 				break;
 839              		.loc 1 193 5 is_stmt 1
 840 048c 6F008001 		j	.L22
 841              	.LVL105:
GAS LISTING /tmp/ccApC5Gp.s 			page 20


 842              	.L41:
 138:src/interruptRoutine.cpp **** 			case 0x41:
 843              		.loc 1 138 5 is_stmt 0
 844 0490 13000000 		nop
 845 0494 6F000001 		j	.L22
 846              	.LVL106:
 847              	.L42:
 158:src/interruptRoutine.cpp **** 			case 0x91:
 848              		.loc 1 158 5
 849 0498 13000000 		nop
 850 049c 6F008000 		j	.L22
 851              	.LVL107:
 852              	.L43:
 185:src/interruptRoutine.cpp **** 			default:
 853              		.loc 1 185 5
 854 04a0 13000000 		nop
 855              	.LVL108:
 856              	.L22:
 857              	.LBE5:
 858              	.LBE4:
 194:src/interruptRoutine.cpp **** 		}
 195:src/interruptRoutine.cpp **** 		//sepc pokazuje na ecall instrukciju, treba preci na sledecu instrukciju
 196:src/interruptRoutine.cpp **** 		//sepc += 4;
 197:src/interruptRoutine.cpp **** 		__asm__ volatile("addi %[dst], %[src], 0x4":[dst]"=r"(sepc):[src]"r"(
 859              		.loc 1 197 3 is_stmt 1 discriminator 1
 198:src/interruptRoutine.cpp **** 				sepc):"a5", "a0", "a1", "a2", "a3", "a4", "a6", "a7");
 860              		.loc 1 198 58 is_stmt 0 discriminator 1
 861 04a4 033304FD 		ld	t1,-48(s0)
 862              	#APP
 863              	# 198 "src/interruptRoutine.cpp" 1
 199              			__asm__ volatile("csrw sepc, %[sepc]": :[sepc] "r"(sepc):"a5", "a0", "a1", "a2", "a3", "a4", "a6"
 864              		addi t1, t1, 0x4
 865              	# 0 "" 2
 866              	.LVL109:
 867              	#NO_APP
 868 04ac 233864FC 		sd	t1,-48(s0)
 869              	.LVL110:
 870              		.loc 1 199 3 is_stmt 1 discriminator 1
 871              		.loc 1 199 107 is_stmt 0 discriminator 1
 872 04b0 033304FD 		ld	t1,-48(s0)
 873              	#APP
 874              	# 199 "src/interruptRoutine.cpp" 1
 200              			//Riscv::w_sepc(sepc + 4);
 875              		csrw sepc, t1
 876              	# 0 "" 2
 877              	#NO_APP
 878              	.LBE3:
 879 04b8 13000000 		nop
 880              	.LBE2:
 201:src/interruptRoutine.cpp **** 	} else if (scause == (1UL << 63 | 9)) {
 202:src/interruptRoutine.cpp **** 		//spoljasnji hardverski prekid (od konzole)
 203:src/interruptRoutine.cpp **** 		console_handler();
 204:src/interruptRoutine.cpp **** 	} else if (scause == (1UL << 63 | 1)) {
 205:src/interruptRoutine.cpp **** 		//prekid od tajmera
 206:src/interruptRoutine.cpp **** 		//printString("\nPrekid od tajmera\n");
 207:src/interruptRoutine.cpp **** 		Scheduler::wake();
 208:src/interruptRoutine.cpp **** 		TCB::runningTimeSlice++;
GAS LISTING /tmp/ccApC5Gp.s 			page 21


 209:src/interruptRoutine.cpp **** 		if (TCB::runningTimeSlice >= TCB::running->getTimeSlice()) {
 210:src/interruptRoutine.cpp **** 			//printString("\nMenjam kontekst\n");
 211:src/interruptRoutine.cpp **** 			TCB::yield();
 212:src/interruptRoutine.cpp **** 			TCB::runningTimeSlice = 0;
 213:src/interruptRoutine.cpp **** 		}
 214:src/interruptRoutine.cpp **** 
 215:src/interruptRoutine.cpp **** 		Riscv::w_sepc(sepc);
 216:src/interruptRoutine.cpp **** 		Riscv::w_sstatus(sstatus);
 217:src/interruptRoutine.cpp **** 		Riscv::mc_sip(Riscv::SIP_SSIP);
 218:src/interruptRoutine.cpp **** 	} else {
 219:src/interruptRoutine.cpp **** 		printString("\nGreska u prekidnoj rutini\n");
 220:src/interruptRoutine.cpp **** 		printString("scause: ");
 221:src/interruptRoutine.cpp **** 		printInteger(scause);
 222:src/interruptRoutine.cpp **** 		printString("\nsepc: ");
 223:src/interruptRoutine.cpp **** 		printInteger(sepc);
 224:src/interruptRoutine.cpp **** 	}
 225:src/interruptRoutine.cpp **** }
 881              		.loc 1 225 1 discriminator 1
 882 04bc 6F008011 		j	.L44
 883              	.LVL111:
 884              	.L3:
 885              	.LBB6:
 201:src/interruptRoutine.cpp **** 	} else if (scause == (1UL << 63 | 9)) {
 886              		.loc 1 201 9 is_stmt 1
 887 04c0 033784FD 		ld	a4,-40(s0)
 888              	.LVL112:
 889 04c4 9307F0FF 		li	a5,-1
 890 04c8 9397F703 		slli	a5,a5,63
 891 04cc 93879700 		addi	a5,a5,9
 892 04d0 6318F700 		bne	a4,a5,.L38
 203:src/interruptRoutine.cpp **** 	} else if (scause == (1UL << 63 | 1)) {
 893              		.loc 1 203 3
 203:src/interruptRoutine.cpp **** 	} else if (scause == (1UL << 63 | 1)) {
 894              		.loc 1 203 18 is_stmt 0
 895 04d4 97000000 		call	console_handler@plt
 895      E7800000 
 896              	.LVL113:
 897              	.LBE6:
 898              		.loc 1 225 1
 899 04dc 6F00800F 		j	.L44
 900              	.LVL114:
 901              	.L38:
 902              	.LBB7:
 204:src/interruptRoutine.cpp **** 		//prekid od tajmera
 903              		.loc 1 204 9 is_stmt 1
 904 04e0 033784FD 		ld	a4,-40(s0)
 905 04e4 9307F0FF 		li	a5,-1
 906 04e8 9397F703 		slli	a5,a5,63
 907 04ec 93871700 		addi	a5,a5,1
 908 04f0 631EF708 		bne	a4,a5,.L39
 207:src/interruptRoutine.cpp **** 		TCB::runningTimeSlice++;
 909              		.loc 1 207 3
 207:src/interruptRoutine.cpp **** 		TCB::runningTimeSlice++;
 910              		.loc 1 207 18 is_stmt 0
 911 04f4 97000000 		call	_ZN9Scheduler4wakeEv@plt
 911      E7800000 
 912              	.LVL115:
GAS LISTING /tmp/ccApC5Gp.s 			page 22


 208:src/interruptRoutine.cpp **** 		if (TCB::runningTimeSlice >= TCB::running->getTimeSlice()) {
 913              		.loc 1 208 3 is_stmt 1
 208:src/interruptRoutine.cpp **** 		if (TCB::runningTimeSlice >= TCB::running->getTimeSlice()) {
 914              		.loc 1 208 24 is_stmt 0
 915 04fc 97070000 		la	a5,_ZN3TCB16runningTimeSliceE
 915      83B70700 
 916 0504 83B70700 		ld	a5,0(a5)
 917 0508 13871700 		addi	a4,a5,1
 918 050c 97070000 		la	a5,_ZN3TCB16runningTimeSliceE
 918      83B70700 
 919 0514 23B0E700 		sd	a4,0(a5)
 209:src/interruptRoutine.cpp **** 			//printString("\nMenjam kontekst\n");
 920              		.loc 1 209 3 is_stmt 1
 209:src/interruptRoutine.cpp **** 			//printString("\nMenjam kontekst\n");
 921              		.loc 1 209 58 is_stmt 0
 922 0518 97070000 		la	a5,_ZN3TCB7runningE
 922      83B70700 
 923 0520 83B70700 		ld	a5,0(a5)
 924 0524 13850700 		mv	a0,a5
 925 0528 97000000 		call	_ZN3TCB12getTimeSliceEv
 925      E7800000 
 926              	.LVL116:
 927 0530 13070500 		mv	a4,a0
 209:src/interruptRoutine.cpp **** 			//printString("\nMenjam kontekst\n");
 928              		.loc 1 209 29
 929 0534 97070000 		la	a5,_ZN3TCB16runningTimeSliceE
 929      83B70700 
 930 053c 83B70700 		ld	a5,0(a5)
 931 0540 B3B7E700 		sgtu	a5,a4,a5
 932 0544 93C71700 		xori	a5,a5,1
 933 0548 93F7F70F 		andi	a5,a5,0xff
 209:src/interruptRoutine.cpp **** 			//printString("\nMenjam kontekst\n");
 934              		.loc 1 209 3
 935 054c 638C0700 		beqz	a5,.L40
 211:src/interruptRoutine.cpp **** 			TCB::runningTimeSlice = 0;
 936              		.loc 1 211 4 is_stmt 1
 211:src/interruptRoutine.cpp **** 			TCB::runningTimeSlice = 0;
 937              		.loc 1 211 14 is_stmt 0
 938 0550 97000000 		call	_ZN3TCB5yieldEv@plt
 938      E7800000 
 939              	.LVL117:
 212:src/interruptRoutine.cpp **** 		}
 940              		.loc 1 212 4 is_stmt 1
 212:src/interruptRoutine.cpp **** 		}
 941              		.loc 1 212 26 is_stmt 0
 942 0558 97070000 		la	a5,_ZN3TCB16runningTimeSliceE
 942      83B70700 
 943 0560 23B00700 		sd	zero,0(a5)
 944              	.L40:
 215:src/interruptRoutine.cpp **** 		Riscv::w_sstatus(sstatus);
 945              		.loc 1 215 3 is_stmt 1
 215:src/interruptRoutine.cpp **** 		Riscv::w_sstatus(sstatus);
 946              		.loc 1 215 16 is_stmt 0
 947 0564 033504FD 		ld	a0,-48(s0)
 948 0568 97000000 		call	_ZN5Riscv6w_sepcEm
 948      E7800000 
 949              	.LVL118:
GAS LISTING /tmp/ccApC5Gp.s 			page 23


 216:src/interruptRoutine.cpp **** 		Riscv::mc_sip(Riscv::SIP_SSIP);
 950              		.loc 1 216 3 is_stmt 1
 216:src/interruptRoutine.cpp **** 		Riscv::mc_sip(Riscv::SIP_SSIP);
 951              		.loc 1 216 19 is_stmt 0
 952 0570 033584FC 		ld	a0,-56(s0)
 953 0574 97000000 		call	_ZN5Riscv9w_sstatusEm
 953      E7800000 
 954              	.LVL119:
 217:src/interruptRoutine.cpp **** 	} else {
 955              		.loc 1 217 3 is_stmt 1
 217:src/interruptRoutine.cpp **** 	} else {
 956              		.loc 1 217 16 is_stmt 0
 957 057c 13052000 		li	a0,2
 958 0580 97000000 		call	_ZN5Riscv6mc_sipEm
 958      E7800000 
 959              	.LVL120:
 960              	.LBE7:
 961              		.loc 1 225 1
 962 0588 6F00C004 		j	.L44
 963              	.LVL121:
 964              	.L39:
 965              	.LBB8:
 219:src/interruptRoutine.cpp **** 		printString("scause: ");
 966              		.loc 1 219 3 is_stmt 1
 219:src/interruptRoutine.cpp **** 		printString("scause: ");
 967              		.loc 1 219 14 is_stmt 0
 968 058c 17050000 		lla	a0,.LC3
 968      13050500 
 969 0594 97000000 		call	_Z11printStringPKc@plt
 969      E7800000 
 970              	.LVL122:
 220:src/interruptRoutine.cpp **** 		printInteger(scause);
 971              		.loc 1 220 3 is_stmt 1
 220:src/interruptRoutine.cpp **** 		printInteger(scause);
 972              		.loc 1 220 14 is_stmt 0
 973 059c 17050000 		lla	a0,.LC4
 973      13050500 
 974 05a4 97000000 		call	_Z11printStringPKc@plt
 974      E7800000 
 975              	.LVL123:
 221:src/interruptRoutine.cpp **** 		printString("\nsepc: ");
 976              		.loc 1 221 3 is_stmt 1
 221:src/interruptRoutine.cpp **** 		printString("\nsepc: ");
 977              		.loc 1 221 15 is_stmt 0
 978 05ac 033584FD 		ld	a0,-40(s0)
 979 05b0 97000000 		call	_Z12printIntegerm@plt
 979      E7800000 
 980              	.LVL124:
 222:src/interruptRoutine.cpp **** 		printInteger(sepc);
 981              		.loc 1 222 3 is_stmt 1
 222:src/interruptRoutine.cpp **** 		printInteger(sepc);
 982              		.loc 1 222 14 is_stmt 0
 983 05b8 17050000 		lla	a0,.LC2
 983      13050500 
 984 05c0 97000000 		call	_Z11printStringPKc@plt
 984      E7800000 
 985              	.LVL125:
GAS LISTING /tmp/ccApC5Gp.s 			page 24


 223:src/interruptRoutine.cpp **** 	}
 986              		.loc 1 223 3 is_stmt 1
 223:src/interruptRoutine.cpp **** 	}
 987              		.loc 1 223 15 is_stmt 0
 988 05c8 033504FD 		ld	a0,-48(s0)
 989 05cc 97000000 		call	_Z12printIntegerm@plt
 989      E7800000 
 990              	.LVL126:
 991              	.L44:
 992              	.LBE8:
 993              		.loc 1 225 1
 994 05d4 13000000 		nop
 995 05d8 83308110 		ld	ra,264(sp)
 996              		.cfi_restore 1
 997 05dc 03340110 		ld	s0,256(sp)
 998              		.cfi_restore 8
 999              		.cfi_def_cfa 2, 272
 1000              	.LVL127:
 1001 05e0 13010111 		addi	sp,sp,272
 1002              		.cfi_def_cfa_offset 0
 1003              	.LVL128:
 1004 05e4 67800000 		jr	ra
 1005              		.cfi_endproc
 1006              	.LFE48:
 1008              		.section	.text._ZN5Riscv6w_sepcEm,"axG",@progbits,_ZN5Riscv6w_sepcEm,comdat
 1009              		.align	2
 1010              		.weak	_ZN5Riscv6w_sepcEm
 1012              	_ZN5Riscv6w_sepcEm:
 1013              	.LFB6:
 1014              		.file 2 "src/../h/Riscv.hpp"
   1:src/../h/Riscv.hpp **** //
   2:src/../h/Riscv.hpp **** // Created by os on 5/17/23.
   3:src/../h/Riscv.hpp **** //
   4:src/../h/Riscv.hpp **** 
   5:src/../h/Riscv.hpp **** #ifndef PROJEKAT2023_RISCV_HPP
   6:src/../h/Riscv.hpp **** #define PROJEKAT2023_RISCV_HPP
   7:src/../h/Riscv.hpp **** 
   8:src/../h/Riscv.hpp **** #include "../lib/hw.h"
   9:src/../h/Riscv.hpp **** 
  10:src/../h/Riscv.hpp **** class Riscv {
  11:src/../h/Riscv.hpp **** public:
  12:src/../h/Riscv.hpp **** 
  13:src/../h/Riscv.hpp **** 	static void popSppSpie();
  14:src/../h/Riscv.hpp **** 
  15:src/../h/Riscv.hpp **** 	//stavljanje registara x3-x31 na stek
  16:src/../h/Riscv.hpp **** 	static void pushRegisters();    //implementacija u asm
  17:src/../h/Riscv.hpp **** 
  18:src/../h/Riscv.hpp **** 	//skidanje registara x3-x31 sa steka
  19:src/../h/Riscv.hpp **** 	static void popRegisters();     //implementacija u asm
  20:src/../h/Riscv.hpp **** 
  21:src/../h/Riscv.hpp **** 	//read scause
  22:src/../h/Riscv.hpp **** 	static uint64 r_scause();
  23:src/../h/Riscv.hpp **** 
  24:src/../h/Riscv.hpp **** 	//write scause
  25:src/../h/Riscv.hpp **** 	static void w_scause(uint64 scause);
  26:src/../h/Riscv.hpp **** 
  27:src/../h/Riscv.hpp **** 	//read sepc
GAS LISTING /tmp/ccApC5Gp.s 			page 25


  28:src/../h/Riscv.hpp **** 	static uint64 r_sepc();
  29:src/../h/Riscv.hpp **** 
  30:src/../h/Riscv.hpp **** 	//write sepc
  31:src/../h/Riscv.hpp **** 	static void w_sepc(uint64 sepc);
  32:src/../h/Riscv.hpp **** 
  33:src/../h/Riscv.hpp **** 	//read stvec
  34:src/../h/Riscv.hpp **** 	static uint64 r_stvec();
  35:src/../h/Riscv.hpp **** 
  36:src/../h/Riscv.hpp **** 	//write stvec
  37:src/../h/Riscv.hpp **** 	static void w_stvec(uint64 stvec);
  38:src/../h/Riscv.hpp **** 
  39:src/../h/Riscv.hpp **** 	enum BitMaskSip {
  40:src/../h/Riscv.hpp **** 		//postoji zahtev za softverski prekid
  41:src/../h/Riscv.hpp **** 		SIP_SSIP = (1 << 1),
  42:src/../h/Riscv.hpp **** 		//postoji prekid od tajmera
  43:src/../h/Riscv.hpp **** 		SIP_STIP = (1 << 5),
  44:src/../h/Riscv.hpp **** 		//postoji zahtev za spoljasnji hardverski prekid
  45:src/../h/Riscv.hpp **** 		SIP_SEIP = (1 << 9)
  46:src/../h/Riscv.hpp **** 	};
  47:src/../h/Riscv.hpp **** 
  48:src/../h/Riscv.hpp **** 	//mask set sip
  49:src/../h/Riscv.hpp **** 	static void ms_sip(uint64 mask);
  50:src/../h/Riscv.hpp **** 
  51:src/../h/Riscv.hpp **** 	//mask clear sip
  52:src/../h/Riscv.hpp **** 	static void mc_sip(uint64 mask);
  53:src/../h/Riscv.hpp **** 
  54:src/../h/Riscv.hpp **** 	//read sip
  55:src/../h/Riscv.hpp **** 	static uint64 r_sip();
  56:src/../h/Riscv.hpp **** 
  57:src/../h/Riscv.hpp **** 	//write sip
  58:src/../h/Riscv.hpp **** 	static void w_sip(uint64 sip);
  59:src/../h/Riscv.hpp **** 
  60:src/../h/Riscv.hpp **** 	//kada se pozove sret, SIE dobija vrednost SPIE, SPIE se postavlja na 1,
  61:src/../h/Riscv.hpp **** 	//rezim se postavlja na osnovu SPP bita, SPP se postavlja na 0
  62:src/../h/Riscv.hpp **** 	enum BitMaskSstatus {
  63:src/../h/Riscv.hpp **** 		//1 - dozvoljeni prekidi; 0- nedozvoljeni prekidi; igonrise se u korisnickom rezimu
  64:src/../h/Riscv.hpp **** 		SSTATUS_SIE = (1 << 1),
  65:src/../h/Riscv.hpp **** 		//prethodna vrednost bita SIE
  66:src/../h/Riscv.hpp **** 		SSTATUS_SPIE = (1 << 5),
  67:src/../h/Riscv.hpp **** 		//iz kog rezima se desio skok; 0 - iz korisnickog; 1 - iz sistemskog
  68:src/../h/Riscv.hpp **** 		SSTATUS_SPP = (1 << 8)
  69:src/../h/Riscv.hpp **** 	};
  70:src/../h/Riscv.hpp **** 
  71:src/../h/Riscv.hpp **** 	//mask set sstatus
  72:src/../h/Riscv.hpp **** 	static void ms_sstatus(uint64 mask);
  73:src/../h/Riscv.hpp **** 
  74:src/../h/Riscv.hpp **** 	//mask clear sstatus
  75:src/../h/Riscv.hpp **** 	static void mc_sstatus(uint64 mask);
  76:src/../h/Riscv.hpp **** 
  77:src/../h/Riscv.hpp **** 	//read sstatus
  78:src/../h/Riscv.hpp **** 	static uint64 r_sstatus();
  79:src/../h/Riscv.hpp **** 
  80:src/../h/Riscv.hpp **** 	//write sstatus
  81:src/../h/Riscv.hpp **** 	static void w_sstatus(uint64 sstatus);
  82:src/../h/Riscv.hpp **** 
  83:src/../h/Riscv.hpp **** 	//upisuje kod sistemskog poziva u registar a0
  84:src/../h/Riscv.hpp **** 	static void loadOpCode(uint64 opCode);
GAS LISTING /tmp/ccApC5Gp.s 			page 26


  85:src/../h/Riscv.hpp **** 
  86:src/../h/Riscv.hpp **** };
  87:src/../h/Riscv.hpp **** 
  88:src/../h/Riscv.hpp **** inline uint64 Riscv::r_scause() {
  89:src/../h/Riscv.hpp **** 	uint64 volatile scause;
  90:src/../h/Riscv.hpp **** 	__asm__ volatile("csrr %[scause], scause": [scause] "=r"(scause));
  91:src/../h/Riscv.hpp **** 	return scause;
  92:src/../h/Riscv.hpp **** }
  93:src/../h/Riscv.hpp **** 
  94:src/../h/Riscv.hpp **** inline void Riscv::w_scause(uint64 scause) {
  95:src/../h/Riscv.hpp **** 	__asm__ volatile("csrw scause, %[scause]": :[scause] "r"(scause));
  96:src/../h/Riscv.hpp **** }
  97:src/../h/Riscv.hpp **** 
  98:src/../h/Riscv.hpp **** inline uint64 Riscv::r_sepc() {
  99:src/../h/Riscv.hpp **** 	uint64 volatile sepc;
 100:src/../h/Riscv.hpp **** 	__asm__ volatile("csrr %[sepc], sepc": [sepc] "=r"(sepc));
 101:src/../h/Riscv.hpp **** 	return sepc;
 102:src/../h/Riscv.hpp **** }
 103:src/../h/Riscv.hpp **** 
 104:src/../h/Riscv.hpp **** inline void Riscv::w_sepc(uint64 sepc) {
 1015              		.loc 2 104 40 is_stmt 1
 1016              		.cfi_startproc
 1017              	.LVL129:
 1018 0000 130101FF 		addi	sp,sp,-16
 1019              		.cfi_def_cfa_offset 16
 1020 0004 23348100 		sd	s0,8(sp)
 1021              		.cfi_offset 8, -8
 1022 0008 13040101 		addi	s0,sp,16
 1023              		.cfi_def_cfa 8, 0
 105:src/../h/Riscv.hpp **** 	__asm__ volatile("csrw sepc, %[sepc]": :[sepc] "r"(sepc));
 1024              		.loc 2 105 2
 1025              		.loc 2 105 59 is_stmt 0
 1026              	#APP
 1027              	# 105 "src/../h/Riscv.hpp" 1
 106              	}
 1028              		csrw sepc, a0
 1029              	# 0 "" 2
 1030              		.loc 2 106 1
 1031              	#NO_APP
 1032 0010 03348100 		ld	s0,8(sp)
 1033              		.cfi_restore 8
 1034              		.cfi_def_cfa 2, 16
 1035 0014 13010101 		addi	sp,sp,16
 1036              		.cfi_def_cfa_offset 0
 1037 0018 67800000 		jr	ra
 1038              		.cfi_endproc
 1039              	.LFE6:
 1041              		.section	.text._ZN5Riscv6mc_sipEm,"axG",@progbits,_ZN5Riscv6mc_sipEm,comdat
 1042              		.align	2
 1043              		.weak	_ZN5Riscv6mc_sipEm
 1045              	_ZN5Riscv6mc_sipEm:
 1046              	.LFB10:
 107:src/../h/Riscv.hpp **** 
 108:src/../h/Riscv.hpp **** inline uint64 Riscv::r_stvec() {
 109:src/../h/Riscv.hpp **** 	uint64 volatile stvec;
 110:src/../h/Riscv.hpp **** 	__asm__ volatile("csrr %[stvec], stvec": [stvec] "=r"(stvec));
 111:src/../h/Riscv.hpp **** 	return stvec;
GAS LISTING /tmp/ccApC5Gp.s 			page 27


 112:src/../h/Riscv.hpp **** }
 113:src/../h/Riscv.hpp **** 
 114:src/../h/Riscv.hpp **** inline void Riscv::w_stvec(uint64 stvec) {
 115:src/../h/Riscv.hpp **** 	__asm__ volatile("csrw stvec, %[stvec]": :[stvec] "r"(stvec));
 116:src/../h/Riscv.hpp **** }
 117:src/../h/Riscv.hpp **** 
 118:src/../h/Riscv.hpp **** inline void Riscv::ms_sip(uint64 mask) {
 119:src/../h/Riscv.hpp **** 	__asm__ volatile("csrs sip, %[mask]": :[mask] "r"(mask));
 120:src/../h/Riscv.hpp **** }
 121:src/../h/Riscv.hpp **** 
 122:src/../h/Riscv.hpp **** inline void Riscv::mc_sip(uint64 mask) {
 1047              		.loc 2 122 40 is_stmt 1
 1048              		.cfi_startproc
 1049              	.LVL130:
 1050 0000 130101FF 		addi	sp,sp,-16
 1051              		.cfi_def_cfa_offset 16
 1052 0004 23348100 		sd	s0,8(sp)
 1053              		.cfi_offset 8, -8
 1054 0008 13040101 		addi	s0,sp,16
 1055              		.cfi_def_cfa 8, 0
 123:src/../h/Riscv.hpp **** 	__asm__ volatile("csrc sip, %[mask]": :[mask] "r"(mask));
 1056              		.loc 2 123 2
 1057              		.loc 2 123 58 is_stmt 0
 1058              	#APP
 1059              	# 123 "src/../h/Riscv.hpp" 1
 124              	}
 1060              		csrc sip, a0
 1061              	# 0 "" 2
 1062              		.loc 2 124 1
 1063              	#NO_APP
 1064 0010 03348100 		ld	s0,8(sp)
 1065              		.cfi_restore 8
 1066              		.cfi_def_cfa 2, 16
 1067 0014 13010101 		addi	sp,sp,16
 1068              		.cfi_def_cfa_offset 0
 1069 0018 67800000 		jr	ra
 1070              		.cfi_endproc
 1071              	.LFE10:
 1073              		.section	.text._ZN5Riscv9w_sstatusEm,"axG",@progbits,_ZN5Riscv9w_sstatusEm,comdat
 1074              		.align	2
 1075              		.weak	_ZN5Riscv9w_sstatusEm
 1077              	_ZN5Riscv9w_sstatusEm:
 1078              	.LFB16:
 125:src/../h/Riscv.hpp **** 
 126:src/../h/Riscv.hpp **** inline uint64 Riscv::r_sip() {
 127:src/../h/Riscv.hpp **** 	uint64 volatile sip;
 128:src/../h/Riscv.hpp **** 	__asm__ volatile("csrr %[sip], sip": [sip] "=r"(sip));
 129:src/../h/Riscv.hpp **** 	return sip;
 130:src/../h/Riscv.hpp **** }
 131:src/../h/Riscv.hpp **** 
 132:src/../h/Riscv.hpp **** inline void Riscv::w_sip(uint64 sip) {
 133:src/../h/Riscv.hpp **** 	__asm__ volatile("csrw sip, %[sip]": :[sip] "r"(sip));
 134:src/../h/Riscv.hpp **** }
 135:src/../h/Riscv.hpp **** 
 136:src/../h/Riscv.hpp **** inline void Riscv::ms_sstatus(uint64 mask) {
 137:src/../h/Riscv.hpp **** 	__asm__ volatile("csrs sstatus, %[mask]": :[mask] "r"(mask));
 138:src/../h/Riscv.hpp **** }
GAS LISTING /tmp/ccApC5Gp.s 			page 28


 139:src/../h/Riscv.hpp **** 
 140:src/../h/Riscv.hpp **** inline void Riscv::mc_sstatus(uint64 mask) {
 141:src/../h/Riscv.hpp **** 	__asm__ volatile("csrc sstatus, %[mask]": :[mask] "r"(mask));
 142:src/../h/Riscv.hpp **** }
 143:src/../h/Riscv.hpp **** 
 144:src/../h/Riscv.hpp **** inline uint64 Riscv::r_sstatus() {
 145:src/../h/Riscv.hpp **** 	uint64 volatile sstatus;
 146:src/../h/Riscv.hpp **** 	__asm__ volatile("csrr %[sstatus], sstatus": [sstatus] "=r"(sstatus));
 147:src/../h/Riscv.hpp **** 	return sstatus;
 148:src/../h/Riscv.hpp **** }
 149:src/../h/Riscv.hpp **** 
 150:src/../h/Riscv.hpp **** inline void Riscv::w_sstatus(uint64 sstatus) {
 1079              		.loc 2 150 46 is_stmt 1
 1080              		.cfi_startproc
 1081              	.LVL131:
 1082 0000 130101FF 		addi	sp,sp,-16
 1083              		.cfi_def_cfa_offset 16
 1084 0004 23348100 		sd	s0,8(sp)
 1085              		.cfi_offset 8, -8
 1086 0008 13040101 		addi	s0,sp,16
 1087              		.cfi_def_cfa 8, 0
 151:src/../h/Riscv.hpp **** 	__asm__ volatile("csrw sstatus, %[sstatus]": :[sstatus] "r"(sstatus));
 1088              		.loc 2 151 2
 1089              		.loc 2 151 71 is_stmt 0
 1090              	#APP
 1091              	# 151 "src/../h/Riscv.hpp" 1
 152              	}
 1092              		csrw sstatus, a0
 1093              	# 0 "" 2
 1094              		.loc 2 152 1
 1095              	#NO_APP
 1096 0010 03348100 		ld	s0,8(sp)
 1097              		.cfi_restore 8
 1098              		.cfi_def_cfa 2, 16
 1099 0014 13010101 		addi	sp,sp,16
 1100              		.cfi_def_cfa_offset 0
 1101 0018 67800000 		jr	ra
 1102              		.cfi_endproc
 1103              	.LFE16:
 1105              		.section	.text._ZN3TCB11setFinishedEb,"axG",@progbits,_ZN3TCB11setFinishedEb,comdat
 1106              		.align	2
 1107              		.weak	_ZN3TCB11setFinishedEb
 1109              	_ZN3TCB11setFinishedEb:
 1110              	.LFB33:
 1111              		.file 3 "src/../h/TCB.hpp"
   1:src/../h/TCB.hpp **** //
   2:src/../h/TCB.hpp **** // Created by os on 5/23/23.
   3:src/../h/TCB.hpp **** //
   4:src/../h/TCB.hpp **** 
   5:src/../h/TCB.hpp **** #ifndef PROJEKAT2023_TCB_HPP
   6:src/../h/TCB.hpp **** #define PROJEKAT2023_TCB_HPP
   7:src/../h/TCB.hpp **** 
   8:src/../h/TCB.hpp **** #include "../lib/hw.h"
   9:src/../h/TCB.hpp **** #include "../h/ThreadQueue.hpp"
  10:src/../h/TCB.hpp **** 
  11:src/../h/TCB.hpp **** class TCB {
  12:src/../h/TCB.hpp **** public:
GAS LISTING /tmp/ccApC5Gp.s 			page 29


  13:src/../h/TCB.hpp **** 	friend class Scheduler;
  14:src/../h/TCB.hpp **** 
  15:src/../h/TCB.hpp **** 	using Body = void (*)(void*);
  16:src/../h/TCB.hpp **** 
  17:src/../h/TCB.hpp **** 	static TCB* createThread(Body function, void* args, uint64* stack);
  18:src/../h/TCB.hpp **** 
  19:src/../h/TCB.hpp **** 	bool isFinished() { return finished; }
  20:src/../h/TCB.hpp **** 
  21:src/../h/TCB.hpp **** 	void setFinished(bool finish) { this->finished = finish; }
 1112              		.loc 3 21 7 is_stmt 1
 1113              		.cfi_startproc
 1114              	.LVL132:
 1115 0000 130101FF 		addi	sp,sp,-16
 1116              		.cfi_def_cfa_offset 16
 1117 0004 23348100 		sd	s0,8(sp)
 1118              		.cfi_offset 8, -8
 1119 0008 13040101 		addi	s0,sp,16
 1120              		.cfi_def_cfa 8, 0
 1121              		.loc 3 21 34
 1122              		.loc 3 21 49 is_stmt 0
 1123 000c 2308B502 		sb	a1,48(a0)
 1124              		.loc 3 21 59
 1125 0010 03348100 		ld	s0,8(sp)
 1126              		.cfi_restore 8
 1127              		.cfi_def_cfa 2, 16
 1128 0014 13010101 		addi	sp,sp,16
 1129              		.cfi_def_cfa_offset 0
 1130 0018 67800000 		jr	ra
 1131              		.cfi_endproc
 1132              	.LFE33:
 1134              		.section	.text._ZN3TCB12getTimeSliceEv,"axG",@progbits,_ZN3TCB12getTimeSliceEv,comdat
 1135              		.align	2
 1136              		.weak	_ZN3TCB12getTimeSliceEv
 1138              	_ZN3TCB12getTimeSliceEv:
 1139              	.LFB36:
  22:src/../h/TCB.hpp **** 
  23:src/../h/TCB.hpp **** 	bool isBlocked() { return blocked; }
  24:src/../h/TCB.hpp **** 
  25:src/../h/TCB.hpp **** 	void setBlocked(bool block) { this->blocked = block; }
  26:src/../h/TCB.hpp **** 
  27:src/../h/TCB.hpp **** 	uint64 getTimeSlice() { return timeSlice; }
 1140              		.loc 3 27 9 is_stmt 1
 1141              		.cfi_startproc
 1142              	.LVL133:
 1143 0000 130101FF 		addi	sp,sp,-16
 1144              		.cfi_def_cfa_offset 16
 1145 0004 23348100 		sd	s0,8(sp)
 1146              		.cfi_offset 8, -8
 1147 0008 13040101 		addi	s0,sp,16
 1148              		.cfi_def_cfa 8, 0
 1149              		.loc 3 27 26
 1150              		.loc 3 27 44 is_stmt 0
 1151 000c 03358502 		ld	a0,40(a0)
 1152              	.LVL134:
 1153 0010 03348100 		ld	s0,8(sp)
 1154              		.cfi_restore 8
 1155              		.cfi_def_cfa 2, 16
GAS LISTING /tmp/ccApC5Gp.s 			page 30


 1156 0014 13010101 		addi	sp,sp,16
 1157              		.cfi_def_cfa_offset 0
 1158 0018 67800000 		jr	ra
 1159              		.cfi_endproc
 1160              	.LFE36:
 1162              		.data
 1163              		.align	3
 1166              	_ZZ16interruptRoutineE6digits:
 1167 0000 30313233 		.string	"0123456789"
 1167      34353637 
 1167      383900
 1168              		.text
 1169              	.Letext0:
 1170              		.file 4 "src/../lib/hw.h"
 1171              		.file 5 "src/../h/MemoryAllocator.hpp"
 1172              		.file 6 "src/../h/syscall_c.hpp"
 1173              		.file 7 "src/../h/KSem.hpp"
 1174              		.file 8 "src/../h/../h/ThreadQueue.hpp"
 1175              		.file 9 "src/../h/Scheduler.hpp"
 1176              		.file 10 "src/../lib/console.h"
 1177              		.file 11 "src/../h/helper.hpp"
GAS LISTING /tmp/ccApC5Gp.s 			page 31


DEFINED SYMBOLS
                            *ABS*:0000000000000000 interruptRoutine.cpp
     /tmp/ccApC5Gp.s:26     .text:0000000000000000 interruptRoutine
     /tmp/ccApC5Gp.s:30     .text:0000000000000000 .L0 
     /tmp/ccApC5Gp.s:31     .text:0000000000000000 .L0 
     /tmp/ccApC5Gp.s:32     .text:0000000000000004 .L0 
     /tmp/ccApC5Gp.s:35     .text:000000000000000c .L0 
     /tmp/ccApC5Gp.s:36     .text:000000000000000c .L0 
     /tmp/ccApC5Gp.s:38     .text:0000000000000010 .L0 
     /tmp/ccApC5Gp.s:40     .text:0000000000000010 .L0 
     /tmp/ccApC5Gp.s:41     .text:0000000000000010 .L0 
src/interruptRoutine.cpp:18     .text:0000000000000010 .L0 
     /tmp/ccApC5Gp.s:50     .text:0000000000000018 .L0 
src/interruptRoutine.cpp:19     .text:0000000000000018 .L0 
     /tmp/ccApC5Gp.s:60     .text:0000000000000020 .L0 
src/interruptRoutine.cpp:21     .text:0000000000000020 .L0 
     /tmp/ccApC5Gp.s:70     .text:0000000000000028 .L0 
     /tmp/ccApC5Gp.s:71     .text:0000000000000028 .L0 
src/interruptRoutine.cpp:23     .text:0000000000000028 .L0 
     /tmp/ccApC5Gp.s:81     .text:0000000000000030 .L0 
src/interruptRoutine.cpp:24     .text:0000000000000030 .L0 
     /tmp/ccApC5Gp.s:91     .text:0000000000000038 .L0 
src/interruptRoutine.cpp:25     .text:0000000000000038 .L0 
     /tmp/ccApC5Gp.s:101    .text:0000000000000040 .L0 
src/interruptRoutine.cpp:26     .text:0000000000000040 .L0 
     /tmp/ccApC5Gp.s:111    .text:0000000000000048 .L0 
src/interruptRoutine.cpp:27     .text:0000000000000048 .L0 
     /tmp/ccApC5Gp.s:121    .text:0000000000000050 .L0 
src/interruptRoutine.cpp:28     .text:0000000000000050 .L0 
     /tmp/ccApC5Gp.s:131    .text:0000000000000058 .L0 
src/interruptRoutine.cpp:29     .text:0000000000000058 .L0 
     /tmp/ccApC5Gp.s:141    .text:0000000000000060 .L0 
src/interruptRoutine.cpp:30     .text:0000000000000060 .L0 
     /tmp/ccApC5Gp.s:152    .text:0000000000000068 .L0 
     /tmp/ccApC5Gp.s:156    .text:0000000000000074 .L0 
     /tmp/ccApC5Gp.s:162    .text:0000000000000080 .L0 
     /tmp/ccApC5Gp.s:163    .text:0000000000000080 .L0 
     /tmp/ccApC5Gp.s:168    .text:0000000000000088 .L0 
     /tmp/ccApC5Gp.s:276    .text:00000000000000fc .L0 
     /tmp/ccApC5Gp.s:277    .text:00000000000000fc .L0 
     /tmp/ccApC5Gp.s:278    .text:00000000000000fc .L0 
     /tmp/ccApC5Gp.s:279    .text:00000000000000fc .L0 
     /tmp/ccApC5Gp.s:283    .text:0000000000000104 .L0 
     /tmp/ccApC5Gp.s:284    .text:0000000000000104 .L0 
     /tmp/ccApC5Gp.s:290    .text:0000000000000110 .L0 
     /tmp/ccApC5Gp.s:291    .text:0000000000000110 .L0 
     /tmp/ccApC5Gp.s:295    .text:000000000000011c .L0 
src/interruptRoutine.cpp:43     .text:000000000000011c .L0 
     /tmp/ccApC5Gp.s:302    .text:0000000000000120 .L0 
     /tmp/ccApC5Gp.s:306    .text:0000000000000124 .L0 
     /tmp/ccApC5Gp.s:307    .text:0000000000000124 .L0 
     /tmp/ccApC5Gp.s:308    .text:0000000000000124 .L0 
     /tmp/ccApC5Gp.s:309    .text:0000000000000124 .L0 
     /tmp/ccApC5Gp.s:313    .text:000000000000012c .L0 
     /tmp/ccApC5Gp.s:314    .text:000000000000012c .L0 
     /tmp/ccApC5Gp.s:318    .text:0000000000000138 .L0 
src/interruptRoutine.cpp:51     .text:0000000000000138 .L0 
GAS LISTING /tmp/ccApC5Gp.s 			page 32


     /tmp/ccApC5Gp.s:325    .text:000000000000013c .L0 
     /tmp/ccApC5Gp.s:329    .text:0000000000000140 .L0 
     /tmp/ccApC5Gp.s:330    .text:0000000000000140 .L0 
     /tmp/ccApC5Gp.s:331    .text:0000000000000140 .L0 
     /tmp/ccApC5Gp.s:332    .text:0000000000000140 .L0 
     /tmp/ccApC5Gp.s:336    .text:0000000000000148 .L0 
     /tmp/ccApC5Gp.s:337    .text:0000000000000148 .L0 
     /tmp/ccApC5Gp.s:338    .text:0000000000000148 .L0 
     /tmp/ccApC5Gp.s:343    .text:0000000000000150 .L0 
     /tmp/ccApC5Gp.s:344    .text:0000000000000150 .L0 
     /tmp/ccApC5Gp.s:345    .text:0000000000000150 .L0 
     /tmp/ccApC5Gp.s:350    .text:0000000000000158 .L0 
     /tmp/ccApC5Gp.s:351    .text:0000000000000158 .L0 
     /tmp/ccApC5Gp.s:352    .text:0000000000000158 .L0 
     /tmp/ccApC5Gp.s:357    .text:0000000000000160 .L0 
     /tmp/ccApC5Gp.s:358    .text:0000000000000160 .L0 
     /tmp/ccApC5Gp.s:365    .text:0000000000000178 .L0 
     /tmp/ccApC5Gp.s:368    .text:0000000000000180 .L0 
     /tmp/ccApC5Gp.s:369    .text:0000000000000180 .L0 
     /tmp/ccApC5Gp.s:372    .text:0000000000000188 .L0 
     /tmp/ccApC5Gp.s:374    .text:000000000000018c .L0 
src/interruptRoutine.cpp:66     .text:000000000000018c .L0 
     /tmp/ccApC5Gp.s:383    .text:0000000000000194 .L0 
src/interruptRoutine.cpp:68     .text:0000000000000194 .L0 
     /tmp/ccApC5Gp.s:391    .text:0000000000000198 .L0 
src/interruptRoutine.cpp:70     .text:0000000000000198 .L0 
     /tmp/ccApC5Gp.s:398    .text:000000000000019c .L0 
     /tmp/ccApC5Gp.s:402    .text:00000000000001a0 .L0 
     /tmp/ccApC5Gp.s:403    .text:00000000000001a0 .L0 
     /tmp/ccApC5Gp.s:404    .text:00000000000001a0 .L0 
     /tmp/ccApC5Gp.s:1109   .text._ZN3TCB11setFinishedEb:0000000000000000 _ZN3TCB11setFinishedEb
     /tmp/ccApC5Gp.s:411    .text:00000000000001bc .L0 
     /tmp/ccApC5Gp.s:412    .text:00000000000001bc .L0 
     /tmp/ccApC5Gp.s:415    .text:00000000000001c4 .L0 
     /tmp/ccApC5Gp.s:416    .text:00000000000001c4 .L0 
     /tmp/ccApC5Gp.s:419    .text:00000000000001cc .L0 
     /tmp/ccApC5Gp.s:423    .text:00000000000001d0 .L0 
     /tmp/ccApC5Gp.s:424    .text:00000000000001d0 .L0 
     /tmp/ccApC5Gp.s:425    .text:00000000000001d0 .L0 
     /tmp/ccApC5Gp.s:428    .text:00000000000001d8 .L0 
     /tmp/ccApC5Gp.s:432    .text:00000000000001dc .L0 
     /tmp/ccApC5Gp.s:433    .text:00000000000001dc .L0 
     /tmp/ccApC5Gp.s:434    .text:00000000000001dc .L0 
     /tmp/ccApC5Gp.s:435    .text:00000000000001dc .L0 
     /tmp/ccApC5Gp.s:439    .text:00000000000001e4 .L0 
     /tmp/ccApC5Gp.s:440    .text:00000000000001e4 .L0 
     /tmp/ccApC5Gp.s:444    .text:00000000000001f0 .L0 
     /tmp/ccApC5Gp.s:445    .text:00000000000001f0 .L0 
     /tmp/ccApC5Gp.s:448    .text:00000000000001f8 .L0 
     /tmp/ccApC5Gp.s:452    .text:00000000000001fc .L0 
     /tmp/ccApC5Gp.s:453    .text:00000000000001fc .L0 
     /tmp/ccApC5Gp.s:454    .text:00000000000001fc .L0 
     /tmp/ccApC5Gp.s:455    .text:00000000000001fc .L0 
     /tmp/ccApC5Gp.s:459    .text:0000000000000204 .L0 
     /tmp/ccApC5Gp.s:460    .text:0000000000000204 .L0 
     /tmp/ccApC5Gp.s:461    .text:0000000000000204 .L0 
     /tmp/ccApC5Gp.s:466    .text:000000000000020c .L0 
GAS LISTING /tmp/ccApC5Gp.s 			page 33


     /tmp/ccApC5Gp.s:467    .text:000000000000020c .L0 
     /tmp/ccApC5Gp.s:474    .text:0000000000000220 .L0 
     /tmp/ccApC5Gp.s:477    .text:0000000000000228 .L0 
     /tmp/ccApC5Gp.s:478    .text:0000000000000228 .L0 
     /tmp/ccApC5Gp.s:481    .text:0000000000000230 .L0 
     /tmp/ccApC5Gp.s:483    .text:0000000000000234 .L0 
src/interruptRoutine.cpp:97     .text:0000000000000234 .L0 
     /tmp/ccApC5Gp.s:492    .text:000000000000023c .L0 
src/interruptRoutine.cpp:99     .text:000000000000023c .L0 
     /tmp/ccApC5Gp.s:500    .text:0000000000000240 .L0 
src/interruptRoutine.cpp:101    .text:0000000000000240 .L0 
     /tmp/ccApC5Gp.s:507    .text:0000000000000244 .L0 
     /tmp/ccApC5Gp.s:511    .text:0000000000000248 .L0 
     /tmp/ccApC5Gp.s:512    .text:0000000000000248 .L0 
     /tmp/ccApC5Gp.s:513    .text:0000000000000248 .L0 
     /tmp/ccApC5Gp.s:514    .text:0000000000000248 .L0 
     /tmp/ccApC5Gp.s:518    .text:0000000000000250 .L0 
     /tmp/ccApC5Gp.s:519    .text:0000000000000250 .L0 
     /tmp/ccApC5Gp.s:523    .text:000000000000025c .L0 
src/interruptRoutine.cpp:108    .text:000000000000025c .L0 
     /tmp/ccApC5Gp.s:530    .text:0000000000000260 .L0 
     /tmp/ccApC5Gp.s:534    .text:0000000000000264 .L0 
     /tmp/ccApC5Gp.s:535    .text:0000000000000264 .L0 
     /tmp/ccApC5Gp.s:536    .text:0000000000000264 .L0 
     /tmp/ccApC5Gp.s:537    .text:0000000000000264 .L0 
     /tmp/ccApC5Gp.s:541    .text:000000000000026c .L0 
     /tmp/ccApC5Gp.s:542    .text:000000000000026c .L0 
     /tmp/ccApC5Gp.s:546    .text:0000000000000278 .L0 
src/interruptRoutine.cpp:115    .text:0000000000000278 .L0 
     /tmp/ccApC5Gp.s:553    .text:000000000000027c .L0 
     /tmp/ccApC5Gp.s:557    .text:0000000000000280 .L0 
     /tmp/ccApC5Gp.s:558    .text:0000000000000280 .L0 
     /tmp/ccApC5Gp.s:559    .text:0000000000000280 .L0 
     /tmp/ccApC5Gp.s:560    .text:0000000000000280 .L0 
     /tmp/ccApC5Gp.s:564    .text:0000000000000288 .L0 
     /tmp/ccApC5Gp.s:565    .text:0000000000000288 .L0 
     /tmp/ccApC5Gp.s:569    .text:0000000000000294 .L0 
src/interruptRoutine.cpp:122    .text:0000000000000294 .L0 
     /tmp/ccApC5Gp.s:576    .text:0000000000000298 .L0 
     /tmp/ccApC5Gp.s:580    .text:000000000000029c .L0 
     /tmp/ccApC5Gp.s:581    .text:000000000000029c .L0 
     /tmp/ccApC5Gp.s:582    .text:000000000000029c .L0 
     /tmp/ccApC5Gp.s:583    .text:000000000000029c .L0 
     /tmp/ccApC5Gp.s:587    .text:00000000000002a4 .L0 
     /tmp/ccApC5Gp.s:590    .text:00000000000002ac .L0 
src/interruptRoutine.cpp:129    .text:00000000000002ac .L0 
     /tmp/ccApC5Gp.s:599    .text:00000000000002b4 .L0 
src/interruptRoutine.cpp:131    .text:00000000000002b4 .L0 
     /tmp/ccApC5Gp.s:607    .text:00000000000002b8 .L0 
src/interruptRoutine.cpp:133    .text:00000000000002b8 .L0 
     /tmp/ccApC5Gp.s:614    .text:00000000000002bc .L0 
     /tmp/ccApC5Gp.s:618    .text:00000000000002c4 .L0 
     /tmp/ccApC5Gp.s:619    .text:00000000000002c4 .L0 
     /tmp/ccApC5Gp.s:626    .text:00000000000002e0 .L0 
     /tmp/ccApC5Gp.s:627    .text:00000000000002e0 .L0 
     /tmp/ccApC5Gp.s:630    .text:00000000000002e8 .L0 
     /tmp/ccApC5Gp.s:634    .text:00000000000002ec .L0 
GAS LISTING /tmp/ccApC5Gp.s 			page 34


     /tmp/ccApC5Gp.s:635    .text:00000000000002ec .L0 
     /tmp/ccApC5Gp.s:636    .text:00000000000002ec .L0 
     /tmp/ccApC5Gp.s:639    .text:00000000000002f4 .L0 
src/interruptRoutine.cpp:142    .text:00000000000002f4 .L0 
     /tmp/ccApC5Gp.s:646    .text:00000000000002f8 .L0 
     /tmp/ccApC5Gp.s:650    .text:00000000000002fc .L0 
     /tmp/ccApC5Gp.s:651    .text:00000000000002fc .L0 
     /tmp/ccApC5Gp.s:652    .text:00000000000002fc .L0 
     /tmp/ccApC5Gp.s:653    .text:00000000000002fc .L0 
     /tmp/ccApC5Gp.s:657    .text:0000000000000304 .L0 
     /tmp/ccApC5Gp.s:658    .text:0000000000000304 .L0 
     /tmp/ccApC5Gp.s:664    .text:0000000000000314 .L0 
     /tmp/ccApC5Gp.s:668    .text:0000000000000318 .L0 
     /tmp/ccApC5Gp.s:669    .text:0000000000000318 .L0 
     /tmp/ccApC5Gp.s:670    .text:0000000000000318 .L0 
     /tmp/ccApC5Gp.s:671    .text:0000000000000318 .L0 
     /tmp/ccApC5Gp.s:676    .text:0000000000000320 .L0 
     /tmp/ccApC5Gp.s:677    .text:0000000000000320 .L0 
     /tmp/ccApC5Gp.s:678    .text:0000000000000320 .L0 
     /tmp/ccApC5Gp.s:681    .text:0000000000000328 .L0 
     /tmp/ccApC5Gp.s:683    .text:000000000000032c .L0 
     /tmp/ccApC5Gp.s:684    .text:000000000000032c .L0 
     /tmp/ccApC5Gp.s:690    .text:0000000000000340 .L0 
     /tmp/ccApC5Gp.s:691    .text:0000000000000340 .L0 
     /tmp/ccApC5Gp.s:696    .text:000000000000034c .L0 
     /tmp/ccApC5Gp.s:700    .text:0000000000000350 .L0 
     /tmp/ccApC5Gp.s:701    .text:0000000000000350 .L0 
     /tmp/ccApC5Gp.s:702    .text:0000000000000350 .L0 
     /tmp/ccApC5Gp.s:703    .text:0000000000000350 .L0 
     /tmp/ccApC5Gp.s:707    .text:0000000000000358 .L0 
     /tmp/ccApC5Gp.s:708    .text:0000000000000358 .L0 
     /tmp/ccApC5Gp.s:709    .text:0000000000000358 .L0 
     /tmp/ccApC5Gp.s:710    .text:0000000000000358 .L0 
     /tmp/ccApC5Gp.s:711    .text:0000000000000358 .L0 
     /tmp/ccApC5Gp.s:712    .text:0000000000000358 .L0 
     /tmp/ccApC5Gp.s:715    .text:000000000000035c .L0 
     /tmp/ccApC5Gp.s:716    .text:000000000000035c .L0 
     /tmp/ccApC5Gp.s:717    .text:000000000000035c .L0 
     /tmp/ccApC5Gp.s:721    .text:0000000000000364 .L0 
     /tmp/ccApC5Gp.s:722    .text:0000000000000364 .L0 
     /tmp/ccApC5Gp.s:726    .text:0000000000000368 .L0 
     /tmp/ccApC5Gp.s:727    .text:0000000000000368 .L0 
     /tmp/ccApC5Gp.s:728    .text:0000000000000368 .L0 
     /tmp/ccApC5Gp.s:733    .text:0000000000000378 .L0 
     /tmp/ccApC5Gp.s:1166   .data:0000000000000000 _ZZ16interruptRoutineE6digits
     /tmp/ccApC5Gp.s:738    .text:0000000000000384 .L0 
     /tmp/ccApC5Gp.s:745    .text:000000000000039c .L0 
     /tmp/ccApC5Gp.s:749    .text:00000000000003a8 .L0 
     /tmp/ccApC5Gp.s:750    .text:00000000000003a8 .L0 
     /tmp/ccApC5Gp.s:756    .text:00000000000003b8 .L0 
     /tmp/ccApC5Gp.s:763    .text:00000000000003cc .L0 
     /tmp/ccApC5Gp.s:766    .text:00000000000003d0 .L0 
     /tmp/ccApC5Gp.s:770    .text:00000000000003dc .L0 
     /tmp/ccApC5Gp.s:771    .text:00000000000003dc .L0 
     /tmp/ccApC5Gp.s:776    .text:00000000000003e8 .L0 
     /tmp/ccApC5Gp.s:784    .text:00000000000003f8 .L0 
     /tmp/ccApC5Gp.s:785    .text:00000000000003f8 .L0 
GAS LISTING /tmp/ccApC5Gp.s 			page 35


     /tmp/ccApC5Gp.s:796    .text:0000000000000418 .L0 
     /tmp/ccApC5Gp.s:797    .text:0000000000000418 .L0 
     /tmp/ccApC5Gp.s:805    .text:0000000000000434 .L0 
     /tmp/ccApC5Gp.s:809    .text:0000000000000438 .L0 
     /tmp/ccApC5Gp.s:810    .text:0000000000000438 .L0 
     /tmp/ccApC5Gp.s:811    .text:0000000000000438 .L0 
     /tmp/ccApC5Gp.s:815    .text:0000000000000448 .L0 
     /tmp/ccApC5Gp.s:816    .text:0000000000000448 .L0 
     /tmp/ccApC5Gp.s:820    .text:0000000000000454 .L0 
     /tmp/ccApC5Gp.s:821    .text:0000000000000454 .L0 
     /tmp/ccApC5Gp.s:825    .text:0000000000000464 .L0 
     /tmp/ccApC5Gp.s:826    .text:0000000000000464 .L0 
     /tmp/ccApC5Gp.s:830    .text:0000000000000470 .L0 
     /tmp/ccApC5Gp.s:831    .text:0000000000000470 .L0 
     /tmp/ccApC5Gp.s:835    .text:0000000000000480 .L0 
     /tmp/ccApC5Gp.s:836    .text:0000000000000480 .L0 
     /tmp/ccApC5Gp.s:840    .text:000000000000048c .L0 
     /tmp/ccApC5Gp.s:844    .text:0000000000000490 .L0 
     /tmp/ccApC5Gp.s:849    .text:0000000000000498 .L0 
     /tmp/ccApC5Gp.s:854    .text:00000000000004a0 .L0 
     /tmp/ccApC5Gp.s:860    .text:00000000000004a4 .L0 
     /tmp/ccApC5Gp.s:861    .text:00000000000004a4 .L0 
     /tmp/ccApC5Gp.s:871    .text:00000000000004b0 .L0 
     /tmp/ccApC5Gp.s:872    .text:00000000000004b0 .L0 
     /tmp/ccApC5Gp.s:882    .text:00000000000004bc .L0 
     /tmp/ccApC5Gp.s:887    .text:00000000000004c0 .L0 
     /tmp/ccApC5Gp.s:894    .text:00000000000004d4 .L0 
     /tmp/ccApC5Gp.s:895    .text:00000000000004d4 .L0 
     /tmp/ccApC5Gp.s:899    .text:00000000000004dc .L0 
     /tmp/ccApC5Gp.s:904    .text:00000000000004e0 .L0 
     /tmp/ccApC5Gp.s:910    .text:00000000000004f4 .L0 
     /tmp/ccApC5Gp.s:911    .text:00000000000004f4 .L0 
     /tmp/ccApC5Gp.s:914    .text:00000000000004fc .L0 
     /tmp/ccApC5Gp.s:915    .text:00000000000004fc .L0 
     /tmp/ccApC5Gp.s:921    .text:0000000000000518 .L0 
     /tmp/ccApC5Gp.s:922    .text:0000000000000518 .L0 
     /tmp/ccApC5Gp.s:1138   .text._ZN3TCB12getTimeSliceEv:0000000000000000 _ZN3TCB12getTimeSliceEv
     /tmp/ccApC5Gp.s:929    .text:0000000000000534 .L0 
     /tmp/ccApC5Gp.s:935    .text:000000000000054c .L0 
     /tmp/ccApC5Gp.s:937    .text:0000000000000550 .L0 
     /tmp/ccApC5Gp.s:938    .text:0000000000000550 .L0 
     /tmp/ccApC5Gp.s:941    .text:0000000000000558 .L0 
     /tmp/ccApC5Gp.s:942    .text:0000000000000558 .L0 
     /tmp/ccApC5Gp.s:946    .text:0000000000000564 .L0 
     /tmp/ccApC5Gp.s:947    .text:0000000000000564 .L0 
     /tmp/ccApC5Gp.s:1012   .text._ZN5Riscv6w_sepcEm:0000000000000000 _ZN5Riscv6w_sepcEm
     /tmp/ccApC5Gp.s:951    .text:0000000000000570 .L0 
     /tmp/ccApC5Gp.s:952    .text:0000000000000570 .L0 
     /tmp/ccApC5Gp.s:1077   .text._ZN5Riscv9w_sstatusEm:0000000000000000 _ZN5Riscv9w_sstatusEm
     /tmp/ccApC5Gp.s:956    .text:000000000000057c .L0 
     /tmp/ccApC5Gp.s:957    .text:000000000000057c .L0 
     /tmp/ccApC5Gp.s:1045   .text._ZN5Riscv6mc_sipEm:0000000000000000 _ZN5Riscv6mc_sipEm
     /tmp/ccApC5Gp.s:962    .text:0000000000000588 .L0 
     /tmp/ccApC5Gp.s:967    .text:000000000000058c .L0 
     /tmp/ccApC5Gp.s:968    .text:000000000000058c .L0 
     /tmp/ccApC5Gp.s:972    .text:000000000000059c .L0 
     /tmp/ccApC5Gp.s:973    .text:000000000000059c .L0 
GAS LISTING /tmp/ccApC5Gp.s 			page 36


     /tmp/ccApC5Gp.s:977    .text:00000000000005ac .L0 
     /tmp/ccApC5Gp.s:978    .text:00000000000005ac .L0 
     /tmp/ccApC5Gp.s:982    .text:00000000000005b8 .L0 
     /tmp/ccApC5Gp.s:983    .text:00000000000005b8 .L0 
     /tmp/ccApC5Gp.s:987    .text:00000000000005c8 .L0 
     /tmp/ccApC5Gp.s:988    .text:00000000000005c8 .L0 
     /tmp/ccApC5Gp.s:994    .text:00000000000005d4 .L0 
     /tmp/ccApC5Gp.s:996    .text:00000000000005dc .L0 
     /tmp/ccApC5Gp.s:998    .text:00000000000005e0 .L0 
     /tmp/ccApC5Gp.s:999    .text:00000000000005e0 .L0 
     /tmp/ccApC5Gp.s:1002   .text:00000000000005e4 .L0 
     /tmp/ccApC5Gp.s:1005   .text:00000000000005e8 .L0 
     /tmp/ccApC5Gp.s:1016   .text._ZN5Riscv6w_sepcEm:0000000000000000 .L0 
     /tmp/ccApC5Gp.s:1018   .text._ZN5Riscv6w_sepcEm:0000000000000000 .L0 
     /tmp/ccApC5Gp.s:1019   .text._ZN5Riscv6w_sepcEm:0000000000000004 .L0 
     /tmp/ccApC5Gp.s:1021   .text._ZN5Riscv6w_sepcEm:0000000000000008 .L0 
     /tmp/ccApC5Gp.s:1023   .text._ZN5Riscv6w_sepcEm:000000000000000c .L0 
     /tmp/ccApC5Gp.s:1025   .text._ZN5Riscv6w_sepcEm:000000000000000c .L0 
  src/../h/Riscv.hpp:105    .text._ZN5Riscv6w_sepcEm:000000000000000c .L0 
     /tmp/ccApC5Gp.s:1032   .text._ZN5Riscv6w_sepcEm:0000000000000010 .L0 
     /tmp/ccApC5Gp.s:1033   .text._ZN5Riscv6w_sepcEm:0000000000000014 .L0 
     /tmp/ccApC5Gp.s:1034   .text._ZN5Riscv6w_sepcEm:0000000000000014 .L0 
     /tmp/ccApC5Gp.s:1036   .text._ZN5Riscv6w_sepcEm:0000000000000018 .L0 
     /tmp/ccApC5Gp.s:1038   .text._ZN5Riscv6w_sepcEm:000000000000001c .L0 
     /tmp/ccApC5Gp.s:1048   .text._ZN5Riscv6mc_sipEm:0000000000000000 .L0 
     /tmp/ccApC5Gp.s:1050   .text._ZN5Riscv6mc_sipEm:0000000000000000 .L0 
     /tmp/ccApC5Gp.s:1051   .text._ZN5Riscv6mc_sipEm:0000000000000004 .L0 
     /tmp/ccApC5Gp.s:1053   .text._ZN5Riscv6mc_sipEm:0000000000000008 .L0 
     /tmp/ccApC5Gp.s:1055   .text._ZN5Riscv6mc_sipEm:000000000000000c .L0 
     /tmp/ccApC5Gp.s:1057   .text._ZN5Riscv6mc_sipEm:000000000000000c .L0 
  src/../h/Riscv.hpp:123    .text._ZN5Riscv6mc_sipEm:000000000000000c .L0 
     /tmp/ccApC5Gp.s:1064   .text._ZN5Riscv6mc_sipEm:0000000000000010 .L0 
     /tmp/ccApC5Gp.s:1065   .text._ZN5Riscv6mc_sipEm:0000000000000014 .L0 
     /tmp/ccApC5Gp.s:1066   .text._ZN5Riscv6mc_sipEm:0000000000000014 .L0 
     /tmp/ccApC5Gp.s:1068   .text._ZN5Riscv6mc_sipEm:0000000000000018 .L0 
     /tmp/ccApC5Gp.s:1070   .text._ZN5Riscv6mc_sipEm:000000000000001c .L0 
     /tmp/ccApC5Gp.s:1080   .text._ZN5Riscv9w_sstatusEm:0000000000000000 .L0 
     /tmp/ccApC5Gp.s:1082   .text._ZN5Riscv9w_sstatusEm:0000000000000000 .L0 
     /tmp/ccApC5Gp.s:1083   .text._ZN5Riscv9w_sstatusEm:0000000000000004 .L0 
     /tmp/ccApC5Gp.s:1085   .text._ZN5Riscv9w_sstatusEm:0000000000000008 .L0 
     /tmp/ccApC5Gp.s:1087   .text._ZN5Riscv9w_sstatusEm:000000000000000c .L0 
     /tmp/ccApC5Gp.s:1089   .text._ZN5Riscv9w_sstatusEm:000000000000000c .L0 
  src/../h/Riscv.hpp:151    .text._ZN5Riscv9w_sstatusEm:000000000000000c .L0 
     /tmp/ccApC5Gp.s:1096   .text._ZN5Riscv9w_sstatusEm:0000000000000010 .L0 
     /tmp/ccApC5Gp.s:1097   .text._ZN5Riscv9w_sstatusEm:0000000000000014 .L0 
     /tmp/ccApC5Gp.s:1098   .text._ZN5Riscv9w_sstatusEm:0000000000000014 .L0 
     /tmp/ccApC5Gp.s:1100   .text._ZN5Riscv9w_sstatusEm:0000000000000018 .L0 
     /tmp/ccApC5Gp.s:1102   .text._ZN5Riscv9w_sstatusEm:000000000000001c .L0 
     /tmp/ccApC5Gp.s:1113   .text._ZN3TCB11setFinishedEb:0000000000000000 .L0 
     /tmp/ccApC5Gp.s:1115   .text._ZN3TCB11setFinishedEb:0000000000000000 .L0 
     /tmp/ccApC5Gp.s:1116   .text._ZN3TCB11setFinishedEb:0000000000000004 .L0 
     /tmp/ccApC5Gp.s:1118   .text._ZN3TCB11setFinishedEb:0000000000000008 .L0 
     /tmp/ccApC5Gp.s:1120   .text._ZN3TCB11setFinishedEb:000000000000000c .L0 
     /tmp/ccApC5Gp.s:1122   .text._ZN3TCB11setFinishedEb:000000000000000c .L0 
     /tmp/ccApC5Gp.s:1123   .text._ZN3TCB11setFinishedEb:000000000000000c .L0 
     /tmp/ccApC5Gp.s:1125   .text._ZN3TCB11setFinishedEb:0000000000000010 .L0 
     /tmp/ccApC5Gp.s:1126   .text._ZN3TCB11setFinishedEb:0000000000000014 .L0 
GAS LISTING /tmp/ccApC5Gp.s 			page 37


     /tmp/ccApC5Gp.s:1127   .text._ZN3TCB11setFinishedEb:0000000000000014 .L0 
     /tmp/ccApC5Gp.s:1129   .text._ZN3TCB11setFinishedEb:0000000000000018 .L0 
     /tmp/ccApC5Gp.s:1131   .text._ZN3TCB11setFinishedEb:000000000000001c .L0 
     /tmp/ccApC5Gp.s:1141   .text._ZN3TCB12getTimeSliceEv:0000000000000000 .L0 
     /tmp/ccApC5Gp.s:1143   .text._ZN3TCB12getTimeSliceEv:0000000000000000 .L0 
     /tmp/ccApC5Gp.s:1144   .text._ZN3TCB12getTimeSliceEv:0000000000000004 .L0 
     /tmp/ccApC5Gp.s:1146   .text._ZN3TCB12getTimeSliceEv:0000000000000008 .L0 
     /tmp/ccApC5Gp.s:1148   .text._ZN3TCB12getTimeSliceEv:000000000000000c .L0 
     /tmp/ccApC5Gp.s:1150   .text._ZN3TCB12getTimeSliceEv:000000000000000c .L0 
     /tmp/ccApC5Gp.s:1151   .text._ZN3TCB12getTimeSliceEv:000000000000000c .L0 
     /tmp/ccApC5Gp.s:1154   .text._ZN3TCB12getTimeSliceEv:0000000000000014 .L0 
     /tmp/ccApC5Gp.s:1155   .text._ZN3TCB12getTimeSliceEv:0000000000000014 .L0 
     /tmp/ccApC5Gp.s:1157   .text._ZN3TCB12getTimeSliceEv:0000000000000018 .L0 
     /tmp/ccApC5Gp.s:1159   .text._ZN3TCB12getTimeSliceEv:000000000000001c .L0 
     /tmp/ccApC5Gp.s:1178   .text:00000000000005e8 .L0 
     /tmp/ccApC5Gp.s:1041   .text._ZN5Riscv6w_sepcEm:000000000000001c .L0 
     /tmp/ccApC5Gp.s:1073   .text._ZN5Riscv6mc_sipEm:000000000000001c .L0 
     /tmp/ccApC5Gp.s:1105   .text._ZN5Riscv9w_sstatusEm:000000000000001c .L0 
     /tmp/ccApC5Gp.s:1134   .text._ZN3TCB11setFinishedEb:000000000000001c .L0 
     /tmp/ccApC5Gp.s:1162   .text._ZN3TCB12getTimeSliceEv:000000000000001c .L0 
     /tmp/ccApC5Gp.s:197    .rodata:000000000000005c .L8
     /tmp/ccApC5Gp.s:186    .text:00000000000000c8 .L0 
     /tmp/ccApC5Gp.s:191    .text:00000000000000dc .L0 
     /tmp/ccApC5Gp.s:404    .text:00000000000001a0 .L0 
     /tmp/ccApC5Gp.s:619    .text:00000000000002c4 .L0 
     /tmp/ccApC5Gp.s:738    .text:0000000000000384 .L0 
     /tmp/ccApC5Gp.s:8      .rodata:0000000000000000 .LC0
     /tmp/ccApC5Gp.s:811    .text:0000000000000438 .L0 
     /tmp/ccApC5Gp.s:11     .rodata:0000000000000018 .LC1
     /tmp/ccApC5Gp.s:821    .text:0000000000000454 .L0 
     /tmp/ccApC5Gp.s:14     .rodata:0000000000000028 .LC2
     /tmp/ccApC5Gp.s:831    .text:0000000000000470 .L0 
     /tmp/ccApC5Gp.s:915    .text:00000000000004fc .L0 
     /tmp/ccApC5Gp.s:918    .text:000000000000050c .L0 
     /tmp/ccApC5Gp.s:922    .text:0000000000000518 .L0 
     /tmp/ccApC5Gp.s:929    .text:0000000000000534 .L0 
     /tmp/ccApC5Gp.s:942    .text:0000000000000558 .L0 
     /tmp/ccApC5Gp.s:17     .rodata:0000000000000030 .LC3
     /tmp/ccApC5Gp.s:968    .text:000000000000058c .L0 
     /tmp/ccApC5Gp.s:20     .rodata:0000000000000050 .LC4
     /tmp/ccApC5Gp.s:973    .text:000000000000059c .L0 
     /tmp/ccApC5Gp.s:983    .text:00000000000005b8 .L0 
     /tmp/ccApC5Gp.s:159    .text:0000000000000080 .L2
     /tmp/ccApC5Gp.s:884    .text:00000000000004c0 .L3
     /tmp/ccApC5Gp.s:698    .text:0000000000000350 .L4
     /tmp/ccApC5Gp.s:807    .text:0000000000000438 .L5
     /tmp/ccApC5Gp.s:267    .text:00000000000000ec .L6
     /tmp/ccApC5Gp.s:666    .text:0000000000000318 .L21
     /tmp/ccApC5Gp.s:856    .text:00000000000004a4 .L22
     /tmp/ccApC5Gp.s:381    .text:0000000000000194 .L23
     /tmp/ccApC5Gp.s:389    .text:0000000000000198 .L24
     /tmp/ccApC5Gp.s:490    .text:000000000000023c .L25
     /tmp/ccApC5Gp.s:498    .text:0000000000000240 .L26
     /tmp/ccApC5Gp.s:597    .text:00000000000002b4 .L27
     /tmp/ccApC5Gp.s:605    .text:00000000000002b8 .L28
     /tmp/ccApC5Gp.s:842    .text:0000000000000490 .L41
     /tmp/ccApC5Gp.s:847    .text:0000000000000498 .L42
GAS LISTING /tmp/ccApC5Gp.s 			page 38


     /tmp/ccApC5Gp.s:674    .text:0000000000000320 .L31
     /tmp/ccApC5Gp.s:764    .text:00000000000003d0 .L32
     /tmp/ccApC5Gp.s:724    .text:0000000000000368 .L33
     /tmp/ccApC5Gp.s:782    .text:00000000000003f8 .L36
     /tmp/ccApC5Gp.s:852    .text:00000000000004a0 .L43
     /tmp/ccApC5Gp.s:991    .text:00000000000005d4 .L44
     /tmp/ccApC5Gp.s:901    .text:00000000000004e0 .L38
     /tmp/ccApC5Gp.s:964    .text:000000000000058c .L39
     /tmp/ccApC5Gp.s:944    .text:0000000000000564 .L40
     /tmp/ccApC5Gp.s:273    .text:00000000000000fc .L20
     /tmp/ccApC5Gp.s:304    .text:0000000000000124 .L19
     /tmp/ccApC5Gp.s:327    .text:0000000000000140 .L18
     /tmp/ccApC5Gp.s:400    .text:00000000000001a0 .L17
     /tmp/ccApC5Gp.s:421    .text:00000000000001d0 .L16
     /tmp/ccApC5Gp.s:430    .text:00000000000001dc .L15
     /tmp/ccApC5Gp.s:450    .text:00000000000001fc .L14
     /tmp/ccApC5Gp.s:509    .text:0000000000000248 .L13
     /tmp/ccApC5Gp.s:532    .text:0000000000000264 .L12
     /tmp/ccApC5Gp.s:555    .text:0000000000000280 .L11
     /tmp/ccApC5Gp.s:578    .text:000000000000029c .L10
     /tmp/ccApC5Gp.s:632    .text:00000000000002ec .L9
     /tmp/ccApC5Gp.s:648    .text:00000000000002fc .L7
     /tmp/ccApC5Gp.s:3193   .debug_abbrev:0000000000000000 .Ldebug_abbrev0
     /tmp/ccApC5Gp.s:5419   .debug_str:0000000000000974 .LASF201
     /tmp/ccApC5Gp.s:5321   .debug_str:00000000000006b3 .LASF202
     /tmp/ccApC5Gp.s:5375   .debug_str:000000000000084a .LASF203
     /tmp/ccApC5Gp.s:5065   .debug_ranges:0000000000000000 .Ldebug_ranges0
     /tmp/ccApC5Gp.s:5081   .debug_line:0000000000000000 .Ldebug_line0
     /tmp/ccApC5Gp.s:5343   .debug_str:0000000000000758 .LASF3
     /tmp/ccApC5Gp.s:5225   .debug_str:0000000000000445 .LASF0
     /tmp/ccApC5Gp.s:5255   .debug_str:00000000000004ed .LASF1
     /tmp/ccApC5Gp.s:5355   .debug_str:00000000000007ae .LASF2
     /tmp/ccApC5Gp.s:5365   .debug_str:0000000000000806 .LASF4
     /tmp/ccApC5Gp.s:5239   .debug_str:000000000000048f .LASF5
     /tmp/ccApC5Gp.s:5097   .debug_str:0000000000000076 .LASF6
     /tmp/ccApC5Gp.s:5329   .debug_str:00000000000006fd .LASF7
     /tmp/ccApC5Gp.s:5319   .debug_str:00000000000006a0 .LASF8
     /tmp/ccApC5Gp.s:5245   .debug_str:00000000000004b8 .LASF9
     /tmp/ccApC5Gp.s:5197   .debug_str:000000000000038a .LASF10
     /tmp/ccApC5Gp.s:5209   .debug_str:00000000000003de .LASF11
     /tmp/ccApC5Gp.s:5131   .debug_str:0000000000000181 .LASF12
     /tmp/ccApC5Gp.s:5187   .debug_str:0000000000000352 .LASF13
     /tmp/ccApC5Gp.s:5145   .debug_str:00000000000001fa .LASF14
     /tmp/ccApC5Gp.s:5129   .debug_str:0000000000000171 .LASF15
     /tmp/ccApC5Gp.s:5395   .debug_str:00000000000008e3 .LASF16
     /tmp/ccApC5Gp.s:5177   .debug_str:00000000000002e9 .LASF17
     /tmp/ccApC5Gp.s:5379   .debug_str:0000000000000871 .LASF18
     /tmp/ccApC5Gp.s:5317   .debug_str:0000000000000690 .LASF32
     /tmp/ccApC5Gp.s:5333   .debug_str:000000000000070c .LASF22
     /tmp/ccApC5Gp.s:5133   .debug_str:0000000000000190 .LASF19
     /tmp/ccApC5Gp.s:5113   .debug_str:00000000000000fe .LASF20
     /tmp/ccApC5Gp.s:5253   .debug_str:00000000000004e8 .LASF21
     /tmp/ccApC5Gp.s:5169   .debug_str:00000000000002ba .LASF23
     /tmp/ccApC5Gp.s:5473   .debug_str:0000000000000b90 .LASF24
     /tmp/ccApC5Gp.s:5277   .debug_str:0000000000000551 .LASF26
     /tmp/ccApC5Gp.s:5193   .debug_str:000000000000037e .LASF25
     /tmp/ccApC5Gp.s:5309   .debug_str:0000000000000658 .LASF27
GAS LISTING /tmp/ccApC5Gp.s 			page 39


     /tmp/ccApC5Gp.s:5111   .debug_str:00000000000000e5 .LASF44
     /tmp/ccApC5Gp.s:5347   .debug_str:000000000000077e .LASF28
     /tmp/ccApC5Gp.s:5449   .debug_str:0000000000000af0 .LASF29
     /tmp/ccApC5Gp.s:5221   .debug_str:0000000000000433 .LASF30
     /tmp/ccApC5Gp.s:5235   .debug_str:000000000000047d .LASF72
     /tmp/ccApC5Gp.s:5393   .debug_str:00000000000008ae .LASF74
     /tmp/ccApC5Gp.s:5271   .debug_str:0000000000000538 .LASF31
     /tmp/ccApC5Gp.s:5461   .debug_str:0000000000000b2f .LASF33
     /tmp/ccApC5Gp.s:5341   .debug_str:000000000000074d .LASF204
     /tmp/ccApC5Gp.s:5261   .debug_str:000000000000050e .LASF34
     /tmp/ccApC5Gp.s:5181   .debug_str:000000000000031a .LASF35
     /tmp/ccApC5Gp.s:5475   .debug_str:0000000000000b98 .LASF36
     /tmp/ccApC5Gp.s:5211   .debug_str:00000000000003ec .LASF37
     /tmp/ccApC5Gp.s:5295   .debug_str:00000000000005e4 .LASF39
     /tmp/ccApC5Gp.s:5373   .debug_str:000000000000083c .LASF38
     /tmp/ccApC5Gp.s:5179   .debug_str:00000000000002ff .LASF40
     /tmp/ccApC5Gp.s:5229   .debug_str:0000000000000462 .LASF41
     /tmp/ccApC5Gp.s:5471   .debug_str:0000000000000b76 .LASF42
     /tmp/ccApC5Gp.s:5441   .debug_str:0000000000000ad5 .LASF46
     /tmp/ccApC5Gp.s:5435   .debug_str:0000000000000a9e .LASF48
     /tmp/ccApC5Gp.s:5351   .debug_str:000000000000079a .LASF43
     /tmp/ccApC5Gp.s:5307   .debug_str:0000000000000643 .LASF45
     /tmp/ccApC5Gp.s:5335   .debug_str:000000000000071b .LASF47
     /tmp/ccApC5Gp.s:5337   .debug_str:0000000000000722 .LASF49
     /tmp/ccApC5Gp.s:5293   .debug_str:00000000000005dd .LASF50
     /tmp/ccApC5Gp.s:5247   .debug_str:00000000000004cb .LASF51
     /tmp/ccApC5Gp.s:5283   .debug_str:00000000000005a5 .LASF52
     /tmp/ccApC5Gp.s:5423   .debug_str:0000000000000a45 .LASF53
     /tmp/ccApC5Gp.s:5287   .debug_str:00000000000005ba .LASF54
     /tmp/ccApC5Gp.s:5305   .debug_str:000000000000062f .LASF55
     /tmp/ccApC5Gp.s:5389   .debug_str:00000000000008a0 .LASF56
     /tmp/ccApC5Gp.s:5369   .debug_str:0000000000000822 .LASF57
     /tmp/ccApC5Gp.s:5371   .debug_str:0000000000000835 .LASF58
     /tmp/ccApC5Gp.s:5137   .debug_str:00000000000001a1 .LASF59
     /tmp/ccApC5Gp.s:5173   .debug_str:00000000000002d6 .LASF60
     /tmp/ccApC5Gp.s:5219   .debug_str:0000000000000421 .LASF61
     /tmp/ccApC5Gp.s:5231   .debug_str:000000000000046f .LASF62
     /tmp/ccApC5Gp.s:5159   .debug_str:0000000000000284 .LASF63
     /tmp/ccApC5Gp.s:5099   .debug_str:000000000000007d .LASF64
     /tmp/ccApC5Gp.s:5359   .debug_str:00000000000007c6 .LASF65
     /tmp/ccApC5Gp.s:5353   .debug_str:00000000000007a3 .LASF66
     /tmp/ccApC5Gp.s:5495   .debug_str:0000000000000c3a .LASF67
     /tmp/ccApC5Gp.s:5463   .debug_str:0000000000000b35 .LASF68
     /tmp/ccApC5Gp.s:5479   .debug_str:0000000000000ba8 .LASF69
     /tmp/ccApC5Gp.s:5457   .debug_str:0000000000000b0f .LASF70
     /tmp/ccApC5Gp.s:5279   .debug_str:0000000000000570 .LASF71
     /tmp/ccApC5Gp.s:5429   .debug_str:0000000000000a73 .LASF73
     /tmp/ccApC5Gp.s:5151   .debug_str:000000000000023a .LASF75
     /tmp/ccApC5Gp.s:5455   .debug_str:0000000000000b06 .LASF76
     /tmp/ccApC5Gp.s:5403   .debug_str:0000000000000920 .LASF140
     /tmp/ccApC5Gp.s:5421   .debug_str:0000000000000a38 .LASF77
     /tmp/ccApC5Gp.s:5469   .debug_str:0000000000000b54 .LASF78
     /tmp/ccApC5Gp.s:5311   .debug_str:0000000000000676 .LASF205
     /tmp/ccApC5Gp.s:5405   .debug_str:0000000000000928 .LASF81
     /tmp/ccApC5Gp.s:5399   .debug_str:0000000000000903 .LASF83
     /tmp/ccApC5Gp.s:5119   .debug_str:0000000000000120 .LASF79
     /tmp/ccApC5Gp.s:5437   .debug_str:0000000000000ab3 .LASF80
GAS LISTING /tmp/ccApC5Gp.s 			page 40


     /tmp/ccApC5Gp.s:5357   .debug_str:00000000000007bc .LASF82
     /tmp/ccApC5Gp.s:5397   .debug_str:00000000000008ef .LASF84
     /tmp/ccApC5Gp.s:5409   .debug_str:0000000000000938 .LASF85
     /tmp/ccApC5Gp.s:5183   .debug_str:0000000000000323 .LASF86
     /tmp/ccApC5Gp.s:5275   .debug_str:0000000000000544 .LASF87
     /tmp/ccApC5Gp.s:5339   .debug_str:0000000000000735 .LASF88
     /tmp/ccApC5Gp.s:5163   .debug_str:000000000000029f .LASF89
     /tmp/ccApC5Gp.s:5363   .debug_str:00000000000007ee .LASF90
     /tmp/ccApC5Gp.s:5439   .debug_str:0000000000000aca .LASF91
     /tmp/ccApC5Gp.s:5189   .debug_str:0000000000000361 .LASF92
     /tmp/ccApC5Gp.s:5499   .debug_str:0000000000000c5f .LASF93
     /tmp/ccApC5Gp.s:5185   .debug_str:0000000000000339 .LASF94
     /tmp/ccApC5Gp.s:5259   .debug_str:0000000000000508 .LASF95
     /tmp/ccApC5Gp.s:5349   .debug_str:000000000000078a .LASF96
     /tmp/ccApC5Gp.s:5165   .debug_str:00000000000002ac .LASF97
     /tmp/ccApC5Gp.s:5139   .debug_str:00000000000001b4 .LASF98
     /tmp/ccApC5Gp.s:5263   .debug_str:0000000000000517 .LASF99
     /tmp/ccApC5Gp.s:5105   .debug_str:00000000000000b7 .LASF100
     /tmp/ccApC5Gp.s:5415   .debug_str:000000000000095c .LASF101
     /tmp/ccApC5Gp.s:5125   .debug_str:0000000000000151 .LASF102
     /tmp/ccApC5Gp.s:5433   .debug_str:0000000000000a96 .LASF103
     /tmp/ccApC5Gp.s:5127   .debug_str:0000000000000162 .LASF104
     /tmp/ccApC5Gp.s:5491   .debug_str:0000000000000c13 .LASF105
     /tmp/ccApC5Gp.s:5443   .debug_str:0000000000000ade .LASF106
     /tmp/ccApC5Gp.s:5425   .debug_str:0000000000000a59 .LASF107
     /tmp/ccApC5Gp.s:5377   .debug_str:0000000000000868 .LASF108
     /tmp/ccApC5Gp.s:5331   .debug_str:0000000000000704 .LASF109
     /tmp/ccApC5Gp.s:5213   .debug_str:00000000000003f7 .LASF110
     /tmp/ccApC5Gp.s:5417   .debug_str:0000000000000964 .LASF111
     /tmp/ccApC5Gp.s:5315   .debug_str:0000000000000684 .LASF112
     /tmp/ccApC5Gp.s:5087   .debug_str:000000000000001d .LASF113
     /tmp/ccApC5Gp.s:5089   .debug_str:000000000000002a .LASF114
     /tmp/ccApC5Gp.s:5485   .debug_str:0000000000000bdc .LASF165
     /tmp/ccApC5Gp.s:5153   .debug_str:0000000000000252 .LASF115
     /tmp/ccApC5Gp.s:5093   .debug_str:0000000000000040 .LASF116
     /tmp/ccApC5Gp.s:5497   .debug_str:0000000000000c52 .LASF117
     /tmp/ccApC5Gp.s:5205   .debug_str:00000000000003c8 .LASF118
     /tmp/ccApC5Gp.s:5227   .debug_str:0000000000000452 .LASF136
     /tmp/ccApC5Gp.s:5303   .debug_str:0000000000000622 .LASF137
     /tmp/ccApC5Gp.s:5199   .debug_str:000000000000039a .LASF119
     /tmp/ccApC5Gp.s:5381   .debug_str:0000000000000887 .LASF120
     /tmp/ccApC5Gp.s:5411   .debug_str:0000000000000943 .LASF121
     /tmp/ccApC5Gp.s:5301   .debug_str:000000000000060f .LASF122
     /tmp/ccApC5Gp.s:5167   .debug_str:00000000000002b5 .LASF123
     /tmp/ccApC5Gp.s:5361   .debug_str:00000000000007de .LASF124
     /tmp/ccApC5Gp.s:5401   .debug_str:0000000000000919 .LASF125
     /tmp/ccApC5Gp.s:5117   .debug_str:000000000000010e .LASF126
     /tmp/ccApC5Gp.s:5161   .debug_str:0000000000000296 .LASF127
     /tmp/ccApC5Gp.s:5291   .debug_str:00000000000005c7 .LASF128
     /tmp/ccApC5Gp.s:5223   .debug_str:000000000000043f .LASF129
     /tmp/ccApC5Gp.s:5413   .debug_str:000000000000094b .LASF130
     /tmp/ccApC5Gp.s:5091   .debug_str:0000000000000038 .LASF131
     /tmp/ccApC5Gp.s:5101   .debug_str:0000000000000088 .LASF132
     /tmp/ccApC5Gp.s:5465   .debug_str:0000000000000b3f .LASF133
     /tmp/ccApC5Gp.s:5447   .debug_str:0000000000000ae8 .LASF134
     /tmp/ccApC5Gp.s:5175   .debug_str:00000000000002dc .LASF135
     /tmp/ccApC5Gp.s:5095   .debug_str:0000000000000068 .LASF138
GAS LISTING /tmp/ccApC5Gp.s 			page 41


     /tmp/ccApC5Gp.s:5297   .debug_str:00000000000005fc .LASF139
     /tmp/ccApC5Gp.s:5453   .debug_str:0000000000000b01 .LASF141
     /tmp/ccApC5Gp.s:5249   .debug_str:00000000000004de .LASF142
     /tmp/ccApC5Gp.s:5141   .debug_str:00000000000001c7 .LASF143
     /tmp/ccApC5Gp.s:5155   .debug_str:0000000000000260 .LASF144
     /tmp/ccApC5Gp.s:5147   .debug_str:000000000000020a .LASF145
     /tmp/ccApC5Gp.s:5195   .debug_str:0000000000000384 .LASF146
     /tmp/ccApC5Gp.s:5251   .debug_str:00000000000004e3 .LASF147
     /tmp/ccApC5Gp.s:5107   .debug_str:00000000000000c9 .LASF148
     /tmp/ccApC5Gp.s:5203   .debug_str:00000000000003b0 .LASF149
     /tmp/ccApC5Gp.s:5157   .debug_str:000000000000027a .LASF206
     /tmp/ccApC5Gp.s:5431   .debug_str:0000000000000a7e .LASF207
     /tmp/ccApC5Gp.s:5241   .debug_str:00000000000004a1 .LASF150
     /tmp/ccApC5Gp.s:5367   .debug_str:000000000000080d .LASF151
     /tmp/ccApC5Gp.s:5233   .debug_str:0000000000000475 .LASF152
     /tmp/ccApC5Gp.s:5103   .debug_str:000000000000009b .LASF153
     /tmp/ccApC5Gp.s:5257   .debug_str:0000000000000500 .LASF154
     /tmp/ccApC5Gp.s:5281   .debug_str:0000000000000586 .LASF155
     /tmp/ccApC5Gp.s:5121   .debug_str:000000000000012c .LASF156
     /tmp/ccApC5Gp.s:5123   .debug_str:0000000000000135 .LASF157
     /tmp/ccApC5Gp.s:5149   .debug_str:0000000000000225 .LASF158
     /tmp/ccApC5Gp.s:5459   .debug_str:0000000000000b19 .LASF159
     /tmp/ccApC5Gp.s:5243   .debug_str:00000000000004ae .LASF160
     /tmp/ccApC5Gp.s:5387   .debug_str:000000000000089b .LASF161
     /tmp/ccApC5Gp.s:5289   .debug_str:00000000000005c2 .LASF162
     /tmp/ccApC5Gp.s:5489   .debug_str:0000000000000c06 .LASF163
     /tmp/ccApC5Gp.s:5483   .debug_str:0000000000000bca .LASF164
     /tmp/ccApC5Gp.s:5217   .debug_str:0000000000000409 .LASF166
     /tmp/ccApC5Gp.s:5487   .debug_str:0000000000000bf2 .LASF208
     /tmp/ccApC5Gp.s:5427   .debug_str:0000000000000a63 .LASF167
     /tmp/ccApC5Gp.s:5345   .debug_str:000000000000075d .LASF168
     /tmp/ccApC5Gp.s:5115   .debug_str:0000000000000103 .LASF169
     /tmp/ccApC5Gp.s:5493   .debug_str:0000000000000c19 .LASF170
     /tmp/ccApC5Gp.s:5265   .debug_str:000000000000051f .LASF171
     /tmp/ccApC5Gp.s:5143   .debug_str:00000000000001e5 .LASF172
     /tmp/ccApC5Gp.s:5327   .debug_str:00000000000006ec .LASF173
     /tmp/ccApC5Gp.s:27     .text:0000000000000000 .LFB48
     /tmp/ccApC5Gp.s:1006   .text:00000000000005e8 .LFE48
     /tmp/ccApC5Gp.s:5383   .debug_str:000000000000088c .LASF174
     /tmp/ccApC5Gp.s:4253   .debug_loc:0000000000000000 .LLST0
     /tmp/ccApC5Gp.s:5445   .debug_str:0000000000000ae3 .LASF175
     /tmp/ccApC5Gp.s:4284   .debug_loc:0000000000000087 .LLST1
     /tmp/ccApC5Gp.s:5467   .debug_str:0000000000000b4c .LASF176
     /tmp/ccApC5Gp.s:4315   .debug_loc:000000000000010e .LLST2
     /tmp/ccApC5Gp.s:4337   .debug_loc:000000000000016e .LLST3
     /tmp/ccApC5Gp.s:4359   .debug_loc:00000000000001ce .LLST4
     /tmp/ccApC5Gp.s:4381   .debug_loc:0000000000000230 .LLST5
     /tmp/ccApC5Gp.s:4403   .debug_loc:0000000000000292 .LLST6
     /tmp/ccApC5Gp.s:4425   .debug_loc:00000000000002f4 .LLST7
     /tmp/ccApC5Gp.s:4447   .debug_loc:0000000000000356 .LLST8
     /tmp/ccApC5Gp.s:4469   .debug_loc:00000000000003b8 .LLST9
     /tmp/ccApC5Gp.s:4491   .debug_loc:000000000000041a .LLST10
     /tmp/ccApC5Gp.s:160    .text:0000000000000080 .LBB3
     /tmp/ccApC5Gp.s:878    .text:00000000000004b8 .LBE3
     /tmp/ccApC5Gp.s:5299   .debug_str:0000000000000608 .LASF177
     /tmp/ccApC5Gp.s:4675   .debug_loc:000000000000074c .LLST11
     /tmp/ccApC5Gp.s:274    .text:00000000000000fc .LBB5
GAS LISTING /tmp/ccApC5Gp.s 			page 42


     /tmp/ccApC5Gp.s:857    .text:00000000000004a4 .LBE5
     /tmp/ccApC5Gp.s:4728   .debug_loc:0000000000000835 .LLST12
     /tmp/ccApC5Gp.s:4749   .debug_loc:0000000000000895 .LLST13
     /tmp/ccApC5Gp.s:5477   .debug_str:0000000000000ba1 .LASF178
     /tmp/ccApC5Gp.s:4761   .debug_loc:00000000000008cd .LLST14
     /tmp/ccApC5Gp.s:5313   .debug_str:000000000000067b .LASF179
     /tmp/ccApC5Gp.s:4773   .debug_loc:0000000000000905 .LLST15
     /tmp/ccApC5Gp.s:4785   .debug_loc:000000000000093d .LLST16
     /tmp/ccApC5Gp.s:4797   .debug_loc:0000000000000975 .LLST17
     /tmp/ccApC5Gp.s:5285   .debug_str:00000000000005ad .LASF180
     /tmp/ccApC5Gp.s:4809   .debug_loc:00000000000009ad .LLST18
     /tmp/ccApC5Gp.s:5207   .debug_str:00000000000003d4 .LASF181
     /tmp/ccApC5Gp.s:4821   .debug_loc:00000000000009e5 .LLST19
     /tmp/ccApC5Gp.s:5385   .debug_str:0000000000000893 .LASF182
     /tmp/ccApC5Gp.s:4833   .debug_loc:0000000000000a1d .LLST20
     /tmp/ccApC5Gp.s:5135   .debug_str:0000000000000195 .LASF183
     /tmp/ccApC5Gp.s:4845   .debug_loc:0000000000000a55 .LLST21
     /tmp/ccApC5Gp.s:5083   .debug_str:0000000000000000 .LASF184
     /tmp/ccApC5Gp.s:4857   .debug_loc:0000000000000a8d .LLST22
     /tmp/ccApC5Gp.s:5267   .debug_str:0000000000000524 .LASF185
     /tmp/ccApC5Gp.s:4869   .debug_loc:0000000000000ac5 .LLST23
     /tmp/ccApC5Gp.s:5171   .debug_str:00000000000002c9 .LASF186
     /tmp/ccApC5Gp.s:4881   .debug_loc:0000000000000afd .LLST24
     /tmp/ccApC5Gp.s:4898   .debug_loc:0000000000000b4a .LLST25
     /tmp/ccApC5Gp.s:5109   .debug_str:00000000000000de .LASF187
     /tmp/ccApC5Gp.s:4910   .debug_loc:0000000000000b82 .LLST26
     /tmp/ccApC5Gp.s:5237   .debug_str:0000000000000487 .LASF188
     /tmp/ccApC5Gp.s:4927   .debug_loc:0000000000000bcd .LLST27
     /tmp/ccApC5Gp.s:5391   .debug_str:00000000000008a7 .LASF189
     /tmp/ccApC5Gp.s:4949   .debug_loc:0000000000000c2f .LLST28
     /tmp/ccApC5Gp.s:4989   .debug_loc:0000000000000cdc .LLST29
     /tmp/ccApC5Gp.s:5002   .debug_loc:0000000000000d16 .LLST30
     /tmp/ccApC5Gp.s:293    .text:000000000000011c .LVL30
     /tmp/ccApC5Gp.s:316    .text:0000000000000138 .LVL33
     /tmp/ccApC5Gp.s:362    .text:0000000000000174 .LVL42
     /tmp/ccApC5Gp.s:409    .text:00000000000001bc .LVL44
     /tmp/ccApC5Gp.s:413    .text:00000000000001c4 .LVL45
     /tmp/ccApC5Gp.s:417    .text:00000000000001cc .LVL46
     /tmp/ccApC5Gp.s:426    .text:00000000000001d8 .LVL48
     /tmp/ccApC5Gp.s:442    .text:00000000000001f0 .LVL51
     /tmp/ccApC5Gp.s:446    .text:00000000000001f8 .LVL52
     /tmp/ccApC5Gp.s:471    .text:000000000000021c .LVL58
     /tmp/ccApC5Gp.s:521    .text:000000000000025c .LVL61
     /tmp/ccApC5Gp.s:544    .text:0000000000000278 .LVL64
     /tmp/ccApC5Gp.s:567    .text:0000000000000294 .LVL67
     /tmp/ccApC5Gp.s:624    .text:00000000000002e0 .LVL71
     /tmp/ccApC5Gp.s:628    .text:00000000000002e8 .LVL72
     /tmp/ccApC5Gp.s:637    .text:00000000000002f4 .LVL74
     /tmp/ccApC5Gp.s:662    .text:0000000000000314 .LVL78
     /tmp/ccApC5Gp.s:688    .text:0000000000000340 .LVL81
     /tmp/ccApC5Gp.s:803    .text:0000000000000434 .LVL97
     /tmp/ccApC5Gp.s:813    .text:0000000000000448 .LVL99
     /tmp/ccApC5Gp.s:818    .text:0000000000000454 .LVL100
     /tmp/ccApC5Gp.s:823    .text:0000000000000464 .LVL101
     /tmp/ccApC5Gp.s:828    .text:0000000000000470 .LVL102
     /tmp/ccApC5Gp.s:833    .text:0000000000000480 .LVL103
     /tmp/ccApC5Gp.s:838    .text:000000000000048c .LVL104
GAS LISTING /tmp/ccApC5Gp.s 			page 43


     /tmp/ccApC5Gp.s:896    .text:00000000000004dc .LVL113
     /tmp/ccApC5Gp.s:912    .text:00000000000004fc .LVL115
     /tmp/ccApC5Gp.s:926    .text:0000000000000530 .LVL116
     /tmp/ccApC5Gp.s:939    .text:0000000000000558 .LVL117
     /tmp/ccApC5Gp.s:949    .text:0000000000000570 .LVL118
     /tmp/ccApC5Gp.s:954    .text:000000000000057c .LVL119
     /tmp/ccApC5Gp.s:959    .text:0000000000000588 .LVL120
     /tmp/ccApC5Gp.s:970    .text:000000000000059c .LVL122
     /tmp/ccApC5Gp.s:975    .text:00000000000005ac .LVL123
     /tmp/ccApC5Gp.s:980    .text:00000000000005b8 .LVL124
     /tmp/ccApC5Gp.s:985    .text:00000000000005c8 .LVL125
     /tmp/ccApC5Gp.s:990    .text:00000000000005d4 .LVL126
     /tmp/ccApC5Gp.s:5407   .debug_str:0000000000000933 .LASF190
     /tmp/ccApC5Gp.s:1139   .text._ZN3TCB12getTimeSliceEv:0000000000000000 .LFB36
     /tmp/ccApC5Gp.s:1160   .text._ZN3TCB12getTimeSliceEv:000000000000001c .LFE36
     /tmp/ccApC5Gp.s:5191   .debug_str:0000000000000379 .LASF191
     /tmp/ccApC5Gp.s:5028   .debug_loc:0000000000000d88 .LLST31
     /tmp/ccApC5Gp.s:1110   .text._ZN3TCB11setFinishedEb:0000000000000000 .LFB33
     /tmp/ccApC5Gp.s:1132   .text._ZN3TCB11setFinishedEb:000000000000001c .LFE33
     /tmp/ccApC5Gp.s:5273   .debug_str:000000000000053d .LASF192
     /tmp/ccApC5Gp.s:1078   .text._ZN5Riscv9w_sstatusEm:0000000000000000 .LFB16
     /tmp/ccApC5Gp.s:1103   .text._ZN5Riscv9w_sstatusEm:000000000000001c .LFE16
     /tmp/ccApC5Gp.s:1046   .text._ZN5Riscv6mc_sipEm:0000000000000000 .LFB10
     /tmp/ccApC5Gp.s:1071   .text._ZN5Riscv6mc_sipEm:000000000000001c .LFE10
     /tmp/ccApC5Gp.s:5451   .debug_str:0000000000000afc .LASF193
     /tmp/ccApC5Gp.s:1013   .text._ZN5Riscv6w_sepcEm:0000000000000000 .LFB6
     /tmp/ccApC5Gp.s:1039   .text._ZN5Riscv6w_sepcEm:000000000000001c .LFE6
     /tmp/ccApC5Gp.s:5215   .debug_str:0000000000000402 .LASF194
     /tmp/ccApC5Gp.s:5269   .debug_str:0000000000000531 .LASF195
     /tmp/ccApC5Gp.s:5323   .debug_str:00000000000006cc .LASF196
     /tmp/ccApC5Gp.s:5481   .debug_str:0000000000000bbe .LASF197
     /tmp/ccApC5Gp.s:5085   .debug_str:000000000000000b .LASF198
     /tmp/ccApC5Gp.s:5325   .debug_str:00000000000006df .LASF199
     /tmp/ccApC5Gp.s:5201   .debug_str:00000000000003a0 .LASF200
     /tmp/ccApC5Gp.s:48     .text:0000000000000018 .LVL0
     /tmp/ccApC5Gp.s:55     .text:000000000000001c .LVL1
     /tmp/ccApC5Gp.s:883    .text:00000000000004c0 .LVL111
     /tmp/ccApC5Gp.s:888    .text:00000000000004c4 .LVL112
     /tmp/ccApC5Gp.s:1000   .text:00000000000005e0 .LVL127
     /tmp/ccApC5Gp.s:1003   .text:00000000000005e4 .LVL128
     /tmp/ccApC5Gp.s:58     .text:0000000000000020 .LVL2
     /tmp/ccApC5Gp.s:65     .text:0000000000000024 .LVL3
     /tmp/ccApC5Gp.s:866    .text:00000000000004ac .LVL109
     /tmp/ccApC5Gp.s:869    .text:00000000000004b0 .LVL110
     /tmp/ccApC5Gp.s:68     .text:0000000000000028 .LVL4
     /tmp/ccApC5Gp.s:76     .text:000000000000002c .LVL5
     /tmp/ccApC5Gp.s:79     .text:0000000000000030 .LVL6
     /tmp/ccApC5Gp.s:86     .text:0000000000000034 .LVL7
     /tmp/ccApC5Gp.s:89     .text:0000000000000038 .LVL8
     /tmp/ccApC5Gp.s:96     .text:000000000000003c .LVL9
     /tmp/ccApC5Gp.s:99     .text:0000000000000040 .LVL10
     /tmp/ccApC5Gp.s:106    .text:0000000000000044 .LVL11
     /tmp/ccApC5Gp.s:109    .text:0000000000000048 .LVL12
     /tmp/ccApC5Gp.s:116    .text:000000000000004c .LVL13
     /tmp/ccApC5Gp.s:119    .text:0000000000000050 .LVL14
     /tmp/ccApC5Gp.s:126    .text:0000000000000054 .LVL15
     /tmp/ccApC5Gp.s:129    .text:0000000000000058 .LVL16
GAS LISTING /tmp/ccApC5Gp.s 			page 44


     /tmp/ccApC5Gp.s:136    .text:000000000000005c .LVL17
     /tmp/ccApC5Gp.s:139    .text:0000000000000060 .LVL18
     /tmp/ccApC5Gp.s:146    .text:0000000000000064 .LVL19
     /tmp/ccApC5Gp.s:149    .text:0000000000000068 .LVL20
     /tmp/ccApC5Gp.s:303    .text:0000000000000124 .LVL31
     /tmp/ccApC5Gp.s:326    .text:0000000000000140 .LVL34
     /tmp/ccApC5Gp.s:399    .text:00000000000001a0 .LVL43
     /tmp/ccApC5Gp.s:420    .text:00000000000001d0 .LVL47
     /tmp/ccApC5Gp.s:429    .text:00000000000001dc .LVL49
     /tmp/ccApC5Gp.s:449    .text:00000000000001fc .LVL53
     /tmp/ccApC5Gp.s:508    .text:0000000000000248 .LVL59
     /tmp/ccApC5Gp.s:531    .text:0000000000000264 .LVL62
     /tmp/ccApC5Gp.s:554    .text:0000000000000280 .LVL65
     /tmp/ccApC5Gp.s:577    .text:000000000000029c .LVL68
     /tmp/ccApC5Gp.s:631    .text:00000000000002ec .LVL73
     /tmp/ccApC5Gp.s:647    .text:00000000000002fc .LVL75
     /tmp/ccApC5Gp.s:665    .text:0000000000000318 .LVL79
     /tmp/ccApC5Gp.s:673    .text:0000000000000320 .LVL80
     /tmp/ccApC5Gp.s:697    .text:0000000000000350 .LVL83
     /tmp/ccApC5Gp.s:781    .text:00000000000003f8 .LVL94
     /tmp/ccApC5Gp.s:806    .text:0000000000000438 .LVL98
     /tmp/ccApC5Gp.s:900    .text:00000000000004e0 .LVL114
     /tmp/ccApC5Gp.s:963    .text:000000000000058c .LVL121
     /tmp/ccApC5Gp.s:165    .text:0000000000000088 .LVL21
     /tmp/ccApC5Gp.s:170    .text:0000000000000090 .LVL22
     /tmp/ccApC5Gp.s:185    .text:00000000000000c8 .LVL23
     /tmp/ccApC5Gp.s:187    .text:00000000000000d0 .LVL24
     /tmp/ccApC5Gp.s:266    .text:00000000000000ec .LVL25
     /tmp/ccApC5Gp.s:269    .text:00000000000000f0 .LVL26
     /tmp/ccApC5Gp.s:723    .text:0000000000000368 .LVL87
     /tmp/ccApC5Gp.s:281    .text:0000000000000104 .LVL27
     /tmp/ccApC5Gp.s:286    .text:000000000000010c .LVL28
     /tmp/ccApC5Gp.s:288    .text:0000000000000110 .LVL29
     /tmp/ccApC5Gp.s:311    .text:000000000000012c .LVL32
     /tmp/ccApC5Gp.s:334    .text:0000000000000148 .LVL35
     /tmp/ccApC5Gp.s:339    .text:000000000000014c .LVL36
     /tmp/ccApC5Gp.s:341    .text:0000000000000150 .LVL37
     /tmp/ccApC5Gp.s:346    .text:0000000000000154 .LVL38
     /tmp/ccApC5Gp.s:348    .text:0000000000000158 .LVL39
     /tmp/ccApC5Gp.s:353    .text:000000000000015c .LVL40
     /tmp/ccApC5Gp.s:355    .text:0000000000000160 .LVL41
     /tmp/ccApC5Gp.s:437    .text:00000000000001e4 .LVL50
     /tmp/ccApC5Gp.s:457    .text:0000000000000204 .LVL54
     /tmp/ccApC5Gp.s:462    .text:0000000000000208 .LVL55
     /tmp/ccApC5Gp.s:464    .text:000000000000020c .LVL56
     /tmp/ccApC5Gp.s:468    .text:0000000000000210 .LVL57
     /tmp/ccApC5Gp.s:516    .text:0000000000000250 .LVL60
     /tmp/ccApC5Gp.s:539    .text:000000000000026c .LVL63
     /tmp/ccApC5Gp.s:562    .text:0000000000000288 .LVL66
     /tmp/ccApC5Gp.s:585    .text:00000000000002a4 .LVL69
     /tmp/ccApC5Gp.s:615    .text:00000000000002c0 .LVL70
     /tmp/ccApC5Gp.s:841    .text:0000000000000490 .LVL105
     /tmp/ccApC5Gp.s:846    .text:0000000000000498 .LVL106
     /tmp/ccApC5Gp.s:655    .text:0000000000000304 .LVL76
     /tmp/ccApC5Gp.s:659    .text:0000000000000308 .LVL77
     /tmp/ccApC5Gp.s:694    .text:000000000000034c .LVL82
     /tmp/ccApC5Gp.s:851    .text:00000000000004a0 .LVL107
GAS LISTING /tmp/ccApC5Gp.s 			page 45


     /tmp/ccApC5Gp.s:705    .text:0000000000000358 .LVL84
     /tmp/ccApC5Gp.s:855    .text:00000000000004a4 .LVL108
     /tmp/ccApC5Gp.s:736    .text:0000000000000384 .LVL88
     /tmp/ccApC5Gp.s:741    .text:0000000000000394 .LVL89
     /tmp/ccApC5Gp.s:774    .text:00000000000003e8 .LVL92
     /tmp/ccApC5Gp.s:777    .text:00000000000003ec .LVL93
     /tmp/ccApC5Gp.s:788    .text:0000000000000404 .LVL95
     /tmp/ccApC5Gp.s:791    .text:000000000000040c .LVL96
     /tmp/ccApC5Gp.s:713    .text:000000000000035c .LVL85
     /tmp/ccApC5Gp.s:719    .text:0000000000000364 .LVL86
     /tmp/ccApC5Gp.s:754    .text:00000000000003b8 .LVL90
     /tmp/ccApC5Gp.s:758    .text:00000000000003c0 .LVL91
     /tmp/ccApC5Gp.s:1142   .text._ZN3TCB12getTimeSliceEv:0000000000000000 .LVL133
     /tmp/ccApC5Gp.s:1152   .text._ZN3TCB12getTimeSliceEv:0000000000000010 .LVL134
     /tmp/ccApC5Gp.s:1179   .debug_info:0000000000000000 .Ldebug_info0
     /tmp/ccApC5Gp.s:5      .text:0000000000000000 .Ltext0
     /tmp/ccApC5Gp.s:1169   .text:00000000000005e8 .Letext0

UNDEFINED SYMBOLS
_ZN15MemoryAllocator7kmallocEm
_ZN15MemoryAllocator5kfreeEPv
_ZN3TCB12createThreadEPFvPvES0_Pm
_ZN3TCB7runningE
_ZN3TCB13releaseJoinedEv
_ZN3TCB5yieldEv
_ZN3TCB10threadJoinEPS_
_ZN4KSem7initSemEj
_ZN4KSem8closeSemEPS_
_ZN4KSem4waitEv
_ZN4KSem6signalEv
_ZN9Scheduler10putToSleepEP3TCBm
__getc
__putc
_Z11printStringPKc
_Z12printIntegerm
console_handler
_ZN9Scheduler4wakeEv
_ZN3TCB16runningTimeSliceE
