GAS LISTING /tmp/ccukrdXF.s 			page 1


   1              		.file	"interruptRoutine.cpp"
   2              		.option pic
   3              		.option norelax
   4              		.text
   5              	.Ltext0:
   6              		.section	.rodata
   7              		.align	3
   8              	.LC0:
   9 0000 0A4E6570 		.string	"\nNepostojeci op code: "
   9      6F73746F 
   9      6A656369 
   9      206F7020 
   9      636F6465 
  10 0017 00       		.align	3
  11              	.LC1:
  12 0018 0A736361 		.string	"\nscause: "
  12      7573653A 
  12      2000
  13 0022 00000000 		.align	3
  13      0000
  14              	.LC2:
  15 0028 0A736570 		.string	"\nsepc: "
  15      633A2000 
  16              		.align	3
  17              	.LC3:
  18 0030 4E656B69 		.string	"Neki drugi prekid\n"
  18      20647275 
  18      67692070 
  18      72656B69 
  18      640A00
  19 0043 00000000 		.align	3
  19      00
  20              	.LC4:
  21 0048 0A477265 		.string	"\nGreska u prekidnoj rutini\n"
  21      736B6120 
  21      75207072 
  21      656B6964 
  21      6E6F6A20 
  22 0064 00000000 		.align	3
  23              	.LC5:
  24 0068 73636175 		.string	"scause: "
  24      73653A20 
  24      00
  25              		.text
  26              		.align	2
  27              		.globl	interruptRoutine
  29              	interruptRoutine:
  30              	.LFB51:
  31              		.file 1 "src/interruptRoutine.cpp"
   1:src/interruptRoutine.cpp **** //
   2:src/interruptRoutine.cpp **** // Created by os on 5/22/23.
   3:src/interruptRoutine.cpp **** //
   4:src/interruptRoutine.cpp **** 
   5:src/interruptRoutine.cpp **** #include "../lib/console.h"
   6:src/interruptRoutine.cpp **** #include "../lib/hw.h"
   7:src/interruptRoutine.cpp **** #include "../h/MemoryAllocator.hpp"
   8:src/interruptRoutine.cpp **** #include "../h/helper.hpp"
GAS LISTING /tmp/ccukrdXF.s 			page 2


   9:src/interruptRoutine.cpp **** #include "../h/Riscv.hpp"
  10:src/interruptRoutine.cpp **** #include "../h/syscall_c.hpp"
  11:src/interruptRoutine.cpp **** #include "../h/TCB.hpp"
  12:src/interruptRoutine.cpp **** #include "../h/Scheduler.hpp"
  13:src/interruptRoutine.cpp **** #include "../h/KSem.hpp"
  14:src/interruptRoutine.cpp **** #include "../h/KConsole.hpp"
  15:src/interruptRoutine.cpp **** 
  16:src/interruptRoutine.cpp **** #include "../test/printing.hpp"
  17:src/interruptRoutine.cpp **** 
  18:src/interruptRoutine.cpp **** //void printInteger(int i);
  19:src/interruptRoutine.cpp **** 
  20:src/interruptRoutine.cpp **** #pragma GCC optimize("O0")
  21:src/interruptRoutine.cpp **** extern "C" void interruptRoutine() {
  32              		.loc 1 21 36
  33              		.cfi_startproc
  34 0000 130101F8 		addi	sp,sp,-128
  35              		.cfi_def_cfa_offset 128
  36 0004 233C1106 		sd	ra,120(sp)
  37 0008 23388106 		sd	s0,112(sp)
  38 000c 23349106 		sd	s1,104(sp)
  39              		.cfi_offset 1, -8
  40              		.cfi_offset 8, -16
  41              		.cfi_offset 9, -24
  42 0010 13040108 		addi	s0,sp,128
  43              		.cfi_def_cfa 8, 0
  22:src/interruptRoutine.cpp ****     //bitni sistemski registri
  23:src/interruptRoutine.cpp ****     uint64 scause, sepc, sstatus;
  44              		.loc 1 23 5
  24:src/interruptRoutine.cpp ****     __asm__ volatile("csrr %[scause], scause":[scause] "=r"(scause): : "a5", "a0", "a1", "a2", "a3"
  45              		.loc 1 24 5
  46              		.loc 1 24 119 is_stmt 0
  47              	#APP
  48              	# 24 "src/interruptRoutine.cpp" 1
  25              	    __asm__ volatile("csrr %[sepc], sepc":[sepc] "=r"(sepc): : "a5", "a0", "a1", "a2", "a3", "a4", 
  49              		csrr t1, scause
  50              	# 0 "" 2
  51              	#NO_APP
  52 0018 233C64FC 		sd	t1,-40(s0)
  53              	.LVL0:
  54              		.loc 1 25 5 is_stmt 1
  55              		.loc 1 25 111 is_stmt 0
  56              	#APP
  57              	# 25 "src/interruptRoutine.cpp" 1
  26              	    __asm__ volatile("csrr %[stat], sstatus":[stat] "=r"(sstatus): : "a5", "a0", "a1", "a2", "a3", 
  58              		csrr t1, sepc
  59              	# 0 "" 2
  60              	.LVL1:
  61              	#NO_APP
  62 0020 233864FC 		sd	t1,-48(s0)
  63              	.LVL2:
  64              		.loc 1 26 5 is_stmt 1
  65              		.loc 1 26 117 is_stmt 0
  66              	#APP
  67              	# 26 "src/interruptRoutine.cpp" 1
  27              	
  68              		csrr t1, sstatus
  69              	# 0 "" 2
GAS LISTING /tmp/ccukrdXF.s 			page 3


  70              	.LVL3:
  71              	#NO_APP
  72 0028 233464FC 		sd	t1,-56(s0)
  73              	.LVL4:
  28:src/interruptRoutine.cpp ****     //argumenti preneti sistemskom pozivu
  29:src/interruptRoutine.cpp ****     uint64 a0, a1, a2, a3, a4, a5, a6, a7;
  74              		.loc 1 29 5 is_stmt 1
  30:src/interruptRoutine.cpp ****     __asm__ volatile("mv %[ax], a0":[ax] "=r"(a0): : "a5", "a0", "a1", "a2", "a3", "a4", "a6", "a7"
  75              		.loc 1 30 5
  76              		.loc 1 30 101 is_stmt 0
  77              	#APP
  78              	# 30 "src/interruptRoutine.cpp" 1
  31              	    __asm__ volatile("mv %[ax], a1":[ax] "=r"(a1): : "a5", "a0", "a1", "a2", "a3", "a4", "a6", "a7"
  79              		mv t1, a0
  80              	# 0 "" 2
  81              	.LVL5:
  82              	#NO_APP
  83 0030 233064FC 		sd	t1,-64(s0)
  84              	.LVL6:
  85              		.loc 1 31 5 is_stmt 1
  86              		.loc 1 31 101 is_stmt 0
  87              	#APP
  88              	# 31 "src/interruptRoutine.cpp" 1
  32              	    __asm__ volatile("mv %[ax], a2":[ax] "=r"(a2): : "a5", "a0", "a1", "a2", "a3", "a4", "a6", "a7"
  89              		mv t1, a1
  90              	# 0 "" 2
  91              	.LVL7:
  92              	#NO_APP
  93 0038 233C64FA 		sd	t1,-72(s0)
  94              	.LVL8:
  95              		.loc 1 32 5 is_stmt 1
  96              		.loc 1 32 101 is_stmt 0
  97              	#APP
  98              	# 32 "src/interruptRoutine.cpp" 1
  33              	    __asm__ volatile("mv %[ax], a3":[ax] "=r"(a3): : "a5", "a0", "a1", "a2", "a3", "a4", "a6", "a7"
  99              		mv t1, a2
 100              	# 0 "" 2
 101              	.LVL9:
 102              	#NO_APP
 103 0040 233864FA 		sd	t1,-80(s0)
 104              	.LVL10:
 105              		.loc 1 33 5 is_stmt 1
 106              		.loc 1 33 101 is_stmt 0
 107              	#APP
 108              	# 33 "src/interruptRoutine.cpp" 1
  34              	    __asm__ volatile("mv %[ax], a4":[ax] "=r"(a4): : "a5", "a0", "a1", "a2", "a3", "a4", "a6", "a7"
 109              		mv t1, a3
 110              	# 0 "" 2
 111              	.LVL11:
 112              	#NO_APP
 113 0048 233464FA 		sd	t1,-88(s0)
 114              	.LVL12:
 115              		.loc 1 34 5 is_stmt 1
 116              		.loc 1 34 101 is_stmt 0
 117              	#APP
 118              	# 34 "src/interruptRoutine.cpp" 1
  35              	    __asm__ volatile("mv %[ax], a5":[ax] "=r"(a5): : "a5", "a0", "a1", "a2", "a3", "a4", "a6", "a7"
GAS LISTING /tmp/ccukrdXF.s 			page 4


 119              		mv t1, a4
 120              	# 0 "" 2
 121              	.LVL13:
 122              	#NO_APP
 123 0050 233064FA 		sd	t1,-96(s0)
 124              	.LVL14:
 125              		.loc 1 35 5 is_stmt 1
 126              		.loc 1 35 101 is_stmt 0
 127              	#APP
 128              	# 35 "src/interruptRoutine.cpp" 1
  36              	    __asm__ volatile("mv %[ax], a6":[ax] "=r"(a6): : "a5", "a0", "a1", "a2", "a3", "a4", "a6", "a7"
 129              		mv t1, a5
 130              	# 0 "" 2
 131              	.LVL15:
 132              	#NO_APP
 133 0058 233C64F8 		sd	t1,-104(s0)
 134              	.LVL16:
 135              		.loc 1 36 5 is_stmt 1
 136              		.loc 1 36 101 is_stmt 0
 137              	#APP
 138              	# 36 "src/interruptRoutine.cpp" 1
  37              	    __asm__ volatile("mv %[ax], a7":[ax] "=r"(a7): : "a5", "a0", "a1", "a2", "a3", "a4", "a6", "a7"
 139              		mv t1, a6
 140              	# 0 "" 2
 141              	.LVL17:
 142              	#NO_APP
 143 0060 233864F8 		sd	t1,-112(s0)
 144              	.LVL18:
 145              		.loc 1 37 5 is_stmt 1
 146              		.loc 1 37 101 is_stmt 0
 147              	#APP
 148              	# 37 "src/interruptRoutine.cpp" 1
  38              	
 149              		mv t1, a7
 150              	# 0 "" 2
 151              	.LVL19:
 152              	#NO_APP
 153 0068 233464F8 		sd	t1,-120(s0)
 154              	.LVL20:
  39:src/interruptRoutine.cpp ****     if (scause == 0x9 || scause == 0x8) {
 155              		.loc 1 39 5 is_stmt 1
 156              	.LBB2:
 157 006c 033784FD 		ld	a4,-40(s0)
 158 0070 93079000 		li	a5,9
 159 0074 6308F700 		beq	a4,a5,.L2
 160              		.loc 1 39 23 is_stmt 0 discriminator 1
 161 0078 033784FD 		ld	a4,-40(s0)
 162 007c 93078000 		li	a5,8
 163 0080 6312F736 		bne	a4,a5,.L3
 164              	.L2:
  40:src/interruptRoutine.cpp ****         //prekid zbog poziva ecall
  41:src/interruptRoutine.cpp ****         switch (a0) {
 165              		.loc 1 41 9 is_stmt 1
 166 0084 033704FC 		ld	a4,-64(s0)
 167 0088 93071009 		li	a5,145
 168 008c 6306F72C 		beq	a4,a5,.L4
 169 0090 033704FC 		ld	a4,-64(s0)
GAS LISTING /tmp/ccukrdXF.s 			page 5


 170 0094 93071009 		li	a5,145
 171 0098 63E8E72C 		bgtu	a4,a5,.L5
 172 009c 033704FC 		ld	a4,-64(s0)
 173 00a0 93071008 		li	a5,129
 174 00a4 6300F72A 		beq	a4,a5,.L6
 175 00a8 033704FC 		ld	a4,-64(s0)
 176 00ac 93071008 		li	a5,129
 177 00b0 63ECE72A 		bgtu	a4,a5,.L5
 178 00b4 033704FC 		ld	a4,-64(s0)
 179 00b8 93072004 		li	a5,66
 180 00bc 63E2E704 		bgtu	a4,a5,.L7
 181 00c0 833704FC 		ld	a5,-64(s0)
 182 00c4 6382072A 		beqz	a5,.L5
 183 00c8 033704FC 		ld	a4,-64(s0)
 184 00cc 93072004 		li	a5,66
 185 00d0 63ECE728 		bgtu	a4,a5,.L5
 186 00d4 833704FC 		ld	a5,-64(s0)
 187 00d8 13972700 		slli	a4,a5,2
 188 00dc 97070000 		lla	a5,.L9
 188      93870700 
 189 00e4 B307F700 		add	a5,a4,a5
 190 00e8 83A70700 		lw	a5,0(a5)
 191 00ec 1B870700 		sext.w	a4,a5
 192 00f0 97070000 		lla	a5,.L9
 192      93870700 
 193 00f8 B307F700 		add	a5,a4,a5
 194 00fc 67800700 		jr	a5
 195              		.section	.rodata
 196 0071 000000   		.align	2
 197              		.align	2
 198              	.L9:
 199 0074 00000000 		.word	.L5-.L9
 200 0078 00000000 		.word	.L21-.L9
 201 007c 00000000 		.word	.L20-.L9
 202 0080 00000000 		.word	.L5-.L9
 203 0084 00000000 		.word	.L5-.L9
 204 0088 00000000 		.word	.L5-.L9
 205 008c 00000000 		.word	.L5-.L9
 206 0090 00000000 		.word	.L5-.L9
 207 0094 00000000 		.word	.L5-.L9
 208 0098 00000000 		.word	.L5-.L9
 209 009c 00000000 		.word	.L5-.L9
 210 00a0 00000000 		.word	.L5-.L9
 211 00a4 00000000 		.word	.L5-.L9
 212 00a8 00000000 		.word	.L5-.L9
 213 00ac 00000000 		.word	.L5-.L9
 214 00b0 00000000 		.word	.L5-.L9
 215 00b4 00000000 		.word	.L5-.L9
 216 00b8 00000000 		.word	.L19-.L9
 217 00bc 00000000 		.word	.L18-.L9
 218 00c0 00000000 		.word	.L17-.L9
 219 00c4 00000000 		.word	.L16-.L9
 220 00c8 00000000 		.word	.L5-.L9
 221 00cc 00000000 		.word	.L5-.L9
 222 00d0 00000000 		.word	.L5-.L9
 223 00d4 00000000 		.word	.L5-.L9
 224 00d8 00000000 		.word	.L5-.L9
GAS LISTING /tmp/ccukrdXF.s 			page 6


 225 00dc 00000000 		.word	.L5-.L9
 226 00e0 00000000 		.word	.L5-.L9
 227 00e4 00000000 		.word	.L5-.L9
 228 00e8 00000000 		.word	.L5-.L9
 229 00ec 00000000 		.word	.L5-.L9
 230 00f0 00000000 		.word	.L5-.L9
 231 00f4 00000000 		.word	.L5-.L9
 232 00f8 00000000 		.word	.L15-.L9
 233 00fc 00000000 		.word	.L14-.L9
 234 0100 00000000 		.word	.L13-.L9
 235 0104 00000000 		.word	.L12-.L9
 236 0108 00000000 		.word	.L5-.L9
 237 010c 00000000 		.word	.L5-.L9
 238 0110 00000000 		.word	.L5-.L9
 239 0114 00000000 		.word	.L5-.L9
 240 0118 00000000 		.word	.L5-.L9
 241 011c 00000000 		.word	.L5-.L9
 242 0120 00000000 		.word	.L5-.L9
 243 0124 00000000 		.word	.L5-.L9
 244 0128 00000000 		.word	.L5-.L9
 245 012c 00000000 		.word	.L5-.L9
 246 0130 00000000 		.word	.L5-.L9
 247 0134 00000000 		.word	.L5-.L9
 248 0138 00000000 		.word	.L11-.L9
 249 013c 00000000 		.word	.L5-.L9
 250 0140 00000000 		.word	.L5-.L9
 251 0144 00000000 		.word	.L5-.L9
 252 0148 00000000 		.word	.L5-.L9
 253 014c 00000000 		.word	.L5-.L9
 254 0150 00000000 		.word	.L5-.L9
 255 0154 00000000 		.word	.L5-.L9
 256 0158 00000000 		.word	.L5-.L9
 257 015c 00000000 		.word	.L5-.L9
 258 0160 00000000 		.word	.L5-.L9
 259 0164 00000000 		.word	.L5-.L9
 260 0168 00000000 		.word	.L5-.L9
 261 016c 00000000 		.word	.L5-.L9
 262 0170 00000000 		.word	.L5-.L9
 263 0174 00000000 		.word	.L5-.L9
 264 0178 00000000 		.word	.L10-.L9
 265 017c 00000000 		.word	.L8-.L9
 266              		.text
 267              	.L7:
 268 0100 033704FC 		ld	a4,-64(s0)
 269 0104 93070008 		li	a5,128
 270 0108 6308F71E 		beq	a4,a5,.L22
 271 010c 6F00C025 		j	.L5
 272              	.L21:
  42:src/interruptRoutine.cpp ****             case 0x01:
 273              		.loc 1 42 13
  43:src/interruptRoutine.cpp ****                 //mem_alloc
  44:src/interruptRoutine.cpp ****                 //a1 = broj blokova koje treba alocirati
  45:src/interruptRoutine.cpp ****                 MemoryAllocator::kmalloc((size_t)a1 * MEM_BLOCK_SIZE);
 274              		.loc 1 45 17
 275              		.loc 1 45 41 is_stmt 0
 276 0110 833784FB 		ld	a5,-72(s0)
 277 0114 93976700 		slli	a5,a5,6
GAS LISTING /tmp/ccukrdXF.s 			page 7


 278 0118 93053000 		li	a1,3
 279 011c 13850700 		mv	a0,a5
 280 0120 97000000 		call	_ZN15MemoryAllocator7kmallocEmNS_7PurposeE@plt
 280      E7800000 
 281              	.LVL21:
  46:src/interruptRoutine.cpp ****                 __asm__ volatile("sd a0, 80(s0)");
 282              		.loc 1 46 17 is_stmt 1
 283              		.loc 1 46 50 is_stmt 0
 284              	#APP
 285              	# 46 "src/interruptRoutine.cpp" 1
  47              	                break;
 286              		sd a0, 80(s0)
 287              	# 0 "" 2
 288              		.loc 1 47 17 is_stmt 1
 289              	#NO_APP
 290 012c 6F008029 		j	.L23
 291              	.LVL22:
 292              	.L20:
  48:src/interruptRoutine.cpp ****             case 0x02:
 293              		.loc 1 48 13
  49:src/interruptRoutine.cpp ****                 //mem_free
  50:src/interruptRoutine.cpp ****                 //a1 = pokazivac na memoriju koju dealociramo, dobijen sa mem_alloc
  51:src/interruptRoutine.cpp ****                 MemoryAllocator::kfree((void*)a1);
 294              		.loc 1 51 17
 295              		.loc 1 51 39 is_stmt 0
 296 0130 833784FB 		ld	a5,-72(s0)
 297 0134 13850700 		mv	a0,a5
 298 0138 97000000 		call	_ZN15MemoryAllocator5kfreeEPv@plt
 298      E7800000 
 299              	.LVL23:
  52:src/interruptRoutine.cpp ****                 __asm__ volatile("sd a0, 80(s0)");
 300              		.loc 1 52 17 is_stmt 1
 301              		.loc 1 52 50 is_stmt 0
 302              	#APP
 303              	# 52 "src/interruptRoutine.cpp" 1
  53              	                break;
 304              		sd a0, 80(s0)
 305              	# 0 "" 2
 306              		.loc 1 53 17 is_stmt 1
 307              	#NO_APP
 308 0144 6F000028 		j	.L23
 309              	.LVL24:
 310              	.L19:
  54:src/interruptRoutine.cpp ****             case 0x11:
 311              		.loc 1 54 13
  55:src/interruptRoutine.cpp ****                 //thread_create
  56:src/interruptRoutine.cpp ****                 //a1 = pokazivac na rucku u koju upisujemo identifikator niti(adresa u memoriji)
  57:src/interruptRoutine.cpp ****                 //a2 = pokazivac na funkciju koju nit treba da izvrsava
  58:src/interruptRoutine.cpp ****                 //a3 = argumenti funkcije koju nit treba da izvrsava
  59:src/interruptRoutine.cpp ****                 //a4 = poslednja lokacija alociranog steka(najniza adresa)
  60:src/interruptRoutine.cpp ****                 *((thread_t*)a1) = TCB::createThread((TCB::Body)a2, (void*)a3, (uint64*)a4);
 312              		.loc 1 60 17
 313              		.loc 1 60 53 is_stmt 0
 314 0148 833704FB 		ld	a5,-80(s0)
 315 014c 033784FA 		ld	a4,-88(s0)
 316 0150 833604FA 		ld	a3,-96(s0)
 317              		.loc 1 60 17
GAS LISTING /tmp/ccukrdXF.s 			page 8


 318 0154 833484FB 		ld	s1,-72(s0)
 319              		.loc 1 60 53
 320 0158 13860600 		mv	a2,a3
 321 015c 93050700 		mv	a1,a4
 322 0160 13850700 		mv	a0,a5
 323 0164 97000000 		call	_ZN3TCB12createThreadEPFvPvES0_Pm@plt
 323      E7800000 
 324              	.LVL25:
 325 016c 93070500 		mv	a5,a0
 326              		.loc 1 60 34
 327 0170 23B0F400 		sd	a5,0(s1)
  61:src/interruptRoutine.cpp ****                 TCB::start(*((thread_t*)a1));
 328              		.loc 1 61 17 is_stmt 1
 329              		.loc 1 61 27 is_stmt 0
 330 0174 833784FB 		ld	a5,-72(s0)
 331 0178 83B70700 		ld	a5,0(a5)
 332 017c 13850700 		mv	a0,a5
 333 0180 97000000 		call	_ZN3TCB5startEPS_@plt
 333      E7800000 
 334              	.LVL26:
  62:src/interruptRoutine.cpp ****                 if (*((thread_t*)a1) != nullptr) {
 335              		.loc 1 62 17 is_stmt 1
 336              		.loc 1 62 21 is_stmt 0
 337 0188 833784FB 		ld	a5,-72(s0)
 338 018c 83B70700 		ld	a5,0(a5)
 339              		.loc 1 62 17
 340 0190 63860700 		beqz	a5,.L24
  63:src/interruptRoutine.cpp ****                     __asm__ volatile("li a0, 0");
 341              		.loc 1 63 21 is_stmt 1
 342              		.loc 1 63 49 is_stmt 0
 343              	#APP
 344              	# 63 "src/interruptRoutine.cpp" 1
  64              	                } else {
 345              		li a0, 0
 346              	# 0 "" 2
 347              	#NO_APP
 348 0198 6F008000 		j	.L25
 349              	.L24:
  65:src/interruptRoutine.cpp ****                     __asm__ volatile("li a0, -1");
 350              		.loc 1 65 21 is_stmt 1
 351              		.loc 1 65 50 is_stmt 0
 352              	#APP
 353              	# 65 "src/interruptRoutine.cpp" 1
  66              	                }
 354              		li a0, -1
 355              	# 0 "" 2
 356              	#NO_APP
 357              	.L25:
  67:src/interruptRoutine.cpp ****                 __asm__ volatile("sd a0, 80(s0)");
 358              		.loc 1 67 17 is_stmt 1
 359              		.loc 1 67 50 is_stmt 0
 360              	#APP
 361              	# 67 "src/interruptRoutine.cpp" 1
  68              	                break;
 362              		sd a0, 80(s0)
 363              	# 0 "" 2
 364              		.loc 1 68 17 is_stmt 1
GAS LISTING /tmp/ccukrdXF.s 			page 9


 365              	#NO_APP
 366 01a4 6F000022 		j	.L23
 367              	.LVL27:
 368              	.L18:
  69:src/interruptRoutine.cpp ****             case 0x12:
 369              		.loc 1 69 13
  70:src/interruptRoutine.cpp ****                 //thread_exit
  71:src/interruptRoutine.cpp ****                 TCB::running->setFinished(true);
 370              		.loc 1 71 17
 371              		.loc 1 71 42 is_stmt 0
 372 01a8 97070000 		la	a5,_ZN3TCB7runningE
 372      83B70700 
 373 01b0 83B70700 		ld	a5,0(a5)
 374 01b4 93051000 		li	a1,1
 375 01b8 13850700 		mv	a0,a5
 376 01bc 97000000 		call	_ZN3TCB11setFinishedEb
 376      E7800000 
 377              	.LVL28:
  72:src/interruptRoutine.cpp ****                 TCB::releaseJoined();
 378              		.loc 1 72 17 is_stmt 1
 379              		.loc 1 72 35 is_stmt 0
 380 01c4 97000000 		call	_ZN3TCB13releaseJoinedEv@plt
 380      E7800000 
 381              	.LVL29:
  73:src/interruptRoutine.cpp ****                 TCB::yield();
 382              		.loc 1 73 17 is_stmt 1
 383              		.loc 1 73 27 is_stmt 0
 384 01cc 97000000 		call	_ZN3TCB5yieldEv@plt
 384      E7800000 
 385              	.LVL30:
  74:src/interruptRoutine.cpp ****                 break;
 386              		.loc 1 74 17 is_stmt 1
 387 01d4 6F00001F 		j	.L23
 388              	.LVL31:
 389              	.L17:
  75:src/interruptRoutine.cpp ****             case 0x13:
 390              		.loc 1 75 13
  76:src/interruptRoutine.cpp ****                 //thread_dispatch
  77:src/interruptRoutine.cpp ****                 TCB::yield();
 391              		.loc 1 77 17
 392              		.loc 1 77 27 is_stmt 0
 393 01d8 97000000 		call	_ZN3TCB5yieldEv@plt
 393      E7800000 
 394              	.LVL32:
  78:src/interruptRoutine.cpp ****                 break;
 395              		.loc 1 78 17 is_stmt 1
 396 01e0 6F00401E 		j	.L23
 397              	.LVL33:
 398              	.L16:
  79:src/interruptRoutine.cpp ****             case 0x14:
 399              		.loc 1 79 13
  80:src/interruptRoutine.cpp ****                 //thread_join
  81:src/interruptRoutine.cpp ****                 //a1 = rucka niti na koju tekuca nit treba da ceka
  82:src/interruptRoutine.cpp ****                 TCB::threadJoin((thread_t)a1);
 400              		.loc 1 82 17
 401              		.loc 1 82 32 is_stmt 0
 402 01e4 833784FB 		ld	a5,-72(s0)
GAS LISTING /tmp/ccukrdXF.s 			page 10


 403 01e8 13850700 		mv	a0,a5
 404 01ec 97000000 		call	_ZN3TCB10threadJoinEPS_@plt
 404      E7800000 
 405              	.LVL34:
  83:src/interruptRoutine.cpp ****                 TCB::yield();
 406              		.loc 1 83 17 is_stmt 1
 407              		.loc 1 83 27 is_stmt 0
 408 01f4 97000000 		call	_ZN3TCB5yieldEv@plt
 408      E7800000 
 409              	.LVL35:
  84:src/interruptRoutine.cpp ****                 break;
 410              		.loc 1 84 17 is_stmt 1
 411 01fc 6F00801C 		j	.L23
 412              	.LVL36:
 413              	.L15:
  85:src/interruptRoutine.cpp ****             case 0x21:
 414              		.loc 1 85 13
  86:src/interruptRoutine.cpp ****                 //sem_open
  87:src/interruptRoutine.cpp ****                 //a1 = pokazivac na rucku semafora, u koju se upisuje adresa semafora u memoriji
  88:src/interruptRoutine.cpp ****                 *((sem_t*)a1) = KSem::initSem((uint)a2);
 415              		.loc 1 88 17
 416              		.loc 1 88 46 is_stmt 0
 417 0200 833704FB 		ld	a5,-80(s0)
 418 0204 9B870700 		sext.w	a5,a5
 419              		.loc 1 88 17
 420 0208 833484FB 		ld	s1,-72(s0)
 421              		.loc 1 88 46
 422 020c 13850700 		mv	a0,a5
 423 0210 97000000 		call	_ZN4KSem7initSemEj@plt
 423      E7800000 
 424              	.LVL37:
 425 0218 93070500 		mv	a5,a0
 426              		.loc 1 88 31
 427 021c 23B0F400 		sd	a5,0(s1)
  89:src/interruptRoutine.cpp ****                 if (*((sem_t*)a1) != nullptr) {
 428              		.loc 1 89 17 is_stmt 1
 429              		.loc 1 89 21 is_stmt 0
 430 0220 833784FB 		ld	a5,-72(s0)
 431 0224 83B70700 		ld	a5,0(a5)
 432              		.loc 1 89 17
 433 0228 63860700 		beqz	a5,.L26
  90:src/interruptRoutine.cpp ****                     __asm__ volatile("li a0, 0");
 434              		.loc 1 90 21 is_stmt 1
 435              		.loc 1 90 49 is_stmt 0
 436              	#APP
 437              	# 90 "src/interruptRoutine.cpp" 1
  91              	                } else {
 438              		li a0, 0
 439              	# 0 "" 2
 440              	#NO_APP
 441 0230 6F008000 		j	.L27
 442              	.L26:
  92:src/interruptRoutine.cpp ****                     __asm__ volatile("li a0, -1");
 443              		.loc 1 92 21 is_stmt 1
 444              		.loc 1 92 50 is_stmt 0
 445              	#APP
 446              	# 92 "src/interruptRoutine.cpp" 1
GAS LISTING /tmp/ccukrdXF.s 			page 11


  93              	                }
 447              		li a0, -1
 448              	# 0 "" 2
 449              	#NO_APP
 450              	.L27:
  94:src/interruptRoutine.cpp ****                 __asm__ volatile("sd a0, 80(s0)");
 451              		.loc 1 94 17 is_stmt 1
 452              		.loc 1 94 50 is_stmt 0
 453              	#APP
 454              	# 94 "src/interruptRoutine.cpp" 1
  95              	                break;
 455              		sd a0, 80(s0)
 456              	# 0 "" 2
 457              		.loc 1 95 17 is_stmt 1
 458              	#NO_APP
 459 023c 6F008018 		j	.L23
 460              	.LVL38:
 461              	.L14:
  96:src/interruptRoutine.cpp ****             case 0x22:
 462              		.loc 1 96 13
  97:src/interruptRoutine.cpp ****                 //sem_close
  98:src/interruptRoutine.cpp ****                 //a1 = rucka semafora
  99:src/interruptRoutine.cpp ****                 KSem::closeSem((sem_t)a1);
 463              		.loc 1 99 17
 464              		.loc 1 99 31 is_stmt 0
 465 0240 833784FB 		ld	a5,-72(s0)
 466 0244 13850700 		mv	a0,a5
 467 0248 97000000 		call	_ZN4KSem8closeSemEPS_@plt
 467      E7800000 
 468              	.LVL39:
 100:src/interruptRoutine.cpp ****                 __asm__ volatile("sd a0, 80(s0)");
 469              		.loc 1 100 17 is_stmt 1
 470              		.loc 1 100 50 is_stmt 0
 471              	#APP
 472              	# 100 "src/interruptRoutine.cpp" 1
 101              	                break;
 473              		sd a0, 80(s0)
 474              	# 0 "" 2
 475              		.loc 1 101 17 is_stmt 1
 476              	#NO_APP
 477 0254 6F000017 		j	.L23
 478              	.LVL40:
 479              	.L13:
 102:src/interruptRoutine.cpp ****             case 0x23:
 480              		.loc 1 102 13
 103:src/interruptRoutine.cpp ****                 //sem_wait
 104:src/interruptRoutine.cpp ****                 //a1 = rucka semafora
 105:src/interruptRoutine.cpp ****                 ((sem_t)a1)->wait();
 481              		.loc 1 105 17
 482              		.loc 1 105 34 is_stmt 0
 483 0258 833784FB 		ld	a5,-72(s0)
 484 025c 13850700 		mv	a0,a5
 485 0260 97000000 		call	_ZN4KSem4waitEv@plt
 485      E7800000 
 486              	.LVL41:
 106:src/interruptRoutine.cpp ****                 __asm__ volatile("sd a0, 80(s0)");
 487              		.loc 1 106 17 is_stmt 1
GAS LISTING /tmp/ccukrdXF.s 			page 12


 488              		.loc 1 106 50 is_stmt 0
 489              	#APP
 490              	# 106 "src/interruptRoutine.cpp" 1
 107              	                break;
 491              		sd a0, 80(s0)
 492              	# 0 "" 2
 493              		.loc 1 107 17 is_stmt 1
 494              	#NO_APP
 495 026c 6F008015 		j	.L23
 496              	.LVL42:
 497              	.L12:
 108:src/interruptRoutine.cpp ****             case 0x24:
 498              		.loc 1 108 13
 109:src/interruptRoutine.cpp ****                 //sem_signal
 110:src/interruptRoutine.cpp ****                 //a1 = rucka semafora
 111:src/interruptRoutine.cpp ****                 ((sem_t)a1)->signal();
 499              		.loc 1 111 17
 500              		.loc 1 111 36 is_stmt 0
 501 0270 833784FB 		ld	a5,-72(s0)
 502 0274 13850700 		mv	a0,a5
 503 0278 97000000 		call	_ZN4KSem6signalEv@plt
 503      E7800000 
 504              	.LVL43:
 112:src/interruptRoutine.cpp ****                 __asm__ volatile("sd a0, 80(s0)");
 505              		.loc 1 112 17 is_stmt 1
 506              		.loc 1 112 50 is_stmt 0
 507              	#APP
 508              	# 112 "src/interruptRoutine.cpp" 1
 113              	                break;
 509              		sd a0, 80(s0)
 510              	# 0 "" 2
 511              		.loc 1 113 17 is_stmt 1
 512              	#NO_APP
 513 0284 6F000014 		j	.L23
 514              	.LVL44:
 515              	.L11:
 114:src/interruptRoutine.cpp ****             case 0x31:
 516              		.loc 1 114 13
 115:src/interruptRoutine.cpp ****                 //time_sleep
 116:src/interruptRoutine.cpp ****                 //a1 = broj perioda tajmera na koji se uspavljuje tekuca nit
 117:src/interruptRoutine.cpp ****                 if ((time_t)a1 > 0) {
 517              		.loc 1 117 17
 518 0288 833784FB 		ld	a5,-72(s0)
 519 028c 63860700 		beqz	a5,.L28
 118:src/interruptRoutine.cpp ****                     __asm__ volatile("li a0, 0");
 520              		.loc 1 118 21
 521              		.loc 1 118 49 is_stmt 0
 522              	#APP
 523              	# 118 "src/interruptRoutine.cpp" 1
 119              	                } else {
 524              		li a0, 0
 525              	# 0 "" 2
 526              	#NO_APP
 527 0294 6F008000 		j	.L29
 528              	.L28:
 120:src/interruptRoutine.cpp ****                     __asm__ volatile("li a0, -1");
 529              		.loc 1 120 21 is_stmt 1
GAS LISTING /tmp/ccukrdXF.s 			page 13


 530              		.loc 1 120 50 is_stmt 0
 531              	#APP
 532              	# 120 "src/interruptRoutine.cpp" 1
 121              	                }
 533              		li a0, -1
 534              	# 0 "" 2
 535              	#NO_APP
 536              	.L29:
 122:src/interruptRoutine.cpp ****                 __asm__ volatile("sd a0, 80(s0)");
 537              		.loc 1 122 17 is_stmt 1
 538              		.loc 1 122 50 is_stmt 0
 539              	#APP
 540              	# 122 "src/interruptRoutine.cpp" 1
 123              	                if ((time_t)a1 > 0) {
 541              		sd a0, 80(s0)
 542              	# 0 "" 2
 543              		.loc 1 123 17 is_stmt 1
 544              	#NO_APP
 545 02a0 833784FB 		ld	a5,-72(s0)
 546 02a4 638E0710 		beqz	a5,.L40
 124:src/interruptRoutine.cpp ****                     Scheduler::putToSleep(TCB::running, (time_t)a1);
 547              		.loc 1 124 21
 548              		.loc 1 124 42 is_stmt 0
 549 02a8 97070000 		la	a5,_ZN3TCB7runningE
 549      83B70700 
 550 02b0 83B70700 		ld	a5,0(a5)
 551 02b4 833584FB 		ld	a1,-72(s0)
 552 02b8 13850700 		mv	a0,a5
 553 02bc 97000000 		call	_ZN9Scheduler10putToSleepEP3TCBm@plt
 553      E7800000 
 554              	.LVL45:
 125:src/interruptRoutine.cpp ****                     TCB::yield();
 555              		.loc 1 125 21 is_stmt 1
 556              		.loc 1 125 31 is_stmt 0
 557 02c4 97000000 		call	_ZN3TCB5yieldEv@plt
 557      E7800000 
 558              	.LVL46:
 126:src/interruptRoutine.cpp ****                 }
 127:src/interruptRoutine.cpp ****                 break;
 559              		.loc 1 127 17 is_stmt 1
 560 02cc 6F00400F 		j	.L40
 561              	.LVL47:
 562              	.L10:
 128:src/interruptRoutine.cpp ****             case 0x41:
 563              		.loc 1 128 13
 129:src/interruptRoutine.cpp ****                 //getc
 130:src/interruptRoutine.cpp ****                 KConsole::kgetc();
 564              		.loc 1 130 17
 565              		.loc 1 130 32 is_stmt 0
 566 02d0 97000000 		call	_ZN8KConsole5kgetcEv@plt
 566      E7800000 
 567              	.LVL48:
 131:src/interruptRoutine.cpp ****                 __asm__ volatile("sd a0, 80(s0)");
 568              		.loc 1 131 17 is_stmt 1
 569              		.loc 1 131 50 is_stmt 0
 570              	#APP
 571              	# 131 "src/interruptRoutine.cpp" 1
GAS LISTING /tmp/ccukrdXF.s 			page 14


 132              	                break;
 572              		sd a0, 80(s0)
 573              	# 0 "" 2
 574              		.loc 1 132 17 is_stmt 1
 575              	#NO_APP
 576 02dc 6F00800E 		j	.L23
 577              	.LVL49:
 578              	.L8:
 133:src/interruptRoutine.cpp ****             case 0x42:
 579              		.loc 1 133 13
 134:src/interruptRoutine.cpp ****                 //putc
 135:src/interruptRoutine.cpp ****                 //a1 = karakter koji se upisuje u bafer za ispis na konzolu
 136:src/interruptRoutine.cpp ****                 KConsole::kputc((char)a1);
 580              		.loc 1 136 17
 581              		.loc 1 136 32 is_stmt 0
 582 02e0 833784FB 		ld	a5,-72(s0)
 583 02e4 93F7F70F 		andi	a5,a5,0xff
 584 02e8 13850700 		mv	a0,a5
 585 02ec 97000000 		call	_ZN8KConsole5kputcEc@plt
 585      E7800000 
 586              	.LVL50:
 137:src/interruptRoutine.cpp ****                 break;
 587              		.loc 1 137 17 is_stmt 1
 588 02f4 6F00000D 		j	.L23
 589              	.LVL51:
 590              	.L22:
 138:src/interruptRoutine.cpp ****             case 0x80:
 591              		.loc 1 138 13
 139:src/interruptRoutine.cpp ****                 //alloc thread
 140:src/interruptRoutine.cpp ****                 //a1 = pokazivac na rucku u koju upisujemo identifikator niti(adresa u memoriji)
 141:src/interruptRoutine.cpp ****                 //a2 = pokazivac na funkciju koju nit treba da izvrsava
 142:src/interruptRoutine.cpp ****                 //a3 = argumenti funkcije koju nit treba da izvrsava
 143:src/interruptRoutine.cpp ****                 //a4 = poslednja lokacija alociranog steka(najniza adresa)
 144:src/interruptRoutine.cpp ****                 *((thread_t*)a1) = TCB::createThread((TCB::Body)a2, (void*)a3, (uint64*)a4);
 592              		.loc 1 144 17
 593              		.loc 1 144 53 is_stmt 0
 594 02f8 833704FB 		ld	a5,-80(s0)
 595 02fc 033784FA 		ld	a4,-88(s0)
 596 0300 833604FA 		ld	a3,-96(s0)
 597              		.loc 1 144 17
 598 0304 833484FB 		ld	s1,-72(s0)
 599              		.loc 1 144 53
 600 0308 13860600 		mv	a2,a3
 601 030c 93050700 		mv	a1,a4
 602 0310 13850700 		mv	a0,a5
 603 0314 97000000 		call	_ZN3TCB12createThreadEPFvPvES0_Pm@plt
 603      E7800000 
 604              	.LVL52:
 605 031c 93070500 		mv	a5,a0
 606              		.loc 1 144 34
 607 0320 23B0F400 		sd	a5,0(s1)
 145:src/interruptRoutine.cpp ****                 if (*((thread_t*)a1) != nullptr) {
 608              		.loc 1 145 17 is_stmt 1
 609              		.loc 1 145 21 is_stmt 0
 610 0324 833784FB 		ld	a5,-72(s0)
 611 0328 83B70700 		ld	a5,0(a5)
 612              		.loc 1 145 17
GAS LISTING /tmp/ccukrdXF.s 			page 15


 613 032c 63860700 		beqz	a5,.L31
 146:src/interruptRoutine.cpp ****                     __asm__ volatile("li a0, 0");
 614              		.loc 1 146 21 is_stmt 1
 615              		.loc 1 146 49 is_stmt 0
 616              	#APP
 617              	# 146 "src/interruptRoutine.cpp" 1
 147              	                } else {
 618              		li a0, 0
 619              	# 0 "" 2
 620              	#NO_APP
 621 0334 6F008000 		j	.L32
 622              	.L31:
 148:src/interruptRoutine.cpp ****                     __asm__ volatile("li a0, -1");
 623              		.loc 1 148 21 is_stmt 1
 624              		.loc 1 148 50 is_stmt 0
 625              	#APP
 626              	# 148 "src/interruptRoutine.cpp" 1
 149              	                }
 627              		li a0, -1
 628              	# 0 "" 2
 629              	#NO_APP
 630              	.L32:
 150:src/interruptRoutine.cpp ****                 __asm__ volatile("sd a0, 80(s0)");
 631              		.loc 1 150 17 is_stmt 1
 632              		.loc 1 150 50 is_stmt 0
 633              	#APP
 634              	# 150 "src/interruptRoutine.cpp" 1
 151              	                break;
 635              		sd a0, 80(s0)
 636              	# 0 "" 2
 637              		.loc 1 151 17 is_stmt 1
 638              	#NO_APP
 639 0340 6F004008 		j	.L23
 640              	.LVL53:
 641              	.L6:
 152:src/interruptRoutine.cpp ****             case 0x81:
 642              		.loc 1 152 13
 153:src/interruptRoutine.cpp ****                 //start thread
 154:src/interruptRoutine.cpp ****                 //a1 = rucka niti koja se stavlja u scheduler
 155:src/interruptRoutine.cpp ****                 Scheduler::put((thread_t)a1);
 643              		.loc 1 155 17
 644              		.loc 1 155 31 is_stmt 0
 645 0344 833784FB 		ld	a5,-72(s0)
 646 0348 13850700 		mv	a0,a5
 647 034c 97000000 		call	_ZN9Scheduler3putEP3TCB@plt
 647      E7800000 
 648              	.LVL54:
 156:src/interruptRoutine.cpp ****                 break;
 649              		.loc 1 156 17 is_stmt 1
 650 0354 6F000007 		j	.L23
 651              	.LVL55:
 652              	.L4:
 157:src/interruptRoutine.cpp ****             case 0x91:
 653              		.loc 1 157 13
 158:src/interruptRoutine.cpp ****                 //printInteger
 159:src/interruptRoutine.cpp ****                 //a1 = integer za ispis
 160:src/interruptRoutine.cpp ****                 kPrintInt(a1);
GAS LISTING /tmp/ccukrdXF.s 			page 16


 654              		.loc 1 160 17
 655              		.loc 1 160 26 is_stmt 0
 656 0358 033584FB 		ld	a0,-72(s0)
 657 035c 97000000 		call	_Z9kPrintIntm@plt
 657      E7800000 
 658              	.LVL56:
 161:src/interruptRoutine.cpp ****                 break;
 659              		.loc 1 161 17 is_stmt 1
 660 0364 6F000006 		j	.L23
 661              	.LVL57:
 662              	.L5:
 162:src/interruptRoutine.cpp ****             default:
 663              		.loc 1 162 13
 163:src/interruptRoutine.cpp ****                 printString("\nNepostojeci op code: ");
 664              		.loc 1 163 17
 665              		.loc 1 163 28 is_stmt 0
 666 0368 17050000 		lla	a0,.LC0
 666      13050500 
 667 0370 97000000 		call	_Z11printStringPKc@plt
 667      E7800000 
 668              	.LVL58:
 164:src/interruptRoutine.cpp ****                 kPrintInt(a0);
 669              		.loc 1 164 17 is_stmt 1
 670              		.loc 1 164 26 is_stmt 0
 671 0378 033504FC 		ld	a0,-64(s0)
 672 037c 97000000 		call	_Z9kPrintIntm@plt
 672      E7800000 
 673              	.LVL59:
 165:src/interruptRoutine.cpp ****                 printString("\nscause: ");
 674              		.loc 1 165 17 is_stmt 1
 675              		.loc 1 165 28 is_stmt 0
 676 0384 17050000 		lla	a0,.LC1
 676      13050500 
 677 038c 97000000 		call	_Z11printStringPKc@plt
 677      E7800000 
 678              	.LVL60:
 166:src/interruptRoutine.cpp ****                 kPrintInt(scause);
 679              		.loc 1 166 17 is_stmt 1
 680              		.loc 1 166 26 is_stmt 0
 681 0394 033584FD 		ld	a0,-40(s0)
 682 0398 97000000 		call	_Z9kPrintIntm@plt
 682      E7800000 
 683              	.LVL61:
 167:src/interruptRoutine.cpp ****                 printString("\nsepc: ");
 684              		.loc 1 167 17 is_stmt 1
 685              		.loc 1 167 28 is_stmt 0
 686 03a0 17050000 		lla	a0,.LC2
 686      13050500 
 687 03a8 97000000 		call	_Z11printStringPKc@plt
 687      E7800000 
 688              	.LVL62:
 168:src/interruptRoutine.cpp ****                 kPrintInt(sepc);
 689              		.loc 1 168 17 is_stmt 1
 690              		.loc 1 168 26 is_stmt 0
 691 03b0 033504FD 		ld	a0,-48(s0)
 692 03b4 97000000 		call	_Z9kPrintIntm@plt
 692      E7800000 
GAS LISTING /tmp/ccukrdXF.s 			page 17


 693              	.LVL63:
 169:src/interruptRoutine.cpp ****                 break;
 694              		.loc 1 169 17 is_stmt 1
 695 03bc 6F008000 		j	.L23
 696              	.L40:
 127:src/interruptRoutine.cpp ****             case 0x41:
 697              		.loc 1 127 17 is_stmt 0
 698 03c0 13000000 		nop
 699              	.L23:
 170:src/interruptRoutine.cpp ****         }
 171:src/interruptRoutine.cpp ****         //sepc pokazuje na ecall instrukciju, treba preci na sledecu instrukciju
 172:src/interruptRoutine.cpp ****         sepc += 4;
 700              		.loc 1 172 9 is_stmt 1
 701              		.loc 1 172 14 is_stmt 0
 702 03c4 833704FD 		ld	a5,-48(s0)
 703 03c8 93874700 		addi	a5,a5,4
 704 03cc 2338F4FC 		sd	a5,-48(s0)
 705              	.LVL64:
 173:src/interruptRoutine.cpp ****         __asm__ volatile("csrw sepc, %[sepc]": :[sepc] "r"(sepc));
 706              		.loc 1 173 9 is_stmt 1
 707              		.loc 1 173 66 is_stmt 0
 708 03d0 833704FD 		ld	a5,-48(s0)
 709              	#APP
 710              	# 173 "src/interruptRoutine.cpp" 1
 174              	        __asm__ volatile("csrw sstatus, %[stat]": :[stat]"r"(sstatus));
 711              		csrw sepc, a5
 712              	# 0 "" 2
 713              		.loc 1 174 9 is_stmt 1
 714              		.loc 1 174 71 is_stmt 0
 715              	#NO_APP
 716 03d8 833784FC 		ld	a5,-56(s0)
 717              	.LVL65:
 718              	#APP
 719              	# 174 "src/interruptRoutine.cpp" 1
 175              	    } else if (scause == 0x8000000000000009) {
 720              		csrw sstatus, a5
 721              	# 0 "" 2
 722              	#NO_APP
 723              	.LBE2:
 176:src/interruptRoutine.cpp ****         //spoljasnji hardverski prekid (od konzole)
 177:src/interruptRoutine.cpp ****         uint64 irq = plic_claim();
 178:src/interruptRoutine.cpp ****         if (irq == CONSOLE_IRQ) {
 179:src/interruptRoutine.cpp ****             if (*KConsole::sr & CONSOLE_RX_STATUS_BIT) {
 180:src/interruptRoutine.cpp ****                 KConsole::placeInInput(*KConsole::dr);
 181:src/interruptRoutine.cpp ****             }
 182:src/interruptRoutine.cpp ****             //printString("\nobradjen prekid konzole\n");
 183:src/interruptRoutine.cpp ****             plic_complete(irq);
 184:src/interruptRoutine.cpp ****         } else {
 185:src/interruptRoutine.cpp ****             printString("Neki drugi prekid\n");
 186:src/interruptRoutine.cpp ****         }
 187:src/interruptRoutine.cpp ****         //console_handler();
 188:src/interruptRoutine.cpp ****         __asm__ volatile("csrw sepc, %[sepc]": :[sepc] "r"(sepc));
 189:src/interruptRoutine.cpp ****         __asm__ volatile("csrw sstatus, %[stat]": :[stat]"r"(sstatus));
 190:src/interruptRoutine.cpp ****         Riscv::mc_sip(Riscv::SIP_SEIP);
 191:src/interruptRoutine.cpp ****     } else if (scause == 0x8000000000000001) {
 192:src/interruptRoutine.cpp ****         //prekid od tajmera
 193:src/interruptRoutine.cpp ****         //printString("\nPrekid od tajmera\n");
GAS LISTING /tmp/ccukrdXF.s 			page 18


 194:src/interruptRoutine.cpp ****         Scheduler::wake();
 195:src/interruptRoutine.cpp ****         TCB::runningTimeSlice++;
 196:src/interruptRoutine.cpp ****         if (TCB::runningTimeSlice >= TCB::running->getTimeSlice()) {
 197:src/interruptRoutine.cpp ****             //printString("\nMenjam kontekst\n");
 198:src/interruptRoutine.cpp ****             TCB::yield();
 199:src/interruptRoutine.cpp ****             //TCB::runningTimeSlice = 0;
 200:src/interruptRoutine.cpp ****         }
 201:src/interruptRoutine.cpp **** 
 202:src/interruptRoutine.cpp ****         __asm__ volatile("csrw sepc, %[sepc]": :[sepc] "r"(sepc));
 203:src/interruptRoutine.cpp ****         __asm__ volatile("csrw sstatus, %[stat]": :[stat]"r"(sstatus));
 204:src/interruptRoutine.cpp ****         Riscv::mc_sip(Riscv::SIP_SSIP);
 205:src/interruptRoutine.cpp ****     } else {
 206:src/interruptRoutine.cpp ****         printString("\nGreska u prekidnoj rutini\n");
 207:src/interruptRoutine.cpp ****         printString("scause: ");
 208:src/interruptRoutine.cpp ****         kPrintInt(scause);
 209:src/interruptRoutine.cpp ****         printString("\nsepc: ");
 210:src/interruptRoutine.cpp ****         kPrintInt(sepc);
 211:src/interruptRoutine.cpp ****     }
 212:src/interruptRoutine.cpp **** }
 724              		.loc 1 212 1
 725 03e0 6F000019 		j	.L41
 726              	.LVL66:
 727              	.L3:
 728              	.LBB10:
 729              	.LBB3:
 175:src/interruptRoutine.cpp ****         //spoljasnji hardverski prekid (od konzole)
 730              		.loc 1 175 12 is_stmt 1
 731              	.LBB4:
 732 03e4 033784FD 		ld	a4,-40(s0)
 733              	.LVL67:
 734 03e8 9307F0FF 		li	a5,-1
 735 03ec 9397F703 		slli	a5,a5,63
 736 03f0 93879700 		addi	a5,a5,9
 737 03f4 631EF708 		bne	a4,a5,.L34
 738              	.LBB5:
 177:src/interruptRoutine.cpp ****         if (irq == CONSOLE_IRQ) {
 739              		.loc 1 177 9
 177:src/interruptRoutine.cpp ****         if (irq == CONSOLE_IRQ) {
 740              		.loc 1 177 32 is_stmt 0
 741 03f8 97000000 		call	plic_claim@plt
 741      E7800000 
 742              	.LVL68:
 743 0400 93070500 		mv	a5,a0
 177:src/interruptRoutine.cpp ****         if (irq == CONSOLE_IRQ) {
 744              		.loc 1 177 33
 745 0404 2330F4F8 		sd	a5,-128(s0)
 746              	.LVL69:
 178:src/interruptRoutine.cpp ****             if (*KConsole::sr & CONSOLE_RX_STATUS_BIT) {
 747              		.loc 1 178 9 is_stmt 1
 748 0408 033704F8 		ld	a4,-128(s0)
 749 040c 9307A000 		li	a5,10
 750 0410 6318F704 		bne	a4,a5,.L35
 179:src/interruptRoutine.cpp ****                 KConsole::placeInInput(*KConsole::dr);
 751              		.loc 1 179 13
 179:src/interruptRoutine.cpp ****                 KConsole::placeInInput(*KConsole::dr);
 752              		.loc 1 179 17 is_stmt 0
 753 0414 97070000 		la	a5,_ZN8KConsole2srE
GAS LISTING /tmp/ccukrdXF.s 			page 19


 753      83B70700 
 754 041c 83B70700 		ld	a5,0(a5)
 755 0420 83C70700 		lbu	a5,0(a5)
 179:src/interruptRoutine.cpp ****                 KConsole::placeInInput(*KConsole::dr);
 756              		.loc 1 179 31
 757 0424 93F71700 		andi	a5,a5,1
 179:src/interruptRoutine.cpp ****                 KConsole::placeInInput(*KConsole::dr);
 758              		.loc 1 179 13
 759 0428 63800702 		beqz	a5,.L36
 180:src/interruptRoutine.cpp ****             }
 760              		.loc 1 180 17 is_stmt 1
 180:src/interruptRoutine.cpp ****             }
 761              		.loc 1 180 39 is_stmt 0
 762 042c 97070000 		la	a5,_ZN8KConsole2drE
 762      83B70700 
 763 0434 83B70700 		ld	a5,0(a5)
 764 0438 83C70700 		lbu	a5,0(a5)
 765 043c 13850700 		mv	a0,a5
 766              	.LVL70:
 767 0440 97000000 		call	_ZN8KConsole12placeInInputEc@plt
 767      E7800000 
 768              	.LVL71:
 769              	.L36:
 183:src/interruptRoutine.cpp ****         } else {
 770              		.loc 1 183 13 is_stmt 1
 183:src/interruptRoutine.cpp ****         } else {
 771              		.loc 1 183 26 is_stmt 0
 772 0448 833704F8 		ld	a5,-128(s0)
 773 044c 9B870700 		sext.w	a5,a5
 774 0450 13850700 		mv	a0,a5
 775 0454 97000000 		call	plic_complete@plt
 775      E7800000 
 776              	.LVL72:
 777 045c 6F004001 		j	.L37
 778              	.LVL73:
 779              	.L35:
 185:src/interruptRoutine.cpp ****         }
 780              		.loc 1 185 13 is_stmt 1
 185:src/interruptRoutine.cpp ****         }
 781              		.loc 1 185 24 is_stmt 0
 782 0460 17050000 		lla	a0,.LC3
 782      13050500 
 783              	.LVL74:
 784 0468 97000000 		call	_Z11printStringPKc@plt
 784      E7800000 
 785              	.LVL75:
 786              	.L37:
 188:src/interruptRoutine.cpp ****         __asm__ volatile("csrw sstatus, %[stat]": :[stat]"r"(sstatus));
 787              		.loc 1 188 9 is_stmt 1
 188:src/interruptRoutine.cpp ****         __asm__ volatile("csrw sstatus, %[stat]": :[stat]"r"(sstatus));
 788              		.loc 1 188 66 is_stmt 0
 789 0470 833704FD 		ld	a5,-48(s0)
 790              	#APP
 791              	# 188 "src/interruptRoutine.cpp" 1
 189:src/interruptRoutine.cpp ****         Riscv::mc_sip(Riscv::SIP_SEIP);
 792              		csrw sepc, a5
 793              	# 0 "" 2
GAS LISTING /tmp/ccukrdXF.s 			page 20


 794              		.loc 1 189 9 is_stmt 1
 189:src/interruptRoutine.cpp ****         Riscv::mc_sip(Riscv::SIP_SEIP);
 795              		.loc 1 189 71 is_stmt 0
 796              	#NO_APP
 797 0478 833784FC 		ld	a5,-56(s0)
 798              	#APP
 799              	# 189 "src/interruptRoutine.cpp" 1
 190:src/interruptRoutine.cpp ****     } else if (scause == 0x8000000000000001) {
 800              		csrw sstatus, a5
 801              	# 0 "" 2
 802              		.loc 1 190 9 is_stmt 1
 190:src/interruptRoutine.cpp ****     } else if (scause == 0x8000000000000001) {
 803              		.loc 1 190 22 is_stmt 0
 804              	#NO_APP
 805 0480 13050020 		li	a0,512
 806 0484 97000000 		call	_ZN5Riscv6mc_sipEm
 806      E7800000 
 807              	.LVL76:
 808              	.LBE5:
 809              	.LBE4:
 810              	.LBE3:
 811              	.LBE10:
 812              		.loc 1 212 1
 813 048c 6F00400E 		j	.L41
 814              	.LVL77:
 815              	.L34:
 816              	.LBB11:
 817              	.LBB8:
 818              	.LBB6:
 191:src/interruptRoutine.cpp ****         //prekid od tajmera
 819              		.loc 1 191 12 is_stmt 1
 820 0490 033784FD 		ld	a4,-40(s0)
 821 0494 9307F0FF 		li	a5,-1
 822 0498 9397F703 		slli	a5,a5,63
 823 049c 93871700 		addi	a5,a5,1
 824 04a0 6314F708 		bne	a4,a5,.L38
 194:src/interruptRoutine.cpp ****         TCB::runningTimeSlice++;
 825              		.loc 1 194 9
 194:src/interruptRoutine.cpp ****         TCB::runningTimeSlice++;
 826              		.loc 1 194 24 is_stmt 0
 827 04a4 97000000 		call	_ZN9Scheduler4wakeEv@plt
 827      E7800000 
 828              	.LVL78:
 195:src/interruptRoutine.cpp ****         if (TCB::runningTimeSlice >= TCB::running->getTimeSlice()) {
 829              		.loc 1 195 9 is_stmt 1
 195:src/interruptRoutine.cpp ****         if (TCB::runningTimeSlice >= TCB::running->getTimeSlice()) {
 830              		.loc 1 195 30 is_stmt 0
 831 04ac 97070000 		la	a5,_ZN3TCB16runningTimeSliceE
 831      83B70700 
 832 04b4 83B70700 		ld	a5,0(a5)
 833 04b8 13871700 		addi	a4,a5,1
 834 04bc 97070000 		la	a5,_ZN3TCB16runningTimeSliceE
 834      83B70700 
 835 04c4 23B0E700 		sd	a4,0(a5)
 196:src/interruptRoutine.cpp ****             //printString("\nMenjam kontekst\n");
 836              		.loc 1 196 9 is_stmt 1
 196:src/interruptRoutine.cpp ****             //printString("\nMenjam kontekst\n");
GAS LISTING /tmp/ccukrdXF.s 			page 21


 837              		.loc 1 196 64 is_stmt 0
 838 04c8 97070000 		la	a5,_ZN3TCB7runningE
 838      83B70700 
 839 04d0 83B70700 		ld	a5,0(a5)
 840 04d4 13850700 		mv	a0,a5
 841 04d8 97000000 		call	_ZN3TCB12getTimeSliceEv
 841      E7800000 
 842              	.LVL79:
 843 04e0 13070500 		mv	a4,a0
 196:src/interruptRoutine.cpp ****             //printString("\nMenjam kontekst\n");
 844              		.loc 1 196 35
 845 04e4 97070000 		la	a5,_ZN3TCB16runningTimeSliceE
 845      83B70700 
 846 04ec 83B70700 		ld	a5,0(a5)
 847 04f0 B3B7E700 		sgtu	a5,a4,a5
 848 04f4 93C71700 		xori	a5,a5,1
 849 04f8 93F7F70F 		andi	a5,a5,0xff
 196:src/interruptRoutine.cpp ****             //printString("\nMenjam kontekst\n");
 850              		.loc 1 196 9
 851 04fc 63860700 		beqz	a5,.L39
 198:src/interruptRoutine.cpp ****             //TCB::runningTimeSlice = 0;
 852              		.loc 1 198 13 is_stmt 1
 198:src/interruptRoutine.cpp ****             //TCB::runningTimeSlice = 0;
 853              		.loc 1 198 23 is_stmt 0
 854 0500 97000000 		call	_ZN3TCB5yieldEv@plt
 854      E7800000 
 855              	.LVL80:
 856              	.L39:
 202:src/interruptRoutine.cpp ****         __asm__ volatile("csrw sstatus, %[stat]": :[stat]"r"(sstatus));
 857              		.loc 1 202 9 is_stmt 1
 202:src/interruptRoutine.cpp ****         __asm__ volatile("csrw sstatus, %[stat]": :[stat]"r"(sstatus));
 858              		.loc 1 202 66 is_stmt 0
 859 0508 833704FD 		ld	a5,-48(s0)
 860              	#APP
 861              	# 202 "src/interruptRoutine.cpp" 1
 203:src/interruptRoutine.cpp ****         Riscv::mc_sip(Riscv::SIP_SSIP);
 862              		csrw sepc, a5
 863              	# 0 "" 2
 864              		.loc 1 203 9 is_stmt 1
 203:src/interruptRoutine.cpp ****         Riscv::mc_sip(Riscv::SIP_SSIP);
 865              		.loc 1 203 71 is_stmt 0
 866              	#NO_APP
 867 0510 833784FC 		ld	a5,-56(s0)
 868              	#APP
 869              	# 203 "src/interruptRoutine.cpp" 1
 204:src/interruptRoutine.cpp ****     } else {
 870              		csrw sstatus, a5
 871              	# 0 "" 2
 872              		.loc 1 204 9 is_stmt 1
 204:src/interruptRoutine.cpp ****     } else {
 873              		.loc 1 204 22 is_stmt 0
 874              	#NO_APP
 875 0518 13052000 		li	a0,2
 876 051c 97000000 		call	_ZN5Riscv6mc_sipEm
 876      E7800000 
 877              	.LVL81:
 878              	.LBE6:
GAS LISTING /tmp/ccukrdXF.s 			page 22


 879              	.LBE8:
 880              	.LBE11:
 881              		.loc 1 212 1
 882 0524 6F00C004 		j	.L41
 883              	.LVL82:
 884              	.L38:
 885              	.LBB12:
 886              	.LBB9:
 887              	.LBB7:
 206:src/interruptRoutine.cpp ****         printString("scause: ");
 888              		.loc 1 206 9 is_stmt 1
 206:src/interruptRoutine.cpp ****         printString("scause: ");
 889              		.loc 1 206 20 is_stmt 0
 890 0528 17050000 		lla	a0,.LC4
 890      13050500 
 891 0530 97000000 		call	_Z11printStringPKc@plt
 891      E7800000 
 892              	.LVL83:
 207:src/interruptRoutine.cpp ****         kPrintInt(scause);
 893              		.loc 1 207 9 is_stmt 1
 207:src/interruptRoutine.cpp ****         kPrintInt(scause);
 894              		.loc 1 207 20 is_stmt 0
 895 0538 17050000 		lla	a0,.LC5
 895      13050500 
 896 0540 97000000 		call	_Z11printStringPKc@plt
 896      E7800000 
 897              	.LVL84:
 208:src/interruptRoutine.cpp ****         printString("\nsepc: ");
 898              		.loc 1 208 9 is_stmt 1
 208:src/interruptRoutine.cpp ****         printString("\nsepc: ");
 899              		.loc 1 208 18 is_stmt 0
 900 0548 033584FD 		ld	a0,-40(s0)
 901 054c 97000000 		call	_Z9kPrintIntm@plt
 901      E7800000 
 902              	.LVL85:
 209:src/interruptRoutine.cpp ****         kPrintInt(sepc);
 903              		.loc 1 209 9 is_stmt 1
 209:src/interruptRoutine.cpp ****         kPrintInt(sepc);
 904              		.loc 1 209 20 is_stmt 0
 905 0554 17050000 		lla	a0,.LC2
 905      13050500 
 906 055c 97000000 		call	_Z11printStringPKc@plt
 906      E7800000 
 907              	.LVL86:
 210:src/interruptRoutine.cpp ****     }
 908              		.loc 1 210 9 is_stmt 1
 210:src/interruptRoutine.cpp ****     }
 909              		.loc 1 210 18 is_stmt 0
 910 0564 033504FD 		ld	a0,-48(s0)
 911 0568 97000000 		call	_Z9kPrintIntm@plt
 911      E7800000 
 912              	.LVL87:
 913              	.L41:
 914              	.LBE7:
 915              	.LBE9:
 916              	.LBE12:
 917              		.loc 1 212 1
GAS LISTING /tmp/ccukrdXF.s 			page 23


 918 0570 13000000 		nop
 919 0574 83308107 		ld	ra,120(sp)
 920              		.cfi_restore 1
 921 0578 03340107 		ld	s0,112(sp)
 922              		.cfi_restore 8
 923              		.cfi_def_cfa 2, 128
 924              	.LVL88:
 925 057c 83348106 		ld	s1,104(sp)
 926              		.cfi_restore 9
 927 0580 13010108 		addi	sp,sp,128
 928              		.cfi_def_cfa_offset 0
 929              	.LVL89:
 930 0584 67800000 		jr	ra
 931              		.cfi_endproc
 932              	.LFE51:
 934              		.section	.text._ZN5Riscv6mc_sipEm,"axG",@progbits,_ZN5Riscv6mc_sipEm,comdat
 935              		.align	2
 936              		.weak	_ZN5Riscv6mc_sipEm
 938              	_ZN5Riscv6mc_sipEm:
 939              	.LFB10:
 940              		.file 2 "src/../h/Riscv.hpp"
   1:src/../h/Riscv.hpp **** //
   2:src/../h/Riscv.hpp **** // Created by os on 5/17/23.
   3:src/../h/Riscv.hpp **** //
   4:src/../h/Riscv.hpp **** 
   5:src/../h/Riscv.hpp **** #ifndef PROJEKAT2023_RISCV_HPP
   6:src/../h/Riscv.hpp **** #define PROJEKAT2023_RISCV_HPP
   7:src/../h/Riscv.hpp **** 
   8:src/../h/Riscv.hpp **** #include "../lib/hw.h"
   9:src/../h/Riscv.hpp **** 
  10:src/../h/Riscv.hpp **** class Riscv {
  11:src/../h/Riscv.hpp **** public:
  12:src/../h/Riscv.hpp **** 
  13:src/../h/Riscv.hpp **** 	static void popSppSpie();
  14:src/../h/Riscv.hpp **** 
  15:src/../h/Riscv.hpp **** 	//stavljanje registara x3-x31 na stek
  16:src/../h/Riscv.hpp **** 	static void pushRegisters();    //implementacija u asm
  17:src/../h/Riscv.hpp **** 
  18:src/../h/Riscv.hpp **** 	//skidanje registara x3-x31 sa steka
  19:src/../h/Riscv.hpp **** 	static void popRegisters();     //implementacija u asm
  20:src/../h/Riscv.hpp **** 
  21:src/../h/Riscv.hpp **** 	//read scause
  22:src/../h/Riscv.hpp **** 	static uint64 r_scause();
  23:src/../h/Riscv.hpp **** 
  24:src/../h/Riscv.hpp **** 	//write scause
  25:src/../h/Riscv.hpp **** 	static void w_scause(uint64 scause);
  26:src/../h/Riscv.hpp **** 
  27:src/../h/Riscv.hpp **** 	//read sepc
  28:src/../h/Riscv.hpp **** 	static uint64 r_sepc();
  29:src/../h/Riscv.hpp **** 
  30:src/../h/Riscv.hpp **** 	//write sepc
  31:src/../h/Riscv.hpp **** 	static void w_sepc(uint64 sepc);
  32:src/../h/Riscv.hpp **** 
  33:src/../h/Riscv.hpp **** 	//read stvec
  34:src/../h/Riscv.hpp **** 	static uint64 r_stvec();
  35:src/../h/Riscv.hpp **** 
  36:src/../h/Riscv.hpp **** 	//write stvec
GAS LISTING /tmp/ccukrdXF.s 			page 24


  37:src/../h/Riscv.hpp **** 	static void w_stvec(uint64 stvec);
  38:src/../h/Riscv.hpp **** 
  39:src/../h/Riscv.hpp **** 	enum BitMaskSip {
  40:src/../h/Riscv.hpp **** 		//postoji zahtev za softverski prekid
  41:src/../h/Riscv.hpp **** 		SIP_SSIP = (1 << 1),
  42:src/../h/Riscv.hpp **** 		//postoji prekid od tajmera
  43:src/../h/Riscv.hpp **** 		SIP_STIP = (1 << 5),
  44:src/../h/Riscv.hpp **** 		//postoji zahtev za spoljasnji hardverski prekid
  45:src/../h/Riscv.hpp **** 		SIP_SEIP = (1 << 9)
  46:src/../h/Riscv.hpp **** 	};
  47:src/../h/Riscv.hpp **** 
  48:src/../h/Riscv.hpp **** 	//mask set sip
  49:src/../h/Riscv.hpp **** 	static void ms_sip(uint64 mask);
  50:src/../h/Riscv.hpp **** 
  51:src/../h/Riscv.hpp **** 	//mask clear sip
  52:src/../h/Riscv.hpp **** 	static void mc_sip(uint64 mask);
  53:src/../h/Riscv.hpp **** 
  54:src/../h/Riscv.hpp **** 	//read sip
  55:src/../h/Riscv.hpp **** 	static uint64 r_sip();
  56:src/../h/Riscv.hpp **** 
  57:src/../h/Riscv.hpp **** 	//write sip
  58:src/../h/Riscv.hpp **** 	static void w_sip(uint64 sip);
  59:src/../h/Riscv.hpp **** 
  60:src/../h/Riscv.hpp **** 	//kada se pozove sret, SIE dobija vrednost SPIE, SPIE se postavlja na 1,
  61:src/../h/Riscv.hpp **** 	//rezim se postavlja na osnovu SPP bita, SPP se postavlja na 0
  62:src/../h/Riscv.hpp **** 	enum BitMaskSstatus {
  63:src/../h/Riscv.hpp **** 		//1 - dozvoljeni prekidi; 0- nedozvoljeni prekidi; igonrise se u korisnickom rezimu
  64:src/../h/Riscv.hpp **** 		SSTATUS_SIE = (1 << 1),
  65:src/../h/Riscv.hpp **** 		//prethodna vrednost bita SIE
  66:src/../h/Riscv.hpp **** 		SSTATUS_SPIE = (1 << 5),
  67:src/../h/Riscv.hpp **** 		//iz kog rezima se desio skok; 0 - iz korisnickog; 1 - iz sistemskog
  68:src/../h/Riscv.hpp **** 		SSTATUS_SPP = (1 << 8)
  69:src/../h/Riscv.hpp **** 	};
  70:src/../h/Riscv.hpp **** 
  71:src/../h/Riscv.hpp **** 	//mask set sstatus
  72:src/../h/Riscv.hpp **** 	static void ms_sstatus(uint64 mask);
  73:src/../h/Riscv.hpp **** 
  74:src/../h/Riscv.hpp **** 	//mask clear sstatus
  75:src/../h/Riscv.hpp **** 	static void mc_sstatus(uint64 mask);
  76:src/../h/Riscv.hpp **** 
  77:src/../h/Riscv.hpp **** 	//read sstatus
  78:src/../h/Riscv.hpp **** 	static uint64 r_sstatus();
  79:src/../h/Riscv.hpp **** 
  80:src/../h/Riscv.hpp **** 	//write sstatus
  81:src/../h/Riscv.hpp **** 	static void w_sstatus(uint64 sstatus);
  82:src/../h/Riscv.hpp **** 
  83:src/../h/Riscv.hpp **** 	//upisuje kod sistemskog poziva u registar a0
  84:src/../h/Riscv.hpp **** 	static void loadOpCode(uint64 opCode);
  85:src/../h/Riscv.hpp **** 
  86:src/../h/Riscv.hpp **** };
  87:src/../h/Riscv.hpp **** 
  88:src/../h/Riscv.hpp **** inline uint64 Riscv::r_scause() {
  89:src/../h/Riscv.hpp **** 	uint64 volatile scause;
  90:src/../h/Riscv.hpp **** 	__asm__ volatile("csrr %[scause], scause": [scause] "=r"(scause));
  91:src/../h/Riscv.hpp **** 	return scause;
  92:src/../h/Riscv.hpp **** }
  93:src/../h/Riscv.hpp **** 
GAS LISTING /tmp/ccukrdXF.s 			page 25


  94:src/../h/Riscv.hpp **** inline void Riscv::w_scause(uint64 scause) {
  95:src/../h/Riscv.hpp **** 	__asm__ volatile("csrw scause, %[scause]": :[scause] "r"(scause));
  96:src/../h/Riscv.hpp **** }
  97:src/../h/Riscv.hpp **** 
  98:src/../h/Riscv.hpp **** inline uint64 Riscv::r_sepc() {
  99:src/../h/Riscv.hpp **** 	uint64 volatile sepc;
 100:src/../h/Riscv.hpp **** 	__asm__ volatile("csrr %[sepc], sepc": [sepc] "=r"(sepc));
 101:src/../h/Riscv.hpp **** 	return sepc;
 102:src/../h/Riscv.hpp **** }
 103:src/../h/Riscv.hpp **** 
 104:src/../h/Riscv.hpp **** inline void Riscv::w_sepc(uint64 sepc) {
 105:src/../h/Riscv.hpp **** 	__asm__ volatile("csrw sepc, %[sepc]": :[sepc] "r"(sepc));
 106:src/../h/Riscv.hpp **** }
 107:src/../h/Riscv.hpp **** 
 108:src/../h/Riscv.hpp **** inline uint64 Riscv::r_stvec() {
 109:src/../h/Riscv.hpp **** 	uint64 volatile stvec;
 110:src/../h/Riscv.hpp **** 	__asm__ volatile("csrr %[stvec], stvec": [stvec] "=r"(stvec));
 111:src/../h/Riscv.hpp **** 	return stvec;
 112:src/../h/Riscv.hpp **** }
 113:src/../h/Riscv.hpp **** 
 114:src/../h/Riscv.hpp **** inline void Riscv::w_stvec(uint64 stvec) {
 115:src/../h/Riscv.hpp **** 	__asm__ volatile("csrw stvec, %[stvec]": :[stvec] "r"(stvec));
 116:src/../h/Riscv.hpp **** }
 117:src/../h/Riscv.hpp **** 
 118:src/../h/Riscv.hpp **** inline void Riscv::ms_sip(uint64 mask) {
 119:src/../h/Riscv.hpp **** 	__asm__ volatile("csrs sip, %[mask]": :[mask] "r"(mask));
 120:src/../h/Riscv.hpp **** }
 121:src/../h/Riscv.hpp **** 
 122:src/../h/Riscv.hpp **** inline void Riscv::mc_sip(uint64 mask) {
 941              		.loc 2 122 40 is_stmt 1
 942              		.cfi_startproc
 943              	.LVL90:
 944 0000 130101FF 		addi	sp,sp,-16
 945              		.cfi_def_cfa_offset 16
 946 0004 23348100 		sd	s0,8(sp)
 947              		.cfi_offset 8, -8
 948 0008 13040101 		addi	s0,sp,16
 949              		.cfi_def_cfa 8, 0
 123:src/../h/Riscv.hpp **** 	__asm__ volatile("csrc sip, %[mask]": :[mask] "r"(mask));
 950              		.loc 2 123 2
 951              		.loc 2 123 58 is_stmt 0
 952              	#APP
 953              	# 123 "src/../h/Riscv.hpp" 1
 124              	}
 954              		csrc sip, a0
 955              	# 0 "" 2
 956              		.loc 2 124 1
 957              	#NO_APP
 958 0010 03348100 		ld	s0,8(sp)
 959              		.cfi_restore 8
 960              		.cfi_def_cfa 2, 16
 961 0014 13010101 		addi	sp,sp,16
 962              		.cfi_def_cfa_offset 0
 963 0018 67800000 		jr	ra
 964              		.cfi_endproc
 965              	.LFE10:
 967              		.section	.text._ZN3TCB11setFinishedEb,"axG",@progbits,_ZN3TCB11setFinishedEb,comdat
GAS LISTING /tmp/ccukrdXF.s 			page 26


 968              		.align	2
 969              		.weak	_ZN3TCB11setFinishedEb
 971              	_ZN3TCB11setFinishedEb:
 972              	.LFB33:
 973              		.file 3 "src/../h/TCB.hpp"
   1:src/../h/TCB.hpp **** //
   2:src/../h/TCB.hpp **** // Created by os on 5/23/23.
   3:src/../h/TCB.hpp **** //
   4:src/../h/TCB.hpp **** 
   5:src/../h/TCB.hpp **** #ifndef PROJEKAT2023_TCB_HPP
   6:src/../h/TCB.hpp **** #define PROJEKAT2023_TCB_HPP
   7:src/../h/TCB.hpp **** 
   8:src/../h/TCB.hpp **** #include "../lib/hw.h"
   9:src/../h/TCB.hpp **** #include "../h/ThreadQueue.hpp"
  10:src/../h/TCB.hpp **** 
  11:src/../h/TCB.hpp **** class TCB {
  12:src/../h/TCB.hpp **** public:
  13:src/../h/TCB.hpp **** 	friend class Scheduler;
  14:src/../h/TCB.hpp **** 
  15:src/../h/TCB.hpp **** 	using Body = void (*)(void*);
  16:src/../h/TCB.hpp **** 
  17:src/../h/TCB.hpp **** 	static TCB* createThread(Body function, void* args, uint64* stack);
  18:src/../h/TCB.hpp **** 	static void start(TCB* newTcb);
  19:src/../h/TCB.hpp **** 
  20:src/../h/TCB.hpp **** 	bool isFinished() { return finished; }
  21:src/../h/TCB.hpp **** 
  22:src/../h/TCB.hpp **** 	void setFinished(bool finish) { this->finished = finish; }
 974              		.loc 3 22 7 is_stmt 1
 975              		.cfi_startproc
 976              	.LVL91:
 977 0000 130101FF 		addi	sp,sp,-16
 978              		.cfi_def_cfa_offset 16
 979 0004 23348100 		sd	s0,8(sp)
 980              		.cfi_offset 8, -8
 981 0008 13040101 		addi	s0,sp,16
 982              		.cfi_def_cfa 8, 0
 983              		.loc 3 22 34
 984              		.loc 3 22 49 is_stmt 0
 985 000c 2308B502 		sb	a1,48(a0)
 986              		.loc 3 22 59
 987 0010 03348100 		ld	s0,8(sp)
 988              		.cfi_restore 8
 989              		.cfi_def_cfa 2, 16
 990 0014 13010101 		addi	sp,sp,16
 991              		.cfi_def_cfa_offset 0
 992 0018 67800000 		jr	ra
 993              		.cfi_endproc
 994              	.LFE33:
 996              		.section	.text._ZN3TCB12getTimeSliceEv,"axG",@progbits,_ZN3TCB12getTimeSliceEv,comdat
 997              		.align	2
 998              		.weak	_ZN3TCB12getTimeSliceEv
 1000              	_ZN3TCB12getTimeSliceEv:
 1001              	.LFB36:
  23:src/../h/TCB.hpp **** 
  24:src/../h/TCB.hpp **** 	bool isBlocked() { return blocked; }
  25:src/../h/TCB.hpp **** 
  26:src/../h/TCB.hpp **** 	void setBlocked(bool block) { this->blocked = block; }
GAS LISTING /tmp/ccukrdXF.s 			page 27


  27:src/../h/TCB.hpp **** 
  28:src/../h/TCB.hpp **** 	uint64 getTimeSlice() { return timeSlice; }
 1002              		.loc 3 28 9 is_stmt 1
 1003              		.cfi_startproc
 1004              	.LVL92:
 1005 0000 130101FF 		addi	sp,sp,-16
 1006              		.cfi_def_cfa_offset 16
 1007 0004 23348100 		sd	s0,8(sp)
 1008              		.cfi_offset 8, -8
 1009 0008 13040101 		addi	s0,sp,16
 1010              		.cfi_def_cfa 8, 0
 1011              		.loc 3 28 26
 1012              		.loc 3 28 44 is_stmt 0
 1013 000c 03358502 		ld	a0,40(a0)
 1014              	.LVL93:
 1015 0010 03348100 		ld	s0,8(sp)
 1016              		.cfi_restore 8
 1017              		.cfi_def_cfa 2, 16
 1018 0014 13010101 		addi	sp,sp,16
 1019              		.cfi_def_cfa_offset 0
 1020 0018 67800000 		jr	ra
 1021              		.cfi_endproc
 1022              	.LFE36:
 1024              		.text
 1025              	.Letext0:
 1026              		.file 4 "src/../lib/hw.h"
 1027              		.file 5 "src/../h/MemoryAllocator.hpp"
 1028              		.file 6 "src/../h/syscall_c.hpp"
 1029              		.file 7 "src/../h/KSem.hpp"
 1030              		.file 8 "src/../h/../h/ThreadQueue.hpp"
 1031              		.file 9 "src/../h/Scheduler.hpp"
 1032              		.file 10 "src/../h/KConsole.hpp"
 1033              		.file 11 "src/../h/../test/printing.hpp"
 1034              		.file 12 "src/../h/helper.hpp"
GAS LISTING /tmp/ccukrdXF.s 			page 28


DEFINED SYMBOLS
                            *ABS*:0000000000000000 interruptRoutine.cpp
     /tmp/ccukrdXF.s:29     .text:0000000000000000 interruptRoutine
     /tmp/ccukrdXF.s:33     .text:0000000000000000 .L0 
     /tmp/ccukrdXF.s:34     .text:0000000000000000 .L0 
     /tmp/ccukrdXF.s:35     .text:0000000000000004 .L0 
     /tmp/ccukrdXF.s:39     .text:0000000000000010 .L0 
     /tmp/ccukrdXF.s:40     .text:0000000000000010 .L0 
     /tmp/ccukrdXF.s:41     .text:0000000000000010 .L0 
     /tmp/ccukrdXF.s:43     .text:0000000000000014 .L0 
     /tmp/ccukrdXF.s:45     .text:0000000000000014 .L0 
     /tmp/ccukrdXF.s:46     .text:0000000000000014 .L0 
src/interruptRoutine.cpp:24     .text:0000000000000014 .L0 
     /tmp/ccukrdXF.s:55     .text:000000000000001c .L0 
src/interruptRoutine.cpp:25     .text:000000000000001c .L0 
     /tmp/ccukrdXF.s:65     .text:0000000000000024 .L0 
src/interruptRoutine.cpp:26     .text:0000000000000024 .L0 
     /tmp/ccukrdXF.s:75     .text:000000000000002c .L0 
     /tmp/ccukrdXF.s:76     .text:000000000000002c .L0 
src/interruptRoutine.cpp:30     .text:000000000000002c .L0 
     /tmp/ccukrdXF.s:86     .text:0000000000000034 .L0 
src/interruptRoutine.cpp:31     .text:0000000000000034 .L0 
     /tmp/ccukrdXF.s:96     .text:000000000000003c .L0 
src/interruptRoutine.cpp:32     .text:000000000000003c .L0 
     /tmp/ccukrdXF.s:106    .text:0000000000000044 .L0 
src/interruptRoutine.cpp:33     .text:0000000000000044 .L0 
     /tmp/ccukrdXF.s:116    .text:000000000000004c .L0 
src/interruptRoutine.cpp:34     .text:000000000000004c .L0 
     /tmp/ccukrdXF.s:126    .text:0000000000000054 .L0 
src/interruptRoutine.cpp:35     .text:0000000000000054 .L0 
     /tmp/ccukrdXF.s:136    .text:000000000000005c .L0 
src/interruptRoutine.cpp:36     .text:000000000000005c .L0 
     /tmp/ccukrdXF.s:146    .text:0000000000000064 .L0 
src/interruptRoutine.cpp:37     .text:0000000000000064 .L0 
     /tmp/ccukrdXF.s:157    .text:000000000000006c .L0 
     /tmp/ccukrdXF.s:161    .text:0000000000000078 .L0 
     /tmp/ccukrdXF.s:166    .text:0000000000000084 .L0 
     /tmp/ccukrdXF.s:274    .text:0000000000000110 .L0 
     /tmp/ccukrdXF.s:275    .text:0000000000000110 .L0 
     /tmp/ccukrdXF.s:276    .text:0000000000000110 .L0 
     /tmp/ccukrdXF.s:283    .text:0000000000000128 .L0 
src/interruptRoutine.cpp:46     .text:0000000000000128 .L0 
     /tmp/ccukrdXF.s:290    .text:000000000000012c .L0 
     /tmp/ccukrdXF.s:294    .text:0000000000000130 .L0 
     /tmp/ccukrdXF.s:295    .text:0000000000000130 .L0 
     /tmp/ccukrdXF.s:296    .text:0000000000000130 .L0 
     /tmp/ccukrdXF.s:301    .text:0000000000000140 .L0 
src/interruptRoutine.cpp:52     .text:0000000000000140 .L0 
     /tmp/ccukrdXF.s:308    .text:0000000000000144 .L0 
     /tmp/ccukrdXF.s:312    .text:0000000000000148 .L0 
     /tmp/ccukrdXF.s:313    .text:0000000000000148 .L0 
     /tmp/ccukrdXF.s:314    .text:0000000000000148 .L0 
     /tmp/ccukrdXF.s:318    .text:0000000000000154 .L0 
     /tmp/ccukrdXF.s:320    .text:0000000000000158 .L0 
     /tmp/ccukrdXF.s:327    .text:0000000000000170 .L0 
     /tmp/ccukrdXF.s:329    .text:0000000000000174 .L0 
     /tmp/ccukrdXF.s:330    .text:0000000000000174 .L0 
GAS LISTING /tmp/ccukrdXF.s 			page 29


     /tmp/ccukrdXF.s:336    .text:0000000000000188 .L0 
     /tmp/ccukrdXF.s:337    .text:0000000000000188 .L0 
     /tmp/ccukrdXF.s:340    .text:0000000000000190 .L0 
     /tmp/ccukrdXF.s:342    .text:0000000000000194 .L0 
src/interruptRoutine.cpp:63     .text:0000000000000194 .L0 
     /tmp/ccukrdXF.s:351    .text:000000000000019c .L0 
src/interruptRoutine.cpp:65     .text:000000000000019c .L0 
     /tmp/ccukrdXF.s:359    .text:00000000000001a0 .L0 
src/interruptRoutine.cpp:67     .text:00000000000001a0 .L0 
     /tmp/ccukrdXF.s:366    .text:00000000000001a4 .L0 
     /tmp/ccukrdXF.s:370    .text:00000000000001a8 .L0 
     /tmp/ccukrdXF.s:371    .text:00000000000001a8 .L0 
     /tmp/ccukrdXF.s:372    .text:00000000000001a8 .L0 
     /tmp/ccukrdXF.s:971    .text._ZN3TCB11setFinishedEb:0000000000000000 _ZN3TCB11setFinishedEb
     /tmp/ccukrdXF.s:379    .text:00000000000001c4 .L0 
     /tmp/ccukrdXF.s:380    .text:00000000000001c4 .L0 
     /tmp/ccukrdXF.s:383    .text:00000000000001cc .L0 
     /tmp/ccukrdXF.s:384    .text:00000000000001cc .L0 
     /tmp/ccukrdXF.s:387    .text:00000000000001d4 .L0 
     /tmp/ccukrdXF.s:391    .text:00000000000001d8 .L0 
     /tmp/ccukrdXF.s:392    .text:00000000000001d8 .L0 
     /tmp/ccukrdXF.s:393    .text:00000000000001d8 .L0 
     /tmp/ccukrdXF.s:396    .text:00000000000001e0 .L0 
     /tmp/ccukrdXF.s:400    .text:00000000000001e4 .L0 
     /tmp/ccukrdXF.s:401    .text:00000000000001e4 .L0 
     /tmp/ccukrdXF.s:402    .text:00000000000001e4 .L0 
     /tmp/ccukrdXF.s:407    .text:00000000000001f4 .L0 
     /tmp/ccukrdXF.s:408    .text:00000000000001f4 .L0 
     /tmp/ccukrdXF.s:411    .text:00000000000001fc .L0 
     /tmp/ccukrdXF.s:415    .text:0000000000000200 .L0 
     /tmp/ccukrdXF.s:416    .text:0000000000000200 .L0 
     /tmp/ccukrdXF.s:417    .text:0000000000000200 .L0 
     /tmp/ccukrdXF.s:420    .text:0000000000000208 .L0 
     /tmp/ccukrdXF.s:422    .text:000000000000020c .L0 
     /tmp/ccukrdXF.s:427    .text:000000000000021c .L0 
     /tmp/ccukrdXF.s:429    .text:0000000000000220 .L0 
     /tmp/ccukrdXF.s:430    .text:0000000000000220 .L0 
     /tmp/ccukrdXF.s:433    .text:0000000000000228 .L0 
     /tmp/ccukrdXF.s:435    .text:000000000000022c .L0 
src/interruptRoutine.cpp:90     .text:000000000000022c .L0 
     /tmp/ccukrdXF.s:444    .text:0000000000000234 .L0 
src/interruptRoutine.cpp:92     .text:0000000000000234 .L0 
     /tmp/ccukrdXF.s:452    .text:0000000000000238 .L0 
src/interruptRoutine.cpp:94     .text:0000000000000238 .L0 
     /tmp/ccukrdXF.s:459    .text:000000000000023c .L0 
     /tmp/ccukrdXF.s:463    .text:0000000000000240 .L0 
     /tmp/ccukrdXF.s:464    .text:0000000000000240 .L0 
     /tmp/ccukrdXF.s:465    .text:0000000000000240 .L0 
     /tmp/ccukrdXF.s:470    .text:0000000000000250 .L0 
src/interruptRoutine.cpp:100    .text:0000000000000250 .L0 
     /tmp/ccukrdXF.s:477    .text:0000000000000254 .L0 
     /tmp/ccukrdXF.s:481    .text:0000000000000258 .L0 
     /tmp/ccukrdXF.s:482    .text:0000000000000258 .L0 
     /tmp/ccukrdXF.s:483    .text:0000000000000258 .L0 
     /tmp/ccukrdXF.s:488    .text:0000000000000268 .L0 
src/interruptRoutine.cpp:106    .text:0000000000000268 .L0 
     /tmp/ccukrdXF.s:495    .text:000000000000026c .L0 
GAS LISTING /tmp/ccukrdXF.s 			page 30


     /tmp/ccukrdXF.s:499    .text:0000000000000270 .L0 
     /tmp/ccukrdXF.s:500    .text:0000000000000270 .L0 
     /tmp/ccukrdXF.s:501    .text:0000000000000270 .L0 
     /tmp/ccukrdXF.s:506    .text:0000000000000280 .L0 
src/interruptRoutine.cpp:112    .text:0000000000000280 .L0 
     /tmp/ccukrdXF.s:513    .text:0000000000000284 .L0 
     /tmp/ccukrdXF.s:517    .text:0000000000000288 .L0 
     /tmp/ccukrdXF.s:518    .text:0000000000000288 .L0 
     /tmp/ccukrdXF.s:521    .text:0000000000000290 .L0 
src/interruptRoutine.cpp:118    .text:0000000000000290 .L0 
     /tmp/ccukrdXF.s:530    .text:0000000000000298 .L0 
src/interruptRoutine.cpp:120    .text:0000000000000298 .L0 
     /tmp/ccukrdXF.s:538    .text:000000000000029c .L0 
src/interruptRoutine.cpp:122    .text:000000000000029c .L0 
     /tmp/ccukrdXF.s:545    .text:00000000000002a0 .L0 
     /tmp/ccukrdXF.s:548    .text:00000000000002a8 .L0 
     /tmp/ccukrdXF.s:549    .text:00000000000002a8 .L0 
     /tmp/ccukrdXF.s:556    .text:00000000000002c4 .L0 
     /tmp/ccukrdXF.s:557    .text:00000000000002c4 .L0 
     /tmp/ccukrdXF.s:560    .text:00000000000002cc .L0 
     /tmp/ccukrdXF.s:564    .text:00000000000002d0 .L0 
     /tmp/ccukrdXF.s:565    .text:00000000000002d0 .L0 
     /tmp/ccukrdXF.s:566    .text:00000000000002d0 .L0 
     /tmp/ccukrdXF.s:569    .text:00000000000002d8 .L0 
src/interruptRoutine.cpp:131    .text:00000000000002d8 .L0 
     /tmp/ccukrdXF.s:576    .text:00000000000002dc .L0 
     /tmp/ccukrdXF.s:580    .text:00000000000002e0 .L0 
     /tmp/ccukrdXF.s:581    .text:00000000000002e0 .L0 
     /tmp/ccukrdXF.s:582    .text:00000000000002e0 .L0 
     /tmp/ccukrdXF.s:588    .text:00000000000002f4 .L0 
     /tmp/ccukrdXF.s:592    .text:00000000000002f8 .L0 
     /tmp/ccukrdXF.s:593    .text:00000000000002f8 .L0 
     /tmp/ccukrdXF.s:594    .text:00000000000002f8 .L0 
     /tmp/ccukrdXF.s:598    .text:0000000000000304 .L0 
     /tmp/ccukrdXF.s:600    .text:0000000000000308 .L0 
     /tmp/ccukrdXF.s:607    .text:0000000000000320 .L0 
     /tmp/ccukrdXF.s:609    .text:0000000000000324 .L0 
     /tmp/ccukrdXF.s:610    .text:0000000000000324 .L0 
     /tmp/ccukrdXF.s:613    .text:000000000000032c .L0 
     /tmp/ccukrdXF.s:615    .text:0000000000000330 .L0 
src/interruptRoutine.cpp:146    .text:0000000000000330 .L0 
     /tmp/ccukrdXF.s:624    .text:0000000000000338 .L0 
src/interruptRoutine.cpp:148    .text:0000000000000338 .L0 
     /tmp/ccukrdXF.s:632    .text:000000000000033c .L0 
src/interruptRoutine.cpp:150    .text:000000000000033c .L0 
     /tmp/ccukrdXF.s:639    .text:0000000000000340 .L0 
     /tmp/ccukrdXF.s:643    .text:0000000000000344 .L0 
     /tmp/ccukrdXF.s:644    .text:0000000000000344 .L0 
     /tmp/ccukrdXF.s:645    .text:0000000000000344 .L0 
     /tmp/ccukrdXF.s:650    .text:0000000000000354 .L0 
     /tmp/ccukrdXF.s:654    .text:0000000000000358 .L0 
     /tmp/ccukrdXF.s:655    .text:0000000000000358 .L0 
     /tmp/ccukrdXF.s:656    .text:0000000000000358 .L0 
     /tmp/ccukrdXF.s:660    .text:0000000000000364 .L0 
     /tmp/ccukrdXF.s:664    .text:0000000000000368 .L0 
     /tmp/ccukrdXF.s:665    .text:0000000000000368 .L0 
     /tmp/ccukrdXF.s:666    .text:0000000000000368 .L0 
GAS LISTING /tmp/ccukrdXF.s 			page 31


     /tmp/ccukrdXF.s:670    .text:0000000000000378 .L0 
     /tmp/ccukrdXF.s:671    .text:0000000000000378 .L0 
     /tmp/ccukrdXF.s:675    .text:0000000000000384 .L0 
     /tmp/ccukrdXF.s:676    .text:0000000000000384 .L0 
     /tmp/ccukrdXF.s:680    .text:0000000000000394 .L0 
     /tmp/ccukrdXF.s:681    .text:0000000000000394 .L0 
     /tmp/ccukrdXF.s:685    .text:00000000000003a0 .L0 
     /tmp/ccukrdXF.s:686    .text:00000000000003a0 .L0 
     /tmp/ccukrdXF.s:690    .text:00000000000003b0 .L0 
     /tmp/ccukrdXF.s:691    .text:00000000000003b0 .L0 
     /tmp/ccukrdXF.s:695    .text:00000000000003bc .L0 
     /tmp/ccukrdXF.s:698    .text:00000000000003c0 .L0 
     /tmp/ccukrdXF.s:701    .text:00000000000003c4 .L0 
     /tmp/ccukrdXF.s:702    .text:00000000000003c4 .L0 
     /tmp/ccukrdXF.s:707    .text:00000000000003d0 .L0 
     /tmp/ccukrdXF.s:708    .text:00000000000003d0 .L0 
     /tmp/ccukrdXF.s:714    .text:00000000000003d8 .L0 
     /tmp/ccukrdXF.s:716    .text:00000000000003d8 .L0 
     /tmp/ccukrdXF.s:725    .text:00000000000003e0 .L0 
     /tmp/ccukrdXF.s:732    .text:00000000000003e4 .L0 
     /tmp/ccukrdXF.s:740    .text:00000000000003f8 .L0 
     /tmp/ccukrdXF.s:741    .text:00000000000003f8 .L0 
     /tmp/ccukrdXF.s:745    .text:0000000000000404 .L0 
     /tmp/ccukrdXF.s:748    .text:0000000000000408 .L0 
     /tmp/ccukrdXF.s:752    .text:0000000000000414 .L0 
     /tmp/ccukrdXF.s:753    .text:0000000000000414 .L0 
     /tmp/ccukrdXF.s:757    .text:0000000000000424 .L0 
     /tmp/ccukrdXF.s:759    .text:0000000000000428 .L0 
     /tmp/ccukrdXF.s:761    .text:000000000000042c .L0 
     /tmp/ccukrdXF.s:762    .text:000000000000042c .L0 
     /tmp/ccukrdXF.s:771    .text:0000000000000448 .L0 
     /tmp/ccukrdXF.s:772    .text:0000000000000448 .L0 
     /tmp/ccukrdXF.s:781    .text:0000000000000460 .L0 
     /tmp/ccukrdXF.s:782    .text:0000000000000460 .L0 
     /tmp/ccukrdXF.s:788    .text:0000000000000470 .L0 
     /tmp/ccukrdXF.s:789    .text:0000000000000470 .L0 
     /tmp/ccukrdXF.s:795    .text:0000000000000478 .L0 
     /tmp/ccukrdXF.s:797    .text:0000000000000478 .L0 
     /tmp/ccukrdXF.s:803    .text:0000000000000480 .L0 
     /tmp/ccukrdXF.s:805    .text:0000000000000480 .L0 
     /tmp/ccukrdXF.s:938    .text._ZN5Riscv6mc_sipEm:0000000000000000 _ZN5Riscv6mc_sipEm
     /tmp/ccukrdXF.s:813    .text:000000000000048c .L0 
     /tmp/ccukrdXF.s:820    .text:0000000000000490 .L0 
     /tmp/ccukrdXF.s:826    .text:00000000000004a4 .L0 
     /tmp/ccukrdXF.s:827    .text:00000000000004a4 .L0 
     /tmp/ccukrdXF.s:830    .text:00000000000004ac .L0 
     /tmp/ccukrdXF.s:831    .text:00000000000004ac .L0 
     /tmp/ccukrdXF.s:837    .text:00000000000004c8 .L0 
     /tmp/ccukrdXF.s:838    .text:00000000000004c8 .L0 
     /tmp/ccukrdXF.s:1000   .text._ZN3TCB12getTimeSliceEv:0000000000000000 _ZN3TCB12getTimeSliceEv
     /tmp/ccukrdXF.s:845    .text:00000000000004e4 .L0 
     /tmp/ccukrdXF.s:851    .text:00000000000004fc .L0 
     /tmp/ccukrdXF.s:853    .text:0000000000000500 .L0 
     /tmp/ccukrdXF.s:854    .text:0000000000000500 .L0 
     /tmp/ccukrdXF.s:858    .text:0000000000000508 .L0 
     /tmp/ccukrdXF.s:859    .text:0000000000000508 .L0 
     /tmp/ccukrdXF.s:865    .text:0000000000000510 .L0 
GAS LISTING /tmp/ccukrdXF.s 			page 32


     /tmp/ccukrdXF.s:867    .text:0000000000000510 .L0 
     /tmp/ccukrdXF.s:873    .text:0000000000000518 .L0 
     /tmp/ccukrdXF.s:875    .text:0000000000000518 .L0 
     /tmp/ccukrdXF.s:882    .text:0000000000000524 .L0 
     /tmp/ccukrdXF.s:889    .text:0000000000000528 .L0 
     /tmp/ccukrdXF.s:890    .text:0000000000000528 .L0 
     /tmp/ccukrdXF.s:894    .text:0000000000000538 .L0 
     /tmp/ccukrdXF.s:895    .text:0000000000000538 .L0 
     /tmp/ccukrdXF.s:899    .text:0000000000000548 .L0 
     /tmp/ccukrdXF.s:900    .text:0000000000000548 .L0 
     /tmp/ccukrdXF.s:904    .text:0000000000000554 .L0 
     /tmp/ccukrdXF.s:905    .text:0000000000000554 .L0 
     /tmp/ccukrdXF.s:909    .text:0000000000000564 .L0 
     /tmp/ccukrdXF.s:910    .text:0000000000000564 .L0 
     /tmp/ccukrdXF.s:918    .text:0000000000000570 .L0 
     /tmp/ccukrdXF.s:920    .text:0000000000000578 .L0 
     /tmp/ccukrdXF.s:922    .text:000000000000057c .L0 
     /tmp/ccukrdXF.s:923    .text:000000000000057c .L0 
     /tmp/ccukrdXF.s:926    .text:0000000000000580 .L0 
     /tmp/ccukrdXF.s:928    .text:0000000000000584 .L0 
     /tmp/ccukrdXF.s:931    .text:0000000000000588 .L0 
     /tmp/ccukrdXF.s:942    .text._ZN5Riscv6mc_sipEm:0000000000000000 .L0 
     /tmp/ccukrdXF.s:944    .text._ZN5Riscv6mc_sipEm:0000000000000000 .L0 
     /tmp/ccukrdXF.s:945    .text._ZN5Riscv6mc_sipEm:0000000000000004 .L0 
     /tmp/ccukrdXF.s:947    .text._ZN5Riscv6mc_sipEm:0000000000000008 .L0 
     /tmp/ccukrdXF.s:949    .text._ZN5Riscv6mc_sipEm:000000000000000c .L0 
     /tmp/ccukrdXF.s:951    .text._ZN5Riscv6mc_sipEm:000000000000000c .L0 
  src/../h/Riscv.hpp:123    .text._ZN5Riscv6mc_sipEm:000000000000000c .L0 
     /tmp/ccukrdXF.s:958    .text._ZN5Riscv6mc_sipEm:0000000000000010 .L0 
     /tmp/ccukrdXF.s:959    .text._ZN5Riscv6mc_sipEm:0000000000000014 .L0 
     /tmp/ccukrdXF.s:960    .text._ZN5Riscv6mc_sipEm:0000000000000014 .L0 
     /tmp/ccukrdXF.s:962    .text._ZN5Riscv6mc_sipEm:0000000000000018 .L0 
     /tmp/ccukrdXF.s:964    .text._ZN5Riscv6mc_sipEm:000000000000001c .L0 
     /tmp/ccukrdXF.s:975    .text._ZN3TCB11setFinishedEb:0000000000000000 .L0 
     /tmp/ccukrdXF.s:977    .text._ZN3TCB11setFinishedEb:0000000000000000 .L0 
     /tmp/ccukrdXF.s:978    .text._ZN3TCB11setFinishedEb:0000000000000004 .L0 
     /tmp/ccukrdXF.s:980    .text._ZN3TCB11setFinishedEb:0000000000000008 .L0 
     /tmp/ccukrdXF.s:982    .text._ZN3TCB11setFinishedEb:000000000000000c .L0 
     /tmp/ccukrdXF.s:984    .text._ZN3TCB11setFinishedEb:000000000000000c .L0 
     /tmp/ccukrdXF.s:985    .text._ZN3TCB11setFinishedEb:000000000000000c .L0 
     /tmp/ccukrdXF.s:987    .text._ZN3TCB11setFinishedEb:0000000000000010 .L0 
     /tmp/ccukrdXF.s:988    .text._ZN3TCB11setFinishedEb:0000000000000014 .L0 
     /tmp/ccukrdXF.s:989    .text._ZN3TCB11setFinishedEb:0000000000000014 .L0 
     /tmp/ccukrdXF.s:991    .text._ZN3TCB11setFinishedEb:0000000000000018 .L0 
     /tmp/ccukrdXF.s:993    .text._ZN3TCB11setFinishedEb:000000000000001c .L0 
     /tmp/ccukrdXF.s:1003   .text._ZN3TCB12getTimeSliceEv:0000000000000000 .L0 
     /tmp/ccukrdXF.s:1005   .text._ZN3TCB12getTimeSliceEv:0000000000000000 .L0 
     /tmp/ccukrdXF.s:1006   .text._ZN3TCB12getTimeSliceEv:0000000000000004 .L0 
     /tmp/ccukrdXF.s:1008   .text._ZN3TCB12getTimeSliceEv:0000000000000008 .L0 
     /tmp/ccukrdXF.s:1010   .text._ZN3TCB12getTimeSliceEv:000000000000000c .L0 
     /tmp/ccukrdXF.s:1012   .text._ZN3TCB12getTimeSliceEv:000000000000000c .L0 
     /tmp/ccukrdXF.s:1013   .text._ZN3TCB12getTimeSliceEv:000000000000000c .L0 
     /tmp/ccukrdXF.s:1016   .text._ZN3TCB12getTimeSliceEv:0000000000000014 .L0 
     /tmp/ccukrdXF.s:1017   .text._ZN3TCB12getTimeSliceEv:0000000000000014 .L0 
     /tmp/ccukrdXF.s:1019   .text._ZN3TCB12getTimeSliceEv:0000000000000018 .L0 
     /tmp/ccukrdXF.s:1021   .text._ZN3TCB12getTimeSliceEv:000000000000001c .L0 
     /tmp/ccukrdXF.s:1035   .text:0000000000000588 .L0 
GAS LISTING /tmp/ccukrdXF.s 			page 33


     /tmp/ccukrdXF.s:967    .text._ZN5Riscv6mc_sipEm:000000000000001c .L0 
     /tmp/ccukrdXF.s:996    .text._ZN3TCB11setFinishedEb:000000000000001c .L0 
     /tmp/ccukrdXF.s:1024   .text._ZN3TCB12getTimeSliceEv:000000000000001c .L0 
     /tmp/ccukrdXF.s:198    .rodata:0000000000000074 .L9
     /tmp/ccukrdXF.s:188    .text:00000000000000dc .L0 
     /tmp/ccukrdXF.s:192    .text:00000000000000f0 .L0 
     /tmp/ccukrdXF.s:372    .text:00000000000001a8 .L0 
     /tmp/ccukrdXF.s:549    .text:00000000000002a8 .L0 
     /tmp/ccukrdXF.s:8      .rodata:0000000000000000 .LC0
     /tmp/ccukrdXF.s:666    .text:0000000000000368 .L0 
     /tmp/ccukrdXF.s:11     .rodata:0000000000000018 .LC1
     /tmp/ccukrdXF.s:676    .text:0000000000000384 .L0 
     /tmp/ccukrdXF.s:14     .rodata:0000000000000028 .LC2
     /tmp/ccukrdXF.s:686    .text:00000000000003a0 .L0 
     /tmp/ccukrdXF.s:753    .text:0000000000000414 .L0 
     /tmp/ccukrdXF.s:762    .text:000000000000042c .L0 
     /tmp/ccukrdXF.s:17     .rodata:0000000000000030 .LC3
     /tmp/ccukrdXF.s:782    .text:0000000000000460 .L0 
     /tmp/ccukrdXF.s:831    .text:00000000000004ac .L0 
     /tmp/ccukrdXF.s:834    .text:00000000000004bc .L0 
     /tmp/ccukrdXF.s:838    .text:00000000000004c8 .L0 
     /tmp/ccukrdXF.s:845    .text:00000000000004e4 .L0 
     /tmp/ccukrdXF.s:20     .rodata:0000000000000048 .LC4
     /tmp/ccukrdXF.s:890    .text:0000000000000528 .L0 
     /tmp/ccukrdXF.s:23     .rodata:0000000000000068 .LC5
     /tmp/ccukrdXF.s:895    .text:0000000000000538 .L0 
     /tmp/ccukrdXF.s:905    .text:0000000000000554 .L0 
     /tmp/ccukrdXF.s:164    .text:0000000000000084 .L2
     /tmp/ccukrdXF.s:727    .text:00000000000003e4 .L3
     /tmp/ccukrdXF.s:652    .text:0000000000000358 .L4
     /tmp/ccukrdXF.s:662    .text:0000000000000368 .L5
     /tmp/ccukrdXF.s:641    .text:0000000000000344 .L6
     /tmp/ccukrdXF.s:267    .text:0000000000000100 .L7
     /tmp/ccukrdXF.s:590    .text:00000000000002f8 .L22
     /tmp/ccukrdXF.s:699    .text:00000000000003c4 .L23
     /tmp/ccukrdXF.s:349    .text:000000000000019c .L24
     /tmp/ccukrdXF.s:357    .text:00000000000001a0 .L25
     /tmp/ccukrdXF.s:442    .text:0000000000000234 .L26
     /tmp/ccukrdXF.s:450    .text:0000000000000238 .L27
     /tmp/ccukrdXF.s:528    .text:0000000000000298 .L28
     /tmp/ccukrdXF.s:536    .text:000000000000029c .L29
     /tmp/ccukrdXF.s:696    .text:00000000000003c0 .L40
     /tmp/ccukrdXF.s:622    .text:0000000000000338 .L31
     /tmp/ccukrdXF.s:630    .text:000000000000033c .L32
     /tmp/ccukrdXF.s:913    .text:0000000000000570 .L41
     /tmp/ccukrdXF.s:815    .text:0000000000000490 .L34
     /tmp/ccukrdXF.s:779    .text:0000000000000460 .L35
     /tmp/ccukrdXF.s:769    .text:0000000000000448 .L36
     /tmp/ccukrdXF.s:786    .text:0000000000000470 .L37
     /tmp/ccukrdXF.s:884    .text:0000000000000528 .L38
     /tmp/ccukrdXF.s:856    .text:0000000000000508 .L39
     /tmp/ccukrdXF.s:272    .text:0000000000000110 .L21
     /tmp/ccukrdXF.s:292    .text:0000000000000130 .L20
     /tmp/ccukrdXF.s:310    .text:0000000000000148 .L19
     /tmp/ccukrdXF.s:368    .text:00000000000001a8 .L18
     /tmp/ccukrdXF.s:389    .text:00000000000001d8 .L17
     /tmp/ccukrdXF.s:398    .text:00000000000001e4 .L16
GAS LISTING /tmp/ccukrdXF.s 			page 34


     /tmp/ccukrdXF.s:413    .text:0000000000000200 .L15
     /tmp/ccukrdXF.s:461    .text:0000000000000240 .L14
     /tmp/ccukrdXF.s:479    .text:0000000000000258 .L13
     /tmp/ccukrdXF.s:497    .text:0000000000000270 .L12
     /tmp/ccukrdXF.s:515    .text:0000000000000288 .L11
     /tmp/ccukrdXF.s:562    .text:00000000000002d0 .L10
     /tmp/ccukrdXF.s:578    .text:00000000000002e0 .L8
     /tmp/ccukrdXF.s:3212   .debug_abbrev:0000000000000000 .Ldebug_abbrev0
     /tmp/ccukrdXF.s:5187   .debug_str:0000000000000aea .LASF231
     /tmp/ccukrdXF.s:5069   .debug_str:0000000000000784 .LASF232
     /tmp/ccukrdXF.s:5135   .debug_str:000000000000097a .LASF233
     /tmp/ccukrdXF.s:4799   .debug_ranges:0000000000000000 .Ldebug_ranges0
     /tmp/ccukrdXF.s:4811   .debug_line:0000000000000000 .Ldebug_line0
     /tmp/ccukrdXF.s:5097   .debug_str:0000000000000856 .LASF3
     /tmp/ccukrdXF.s:4961   .debug_str:000000000000047c .LASF0
     /tmp/ccukrdXF.s:4993   .debug_str:0000000000000551 .LASF1
     /tmp/ccukrdXF.s:5113   .debug_str:00000000000008d0 .LASF2
     /tmp/ccukrdXF.s:4911   .debug_str:000000000000030c .LASF4
     /tmp/ccukrdXF.s:5125   .debug_str:0000000000000936 .LASF5
     /tmp/ccukrdXF.s:4975   .debug_str:00000000000004c6 .LASF6
     /tmp/ccukrdXF.s:4825   .debug_str:0000000000000064 .LASF7
     /tmp/ccukrdXF.s:5077   .debug_str:00000000000007b7 .LASF8
     /tmp/ccukrdXF.s:5067   .debug_str:0000000000000771 .LASF9
     /tmp/ccukrdXF.s:4983   .debug_str:0000000000000511 .LASF10
     /tmp/ccukrdXF.s:4933   .debug_str:00000000000003b0 .LASF11
     /tmp/ccukrdXF.s:4943   .debug_str:00000000000003ff .LASF12
     /tmp/ccukrdXF.s:4859   .debug_str:0000000000000162 .LASF13
     /tmp/ccukrdXF.s:4921   .debug_str:000000000000036a .LASF14
     /tmp/ccukrdXF.s:4875   .debug_str:00000000000001ec .LASF15
     /tmp/ccukrdXF.s:4857   .debug_str:0000000000000152 .LASF16
     /tmp/ccukrdXF.s:5157   .debug_str:0000000000000a2e .LASF17
     /tmp/ccukrdXF.s:4907   .debug_str:00000000000002db .LASF18
     /tmp/ccukrdXF.s:5143   .debug_str:00000000000009b7 .LASF19
     /tmp/ccukrdXF.s:5063   .debug_str:0000000000000743 .LASF42
     /tmp/ccukrdXF.s:5059   .debug_str:000000000000072f .LASF44
     /tmp/ccukrdXF.s:5075   .debug_str:00000000000007b1 .LASF20
     /tmp/ccukrdXF.s:5265   .debug_str:0000000000000dd3 .LASF21
     /tmp/ccukrdXF.s:5101   .debug_str:000000000000087c .LASF22
     /tmp/ccukrdXF.s:5213   .debug_str:0000000000000c7b .LASF23
     /tmp/ccukrdXF.s:5011   .debug_str:00000000000005a8 .LASF24
     /tmp/ccukrdXF.s:5083   .debug_str:00000000000007d0 .LASF28
     /tmp/ccukrdXF.s:4861   .debug_str:0000000000000171 .LASF25
     /tmp/ccukrdXF.s:4839   .debug_str:00000000000000d2 .LASF26
     /tmp/ccukrdXF.s:4991   .debug_str:000000000000054c .LASF27
     /tmp/ccukrdXF.s:4899   .debug_str:00000000000002ac .LASF29
     /tmp/ccukrdXF.s:5095   .debug_str:000000000000084e .LASF30
     /tmp/ccukrdXF.s:5029   .debug_str:0000000000000642 .LASF31
     /tmp/ccukrdXF.s:5253   .debug_str:0000000000000d6c .LASF32
     /tmp/ccukrdXF.s:5195   .debug_str:0000000000000bd9 .LASF34
     /tmp/ccukrdXF.s:4927   .debug_str:0000000000000396 .LASF33
     /tmp/ccukrdXF.s:5055   .debug_str:000000000000070c .LASF35
     /tmp/ccukrdXF.s:4843   .debug_str:00000000000000e2 .LASF36
     /tmp/ccukrdXF.s:5089   .debug_str:00000000000007f9 .LASF37
     /tmp/ccukrdXF.s:5251   .debug_str:0000000000000d58 .LASF49
     /tmp/ccukrdXF.s:5021   .debug_str:00000000000005e1 .LASF51
     /tmp/ccukrdXF.s:4837   .debug_str:00000000000000b9 .LASF58
     /tmp/ccukrdXF.s:5103   .debug_str:0000000000000883 .LASF38
GAS LISTING /tmp/ccukrdXF.s 			page 35


     /tmp/ccukrdXF.s:5225   .debug_str:0000000000000cb0 .LASF39
     /tmp/ccukrdXF.s:4957   .debug_str:000000000000046a .LASF40
     /tmp/ccukrdXF.s:4971   .debug_str:00000000000004ae .LASF86
     /tmp/ccukrdXF.s:5155   .debug_str:00000000000009f9 .LASF88
     /tmp/ccukrdXF.s:5013   .debug_str:00000000000005b2 .LASF41
     /tmp/ccukrdXF.s:5241   .debug_str:0000000000000d11 .LASF43
     /tmp/ccukrdXF.s:5093   .debug_str:0000000000000843 .LASF45
     /tmp/ccukrdXF.s:5001   .debug_str:000000000000057e .LASF46
     /tmp/ccukrdXF.s:4831   .debug_str:0000000000000089 .LASF47
     /tmp/ccukrdXF.s:5255   .debug_str:0000000000000d74 .LASF48
     /tmp/ccukrdXF.s:4949   .debug_str:000000000000042a .LASF50
     /tmp/ccukrdXF.s:5039   .debug_str:000000000000067f .LASF52
     /tmp/ccukrdXF.s:5133   .debug_str:000000000000096c .LASF53
     /tmp/ccukrdXF.s:4909   .debug_str:00000000000002f1 .LASF54
     /tmp/ccukrdXF.s:4965   .debug_str:0000000000000493 .LASF55
     /tmp/ccukrdXF.s:5227   .debug_str:0000000000000cbc .LASF56
     /tmp/ccukrdXF.s:4997   .debug_str:000000000000056f .LASF60
     /tmp/ccukrdXF.s:5205   .debug_str:0000000000000c34 .LASF62
     /tmp/ccukrdXF.s:5109   .debug_str:00000000000008bc .LASF57
     /tmp/ccukrdXF.s:5051   .debug_str:00000000000006ec .LASF59
     /tmp/ccukrdXF.s:5085   .debug_str:00000000000007df .LASF61
     /tmp/ccukrdXF.s:5087   .debug_str:00000000000007e6 .LASF63
     /tmp/ccukrdXF.s:5037   .debug_str:0000000000000678 .LASF64
     /tmp/ccukrdXF.s:4985   .debug_str:0000000000000524 .LASF65
     /tmp/ccukrdXF.s:5027   .debug_str:000000000000063a .LASF66
     /tmp/ccukrdXF.s:5191   .debug_str:0000000000000bbb .LASF67
     /tmp/ccukrdXF.s:5031   .debug_str:0000000000000655 .LASF68
     /tmp/ccukrdXF.s:5049   .debug_str:00000000000006d8 .LASF69
     /tmp/ccukrdXF.s:5153   .debug_str:00000000000009f2 .LASF70
     /tmp/ccukrdXF.s:5129   .debug_str:0000000000000952 .LASF71
     /tmp/ccukrdXF.s:5131   .debug_str:0000000000000965 .LASF72
     /tmp/ccukrdXF.s:4863   .debug_str:0000000000000176 .LASF73
     /tmp/ccukrdXF.s:4903   .debug_str:00000000000002c8 .LASF74
     /tmp/ccukrdXF.s:4955   .debug_str:0000000000000458 .LASF75
     /tmp/ccukrdXF.s:4967   .debug_str:00000000000004a0 .LASF76
     /tmp/ccukrdXF.s:4889   .debug_str:0000000000000276 .LASF77
     /tmp/ccukrdXF.s:4827   .debug_str:000000000000006b .LASF78
     /tmp/ccukrdXF.s:5117   .debug_str:00000000000008e8 .LASF79
     /tmp/ccukrdXF.s:5111   .debug_str:00000000000008c5 .LASF80
     /tmp/ccukrdXF.s:5279   .debug_str:0000000000000e41 .LASF81
     /tmp/ccukrdXF.s:5243   .debug_str:0000000000000d17 .LASF82
     /tmp/ccukrdXF.s:5257   .debug_str:0000000000000d7d .LASF83
     /tmp/ccukrdXF.s:5235   .debug_str:0000000000000ce9 .LASF84
     /tmp/ccukrdXF.s:5019   .debug_str:00000000000005cb .LASF85
     /tmp/ccukrdXF.s:5197   .debug_str:0000000000000c04 .LASF87
     /tmp/ccukrdXF.s:4881   .debug_str:000000000000022c .LASF89
     /tmp/ccukrdXF.s:5233   .debug_str:0000000000000ce0 .LASF90
     /tmp/ccukrdXF.s:5169   .debug_str:0000000000000a7d .LASF157
     /tmp/ccukrdXF.s:5189   .debug_str:0000000000000bae .LASF91
     /tmp/ccukrdXF.s:5249   .debug_str:0000000000000d36 .LASF92
     /tmp/ccukrdXF.s:5057   .debug_str:000000000000072a .LASF234
     /tmp/ccukrdXF.s:5269   .debug_str:0000000000000df3 .LASF93
     /tmp/ccukrdXF.s:4977   .debug_str:00000000000004d8 .LASF94
     /tmp/ccukrdXF.s:5171   .debug_str:0000000000000a85 .LASF97
     /tmp/ccukrdXF.s:5163   .debug_str:0000000000000a5b .LASF99
     /tmp/ccukrdXF.s:4847   .debug_str:0000000000000101 .LASF95
     /tmp/ccukrdXF.s:5207   .debug_str:0000000000000c49 .LASF96
GAS LISTING /tmp/ccukrdXF.s 			page 36


     /tmp/ccukrdXF.s:5115   .debug_str:00000000000008de .LASF98
     /tmp/ccukrdXF.s:5161   .debug_str:0000000000000a47 .LASF100
     /tmp/ccukrdXF.s:5175   .debug_str:0000000000000a9d .LASF101
     /tmp/ccukrdXF.s:4915   .debug_str:000000000000032e .LASF102
     /tmp/ccukrdXF.s:5017   .debug_str:00000000000005be .LASF103
     /tmp/ccukrdXF.s:5091   .debug_str:000000000000082b .LASF104
     /tmp/ccukrdXF.s:4893   .debug_str:0000000000000291 .LASF105
     /tmp/ccukrdXF.s:5121   .debug_str:0000000000000910 .LASF106
     /tmp/ccukrdXF.s:5211   .debug_str:0000000000000c70 .LASF107
     /tmp/ccukrdXF.s:4923   .debug_str:0000000000000379 .LASF108
     /tmp/ccukrdXF.s:5283   .debug_str:0000000000000e66 .LASF109
     /tmp/ccukrdXF.s:4917   .debug_str:0000000000000344 .LASF110
     /tmp/ccukrdXF.s:4999   .debug_str:0000000000000578 .LASF111
     /tmp/ccukrdXF.s:5107   .debug_str:00000000000008ac .LASF112
     /tmp/ccukrdXF.s:4895   .debug_str:000000000000029e .LASF113
     /tmp/ccukrdXF.s:4865   .debug_str:0000000000000189 .LASF114
     /tmp/ccukrdXF.s:5003   .debug_str:0000000000000587 .LASF115
     /tmp/ccukrdXF.s:4833   .debug_str:0000000000000092 .LASF116
     /tmp/ccukrdXF.s:5183   .debug_str:0000000000000ad2 .LASF117
     /tmp/ccukrdXF.s:4853   .debug_str:0000000000000132 .LASF118
     /tmp/ccukrdXF.s:5281   .debug_str:0000000000000e59 .LASF119
     /tmp/ccukrdXF.s:4939   .debug_str:00000000000003de .LASF120
     /tmp/ccukrdXF.s:4817   .debug_str:0000000000000016 .LASF121
     /tmp/ccukrdXF.s:5047   .debug_str:00000000000006cb .LASF122
     /tmp/ccukrdXF.s:5203   .debug_str:0000000000000c2c .LASF123
     /tmp/ccukrdXF.s:4855   .debug_str:0000000000000143 .LASF124
     /tmp/ccukrdXF.s:5275   .debug_str:0000000000000e1a .LASF125
     /tmp/ccukrdXF.s:5215   .debug_str:0000000000000c80 .LASF126
     /tmp/ccukrdXF.s:5193   .debug_str:0000000000000bcf .LASF127
     /tmp/ccukrdXF.s:5141   .debug_str:00000000000009ae .LASF128
     /tmp/ccukrdXF.s:5079   .debug_str:00000000000007be .LASF129
     /tmp/ccukrdXF.s:4951   .debug_str:0000000000000435 .LASF130
     /tmp/ccukrdXF.s:5185   .debug_str:0000000000000ada .LASF131
     /tmp/ccukrdXF.s:5061   .debug_str:0000000000000737 .LASF132
     /tmp/ccukrdXF.s:4815   .debug_str:0000000000000009 .LASF133
     /tmp/ccukrdXF.s:5123   .debug_str:0000000000000928 .LASF134
     /tmp/ccukrdXF.s:5267   .debug_str:0000000000000ddd .LASF184
     /tmp/ccukrdXF.s:4883   .debug_str:0000000000000244 .LASF162
     /tmp/ccukrdXF.s:4821   .debug_str:000000000000002e .LASF163
     /tmp/ccukrdXF.s:4935   .debug_str:00000000000003c0 .LASF135
     /tmp/ccukrdXF.s:5145   .debug_str:00000000000009cd .LASF136
     /tmp/ccukrdXF.s:5177   .debug_str:0000000000000aa8 .LASF137
     /tmp/ccukrdXF.s:5045   .debug_str:00000000000006b8 .LASF138
     /tmp/ccukrdXF.s:4897   .debug_str:00000000000002a7 .LASF139
     /tmp/ccukrdXF.s:5119   .debug_str:0000000000000900 .LASF140
     /tmp/ccukrdXF.s:5167   .debug_str:0000000000000a76 .LASF141
     /tmp/ccukrdXF.s:4845   .debug_str:00000000000000ef .LASF142
     /tmp/ccukrdXF.s:4891   .debug_str:0000000000000288 .LASF143
     /tmp/ccukrdXF.s:5035   .debug_str:0000000000000662 .LASF144
     /tmp/ccukrdXF.s:4905   .debug_str:00000000000002ce .LASF145
     /tmp/ccukrdXF.s:4823   .debug_str:0000000000000056 .LASF146
     /tmp/ccukrdXF.s:4959   .debug_str:0000000000000476 .LASF147
     /tmp/ccukrdXF.s:5179   .debug_str:0000000000000ab0 .LASF148
     /tmp/ccukrdXF.s:4819   .debug_str:0000000000000026 .LASF149
     /tmp/ccukrdXF.s:4829   .debug_str:0000000000000076 .LASF150
     /tmp/ccukrdXF.s:5245   .debug_str:0000000000000d21 .LASF151
     /tmp/ccukrdXF.s:5209   .debug_str:0000000000000c60 .LASF152
GAS LISTING /tmp/ccukrdXF.s 			page 37


     /tmp/ccukrdXF.s:4887   .debug_str:000000000000026c .LASF153
     /tmp/ccukrdXF.s:4987   .debug_str:0000000000000537 .LASF154
     /tmp/ccukrdXF.s:5223   .debug_str:0000000000000ca8 .LASF155
     /tmp/ccukrdXF.s:5041   .debug_str:0000000000000697 .LASF156
     /tmp/ccukrdXF.s:5231   .debug_str:0000000000000cdb .LASF158
     /tmp/ccukrdXF.s:5199   .debug_str:0000000000000c0f .LASF159
     /tmp/ccukrdXF.s:4869   .debug_str:00000000000001a6 .LASF160
     /tmp/ccukrdXF.s:4885   .debug_str:0000000000000252 .LASF161
     /tmp/ccukrdXF.s:4877   .debug_str:00000000000001fc .LASF164
     /tmp/ccukrdXF.s:4931   .debug_str:00000000000003aa .LASF165
     /tmp/ccukrdXF.s:4989   .debug_str:0000000000000547 .LASF166
     /tmp/ccukrdXF.s:4835   .debug_str:00000000000000a4 .LASF167
     /tmp/ccukrdXF.s:4937   .debug_str:00000000000003c6 .LASF168
     /tmp/ccukrdXF.s:5201   .debug_str:0000000000000c14 .LASF235
     /tmp/ccukrdXF.s:5173   .debug_str:0000000000000a90 .LASF169
     /tmp/ccukrdXF.s:5127   .debug_str:000000000000093d .LASF170
     /tmp/ccukrdXF.s:4969   .debug_str:00000000000004a6 .LASF171
     /tmp/ccukrdXF.s:4913   .debug_str:0000000000000312 .LASF172
     /tmp/ccukrdXF.s:5237   .debug_str:0000000000000cf3 .LASF173
     /tmp/ccukrdXF.s:5025   .debug_str:000000000000061b .LASF174
     /tmp/ccukrdXF.s:4849   .debug_str:000000000000010d .LASF175
     /tmp/ccukrdXF.s:4851   .debug_str:0000000000000116 .LASF176
     /tmp/ccukrdXF.s:4879   .debug_str:0000000000000217 .LASF177
     /tmp/ccukrdXF.s:5239   .debug_str:0000000000000cfb .LASF178
     /tmp/ccukrdXF.s:4981   .debug_str:0000000000000507 .LASF179
     /tmp/ccukrdXF.s:5151   .debug_str:00000000000009ed .LASF180
     /tmp/ccukrdXF.s:5033   .debug_str:000000000000065d .LASF181
     /tmp/ccukrdXF.s:5273   .debug_str:0000000000000e0d .LASF182
     /tmp/ccukrdXF.s:5263   .debug_str:0000000000000dc1 .LASF183
     /tmp/ccukrdXF.s:4953   .debug_str:0000000000000440 .LASF185
     /tmp/ccukrdXF.s:5271   .debug_str:0000000000000df9 .LASF236
     /tmp/ccukrdXF.s:4945   .debug_str:000000000000040d .LASF186
     /tmp/ccukrdXF.s:5099   .debug_str:000000000000085b .LASF187
     /tmp/ccukrdXF.s:4841   .debug_str:00000000000000d7 .LASF188
     /tmp/ccukrdXF.s:5277   .debug_str:0000000000000e20 .LASF189
     /tmp/ccukrdXF.s:5005   .debug_str:000000000000058f .LASF190
     /tmp/ccukrdXF.s:4871   .debug_str:00000000000001c4 .LASF191
     /tmp/ccukrdXF.s:5007   .debug_str:0000000000000594 .LASF192
     /tmp/ccukrdXF.s:5137   .debug_str:0000000000000998 .LASF193
     /tmp/ccukrdXF.s:5043   .debug_str:00000000000006a3 .LASF194
     /tmp/ccukrdXF.s:5071   .debug_str:000000000000079d .LASF195
     /tmp/ccukrdXF.s:5287   .debug_str:0000000000000e85 .LASF196
     /tmp/ccukrdXF.s:5181   .debug_str:0000000000000ac1 .LASF197
     /tmp/ccukrdXF.s:5159   .debug_str:0000000000000a3a .LASF198
     /tmp/ccukrdXF.s:4979   .debug_str:00000000000004ea .LASF199
     /tmp/ccukrdXF.s:5219   .debug_str:0000000000000c91 .LASF200
     /tmp/ccukrdXF.s:5259   .debug_str:0000000000000d93 .LASF201
     /tmp/ccukrdXF.s:4973   .debug_str:00000000000004b8 .LASF202
     /tmp/ccukrdXF.s:5065   .debug_str:0000000000000753 .LASF203
     /tmp/ccukrdXF.s:4947   .debug_str:000000000000041d .LASF204
     /tmp/ccukrdXF.s:5105   .debug_str:000000000000088f .LASF205
     /tmp/ccukrdXF.s:5149   .debug_str:00000000000009d9 .LASF206
     /tmp/ccukrdXF.s:4941   .debug_str:00000000000003ea .LASF207
     /tmp/ccukrdXF.s:4929   .debug_str:000000000000039c .LASF208
     /tmp/ccukrdXF.s:4919   .debug_str:000000000000035d .LASF209
     /tmp/ccukrdXF.s:4813   .debug_str:0000000000000000 .LASF237
     /tmp/ccukrdXF.s:5217   .debug_str:0000000000000c85 .LASF210
GAS LISTING /tmp/ccukrdXF.s 			page 38


     /tmp/ccukrdXF.s:4901   .debug_str:00000000000002bb .LASF211
     /tmp/ccukrdXF.s:4963   .debug_str:0000000000000489 .LASF212
     /tmp/ccukrdXF.s:5081   .debug_str:00000000000007c6 .LASF213
     /tmp/ccukrdXF.s:4995   .debug_str:0000000000000564 .LASF214
     /tmp/ccukrdXF.s:5053   .debug_str:0000000000000701 .LASF215
     /tmp/ccukrdXF.s:5139   .debug_str:000000000000099e .LASF216
     /tmp/ccukrdXF.s:5165   .debug_str:0000000000000a71 .LASF217
     /tmp/ccukrdXF.s:5285   .debug_str:0000000000000e74 .LASF218
     /tmp/ccukrdXF.s:30     .text:0000000000000000 .LFB51
     /tmp/ccukrdXF.s:932    .text:0000000000000588 .LFE51
     /tmp/ccukrdXF.s:5147   .debug_str:00000000000009d2 .LASF219
     /tmp/ccukrdXF.s:4306   .debug_loc:0000000000000000 .LLST0
     /tmp/ccukrdXF.s:5221   .debug_str:0000000000000ca3 .LASF220
     /tmp/ccukrdXF.s:4337   .debug_loc:0000000000000087 .LLST1
     /tmp/ccukrdXF.s:5247   .debug_str:0000000000000d2e .LASF221
     /tmp/ccukrdXF.s:4368   .debug_loc:000000000000010e .LLST2
     /tmp/ccukrdXF.s:4390   .debug_loc:000000000000016e .LLST3
     /tmp/ccukrdXF.s:4412   .debug_loc:00000000000001ce .LLST4
     /tmp/ccukrdXF.s:4434   .debug_loc:000000000000022f .LLST5
     /tmp/ccukrdXF.s:4456   .debug_loc:0000000000000290 .LLST6
     /tmp/ccukrdXF.s:4478   .debug_loc:00000000000002f1 .LLST7
     /tmp/ccukrdXF.s:4500   .debug_loc:0000000000000352 .LLST8
     /tmp/ccukrdXF.s:4522   .debug_loc:00000000000003b3 .LLST9
     /tmp/ccukrdXF.s:4544   .debug_loc:0000000000000414 .LLST10
     /tmp/ccukrdXF.s:738    .text:00000000000003f8 .LBB5
     /tmp/ccukrdXF.s:808    .text:000000000000048c .LBE5
     /tmp/ccukrdXF.s:4737   .debug_loc:000000000000076d .LLST11
     /tmp/ccukrdXF.s:742    .text:0000000000000400 .LVL68
     /tmp/ccukrdXF.s:768    .text:0000000000000448 .LVL71
     /tmp/ccukrdXF.s:776    .text:000000000000045c .LVL72
     /tmp/ccukrdXF.s:785    .text:0000000000000470 .LVL75
     /tmp/ccukrdXF.s:807    .text:000000000000048c .LVL76
     /tmp/ccukrdXF.s:281    .text:0000000000000128 .LVL21
     /tmp/ccukrdXF.s:299    .text:0000000000000140 .LVL23
     /tmp/ccukrdXF.s:324    .text:000000000000016c .LVL25
     /tmp/ccukrdXF.s:334    .text:0000000000000188 .LVL26
     /tmp/ccukrdXF.s:377    .text:00000000000001c4 .LVL28
     /tmp/ccukrdXF.s:381    .text:00000000000001cc .LVL29
     /tmp/ccukrdXF.s:385    .text:00000000000001d4 .LVL30
     /tmp/ccukrdXF.s:394    .text:00000000000001e0 .LVL32
     /tmp/ccukrdXF.s:405    .text:00000000000001f4 .LVL34
     /tmp/ccukrdXF.s:409    .text:00000000000001fc .LVL35
     /tmp/ccukrdXF.s:424    .text:0000000000000218 .LVL37
     /tmp/ccukrdXF.s:468    .text:0000000000000250 .LVL39
     /tmp/ccukrdXF.s:486    .text:0000000000000268 .LVL41
     /tmp/ccukrdXF.s:504    .text:0000000000000280 .LVL43
     /tmp/ccukrdXF.s:554    .text:00000000000002c4 .LVL45
     /tmp/ccukrdXF.s:558    .text:00000000000002cc .LVL46
     /tmp/ccukrdXF.s:567    .text:00000000000002d8 .LVL48
     /tmp/ccukrdXF.s:586    .text:00000000000002f4 .LVL50
     /tmp/ccukrdXF.s:604    .text:000000000000031c .LVL52
     /tmp/ccukrdXF.s:648    .text:0000000000000354 .LVL54
     /tmp/ccukrdXF.s:658    .text:0000000000000364 .LVL56
     /tmp/ccukrdXF.s:668    .text:0000000000000378 .LVL58
     /tmp/ccukrdXF.s:673    .text:0000000000000384 .LVL59
     /tmp/ccukrdXF.s:678    .text:0000000000000394 .LVL60
     /tmp/ccukrdXF.s:683    .text:00000000000003a0 .LVL61
GAS LISTING /tmp/ccukrdXF.s 			page 39


     /tmp/ccukrdXF.s:688    .text:00000000000003b0 .LVL62
     /tmp/ccukrdXF.s:693    .text:00000000000003bc .LVL63
     /tmp/ccukrdXF.s:828    .text:00000000000004ac .LVL78
     /tmp/ccukrdXF.s:842    .text:00000000000004e0 .LVL79
     /tmp/ccukrdXF.s:855    .text:0000000000000508 .LVL80
     /tmp/ccukrdXF.s:877    .text:0000000000000524 .LVL81
     /tmp/ccukrdXF.s:892    .text:0000000000000538 .LVL83
     /tmp/ccukrdXF.s:897    .text:0000000000000548 .LVL84
     /tmp/ccukrdXF.s:902    .text:0000000000000554 .LVL85
     /tmp/ccukrdXF.s:907    .text:0000000000000564 .LVL86
     /tmp/ccukrdXF.s:912    .text:0000000000000570 .LVL87
     /tmp/ccukrdXF.s:1001   .text._ZN3TCB12getTimeSliceEv:0000000000000000 .LFB36
     /tmp/ccukrdXF.s:1022   .text._ZN3TCB12getTimeSliceEv:000000000000001c .LFE36
     /tmp/ccukrdXF.s:4925   .debug_str:0000000000000391 .LASF222
     /tmp/ccukrdXF.s:4766   .debug_loc:00000000000007f1 .LLST12
     /tmp/ccukrdXF.s:972    .text._ZN3TCB11setFinishedEb:0000000000000000 .LFB33
     /tmp/ccukrdXF.s:994    .text._ZN3TCB11setFinishedEb:000000000000001c .LFE33
     /tmp/ccukrdXF.s:5015   .debug_str:00000000000005b7 .LASF223
     /tmp/ccukrdXF.s:939    .text._ZN5Riscv6mc_sipEm:0000000000000000 .LFB10
     /tmp/ccukrdXF.s:965    .text._ZN5Riscv6mc_sipEm:000000000000001c .LFE10
     /tmp/ccukrdXF.s:5229   .debug_str:0000000000000cd6 .LASF224
     /tmp/ccukrdXF.s:5009   .debug_str:000000000000059d .LASF225
     /tmp/ccukrdXF.s:5073   .debug_str:00000000000007a3 .LASF226
     /tmp/ccukrdXF.s:4873   .debug_str:00000000000001d9 .LASF227
     /tmp/ccukrdXF.s:5261   .debug_str:0000000000000db5 .LASF228
     /tmp/ccukrdXF.s:5023   .debug_str:000000000000060d .LASF229
     /tmp/ccukrdXF.s:4867   .debug_str:000000000000019c .LASF230
     /tmp/ccukrdXF.s:53     .text:000000000000001c .LVL0
     /tmp/ccukrdXF.s:60     .text:0000000000000020 .LVL1
     /tmp/ccukrdXF.s:726    .text:00000000000003e4 .LVL66
     /tmp/ccukrdXF.s:733    .text:00000000000003e8 .LVL67
     /tmp/ccukrdXF.s:924    .text:000000000000057c .LVL88
     /tmp/ccukrdXF.s:929    .text:0000000000000584 .LVL89
     /tmp/ccukrdXF.s:63     .text:0000000000000024 .LVL2
     /tmp/ccukrdXF.s:70     .text:0000000000000028 .LVL3
     /tmp/ccukrdXF.s:705    .text:00000000000003d0 .LVL64
     /tmp/ccukrdXF.s:717    .text:00000000000003dc .LVL65
     /tmp/ccukrdXF.s:73     .text:000000000000002c .LVL4
     /tmp/ccukrdXF.s:81     .text:0000000000000030 .LVL5
     /tmp/ccukrdXF.s:84     .text:0000000000000034 .LVL6
     /tmp/ccukrdXF.s:91     .text:0000000000000038 .LVL7
     /tmp/ccukrdXF.s:94     .text:000000000000003c .LVL8
     /tmp/ccukrdXF.s:101    .text:0000000000000040 .LVL9
     /tmp/ccukrdXF.s:104    .text:0000000000000044 .LVL10
     /tmp/ccukrdXF.s:111    .text:0000000000000048 .LVL11
     /tmp/ccukrdXF.s:114    .text:000000000000004c .LVL12
     /tmp/ccukrdXF.s:121    .text:0000000000000050 .LVL13
     /tmp/ccukrdXF.s:124    .text:0000000000000054 .LVL14
     /tmp/ccukrdXF.s:131    .text:0000000000000058 .LVL15
     /tmp/ccukrdXF.s:134    .text:000000000000005c .LVL16
     /tmp/ccukrdXF.s:141    .text:0000000000000060 .LVL17
     /tmp/ccukrdXF.s:144    .text:0000000000000064 .LVL18
     /tmp/ccukrdXF.s:151    .text:0000000000000068 .LVL19
     /tmp/ccukrdXF.s:154    .text:000000000000006c .LVL20
     /tmp/ccukrdXF.s:291    .text:0000000000000130 .LVL22
     /tmp/ccukrdXF.s:309    .text:0000000000000148 .LVL24
     /tmp/ccukrdXF.s:367    .text:00000000000001a8 .LVL27
GAS LISTING /tmp/ccukrdXF.s 			page 40


     /tmp/ccukrdXF.s:388    .text:00000000000001d8 .LVL31
     /tmp/ccukrdXF.s:397    .text:00000000000001e4 .LVL33
     /tmp/ccukrdXF.s:412    .text:0000000000000200 .LVL36
     /tmp/ccukrdXF.s:460    .text:0000000000000240 .LVL38
     /tmp/ccukrdXF.s:478    .text:0000000000000258 .LVL40
     /tmp/ccukrdXF.s:496    .text:0000000000000270 .LVL42
     /tmp/ccukrdXF.s:514    .text:0000000000000288 .LVL44
     /tmp/ccukrdXF.s:561    .text:00000000000002d0 .LVL47
     /tmp/ccukrdXF.s:577    .text:00000000000002e0 .LVL49
     /tmp/ccukrdXF.s:589    .text:00000000000002f8 .LVL51
     /tmp/ccukrdXF.s:640    .text:0000000000000344 .LVL53
     /tmp/ccukrdXF.s:651    .text:0000000000000358 .LVL55
     /tmp/ccukrdXF.s:661    .text:0000000000000368 .LVL57
     /tmp/ccukrdXF.s:814    .text:0000000000000490 .LVL77
     /tmp/ccukrdXF.s:883    .text:0000000000000528 .LVL82
     /tmp/ccukrdXF.s:746    .text:0000000000000408 .LVL69
     /tmp/ccukrdXF.s:766    .text:0000000000000440 .LVL70
     /tmp/ccukrdXF.s:778    .text:0000000000000460 .LVL73
     /tmp/ccukrdXF.s:783    .text:0000000000000468 .LVL74
     /tmp/ccukrdXF.s:1004   .text._ZN3TCB12getTimeSliceEv:0000000000000000 .LVL92
     /tmp/ccukrdXF.s:1014   .text._ZN3TCB12getTimeSliceEv:0000000000000010 .LVL93
     /tmp/ccukrdXF.s:1036   .debug_info:0000000000000000 .Ldebug_info0
     /tmp/ccukrdXF.s:5      .text:0000000000000000 .Ltext0
     /tmp/ccukrdXF.s:1025   .text:0000000000000588 .Letext0

UNDEFINED SYMBOLS
_ZN15MemoryAllocator7kmallocEmNS_7PurposeE
_ZN15MemoryAllocator5kfreeEPv
_ZN3TCB12createThreadEPFvPvES0_Pm
_ZN3TCB5startEPS_
_ZN3TCB7runningE
_ZN3TCB13releaseJoinedEv
_ZN3TCB5yieldEv
_ZN3TCB10threadJoinEPS_
_ZN4KSem7initSemEj
_ZN4KSem8closeSemEPS_
_ZN4KSem4waitEv
_ZN4KSem6signalEv
_ZN9Scheduler10putToSleepEP3TCBm
_ZN8KConsole5kgetcEv
_ZN8KConsole5kputcEc
_ZN9Scheduler3putEP3TCB
_Z9kPrintIntm
_Z11printStringPKc
plic_claim
_ZN8KConsole2srE
_ZN8KConsole2drE
_ZN8KConsole12placeInInputEc
plic_complete
_ZN9Scheduler4wakeEv
_ZN3TCB16runningTimeSliceE
