GAS LISTING /tmp/cc2jq2ng.s 			page 1


   1              		.file	"interruptRoutine.cpp"
   2              		.option pic
   3              		.option norelax
   4              		.text
   5              	.Ltext0:
   6              		.section	.rodata
   7              		.align	3
   8              	.LC0:
   9 0000 0A4E6570 		.string	"\nNepostojeci op code: "
   9      6F73746F 
   9      6A656369 
   9      206F7020 
   9      636F6465 
  10 0017 00       		.align	3
  11              	.LC1:
  12 0018 0A736361 		.string	"\nscause: "
  12      7573653A 
  12      2000
  13 0022 00000000 		.align	3
  13      0000
  14              	.LC2:
  15 0028 0A736570 		.string	"\nsepc: "
  15      633A2000 
  16              		.align	3
  17              	.LC3:
  18 0030 0A477265 		.string	"\nGreska u prekidnoj rutini\n"
  18      736B6120 
  18      75207072 
  18      656B6964 
  18      6E6F6A20 
  19 004c 00000000 		.align	3
  20              	.LC4:
  21 0050 73636175 		.string	"scause: "
  21      73653A20 
  21      00
  22              		.text
  23              		.align	2
  24              		.globl	interruptRoutine
  26              	interruptRoutine:
  27              	.LFB48:
  28              		.file 1 "src/interruptRoutine.cpp"
   1:src/interruptRoutine.cpp **** //
   2:src/interruptRoutine.cpp **** // Created by os on 5/22/23.
   3:src/interruptRoutine.cpp **** //
   4:src/interruptRoutine.cpp **** 
   5:src/interruptRoutine.cpp **** #include "../lib/console.h"
   6:src/interruptRoutine.cpp **** #include "../lib/hw.h"
   7:src/interruptRoutine.cpp **** #include "../h/MemoryAllocator.hpp"
   8:src/interruptRoutine.cpp **** #include "../h/helper.hpp"
   9:src/interruptRoutine.cpp **** #include "../h/Riscv.hpp"
  10:src/interruptRoutine.cpp **** #include "../h/syscall_c.hpp"
  11:src/interruptRoutine.cpp **** #include "../h/TCB.hpp"
  12:src/interruptRoutine.cpp **** #include "../h/Scheduler.hpp"
  13:src/interruptRoutine.cpp **** #include "../h/KSem.hpp"
  14:src/interruptRoutine.cpp **** 
  15:src/interruptRoutine.cpp **** #include "../test/printing.hpp"
  16:src/interruptRoutine.cpp **** void printInteger(int i);
GAS LISTING /tmp/cc2jq2ng.s 			page 2


  17:src/interruptRoutine.cpp **** 
  18:src/interruptRoutine.cpp **** #pragma GCC optimize("O0")
  19:src/interruptRoutine.cpp **** extern "C" void interruptRoutine() {
  29              		.loc 1 19 36
  30              		.cfi_startproc
  31 0000 130101EC 		addi	sp,sp,-320
  32              		.cfi_def_cfa_offset 320
  33 0004 233C1112 		sd	ra,312(sp)
  34 0008 23388112 		sd	s0,304(sp)
  35              		.cfi_offset 1, -8
  36              		.cfi_offset 8, -16
  37 000c 13040114 		addi	s0,sp,320
  38              		.cfi_def_cfa 8, 0
  20:src/interruptRoutine.cpp **** 	uint64 scause, sepc, sstatus;
  39              		.loc 1 20 2
  21:src/interruptRoutine.cpp **** 	__asm__ volatile("csrr %[scause], scause":[scause] "=r"(scause): : "a5", "a0", "a1", "a2", "a3", "
  40              		.loc 1 21 2
  41              		.loc 1 21 116 is_stmt 0
  42              	#APP
  43              	# 21 "src/interruptRoutine.cpp" 1
  22              		__asm__ volatile("csrr %[sepc], sepc":[sepc] "=r"(sepc): : "a5", "a0", "a1", "a2", "a3", "a4", "a6
  44              		csrr t1, scause
  45              	# 0 "" 2
  46              	#NO_APP
  47 0014 233C64FC 		sd	t1,-40(s0)
  48              	.LVL0:
  49              		.loc 1 22 2 is_stmt 1
  50              		.loc 1 22 108 is_stmt 0
  51              	#APP
  52              	# 22 "src/interruptRoutine.cpp" 1
  23              		__asm__ volatile("csrr %[status], sstatus":[status] "=r"(
  53              		csrr t1, sepc
  54              	# 0 "" 2
  55              	.LVL1:
  56              	#NO_APP
  57 001c 233864FC 		sd	t1,-48(s0)
  58              	.LVL2:
  59              		.loc 1 23 2 is_stmt 1
  24:src/interruptRoutine.cpp **** 			sstatus): : "a5", "a0", "a1", "a2", "a3", "a4", "a6", "a7");
  60              		.loc 1 24 63 is_stmt 0
  61              	#APP
  62              	# 24 "src/interruptRoutine.cpp" 1
  25              		uint64 a0, a1, a2, a3, a4, a5, a6, a7;
  63              		csrr t1, sstatus
  64              	# 0 "" 2
  65              	.LVL3:
  66              	#NO_APP
  67 0024 233464FC 		sd	t1,-56(s0)
  68              	.LVL4:
  69              		.loc 1 25 2 is_stmt 1
  26:src/interruptRoutine.cpp **** 	__asm__ volatile("mv %[ax], a0":[ax] "=r"(a0): : "a5", "a0", "a1", "a2", "a3", "a4", "a6", "a7");
  70              		.loc 1 26 2
  71              		.loc 1 26 98 is_stmt 0
  72              	#APP
  73              	# 26 "src/interruptRoutine.cpp" 1
  27              		__asm__ volatile("mv %[ax], a1":[ax] "=r"(a1): : "a5", "a0", "a1", "a2", "a3", "a4", "a6", "a7");
  74              		mv t1, a0
GAS LISTING /tmp/cc2jq2ng.s 			page 3


  75              	# 0 "" 2
  76              	.LVL5:
  77              	#NO_APP
  78 002c 233064FC 		sd	t1,-64(s0)
  79              	.LVL6:
  80              		.loc 1 27 2 is_stmt 1
  81              		.loc 1 27 98 is_stmt 0
  82              	#APP
  83              	# 27 "src/interruptRoutine.cpp" 1
  28              		__asm__ volatile("mv %[ax], a2":[ax] "=r"(a2): : "a5", "a0", "a1", "a2", "a3", "a4", "a6", "a7");
  84              		mv t1, a1
  85              	# 0 "" 2
  86              	.LVL7:
  87              	#NO_APP
  88 0034 233C64FA 		sd	t1,-72(s0)
  89              	.LVL8:
  90              		.loc 1 28 2 is_stmt 1
  91              		.loc 1 28 98 is_stmt 0
  92              	#APP
  93              	# 28 "src/interruptRoutine.cpp" 1
  29              		__asm__ volatile("mv %[ax], a3":[ax] "=r"(a3): : "a5", "a0", "a1", "a2", "a3", "a4", "a6", "a7");
  94              		mv t1, a2
  95              	# 0 "" 2
  96              	.LVL9:
  97              	#NO_APP
  98 003c 233864FA 		sd	t1,-80(s0)
  99              	.LVL10:
 100              		.loc 1 29 2 is_stmt 1
 101              		.loc 1 29 98 is_stmt 0
 102              	#APP
 103              	# 29 "src/interruptRoutine.cpp" 1
  30              		__asm__ volatile("mv %[ax], a4":[ax] "=r"(a4): : "a5", "a0", "a1", "a2", "a3", "a4", "a6", "a7");
 104              		mv t1, a3
 105              	# 0 "" 2
 106              	.LVL11:
 107              	#NO_APP
 108 0044 233464FA 		sd	t1,-88(s0)
 109              	.LVL12:
 110              		.loc 1 30 2 is_stmt 1
 111              		.loc 1 30 98 is_stmt 0
 112              	#APP
 113              	# 30 "src/interruptRoutine.cpp" 1
  31              		__asm__ volatile("mv %[ax], a5":[ax] "=r"(a5): : "a5", "a0", "a1", "a2", "a3", "a4", "a6", "a7");
 114              		mv t1, a4
 115              	# 0 "" 2
 116              	.LVL13:
 117              	#NO_APP
 118 004c 233064FA 		sd	t1,-96(s0)
 119              	.LVL14:
 120              		.loc 1 31 2 is_stmt 1
 121              		.loc 1 31 98 is_stmt 0
 122              	#APP
 123              	# 31 "src/interruptRoutine.cpp" 1
  32              		__asm__ volatile("mv %[ax], a6":[ax] "=r"(a6): : "a5", "a0", "a1", "a2", "a3", "a4", "a6", "a7");
 124              		mv t1, a5
 125              	# 0 "" 2
 126              	.LVL15:
GAS LISTING /tmp/cc2jq2ng.s 			page 4


 127              	#NO_APP
 128 0054 233C64F8 		sd	t1,-104(s0)
 129              	.LVL16:
 130              		.loc 1 32 2 is_stmt 1
 131              		.loc 1 32 98 is_stmt 0
 132              	#APP
 133              	# 32 "src/interruptRoutine.cpp" 1
  33              		__asm__ volatile("mv %[ax], a7":[ax] "=r"(a7): : "a5", "a0", "a1", "a2", "a3", "a4", "a6", "a7");
 134              		mv t1, a6
 135              	# 0 "" 2
 136              	.LVL17:
 137              	#NO_APP
 138 005c 233864F8 		sd	t1,-112(s0)
 139              	.LVL18:
 140              		.loc 1 33 2 is_stmt 1
 141              		.loc 1 33 98 is_stmt 0
 142              	#APP
 143              	# 33 "src/interruptRoutine.cpp" 1
  34              	
 144              		mv t1, a7
 145              	# 0 "" 2
 146              	.LVL19:
 147              	#NO_APP
 148 0064 233464F8 		sd	t1,-120(s0)
 149              	.LVL20:
  35:src/interruptRoutine.cpp **** 	if (scause == 0x09 || scause == 0x08) {
 150              		.loc 1 35 2 is_stmt 1
 151              	.LBB2:
 152 0068 033784FD 		ld	a4,-40(s0)
 153 006c 93079000 		li	a5,9
 154 0070 6308F700 		beq	a4,a5,.L2
 155              		.loc 1 35 21 is_stmt 0 discriminator 1
 156 0074 033784FD 		ld	a4,-40(s0)
 157 0078 93078000 		li	a5,8
 158 007c 631EF750 		bne	a4,a5,.L3
 159              	.L2:
 160              	.LBB3:
  36:src/interruptRoutine.cpp **** 		//prekid zbog poziva ecall
  37:src/interruptRoutine.cpp **** 		uint64 opCode = a0;
 161              		.loc 1 37 3 is_stmt 1
 162              		.loc 1 37 10 is_stmt 0
 163 0080 833704FC 		ld	a5,-64(s0)
 164 0084 2330F4F8 		sd	a5,-128(s0)
 165              	.LVL21:
  38:src/interruptRoutine.cpp **** 		switch (opCode) {
 166              		.loc 1 38 3 is_stmt 1
 167              	.LBB4:
 168 0088 033704F8 		ld	a4,-128(s0)
 169 008c 93071009 		li	a5,145
 170              	.LVL22:
 171 0090 6300F738 		beq	a4,a5,.L4
 172 0094 033704F8 		ld	a4,-128(s0)
 173 0098 93071009 		li	a5,145
 174 009c 63EEE744 		bgtu	a4,a5,.L5
 175 00a0 033704F8 		ld	a4,-128(s0)
 176 00a4 93070009 		li	a5,144
 177 00a8 6308F732 		beq	a4,a5,.L6
GAS LISTING /tmp/cc2jq2ng.s 			page 5


 178 00ac 033704F8 		ld	a4,-128(s0)
 179 00b0 93070009 		li	a5,144
 180 00b4 63E2E744 		bgtu	a4,a5,.L5
 181 00b8 033704F8 		ld	a4,-128(s0)
 182 00bc 93071008 		li	a5,129
 183 00c0 6300F730 		beq	a4,a5,.L7
 184 00c4 033704F8 		ld	a4,-128(s0)
 185 00c8 93071008 		li	a5,129
 186 00cc 63E6E742 		bgtu	a4,a5,.L5
 187 00d0 033704F8 		ld	a4,-128(s0)
 188 00d4 93072004 		li	a5,66
 189 00d8 63E2E704 		bgtu	a4,a5,.L8
 190 00dc 833704F8 		ld	a5,-128(s0)
 191 00e0 638C0740 		beqz	a5,.L5
 192 00e4 033704F8 		ld	a4,-128(s0)
 193 00e8 93072004 		li	a5,66
 194 00ec 63E6E740 		bgtu	a4,a5,.L5
 195 00f0 833704F8 		ld	a5,-128(s0)
 196 00f4 13972700 		slli	a4,a5,2
 197              	.LVL23:
 198 00f8 97070000 		lla	a5,.L10
 198      93870700 
 199              	.LVL24:
 200 0100 B307F700 		add	a5,a4,a5
 201 0104 83A70700 		lw	a5,0(a5)
 202 0108 1B870700 		sext.w	a4,a5
 203 010c 97070000 		lla	a5,.L10
 203      93870700 
 204 0114 B307F700 		add	a5,a4,a5
 205 0118 67800700 		jr	a5
 206              		.section	.rodata
 207 0059 000000   		.align	2
 208              		.align	2
 209              	.L10:
 210 005c 00000000 		.word	.L5-.L10
 211 0060 00000000 		.word	.L22-.L10
 212 0064 00000000 		.word	.L21-.L10
 213 0068 00000000 		.word	.L5-.L10
 214 006c 00000000 		.word	.L5-.L10
 215 0070 00000000 		.word	.L5-.L10
 216 0074 00000000 		.word	.L5-.L10
 217 0078 00000000 		.word	.L5-.L10
 218 007c 00000000 		.word	.L5-.L10
 219 0080 00000000 		.word	.L5-.L10
 220 0084 00000000 		.word	.L5-.L10
 221 0088 00000000 		.word	.L5-.L10
 222 008c 00000000 		.word	.L5-.L10
 223 0090 00000000 		.word	.L5-.L10
 224 0094 00000000 		.word	.L5-.L10
 225 0098 00000000 		.word	.L5-.L10
 226 009c 00000000 		.word	.L5-.L10
 227 00a0 00000000 		.word	.L20-.L10
 228 00a4 00000000 		.word	.L19-.L10
 229 00a8 00000000 		.word	.L18-.L10
 230 00ac 00000000 		.word	.L17-.L10
 231 00b0 00000000 		.word	.L5-.L10
 232 00b4 00000000 		.word	.L5-.L10
GAS LISTING /tmp/cc2jq2ng.s 			page 6


 233 00b8 00000000 		.word	.L5-.L10
 234 00bc 00000000 		.word	.L5-.L10
 235 00c0 00000000 		.word	.L5-.L10
 236 00c4 00000000 		.word	.L5-.L10
 237 00c8 00000000 		.word	.L5-.L10
 238 00cc 00000000 		.word	.L5-.L10
 239 00d0 00000000 		.word	.L5-.L10
 240 00d4 00000000 		.word	.L5-.L10
 241 00d8 00000000 		.word	.L5-.L10
 242 00dc 00000000 		.word	.L5-.L10
 243 00e0 00000000 		.word	.L16-.L10
 244 00e4 00000000 		.word	.L15-.L10
 245 00e8 00000000 		.word	.L14-.L10
 246 00ec 00000000 		.word	.L13-.L10
 247 00f0 00000000 		.word	.L5-.L10
 248 00f4 00000000 		.word	.L5-.L10
 249 00f8 00000000 		.word	.L5-.L10
 250 00fc 00000000 		.word	.L5-.L10
 251 0100 00000000 		.word	.L5-.L10
 252 0104 00000000 		.word	.L5-.L10
 253 0108 00000000 		.word	.L5-.L10
 254 010c 00000000 		.word	.L5-.L10
 255 0110 00000000 		.word	.L5-.L10
 256 0114 00000000 		.word	.L5-.L10
 257 0118 00000000 		.word	.L5-.L10
 258 011c 00000000 		.word	.L5-.L10
 259 0120 00000000 		.word	.L12-.L10
 260 0124 00000000 		.word	.L5-.L10
 261 0128 00000000 		.word	.L5-.L10
 262 012c 00000000 		.word	.L5-.L10
 263 0130 00000000 		.word	.L5-.L10
 264 0134 00000000 		.word	.L5-.L10
 265 0138 00000000 		.word	.L5-.L10
 266 013c 00000000 		.word	.L5-.L10
 267 0140 00000000 		.word	.L5-.L10
 268 0144 00000000 		.word	.L5-.L10
 269 0148 00000000 		.word	.L5-.L10
 270 014c 00000000 		.word	.L5-.L10
 271 0150 00000000 		.word	.L5-.L10
 272 0154 00000000 		.word	.L5-.L10
 273 0158 00000000 		.word	.L5-.L10
 274 015c 00000000 		.word	.L5-.L10
 275 0160 00000000 		.word	.L11-.L10
 276 0164 00000000 		.word	.L9-.L10
 277              		.text
 278              	.LVL25:
 279              	.L8:
 280 011c 033704F8 		ld	a4,-128(s0)
 281              	.LVL26:
 282 0120 93070008 		li	a5,128
 283 0124 630EF722 		beq	a4,a5,.L23
 284 0128 6F00003D 		j	.L5
 285              	.L22:
 286              	.LBB5:
  39:src/interruptRoutine.cpp **** 			case 0x01:
 287              		.loc 1 39 4
  40:src/interruptRoutine.cpp **** 				//mem_alloc
GAS LISTING /tmp/cc2jq2ng.s 			page 7


  41:src/interruptRoutine.cpp **** 				size_t size;
 288              		.loc 1 41 5
  42:src/interruptRoutine.cpp **** 				size = (size_t)a1;
 289              		.loc 1 42 5
 290              		.loc 1 42 10 is_stmt 0
 291 012c 833784FB 		ld	a5,-72(s0)
 292 0130 233CF4EC 		sd	a5,-296(s0)
 293              	.LVL27:
  43:src/interruptRoutine.cpp **** 				//__asm__ volatile("mv %[size], a1":[size] "=r"(size));
  44:src/interruptRoutine.cpp **** 				size = size * MEM_BLOCK_SIZE;
 294              		.loc 1 44 5 is_stmt 1
 295              		.loc 1 44 10 is_stmt 0
 296 0134 833784ED 		ld	a5,-296(s0)
 297 0138 93976700 		slli	a5,a5,6
 298              	.LVL28:
 299 013c 233CF4EC 		sd	a5,-296(s0)
 300              	.LVL29:
  45:src/interruptRoutine.cpp **** 				MemoryAllocator::kmalloc(size);
 301              		.loc 1 45 5 is_stmt 1
 302              		.loc 1 45 29 is_stmt 0
 303 0140 93053000 		li	a1,3
 304 0144 033584ED 		ld	a0,-296(s0)
 305 0148 97000000 		call	_ZN15MemoryAllocator7kmallocEmNS_7PurposeE@plt
 305      E7800000 
 306              	.LVL30:
  46:src/interruptRoutine.cpp **** 				__asm__ volatile("sd a0, 80(s0)");
 307              		.loc 1 46 5 is_stmt 1
 308              		.loc 1 46 38 is_stmt 0
 309              	#APP
 310              	# 46 "src/interruptRoutine.cpp" 1
  47              					break;
 311              		sd a0, 80(s0)
 312              	# 0 "" 2
 313              		.loc 1 47 5 is_stmt 1
 314              	#NO_APP
 315 0154 6F008042 		j	.L24
 316              	.LVL31:
 317              	.L21:
  48:src/interruptRoutine.cpp **** 			case 0x02:
 318              		.loc 1 48 4
  49:src/interruptRoutine.cpp **** 				//mem_free
  50:src/interruptRoutine.cpp **** 				void* ptr;
 319              		.loc 1 50 5
  51:src/interruptRoutine.cpp **** 				ptr = (void*)a1;
 320              		.loc 1 51 5
 321              		.loc 1 51 9 is_stmt 0
 322 0158 833784FB 		ld	a5,-72(s0)
 323 015c 2330F4EE 		sd	a5,-288(s0)
 324              	.LVL32:
  52:src/interruptRoutine.cpp **** 				//__asm__ volatile("mv %[ptr], a1" :[ptr]"=r"(ptr));
  53:src/interruptRoutine.cpp **** 				MemoryAllocator::kfree(ptr);
 325              		.loc 1 53 5 is_stmt 1
 326              		.loc 1 53 27 is_stmt 0
 327 0160 033504EE 		ld	a0,-288(s0)
 328 0164 97000000 		call	_ZN15MemoryAllocator5kfreeEPv@plt
 328      E7800000 
 329              	.LVL33:
GAS LISTING /tmp/cc2jq2ng.s 			page 8


  54:src/interruptRoutine.cpp **** 				__asm__ volatile("sd a0, 80(s0)");
 330              		.loc 1 54 5 is_stmt 1
 331              		.loc 1 54 38 is_stmt 0
 332              	#APP
 333              	# 54 "src/interruptRoutine.cpp" 1
  55              					break;
 334              		sd a0, 80(s0)
 335              	# 0 "" 2
 336              		.loc 1 55 5 is_stmt 1
 337              	#NO_APP
 338 0170 6F00C040 		j	.L24
 339              	.LVL34:
 340              	.L20:
  56:src/interruptRoutine.cpp **** 			case 0x11:
 341              		.loc 1 56 4
  57:src/interruptRoutine.cpp **** 				//thread_create
  58:src/interruptRoutine.cpp **** 				thread_t* handle;
 342              		.loc 1 58 5
  59:src/interruptRoutine.cpp **** 				handle = (thread_t*)a1;
 343              		.loc 1 59 5
 344              		.loc 1 59 12 is_stmt 0
 345 0174 833784FB 		ld	a5,-72(s0)
 346 0178 2330F4F0 		sd	a5,-256(s0)
 347              	.LVL35:
  60:src/interruptRoutine.cpp **** 				void (* function)(void*);
 348              		.loc 1 60 5 is_stmt 1
  61:src/interruptRoutine.cpp **** 				function = (void (*)(void*))a2;
 349              		.loc 1 61 5
 350              		.loc 1 61 14 is_stmt 0
 351 017c 833704FB 		ld	a5,-80(s0)
 352              	.LVL36:
 353 0180 233CF4EE 		sd	a5,-264(s0)
 354              	.LVL37:
  62:src/interruptRoutine.cpp **** 				void* args;
 355              		.loc 1 62 5 is_stmt 1
  63:src/interruptRoutine.cpp **** 				args = (void*)a3;
 356              		.loc 1 63 5
 357              		.loc 1 63 10 is_stmt 0
 358 0184 833784FA 		ld	a5,-88(s0)
 359              	.LVL38:
 360 0188 2338F4EE 		sd	a5,-272(s0)
 361              	.LVL39:
  64:src/interruptRoutine.cpp **** 				uint64* sp;
 362              		.loc 1 64 5 is_stmt 1
  65:src/interruptRoutine.cpp **** 				sp = (uint64*)a4;
 363              		.loc 1 65 5
 364              		.loc 1 65 8 is_stmt 0
 365 018c 833704FA 		ld	a5,-96(s0)
 366              	.LVL40:
 367 0190 2334F4EE 		sd	a5,-280(s0)
 368              	.LVL41:
  66:src/interruptRoutine.cpp **** 
  67:src/interruptRoutine.cpp **** 				*handle = TCB::createThread(function, args, sp);
 369              		.loc 1 67 5 is_stmt 1
 370              		.loc 1 67 32 is_stmt 0
 371 0194 033684EE 		ld	a2,-280(s0)
 372 0198 833504EF 		ld	a1,-272(s0)
GAS LISTING /tmp/cc2jq2ng.s 			page 9


 373 019c 033584EF 		ld	a0,-264(s0)
 374 01a0 97000000 		call	_ZN3TCB12createThreadEPFvPvES0_Pm@plt
 374      E7800000 
 375              	.LVL42:
 376 01a8 13070500 		mv	a4,a0
 377              		.loc 1 67 13
 378 01ac 833704F0 		ld	a5,-256(s0)
 379 01b0 23B0E700 		sd	a4,0(a5)
  68:src/interruptRoutine.cpp **** 				TCB::start(*handle);
 380              		.loc 1 68 5 is_stmt 1
 381              		.loc 1 68 15 is_stmt 0
 382 01b4 833704F0 		ld	a5,-256(s0)
 383 01b8 83B70700 		ld	a5,0(a5)
 384 01bc 13850700 		mv	a0,a5
 385 01c0 97000000 		call	_ZN3TCB5startEPS_@plt
 385      E7800000 
 386              	.LVL43:
  69:src/interruptRoutine.cpp **** 				if (*handle != nullptr) {
 387              		.loc 1 69 5 is_stmt 1
 388              		.loc 1 69 9 is_stmt 0
 389 01c8 833704F0 		ld	a5,-256(s0)
 390 01cc 83B70700 		ld	a5,0(a5)
 391              		.loc 1 69 5
 392 01d0 63860700 		beqz	a5,.L25
  70:src/interruptRoutine.cpp **** 					__asm__ volatile("li a0, 0");
 393              		.loc 1 70 6 is_stmt 1
 394              		.loc 1 70 34 is_stmt 0
 395              	#APP
 396              	# 70 "src/interruptRoutine.cpp" 1
  71              					} else {
 397              		li a0, 0
 398              	# 0 "" 2
 399              	#NO_APP
 400 01d8 6F008000 		j	.L26
 401              	.L25:
  72:src/interruptRoutine.cpp **** 					__asm__ volatile("li a0, -1");
 402              		.loc 1 72 6 is_stmt 1
 403              		.loc 1 72 35 is_stmt 0
 404              	#APP
 405              	# 72 "src/interruptRoutine.cpp" 1
  73              					}
 406              		li a0, -1
 407              	# 0 "" 2
 408              	#NO_APP
 409              	.L26:
  74:src/interruptRoutine.cpp **** 				__asm__ volatile("sd a0, 80(s0)");
 410              		.loc 1 74 5 is_stmt 1
 411              		.loc 1 74 38 is_stmt 0
 412              	#APP
 413              	# 74 "src/interruptRoutine.cpp" 1
  75              					break;
 414              		sd a0, 80(s0)
 415              	# 0 "" 2
 416              		.loc 1 75 5 is_stmt 1
 417              	#NO_APP
 418 01e4 6F008039 		j	.L24
 419              	.LVL44:
GAS LISTING /tmp/cc2jq2ng.s 			page 10


 420              	.L19:
  76:src/interruptRoutine.cpp **** 			case 0x12:
 421              		.loc 1 76 4
  77:src/interruptRoutine.cpp **** 				//thread_exit
  78:src/interruptRoutine.cpp **** 				TCB::running->setFinished(true);
 422              		.loc 1 78 5
 423              		.loc 1 78 30 is_stmt 0
 424 01e8 97070000 		la	a5,_ZN3TCB7runningE
 424      83B70700 
 425 01f0 83B70700 		ld	a5,0(a5)
 426 01f4 93051000 		li	a1,1
 427 01f8 13850700 		mv	a0,a5
 428 01fc 97000000 		call	_ZN3TCB11setFinishedEb
 428      E7800000 
 429              	.LVL45:
  79:src/interruptRoutine.cpp **** 				TCB::releaseJoined();
 430              		.loc 1 79 5 is_stmt 1
 431              		.loc 1 79 23 is_stmt 0
 432 0204 97000000 		call	_ZN3TCB13releaseJoinedEv@plt
 432      E7800000 
 433              	.LVL46:
  80:src/interruptRoutine.cpp **** 				TCB::yield();
 434              		.loc 1 80 5 is_stmt 1
 435              		.loc 1 80 15 is_stmt 0
 436 020c 97000000 		call	_ZN3TCB5yieldEv@plt
 436      E7800000 
 437              	.LVL47:
  81:src/interruptRoutine.cpp **** 				break;
 438              		.loc 1 81 5 is_stmt 1
 439 0214 6F008036 		j	.L24
 440              	.LVL48:
 441              	.L18:
  82:src/interruptRoutine.cpp **** 			case 0x13:
 442              		.loc 1 82 4
  83:src/interruptRoutine.cpp **** 				//thread_dispatch
  84:src/interruptRoutine.cpp **** 				TCB::yield();
 443              		.loc 1 84 5
 444              		.loc 1 84 15 is_stmt 0
 445 0218 97000000 		call	_ZN3TCB5yieldEv@plt
 445      E7800000 
 446              	.LVL49:
  85:src/interruptRoutine.cpp **** 				break;
 447              		.loc 1 85 5 is_stmt 1
 448 0220 6F00C035 		j	.L24
 449              	.LVL50:
 450              	.L17:
  86:src/interruptRoutine.cpp **** 			case 0x14:
 451              		.loc 1 86 4
  87:src/interruptRoutine.cpp **** 				//thread_join
  88:src/interruptRoutine.cpp **** 				thread_t handleToJoin;
 452              		.loc 1 88 5
  89:src/interruptRoutine.cpp **** 				handleToJoin = (thread_t)a1;
 453              		.loc 1 89 5
 454              		.loc 1 89 18 is_stmt 0
 455 0224 833784FB 		ld	a5,-72(s0)
 456 0228 2334F4F0 		sd	a5,-248(s0)
 457              	.LVL51:
GAS LISTING /tmp/cc2jq2ng.s 			page 11


  90:src/interruptRoutine.cpp **** 				TCB::threadJoin(handleToJoin);
 458              		.loc 1 90 5 is_stmt 1
 459              		.loc 1 90 20 is_stmt 0
 460 022c 033584F0 		ld	a0,-248(s0)
 461 0230 97000000 		call	_ZN3TCB10threadJoinEPS_@plt
 461      E7800000 
 462              	.LVL52:
  91:src/interruptRoutine.cpp **** 				TCB::yield();
 463              		.loc 1 91 5 is_stmt 1
 464              		.loc 1 91 15 is_stmt 0
 465 0238 97000000 		call	_ZN3TCB5yieldEv@plt
 465      E7800000 
 466              	.LVL53:
  92:src/interruptRoutine.cpp **** 				break;
 467              		.loc 1 92 5 is_stmt 1
 468 0240 6F00C033 		j	.L24
 469              	.LVL54:
 470              	.L16:
  93:src/interruptRoutine.cpp **** 			case 0x21:
 471              		.loc 1 93 4
  94:src/interruptRoutine.cpp **** 				//sem_open
  95:src/interruptRoutine.cpp **** 				sem_t* openHandle;
 472              		.loc 1 95 5
  96:src/interruptRoutine.cpp **** 				openHandle = (sem_t*)a1;
 473              		.loc 1 96 5
 474              		.loc 1 96 16 is_stmt 0
 475 0244 833784FB 		ld	a5,-72(s0)
 476 0248 233CF4F0 		sd	a5,-232(s0)
 477              	.LVL55:
  97:src/interruptRoutine.cpp **** 				uint initVal;
 478              		.loc 1 97 5 is_stmt 1
  98:src/interruptRoutine.cpp **** 				initVal = (uint)a2;
 479              		.loc 1 98 5
 480              		.loc 1 98 13 is_stmt 0
 481 024c 833704FB 		ld	a5,-80(s0)
 482              	.LVL56:
 483 0250 232AF4F0 		sw	a5,-236(s0)
 484              	.LVL57:
  99:src/interruptRoutine.cpp **** 				*openHandle = KSem::initSem(initVal);
 485              		.loc 1 99 5 is_stmt 1
 486              		.loc 1 99 32 is_stmt 0
 487 0254 832744F1 		lw	a5,-236(s0)
 488              	.LVL58:
 489 0258 13850700 		mv	a0,a5
 490 025c 97000000 		call	_ZN4KSem7initSemEj@plt
 490      E7800000 
 491              	.LVL59:
 492 0264 13070500 		mv	a4,a0
 493              		.loc 1 99 17
 494 0268 833784F1 		ld	a5,-232(s0)
 495 026c 23B0E700 		sd	a4,0(a5)
 100:src/interruptRoutine.cpp **** 				if (*openHandle != nullptr) {
 496              		.loc 1 100 5 is_stmt 1
 497              		.loc 1 100 9 is_stmt 0
 498 0270 833784F1 		ld	a5,-232(s0)
 499 0274 83B70700 		ld	a5,0(a5)
 500              		.loc 1 100 5
GAS LISTING /tmp/cc2jq2ng.s 			page 12


 501 0278 63860700 		beqz	a5,.L27
 101:src/interruptRoutine.cpp **** 					__asm__ volatile("li a0, 0");
 502              		.loc 1 101 6 is_stmt 1
 503              		.loc 1 101 34 is_stmt 0
 504              	#APP
 505              	# 101 "src/interruptRoutine.cpp" 1
 102              					} else {
 506              		li a0, 0
 507              	# 0 "" 2
 508              	#NO_APP
 509 0280 6F008000 		j	.L28
 510              	.L27:
 103:src/interruptRoutine.cpp **** 					__asm__ volatile("li a0, -1");
 511              		.loc 1 103 6 is_stmt 1
 512              		.loc 1 103 35 is_stmt 0
 513              	#APP
 514              	# 103 "src/interruptRoutine.cpp" 1
 104              					}
 515              		li a0, -1
 516              	# 0 "" 2
 517              	#NO_APP
 518              	.L28:
 105:src/interruptRoutine.cpp **** 				__asm__ volatile("sd a0, 80(s0)");
 519              		.loc 1 105 5 is_stmt 1
 520              		.loc 1 105 38 is_stmt 0
 521              	#APP
 522              	# 105 "src/interruptRoutine.cpp" 1
 106              					break;
 523              		sd a0, 80(s0)
 524              	# 0 "" 2
 525              		.loc 1 106 5 is_stmt 1
 526              	#NO_APP
 527 028c 6F00002F 		j	.L24
 528              	.LVL60:
 529              	.L15:
 107:src/interruptRoutine.cpp **** 			case 0x22:
 530              		.loc 1 107 4
 108:src/interruptRoutine.cpp **** 				//sem_close
 109:src/interruptRoutine.cpp **** 				sem_t closeHandle;
 531              		.loc 1 109 5
 110:src/interruptRoutine.cpp **** 				closeHandle = (sem_t)a1;
 532              		.loc 1 110 5
 533              		.loc 1 110 17 is_stmt 0
 534 0290 833784FB 		ld	a5,-72(s0)
 535 0294 2330F4F2 		sd	a5,-224(s0)
 536              	.LVL61:
 111:src/interruptRoutine.cpp **** 				KSem::closeSem(closeHandle);
 537              		.loc 1 111 5 is_stmt 1
 538              		.loc 1 111 19 is_stmt 0
 539 0298 033504F2 		ld	a0,-224(s0)
 540 029c 97000000 		call	_ZN4KSem8closeSemEPS_@plt
 540      E7800000 
 541              	.LVL62:
 112:src/interruptRoutine.cpp **** 				__asm__ volatile("sd a0, 80(s0)");
 542              		.loc 1 112 5 is_stmt 1
 543              		.loc 1 112 38 is_stmt 0
 544              	#APP
GAS LISTING /tmp/cc2jq2ng.s 			page 13


 545              	# 112 "src/interruptRoutine.cpp" 1
 113              					break;
 546              		sd a0, 80(s0)
 547              	# 0 "" 2
 548              		.loc 1 113 5 is_stmt 1
 549              	#NO_APP
 550 02a8 6F00402D 		j	.L24
 551              	.LVL63:
 552              	.L14:
 114:src/interruptRoutine.cpp **** 			case 0x23:
 553              		.loc 1 114 4
 115:src/interruptRoutine.cpp **** 				//sem_wait
 116:src/interruptRoutine.cpp **** 				sem_t waitHandle;
 554              		.loc 1 116 5
 117:src/interruptRoutine.cpp **** 				waitHandle = (sem_t)a1;
 555              		.loc 1 117 5
 556              		.loc 1 117 16 is_stmt 0
 557 02ac 833784FB 		ld	a5,-72(s0)
 558 02b0 2334F4F2 		sd	a5,-216(s0)
 559              	.LVL64:
 118:src/interruptRoutine.cpp **** 				waitHandle->wait();
 560              		.loc 1 118 5 is_stmt 1
 561              		.loc 1 118 21 is_stmt 0
 562 02b4 033584F2 		ld	a0,-216(s0)
 563 02b8 97000000 		call	_ZN4KSem4waitEv@plt
 563      E7800000 
 564              	.LVL65:
 119:src/interruptRoutine.cpp **** 				__asm__ volatile("sd a0, 80(s0)");
 565              		.loc 1 119 5 is_stmt 1
 566              		.loc 1 119 38 is_stmt 0
 567              	#APP
 568              	# 119 "src/interruptRoutine.cpp" 1
 120              					break;
 569              		sd a0, 80(s0)
 570              	# 0 "" 2
 571              		.loc 1 120 5 is_stmt 1
 572              	#NO_APP
 573 02c4 6F00802B 		j	.L24
 574              	.LVL66:
 575              	.L13:
 121:src/interruptRoutine.cpp **** 			case 0x24:
 576              		.loc 1 121 4
 122:src/interruptRoutine.cpp **** 				//sem_signal
 123:src/interruptRoutine.cpp **** 				sem_t signalHandle;
 577              		.loc 1 123 5
 124:src/interruptRoutine.cpp **** 				signalHandle = (sem_t)a1;
 578              		.loc 1 124 5
 579              		.loc 1 124 18 is_stmt 0
 580 02c8 833784FB 		ld	a5,-72(s0)
 581 02cc 2338F4F2 		sd	a5,-208(s0)
 582              	.LVL67:
 125:src/interruptRoutine.cpp **** 				signalHandle->signal();
 583              		.loc 1 125 5 is_stmt 1
 584              		.loc 1 125 25 is_stmt 0
 585 02d0 033504F3 		ld	a0,-208(s0)
 586 02d4 97000000 		call	_ZN4KSem6signalEv@plt
 586      E7800000 
GAS LISTING /tmp/cc2jq2ng.s 			page 14


 587              	.LVL68:
 126:src/interruptRoutine.cpp **** 				__asm__ volatile("sd a0, 80(s0)");
 588              		.loc 1 126 5 is_stmt 1
 589              		.loc 1 126 38 is_stmt 0
 590              	#APP
 591              	# 126 "src/interruptRoutine.cpp" 1
 127              					break;
 592              		sd a0, 80(s0)
 593              	# 0 "" 2
 594              		.loc 1 127 5 is_stmt 1
 595              	#NO_APP
 596 02e0 6F00C029 		j	.L24
 597              	.LVL69:
 598              	.L12:
 128:src/interruptRoutine.cpp **** 			case 0x31:
 599              		.loc 1 128 4
 129:src/interruptRoutine.cpp **** 				//time_sleep
 130:src/interruptRoutine.cpp **** 				time_t timerPeriods;
 600              		.loc 1 130 5
 131:src/interruptRoutine.cpp **** 				timerPeriods = (time_t)a1;
 601              		.loc 1 131 5
 602              		.loc 1 131 18 is_stmt 0
 603 02e4 833784FB 		ld	a5,-72(s0)
 604 02e8 233CF4F2 		sd	a5,-200(s0)
 605              	.LVL70:
 132:src/interruptRoutine.cpp **** 				if (timerPeriods > 0) {
 606              		.loc 1 132 5 is_stmt 1
 607 02ec 833784F3 		ld	a5,-200(s0)
 608 02f0 63860700 		beqz	a5,.L29
 133:src/interruptRoutine.cpp **** 					__asm__ volatile("li a0, 0");
 609              		.loc 1 133 6
 610              		.loc 1 133 34 is_stmt 0
 611              	#APP
 612              	# 133 "src/interruptRoutine.cpp" 1
 134              					} else {
 613              		li a0, 0
 614              	# 0 "" 2
 615              	#NO_APP
 616 02f8 6F008000 		j	.L30
 617              	.L29:
 135:src/interruptRoutine.cpp **** 					__asm__ volatile("li a0, -1");
 618              		.loc 1 135 6 is_stmt 1
 619              		.loc 1 135 35 is_stmt 0
 620              	#APP
 621              	# 135 "src/interruptRoutine.cpp" 1
 136              					}
 622              		li a0, -1
 623              	# 0 "" 2
 624              	#NO_APP
 625              	.L30:
 137:src/interruptRoutine.cpp **** 				__asm__ volatile("sd a0, 80(s0)");
 626              		.loc 1 137 5 is_stmt 1
 627              		.loc 1 137 38 is_stmt 0
 628              	#APP
 629              	# 137 "src/interruptRoutine.cpp" 1
 138              					if (timerPeriods > 0) {
 630              		sd a0, 80(s0)
GAS LISTING /tmp/cc2jq2ng.s 			page 15


 631              	# 0 "" 2
 632              		.loc 1 138 5 is_stmt 1
 633              	#NO_APP
 634 0304 833784F3 		ld	a5,-200(s0)
 635              	.LVL71:
 636 0308 63800726 		beqz	a5,.L45
 139:src/interruptRoutine.cpp **** 					Scheduler::putToSleep(TCB::running, timerPeriods);
 637              		.loc 1 139 6
 638              		.loc 1 139 27 is_stmt 0
 639 030c 97070000 		la	a5,_ZN3TCB7runningE
 639      83B70700 
 640 0314 83B70700 		ld	a5,0(a5)
 641 0318 833584F3 		ld	a1,-200(s0)
 642 031c 13850700 		mv	a0,a5
 643 0320 97000000 		call	_ZN9Scheduler10putToSleepEP3TCBm@plt
 643      E7800000 
 644              	.LVL72:
 140:src/interruptRoutine.cpp **** 					TCB::yield();
 645              		.loc 1 140 6 is_stmt 1
 646              		.loc 1 140 16 is_stmt 0
 647 0328 97000000 		call	_ZN3TCB5yieldEv@plt
 647      E7800000 
 648              	.LVL73:
 141:src/interruptRoutine.cpp **** 				}
 142:src/interruptRoutine.cpp **** 				break;
 649              		.loc 1 142 5 is_stmt 1
 650 0330 6F008023 		j	.L45
 651              	.LVL74:
 652              	.L11:
 143:src/interruptRoutine.cpp **** 			case 0x41:
 653              		.loc 1 143 4
 144:src/interruptRoutine.cpp **** 				//getc
 145:src/interruptRoutine.cpp **** 				__getc();
 654              		.loc 1 145 5
 655              		.loc 1 145 11 is_stmt 0
 656 0334 97000000 		call	__getc@plt
 656      E7800000 
 657              	.LVL75:
 146:src/interruptRoutine.cpp **** 				__asm__ volatile("sd a0, 80(s0)");
 658              		.loc 1 146 5 is_stmt 1
 659              		.loc 1 146 38 is_stmt 0
 660              	#APP
 661              	# 146 "src/interruptRoutine.cpp" 1
 147              					break;
 662              		sd a0, 80(s0)
 663              	# 0 "" 2
 664              		.loc 1 147 5 is_stmt 1
 665              	#NO_APP
 666 0340 6F00C023 		j	.L24
 667              	.LVL76:
 668              	.L9:
 148:src/interruptRoutine.cpp **** 			case 0x42:
 669              		.loc 1 148 4
 149:src/interruptRoutine.cpp **** 				//putc
 150:src/interruptRoutine.cpp **** 				char c;
 670              		.loc 1 150 5
 151:src/interruptRoutine.cpp **** 				c = (char)a1;
GAS LISTING /tmp/cc2jq2ng.s 			page 16


 671              		.loc 1 151 5
 672              		.loc 1 151 7 is_stmt 0
 673 0344 833784FB 		ld	a5,-72(s0)
 674 0348 A303F4F4 		sb	a5,-185(s0)
 675              	.LVL77:
 152:src/interruptRoutine.cpp **** 				__putc(c);
 676              		.loc 1 152 5 is_stmt 1
 677              		.loc 1 152 11 is_stmt 0
 678 034c 834774F4 		lbu	a5,-185(s0)
 679              	.LVL78:
 680 0350 13850700 		mv	a0,a5
 681 0354 97000000 		call	__putc@plt
 681      E7800000 
 682              	.LVL79:
 153:src/interruptRoutine.cpp **** 				break;
 683              		.loc 1 153 5 is_stmt 1
 684 035c 6F000022 		j	.L24
 685              	.LVL80:
 686              	.L23:
 154:src/interruptRoutine.cpp **** 			case 0x80:
 687              		.loc 1 154 4
 155:src/interruptRoutine.cpp **** 				//alloc thread
 156:src/interruptRoutine.cpp **** 				thread_t* handleAlloc;
 688              		.loc 1 156 5
 157:src/interruptRoutine.cpp **** 				handleAlloc = (thread_t*)a1;
 689              		.loc 1 157 5
 690              		.loc 1 157 17 is_stmt 0
 691 0360 833784FB 		ld	a5,-72(s0)
 692 0364 2330F4F6 		sd	a5,-160(s0)
 693              	.LVL81:
 158:src/interruptRoutine.cpp **** 				void (* foo)(void*);
 694              		.loc 1 158 5 is_stmt 1
 159:src/interruptRoutine.cpp **** 				foo = (void (*)(void*))a2;
 695              		.loc 1 159 5
 696              		.loc 1 159 9 is_stmt 0
 697 0368 833704FB 		ld	a5,-80(s0)
 698              	.LVL82:
 699 036c 233CF4F4 		sd	a5,-168(s0)
 700              	.LVL83:
 160:src/interruptRoutine.cpp **** 				void* argsAlloc;
 701              		.loc 1 160 5 is_stmt 1
 161:src/interruptRoutine.cpp **** 				argsAlloc = (void*)a3;
 702              		.loc 1 161 5
 703              		.loc 1 161 15 is_stmt 0
 704 0370 833784FA 		ld	a5,-88(s0)
 705              	.LVL84:
 706 0374 2338F4F4 		sd	a5,-176(s0)
 707              	.LVL85:
 162:src/interruptRoutine.cpp **** 				uint64* spAlloc;
 708              		.loc 1 162 5 is_stmt 1
 163:src/interruptRoutine.cpp **** 				spAlloc = (uint64*)a4;
 709              		.loc 1 163 5
 710              		.loc 1 163 13 is_stmt 0
 711 0378 833704FA 		ld	a5,-96(s0)
 712              	.LVL86:
 713 037c 2334F4F4 		sd	a5,-184(s0)
 714              	.LVL87:
GAS LISTING /tmp/cc2jq2ng.s 			page 17


 164:src/interruptRoutine.cpp **** 
 165:src/interruptRoutine.cpp **** 				*handleAlloc = TCB::createThread(foo, argsAlloc, spAlloc);
 715              		.loc 1 165 5 is_stmt 1
 716              		.loc 1 165 37 is_stmt 0
 717 0380 033684F4 		ld	a2,-184(s0)
 718 0384 833504F5 		ld	a1,-176(s0)
 719 0388 033584F5 		ld	a0,-168(s0)
 720 038c 97000000 		call	_ZN3TCB12createThreadEPFvPvES0_Pm@plt
 720      E7800000 
 721              	.LVL88:
 722 0394 13070500 		mv	a4,a0
 723              		.loc 1 165 18
 724 0398 833704F6 		ld	a5,-160(s0)
 725 039c 23B0E700 		sd	a4,0(a5)
 166:src/interruptRoutine.cpp **** 				if (*handleAlloc != nullptr) {
 726              		.loc 1 166 5 is_stmt 1
 727              		.loc 1 166 9 is_stmt 0
 728 03a0 833704F6 		ld	a5,-160(s0)
 729 03a4 83B70700 		ld	a5,0(a5)
 730              		.loc 1 166 5
 731 03a8 63860700 		beqz	a5,.L32
 167:src/interruptRoutine.cpp **** 					__asm__ volatile("li a0, 0");
 732              		.loc 1 167 6 is_stmt 1
 733              		.loc 1 167 34 is_stmt 0
 734              	#APP
 735              	# 167 "src/interruptRoutine.cpp" 1
 168              					} else {
 736              		li a0, 0
 737              	# 0 "" 2
 738              	#NO_APP
 739 03b0 6F008000 		j	.L33
 740              	.L32:
 169:src/interruptRoutine.cpp **** 					__asm__ volatile("li a0, -1");
 741              		.loc 1 169 6 is_stmt 1
 742              		.loc 1 169 35 is_stmt 0
 743              	#APP
 744              	# 169 "src/interruptRoutine.cpp" 1
 170              					}
 745              		li a0, -1
 746              	# 0 "" 2
 747              	#NO_APP
 748              	.L33:
 171:src/interruptRoutine.cpp **** 				__asm__ volatile("sd a0, 80(s0)");
 749              		.loc 1 171 5 is_stmt 1
 750              		.loc 1 171 38 is_stmt 0
 751              	#APP
 752              	# 171 "src/interruptRoutine.cpp" 1
 172              					break;
 753              		sd a0, 80(s0)
 754              	# 0 "" 2
 755              		.loc 1 172 5 is_stmt 1
 756              	#NO_APP
 757 03bc 6F00001C 		j	.L24
 758              	.LVL89:
 759              	.L7:
 173:src/interruptRoutine.cpp **** 			case 0x81:
 760              		.loc 1 173 4
GAS LISTING /tmp/cc2jq2ng.s 			page 18


 174:src/interruptRoutine.cpp **** 				//start thread
 175:src/interruptRoutine.cpp **** 				thread_t threadStartHandle;
 761              		.loc 1 175 5
 176:src/interruptRoutine.cpp **** 				threadStartHandle = (thread_t)a1;
 762              		.loc 1 176 5
 763              		.loc 1 176 23 is_stmt 0
 764 03c0 833784FB 		ld	a5,-72(s0)
 765 03c4 2334F4F6 		sd	a5,-152(s0)
 766              	.LVL90:
 177:src/interruptRoutine.cpp **** 				Scheduler::put(threadStartHandle);
 767              		.loc 1 177 5 is_stmt 1
 768              		.loc 1 177 19 is_stmt 0
 769 03c8 033584F6 		ld	a0,-152(s0)
 770 03cc 97000000 		call	_ZN9Scheduler3putEP3TCB@plt
 770      E7800000 
 771              	.LVL91:
 178:src/interruptRoutine.cpp **** 				break;
 772              		.loc 1 178 5 is_stmt 1
 773 03d4 6F00801A 		j	.L24
 774              	.LVL92:
 775              	.L6:
 179:src/interruptRoutine.cpp **** 			case 0x90:
 776              		.loc 1 179 4
 180:src/interruptRoutine.cpp **** 				//printString
 181:src/interruptRoutine.cpp **** 				const char* string;
 777              		.loc 1 181 5
 182:src/interruptRoutine.cpp **** 				string = (const char*)a1;
 778              		.loc 1 182 5
 779              		.loc 1 182 12 is_stmt 0
 780 03d8 833784FB 		ld	a5,-72(s0)
 781 03dc 2334F4FE 		sd	a5,-24(s0)
 782              	.LVL93:
 783              	.L35:
 183:src/interruptRoutine.cpp **** 				while (*string != '\0') {
 784              		.loc 1 183 5 is_stmt 1
 785              		.loc 1 183 20
 786              		.loc 1 183 12 is_stmt 0
 787 03e0 833784FE 		ld	a5,-24(s0)
 788 03e4 83C70700 		lbu	a5,0(a5)
 789              		.loc 1 183 20
 790 03e8 63840718 		beqz	a5,.L46
 184:src/interruptRoutine.cpp **** 					__putc(*string);
 791              		.loc 1 184 6 is_stmt 1
 792              		.loc 1 184 12 is_stmt 0
 793 03ec 833784FE 		ld	a5,-24(s0)
 794 03f0 83C70700 		lbu	a5,0(a5)
 795 03f4 13850700 		mv	a0,a5
 796 03f8 97000000 		call	__putc@plt
 796      E7800000 
 797              	.LVL94:
 185:src/interruptRoutine.cpp **** 					string++;
 798              		.loc 1 185 6 is_stmt 1
 799              		.loc 1 185 12 is_stmt 0
 800 0400 833784FE 		ld	a5,-24(s0)
 801 0404 93871700 		addi	a5,a5,1
 802 0408 2334F4FE 		sd	a5,-24(s0)
 803              	.LVL95:
GAS LISTING /tmp/cc2jq2ng.s 			page 19


 183:src/interruptRoutine.cpp **** 				while (*string != '\0') {
 804              		.loc 1 183 5
 805 040c 6FF05FFD 		j	.L35
 806              	.LVL96:
 807              	.L4:
 186:src/interruptRoutine.cpp **** 				}
 187:src/interruptRoutine.cpp **** 				break;
 188:src/interruptRoutine.cpp **** 			case 0x91:
 808              		.loc 1 188 4 is_stmt 1
 189:src/interruptRoutine.cpp **** 				//printInteger
 190:src/interruptRoutine.cpp **** 				uint64 integer;
 809              		.loc 1 190 5
 191:src/interruptRoutine.cpp **** 				integer = a1;
 810              		.loc 1 191 5
 811              		.loc 1 191 13 is_stmt 0
 812 0410 833784FB 		ld	a5,-72(s0)
 813 0414 233CF4F6 		sd	a5,-136(s0)
 814              	.LVL97:
 192:src/interruptRoutine.cpp **** 				static char digits[] = "0123456789";
 815              		.loc 1 192 5 is_stmt 1
 193:src/interruptRoutine.cpp **** 				char buf[16];
 816              		.loc 1 193 5
 194:src/interruptRoutine.cpp **** 				int i, neg;
 817              		.loc 1 194 5
 195:src/interruptRoutine.cpp **** 				uint x;
 818              		.loc 1 195 5
 196:src/interruptRoutine.cpp **** 
 197:src/interruptRoutine.cpp **** 				neg = 0;
 819              		.loc 1 197 5
 820              		.loc 1 197 9 is_stmt 0
 821 0418 232A04F6 		sw	zero,-140(s0)
 822              	.LVL98:
 198:src/interruptRoutine.cpp **** 				if (integer < 0) {
 823              		.loc 1 198 5 is_stmt 1
 199:src/interruptRoutine.cpp **** 					neg = 1;
 200:src/interruptRoutine.cpp **** 					x = -integer;
 201:src/interruptRoutine.cpp **** 				} else {
 202:src/interruptRoutine.cpp **** 					x = integer;
 824              		.loc 1 202 6
 825              		.loc 1 202 8 is_stmt 0
 826 041c 833784F7 		ld	a5,-136(s0)
 827 0420 2320F4FE 		sw	a5,-32(s0)
 828              	.LVL99:
 203:src/interruptRoutine.cpp **** 				}
 204:src/interruptRoutine.cpp **** 
 205:src/interruptRoutine.cpp **** 				i = 0;
 829              		.loc 1 205 5 is_stmt 1
 830              		.loc 1 205 7 is_stmt 0
 831 0424 232204FE 		sw	zero,-28(s0)
 832              	.LVL100:
 833              	.L37:
 206:src/interruptRoutine.cpp **** 				do {
 834              		.loc 1 206 5 is_stmt 1
 207:src/interruptRoutine.cpp **** 					buf[i++] = digits[x % 10];
 835              		.loc 1 207 6
 836              		.loc 1 207 26 is_stmt 0
 837 0428 032704FE 		lw	a4,-32(s0)
GAS LISTING /tmp/cc2jq2ng.s 			page 20


 838 042c 9307A000 		li	a5,10
 839 0430 BB77F702 		remuw	a5,a4,a5
 840 0434 1B860700 		sext.w	a2,a5
 841              		.loc 1 207 11
 842 0438 832744FE 		lw	a5,-28(s0)
 843 043c 1B871700 		addiw	a4,a5,1
 844 0440 2322E4FE 		sw	a4,-28(s0)
 845              	.LVL101:
 846              		.loc 1 207 30
 847 0444 97060000 		lla	a3,_ZZ16interruptRoutineE6digits
 847      93860600 
 848 044c 13170602 		slli	a4,a2,32
 849 0450 13570702 		srli	a4,a4,32
 850              	.LVL102:
 851 0454 3387E600 		add	a4,a3,a4
 852 0458 03470700 		lbu	a4,0(a4)
 853              		.loc 1 207 15
 854 045c 930604FF 		addi	a3,s0,-16
 855 0460 B387F600 		add	a5,a3,a5
 856 0464 238CE7EC 		sb	a4,-296(a5)
 208:src/interruptRoutine.cpp **** 				} while ((x /= 10) != 0);
 857              		.loc 1 208 24 is_stmt 1
 858              		.loc 1 208 17 is_stmt 0
 859 0468 032704FE 		lw	a4,-32(s0)
 860 046c 9307A000 		li	a5,10
 861 0470 BB57F702 		divuw	a5,a4,a5
 862 0474 2320F4FE 		sw	a5,-32(s0)
 863              	.LVL103:
 864              		.loc 1 208 24
 865 0478 832704FE 		lw	a5,-32(s0)
 866 047c 9B870700 		sext.w	a5,a5
 867              	.LVL104:
 868 0480 B337F000 		snez	a5,a5
 869 0484 93F7F70F 		andi	a5,a5,0xff
 870 0488 63840700 		beqz	a5,.L36
 206:src/interruptRoutine.cpp **** 				do {
 871              		.loc 1 206 5
 872 048c 6FF0DFF9 		j	.L37
 873              	.L36:
 209:src/interruptRoutine.cpp **** 				if (neg) buf[i++] = '-';
 874              		.loc 1 209 5 is_stmt 1
 875 0490 832744F7 		lw	a5,-140(s0)
 876 0494 9B870700 		sext.w	a5,a5
 877 0498 63800702 		beqz	a5,.L40
 878              		.loc 1 209 14 discriminator 1
 879              		.loc 1 209 19 is_stmt 0 discriminator 1
 880 049c 832744FE 		lw	a5,-28(s0)
 881 04a0 1B871700 		addiw	a4,a5,1
 882 04a4 2322E4FE 		sw	a4,-28(s0)
 883              	.LVL105:
 884              		.loc 1 209 23 discriminator 1
 885 04a8 130704FF 		addi	a4,s0,-16
 886              	.LVL106:
 887 04ac B307F700 		add	a5,a4,a5
 888 04b0 1307D002 		li	a4,45
 889 04b4 238CE7EC 		sb	a4,-296(a5)
 890              	.LVL107:
GAS LISTING /tmp/cc2jq2ng.s 			page 21


 891              	.L40:
 210:src/interruptRoutine.cpp **** 
 211:src/interruptRoutine.cpp **** 				while (--i >= 0) {
 892              		.loc 1 211 5 is_stmt 1
 893              		.loc 1 211 16
 894 04b8 832744FE 		lw	a5,-28(s0)
 895 04bc 9B87F7FF 		addiw	a5,a5,-1
 896 04c0 2322F4FE 		sw	a5,-28(s0)
 897              	.LVL108:
 898 04c4 832744FE 		lw	a5,-28(s0)
 899 04c8 93C7F7FF 		not	a5,a5
 900              	.LVL109:
 901 04cc 9BD7F701 		srliw	a5,a5,31
 902 04d0 93F7F70F 		andi	a5,a5,0xff
 903 04d4 6382070A 		beqz	a5,.L47
 212:src/interruptRoutine.cpp **** 					__putc(buf[i]);
 904              		.loc 1 212 6
 905              		.loc 1 212 12 is_stmt 0
 906 04d8 832744FE 		lw	a5,-28(s0)
 907 04dc 130704FF 		addi	a4,s0,-16
 908 04e0 B307F700 		add	a5,a4,a5
 909 04e4 83C787ED 		lbu	a5,-296(a5)
 910 04e8 13850700 		mv	a0,a5
 911 04ec 97000000 		call	__putc@plt
 911      E7800000 
 912              	.LVL110:
 211:src/interruptRoutine.cpp **** 					__putc(buf[i]);
 913              		.loc 1 211 5
 914 04f4 6FF05FFC 		j	.L40
 915              	.LVL111:
 916              	.L5:
 213:src/interruptRoutine.cpp **** 				}
 214:src/interruptRoutine.cpp **** 				break;
 215:src/interruptRoutine.cpp **** 			default:
 917              		.loc 1 215 4 is_stmt 1
 216:src/interruptRoutine.cpp **** 				printString("\nNepostojeci op code: ");
 918              		.loc 1 216 5
 919              		.loc 1 216 16 is_stmt 0
 920 04f8 17050000 		lla	a0,.LC0
 920      13050500 
 921 0500 97000000 		call	_Z11printStringPKc@plt
 921      E7800000 
 922              	.LVL112:
 217:src/interruptRoutine.cpp **** 				printInteger(opCode);
 923              		.loc 1 217 5 is_stmt 1
 924              		.loc 1 217 17 is_stmt 0
 925 0508 833704F8 		ld	a5,-128(s0)
 926 050c 9B870700 		sext.w	a5,a5
 927 0510 13850700 		mv	a0,a5
 928 0514 97000000 		call	_Z12printIntegeri@plt
 928      E7800000 
 929              	.LVL113:
 218:src/interruptRoutine.cpp **** 				printString("\nscause: ");
 930              		.loc 1 218 5 is_stmt 1
 931              		.loc 1 218 16 is_stmt 0
 932 051c 17050000 		lla	a0,.LC1
 932      13050500 
GAS LISTING /tmp/cc2jq2ng.s 			page 22


 933 0524 97000000 		call	_Z11printStringPKc@plt
 933      E7800000 
 934              	.LVL114:
 219:src/interruptRoutine.cpp **** 				printInteger(scause);
 935              		.loc 1 219 5 is_stmt 1
 936              		.loc 1 219 17 is_stmt 0
 937 052c 833784FD 		ld	a5,-40(s0)
 938 0530 9B870700 		sext.w	a5,a5
 939 0534 13850700 		mv	a0,a5
 940 0538 97000000 		call	_Z12printIntegeri@plt
 940      E7800000 
 941              	.LVL115:
 220:src/interruptRoutine.cpp **** 				printString("\nsepc: ");
 942              		.loc 1 220 5 is_stmt 1
 943              		.loc 1 220 16 is_stmt 0
 944 0540 17050000 		lla	a0,.LC2
 944      13050500 
 945 0548 97000000 		call	_Z11printStringPKc@plt
 945      E7800000 
 946              	.LVL116:
 221:src/interruptRoutine.cpp **** 				printInteger(sepc);
 947              		.loc 1 221 5 is_stmt 1
 948              		.loc 1 221 17 is_stmt 0
 949 0550 833704FD 		ld	a5,-48(s0)
 950 0554 9B870700 		sext.w	a5,a5
 951 0558 13850700 		mv	a0,a5
 952 055c 97000000 		call	_Z12printIntegeri@plt
 952      E7800000 
 953              	.LVL117:
 222:src/interruptRoutine.cpp **** 				break;
 954              		.loc 1 222 5 is_stmt 1
 955 0564 6F008001 		j	.L24
 956              	.LVL118:
 957              	.L45:
 142:src/interruptRoutine.cpp **** 			case 0x41:
 958              		.loc 1 142 5 is_stmt 0
 959 0568 13000000 		nop
 960 056c 6F000001 		j	.L24
 961              	.LVL119:
 962              	.L46:
 187:src/interruptRoutine.cpp **** 			case 0x91:
 963              		.loc 1 187 5
 964 0570 13000000 		nop
 965 0574 6F008000 		j	.L24
 966              	.LVL120:
 967              	.L47:
 214:src/interruptRoutine.cpp **** 			default:
 968              		.loc 1 214 5
 969 0578 13000000 		nop
 970              	.LVL121:
 971              	.L24:
 972              	.LBE5:
 973              	.LBE4:
 223:src/interruptRoutine.cpp **** 		}
 224:src/interruptRoutine.cpp **** 		//sepc pokazuje na ecall instrukciju, treba preci na sledecu instrukciju
 225:src/interruptRoutine.cpp **** 		//sepc += 4;
 226:src/interruptRoutine.cpp **** 		__asm__ volatile("addi %[dst], %[src], 0x4":[dst]"=r"(sepc):[src]"r"(
GAS LISTING /tmp/cc2jq2ng.s 			page 23


 974              		.loc 1 226 3 is_stmt 1 discriminator 1
 227:src/interruptRoutine.cpp **** 				sepc):"a5", "a0", "a1", "a2", "a3", "a4", "a6", "a7");
 975              		.loc 1 227 58 is_stmt 0 discriminator 1
 976 057c 033304FD 		ld	t1,-48(s0)
 977              	#APP
 978              	# 227 "src/interruptRoutine.cpp" 1
 228              			__asm__ volatile("csrw sepc, %[sepc]": :[sepc] "r"(sepc):"a5", "a0", "a1", "a2", "a3", "a4", "a6"
 979              		addi t1, t1, 0x4
 980              	# 0 "" 2
 981              	.LVL122:
 982              	#NO_APP
 983 0584 233864FC 		sd	t1,-48(s0)
 984              	.LVL123:
 985              		.loc 1 228 3 is_stmt 1 discriminator 1
 986              		.loc 1 228 107 is_stmt 0 discriminator 1
 987 0588 033304FD 		ld	t1,-48(s0)
 988              	#APP
 989              	# 228 "src/interruptRoutine.cpp" 1
 229              			//Riscv::w_sepc(sepc + 4);
 990              		csrw sepc, t1
 991              	# 0 "" 2
 992              	#NO_APP
 993              	.LBE3:
 994 0590 13000000 		nop
 995              	.LBE2:
 230:src/interruptRoutine.cpp **** 	} else if (scause == (1UL << 63 | 9)) {
 231:src/interruptRoutine.cpp **** 		//spoljasnji hardverski prekid (od konzole)
 232:src/interruptRoutine.cpp **** 		console_handler();
 233:src/interruptRoutine.cpp **** 	} else if (scause == (1UL << 63 | 1)) {
 234:src/interruptRoutine.cpp **** 		//prekid od tajmera
 235:src/interruptRoutine.cpp **** 		//printString("\nPrekid od tajmera\n");
 236:src/interruptRoutine.cpp **** 		Scheduler::wake();
 237:src/interruptRoutine.cpp **** 		TCB::runningTimeSlice++;
 238:src/interruptRoutine.cpp **** 		if (TCB::runningTimeSlice >= TCB::running->getTimeSlice()) {
 239:src/interruptRoutine.cpp **** 			//printString("\nMenjam kontekst\n");
 240:src/interruptRoutine.cpp **** 			TCB::yield();
 241:src/interruptRoutine.cpp **** 			TCB::runningTimeSlice = 0;
 242:src/interruptRoutine.cpp **** 		}
 243:src/interruptRoutine.cpp **** 
 244:src/interruptRoutine.cpp **** 		Riscv::w_sepc(sepc);
 245:src/interruptRoutine.cpp **** 		Riscv::w_sstatus(sstatus);
 246:src/interruptRoutine.cpp **** 		Riscv::mc_sip(Riscv::SIP_SSIP);
 247:src/interruptRoutine.cpp **** 	} else {
 248:src/interruptRoutine.cpp **** 		printString("\nGreska u prekidnoj rutini\n");
 249:src/interruptRoutine.cpp **** 		printString("scause: ");
 250:src/interruptRoutine.cpp **** 		printInteger(scause);
 251:src/interruptRoutine.cpp **** 		printString("\nsepc: ");
 252:src/interruptRoutine.cpp **** 		printInteger(sepc);
 253:src/interruptRoutine.cpp **** 	}
 254:src/interruptRoutine.cpp **** }
 996              		.loc 1 254 1 discriminator 1
 997 0594 6F008012 		j	.L48
 998              	.LVL124:
 999              	.L3:
 1000              	.LBB6:
 230:src/interruptRoutine.cpp **** 	} else if (scause == (1UL << 63 | 9)) {
 1001              		.loc 1 230 9 is_stmt 1
GAS LISTING /tmp/cc2jq2ng.s 			page 24


 1002 0598 033784FD 		ld	a4,-40(s0)
 1003              	.LVL125:
 1004 059c 9307F0FF 		li	a5,-1
 1005 05a0 9397F703 		slli	a5,a5,63
 1006 05a4 93879700 		addi	a5,a5,9
 1007 05a8 6318F700 		bne	a4,a5,.L42
 232:src/interruptRoutine.cpp **** 	} else if (scause == (1UL << 63 | 1)) {
 1008              		.loc 1 232 3
 232:src/interruptRoutine.cpp **** 	} else if (scause == (1UL << 63 | 1)) {
 1009              		.loc 1 232 18 is_stmt 0
 1010 05ac 97000000 		call	console_handler@plt
 1010      E7800000 
 1011              	.LVL126:
 1012              	.LBE6:
 1013              		.loc 1 254 1
 1014 05b4 6F008010 		j	.L48
 1015              	.LVL127:
 1016              	.L42:
 1017              	.LBB7:
 233:src/interruptRoutine.cpp **** 		//prekid od tajmera
 1018              		.loc 1 233 9 is_stmt 1
 1019 05b8 033784FD 		ld	a4,-40(s0)
 1020 05bc 9307F0FF 		li	a5,-1
 1021 05c0 9397F703 		slli	a5,a5,63
 1022 05c4 93871700 		addi	a5,a5,1
 1023 05c8 631EF708 		bne	a4,a5,.L43
 236:src/interruptRoutine.cpp **** 		TCB::runningTimeSlice++;
 1024              		.loc 1 236 3
 236:src/interruptRoutine.cpp **** 		TCB::runningTimeSlice++;
 1025              		.loc 1 236 18 is_stmt 0
 1026 05cc 97000000 		call	_ZN9Scheduler4wakeEv@plt
 1026      E7800000 
 1027              	.LVL128:
 237:src/interruptRoutine.cpp **** 		if (TCB::runningTimeSlice >= TCB::running->getTimeSlice()) {
 1028              		.loc 1 237 3 is_stmt 1
 237:src/interruptRoutine.cpp **** 		if (TCB::runningTimeSlice >= TCB::running->getTimeSlice()) {
 1029              		.loc 1 237 24 is_stmt 0
 1030 05d4 97070000 		la	a5,_ZN3TCB16runningTimeSliceE
 1030      83B70700 
 1031 05dc 83B70700 		ld	a5,0(a5)
 1032 05e0 13871700 		addi	a4,a5,1
 1033 05e4 97070000 		la	a5,_ZN3TCB16runningTimeSliceE
 1033      83B70700 
 1034 05ec 23B0E700 		sd	a4,0(a5)
 238:src/interruptRoutine.cpp **** 			//printString("\nMenjam kontekst\n");
 1035              		.loc 1 238 3 is_stmt 1
 238:src/interruptRoutine.cpp **** 			//printString("\nMenjam kontekst\n");
 1036              		.loc 1 238 58 is_stmt 0
 1037 05f0 97070000 		la	a5,_ZN3TCB7runningE
 1037      83B70700 
 1038 05f8 83B70700 		ld	a5,0(a5)
 1039 05fc 13850700 		mv	a0,a5
 1040 0600 97000000 		call	_ZN3TCB12getTimeSliceEv
 1040      E7800000 
 1041              	.LVL129:
 1042 0608 13070500 		mv	a4,a0
 238:src/interruptRoutine.cpp **** 			//printString("\nMenjam kontekst\n");
GAS LISTING /tmp/cc2jq2ng.s 			page 25


 1043              		.loc 1 238 29
 1044 060c 97070000 		la	a5,_ZN3TCB16runningTimeSliceE
 1044      83B70700 
 1045 0614 83B70700 		ld	a5,0(a5)
 1046 0618 B3B7E700 		sgtu	a5,a4,a5
 1047 061c 93C71700 		xori	a5,a5,1
 1048 0620 93F7F70F 		andi	a5,a5,0xff
 238:src/interruptRoutine.cpp **** 			//printString("\nMenjam kontekst\n");
 1049              		.loc 1 238 3
 1050 0624 638C0700 		beqz	a5,.L44
 240:src/interruptRoutine.cpp **** 			TCB::runningTimeSlice = 0;
 1051              		.loc 1 240 4 is_stmt 1
 240:src/interruptRoutine.cpp **** 			TCB::runningTimeSlice = 0;
 1052              		.loc 1 240 14 is_stmt 0
 1053 0628 97000000 		call	_ZN3TCB5yieldEv@plt
 1053      E7800000 
 1054              	.LVL130:
 241:src/interruptRoutine.cpp **** 		}
 1055              		.loc 1 241 4 is_stmt 1
 241:src/interruptRoutine.cpp **** 		}
 1056              		.loc 1 241 26 is_stmt 0
 1057 0630 97070000 		la	a5,_ZN3TCB16runningTimeSliceE
 1057      83B70700 
 1058 0638 23B00700 		sd	zero,0(a5)
 1059              	.L44:
 244:src/interruptRoutine.cpp **** 		Riscv::w_sstatus(sstatus);
 1060              		.loc 1 244 3 is_stmt 1
 244:src/interruptRoutine.cpp **** 		Riscv::w_sstatus(sstatus);
 1061              		.loc 1 244 16 is_stmt 0
 1062 063c 033504FD 		ld	a0,-48(s0)
 1063 0640 97000000 		call	_ZN5Riscv6w_sepcEm
 1063      E7800000 
 1064              	.LVL131:
 245:src/interruptRoutine.cpp **** 		Riscv::mc_sip(Riscv::SIP_SSIP);
 1065              		.loc 1 245 3 is_stmt 1
 245:src/interruptRoutine.cpp **** 		Riscv::mc_sip(Riscv::SIP_SSIP);
 1066              		.loc 1 245 19 is_stmt 0
 1067 0648 033584FC 		ld	a0,-56(s0)
 1068 064c 97000000 		call	_ZN5Riscv9w_sstatusEm
 1068      E7800000 
 1069              	.LVL132:
 246:src/interruptRoutine.cpp **** 	} else {
 1070              		.loc 1 246 3 is_stmt 1
 246:src/interruptRoutine.cpp **** 	} else {
 1071              		.loc 1 246 16 is_stmt 0
 1072 0654 13052000 		li	a0,2
 1073 0658 97000000 		call	_ZN5Riscv6mc_sipEm
 1073      E7800000 
 1074              	.LVL133:
 1075              	.LBE7:
 1076              		.loc 1 254 1
 1077 0660 6F00C005 		j	.L48
 1078              	.LVL134:
 1079              	.L43:
 1080              	.LBB8:
 248:src/interruptRoutine.cpp **** 		printString("scause: ");
 1081              		.loc 1 248 3 is_stmt 1
GAS LISTING /tmp/cc2jq2ng.s 			page 26


 248:src/interruptRoutine.cpp **** 		printString("scause: ");
 1082              		.loc 1 248 14 is_stmt 0
 1083 0664 17050000 		lla	a0,.LC3
 1083      13050500 
 1084 066c 97000000 		call	_Z11printStringPKc@plt
 1084      E7800000 
 1085              	.LVL135:
 249:src/interruptRoutine.cpp **** 		printInteger(scause);
 1086              		.loc 1 249 3 is_stmt 1
 249:src/interruptRoutine.cpp **** 		printInteger(scause);
 1087              		.loc 1 249 14 is_stmt 0
 1088 0674 17050000 		lla	a0,.LC4
 1088      13050500 
 1089 067c 97000000 		call	_Z11printStringPKc@plt
 1089      E7800000 
 1090              	.LVL136:
 250:src/interruptRoutine.cpp **** 		printString("\nsepc: ");
 1091              		.loc 1 250 3 is_stmt 1
 250:src/interruptRoutine.cpp **** 		printString("\nsepc: ");
 1092              		.loc 1 250 15 is_stmt 0
 1093 0684 833784FD 		ld	a5,-40(s0)
 1094 0688 9B870700 		sext.w	a5,a5
 1095 068c 13850700 		mv	a0,a5
 1096 0690 97000000 		call	_Z12printIntegeri@plt
 1096      E7800000 
 1097              	.LVL137:
 251:src/interruptRoutine.cpp **** 		printInteger(sepc);
 1098              		.loc 1 251 3 is_stmt 1
 251:src/interruptRoutine.cpp **** 		printInteger(sepc);
 1099              		.loc 1 251 14 is_stmt 0
 1100 0698 17050000 		lla	a0,.LC2
 1100      13050500 
 1101 06a0 97000000 		call	_Z11printStringPKc@plt
 1101      E7800000 
 1102              	.LVL138:
 252:src/interruptRoutine.cpp **** 	}
 1103              		.loc 1 252 3 is_stmt 1
 252:src/interruptRoutine.cpp **** 	}
 1104              		.loc 1 252 15 is_stmt 0
 1105 06a8 833704FD 		ld	a5,-48(s0)
 1106 06ac 9B870700 		sext.w	a5,a5
 1107 06b0 13850700 		mv	a0,a5
 1108 06b4 97000000 		call	_Z12printIntegeri@plt
 1108      E7800000 
 1109              	.LVL139:
 1110              	.L48:
 1111              	.LBE8:
 1112              		.loc 1 254 1
 1113 06bc 13000000 		nop
 1114 06c0 83308113 		ld	ra,312(sp)
 1115              		.cfi_restore 1
 1116 06c4 03340113 		ld	s0,304(sp)
 1117              		.cfi_restore 8
 1118              		.cfi_def_cfa 2, 320
 1119              	.LVL140:
 1120 06c8 13010114 		addi	sp,sp,320
 1121              		.cfi_def_cfa_offset 0
GAS LISTING /tmp/cc2jq2ng.s 			page 27


 1122              	.LVL141:
 1123 06cc 67800000 		jr	ra
 1124              		.cfi_endproc
 1125              	.LFE48:
 1127              		.section	.text._ZN5Riscv6w_sepcEm,"axG",@progbits,_ZN5Riscv6w_sepcEm,comdat
 1128              		.align	2
 1129              		.weak	_ZN5Riscv6w_sepcEm
 1131              	_ZN5Riscv6w_sepcEm:
 1132              	.LFB6:
 1133              		.file 2 "src/../h/Riscv.hpp"
   1:src/../h/Riscv.hpp **** //
   2:src/../h/Riscv.hpp **** // Created by os on 5/17/23.
   3:src/../h/Riscv.hpp **** //
   4:src/../h/Riscv.hpp **** 
   5:src/../h/Riscv.hpp **** #ifndef PROJEKAT2023_RISCV_HPP
   6:src/../h/Riscv.hpp **** #define PROJEKAT2023_RISCV_HPP
   7:src/../h/Riscv.hpp **** 
   8:src/../h/Riscv.hpp **** #include "../lib/hw.h"
   9:src/../h/Riscv.hpp **** 
  10:src/../h/Riscv.hpp **** class Riscv {
  11:src/../h/Riscv.hpp **** public:
  12:src/../h/Riscv.hpp **** 
  13:src/../h/Riscv.hpp **** 	static void popSppSpie();
  14:src/../h/Riscv.hpp **** 
  15:src/../h/Riscv.hpp **** 	//stavljanje registara x3-x31 na stek
  16:src/../h/Riscv.hpp **** 	static void pushRegisters();    //implementacija u asm
  17:src/../h/Riscv.hpp **** 
  18:src/../h/Riscv.hpp **** 	//skidanje registara x3-x31 sa steka
  19:src/../h/Riscv.hpp **** 	static void popRegisters();     //implementacija u asm
  20:src/../h/Riscv.hpp **** 
  21:src/../h/Riscv.hpp **** 	//read scause
  22:src/../h/Riscv.hpp **** 	static uint64 r_scause();
  23:src/../h/Riscv.hpp **** 
  24:src/../h/Riscv.hpp **** 	//write scause
  25:src/../h/Riscv.hpp **** 	static void w_scause(uint64 scause);
  26:src/../h/Riscv.hpp **** 
  27:src/../h/Riscv.hpp **** 	//read sepc
  28:src/../h/Riscv.hpp **** 	static uint64 r_sepc();
  29:src/../h/Riscv.hpp **** 
  30:src/../h/Riscv.hpp **** 	//write sepc
  31:src/../h/Riscv.hpp **** 	static void w_sepc(uint64 sepc);
  32:src/../h/Riscv.hpp **** 
  33:src/../h/Riscv.hpp **** 	//read stvec
  34:src/../h/Riscv.hpp **** 	static uint64 r_stvec();
  35:src/../h/Riscv.hpp **** 
  36:src/../h/Riscv.hpp **** 	//write stvec
  37:src/../h/Riscv.hpp **** 	static void w_stvec(uint64 stvec);
  38:src/../h/Riscv.hpp **** 
  39:src/../h/Riscv.hpp **** 	enum BitMaskSip {
  40:src/../h/Riscv.hpp **** 		//postoji zahtev za softverski prekid
  41:src/../h/Riscv.hpp **** 		SIP_SSIP = (1 << 1),
  42:src/../h/Riscv.hpp **** 		//postoji prekid od tajmera
  43:src/../h/Riscv.hpp **** 		SIP_STIP = (1 << 5),
  44:src/../h/Riscv.hpp **** 		//postoji zahtev za spoljasnji hardverski prekid
  45:src/../h/Riscv.hpp **** 		SIP_SEIP = (1 << 9)
  46:src/../h/Riscv.hpp **** 	};
  47:src/../h/Riscv.hpp **** 
GAS LISTING /tmp/cc2jq2ng.s 			page 28


  48:src/../h/Riscv.hpp **** 	//mask set sip
  49:src/../h/Riscv.hpp **** 	static void ms_sip(uint64 mask);
  50:src/../h/Riscv.hpp **** 
  51:src/../h/Riscv.hpp **** 	//mask clear sip
  52:src/../h/Riscv.hpp **** 	static void mc_sip(uint64 mask);
  53:src/../h/Riscv.hpp **** 
  54:src/../h/Riscv.hpp **** 	//read sip
  55:src/../h/Riscv.hpp **** 	static uint64 r_sip();
  56:src/../h/Riscv.hpp **** 
  57:src/../h/Riscv.hpp **** 	//write sip
  58:src/../h/Riscv.hpp **** 	static void w_sip(uint64 sip);
  59:src/../h/Riscv.hpp **** 
  60:src/../h/Riscv.hpp **** 	//kada se pozove sret, SIE dobija vrednost SPIE, SPIE se postavlja na 1,
  61:src/../h/Riscv.hpp **** 	//rezim se postavlja na osnovu SPP bita, SPP se postavlja na 0
  62:src/../h/Riscv.hpp **** 	enum BitMaskSstatus {
  63:src/../h/Riscv.hpp **** 		//1 - dozvoljeni prekidi; 0- nedozvoljeni prekidi; igonrise se u korisnickom rezimu
  64:src/../h/Riscv.hpp **** 		SSTATUS_SIE = (1 << 1),
  65:src/../h/Riscv.hpp **** 		//prethodna vrednost bita SIE
  66:src/../h/Riscv.hpp **** 		SSTATUS_SPIE = (1 << 5),
  67:src/../h/Riscv.hpp **** 		//iz kog rezima se desio skok; 0 - iz korisnickog; 1 - iz sistemskog
  68:src/../h/Riscv.hpp **** 		SSTATUS_SPP = (1 << 8)
  69:src/../h/Riscv.hpp **** 	};
  70:src/../h/Riscv.hpp **** 
  71:src/../h/Riscv.hpp **** 	//mask set sstatus
  72:src/../h/Riscv.hpp **** 	static void ms_sstatus(uint64 mask);
  73:src/../h/Riscv.hpp **** 
  74:src/../h/Riscv.hpp **** 	//mask clear sstatus
  75:src/../h/Riscv.hpp **** 	static void mc_sstatus(uint64 mask);
  76:src/../h/Riscv.hpp **** 
  77:src/../h/Riscv.hpp **** 	//read sstatus
  78:src/../h/Riscv.hpp **** 	static uint64 r_sstatus();
  79:src/../h/Riscv.hpp **** 
  80:src/../h/Riscv.hpp **** 	//write sstatus
  81:src/../h/Riscv.hpp **** 	static void w_sstatus(uint64 sstatus);
  82:src/../h/Riscv.hpp **** 
  83:src/../h/Riscv.hpp **** 	//upisuje kod sistemskog poziva u registar a0
  84:src/../h/Riscv.hpp **** 	static void loadOpCode(uint64 opCode);
  85:src/../h/Riscv.hpp **** 
  86:src/../h/Riscv.hpp **** };
  87:src/../h/Riscv.hpp **** 
  88:src/../h/Riscv.hpp **** inline uint64 Riscv::r_scause() {
  89:src/../h/Riscv.hpp **** 	uint64 volatile scause;
  90:src/../h/Riscv.hpp **** 	__asm__ volatile("csrr %[scause], scause": [scause] "=r"(scause));
  91:src/../h/Riscv.hpp **** 	return scause;
  92:src/../h/Riscv.hpp **** }
  93:src/../h/Riscv.hpp **** 
  94:src/../h/Riscv.hpp **** inline void Riscv::w_scause(uint64 scause) {
  95:src/../h/Riscv.hpp **** 	__asm__ volatile("csrw scause, %[scause]": :[scause] "r"(scause));
  96:src/../h/Riscv.hpp **** }
  97:src/../h/Riscv.hpp **** 
  98:src/../h/Riscv.hpp **** inline uint64 Riscv::r_sepc() {
  99:src/../h/Riscv.hpp **** 	uint64 volatile sepc;
 100:src/../h/Riscv.hpp **** 	__asm__ volatile("csrr %[sepc], sepc": [sepc] "=r"(sepc));
 101:src/../h/Riscv.hpp **** 	return sepc;
 102:src/../h/Riscv.hpp **** }
 103:src/../h/Riscv.hpp **** 
 104:src/../h/Riscv.hpp **** inline void Riscv::w_sepc(uint64 sepc) {
GAS LISTING /tmp/cc2jq2ng.s 			page 29


 1134              		.loc 2 104 40 is_stmt 1
 1135              		.cfi_startproc
 1136              	.LVL142:
 1137 0000 130101FF 		addi	sp,sp,-16
 1138              		.cfi_def_cfa_offset 16
 1139 0004 23348100 		sd	s0,8(sp)
 1140              		.cfi_offset 8, -8
 1141 0008 13040101 		addi	s0,sp,16
 1142              		.cfi_def_cfa 8, 0
 105:src/../h/Riscv.hpp **** 	__asm__ volatile("csrw sepc, %[sepc]": :[sepc] "r"(sepc));
 1143              		.loc 2 105 2
 1144              		.loc 2 105 59 is_stmt 0
 1145              	#APP
 1146              	# 105 "src/../h/Riscv.hpp" 1
 106              	}
 1147              		csrw sepc, a0
 1148              	# 0 "" 2
 1149              		.loc 2 106 1
 1150              	#NO_APP
 1151 0010 03348100 		ld	s0,8(sp)
 1152              		.cfi_restore 8
 1153              		.cfi_def_cfa 2, 16
 1154 0014 13010101 		addi	sp,sp,16
 1155              		.cfi_def_cfa_offset 0
 1156 0018 67800000 		jr	ra
 1157              		.cfi_endproc
 1158              	.LFE6:
 1160              		.section	.text._ZN5Riscv6mc_sipEm,"axG",@progbits,_ZN5Riscv6mc_sipEm,comdat
 1161              		.align	2
 1162              		.weak	_ZN5Riscv6mc_sipEm
 1164              	_ZN5Riscv6mc_sipEm:
 1165              	.LFB10:
 107:src/../h/Riscv.hpp **** 
 108:src/../h/Riscv.hpp **** inline uint64 Riscv::r_stvec() {
 109:src/../h/Riscv.hpp **** 	uint64 volatile stvec;
 110:src/../h/Riscv.hpp **** 	__asm__ volatile("csrr %[stvec], stvec": [stvec] "=r"(stvec));
 111:src/../h/Riscv.hpp **** 	return stvec;
 112:src/../h/Riscv.hpp **** }
 113:src/../h/Riscv.hpp **** 
 114:src/../h/Riscv.hpp **** inline void Riscv::w_stvec(uint64 stvec) {
 115:src/../h/Riscv.hpp **** 	__asm__ volatile("csrw stvec, %[stvec]": :[stvec] "r"(stvec));
 116:src/../h/Riscv.hpp **** }
 117:src/../h/Riscv.hpp **** 
 118:src/../h/Riscv.hpp **** inline void Riscv::ms_sip(uint64 mask) {
 119:src/../h/Riscv.hpp **** 	__asm__ volatile("csrs sip, %[mask]": :[mask] "r"(mask));
 120:src/../h/Riscv.hpp **** }
 121:src/../h/Riscv.hpp **** 
 122:src/../h/Riscv.hpp **** inline void Riscv::mc_sip(uint64 mask) {
 1166              		.loc 2 122 40 is_stmt 1
 1167              		.cfi_startproc
 1168              	.LVL143:
 1169 0000 130101FF 		addi	sp,sp,-16
 1170              		.cfi_def_cfa_offset 16
 1171 0004 23348100 		sd	s0,8(sp)
 1172              		.cfi_offset 8, -8
 1173 0008 13040101 		addi	s0,sp,16
 1174              		.cfi_def_cfa 8, 0
GAS LISTING /tmp/cc2jq2ng.s 			page 30


 123:src/../h/Riscv.hpp **** 	__asm__ volatile("csrc sip, %[mask]": :[mask] "r"(mask));
 1175              		.loc 2 123 2
 1176              		.loc 2 123 58 is_stmt 0
 1177              	#APP
 1178              	# 123 "src/../h/Riscv.hpp" 1
 124              	}
 1179              		csrc sip, a0
 1180              	# 0 "" 2
 1181              		.loc 2 124 1
 1182              	#NO_APP
 1183 0010 03348100 		ld	s0,8(sp)
 1184              		.cfi_restore 8
 1185              		.cfi_def_cfa 2, 16
 1186 0014 13010101 		addi	sp,sp,16
 1187              		.cfi_def_cfa_offset 0
 1188 0018 67800000 		jr	ra
 1189              		.cfi_endproc
 1190              	.LFE10:
 1192              		.section	.text._ZN5Riscv9w_sstatusEm,"axG",@progbits,_ZN5Riscv9w_sstatusEm,comdat
 1193              		.align	2
 1194              		.weak	_ZN5Riscv9w_sstatusEm
 1196              	_ZN5Riscv9w_sstatusEm:
 1197              	.LFB16:
 125:src/../h/Riscv.hpp **** 
 126:src/../h/Riscv.hpp **** inline uint64 Riscv::r_sip() {
 127:src/../h/Riscv.hpp **** 	uint64 volatile sip;
 128:src/../h/Riscv.hpp **** 	__asm__ volatile("csrr %[sip], sip": [sip] "=r"(sip));
 129:src/../h/Riscv.hpp **** 	return sip;
 130:src/../h/Riscv.hpp **** }
 131:src/../h/Riscv.hpp **** 
 132:src/../h/Riscv.hpp **** inline void Riscv::w_sip(uint64 sip) {
 133:src/../h/Riscv.hpp **** 	__asm__ volatile("csrw sip, %[sip]": :[sip] "r"(sip));
 134:src/../h/Riscv.hpp **** }
 135:src/../h/Riscv.hpp **** 
 136:src/../h/Riscv.hpp **** inline void Riscv::ms_sstatus(uint64 mask) {
 137:src/../h/Riscv.hpp **** 	__asm__ volatile("csrs sstatus, %[mask]": :[mask] "r"(mask));
 138:src/../h/Riscv.hpp **** }
 139:src/../h/Riscv.hpp **** 
 140:src/../h/Riscv.hpp **** inline void Riscv::mc_sstatus(uint64 mask) {
 141:src/../h/Riscv.hpp **** 	__asm__ volatile("csrc sstatus, %[mask]": :[mask] "r"(mask));
 142:src/../h/Riscv.hpp **** }
 143:src/../h/Riscv.hpp **** 
 144:src/../h/Riscv.hpp **** inline uint64 Riscv::r_sstatus() {
 145:src/../h/Riscv.hpp **** 	uint64 volatile sstatus;
 146:src/../h/Riscv.hpp **** 	__asm__ volatile("csrr %[sstatus], sstatus": [sstatus] "=r"(sstatus));
 147:src/../h/Riscv.hpp **** 	return sstatus;
 148:src/../h/Riscv.hpp **** }
 149:src/../h/Riscv.hpp **** 
 150:src/../h/Riscv.hpp **** inline void Riscv::w_sstatus(uint64 sstatus) {
 1198              		.loc 2 150 46 is_stmt 1
 1199              		.cfi_startproc
 1200              	.LVL144:
 1201 0000 130101FF 		addi	sp,sp,-16
 1202              		.cfi_def_cfa_offset 16
 1203 0004 23348100 		sd	s0,8(sp)
 1204              		.cfi_offset 8, -8
 1205 0008 13040101 		addi	s0,sp,16
GAS LISTING /tmp/cc2jq2ng.s 			page 31


 1206              		.cfi_def_cfa 8, 0
 151:src/../h/Riscv.hpp **** 	__asm__ volatile("csrw sstatus, %[sstatus]": :[sstatus] "r"(sstatus));
 1207              		.loc 2 151 2
 1208              		.loc 2 151 71 is_stmt 0
 1209              	#APP
 1210              	# 151 "src/../h/Riscv.hpp" 1
 152              	}
 1211              		csrw sstatus, a0
 1212              	# 0 "" 2
 1213              		.loc 2 152 1
 1214              	#NO_APP
 1215 0010 03348100 		ld	s0,8(sp)
 1216              		.cfi_restore 8
 1217              		.cfi_def_cfa 2, 16
 1218 0014 13010101 		addi	sp,sp,16
 1219              		.cfi_def_cfa_offset 0
 1220 0018 67800000 		jr	ra
 1221              		.cfi_endproc
 1222              	.LFE16:
 1224              		.section	.text._ZN3TCB11setFinishedEb,"axG",@progbits,_ZN3TCB11setFinishedEb,comdat
 1225              		.align	2
 1226              		.weak	_ZN3TCB11setFinishedEb
 1228              	_ZN3TCB11setFinishedEb:
 1229              	.LFB33:
 1230              		.file 3 "src/../h/TCB.hpp"
   1:src/../h/TCB.hpp **** //
   2:src/../h/TCB.hpp **** // Created by os on 5/23/23.
   3:src/../h/TCB.hpp **** //
   4:src/../h/TCB.hpp **** 
   5:src/../h/TCB.hpp **** #ifndef PROJEKAT2023_TCB_HPP
   6:src/../h/TCB.hpp **** #define PROJEKAT2023_TCB_HPP
   7:src/../h/TCB.hpp **** 
   8:src/../h/TCB.hpp **** #include "../lib/hw.h"
   9:src/../h/TCB.hpp **** #include "../h/ThreadQueue.hpp"
  10:src/../h/TCB.hpp **** 
  11:src/../h/TCB.hpp **** class TCB {
  12:src/../h/TCB.hpp **** public:
  13:src/../h/TCB.hpp **** 	friend class Scheduler;
  14:src/../h/TCB.hpp **** 
  15:src/../h/TCB.hpp **** 	using Body = void (*)(void*);
  16:src/../h/TCB.hpp **** 
  17:src/../h/TCB.hpp **** 	static TCB* createThread(Body function, void* args, uint64* stack);
  18:src/../h/TCB.hpp **** 	static void start(TCB* newTcb);
  19:src/../h/TCB.hpp **** 
  20:src/../h/TCB.hpp **** 	bool isFinished() { return finished; }
  21:src/../h/TCB.hpp **** 
  22:src/../h/TCB.hpp **** 	void setFinished(bool finish) { this->finished = finish; }
 1231              		.loc 3 22 7 is_stmt 1
 1232              		.cfi_startproc
 1233              	.LVL145:
 1234 0000 130101FF 		addi	sp,sp,-16
 1235              		.cfi_def_cfa_offset 16
 1236 0004 23348100 		sd	s0,8(sp)
 1237              		.cfi_offset 8, -8
 1238 0008 13040101 		addi	s0,sp,16
 1239              		.cfi_def_cfa 8, 0
 1240              		.loc 3 22 34
GAS LISTING /tmp/cc2jq2ng.s 			page 32


 1241              		.loc 3 22 49 is_stmt 0
 1242 000c 2308B502 		sb	a1,48(a0)
 1243              		.loc 3 22 59
 1244 0010 03348100 		ld	s0,8(sp)
 1245              		.cfi_restore 8
 1246              		.cfi_def_cfa 2, 16
 1247 0014 13010101 		addi	sp,sp,16
 1248              		.cfi_def_cfa_offset 0
 1249 0018 67800000 		jr	ra
 1250              		.cfi_endproc
 1251              	.LFE33:
 1253              		.section	.text._ZN3TCB12getTimeSliceEv,"axG",@progbits,_ZN3TCB12getTimeSliceEv,comdat
 1254              		.align	2
 1255              		.weak	_ZN3TCB12getTimeSliceEv
 1257              	_ZN3TCB12getTimeSliceEv:
 1258              	.LFB36:
  23:src/../h/TCB.hpp **** 
  24:src/../h/TCB.hpp **** 	bool isBlocked() { return blocked; }
  25:src/../h/TCB.hpp **** 
  26:src/../h/TCB.hpp **** 	void setBlocked(bool block) { this->blocked = block; }
  27:src/../h/TCB.hpp **** 
  28:src/../h/TCB.hpp **** 	uint64 getTimeSlice() { return timeSlice; }
 1259              		.loc 3 28 9 is_stmt 1
 1260              		.cfi_startproc
 1261              	.LVL146:
 1262 0000 130101FF 		addi	sp,sp,-16
 1263              		.cfi_def_cfa_offset 16
 1264 0004 23348100 		sd	s0,8(sp)
 1265              		.cfi_offset 8, -8
 1266 0008 13040101 		addi	s0,sp,16
 1267              		.cfi_def_cfa 8, 0
 1268              		.loc 3 28 26
 1269              		.loc 3 28 44 is_stmt 0
 1270 000c 03358502 		ld	a0,40(a0)
 1271              	.LVL147:
 1272 0010 03348100 		ld	s0,8(sp)
 1273              		.cfi_restore 8
 1274              		.cfi_def_cfa 2, 16
 1275 0014 13010101 		addi	sp,sp,16
 1276              		.cfi_def_cfa_offset 0
 1277 0018 67800000 		jr	ra
 1278              		.cfi_endproc
 1279              	.LFE36:
 1281              		.data
 1282              		.align	3
 1285              	_ZZ16interruptRoutineE6digits:
 1286 0000 30313233 		.string	"0123456789"
 1286      34353637 
 1286      383900
 1287              		.text
 1288              	.Letext0:
 1289              		.file 4 "src/../lib/hw.h"
 1290              		.file 5 "src/../h/MemoryAllocator.hpp"
 1291              		.file 6 "src/../h/syscall_c.hpp"
 1292              		.file 7 "src/../h/KSem.hpp"
 1293              		.file 8 "src/../h/../h/ThreadQueue.hpp"
 1294              		.file 9 "src/../h/Scheduler.hpp"
GAS LISTING /tmp/cc2jq2ng.s 			page 33


 1295              		.file 10 "src/../lib/console.h"
 1296              		.file 11 "src/../test/printing.hpp"
GAS LISTING /tmp/cc2jq2ng.s 			page 34


DEFINED SYMBOLS
                            *ABS*:0000000000000000 interruptRoutine.cpp
     /tmp/cc2jq2ng.s:26     .text:0000000000000000 interruptRoutine
     /tmp/cc2jq2ng.s:30     .text:0000000000000000 .L0 
     /tmp/cc2jq2ng.s:31     .text:0000000000000000 .L0 
     /tmp/cc2jq2ng.s:32     .text:0000000000000004 .L0 
     /tmp/cc2jq2ng.s:35     .text:000000000000000c .L0 
     /tmp/cc2jq2ng.s:36     .text:000000000000000c .L0 
     /tmp/cc2jq2ng.s:38     .text:0000000000000010 .L0 
     /tmp/cc2jq2ng.s:40     .text:0000000000000010 .L0 
     /tmp/cc2jq2ng.s:41     .text:0000000000000010 .L0 
src/interruptRoutine.cpp:21     .text:0000000000000010 .L0 
     /tmp/cc2jq2ng.s:50     .text:0000000000000018 .L0 
src/interruptRoutine.cpp:22     .text:0000000000000018 .L0 
     /tmp/cc2jq2ng.s:60     .text:0000000000000020 .L0 
src/interruptRoutine.cpp:24     .text:0000000000000020 .L0 
     /tmp/cc2jq2ng.s:70     .text:0000000000000028 .L0 
     /tmp/cc2jq2ng.s:71     .text:0000000000000028 .L0 
src/interruptRoutine.cpp:26     .text:0000000000000028 .L0 
     /tmp/cc2jq2ng.s:81     .text:0000000000000030 .L0 
src/interruptRoutine.cpp:27     .text:0000000000000030 .L0 
     /tmp/cc2jq2ng.s:91     .text:0000000000000038 .L0 
src/interruptRoutine.cpp:28     .text:0000000000000038 .L0 
     /tmp/cc2jq2ng.s:101    .text:0000000000000040 .L0 
src/interruptRoutine.cpp:29     .text:0000000000000040 .L0 
     /tmp/cc2jq2ng.s:111    .text:0000000000000048 .L0 
src/interruptRoutine.cpp:30     .text:0000000000000048 .L0 
     /tmp/cc2jq2ng.s:121    .text:0000000000000050 .L0 
src/interruptRoutine.cpp:31     .text:0000000000000050 .L0 
     /tmp/cc2jq2ng.s:131    .text:0000000000000058 .L0 
src/interruptRoutine.cpp:32     .text:0000000000000058 .L0 
     /tmp/cc2jq2ng.s:141    .text:0000000000000060 .L0 
src/interruptRoutine.cpp:33     .text:0000000000000060 .L0 
     /tmp/cc2jq2ng.s:152    .text:0000000000000068 .L0 
     /tmp/cc2jq2ng.s:156    .text:0000000000000074 .L0 
     /tmp/cc2jq2ng.s:162    .text:0000000000000080 .L0 
     /tmp/cc2jq2ng.s:163    .text:0000000000000080 .L0 
     /tmp/cc2jq2ng.s:168    .text:0000000000000088 .L0 
     /tmp/cc2jq2ng.s:288    .text:000000000000012c .L0 
     /tmp/cc2jq2ng.s:289    .text:000000000000012c .L0 
     /tmp/cc2jq2ng.s:290    .text:000000000000012c .L0 
     /tmp/cc2jq2ng.s:291    .text:000000000000012c .L0 
     /tmp/cc2jq2ng.s:295    .text:0000000000000134 .L0 
     /tmp/cc2jq2ng.s:296    .text:0000000000000134 .L0 
     /tmp/cc2jq2ng.s:302    .text:0000000000000140 .L0 
     /tmp/cc2jq2ng.s:303    .text:0000000000000140 .L0 
     /tmp/cc2jq2ng.s:308    .text:0000000000000150 .L0 
src/interruptRoutine.cpp:46     .text:0000000000000150 .L0 
     /tmp/cc2jq2ng.s:315    .text:0000000000000154 .L0 
     /tmp/cc2jq2ng.s:319    .text:0000000000000158 .L0 
     /tmp/cc2jq2ng.s:320    .text:0000000000000158 .L0 
     /tmp/cc2jq2ng.s:321    .text:0000000000000158 .L0 
     /tmp/cc2jq2ng.s:322    .text:0000000000000158 .L0 
     /tmp/cc2jq2ng.s:326    .text:0000000000000160 .L0 
     /tmp/cc2jq2ng.s:327    .text:0000000000000160 .L0 
     /tmp/cc2jq2ng.s:331    .text:000000000000016c .L0 
src/interruptRoutine.cpp:54     .text:000000000000016c .L0 
GAS LISTING /tmp/cc2jq2ng.s 			page 35


     /tmp/cc2jq2ng.s:338    .text:0000000000000170 .L0 
     /tmp/cc2jq2ng.s:342    .text:0000000000000174 .L0 
     /tmp/cc2jq2ng.s:343    .text:0000000000000174 .L0 
     /tmp/cc2jq2ng.s:344    .text:0000000000000174 .L0 
     /tmp/cc2jq2ng.s:345    .text:0000000000000174 .L0 
     /tmp/cc2jq2ng.s:349    .text:000000000000017c .L0 
     /tmp/cc2jq2ng.s:350    .text:000000000000017c .L0 
     /tmp/cc2jq2ng.s:351    .text:000000000000017c .L0 
     /tmp/cc2jq2ng.s:356    .text:0000000000000184 .L0 
     /tmp/cc2jq2ng.s:357    .text:0000000000000184 .L0 
     /tmp/cc2jq2ng.s:358    .text:0000000000000184 .L0 
     /tmp/cc2jq2ng.s:363    .text:000000000000018c .L0 
     /tmp/cc2jq2ng.s:364    .text:000000000000018c .L0 
     /tmp/cc2jq2ng.s:365    .text:000000000000018c .L0 
     /tmp/cc2jq2ng.s:370    .text:0000000000000194 .L0 
     /tmp/cc2jq2ng.s:371    .text:0000000000000194 .L0 
     /tmp/cc2jq2ng.s:378    .text:00000000000001ac .L0 
     /tmp/cc2jq2ng.s:381    .text:00000000000001b4 .L0 
     /tmp/cc2jq2ng.s:382    .text:00000000000001b4 .L0 
     /tmp/cc2jq2ng.s:388    .text:00000000000001c8 .L0 
     /tmp/cc2jq2ng.s:389    .text:00000000000001c8 .L0 
     /tmp/cc2jq2ng.s:392    .text:00000000000001d0 .L0 
     /tmp/cc2jq2ng.s:394    .text:00000000000001d4 .L0 
src/interruptRoutine.cpp:70     .text:00000000000001d4 .L0 
     /tmp/cc2jq2ng.s:403    .text:00000000000001dc .L0 
src/interruptRoutine.cpp:72     .text:00000000000001dc .L0 
     /tmp/cc2jq2ng.s:411    .text:00000000000001e0 .L0 
src/interruptRoutine.cpp:74     .text:00000000000001e0 .L0 
     /tmp/cc2jq2ng.s:418    .text:00000000000001e4 .L0 
     /tmp/cc2jq2ng.s:422    .text:00000000000001e8 .L0 
     /tmp/cc2jq2ng.s:423    .text:00000000000001e8 .L0 
     /tmp/cc2jq2ng.s:424    .text:00000000000001e8 .L0 
     /tmp/cc2jq2ng.s:1228   .text._ZN3TCB11setFinishedEb:0000000000000000 _ZN3TCB11setFinishedEb
     /tmp/cc2jq2ng.s:431    .text:0000000000000204 .L0 
     /tmp/cc2jq2ng.s:432    .text:0000000000000204 .L0 
     /tmp/cc2jq2ng.s:435    .text:000000000000020c .L0 
     /tmp/cc2jq2ng.s:436    .text:000000000000020c .L0 
     /tmp/cc2jq2ng.s:439    .text:0000000000000214 .L0 
     /tmp/cc2jq2ng.s:443    .text:0000000000000218 .L0 
     /tmp/cc2jq2ng.s:444    .text:0000000000000218 .L0 
     /tmp/cc2jq2ng.s:445    .text:0000000000000218 .L0 
     /tmp/cc2jq2ng.s:448    .text:0000000000000220 .L0 
     /tmp/cc2jq2ng.s:452    .text:0000000000000224 .L0 
     /tmp/cc2jq2ng.s:453    .text:0000000000000224 .L0 
     /tmp/cc2jq2ng.s:454    .text:0000000000000224 .L0 
     /tmp/cc2jq2ng.s:455    .text:0000000000000224 .L0 
     /tmp/cc2jq2ng.s:459    .text:000000000000022c .L0 
     /tmp/cc2jq2ng.s:460    .text:000000000000022c .L0 
     /tmp/cc2jq2ng.s:464    .text:0000000000000238 .L0 
     /tmp/cc2jq2ng.s:465    .text:0000000000000238 .L0 
     /tmp/cc2jq2ng.s:468    .text:0000000000000240 .L0 
     /tmp/cc2jq2ng.s:472    .text:0000000000000244 .L0 
     /tmp/cc2jq2ng.s:473    .text:0000000000000244 .L0 
     /tmp/cc2jq2ng.s:474    .text:0000000000000244 .L0 
     /tmp/cc2jq2ng.s:475    .text:0000000000000244 .L0 
     /tmp/cc2jq2ng.s:479    .text:000000000000024c .L0 
     /tmp/cc2jq2ng.s:480    .text:000000000000024c .L0 
GAS LISTING /tmp/cc2jq2ng.s 			page 36


     /tmp/cc2jq2ng.s:481    .text:000000000000024c .L0 
     /tmp/cc2jq2ng.s:486    .text:0000000000000254 .L0 
     /tmp/cc2jq2ng.s:487    .text:0000000000000254 .L0 
     /tmp/cc2jq2ng.s:494    .text:0000000000000268 .L0 
     /tmp/cc2jq2ng.s:497    .text:0000000000000270 .L0 
     /tmp/cc2jq2ng.s:498    .text:0000000000000270 .L0 
     /tmp/cc2jq2ng.s:501    .text:0000000000000278 .L0 
     /tmp/cc2jq2ng.s:503    .text:000000000000027c .L0 
src/interruptRoutine.cpp:101    .text:000000000000027c .L0 
     /tmp/cc2jq2ng.s:512    .text:0000000000000284 .L0 
src/interruptRoutine.cpp:103    .text:0000000000000284 .L0 
     /tmp/cc2jq2ng.s:520    .text:0000000000000288 .L0 
src/interruptRoutine.cpp:105    .text:0000000000000288 .L0 
     /tmp/cc2jq2ng.s:527    .text:000000000000028c .L0 
     /tmp/cc2jq2ng.s:531    .text:0000000000000290 .L0 
     /tmp/cc2jq2ng.s:532    .text:0000000000000290 .L0 
     /tmp/cc2jq2ng.s:533    .text:0000000000000290 .L0 
     /tmp/cc2jq2ng.s:534    .text:0000000000000290 .L0 
     /tmp/cc2jq2ng.s:538    .text:0000000000000298 .L0 
     /tmp/cc2jq2ng.s:539    .text:0000000000000298 .L0 
     /tmp/cc2jq2ng.s:543    .text:00000000000002a4 .L0 
src/interruptRoutine.cpp:112    .text:00000000000002a4 .L0 
     /tmp/cc2jq2ng.s:550    .text:00000000000002a8 .L0 
     /tmp/cc2jq2ng.s:554    .text:00000000000002ac .L0 
     /tmp/cc2jq2ng.s:555    .text:00000000000002ac .L0 
     /tmp/cc2jq2ng.s:556    .text:00000000000002ac .L0 
     /tmp/cc2jq2ng.s:557    .text:00000000000002ac .L0 
     /tmp/cc2jq2ng.s:561    .text:00000000000002b4 .L0 
     /tmp/cc2jq2ng.s:562    .text:00000000000002b4 .L0 
     /tmp/cc2jq2ng.s:566    .text:00000000000002c0 .L0 
src/interruptRoutine.cpp:119    .text:00000000000002c0 .L0 
     /tmp/cc2jq2ng.s:573    .text:00000000000002c4 .L0 
     /tmp/cc2jq2ng.s:577    .text:00000000000002c8 .L0 
     /tmp/cc2jq2ng.s:578    .text:00000000000002c8 .L0 
     /tmp/cc2jq2ng.s:579    .text:00000000000002c8 .L0 
     /tmp/cc2jq2ng.s:580    .text:00000000000002c8 .L0 
     /tmp/cc2jq2ng.s:584    .text:00000000000002d0 .L0 
     /tmp/cc2jq2ng.s:585    .text:00000000000002d0 .L0 
     /tmp/cc2jq2ng.s:589    .text:00000000000002dc .L0 
src/interruptRoutine.cpp:126    .text:00000000000002dc .L0 
     /tmp/cc2jq2ng.s:596    .text:00000000000002e0 .L0 
     /tmp/cc2jq2ng.s:600    .text:00000000000002e4 .L0 
     /tmp/cc2jq2ng.s:601    .text:00000000000002e4 .L0 
     /tmp/cc2jq2ng.s:602    .text:00000000000002e4 .L0 
     /tmp/cc2jq2ng.s:603    .text:00000000000002e4 .L0 
     /tmp/cc2jq2ng.s:607    .text:00000000000002ec .L0 
     /tmp/cc2jq2ng.s:610    .text:00000000000002f4 .L0 
src/interruptRoutine.cpp:133    .text:00000000000002f4 .L0 
     /tmp/cc2jq2ng.s:619    .text:00000000000002fc .L0 
src/interruptRoutine.cpp:135    .text:00000000000002fc .L0 
     /tmp/cc2jq2ng.s:627    .text:0000000000000300 .L0 
src/interruptRoutine.cpp:137    .text:0000000000000300 .L0 
     /tmp/cc2jq2ng.s:634    .text:0000000000000304 .L0 
     /tmp/cc2jq2ng.s:638    .text:000000000000030c .L0 
     /tmp/cc2jq2ng.s:639    .text:000000000000030c .L0 
     /tmp/cc2jq2ng.s:646    .text:0000000000000328 .L0 
     /tmp/cc2jq2ng.s:647    .text:0000000000000328 .L0 
GAS LISTING /tmp/cc2jq2ng.s 			page 37


     /tmp/cc2jq2ng.s:650    .text:0000000000000330 .L0 
     /tmp/cc2jq2ng.s:654    .text:0000000000000334 .L0 
     /tmp/cc2jq2ng.s:655    .text:0000000000000334 .L0 
     /tmp/cc2jq2ng.s:656    .text:0000000000000334 .L0 
     /tmp/cc2jq2ng.s:659    .text:000000000000033c .L0 
src/interruptRoutine.cpp:146    .text:000000000000033c .L0 
     /tmp/cc2jq2ng.s:666    .text:0000000000000340 .L0 
     /tmp/cc2jq2ng.s:670    .text:0000000000000344 .L0 
     /tmp/cc2jq2ng.s:671    .text:0000000000000344 .L0 
     /tmp/cc2jq2ng.s:672    .text:0000000000000344 .L0 
     /tmp/cc2jq2ng.s:673    .text:0000000000000344 .L0 
     /tmp/cc2jq2ng.s:677    .text:000000000000034c .L0 
     /tmp/cc2jq2ng.s:678    .text:000000000000034c .L0 
     /tmp/cc2jq2ng.s:684    .text:000000000000035c .L0 
     /tmp/cc2jq2ng.s:688    .text:0000000000000360 .L0 
     /tmp/cc2jq2ng.s:689    .text:0000000000000360 .L0 
     /tmp/cc2jq2ng.s:690    .text:0000000000000360 .L0 
     /tmp/cc2jq2ng.s:691    .text:0000000000000360 .L0 
     /tmp/cc2jq2ng.s:695    .text:0000000000000368 .L0 
     /tmp/cc2jq2ng.s:696    .text:0000000000000368 .L0 
     /tmp/cc2jq2ng.s:697    .text:0000000000000368 .L0 
     /tmp/cc2jq2ng.s:702    .text:0000000000000370 .L0 
     /tmp/cc2jq2ng.s:703    .text:0000000000000370 .L0 
     /tmp/cc2jq2ng.s:704    .text:0000000000000370 .L0 
     /tmp/cc2jq2ng.s:709    .text:0000000000000378 .L0 
     /tmp/cc2jq2ng.s:710    .text:0000000000000378 .L0 
     /tmp/cc2jq2ng.s:711    .text:0000000000000378 .L0 
     /tmp/cc2jq2ng.s:716    .text:0000000000000380 .L0 
     /tmp/cc2jq2ng.s:717    .text:0000000000000380 .L0 
     /tmp/cc2jq2ng.s:724    .text:0000000000000398 .L0 
     /tmp/cc2jq2ng.s:727    .text:00000000000003a0 .L0 
     /tmp/cc2jq2ng.s:728    .text:00000000000003a0 .L0 
     /tmp/cc2jq2ng.s:731    .text:00000000000003a8 .L0 
     /tmp/cc2jq2ng.s:733    .text:00000000000003ac .L0 
src/interruptRoutine.cpp:167    .text:00000000000003ac .L0 
     /tmp/cc2jq2ng.s:742    .text:00000000000003b4 .L0 
src/interruptRoutine.cpp:169    .text:00000000000003b4 .L0 
     /tmp/cc2jq2ng.s:750    .text:00000000000003b8 .L0 
src/interruptRoutine.cpp:171    .text:00000000000003b8 .L0 
     /tmp/cc2jq2ng.s:757    .text:00000000000003bc .L0 
     /tmp/cc2jq2ng.s:761    .text:00000000000003c0 .L0 
     /tmp/cc2jq2ng.s:762    .text:00000000000003c0 .L0 
     /tmp/cc2jq2ng.s:763    .text:00000000000003c0 .L0 
     /tmp/cc2jq2ng.s:764    .text:00000000000003c0 .L0 
     /tmp/cc2jq2ng.s:768    .text:00000000000003c8 .L0 
     /tmp/cc2jq2ng.s:769    .text:00000000000003c8 .L0 
     /tmp/cc2jq2ng.s:773    .text:00000000000003d4 .L0 
     /tmp/cc2jq2ng.s:777    .text:00000000000003d8 .L0 
     /tmp/cc2jq2ng.s:778    .text:00000000000003d8 .L0 
     /tmp/cc2jq2ng.s:779    .text:00000000000003d8 .L0 
     /tmp/cc2jq2ng.s:780    .text:00000000000003d8 .L0 
     /tmp/cc2jq2ng.s:785    .text:00000000000003e0 .L0 
     /tmp/cc2jq2ng.s:786    .text:00000000000003e0 .L0 
     /tmp/cc2jq2ng.s:787    .text:00000000000003e0 .L0 
     /tmp/cc2jq2ng.s:790    .text:00000000000003e8 .L0 
     /tmp/cc2jq2ng.s:792    .text:00000000000003ec .L0 
     /tmp/cc2jq2ng.s:793    .text:00000000000003ec .L0 
GAS LISTING /tmp/cc2jq2ng.s 			page 38


     /tmp/cc2jq2ng.s:799    .text:0000000000000400 .L0 
     /tmp/cc2jq2ng.s:800    .text:0000000000000400 .L0 
     /tmp/cc2jq2ng.s:805    .text:000000000000040c .L0 
     /tmp/cc2jq2ng.s:809    .text:0000000000000410 .L0 
     /tmp/cc2jq2ng.s:810    .text:0000000000000410 .L0 
     /tmp/cc2jq2ng.s:811    .text:0000000000000410 .L0 
     /tmp/cc2jq2ng.s:812    .text:0000000000000410 .L0 
     /tmp/cc2jq2ng.s:816    .text:0000000000000418 .L0 
     /tmp/cc2jq2ng.s:817    .text:0000000000000418 .L0 
     /tmp/cc2jq2ng.s:818    .text:0000000000000418 .L0 
     /tmp/cc2jq2ng.s:819    .text:0000000000000418 .L0 
     /tmp/cc2jq2ng.s:820    .text:0000000000000418 .L0 
     /tmp/cc2jq2ng.s:821    .text:0000000000000418 .L0 
     /tmp/cc2jq2ng.s:824    .text:000000000000041c .L0 
     /tmp/cc2jq2ng.s:825    .text:000000000000041c .L0 
     /tmp/cc2jq2ng.s:826    .text:000000000000041c .L0 
     /tmp/cc2jq2ng.s:830    .text:0000000000000424 .L0 
     /tmp/cc2jq2ng.s:831    .text:0000000000000424 .L0 
     /tmp/cc2jq2ng.s:835    .text:0000000000000428 .L0 
     /tmp/cc2jq2ng.s:836    .text:0000000000000428 .L0 
     /tmp/cc2jq2ng.s:837    .text:0000000000000428 .L0 
     /tmp/cc2jq2ng.s:842    .text:0000000000000438 .L0 
     /tmp/cc2jq2ng.s:1285   .data:0000000000000000 _ZZ16interruptRoutineE6digits
     /tmp/cc2jq2ng.s:847    .text:0000000000000444 .L0 
     /tmp/cc2jq2ng.s:854    .text:000000000000045c .L0 
     /tmp/cc2jq2ng.s:858    .text:0000000000000468 .L0 
     /tmp/cc2jq2ng.s:859    .text:0000000000000468 .L0 
     /tmp/cc2jq2ng.s:865    .text:0000000000000478 .L0 
     /tmp/cc2jq2ng.s:872    .text:000000000000048c .L0 
     /tmp/cc2jq2ng.s:875    .text:0000000000000490 .L0 
     /tmp/cc2jq2ng.s:879    .text:000000000000049c .L0 
     /tmp/cc2jq2ng.s:880    .text:000000000000049c .L0 
     /tmp/cc2jq2ng.s:885    .text:00000000000004a8 .L0 
     /tmp/cc2jq2ng.s:893    .text:00000000000004b8 .L0 
     /tmp/cc2jq2ng.s:894    .text:00000000000004b8 .L0 
     /tmp/cc2jq2ng.s:905    .text:00000000000004d8 .L0 
     /tmp/cc2jq2ng.s:906    .text:00000000000004d8 .L0 
     /tmp/cc2jq2ng.s:914    .text:00000000000004f4 .L0 
     /tmp/cc2jq2ng.s:918    .text:00000000000004f8 .L0 
     /tmp/cc2jq2ng.s:919    .text:00000000000004f8 .L0 
     /tmp/cc2jq2ng.s:920    .text:00000000000004f8 .L0 
     /tmp/cc2jq2ng.s:924    .text:0000000000000508 .L0 
     /tmp/cc2jq2ng.s:925    .text:0000000000000508 .L0 
     /tmp/cc2jq2ng.s:931    .text:000000000000051c .L0 
     /tmp/cc2jq2ng.s:932    .text:000000000000051c .L0 
     /tmp/cc2jq2ng.s:936    .text:000000000000052c .L0 
     /tmp/cc2jq2ng.s:937    .text:000000000000052c .L0 
     /tmp/cc2jq2ng.s:943    .text:0000000000000540 .L0 
     /tmp/cc2jq2ng.s:944    .text:0000000000000540 .L0 
     /tmp/cc2jq2ng.s:948    .text:0000000000000550 .L0 
     /tmp/cc2jq2ng.s:949    .text:0000000000000550 .L0 
     /tmp/cc2jq2ng.s:955    .text:0000000000000564 .L0 
     /tmp/cc2jq2ng.s:959    .text:0000000000000568 .L0 
     /tmp/cc2jq2ng.s:964    .text:0000000000000570 .L0 
     /tmp/cc2jq2ng.s:969    .text:0000000000000578 .L0 
     /tmp/cc2jq2ng.s:975    .text:000000000000057c .L0 
     /tmp/cc2jq2ng.s:976    .text:000000000000057c .L0 
GAS LISTING /tmp/cc2jq2ng.s 			page 39


     /tmp/cc2jq2ng.s:986    .text:0000000000000588 .L0 
     /tmp/cc2jq2ng.s:987    .text:0000000000000588 .L0 
     /tmp/cc2jq2ng.s:997    .text:0000000000000594 .L0 
     /tmp/cc2jq2ng.s:1002   .text:0000000000000598 .L0 
     /tmp/cc2jq2ng.s:1009   .text:00000000000005ac .L0 
     /tmp/cc2jq2ng.s:1010   .text:00000000000005ac .L0 
     /tmp/cc2jq2ng.s:1014   .text:00000000000005b4 .L0 
     /tmp/cc2jq2ng.s:1019   .text:00000000000005b8 .L0 
     /tmp/cc2jq2ng.s:1025   .text:00000000000005cc .L0 
     /tmp/cc2jq2ng.s:1026   .text:00000000000005cc .L0 
     /tmp/cc2jq2ng.s:1029   .text:00000000000005d4 .L0 
     /tmp/cc2jq2ng.s:1030   .text:00000000000005d4 .L0 
     /tmp/cc2jq2ng.s:1036   .text:00000000000005f0 .L0 
     /tmp/cc2jq2ng.s:1037   .text:00000000000005f0 .L0 
     /tmp/cc2jq2ng.s:1257   .text._ZN3TCB12getTimeSliceEv:0000000000000000 _ZN3TCB12getTimeSliceEv
     /tmp/cc2jq2ng.s:1044   .text:000000000000060c .L0 
     /tmp/cc2jq2ng.s:1050   .text:0000000000000624 .L0 
     /tmp/cc2jq2ng.s:1052   .text:0000000000000628 .L0 
     /tmp/cc2jq2ng.s:1053   .text:0000000000000628 .L0 
     /tmp/cc2jq2ng.s:1056   .text:0000000000000630 .L0 
     /tmp/cc2jq2ng.s:1057   .text:0000000000000630 .L0 
     /tmp/cc2jq2ng.s:1061   .text:000000000000063c .L0 
     /tmp/cc2jq2ng.s:1062   .text:000000000000063c .L0 
     /tmp/cc2jq2ng.s:1131   .text._ZN5Riscv6w_sepcEm:0000000000000000 _ZN5Riscv6w_sepcEm
     /tmp/cc2jq2ng.s:1066   .text:0000000000000648 .L0 
     /tmp/cc2jq2ng.s:1067   .text:0000000000000648 .L0 
     /tmp/cc2jq2ng.s:1196   .text._ZN5Riscv9w_sstatusEm:0000000000000000 _ZN5Riscv9w_sstatusEm
     /tmp/cc2jq2ng.s:1071   .text:0000000000000654 .L0 
     /tmp/cc2jq2ng.s:1072   .text:0000000000000654 .L0 
     /tmp/cc2jq2ng.s:1164   .text._ZN5Riscv6mc_sipEm:0000000000000000 _ZN5Riscv6mc_sipEm
     /tmp/cc2jq2ng.s:1077   .text:0000000000000660 .L0 
     /tmp/cc2jq2ng.s:1082   .text:0000000000000664 .L0 
     /tmp/cc2jq2ng.s:1083   .text:0000000000000664 .L0 
     /tmp/cc2jq2ng.s:1087   .text:0000000000000674 .L0 
     /tmp/cc2jq2ng.s:1088   .text:0000000000000674 .L0 
     /tmp/cc2jq2ng.s:1092   .text:0000000000000684 .L0 
     /tmp/cc2jq2ng.s:1093   .text:0000000000000684 .L0 
     /tmp/cc2jq2ng.s:1099   .text:0000000000000698 .L0 
     /tmp/cc2jq2ng.s:1100   .text:0000000000000698 .L0 
     /tmp/cc2jq2ng.s:1104   .text:00000000000006a8 .L0 
     /tmp/cc2jq2ng.s:1105   .text:00000000000006a8 .L0 
     /tmp/cc2jq2ng.s:1113   .text:00000000000006bc .L0 
     /tmp/cc2jq2ng.s:1115   .text:00000000000006c4 .L0 
     /tmp/cc2jq2ng.s:1117   .text:00000000000006c8 .L0 
     /tmp/cc2jq2ng.s:1118   .text:00000000000006c8 .L0 
     /tmp/cc2jq2ng.s:1121   .text:00000000000006cc .L0 
     /tmp/cc2jq2ng.s:1124   .text:00000000000006d0 .L0 
     /tmp/cc2jq2ng.s:1135   .text._ZN5Riscv6w_sepcEm:0000000000000000 .L0 
     /tmp/cc2jq2ng.s:1137   .text._ZN5Riscv6w_sepcEm:0000000000000000 .L0 
     /tmp/cc2jq2ng.s:1138   .text._ZN5Riscv6w_sepcEm:0000000000000004 .L0 
     /tmp/cc2jq2ng.s:1140   .text._ZN5Riscv6w_sepcEm:0000000000000008 .L0 
     /tmp/cc2jq2ng.s:1142   .text._ZN5Riscv6w_sepcEm:000000000000000c .L0 
     /tmp/cc2jq2ng.s:1144   .text._ZN5Riscv6w_sepcEm:000000000000000c .L0 
  src/../h/Riscv.hpp:105    .text._ZN5Riscv6w_sepcEm:000000000000000c .L0 
     /tmp/cc2jq2ng.s:1151   .text._ZN5Riscv6w_sepcEm:0000000000000010 .L0 
     /tmp/cc2jq2ng.s:1152   .text._ZN5Riscv6w_sepcEm:0000000000000014 .L0 
     /tmp/cc2jq2ng.s:1153   .text._ZN5Riscv6w_sepcEm:0000000000000014 .L0 
GAS LISTING /tmp/cc2jq2ng.s 			page 40


     /tmp/cc2jq2ng.s:1155   .text._ZN5Riscv6w_sepcEm:0000000000000018 .L0 
     /tmp/cc2jq2ng.s:1157   .text._ZN5Riscv6w_sepcEm:000000000000001c .L0 
     /tmp/cc2jq2ng.s:1167   .text._ZN5Riscv6mc_sipEm:0000000000000000 .L0 
     /tmp/cc2jq2ng.s:1169   .text._ZN5Riscv6mc_sipEm:0000000000000000 .L0 
     /tmp/cc2jq2ng.s:1170   .text._ZN5Riscv6mc_sipEm:0000000000000004 .L0 
     /tmp/cc2jq2ng.s:1172   .text._ZN5Riscv6mc_sipEm:0000000000000008 .L0 
     /tmp/cc2jq2ng.s:1174   .text._ZN5Riscv6mc_sipEm:000000000000000c .L0 
     /tmp/cc2jq2ng.s:1176   .text._ZN5Riscv6mc_sipEm:000000000000000c .L0 
  src/../h/Riscv.hpp:123    .text._ZN5Riscv6mc_sipEm:000000000000000c .L0 
     /tmp/cc2jq2ng.s:1183   .text._ZN5Riscv6mc_sipEm:0000000000000010 .L0 
     /tmp/cc2jq2ng.s:1184   .text._ZN5Riscv6mc_sipEm:0000000000000014 .L0 
     /tmp/cc2jq2ng.s:1185   .text._ZN5Riscv6mc_sipEm:0000000000000014 .L0 
     /tmp/cc2jq2ng.s:1187   .text._ZN5Riscv6mc_sipEm:0000000000000018 .L0 
     /tmp/cc2jq2ng.s:1189   .text._ZN5Riscv6mc_sipEm:000000000000001c .L0 
     /tmp/cc2jq2ng.s:1199   .text._ZN5Riscv9w_sstatusEm:0000000000000000 .L0 
     /tmp/cc2jq2ng.s:1201   .text._ZN5Riscv9w_sstatusEm:0000000000000000 .L0 
     /tmp/cc2jq2ng.s:1202   .text._ZN5Riscv9w_sstatusEm:0000000000000004 .L0 
     /tmp/cc2jq2ng.s:1204   .text._ZN5Riscv9w_sstatusEm:0000000000000008 .L0 
     /tmp/cc2jq2ng.s:1206   .text._ZN5Riscv9w_sstatusEm:000000000000000c .L0 
     /tmp/cc2jq2ng.s:1208   .text._ZN5Riscv9w_sstatusEm:000000000000000c .L0 
  src/../h/Riscv.hpp:151    .text._ZN5Riscv9w_sstatusEm:000000000000000c .L0 
     /tmp/cc2jq2ng.s:1215   .text._ZN5Riscv9w_sstatusEm:0000000000000010 .L0 
     /tmp/cc2jq2ng.s:1216   .text._ZN5Riscv9w_sstatusEm:0000000000000014 .L0 
     /tmp/cc2jq2ng.s:1217   .text._ZN5Riscv9w_sstatusEm:0000000000000014 .L0 
     /tmp/cc2jq2ng.s:1219   .text._ZN5Riscv9w_sstatusEm:0000000000000018 .L0 
     /tmp/cc2jq2ng.s:1221   .text._ZN5Riscv9w_sstatusEm:000000000000001c .L0 
     /tmp/cc2jq2ng.s:1232   .text._ZN3TCB11setFinishedEb:0000000000000000 .L0 
     /tmp/cc2jq2ng.s:1234   .text._ZN3TCB11setFinishedEb:0000000000000000 .L0 
     /tmp/cc2jq2ng.s:1235   .text._ZN3TCB11setFinishedEb:0000000000000004 .L0 
     /tmp/cc2jq2ng.s:1237   .text._ZN3TCB11setFinishedEb:0000000000000008 .L0 
     /tmp/cc2jq2ng.s:1239   .text._ZN3TCB11setFinishedEb:000000000000000c .L0 
     /tmp/cc2jq2ng.s:1241   .text._ZN3TCB11setFinishedEb:000000000000000c .L0 
     /tmp/cc2jq2ng.s:1242   .text._ZN3TCB11setFinishedEb:000000000000000c .L0 
     /tmp/cc2jq2ng.s:1244   .text._ZN3TCB11setFinishedEb:0000000000000010 .L0 
     /tmp/cc2jq2ng.s:1245   .text._ZN3TCB11setFinishedEb:0000000000000014 .L0 
     /tmp/cc2jq2ng.s:1246   .text._ZN3TCB11setFinishedEb:0000000000000014 .L0 
     /tmp/cc2jq2ng.s:1248   .text._ZN3TCB11setFinishedEb:0000000000000018 .L0 
     /tmp/cc2jq2ng.s:1250   .text._ZN3TCB11setFinishedEb:000000000000001c .L0 
     /tmp/cc2jq2ng.s:1260   .text._ZN3TCB12getTimeSliceEv:0000000000000000 .L0 
     /tmp/cc2jq2ng.s:1262   .text._ZN3TCB12getTimeSliceEv:0000000000000000 .L0 
     /tmp/cc2jq2ng.s:1263   .text._ZN3TCB12getTimeSliceEv:0000000000000004 .L0 
     /tmp/cc2jq2ng.s:1265   .text._ZN3TCB12getTimeSliceEv:0000000000000008 .L0 
     /tmp/cc2jq2ng.s:1267   .text._ZN3TCB12getTimeSliceEv:000000000000000c .L0 
     /tmp/cc2jq2ng.s:1269   .text._ZN3TCB12getTimeSliceEv:000000000000000c .L0 
     /tmp/cc2jq2ng.s:1270   .text._ZN3TCB12getTimeSliceEv:000000000000000c .L0 
     /tmp/cc2jq2ng.s:1273   .text._ZN3TCB12getTimeSliceEv:0000000000000014 .L0 
     /tmp/cc2jq2ng.s:1274   .text._ZN3TCB12getTimeSliceEv:0000000000000014 .L0 
     /tmp/cc2jq2ng.s:1276   .text._ZN3TCB12getTimeSliceEv:0000000000000018 .L0 
     /tmp/cc2jq2ng.s:1278   .text._ZN3TCB12getTimeSliceEv:000000000000001c .L0 
     /tmp/cc2jq2ng.s:1297   .text:00000000000006d0 .L0 
     /tmp/cc2jq2ng.s:1160   .text._ZN5Riscv6w_sepcEm:000000000000001c .L0 
     /tmp/cc2jq2ng.s:1192   .text._ZN5Riscv6mc_sipEm:000000000000001c .L0 
     /tmp/cc2jq2ng.s:1224   .text._ZN5Riscv9w_sstatusEm:000000000000001c .L0 
     /tmp/cc2jq2ng.s:1253   .text._ZN3TCB11setFinishedEb:000000000000001c .L0 
     /tmp/cc2jq2ng.s:1281   .text._ZN3TCB12getTimeSliceEv:000000000000001c .L0 
     /tmp/cc2jq2ng.s:209    .rodata:000000000000005c .L10
     /tmp/cc2jq2ng.s:198    .text:00000000000000f8 .L0 
GAS LISTING /tmp/cc2jq2ng.s 			page 41


     /tmp/cc2jq2ng.s:203    .text:000000000000010c .L0 
     /tmp/cc2jq2ng.s:424    .text:00000000000001e8 .L0 
     /tmp/cc2jq2ng.s:639    .text:000000000000030c .L0 
     /tmp/cc2jq2ng.s:847    .text:0000000000000444 .L0 
     /tmp/cc2jq2ng.s:8      .rodata:0000000000000000 .LC0
     /tmp/cc2jq2ng.s:920    .text:00000000000004f8 .L0 
     /tmp/cc2jq2ng.s:11     .rodata:0000000000000018 .LC1
     /tmp/cc2jq2ng.s:932    .text:000000000000051c .L0 
     /tmp/cc2jq2ng.s:14     .rodata:0000000000000028 .LC2
     /tmp/cc2jq2ng.s:944    .text:0000000000000540 .L0 
     /tmp/cc2jq2ng.s:1030   .text:00000000000005d4 .L0 
     /tmp/cc2jq2ng.s:1033   .text:00000000000005e4 .L0 
     /tmp/cc2jq2ng.s:1037   .text:00000000000005f0 .L0 
     /tmp/cc2jq2ng.s:1044   .text:000000000000060c .L0 
     /tmp/cc2jq2ng.s:1057   .text:0000000000000630 .L0 
     /tmp/cc2jq2ng.s:17     .rodata:0000000000000030 .LC3
     /tmp/cc2jq2ng.s:1083   .text:0000000000000664 .L0 
     /tmp/cc2jq2ng.s:20     .rodata:0000000000000050 .LC4
     /tmp/cc2jq2ng.s:1088   .text:0000000000000674 .L0 
     /tmp/cc2jq2ng.s:1100   .text:0000000000000698 .L0 
     /tmp/cc2jq2ng.s:159    .text:0000000000000080 .L2
     /tmp/cc2jq2ng.s:999    .text:0000000000000598 .L3
     /tmp/cc2jq2ng.s:807    .text:0000000000000410 .L4
     /tmp/cc2jq2ng.s:916    .text:00000000000004f8 .L5
     /tmp/cc2jq2ng.s:775    .text:00000000000003d8 .L6
     /tmp/cc2jq2ng.s:759    .text:00000000000003c0 .L7
     /tmp/cc2jq2ng.s:279    .text:000000000000011c .L8
     /tmp/cc2jq2ng.s:686    .text:0000000000000360 .L23
     /tmp/cc2jq2ng.s:971    .text:000000000000057c .L24
     /tmp/cc2jq2ng.s:401    .text:00000000000001dc .L25
     /tmp/cc2jq2ng.s:409    .text:00000000000001e0 .L26
     /tmp/cc2jq2ng.s:510    .text:0000000000000284 .L27
     /tmp/cc2jq2ng.s:518    .text:0000000000000288 .L28
     /tmp/cc2jq2ng.s:617    .text:00000000000002fc .L29
     /tmp/cc2jq2ng.s:625    .text:0000000000000300 .L30
     /tmp/cc2jq2ng.s:957    .text:0000000000000568 .L45
     /tmp/cc2jq2ng.s:740    .text:00000000000003b4 .L32
     /tmp/cc2jq2ng.s:748    .text:00000000000003b8 .L33
     /tmp/cc2jq2ng.s:962    .text:0000000000000570 .L46
     /tmp/cc2jq2ng.s:783    .text:00000000000003e0 .L35
     /tmp/cc2jq2ng.s:873    .text:0000000000000490 .L36
     /tmp/cc2jq2ng.s:833    .text:0000000000000428 .L37
     /tmp/cc2jq2ng.s:891    .text:00000000000004b8 .L40
     /tmp/cc2jq2ng.s:967    .text:0000000000000578 .L47
     /tmp/cc2jq2ng.s:1110   .text:00000000000006bc .L48
     /tmp/cc2jq2ng.s:1016   .text:00000000000005b8 .L42
     /tmp/cc2jq2ng.s:1079   .text:0000000000000664 .L43
     /tmp/cc2jq2ng.s:1059   .text:000000000000063c .L44
     /tmp/cc2jq2ng.s:285    .text:000000000000012c .L22
     /tmp/cc2jq2ng.s:317    .text:0000000000000158 .L21
     /tmp/cc2jq2ng.s:340    .text:0000000000000174 .L20
     /tmp/cc2jq2ng.s:420    .text:00000000000001e8 .L19
     /tmp/cc2jq2ng.s:441    .text:0000000000000218 .L18
     /tmp/cc2jq2ng.s:450    .text:0000000000000224 .L17
     /tmp/cc2jq2ng.s:470    .text:0000000000000244 .L16
     /tmp/cc2jq2ng.s:529    .text:0000000000000290 .L15
     /tmp/cc2jq2ng.s:552    .text:00000000000002ac .L14
GAS LISTING /tmp/cc2jq2ng.s 			page 42


     /tmp/cc2jq2ng.s:575    .text:00000000000002c8 .L13
     /tmp/cc2jq2ng.s:598    .text:00000000000002e4 .L12
     /tmp/cc2jq2ng.s:652    .text:0000000000000334 .L11
     /tmp/cc2jq2ng.s:668    .text:0000000000000344 .L9
     /tmp/cc2jq2ng.s:3498   .debug_abbrev:0000000000000000 .Ldebug_abbrev0
     /tmp/cc2jq2ng.s:5887   .debug_str:00000000000009fd .LASF220
     /tmp/cc2jq2ng.s:5779   .debug_str:00000000000006f1 .LASF221
     /tmp/cc2jq2ng.s:5841   .debug_str:00000000000008c6 .LASF222
     /tmp/cc2jq2ng.s:5513   .debug_ranges:0000000000000000 .Ldebug_ranges0
     /tmp/cc2jq2ng.s:5529   .debug_line:0000000000000000 .Ldebug_line0
     /tmp/cc2jq2ng.s:5807   .debug_str:00000000000007cd .LASF3
     /tmp/cc2jq2ng.s:5677   .debug_str:0000000000000466 .LASF0
     /tmp/cc2jq2ng.s:5709   .debug_str:0000000000000530 .LASF1
     /tmp/cc2jq2ng.s:5821   .debug_str:000000000000082a .LASF2
     /tmp/cc2jq2ng.s:5831   .debug_str:0000000000000882 .LASF4
     /tmp/cc2jq2ng.s:5693   .debug_str:00000000000004c2 .LASF5
     /tmp/cc2jq2ng.s:5545   .debug_str:0000000000000076 .LASF6
     /tmp/cc2jq2ng.s:5787   .debug_str:0000000000000730 .LASF7
     /tmp/cc2jq2ng.s:5777   .debug_str:00000000000006de .LASF8
     /tmp/cc2jq2ng.s:5699   .debug_str:00000000000004f0 .LASF9
     /tmp/cc2jq2ng.s:5649   .debug_str:00000000000003a1 .LASF10
     /tmp/cc2jq2ng.s:5659   .debug_str:00000000000003eb .LASF11
     /tmp/cc2jq2ng.s:5583   .debug_str:0000000000000198 .LASF12
     /tmp/cc2jq2ng.s:5639   .debug_str:0000000000000369 .LASF13
     /tmp/cc2jq2ng.s:5597   .debug_str:0000000000000211 .LASF14
     /tmp/cc2jq2ng.s:5581   .debug_str:0000000000000188 .LASF15
     /tmp/cc2jq2ng.s:5861   .debug_str:000000000000095f .LASF16
     /tmp/cc2jq2ng.s:5629   .debug_str:0000000000000300 .LASF17
     /tmp/cc2jq2ng.s:5845   .debug_str:00000000000008ed .LASF18
     /tmp/cc2jq2ng.s:5775   .debug_str:00000000000006ce .LASF40
     /tmp/cc2jq2ng.s:5769   .debug_str:00000000000006b1 .LASF42
     /tmp/cc2jq2ng.s:5785   .debug_str:000000000000072a .LASF19
     /tmp/cc2jq2ng.s:5961   .debug_str:0000000000000ca5 .LASF20
     /tmp/cc2jq2ng.s:5811   .debug_str:00000000000007f3 .LASF21
     /tmp/cc2jq2ng.s:5913   .debug_str:0000000000000b8e .LASF22
     /tmp/cc2jq2ng.s:5727   .debug_str:0000000000000583 .LASF23
     /tmp/cc2jq2ng.s:5793   .debug_str:0000000000000747 .LASF27
     /tmp/cc2jq2ng.s:5585   .debug_str:00000000000001a7 .LASF24
     /tmp/cc2jq2ng.s:5561   .debug_str:00000000000000fe .LASF25
     /tmp/cc2jq2ng.s:5707   .debug_str:000000000000052b .LASF26
     /tmp/cc2jq2ng.s:5621   .debug_str:00000000000002d1 .LASF28
     /tmp/cc2jq2ng.s:5805   .debug_str:00000000000007c5 .LASF29
     /tmp/cc2jq2ng.s:5949   .debug_str:0000000000000c59 .LASF30
     /tmp/cc2jq2ng.s:5895   .debug_str:0000000000000aec .LASF32
     /tmp/cc2jq2ng.s:5645   .debug_str:0000000000000395 .LASF31
     /tmp/cc2jq2ng.s:5765   .debug_str:000000000000068e .LASF33
     /tmp/cc2jq2ng.s:5565   .debug_str:000000000000010e .LASF34
     /tmp/cc2jq2ng.s:5799   .debug_str:0000000000000770 .LASF35
     /tmp/cc2jq2ng.s:5559   .debug_str:00000000000000e5 .LASF54
     /tmp/cc2jq2ng.s:5813   .debug_str:00000000000007fa .LASF36
     /tmp/cc2jq2ng.s:5921   .debug_str:0000000000000ba5 .LASF37
     /tmp/cc2jq2ng.s:5673   .debug_str:0000000000000454 .LASF38
     /tmp/cc2jq2ng.s:5689   .debug_str:00000000000004b0 .LASF82
     /tmp/cc2jq2ng.s:5859   .debug_str:000000000000092a .LASF84
     /tmp/cc2jq2ng.s:5729   .debug_str:000000000000058d .LASF39
     /tmp/cc2jq2ng.s:5935   .debug_str:0000000000000bec .LASF41
     /tmp/cc2jq2ng.s:5803   .debug_str:00000000000007ba .LASF43
GAS LISTING /tmp/cc2jq2ng.s 			page 43


     /tmp/cc2jq2ng.s:5717   .debug_str:0000000000000559 .LASF44
     /tmp/cc2jq2ng.s:5633   .debug_str:0000000000000331 .LASF45
     /tmp/cc2jq2ng.s:5951   .debug_str:0000000000000c61 .LASF46
     /tmp/cc2jq2ng.s:5663   .debug_str:0000000000000409 .LASF47
     /tmp/cc2jq2ng.s:5751   .debug_str:000000000000061a .LASF49
     /tmp/cc2jq2ng.s:5839   .debug_str:00000000000008b8 .LASF48
     /tmp/cc2jq2ng.s:5631   .debug_str:0000000000000316 .LASF50
     /tmp/cc2jq2ng.s:5683   .debug_str:0000000000000495 .LASF51
     /tmp/cc2jq2ng.s:5945   .debug_str:0000000000000c33 .LASF52
     /tmp/cc2jq2ng.s:5711   .debug_str:0000000000000543 .LASF56
     /tmp/cc2jq2ng.s:5905   .debug_str:0000000000000b47 .LASF58
     /tmp/cc2jq2ng.s:5817   .debug_str:0000000000000816 .LASF53
     /tmp/cc2jq2ng.s:5763   .debug_str:0000000000000679 .LASF55
     /tmp/cc2jq2ng.s:5795   .debug_str:0000000000000756 .LASF57
     /tmp/cc2jq2ng.s:5797   .debug_str:000000000000075d .LASF59
     /tmp/cc2jq2ng.s:5749   .debug_str:0000000000000613 .LASF60
     /tmp/cc2jq2ng.s:5701   .debug_str:0000000000000503 .LASF61
     /tmp/cc2jq2ng.s:5739   .debug_str:00000000000005db .LASF62
     /tmp/cc2jq2ng.s:5891   .debug_str:0000000000000ace .LASF63
     /tmp/cc2jq2ng.s:5743   .debug_str:00000000000005f0 .LASF64
     /tmp/cc2jq2ng.s:5761   .debug_str:0000000000000665 .LASF65
     /tmp/cc2jq2ng.s:5855   .debug_str:000000000000091c .LASF66
     /tmp/cc2jq2ng.s:5835   .debug_str:000000000000089e .LASF67
     /tmp/cc2jq2ng.s:5837   .debug_str:00000000000008b1 .LASF68
     /tmp/cc2jq2ng.s:5589   .debug_str:00000000000001b8 .LASF69
     /tmp/cc2jq2ng.s:5625   .debug_str:00000000000002ed .LASF70
     /tmp/cc2jq2ng.s:5671   .debug_str:0000000000000442 .LASF71
     /tmp/cc2jq2ng.s:5685   .debug_str:00000000000004a2 .LASF72
     /tmp/cc2jq2ng.s:5611   .debug_str:000000000000029b .LASF73
     /tmp/cc2jq2ng.s:5547   .debug_str:000000000000007d .LASF74
     /tmp/cc2jq2ng.s:5825   .debug_str:0000000000000842 .LASF75
     /tmp/cc2jq2ng.s:5819   .debug_str:000000000000081f .LASF76
     /tmp/cc2jq2ng.s:5975   .debug_str:0000000000000d13 .LASF77
     /tmp/cc2jq2ng.s:5937   .debug_str:0000000000000bf2 .LASF78
     /tmp/cc2jq2ng.s:5955   .debug_str:0000000000000c71 .LASF79
     /tmp/cc2jq2ng.s:5929   .debug_str:0000000000000bc4 .LASF80
     /tmp/cc2jq2ng.s:5735   .debug_str:00000000000005a6 .LASF81
     /tmp/cc2jq2ng.s:5897   .debug_str:0000000000000b17 .LASF83
     /tmp/cc2jq2ng.s:5603   .debug_str:0000000000000251 .LASF85
     /tmp/cc2jq2ng.s:5927   .debug_str:0000000000000bbb .LASF86
     /tmp/cc2jq2ng.s:5871   .debug_str:00000000000009a1 .LASF154
     /tmp/cc2jq2ng.s:5889   .debug_str:0000000000000ac1 .LASF87
     /tmp/cc2jq2ng.s:5943   .debug_str:0000000000000c11 .LASF88
     /tmp/cc2jq2ng.s:5767   .debug_str:00000000000006ac .LASF223
     /tmp/cc2jq2ng.s:5965   .debug_str:0000000000000cc5 .LASF89
     /tmp/cc2jq2ng.s:5695   .debug_str:00000000000004d4 .LASF90
     /tmp/cc2jq2ng.s:5873   .debug_str:00000000000009a9 .LASF93
     /tmp/cc2jq2ng.s:5865   .debug_str:000000000000097f .LASF95
     /tmp/cc2jq2ng.s:5569   .debug_str:000000000000012d .LASF91
     /tmp/cc2jq2ng.s:5907   .debug_str:0000000000000b5c .LASF92
     /tmp/cc2jq2ng.s:5823   .debug_str:0000000000000838 .LASF94
     /tmp/cc2jq2ng.s:5863   .debug_str:000000000000096b .LASF96
     /tmp/cc2jq2ng.s:5877   .debug_str:00000000000009c1 .LASF97
     /tmp/cc2jq2ng.s:5635   .debug_str:000000000000033a .LASF98
     /tmp/cc2jq2ng.s:5733   .debug_str:0000000000000599 .LASF99
     /tmp/cc2jq2ng.s:5801   .debug_str:00000000000007a2 .LASF100
     /tmp/cc2jq2ng.s:5615   .debug_str:00000000000002b6 .LASF101
GAS LISTING /tmp/cc2jq2ng.s 			page 44


     /tmp/cc2jq2ng.s:5829   .debug_str:000000000000086a .LASF102
     /tmp/cc2jq2ng.s:5911   .debug_str:0000000000000b83 .LASF103
     /tmp/cc2jq2ng.s:5641   .debug_str:0000000000000378 .LASF104
     /tmp/cc2jq2ng.s:5979   .debug_str:0000000000000d38 .LASF105
     /tmp/cc2jq2ng.s:5637   .debug_str:0000000000000350 .LASF106
     /tmp/cc2jq2ng.s:5713   .debug_str:000000000000054c .LASF107
     /tmp/cc2jq2ng.s:5815   .debug_str:0000000000000806 .LASF108
     /tmp/cc2jq2ng.s:5617   .debug_str:00000000000002c3 .LASF109
     /tmp/cc2jq2ng.s:5591   .debug_str:00000000000001cb .LASF110
     /tmp/cc2jq2ng.s:5719   .debug_str:0000000000000562 .LASF111
     /tmp/cc2jq2ng.s:5553   .debug_str:00000000000000b7 .LASF112
     /tmp/cc2jq2ng.s:5883   .debug_str:00000000000009e5 .LASF113
     /tmp/cc2jq2ng.s:5577   .debug_str:0000000000000168 .LASF114
     /tmp/cc2jq2ng.s:5903   .debug_str:0000000000000b3f .LASF115
     /tmp/cc2jq2ng.s:5579   .debug_str:0000000000000179 .LASF116
     /tmp/cc2jq2ng.s:5971   .debug_str:0000000000000cec .LASF117
     /tmp/cc2jq2ng.s:5915   .debug_str:0000000000000b93 .LASF118
     /tmp/cc2jq2ng.s:5893   .debug_str:0000000000000ae2 .LASF119
     /tmp/cc2jq2ng.s:5843   .debug_str:00000000000008e4 .LASF120
     /tmp/cc2jq2ng.s:5789   .debug_str:0000000000000737 .LASF121
     /tmp/cc2jq2ng.s:5665   .debug_str:0000000000000414 .LASF122
     /tmp/cc2jq2ng.s:5885   .debug_str:00000000000009ed .LASF123
     /tmp/cc2jq2ng.s:5773   .debug_str:00000000000006c2 .LASF124
     /tmp/cc2jq2ng.s:5535   .debug_str:000000000000001d .LASF125
     /tmp/cc2jq2ng.s:5537   .debug_str:000000000000002a .LASF126
     /tmp/cc2jq2ng.s:5963   .debug_str:0000000000000caf .LASF180
     /tmp/cc2jq2ng.s:5605   .debug_str:0000000000000269 .LASF127
     /tmp/cc2jq2ng.s:5541   .debug_str:0000000000000040 .LASF128
     /tmp/cc2jq2ng.s:5977   .debug_str:0000000000000d2b .LASF129
     /tmp/cc2jq2ng.s:5657   .debug_str:00000000000003df .LASF130
     /tmp/cc2jq2ng.s:5679   .debug_str:0000000000000473 .LASF142
     /tmp/cc2jq2ng.s:5759   .debug_str:0000000000000658 .LASF159
     /tmp/cc2jq2ng.s:5651   .debug_str:00000000000003b1 .LASF131
     /tmp/cc2jq2ng.s:5847   .debug_str:0000000000000903 .LASF132
     /tmp/cc2jq2ng.s:5879   .debug_str:00000000000009cc .LASF133
     /tmp/cc2jq2ng.s:5757   .debug_str:0000000000000645 .LASF134
     /tmp/cc2jq2ng.s:5619   .debug_str:00000000000002cc .LASF135
     /tmp/cc2jq2ng.s:5827   .debug_str:000000000000085a .LASF136
     /tmp/cc2jq2ng.s:5869   .debug_str:000000000000099a .LASF137
     /tmp/cc2jq2ng.s:5567   .debug_str:000000000000011b .LASF138
     /tmp/cc2jq2ng.s:5613   .debug_str:00000000000002ad .LASF139
     /tmp/cc2jq2ng.s:5747   .debug_str:00000000000005fd .LASF140
     /tmp/cc2jq2ng.s:5627   .debug_str:00000000000002f3 .LASF141
     /tmp/cc2jq2ng.s:5543   .debug_str:0000000000000068 .LASF143
     /tmp/cc2jq2ng.s:5675   .debug_str:0000000000000460 .LASF144
     /tmp/cc2jq2ng.s:5881   .debug_str:00000000000009d4 .LASF145
     /tmp/cc2jq2ng.s:5539   .debug_str:0000000000000038 .LASF146
     /tmp/cc2jq2ng.s:5549   .debug_str:0000000000000088 .LASF147
     /tmp/cc2jq2ng.s:5939   .debug_str:0000000000000bfc .LASF148
     /tmp/cc2jq2ng.s:5909   .debug_str:0000000000000b73 .LASF149
     /tmp/cc2jq2ng.s:5609   .debug_str:0000000000000291 .LASF150
     /tmp/cc2jq2ng.s:5703   .debug_str:0000000000000516 .LASF151
     /tmp/cc2jq2ng.s:5919   .debug_str:0000000000000b9d .LASF152
     /tmp/cc2jq2ng.s:5753   .debug_str:0000000000000632 .LASF153
     /tmp/cc2jq2ng.s:5925   .debug_str:0000000000000bb6 .LASF155
     /tmp/cc2jq2ng.s:5899   .debug_str:0000000000000b22 .LASF156
     /tmp/cc2jq2ng.s:5593   .debug_str:00000000000001de .LASF157
GAS LISTING /tmp/cc2jq2ng.s 			page 45


     /tmp/cc2jq2ng.s:5607   .debug_str:0000000000000277 .LASF158
     /tmp/cc2jq2ng.s:5599   .debug_str:0000000000000221 .LASF160
     /tmp/cc2jq2ng.s:5647   .debug_str:000000000000039b .LASF161
     /tmp/cc2jq2ng.s:5705   .debug_str:0000000000000526 .LASF162
     /tmp/cc2jq2ng.s:5555   .debug_str:00000000000000c9 .LASF163
     /tmp/cc2jq2ng.s:5655   .debug_str:00000000000003c7 .LASF164
     /tmp/cc2jq2ng.s:5901   .debug_str:0000000000000b27 .LASF224
     /tmp/cc2jq2ng.s:5875   .debug_str:00000000000009b4 .LASF165
     /tmp/cc2jq2ng.s:5833   .debug_str:0000000000000889 .LASF166
     /tmp/cc2jq2ng.s:5687   .debug_str:00000000000004a8 .LASF167
     /tmp/cc2jq2ng.s:5551   .debug_str:000000000000009b .LASF168
     /tmp/cc2jq2ng.s:5931   .debug_str:0000000000000bce .LASF169
     /tmp/cc2jq2ng.s:5737   .debug_str:00000000000005bc .LASF170
     /tmp/cc2jq2ng.s:5571   .debug_str:0000000000000139 .LASF171
     /tmp/cc2jq2ng.s:5575   .debug_str:000000000000014c .LASF172
     /tmp/cc2jq2ng.s:5601   .debug_str:000000000000023c .LASF173
     /tmp/cc2jq2ng.s:5933   .debug_str:0000000000000bd6 .LASF174
     /tmp/cc2jq2ng.s:5697   .debug_str:00000000000004e6 .LASF175
     /tmp/cc2jq2ng.s:5853   .debug_str:0000000000000917 .LASF176
     /tmp/cc2jq2ng.s:5745   .debug_str:00000000000005f8 .LASF177
     /tmp/cc2jq2ng.s:5969   .debug_str:0000000000000cdf .LASF178
     /tmp/cc2jq2ng.s:5959   .debug_str:0000000000000c93 .LASF179
     /tmp/cc2jq2ng.s:5669   .debug_str:000000000000042a .LASF181
     /tmp/cc2jq2ng.s:5967   .debug_str:0000000000000ccb .LASF225
     /tmp/cc2jq2ng.s:5661   .debug_str:00000000000003f9 .LASF182
     /tmp/cc2jq2ng.s:5809   .debug_str:00000000000007d2 .LASF183
     /tmp/cc2jq2ng.s:5563   .debug_str:0000000000000103 .LASF184
     /tmp/cc2jq2ng.s:5973   .debug_str:0000000000000cf2 .LASF185
     /tmp/cc2jq2ng.s:5721   .debug_str:000000000000056a .LASF186
     /tmp/cc2jq2ng.s:5595   .debug_str:00000000000001fc .LASF187
     /tmp/cc2jq2ng.s:5981   .debug_str:0000000000000d46 .LASF188
     /tmp/cc2jq2ng.s:27     .text:0000000000000000 .LFB48
     /tmp/cc2jq2ng.s:1125   .text:00000000000006d0 .LFE48
     /tmp/cc2jq2ng.s:5849   .debug_str:0000000000000908 .LASF189
     /tmp/cc2jq2ng.s:4610   .debug_loc:0000000000000000 .LLST0
     /tmp/cc2jq2ng.s:5917   .debug_str:0000000000000b98 .LASF190
     /tmp/cc2jq2ng.s:4641   .debug_loc:0000000000000087 .LLST1
     /tmp/cc2jq2ng.s:5941   .debug_str:0000000000000c09 .LASF191
     /tmp/cc2jq2ng.s:4672   .debug_loc:000000000000010e .LLST2
     /tmp/cc2jq2ng.s:4694   .debug_loc:000000000000016e .LLST3
     /tmp/cc2jq2ng.s:4716   .debug_loc:00000000000001ce .LLST4
     /tmp/cc2jq2ng.s:4738   .debug_loc:0000000000000230 .LLST5
     /tmp/cc2jq2ng.s:4760   .debug_loc:0000000000000292 .LLST6
     /tmp/cc2jq2ng.s:4782   .debug_loc:00000000000002f4 .LLST7
     /tmp/cc2jq2ng.s:4804   .debug_loc:0000000000000356 .LLST8
     /tmp/cc2jq2ng.s:4826   .debug_loc:00000000000003b8 .LLST9
     /tmp/cc2jq2ng.s:4848   .debug_loc:000000000000041a .LLST10
     /tmp/cc2jq2ng.s:160    .text:0000000000000080 .LBB3
     /tmp/cc2jq2ng.s:993    .text:0000000000000590 .LBE3
     /tmp/cc2jq2ng.s:5755   .debug_str:000000000000063e .LASF192
     /tmp/cc2jq2ng.s:5050   .debug_loc:000000000000079c .LLST11
     /tmp/cc2jq2ng.s:286    .text:000000000000012c .LBB5
     /tmp/cc2jq2ng.s:972    .text:000000000000057c .LBE5
     /tmp/cc2jq2ng.s:5116   .debug_loc:00000000000008c0 .LLST12
     /tmp/cc2jq2ng.s:5137   .debug_loc:0000000000000920 .LLST13
     /tmp/cc2jq2ng.s:5953   .debug_str:0000000000000c6a .LASF193
     /tmp/cc2jq2ng.s:5149   .debug_loc:0000000000000958 .LLST14
GAS LISTING /tmp/cc2jq2ng.s 			page 46


     /tmp/cc2jq2ng.s:5771   .debug_str:00000000000006b9 .LASF194
     /tmp/cc2jq2ng.s:5161   .debug_loc:0000000000000990 .LLST15
     /tmp/cc2jq2ng.s:5173   .debug_loc:00000000000009c8 .LLST16
     /tmp/cc2jq2ng.s:5185   .debug_loc:0000000000000a00 .LLST17
     /tmp/cc2jq2ng.s:5741   .debug_str:00000000000005e3 .LASF195
     /tmp/cc2jq2ng.s:5197   .debug_loc:0000000000000a38 .LLST18
     /tmp/cc2jq2ng.s:5667   .debug_str:000000000000041f .LASF196
     /tmp/cc2jq2ng.s:5209   .debug_loc:0000000000000a70 .LLST19
     /tmp/cc2jq2ng.s:5851   .debug_str:000000000000090f .LASF197
     /tmp/cc2jq2ng.s:5221   .debug_loc:0000000000000aa8 .LLST20
     /tmp/cc2jq2ng.s:5587   .debug_str:00000000000001ac .LASF198
     /tmp/cc2jq2ng.s:5233   .debug_loc:0000000000000ae0 .LLST21
     /tmp/cc2jq2ng.s:5533   .debug_str:0000000000000012 .LASF199
     /tmp/cc2jq2ng.s:5245   .debug_loc:0000000000000b18 .LLST22
     /tmp/cc2jq2ng.s:5723   .debug_str:000000000000056f .LASF200
     /tmp/cc2jq2ng.s:5257   .debug_loc:0000000000000b50 .LLST23
     /tmp/cc2jq2ng.s:5623   .debug_str:00000000000002e0 .LASF201
     /tmp/cc2jq2ng.s:5269   .debug_loc:0000000000000b88 .LLST24
     /tmp/cc2jq2ng.s:5286   .debug_loc:0000000000000bd5 .LLST25
     /tmp/cc2jq2ng.s:5947   .debug_str:0000000000000c4d .LASF202
     /tmp/cc2jq2ng.s:5298   .debug_loc:0000000000000c0d .LLST26
     /tmp/cc2jq2ng.s:5310   .debug_loc:0000000000000c45 .LLST27
     /tmp/cc2jq2ng.s:5573   .debug_str:0000000000000142 .LASF203
     /tmp/cc2jq2ng.s:5322   .debug_loc:0000000000000c7d .LLST28
     /tmp/cc2jq2ng.s:5791   .debug_str:000000000000073f .LASF204
     /tmp/cc2jq2ng.s:5334   .debug_loc:0000000000000cb5 .LLST29
     /tmp/cc2jq2ng.s:5681   .debug_str:0000000000000483 .LASF205
     /tmp/cc2jq2ng.s:5346   .debug_loc:0000000000000ced .LLST30
     /tmp/cc2jq2ng.s:5557   .debug_str:00000000000000de .LASF206
     /tmp/cc2jq2ng.s:5358   .debug_loc:0000000000000d25 .LLST31
     /tmp/cc2jq2ng.s:5691   .debug_str:00000000000004ba .LASF207
     /tmp/cc2jq2ng.s:5375   .debug_loc:0000000000000d70 .LLST32
     /tmp/cc2jq2ng.s:5857   .debug_str:0000000000000923 .LASF208
     /tmp/cc2jq2ng.s:5397   .debug_loc:0000000000000dd2 .LLST33
     /tmp/cc2jq2ng.s:5437   .debug_loc:0000000000000e7f .LLST34
     /tmp/cc2jq2ng.s:5450   .debug_loc:0000000000000eb9 .LLST35
     /tmp/cc2jq2ng.s:306    .text:0000000000000150 .LVL30
     /tmp/cc2jq2ng.s:329    .text:000000000000016c .LVL33
     /tmp/cc2jq2ng.s:375    .text:00000000000001a8 .LVL42
     /tmp/cc2jq2ng.s:386    .text:00000000000001c8 .LVL43
     /tmp/cc2jq2ng.s:429    .text:0000000000000204 .LVL45
     /tmp/cc2jq2ng.s:433    .text:000000000000020c .LVL46
     /tmp/cc2jq2ng.s:437    .text:0000000000000214 .LVL47
     /tmp/cc2jq2ng.s:446    .text:0000000000000220 .LVL49
     /tmp/cc2jq2ng.s:462    .text:0000000000000238 .LVL52
     /tmp/cc2jq2ng.s:466    .text:0000000000000240 .LVL53
     /tmp/cc2jq2ng.s:491    .text:0000000000000264 .LVL59
     /tmp/cc2jq2ng.s:541    .text:00000000000002a4 .LVL62
     /tmp/cc2jq2ng.s:564    .text:00000000000002c0 .LVL65
     /tmp/cc2jq2ng.s:587    .text:00000000000002dc .LVL68
     /tmp/cc2jq2ng.s:644    .text:0000000000000328 .LVL72
     /tmp/cc2jq2ng.s:648    .text:0000000000000330 .LVL73
     /tmp/cc2jq2ng.s:657    .text:000000000000033c .LVL75
     /tmp/cc2jq2ng.s:682    .text:000000000000035c .LVL79
     /tmp/cc2jq2ng.s:721    .text:0000000000000394 .LVL88
     /tmp/cc2jq2ng.s:771    .text:00000000000003d4 .LVL91
     /tmp/cc2jq2ng.s:797    .text:0000000000000400 .LVL94
GAS LISTING /tmp/cc2jq2ng.s 			page 47


     /tmp/cc2jq2ng.s:912    .text:00000000000004f4 .LVL110
     /tmp/cc2jq2ng.s:922    .text:0000000000000508 .LVL112
     /tmp/cc2jq2ng.s:929    .text:000000000000051c .LVL113
     /tmp/cc2jq2ng.s:934    .text:000000000000052c .LVL114
     /tmp/cc2jq2ng.s:941    .text:0000000000000540 .LVL115
     /tmp/cc2jq2ng.s:946    .text:0000000000000550 .LVL116
     /tmp/cc2jq2ng.s:953    .text:0000000000000564 .LVL117
     /tmp/cc2jq2ng.s:1011   .text:00000000000005b4 .LVL126
     /tmp/cc2jq2ng.s:1027   .text:00000000000005d4 .LVL128
     /tmp/cc2jq2ng.s:1041   .text:0000000000000608 .LVL129
     /tmp/cc2jq2ng.s:1054   .text:0000000000000630 .LVL130
     /tmp/cc2jq2ng.s:1064   .text:0000000000000648 .LVL131
     /tmp/cc2jq2ng.s:1069   .text:0000000000000654 .LVL132
     /tmp/cc2jq2ng.s:1074   .text:0000000000000660 .LVL133
     /tmp/cc2jq2ng.s:1085   .text:0000000000000674 .LVL135
     /tmp/cc2jq2ng.s:1090   .text:0000000000000684 .LVL136
     /tmp/cc2jq2ng.s:1097   .text:0000000000000698 .LVL137
     /tmp/cc2jq2ng.s:1102   .text:00000000000006a8 .LVL138
     /tmp/cc2jq2ng.s:1109   .text:00000000000006bc .LVL139
     /tmp/cc2jq2ng.s:5867   .debug_str:0000000000000995 .LASF209
     /tmp/cc2jq2ng.s:1258   .text._ZN3TCB12getTimeSliceEv:0000000000000000 .LFB36
     /tmp/cc2jq2ng.s:1279   .text._ZN3TCB12getTimeSliceEv:000000000000001c .LFE36
     /tmp/cc2jq2ng.s:5643   .debug_str:0000000000000390 .LASF210
     /tmp/cc2jq2ng.s:5476   .debug_loc:0000000000000f2b .LLST36
     /tmp/cc2jq2ng.s:1229   .text._ZN3TCB11setFinishedEb:0000000000000000 .LFB33
     /tmp/cc2jq2ng.s:1251   .text._ZN3TCB11setFinishedEb:000000000000001c .LFE33
     /tmp/cc2jq2ng.s:5731   .debug_str:0000000000000592 .LASF211
     /tmp/cc2jq2ng.s:1197   .text._ZN5Riscv9w_sstatusEm:0000000000000000 .LFB16
     /tmp/cc2jq2ng.s:1222   .text._ZN5Riscv9w_sstatusEm:000000000000001c .LFE16
     /tmp/cc2jq2ng.s:1165   .text._ZN5Riscv6mc_sipEm:0000000000000000 .LFB10
     /tmp/cc2jq2ng.s:1190   .text._ZN5Riscv6mc_sipEm:000000000000001c .LFE10
     /tmp/cc2jq2ng.s:5923   .debug_str:0000000000000bb1 .LASF212
     /tmp/cc2jq2ng.s:1132   .text._ZN5Riscv6w_sepcEm:0000000000000000 .LFB6
     /tmp/cc2jq2ng.s:1158   .text._ZN5Riscv6w_sepcEm:000000000000001c .LFE6
     /tmp/cc2jq2ng.s:5715   .debug_str:0000000000000552 .LASF213
     /tmp/cc2jq2ng.s:5725   .debug_str:000000000000057c .LASF214
     /tmp/cc2jq2ng.s:5781   .debug_str:000000000000070a .LASF215
     /tmp/cc2jq2ng.s:5957   .debug_str:0000000000000c87 .LASF216
     /tmp/cc2jq2ng.s:5531   .debug_str:0000000000000000 .LASF217
     /tmp/cc2jq2ng.s:5783   .debug_str:000000000000071d .LASF218
     /tmp/cc2jq2ng.s:5653   .debug_str:00000000000003b7 .LASF219
     /tmp/cc2jq2ng.s:48     .text:0000000000000018 .LVL0
     /tmp/cc2jq2ng.s:55     .text:000000000000001c .LVL1
     /tmp/cc2jq2ng.s:998    .text:0000000000000598 .LVL124
     /tmp/cc2jq2ng.s:1003   .text:000000000000059c .LVL125
     /tmp/cc2jq2ng.s:1119   .text:00000000000006c8 .LVL140
     /tmp/cc2jq2ng.s:1122   .text:00000000000006cc .LVL141
     /tmp/cc2jq2ng.s:58     .text:0000000000000020 .LVL2
     /tmp/cc2jq2ng.s:65     .text:0000000000000024 .LVL3
     /tmp/cc2jq2ng.s:981    .text:0000000000000584 .LVL122
     /tmp/cc2jq2ng.s:984    .text:0000000000000588 .LVL123
     /tmp/cc2jq2ng.s:68     .text:0000000000000028 .LVL4
     /tmp/cc2jq2ng.s:76     .text:000000000000002c .LVL5
     /tmp/cc2jq2ng.s:79     .text:0000000000000030 .LVL6
     /tmp/cc2jq2ng.s:86     .text:0000000000000034 .LVL7
     /tmp/cc2jq2ng.s:89     .text:0000000000000038 .LVL8
     /tmp/cc2jq2ng.s:96     .text:000000000000003c .LVL9
GAS LISTING /tmp/cc2jq2ng.s 			page 48


     /tmp/cc2jq2ng.s:99     .text:0000000000000040 .LVL10
     /tmp/cc2jq2ng.s:106    .text:0000000000000044 .LVL11
     /tmp/cc2jq2ng.s:109    .text:0000000000000048 .LVL12
     /tmp/cc2jq2ng.s:116    .text:000000000000004c .LVL13
     /tmp/cc2jq2ng.s:119    .text:0000000000000050 .LVL14
     /tmp/cc2jq2ng.s:126    .text:0000000000000054 .LVL15
     /tmp/cc2jq2ng.s:129    .text:0000000000000058 .LVL16
     /tmp/cc2jq2ng.s:136    .text:000000000000005c .LVL17
     /tmp/cc2jq2ng.s:139    .text:0000000000000060 .LVL18
     /tmp/cc2jq2ng.s:146    .text:0000000000000064 .LVL19
     /tmp/cc2jq2ng.s:149    .text:0000000000000068 .LVL20
     /tmp/cc2jq2ng.s:316    .text:0000000000000158 .LVL31
     /tmp/cc2jq2ng.s:339    .text:0000000000000174 .LVL34
     /tmp/cc2jq2ng.s:419    .text:00000000000001e8 .LVL44
     /tmp/cc2jq2ng.s:440    .text:0000000000000218 .LVL48
     /tmp/cc2jq2ng.s:449    .text:0000000000000224 .LVL50
     /tmp/cc2jq2ng.s:469    .text:0000000000000244 .LVL54
     /tmp/cc2jq2ng.s:528    .text:0000000000000290 .LVL60
     /tmp/cc2jq2ng.s:551    .text:00000000000002ac .LVL63
     /tmp/cc2jq2ng.s:574    .text:00000000000002c8 .LVL66
     /tmp/cc2jq2ng.s:597    .text:00000000000002e4 .LVL69
     /tmp/cc2jq2ng.s:651    .text:0000000000000334 .LVL74
     /tmp/cc2jq2ng.s:667    .text:0000000000000344 .LVL76
     /tmp/cc2jq2ng.s:685    .text:0000000000000360 .LVL80
     /tmp/cc2jq2ng.s:758    .text:00000000000003c0 .LVL89
     /tmp/cc2jq2ng.s:774    .text:00000000000003d8 .LVL92
     /tmp/cc2jq2ng.s:782    .text:00000000000003e0 .LVL93
     /tmp/cc2jq2ng.s:806    .text:0000000000000410 .LVL96
     /tmp/cc2jq2ng.s:890    .text:00000000000004b8 .LVL107
     /tmp/cc2jq2ng.s:915    .text:00000000000004f8 .LVL111
     /tmp/cc2jq2ng.s:1015   .text:00000000000005b8 .LVL127
     /tmp/cc2jq2ng.s:1078   .text:0000000000000664 .LVL134
     /tmp/cc2jq2ng.s:165    .text:0000000000000088 .LVL21
     /tmp/cc2jq2ng.s:170    .text:0000000000000090 .LVL22
     /tmp/cc2jq2ng.s:197    .text:00000000000000f8 .LVL23
     /tmp/cc2jq2ng.s:199    .text:0000000000000100 .LVL24
     /tmp/cc2jq2ng.s:278    .text:000000000000011c .LVL25
     /tmp/cc2jq2ng.s:281    .text:0000000000000120 .LVL26
     /tmp/cc2jq2ng.s:832    .text:0000000000000428 .LVL100
     /tmp/cc2jq2ng.s:293    .text:0000000000000134 .LVL27
     /tmp/cc2jq2ng.s:298    .text:000000000000013c .LVL28
     /tmp/cc2jq2ng.s:300    .text:0000000000000140 .LVL29
     /tmp/cc2jq2ng.s:324    .text:0000000000000160 .LVL32
     /tmp/cc2jq2ng.s:347    .text:000000000000017c .LVL35
     /tmp/cc2jq2ng.s:352    .text:0000000000000180 .LVL36
     /tmp/cc2jq2ng.s:354    .text:0000000000000184 .LVL37
     /tmp/cc2jq2ng.s:359    .text:0000000000000188 .LVL38
     /tmp/cc2jq2ng.s:361    .text:000000000000018c .LVL39
     /tmp/cc2jq2ng.s:366    .text:0000000000000190 .LVL40
     /tmp/cc2jq2ng.s:368    .text:0000000000000194 .LVL41
     /tmp/cc2jq2ng.s:457    .text:000000000000022c .LVL51
     /tmp/cc2jq2ng.s:477    .text:000000000000024c .LVL55
     /tmp/cc2jq2ng.s:482    .text:0000000000000250 .LVL56
     /tmp/cc2jq2ng.s:484    .text:0000000000000254 .LVL57
     /tmp/cc2jq2ng.s:488    .text:0000000000000258 .LVL58
     /tmp/cc2jq2ng.s:536    .text:0000000000000298 .LVL61
     /tmp/cc2jq2ng.s:559    .text:00000000000002b4 .LVL64
GAS LISTING /tmp/cc2jq2ng.s 			page 49


     /tmp/cc2jq2ng.s:582    .text:00000000000002d0 .LVL67
     /tmp/cc2jq2ng.s:605    .text:00000000000002ec .LVL70
     /tmp/cc2jq2ng.s:635    .text:0000000000000308 .LVL71
     /tmp/cc2jq2ng.s:956    .text:0000000000000568 .LVL118
     /tmp/cc2jq2ng.s:961    .text:0000000000000570 .LVL119
     /tmp/cc2jq2ng.s:675    .text:000000000000034c .LVL77
     /tmp/cc2jq2ng.s:679    .text:0000000000000350 .LVL78
     /tmp/cc2jq2ng.s:693    .text:0000000000000368 .LVL81
     /tmp/cc2jq2ng.s:698    .text:000000000000036c .LVL82
     /tmp/cc2jq2ng.s:700    .text:0000000000000370 .LVL83
     /tmp/cc2jq2ng.s:705    .text:0000000000000374 .LVL84
     /tmp/cc2jq2ng.s:707    .text:0000000000000378 .LVL85
     /tmp/cc2jq2ng.s:712    .text:000000000000037c .LVL86
     /tmp/cc2jq2ng.s:714    .text:0000000000000380 .LVL87
     /tmp/cc2jq2ng.s:766    .text:00000000000003c8 .LVL90
     /tmp/cc2jq2ng.s:803    .text:000000000000040c .LVL95
     /tmp/cc2jq2ng.s:966    .text:0000000000000578 .LVL120
     /tmp/cc2jq2ng.s:814    .text:0000000000000418 .LVL97
     /tmp/cc2jq2ng.s:970    .text:000000000000057c .LVL121
     /tmp/cc2jq2ng.s:845    .text:0000000000000444 .LVL101
     /tmp/cc2jq2ng.s:850    .text:0000000000000454 .LVL102
     /tmp/cc2jq2ng.s:883    .text:00000000000004a8 .LVL105
     /tmp/cc2jq2ng.s:886    .text:00000000000004ac .LVL106
     /tmp/cc2jq2ng.s:897    .text:00000000000004c4 .LVL108
     /tmp/cc2jq2ng.s:900    .text:00000000000004cc .LVL109
     /tmp/cc2jq2ng.s:822    .text:000000000000041c .LVL98
     /tmp/cc2jq2ng.s:828    .text:0000000000000424 .LVL99
     /tmp/cc2jq2ng.s:863    .text:0000000000000478 .LVL103
     /tmp/cc2jq2ng.s:867    .text:0000000000000480 .LVL104
     /tmp/cc2jq2ng.s:1261   .text._ZN3TCB12getTimeSliceEv:0000000000000000 .LVL146
     /tmp/cc2jq2ng.s:1271   .text._ZN3TCB12getTimeSliceEv:0000000000000010 .LVL147
     /tmp/cc2jq2ng.s:1298   .debug_info:0000000000000000 .Ldebug_info0
     /tmp/cc2jq2ng.s:5      .text:0000000000000000 .Ltext0
     /tmp/cc2jq2ng.s:1288   .text:00000000000006d0 .Letext0

UNDEFINED SYMBOLS
_ZN15MemoryAllocator7kmallocEmNS_7PurposeE
_ZN15MemoryAllocator5kfreeEPv
_ZN3TCB12createThreadEPFvPvES0_Pm
_ZN3TCB5startEPS_
_ZN3TCB7runningE
_ZN3TCB13releaseJoinedEv
_ZN3TCB5yieldEv
_ZN3TCB10threadJoinEPS_
_ZN4KSem7initSemEj
_ZN4KSem8closeSemEPS_
_ZN4KSem4waitEv
_ZN4KSem6signalEv
_ZN9Scheduler10putToSleepEP3TCBm
__getc
__putc
_ZN9Scheduler3putEP3TCB
_Z11printStringPKc
_Z12printIntegeri
console_handler
_ZN9Scheduler4wakeEv
_ZN3TCB16runningTimeSliceE
GAS LISTING /tmp/cc2jq2ng.s 			page 50


