GAS LISTING /tmp/cc8LWnaq.s 			page 1


   1              		.file	"interruptRoutine.cpp"
   2              		.option pic
   3              		.option norelax
   4              		.text
   5              	.Ltext0:
   6              		.section	.rodata
   7              		.align	3
   8              	.LC0:
   9 0000 0A4E6570 		.string	"\nNepostojeci op code: "
   9      6F73746F 
   9      6A656369 
   9      206F7020 
   9      636F6465 
  10 0017 00       		.align	3
  11              	.LC1:
  12 0018 0A736361 		.string	"\nscause: "
  12      7573653A 
  12      2000
  13 0022 00000000 		.align	3
  13      0000
  14              	.LC2:
  15 0028 0A736570 		.string	"\nsepc: "
  15      633A2000 
  16              		.align	3
  17              	.LC3:
  18 0030 4E656B69 		.string	"Neki drugi prekid\n"
  18      20647275 
  18      67692070 
  18      72656B69 
  18      640A00
  19 0043 00000000 		.align	3
  19      00
  20              	.LC4:
  21 0048 0A477265 		.string	"\nGreska u prekidnoj rutini\n"
  21      736B6120 
  21      75207072 
  21      656B6964 
  21      6E6F6A20 
  22 0064 00000000 		.align	3
  23              	.LC5:
  24 0068 73636175 		.string	"scause: "
  24      73653A20 
  24      00
  25              		.text
  26              		.align	2
  27              		.globl	interruptRoutine
  29              	interruptRoutine:
  30              	.LFB51:
  31              		.file 1 "src/interruptRoutine.cpp"
   1:src/interruptRoutine.cpp **** //
   2:src/interruptRoutine.cpp **** // Created by os on 5/22/23.
   3:src/interruptRoutine.cpp **** //
   4:src/interruptRoutine.cpp **** 
   5:src/interruptRoutine.cpp **** #include "../lib/console.h"
   6:src/interruptRoutine.cpp **** #include "../lib/hw.h"
   7:src/interruptRoutine.cpp **** #include "../h/MemoryAllocator.hpp"
   8:src/interruptRoutine.cpp **** #include "../h/helper.hpp"
GAS LISTING /tmp/cc8LWnaq.s 			page 2


   9:src/interruptRoutine.cpp **** #include "../h/Riscv.hpp"
  10:src/interruptRoutine.cpp **** #include "../h/syscall_c.hpp"
  11:src/interruptRoutine.cpp **** #include "../h/TCB.hpp"
  12:src/interruptRoutine.cpp **** #include "../h/Scheduler.hpp"
  13:src/interruptRoutine.cpp **** #include "../h/KSem.hpp"
  14:src/interruptRoutine.cpp **** #include "../h/KConsole.hpp"
  15:src/interruptRoutine.cpp **** #include "../h/KMemory.hpp"
  16:src/interruptRoutine.cpp **** #include "../test/printing.hpp"
  17:src/interruptRoutine.cpp **** 
  18:src/interruptRoutine.cpp **** //void printInteger(int i);
  19:src/interruptRoutine.cpp **** 
  20:src/interruptRoutine.cpp **** #pragma GCC optimize("O0")
  21:src/interruptRoutine.cpp **** extern "C" void interruptRoutine() {
  32              		.loc 1 21 36
  33              		.cfi_startproc
  34 0000 130101F8 		addi	sp,sp,-128
  35              		.cfi_def_cfa_offset 128
  36 0004 233C1106 		sd	ra,120(sp)
  37 0008 23388106 		sd	s0,112(sp)
  38 000c 23349106 		sd	s1,104(sp)
  39              		.cfi_offset 1, -8
  40              		.cfi_offset 8, -16
  41              		.cfi_offset 9, -24
  42 0010 13040108 		addi	s0,sp,128
  43              		.cfi_def_cfa 8, 0
  22:src/interruptRoutine.cpp ****     //bitni sistemski registri
  23:src/interruptRoutine.cpp ****     uint64 scause, sepc, sstatus;
  44              		.loc 1 23 5
  24:src/interruptRoutine.cpp ****     __asm__ volatile("csrr %[scause], scause":[scause] "=r"(scause): : "a5", "a0", "a1", "a2", "a3"
  45              		.loc 1 24 5
  46              		.loc 1 24 119 is_stmt 0
  47              	#APP
  48              	# 24 "src/interruptRoutine.cpp" 1
  25              	    __asm__ volatile("csrr %[sepc], sepc":[sepc] "=r"(sepc): : "a5", "a0", "a1", "a2", "a3", "a4", 
  49              		csrr t1, scause
  50              	# 0 "" 2
  51              	#NO_APP
  52 0018 233C64FC 		sd	t1,-40(s0)
  53              	.LVL0:
  54              		.loc 1 25 5 is_stmt 1
  55              		.loc 1 25 111 is_stmt 0
  56              	#APP
  57              	# 25 "src/interruptRoutine.cpp" 1
  26              	    __asm__ volatile("csrr %[stat], sstatus":[stat] "=r"(sstatus): : "a5", "a0", "a1", "a2", "a3", 
  58              		csrr t1, sepc
  59              	# 0 "" 2
  60              	.LVL1:
  61              	#NO_APP
  62 0020 233864FC 		sd	t1,-48(s0)
  63              	.LVL2:
  64              		.loc 1 26 5 is_stmt 1
  65              		.loc 1 26 117 is_stmt 0
  66              	#APP
  67              	# 26 "src/interruptRoutine.cpp" 1
  27              	
  68              		csrr t1, sstatus
  69              	# 0 "" 2
GAS LISTING /tmp/cc8LWnaq.s 			page 3


  70              	.LVL3:
  71              	#NO_APP
  72 0028 233464FC 		sd	t1,-56(s0)
  73              	.LVL4:
  28:src/interruptRoutine.cpp ****     //argumenti preneti sistemskom pozivu
  29:src/interruptRoutine.cpp ****     uint64 a0, a1, a2, a3, a4, a5, a6, a7;
  74              		.loc 1 29 5 is_stmt 1
  30:src/interruptRoutine.cpp ****     __asm__ volatile("mv %[ax], a0":[ax] "=r"(a0): : "a5", "a0", "a1", "a2", "a3", "a4", "a6", "a7"
  75              		.loc 1 30 5
  76              		.loc 1 30 101 is_stmt 0
  77              	#APP
  78              	# 30 "src/interruptRoutine.cpp" 1
  31              	    __asm__ volatile("mv %[ax], a1":[ax] "=r"(a1): : "a5", "a0", "a1", "a2", "a3", "a4", "a6", "a7"
  79              		mv t1, a0
  80              	# 0 "" 2
  81              	.LVL5:
  82              	#NO_APP
  83 0030 233064FC 		sd	t1,-64(s0)
  84              	.LVL6:
  85              		.loc 1 31 5 is_stmt 1
  86              		.loc 1 31 101 is_stmt 0
  87              	#APP
  88              	# 31 "src/interruptRoutine.cpp" 1
  32              	    __asm__ volatile("mv %[ax], a2":[ax] "=r"(a2): : "a5", "a0", "a1", "a2", "a3", "a4", "a6", "a7"
  89              		mv t1, a1
  90              	# 0 "" 2
  91              	.LVL7:
  92              	#NO_APP
  93 0038 233C64FA 		sd	t1,-72(s0)
  94              	.LVL8:
  95              		.loc 1 32 5 is_stmt 1
  96              		.loc 1 32 101 is_stmt 0
  97              	#APP
  98              	# 32 "src/interruptRoutine.cpp" 1
  33              	    __asm__ volatile("mv %[ax], a3":[ax] "=r"(a3): : "a5", "a0", "a1", "a2", "a3", "a4", "a6", "a7"
  99              		mv t1, a2
 100              	# 0 "" 2
 101              	.LVL9:
 102              	#NO_APP
 103 0040 233864FA 		sd	t1,-80(s0)
 104              	.LVL10:
 105              		.loc 1 33 5 is_stmt 1
 106              		.loc 1 33 101 is_stmt 0
 107              	#APP
 108              	# 33 "src/interruptRoutine.cpp" 1
  34              	    __asm__ volatile("mv %[ax], a4":[ax] "=r"(a4): : "a5", "a0", "a1", "a2", "a3", "a4", "a6", "a7"
 109              		mv t1, a3
 110              	# 0 "" 2
 111              	.LVL11:
 112              	#NO_APP
 113 0048 233464FA 		sd	t1,-88(s0)
 114              	.LVL12:
 115              		.loc 1 34 5 is_stmt 1
 116              		.loc 1 34 101 is_stmt 0
 117              	#APP
 118              	# 34 "src/interruptRoutine.cpp" 1
  35              	    __asm__ volatile("mv %[ax], a5":[ax] "=r"(a5): : "a5", "a0", "a1", "a2", "a3", "a4", "a6", "a7"
GAS LISTING /tmp/cc8LWnaq.s 			page 4


 119              		mv t1, a4
 120              	# 0 "" 2
 121              	.LVL13:
 122              	#NO_APP
 123 0050 233064FA 		sd	t1,-96(s0)
 124              	.LVL14:
 125              		.loc 1 35 5 is_stmt 1
 126              		.loc 1 35 101 is_stmt 0
 127              	#APP
 128              	# 35 "src/interruptRoutine.cpp" 1
  36              	    __asm__ volatile("mv %[ax], a6":[ax] "=r"(a6): : "a5", "a0", "a1", "a2", "a3", "a4", "a6", "a7"
 129              		mv t1, a5
 130              	# 0 "" 2
 131              	.LVL15:
 132              	#NO_APP
 133 0058 233C64F8 		sd	t1,-104(s0)
 134              	.LVL16:
 135              		.loc 1 36 5 is_stmt 1
 136              		.loc 1 36 101 is_stmt 0
 137              	#APP
 138              	# 36 "src/interruptRoutine.cpp" 1
  37              	    __asm__ volatile("mv %[ax], a7":[ax] "=r"(a7): : "a5", "a0", "a1", "a2", "a3", "a4", "a6", "a7"
 139              		mv t1, a6
 140              	# 0 "" 2
 141              	.LVL17:
 142              	#NO_APP
 143 0060 233864F8 		sd	t1,-112(s0)
 144              	.LVL18:
 145              		.loc 1 37 5 is_stmt 1
 146              		.loc 1 37 101 is_stmt 0
 147              	#APP
 148              	# 37 "src/interruptRoutine.cpp" 1
  38              	
 149              		mv t1, a7
 150              	# 0 "" 2
 151              	.LVL19:
 152              	#NO_APP
 153 0068 233464F8 		sd	t1,-120(s0)
 154              	.LVL20:
  39:src/interruptRoutine.cpp ****     if (scause == 0x9 || scause == 0x8) {
 155              		.loc 1 39 5 is_stmt 1
 156              	.LBB2:
 157 006c 033784FD 		ld	a4,-40(s0)
 158 0070 93079000 		li	a5,9
 159 0074 6308F700 		beq	a4,a5,.L2
 160              		.loc 1 39 23 is_stmt 0 discriminator 1
 161 0078 033784FD 		ld	a4,-40(s0)
 162 007c 93078000 		li	a5,8
 163 0080 6316F738 		bne	a4,a5,.L3
 164              	.L2:
  40:src/interruptRoutine.cpp ****         //prekid zbog poziva ecall
  41:src/interruptRoutine.cpp ****         switch (a0) {
 165              		.loc 1 41 9 is_stmt 1
 166 0084 033704FC 		ld	a4,-64(s0)
 167 0088 93071009 		li	a5,145
 168 008c 630AF72E 		beq	a4,a5,.L4
 169 0090 033704FC 		ld	a4,-64(s0)
GAS LISTING /tmp/cc8LWnaq.s 			page 5


 170 0094 93071009 		li	a5,145
 171 0098 63ECE72E 		bgtu	a4,a5,.L5
 172 009c 033704FC 		ld	a4,-64(s0)
 173 00a0 93071008 		li	a5,129
 174 00a4 630AF72A 		beq	a4,a5,.L6
 175 00a8 033704FC 		ld	a4,-64(s0)
 176 00ac 93071008 		li	a5,129
 177 00b0 63E0E72E 		bgtu	a4,a5,.L5
 178 00b4 033704FC 		ld	a4,-64(s0)
 179 00b8 93072004 		li	a5,66
 180 00bc 63E2E704 		bgtu	a4,a5,.L7
 181 00c0 833704FC 		ld	a5,-64(s0)
 182 00c4 6386072C 		beqz	a5,.L5
 183 00c8 033704FC 		ld	a4,-64(s0)
 184 00cc 93072004 		li	a5,66
 185 00d0 63E0E72C 		bgtu	a4,a5,.L5
 186 00d4 833704FC 		ld	a5,-64(s0)
 187 00d8 13972700 		slli	a4,a5,2
 188 00dc 97070000 		lla	a5,.L9
 188      93870700 
 189 00e4 B307F700 		add	a5,a4,a5
 190 00e8 83A70700 		lw	a5,0(a5)
 191 00ec 1B870700 		sext.w	a4,a5
 192 00f0 97070000 		lla	a5,.L9
 192      93870700 
 193 00f8 B307F700 		add	a5,a4,a5
 194 00fc 67800700 		jr	a5
 195              		.section	.rodata
 196 0071 000000   		.align	2
 197              		.align	2
 198              	.L9:
 199 0074 00000000 		.word	.L5-.L9
 200 0078 00000000 		.word	.L21-.L9
 201 007c 00000000 		.word	.L20-.L9
 202 0080 00000000 		.word	.L5-.L9
 203 0084 00000000 		.word	.L5-.L9
 204 0088 00000000 		.word	.L5-.L9
 205 008c 00000000 		.word	.L5-.L9
 206 0090 00000000 		.word	.L5-.L9
 207 0094 00000000 		.word	.L5-.L9
 208 0098 00000000 		.word	.L5-.L9
 209 009c 00000000 		.word	.L5-.L9
 210 00a0 00000000 		.word	.L5-.L9
 211 00a4 00000000 		.word	.L5-.L9
 212 00a8 00000000 		.word	.L5-.L9
 213 00ac 00000000 		.word	.L5-.L9
 214 00b0 00000000 		.word	.L5-.L9
 215 00b4 00000000 		.word	.L5-.L9
 216 00b8 00000000 		.word	.L19-.L9
 217 00bc 00000000 		.word	.L18-.L9
 218 00c0 00000000 		.word	.L17-.L9
 219 00c4 00000000 		.word	.L16-.L9
 220 00c8 00000000 		.word	.L5-.L9
 221 00cc 00000000 		.word	.L5-.L9
 222 00d0 00000000 		.word	.L5-.L9
 223 00d4 00000000 		.word	.L5-.L9
 224 00d8 00000000 		.word	.L5-.L9
GAS LISTING /tmp/cc8LWnaq.s 			page 6


 225 00dc 00000000 		.word	.L5-.L9
 226 00e0 00000000 		.word	.L5-.L9
 227 00e4 00000000 		.word	.L5-.L9
 228 00e8 00000000 		.word	.L5-.L9
 229 00ec 00000000 		.word	.L5-.L9
 230 00f0 00000000 		.word	.L5-.L9
 231 00f4 00000000 		.word	.L5-.L9
 232 00f8 00000000 		.word	.L15-.L9
 233 00fc 00000000 		.word	.L14-.L9
 234 0100 00000000 		.word	.L13-.L9
 235 0104 00000000 		.word	.L12-.L9
 236 0108 00000000 		.word	.L5-.L9
 237 010c 00000000 		.word	.L5-.L9
 238 0110 00000000 		.word	.L5-.L9
 239 0114 00000000 		.word	.L5-.L9
 240 0118 00000000 		.word	.L5-.L9
 241 011c 00000000 		.word	.L5-.L9
 242 0120 00000000 		.word	.L5-.L9
 243 0124 00000000 		.word	.L5-.L9
 244 0128 00000000 		.word	.L5-.L9
 245 012c 00000000 		.word	.L5-.L9
 246 0130 00000000 		.word	.L5-.L9
 247 0134 00000000 		.word	.L5-.L9
 248 0138 00000000 		.word	.L11-.L9
 249 013c 00000000 		.word	.L5-.L9
 250 0140 00000000 		.word	.L5-.L9
 251 0144 00000000 		.word	.L5-.L9
 252 0148 00000000 		.word	.L5-.L9
 253 014c 00000000 		.word	.L5-.L9
 254 0150 00000000 		.word	.L5-.L9
 255 0154 00000000 		.word	.L5-.L9
 256 0158 00000000 		.word	.L5-.L9
 257 015c 00000000 		.word	.L5-.L9
 258 0160 00000000 		.word	.L5-.L9
 259 0164 00000000 		.word	.L5-.L9
 260 0168 00000000 		.word	.L5-.L9
 261 016c 00000000 		.word	.L5-.L9
 262 0170 00000000 		.word	.L5-.L9
 263 0174 00000000 		.word	.L5-.L9
 264 0178 00000000 		.word	.L10-.L9
 265 017c 00000000 		.word	.L8-.L9
 266              		.text
 267              	.L7:
 268 0100 033704FC 		ld	a4,-64(s0)
 269 0104 93070008 		li	a5,128
 270 0108 6302F720 		beq	a4,a5,.L22
 271 010c 6F004028 		j	.L5
 272              	.L21:
  42:src/interruptRoutine.cpp ****             case 0x01:
 273              		.loc 1 42 13
  43:src/interruptRoutine.cpp ****                 //mem_alloc
  44:src/interruptRoutine.cpp ****                 //a1 = broj blokova koje treba alocirati
  45:src/interruptRoutine.cpp ****                 //MemoryAllocator::kmalloc((size_t)a1 * MEM_BLOCK_SIZE);
  46:src/interruptRoutine.cpp ****                 KMemory::kmalloc((size_t)a1);
 274              		.loc 1 46 17
 275              		.loc 1 46 33 is_stmt 0
 276 0110 033584FB 		ld	a0,-72(s0)
GAS LISTING /tmp/cc8LWnaq.s 			page 7


 277 0114 97000000 		call	_ZN7KMemory7kmallocEm@plt
 277      E7800000 
 278              	.LVL21:
  47:src/interruptRoutine.cpp ****                 __asm__ volatile("sd a0, 80(s0)");
 279              		.loc 1 47 17 is_stmt 1
 280              		.loc 1 47 50 is_stmt 0
 281              	#APP
 282              	# 47 "src/interruptRoutine.cpp" 1
  48              	                break;
 283              		sd a0, 80(s0)
 284              	# 0 "" 2
 285              		.loc 1 48 17 is_stmt 1
 286              	#NO_APP
 287 0120 6F00C02C 		j	.L23
 288              	.LVL22:
 289              	.L20:
  49:src/interruptRoutine.cpp ****             case 0x02:
 290              		.loc 1 49 13
  50:src/interruptRoutine.cpp ****                 //mem_free
  51:src/interruptRoutine.cpp ****                 //a1 = pokazivac na memoriju koju dealociramo, dobijen sa mem_alloc
  52:src/interruptRoutine.cpp ****                 //MemoryAllocator::kfree((void*)a1);
  53:src/interruptRoutine.cpp ****                 KMemory::kfree((void*)a1);
 291              		.loc 1 53 17
 292              		.loc 1 53 31 is_stmt 0
 293 0124 833784FB 		ld	a5,-72(s0)
 294 0128 13850700 		mv	a0,a5
 295 012c 97000000 		call	_ZN7KMemory5kfreeEPv@plt
 295      E7800000 
 296              	.LVL23:
  54:src/interruptRoutine.cpp ****                 __asm__ volatile("sd a0, 80(s0)");
 297              		.loc 1 54 17 is_stmt 1
 298              		.loc 1 54 50 is_stmt 0
 299              	#APP
 300              	# 54 "src/interruptRoutine.cpp" 1
  55              	                break;
 301              		sd a0, 80(s0)
 302              	# 0 "" 2
 303              		.loc 1 55 17 is_stmt 1
 304              	#NO_APP
 305 0138 6F00402B 		j	.L23
 306              	.LVL24:
 307              	.L19:
  56:src/interruptRoutine.cpp ****             case 0x11:
 308              		.loc 1 56 13
  57:src/interruptRoutine.cpp ****                 //thread_create
  58:src/interruptRoutine.cpp ****                 //a1 = pokazivac na rucku u koju upisujemo identifikator niti(adresa u memoriji)
  59:src/interruptRoutine.cpp ****                 //a2 = pokazivac na funkciju koju nit treba da izvrsava
  60:src/interruptRoutine.cpp ****                 //a3 = argumenti funkcije koju nit treba da izvrsava
  61:src/interruptRoutine.cpp ****                 //a4 = poslednja lokacija alociranog steka(najniza adresa)
  62:src/interruptRoutine.cpp ****                 *((thread_t*)a1) = TCB::createThread((TCB::Body)a2, (void*)a3, (uint64*)a4);
 309              		.loc 1 62 17
 310              		.loc 1 62 53 is_stmt 0
 311 013c 833704FB 		ld	a5,-80(s0)
 312 0140 033784FA 		ld	a4,-88(s0)
 313 0144 833604FA 		ld	a3,-96(s0)
 314              		.loc 1 62 17
 315 0148 833484FB 		ld	s1,-72(s0)
GAS LISTING /tmp/cc8LWnaq.s 			page 8


 316              		.loc 1 62 53
 317 014c 13860600 		mv	a2,a3
 318 0150 93050700 		mv	a1,a4
 319 0154 13850700 		mv	a0,a5
 320 0158 97000000 		call	_ZN3TCB12createThreadEPFvPvES0_Pm@plt
 320      E7800000 
 321              	.LVL25:
 322 0160 93070500 		mv	a5,a0
 323              		.loc 1 62 34
 324 0164 23B0F400 		sd	a5,0(s1)
  63:src/interruptRoutine.cpp ****                 if ((TCB::Body)a2 != nullptr) {
 325              		.loc 1 63 17 is_stmt 1
 326              		.loc 1 63 35 is_stmt 0
 327 0168 833704FB 		ld	a5,-80(s0)
 328              		.loc 1 63 17
 329 016c 63880702 		beqz	a5,.L24
  64:src/interruptRoutine.cpp ****                     Scheduler::put(*((thread_t*)a1));
 330              		.loc 1 64 21 is_stmt 1
 331              		.loc 1 64 35 is_stmt 0
 332 0170 833784FB 		ld	a5,-72(s0)
 333 0174 83B70700 		ld	a5,0(a5)
 334 0178 13850700 		mv	a0,a5
 335 017c 97000000 		call	_ZN9Scheduler3putEP3TCB@plt
 335      E7800000 
 336              	.LVL26:
  65:src/interruptRoutine.cpp ****                     (*((thread_t*)a1))->setStatus(TCB::ACTIVE);
 337              		.loc 1 65 21 is_stmt 1
 338              		.loc 1 65 50 is_stmt 0
 339 0184 833784FB 		ld	a5,-72(s0)
 340 0188 83B70700 		ld	a5,0(a5)
 341 018c 93051000 		li	a1,1
 342 0190 13850700 		mv	a0,a5
 343 0194 97000000 		call	_ZN3TCB9setStatusENS_12ThreadStatusE
 343      E7800000 
 344              	.LVL27:
 345              	.L24:
  66:src/interruptRoutine.cpp ****                 }
  67:src/interruptRoutine.cpp ****                 if (*((thread_t*)a1) != nullptr) {
 346              		.loc 1 67 17 is_stmt 1
 347              		.loc 1 67 21 is_stmt 0
 348 019c 833784FB 		ld	a5,-72(s0)
 349 01a0 83B70700 		ld	a5,0(a5)
 350              		.loc 1 67 17
 351 01a4 63860700 		beqz	a5,.L25
  68:src/interruptRoutine.cpp ****                     __asm__ volatile("li a0, 0");
 352              		.loc 1 68 21 is_stmt 1
 353              		.loc 1 68 49 is_stmt 0
 354              	#APP
 355              	# 68 "src/interruptRoutine.cpp" 1
  69              	                } else {
 356              		li a0, 0
 357              	# 0 "" 2
 358              	#NO_APP
 359 01ac 6F008000 		j	.L26
 360              	.L25:
  70:src/interruptRoutine.cpp ****                     __asm__ volatile("li a0, -1");
 361              		.loc 1 70 21 is_stmt 1
GAS LISTING /tmp/cc8LWnaq.s 			page 9


 362              		.loc 1 70 50 is_stmt 0
 363              	#APP
 364              	# 70 "src/interruptRoutine.cpp" 1
  71              	                }
 365              		li a0, -1
 366              	# 0 "" 2
 367              	#NO_APP
 368              	.L26:
  72:src/interruptRoutine.cpp ****                 __asm__ volatile("sd a0, 80(s0)");
 369              		.loc 1 72 17 is_stmt 1
 370              		.loc 1 72 50 is_stmt 0
 371              	#APP
 372              	# 72 "src/interruptRoutine.cpp" 1
  73              	                break;
 373              		sd a0, 80(s0)
 374              	# 0 "" 2
 375              		.loc 1 73 17 is_stmt 1
 376              	#NO_APP
 377 01b8 6F004023 		j	.L23
 378              	.LVL28:
 379              	.L18:
  74:src/interruptRoutine.cpp ****             case 0x12:
 380              		.loc 1 74 13
  75:src/interruptRoutine.cpp ****                 //thread_exit
  76:src/interruptRoutine.cpp ****                 //TCB::running->setFinished(true);
  77:src/interruptRoutine.cpp ****                 TCB::running->setStatus(TCB::FINISHED);
 381              		.loc 1 77 17
 382              		.loc 1 77 40 is_stmt 0
 383 01bc 97070000 		la	a5,_ZN3TCB7runningE
 383      83B70700 
 384 01c4 83B70700 		ld	a5,0(a5)
 385 01c8 93055000 		li	a1,5
 386 01cc 13850700 		mv	a0,a5
 387 01d0 97000000 		call	_ZN3TCB9setStatusENS_12ThreadStatusE
 387      E7800000 
 388              	.LVL29:
  78:src/interruptRoutine.cpp ****                 TCB::releaseJoined();
 389              		.loc 1 78 17 is_stmt 1
 390              		.loc 1 78 35 is_stmt 0
 391 01d8 97000000 		call	_ZN3TCB13releaseJoinedEv@plt
 391      E7800000 
 392              	.LVL30:
  79:src/interruptRoutine.cpp ****                 TCB::yield();
 393              		.loc 1 79 17 is_stmt 1
 394              		.loc 1 79 27 is_stmt 0
 395 01e0 97000000 		call	_ZN3TCB5yieldEv@plt
 395      E7800000 
 396              	.LVL31:
  80:src/interruptRoutine.cpp ****                 break;
 397              		.loc 1 80 17 is_stmt 1
 398 01e8 6F004020 		j	.L23
 399              	.LVL32:
 400              	.L17:
  81:src/interruptRoutine.cpp ****             case 0x13:
 401              		.loc 1 81 13
  82:src/interruptRoutine.cpp ****                 //thread_dispatch
  83:src/interruptRoutine.cpp ****                 TCB::yield();
GAS LISTING /tmp/cc8LWnaq.s 			page 10


 402              		.loc 1 83 17
 403              		.loc 1 83 27 is_stmt 0
 404 01ec 97000000 		call	_ZN3TCB5yieldEv@plt
 404      E7800000 
 405              	.LVL33:
  84:src/interruptRoutine.cpp ****                 //TCB::dispatch();
  85:src/interruptRoutine.cpp ****                 break;
 406              		.loc 1 85 17 is_stmt 1
 407 01f4 6F00801F 		j	.L23
 408              	.LVL34:
 409              	.L16:
  86:src/interruptRoutine.cpp ****             case 0x14:
 410              		.loc 1 86 13
  87:src/interruptRoutine.cpp ****                 //thread_join
  88:src/interruptRoutine.cpp ****                 //a1 = rucka niti na koju tekuca nit treba da ceka
  89:src/interruptRoutine.cpp ****                 TCB::threadJoin((thread_t)a1);
 411              		.loc 1 89 17
 412              		.loc 1 89 32 is_stmt 0
 413 01f8 833784FB 		ld	a5,-72(s0)
 414 01fc 13850700 		mv	a0,a5
 415 0200 97000000 		call	_ZN3TCB10threadJoinEPS_@plt
 415      E7800000 
 416              	.LVL35:
  90:src/interruptRoutine.cpp ****                 TCB::yield();
 417              		.loc 1 90 17 is_stmt 1
 418              		.loc 1 90 27 is_stmt 0
 419 0208 97000000 		call	_ZN3TCB5yieldEv@plt
 419      E7800000 
 420              	.LVL36:
  91:src/interruptRoutine.cpp ****                 break;
 421              		.loc 1 91 17 is_stmt 1
 422 0210 6F00C01D 		j	.L23
 423              	.LVL37:
 424              	.L15:
  92:src/interruptRoutine.cpp ****             case 0x21:
 425              		.loc 1 92 13
  93:src/interruptRoutine.cpp ****                 //sem_open
  94:src/interruptRoutine.cpp ****                 //a1 = pokazivac na rucku semafora, u koju se upisuje adresa semafora u memoriji
  95:src/interruptRoutine.cpp ****                 *((sem_t*)a1) = KSem::initSem((uint)a2);
 426              		.loc 1 95 17
 427              		.loc 1 95 46 is_stmt 0
 428 0214 833704FB 		ld	a5,-80(s0)
 429 0218 9B870700 		sext.w	a5,a5
 430              		.loc 1 95 17
 431 021c 833484FB 		ld	s1,-72(s0)
 432              		.loc 1 95 46
 433 0220 13850700 		mv	a0,a5
 434 0224 97000000 		call	_ZN4KSem7initSemEj@plt
 434      E7800000 
 435              	.LVL38:
 436 022c 93070500 		mv	a5,a0
 437              		.loc 1 95 31
 438 0230 23B0F400 		sd	a5,0(s1)
  96:src/interruptRoutine.cpp ****                 if (*((sem_t*)a1) != nullptr) {
 439              		.loc 1 96 17 is_stmt 1
 440              		.loc 1 96 21 is_stmt 0
 441 0234 833784FB 		ld	a5,-72(s0)
GAS LISTING /tmp/cc8LWnaq.s 			page 11


 442 0238 83B70700 		ld	a5,0(a5)
 443              		.loc 1 96 17
 444 023c 63860700 		beqz	a5,.L27
  97:src/interruptRoutine.cpp ****                     __asm__ volatile("li a0, 0");
 445              		.loc 1 97 21 is_stmt 1
 446              		.loc 1 97 49 is_stmt 0
 447              	#APP
 448              	# 97 "src/interruptRoutine.cpp" 1
  98              	                } else {
 449              		li a0, 0
 450              	# 0 "" 2
 451              	#NO_APP
 452 0244 6F008000 		j	.L28
 453              	.L27:
  99:src/interruptRoutine.cpp ****                     __asm__ volatile("li a0, -1");
 454              		.loc 1 99 21 is_stmt 1
 455              		.loc 1 99 50 is_stmt 0
 456              	#APP
 457              	# 99 "src/interruptRoutine.cpp" 1
 100              	                }
 458              		li a0, -1
 459              	# 0 "" 2
 460              	#NO_APP
 461              	.L28:
 101:src/interruptRoutine.cpp ****                 __asm__ volatile("sd a0, 80(s0)");
 462              		.loc 1 101 17 is_stmt 1
 463              		.loc 1 101 50 is_stmt 0
 464              	#APP
 465              	# 101 "src/interruptRoutine.cpp" 1
 102              	                break;
 466              		sd a0, 80(s0)
 467              	# 0 "" 2
 468              		.loc 1 102 17 is_stmt 1
 469              	#NO_APP
 470 0250 6F00C019 		j	.L23
 471              	.LVL39:
 472              	.L14:
 103:src/interruptRoutine.cpp ****             case 0x22:
 473              		.loc 1 103 13
 104:src/interruptRoutine.cpp ****                 //sem_close
 105:src/interruptRoutine.cpp ****                 //a1 = rucka semafora
 106:src/interruptRoutine.cpp ****                 KSem::closeSem((sem_t)a1);
 474              		.loc 1 106 17
 475              		.loc 1 106 31 is_stmt 0
 476 0254 833784FB 		ld	a5,-72(s0)
 477 0258 13850700 		mv	a0,a5
 478 025c 97000000 		call	_ZN4KSem8closeSemEPS_@plt
 478      E7800000 
 479              	.LVL40:
 107:src/interruptRoutine.cpp ****                 __asm__ volatile("sd a0, 80(s0)");
 480              		.loc 1 107 17 is_stmt 1
 481              		.loc 1 107 50 is_stmt 0
 482              	#APP
 483              	# 107 "src/interruptRoutine.cpp" 1
 108              	                break;
 484              		sd a0, 80(s0)
 485              	# 0 "" 2
GAS LISTING /tmp/cc8LWnaq.s 			page 12


 486              		.loc 1 108 17 is_stmt 1
 487              	#NO_APP
 488 0268 6F004018 		j	.L23
 489              	.LVL41:
 490              	.L13:
 109:src/interruptRoutine.cpp ****             case 0x23:
 491              		.loc 1 109 13
 110:src/interruptRoutine.cpp ****                 //sem_wait
 111:src/interruptRoutine.cpp ****                 //a1 = rucka semafora
 112:src/interruptRoutine.cpp ****                 ((sem_t)a1)->wait();
 492              		.loc 1 112 17
 493              		.loc 1 112 34 is_stmt 0
 494 026c 833784FB 		ld	a5,-72(s0)
 495 0270 13850700 		mv	a0,a5
 496 0274 97000000 		call	_ZN4KSem4waitEv@plt
 496      E7800000 
 497              	.LVL42:
 113:src/interruptRoutine.cpp ****                 __asm__ volatile("sd a0, 80(s0)");
 498              		.loc 1 113 17 is_stmt 1
 499              		.loc 1 113 50 is_stmt 0
 500              	#APP
 501              	# 113 "src/interruptRoutine.cpp" 1
 114              	                break;
 502              		sd a0, 80(s0)
 503              	# 0 "" 2
 504              		.loc 1 114 17 is_stmt 1
 505              	#NO_APP
 506 0280 6F00C016 		j	.L23
 507              	.LVL43:
 508              	.L12:
 115:src/interruptRoutine.cpp ****             case 0x24:
 509              		.loc 1 115 13
 116:src/interruptRoutine.cpp ****                 //sem_signal
 117:src/interruptRoutine.cpp ****                 //a1 = rucka semafora
 118:src/interruptRoutine.cpp ****                 ((sem_t)a1)->signal();
 510              		.loc 1 118 17
 511              		.loc 1 118 36 is_stmt 0
 512 0284 833784FB 		ld	a5,-72(s0)
 513 0288 13850700 		mv	a0,a5
 514 028c 97000000 		call	_ZN4KSem6signalEv@plt
 514      E7800000 
 515              	.LVL44:
 119:src/interruptRoutine.cpp ****                 __asm__ volatile("sd a0, 80(s0)");
 516              		.loc 1 119 17 is_stmt 1
 517              		.loc 1 119 50 is_stmt 0
 518              	#APP
 519              	# 119 "src/interruptRoutine.cpp" 1
 120              	                break;
 520              		sd a0, 80(s0)
 521              	# 0 "" 2
 522              		.loc 1 120 17 is_stmt 1
 523              	#NO_APP
 524 0298 6F004015 		j	.L23
 525              	.LVL45:
 526              	.L11:
 121:src/interruptRoutine.cpp ****             case 0x31:
 527              		.loc 1 121 13
GAS LISTING /tmp/cc8LWnaq.s 			page 13


 122:src/interruptRoutine.cpp ****                 //time_sleep
 123:src/interruptRoutine.cpp ****                 //a1 = broj perioda tajmera na koji se uspavljuje tekuca nit
 124:src/interruptRoutine.cpp ****                 if ((time_t)a1 > 0) {
 528              		.loc 1 124 17
 529 029c 833784FB 		ld	a5,-72(s0)
 530 02a0 63860700 		beqz	a5,.L29
 125:src/interruptRoutine.cpp ****                     __asm__ volatile("li a0, 0");
 531              		.loc 1 125 21
 532              		.loc 1 125 49 is_stmt 0
 533              	#APP
 534              	# 125 "src/interruptRoutine.cpp" 1
 126              	                } else {
 535              		li a0, 0
 536              	# 0 "" 2
 537              	#NO_APP
 538 02a8 6F008000 		j	.L30
 539              	.L29:
 127:src/interruptRoutine.cpp ****                     __asm__ volatile("li a0, -1");
 540              		.loc 1 127 21 is_stmt 1
 541              		.loc 1 127 50 is_stmt 0
 542              	#APP
 543              	# 127 "src/interruptRoutine.cpp" 1
 128              	                }
 544              		li a0, -1
 545              	# 0 "" 2
 546              	#NO_APP
 547              	.L30:
 129:src/interruptRoutine.cpp ****                 __asm__ volatile("sd a0, 80(s0)");
 548              		.loc 1 129 17 is_stmt 1
 549              		.loc 1 129 50 is_stmt 0
 550              	#APP
 551              	# 129 "src/interruptRoutine.cpp" 1
 130              	                if ((time_t)a1 > 0) {
 552              		sd a0, 80(s0)
 553              	# 0 "" 2
 554              		.loc 1 130 17 is_stmt 1
 555              	#NO_APP
 556 02b4 833784FB 		ld	a5,-72(s0)
 557 02b8 63880712 		beqz	a5,.L40
 131:src/interruptRoutine.cpp ****                     Scheduler::putToSleep(TCB::running, (time_t)a1);
 558              		.loc 1 131 21
 559              		.loc 1 131 42 is_stmt 0
 560 02bc 97070000 		la	a5,_ZN3TCB7runningE
 560      83B70700 
 561 02c4 83B70700 		ld	a5,0(a5)
 562 02c8 833584FB 		ld	a1,-72(s0)
 563 02cc 13850700 		mv	a0,a5
 564 02d0 97000000 		call	_ZN9Scheduler10putToSleepEP3TCBm@plt
 564      E7800000 
 565              	.LVL46:
 132:src/interruptRoutine.cpp ****                     TCB::yield();
 566              		.loc 1 132 21 is_stmt 1
 567              		.loc 1 132 31 is_stmt 0
 568 02d8 97000000 		call	_ZN3TCB5yieldEv@plt
 568      E7800000 
 569              	.LVL47:
 133:src/interruptRoutine.cpp ****                 }
GAS LISTING /tmp/cc8LWnaq.s 			page 14


 134:src/interruptRoutine.cpp ****                 break;
 570              		.loc 1 134 17 is_stmt 1
 571 02e0 6F008010 		j	.L40
 572              	.LVL48:
 573              	.L10:
 135:src/interruptRoutine.cpp ****             case 0x41:
 574              		.loc 1 135 13
 136:src/interruptRoutine.cpp ****                 //getc
 137:src/interruptRoutine.cpp ****                 KConsole::kgetc();
 575              		.loc 1 137 17
 576              		.loc 1 137 32 is_stmt 0
 577 02e4 97000000 		call	_ZN8KConsole5kgetcEv@plt
 577      E7800000 
 578              	.LVL49:
 138:src/interruptRoutine.cpp ****                 __asm__ volatile("sd a0, 80(s0)");
 579              		.loc 1 138 17 is_stmt 1
 580              		.loc 1 138 50 is_stmt 0
 581              	#APP
 582              	# 138 "src/interruptRoutine.cpp" 1
 139              	                break;
 583              		sd a0, 80(s0)
 584              	# 0 "" 2
 585              		.loc 1 139 17 is_stmt 1
 586              	#NO_APP
 587 02f0 6F00C00F 		j	.L23
 588              	.LVL50:
 589              	.L8:
 140:src/interruptRoutine.cpp ****             case 0x42:
 590              		.loc 1 140 13
 141:src/interruptRoutine.cpp ****                 //putc
 142:src/interruptRoutine.cpp ****                 //a1 = karakter koji se upisuje u bafer za ispis na konzolu
 143:src/interruptRoutine.cpp ****                 KConsole::kputc((char)a1);
 591              		.loc 1 143 17
 592              		.loc 1 143 32 is_stmt 0
 593 02f4 833784FB 		ld	a5,-72(s0)
 594 02f8 93F7F70F 		andi	a5,a5,0xff
 595 02fc 13850700 		mv	a0,a5
 596 0300 97000000 		call	_ZN8KConsole5kputcEc@plt
 596      E7800000 
 597              	.LVL51:
 144:src/interruptRoutine.cpp ****                 break;
 598              		.loc 1 144 17 is_stmt 1
 599 0308 6F00400E 		j	.L23
 600              	.LVL52:
 601              	.L22:
 145:src/interruptRoutine.cpp ****             case 0x80:
 602              		.loc 1 145 13
 146:src/interruptRoutine.cpp ****                 //alloc thread
 147:src/interruptRoutine.cpp ****                 //a1 = pokazivac na rucku u koju upisujemo identifikator niti(adresa u memoriji)
 148:src/interruptRoutine.cpp ****                 //a2 = pokazivac na funkciju koju nit treba da izvrsava
 149:src/interruptRoutine.cpp ****                 //a3 = argumenti funkcije koju nit treba da izvrsava
 150:src/interruptRoutine.cpp ****                 //a4 = poslednja lokacija alociranog steka(najniza adresa)
 151:src/interruptRoutine.cpp ****                 *((thread_t*)a1) = TCB::createThread((TCB::Body)a2, (void*)a3, (uint64*)a4);
 603              		.loc 1 151 17
 604              		.loc 1 151 53 is_stmt 0
 605 030c 833704FB 		ld	a5,-80(s0)
 606 0310 033784FA 		ld	a4,-88(s0)
GAS LISTING /tmp/cc8LWnaq.s 			page 15


 607 0314 833604FA 		ld	a3,-96(s0)
 608              		.loc 1 151 17
 609 0318 833484FB 		ld	s1,-72(s0)
 610              		.loc 1 151 53
 611 031c 13860600 		mv	a2,a3
 612 0320 93050700 		mv	a1,a4
 613 0324 13850700 		mv	a0,a5
 614 0328 97000000 		call	_ZN3TCB12createThreadEPFvPvES0_Pm@plt
 614      E7800000 
 615              	.LVL53:
 616 0330 93070500 		mv	a5,a0
 617              		.loc 1 151 34
 618 0334 23B0F400 		sd	a5,0(s1)
 152:src/interruptRoutine.cpp ****                 if (*((thread_t*)a1) != nullptr) {
 619              		.loc 1 152 17 is_stmt 1
 620              		.loc 1 152 21 is_stmt 0
 621 0338 833784FB 		ld	a5,-72(s0)
 622 033c 83B70700 		ld	a5,0(a5)
 623              		.loc 1 152 17
 624 0340 63860700 		beqz	a5,.L32
 153:src/interruptRoutine.cpp ****                     __asm__ volatile("li a0, 0");
 625              		.loc 1 153 21 is_stmt 1
 626              		.loc 1 153 49 is_stmt 0
 627              	#APP
 628              	# 153 "src/interruptRoutine.cpp" 1
 154              	                } else {
 629              		li a0, 0
 630              	# 0 "" 2
 631              	#NO_APP
 632 0348 6F008000 		j	.L33
 633              	.L32:
 155:src/interruptRoutine.cpp ****                     __asm__ volatile("li a0, -1");
 634              		.loc 1 155 21 is_stmt 1
 635              		.loc 1 155 50 is_stmt 0
 636              	#APP
 637              	# 155 "src/interruptRoutine.cpp" 1
 156              	                }
 638              		li a0, -1
 639              	# 0 "" 2
 640              	#NO_APP
 641              	.L33:
 157:src/interruptRoutine.cpp ****                 __asm__ volatile("sd a0, 80(s0)");
 642              		.loc 1 157 17 is_stmt 1
 643              		.loc 1 157 50 is_stmt 0
 644              	#APP
 645              	# 157 "src/interruptRoutine.cpp" 1
 158              	                break;
 646              		sd a0, 80(s0)
 647              	# 0 "" 2
 648              		.loc 1 158 17 is_stmt 1
 649              	#NO_APP
 650 0354 6F008009 		j	.L23
 651              	.LVL54:
 652              	.L6:
 159:src/interruptRoutine.cpp ****             case 0x81:
 653              		.loc 1 159 13
 160:src/interruptRoutine.cpp ****                 //start thread
GAS LISTING /tmp/cc8LWnaq.s 			page 16


 161:src/interruptRoutine.cpp ****                 //a1 = rucka niti koja se stavlja u scheduler
 162:src/interruptRoutine.cpp ****                 //if (((thread_t)a1)->getBody() != nullptr) {
 163:src/interruptRoutine.cpp ****                     Scheduler::put((thread_t)a1);
 654              		.loc 1 163 21
 655              		.loc 1 163 35 is_stmt 0
 656 0358 833784FB 		ld	a5,-72(s0)
 657 035c 13850700 		mv	a0,a5
 658 0360 97000000 		call	_ZN9Scheduler3putEP3TCB@plt
 658      E7800000 
 659              	.LVL55:
 164:src/interruptRoutine.cpp ****                     ((thread_t)a1)->setStatus(TCB::ACTIVE);
 660              		.loc 1 164 21 is_stmt 1
 661              		.loc 1 164 46 is_stmt 0
 662 0368 833784FB 		ld	a5,-72(s0)
 663 036c 93051000 		li	a1,1
 664 0370 13850700 		mv	a0,a5
 665 0374 97000000 		call	_ZN3TCB9setStatusENS_12ThreadStatusE
 665      E7800000 
 666              	.LVL56:
 165:src/interruptRoutine.cpp ****                 //}
 166:src/interruptRoutine.cpp ****                 break;
 667              		.loc 1 166 17 is_stmt 1
 668 037c 6F000007 		j	.L23
 669              	.LVL57:
 670              	.L4:
 167:src/interruptRoutine.cpp ****             case 0x91:
 671              		.loc 1 167 13
 168:src/interruptRoutine.cpp ****                 //printInteger
 169:src/interruptRoutine.cpp ****                 //a1 = integer za ispis
 170:src/interruptRoutine.cpp ****                 kPrintInt(a1);
 672              		.loc 1 170 17
 673              		.loc 1 170 26 is_stmt 0
 674 0380 033584FB 		ld	a0,-72(s0)
 675 0384 97000000 		call	_Z9kPrintIntm@plt
 675      E7800000 
 676              	.LVL58:
 171:src/interruptRoutine.cpp ****                 break;
 677              		.loc 1 171 17 is_stmt 1
 678 038c 6F000006 		j	.L23
 679              	.LVL59:
 680              	.L5:
 172:src/interruptRoutine.cpp ****             default:
 681              		.loc 1 172 13
 173:src/interruptRoutine.cpp ****                 printString("\nNepostojeci op code: ");
 682              		.loc 1 173 17
 683              		.loc 1 173 28 is_stmt 0
 684 0390 17050000 		lla	a0,.LC0
 684      13050500 
 685 0398 97000000 		call	_Z11printStringPKc@plt
 685      E7800000 
 686              	.LVL60:
 174:src/interruptRoutine.cpp ****                 kPrintInt(a0);
 687              		.loc 1 174 17 is_stmt 1
 688              		.loc 1 174 26 is_stmt 0
 689 03a0 033504FC 		ld	a0,-64(s0)
 690 03a4 97000000 		call	_Z9kPrintIntm@plt
 690      E7800000 
GAS LISTING /tmp/cc8LWnaq.s 			page 17


 691              	.LVL61:
 175:src/interruptRoutine.cpp ****                 printString("\nscause: ");
 692              		.loc 1 175 17 is_stmt 1
 693              		.loc 1 175 28 is_stmt 0
 694 03ac 17050000 		lla	a0,.LC1
 694      13050500 
 695 03b4 97000000 		call	_Z11printStringPKc@plt
 695      E7800000 
 696              	.LVL62:
 176:src/interruptRoutine.cpp ****                 kPrintInt(scause);
 697              		.loc 1 176 17 is_stmt 1
 698              		.loc 1 176 26 is_stmt 0
 699 03bc 033584FD 		ld	a0,-40(s0)
 700 03c0 97000000 		call	_Z9kPrintIntm@plt
 700      E7800000 
 701              	.LVL63:
 177:src/interruptRoutine.cpp ****                 printString("\nsepc: ");
 702              		.loc 1 177 17 is_stmt 1
 703              		.loc 1 177 28 is_stmt 0
 704 03c8 17050000 		lla	a0,.LC2
 704      13050500 
 705 03d0 97000000 		call	_Z11printStringPKc@plt
 705      E7800000 
 706              	.LVL64:
 178:src/interruptRoutine.cpp ****                 kPrintInt(sepc);
 707              		.loc 1 178 17 is_stmt 1
 708              		.loc 1 178 26 is_stmt 0
 709 03d8 033504FD 		ld	a0,-48(s0)
 710 03dc 97000000 		call	_Z9kPrintIntm@plt
 710      E7800000 
 711              	.LVL65:
 179:src/interruptRoutine.cpp ****                 break;
 712              		.loc 1 179 17 is_stmt 1
 713 03e4 6F008000 		j	.L23
 714              	.L40:
 134:src/interruptRoutine.cpp ****             case 0x41:
 715              		.loc 1 134 17 is_stmt 0
 716 03e8 13000000 		nop
 717              	.L23:
 180:src/interruptRoutine.cpp ****         }
 181:src/interruptRoutine.cpp ****         //sepc pokazuje na ecall instrukciju, treba preci na sledecu instrukciju
 182:src/interruptRoutine.cpp ****         sepc += 4;
 718              		.loc 1 182 9 is_stmt 1
 719              		.loc 1 182 14 is_stmt 0
 720 03ec 833704FD 		ld	a5,-48(s0)
 721 03f0 93874700 		addi	a5,a5,4
 722 03f4 2338F4FC 		sd	a5,-48(s0)
 723              	.LVL66:
 183:src/interruptRoutine.cpp ****         __asm__ volatile("csrw sepc, %[sepc]": :[sepc] "r"(sepc));
 724              		.loc 1 183 9 is_stmt 1
 725              		.loc 1 183 66 is_stmt 0
 726 03f8 833704FD 		ld	a5,-48(s0)
 727              	#APP
 728              	# 183 "src/interruptRoutine.cpp" 1
 184              	        __asm__ volatile("csrw sstatus, %[stat]": :[stat]"r"(sstatus));
 729              		csrw sepc, a5
 730              	# 0 "" 2
GAS LISTING /tmp/cc8LWnaq.s 			page 18


 731              		.loc 1 184 9 is_stmt 1
 732              		.loc 1 184 71 is_stmt 0
 733              	#NO_APP
 734 0400 833784FC 		ld	a5,-56(s0)
 735              	.LVL67:
 736              	#APP
 737              	# 184 "src/interruptRoutine.cpp" 1
 185              	    } else if (scause == 0x8000000000000009) {
 738              		csrw sstatus, a5
 739              	# 0 "" 2
 740              	#NO_APP
 741              	.LBE2:
 186:src/interruptRoutine.cpp ****         //spoljasnji hardverski prekid (od konzole)
 187:src/interruptRoutine.cpp ****         uint64 irq = plic_claim();
 188:src/interruptRoutine.cpp ****         if (irq == CONSOLE_IRQ) {
 189:src/interruptRoutine.cpp ****             if (*KConsole::sr & CONSOLE_RX_STATUS_BIT) {
 190:src/interruptRoutine.cpp ****                 KConsole::placeInInput(*KConsole::dr);
 191:src/interruptRoutine.cpp ****             }
 192:src/interruptRoutine.cpp ****             //printString("\nobradjen prekid konzole\n");
 193:src/interruptRoutine.cpp ****         } else {
 194:src/interruptRoutine.cpp ****             printString("Neki drugi prekid\n");
 195:src/interruptRoutine.cpp ****         }
 196:src/interruptRoutine.cpp ****         plic_complete(irq);
 197:src/interruptRoutine.cpp ****         __asm__ volatile("csrw sepc, %[sepc]": :[sepc] "r"(sepc));
 198:src/interruptRoutine.cpp ****         __asm__ volatile("csrw sstatus, %[stat]": :[stat]"r"(sstatus));
 199:src/interruptRoutine.cpp ****         Riscv::mc_sip(Riscv::SIP_SEIP);
 200:src/interruptRoutine.cpp ****     } else if (scause == 0x8000000000000001) {
 201:src/interruptRoutine.cpp ****         //prekid od tajmera
 202:src/interruptRoutine.cpp ****         //printString("\nPrekid od tajmera\n");
 203:src/interruptRoutine.cpp ****         Scheduler::wake();
 204:src/interruptRoutine.cpp ****         TCB::runningTimeSlice++;
 205:src/interruptRoutine.cpp ****         if (TCB::runningTimeSlice >= TCB::running->getTimeSlice()) {
 206:src/interruptRoutine.cpp ****             //printString("\nMenjam kontekst\n");
 207:src/interruptRoutine.cpp ****             TCB::yield();
 208:src/interruptRoutine.cpp ****             //TCB::dispatch();
 209:src/interruptRoutine.cpp ****             //TCB::runningTimeSlice = 0;
 210:src/interruptRoutine.cpp ****         }
 211:src/interruptRoutine.cpp **** 
 212:src/interruptRoutine.cpp ****         __asm__ volatile("csrw sepc, %[sepc]": :[sepc] "r"(sepc));
 213:src/interruptRoutine.cpp ****         __asm__ volatile("csrw sstatus, %[stat]": :[stat]"r"(sstatus));
 214:src/interruptRoutine.cpp ****         Riscv::mc_sip(Riscv::SIP_SSIP);
 215:src/interruptRoutine.cpp ****     } else {
 216:src/interruptRoutine.cpp ****         printString("\nGreska u prekidnoj rutini\n");
 217:src/interruptRoutine.cpp ****         printString("scause: ");
 218:src/interruptRoutine.cpp ****         kPrintInt(scause);
 219:src/interruptRoutine.cpp ****         printString("\nsepc: ");
 220:src/interruptRoutine.cpp ****         kPrintInt(sepc);
 221:src/interruptRoutine.cpp ****     }
 222:src/interruptRoutine.cpp **** }
 742              		.loc 1 222 1
 743 0408 6F000019 		j	.L41
 744              	.LVL68:
 745              	.L3:
 746              	.LBB10:
 747              	.LBB3:
 185:src/interruptRoutine.cpp ****         //spoljasnji hardverski prekid (od konzole)
 748              		.loc 1 185 12 is_stmt 1
GAS LISTING /tmp/cc8LWnaq.s 			page 19


 749              	.LBB4:
 750 040c 033784FD 		ld	a4,-40(s0)
 751              	.LVL69:
 752 0410 9307F0FF 		li	a5,-1
 753 0414 9397F703 		slli	a5,a5,63
 754 0418 93879700 		addi	a5,a5,9
 755 041c 631EF708 		bne	a4,a5,.L35
 756              	.LBB5:
 187:src/interruptRoutine.cpp ****         if (irq == CONSOLE_IRQ) {
 757              		.loc 1 187 9
 187:src/interruptRoutine.cpp ****         if (irq == CONSOLE_IRQ) {
 758              		.loc 1 187 32 is_stmt 0
 759 0420 97000000 		call	plic_claim@plt
 759      E7800000 
 760              	.LVL70:
 761 0428 93070500 		mv	a5,a0
 187:src/interruptRoutine.cpp ****         if (irq == CONSOLE_IRQ) {
 762              		.loc 1 187 33
 763 042c 2330F4F8 		sd	a5,-128(s0)
 764              	.LVL71:
 188:src/interruptRoutine.cpp ****             if (*KConsole::sr & CONSOLE_RX_STATUS_BIT) {
 765              		.loc 1 188 9 is_stmt 1
 766 0430 033704F8 		ld	a4,-128(s0)
 767 0434 9307A000 		li	a5,10
 768 0438 631EF702 		bne	a4,a5,.L36
 189:src/interruptRoutine.cpp ****                 KConsole::placeInInput(*KConsole::dr);
 769              		.loc 1 189 13
 189:src/interruptRoutine.cpp ****                 KConsole::placeInInput(*KConsole::dr);
 770              		.loc 1 189 17 is_stmt 0
 771 043c 97070000 		la	a5,_ZN8KConsole2srE
 771      83B70700 
 772 0444 83B70700 		ld	a5,0(a5)
 773 0448 83C70700 		lbu	a5,0(a5)
 189:src/interruptRoutine.cpp ****                 KConsole::placeInInput(*KConsole::dr);
 774              		.loc 1 189 31
 775 044c 93F71700 		andi	a5,a5,1
 189:src/interruptRoutine.cpp ****                 KConsole::placeInInput(*KConsole::dr);
 776              		.loc 1 189 13
 777 0450 638A0702 		beqz	a5,.L37
 190:src/interruptRoutine.cpp ****             }
 778              		.loc 1 190 17 is_stmt 1
 190:src/interruptRoutine.cpp ****             }
 779              		.loc 1 190 39 is_stmt 0
 780 0454 97070000 		la	a5,_ZN8KConsole2drE
 780      83B70700 
 781 045c 83B70700 		ld	a5,0(a5)
 782 0460 83C70700 		lbu	a5,0(a5)
 783 0464 13850700 		mv	a0,a5
 784              	.LVL72:
 785 0468 97000000 		call	_ZN8KConsole12placeInInputEc@plt
 785      E7800000 
 786              	.LVL73:
 787 0470 6F004001 		j	.L37
 788              	.LVL74:
 789              	.L36:
 194:src/interruptRoutine.cpp ****         }
 790              		.loc 1 194 13 is_stmt 1
GAS LISTING /tmp/cc8LWnaq.s 			page 20


 194:src/interruptRoutine.cpp ****         }
 791              		.loc 1 194 24 is_stmt 0
 792 0474 17050000 		lla	a0,.LC3
 792      13050500 
 793              	.LVL75:
 794 047c 97000000 		call	_Z11printStringPKc@plt
 794      E7800000 
 795              	.LVL76:
 796              	.L37:
 196:src/interruptRoutine.cpp ****         __asm__ volatile("csrw sepc, %[sepc]": :[sepc] "r"(sepc));
 797              		.loc 1 196 9 is_stmt 1
 196:src/interruptRoutine.cpp ****         __asm__ volatile("csrw sepc, %[sepc]": :[sepc] "r"(sepc));
 798              		.loc 1 196 22 is_stmt 0
 799 0484 833704F8 		ld	a5,-128(s0)
 800 0488 9B870700 		sext.w	a5,a5
 801 048c 13850700 		mv	a0,a5
 802 0490 97000000 		call	plic_complete@plt
 802      E7800000 
 803              	.LVL77:
 197:src/interruptRoutine.cpp ****         __asm__ volatile("csrw sstatus, %[stat]": :[stat]"r"(sstatus));
 804              		.loc 1 197 9 is_stmt 1
 197:src/interruptRoutine.cpp ****         __asm__ volatile("csrw sstatus, %[stat]": :[stat]"r"(sstatus));
 805              		.loc 1 197 66 is_stmt 0
 806 0498 833704FD 		ld	a5,-48(s0)
 807              	#APP
 808              	# 197 "src/interruptRoutine.cpp" 1
 198:src/interruptRoutine.cpp ****         Riscv::mc_sip(Riscv::SIP_SEIP);
 809              		csrw sepc, a5
 810              	# 0 "" 2
 811              		.loc 1 198 9 is_stmt 1
 198:src/interruptRoutine.cpp ****         Riscv::mc_sip(Riscv::SIP_SEIP);
 812              		.loc 1 198 71 is_stmt 0
 813              	#NO_APP
 814 04a0 833784FC 		ld	a5,-56(s0)
 815              	#APP
 816              	# 198 "src/interruptRoutine.cpp" 1
 199:src/interruptRoutine.cpp ****     } else if (scause == 0x8000000000000001) {
 817              		csrw sstatus, a5
 818              	# 0 "" 2
 819              		.loc 1 199 9 is_stmt 1
 199:src/interruptRoutine.cpp ****     } else if (scause == 0x8000000000000001) {
 820              		.loc 1 199 22 is_stmt 0
 821              	#NO_APP
 822 04a8 13050020 		li	a0,512
 823 04ac 97000000 		call	_ZN5Riscv6mc_sipEm
 823      E7800000 
 824              	.LVL78:
 825              	.LBE5:
 826              	.LBE4:
 827              	.LBE3:
 828              	.LBE10:
 829              		.loc 1 222 1
 830 04b4 6F00400E 		j	.L41
 831              	.LVL79:
 832              	.L35:
 833              	.LBB11:
 834              	.LBB8:
GAS LISTING /tmp/cc8LWnaq.s 			page 21


 835              	.LBB6:
 200:src/interruptRoutine.cpp ****         //prekid od tajmera
 836              		.loc 1 200 12 is_stmt 1
 837 04b8 033784FD 		ld	a4,-40(s0)
 838 04bc 9307F0FF 		li	a5,-1
 839 04c0 9397F703 		slli	a5,a5,63
 840 04c4 93871700 		addi	a5,a5,1
 841 04c8 6314F708 		bne	a4,a5,.L38
 203:src/interruptRoutine.cpp ****         TCB::runningTimeSlice++;
 842              		.loc 1 203 9
 203:src/interruptRoutine.cpp ****         TCB::runningTimeSlice++;
 843              		.loc 1 203 24 is_stmt 0
 844 04cc 97000000 		call	_ZN9Scheduler4wakeEv@plt
 844      E7800000 
 845              	.LVL80:
 204:src/interruptRoutine.cpp ****         if (TCB::runningTimeSlice >= TCB::running->getTimeSlice()) {
 846              		.loc 1 204 9 is_stmt 1
 204:src/interruptRoutine.cpp ****         if (TCB::runningTimeSlice >= TCB::running->getTimeSlice()) {
 847              		.loc 1 204 30 is_stmt 0
 848 04d4 97070000 		la	a5,_ZN3TCB16runningTimeSliceE
 848      83B70700 
 849 04dc 83B70700 		ld	a5,0(a5)
 850 04e0 13871700 		addi	a4,a5,1
 851 04e4 97070000 		la	a5,_ZN3TCB16runningTimeSliceE
 851      83B70700 
 852 04ec 23B0E700 		sd	a4,0(a5)
 205:src/interruptRoutine.cpp ****             //printString("\nMenjam kontekst\n");
 853              		.loc 1 205 9 is_stmt 1
 205:src/interruptRoutine.cpp ****             //printString("\nMenjam kontekst\n");
 854              		.loc 1 205 64 is_stmt 0
 855 04f0 97070000 		la	a5,_ZN3TCB7runningE
 855      83B70700 
 856 04f8 83B70700 		ld	a5,0(a5)
 857 04fc 13850700 		mv	a0,a5
 858 0500 97000000 		call	_ZN3TCB12getTimeSliceEv
 858      E7800000 
 859              	.LVL81:
 860 0508 13070500 		mv	a4,a0
 205:src/interruptRoutine.cpp ****             //printString("\nMenjam kontekst\n");
 861              		.loc 1 205 35
 862 050c 97070000 		la	a5,_ZN3TCB16runningTimeSliceE
 862      83B70700 
 863 0514 83B70700 		ld	a5,0(a5)
 864 0518 B3B7E700 		sgtu	a5,a4,a5
 865 051c 93C71700 		xori	a5,a5,1
 866 0520 93F7F70F 		andi	a5,a5,0xff
 205:src/interruptRoutine.cpp ****             //printString("\nMenjam kontekst\n");
 867              		.loc 1 205 9
 868 0524 63860700 		beqz	a5,.L39
 207:src/interruptRoutine.cpp ****             //TCB::dispatch();
 869              		.loc 1 207 13 is_stmt 1
 207:src/interruptRoutine.cpp ****             //TCB::dispatch();
 870              		.loc 1 207 23 is_stmt 0
 871 0528 97000000 		call	_ZN3TCB5yieldEv@plt
 871      E7800000 
 872              	.LVL82:
 873              	.L39:
GAS LISTING /tmp/cc8LWnaq.s 			page 22


 212:src/interruptRoutine.cpp ****         __asm__ volatile("csrw sstatus, %[stat]": :[stat]"r"(sstatus));
 874              		.loc 1 212 9 is_stmt 1
 212:src/interruptRoutine.cpp ****         __asm__ volatile("csrw sstatus, %[stat]": :[stat]"r"(sstatus));
 875              		.loc 1 212 66 is_stmt 0
 876 0530 833704FD 		ld	a5,-48(s0)
 877              	#APP
 878              	# 212 "src/interruptRoutine.cpp" 1
 213:src/interruptRoutine.cpp ****         Riscv::mc_sip(Riscv::SIP_SSIP);
 879              		csrw sepc, a5
 880              	# 0 "" 2
 881              		.loc 1 213 9 is_stmt 1
 213:src/interruptRoutine.cpp ****         Riscv::mc_sip(Riscv::SIP_SSIP);
 882              		.loc 1 213 71 is_stmt 0
 883              	#NO_APP
 884 0538 833784FC 		ld	a5,-56(s0)
 885              	#APP
 886              	# 213 "src/interruptRoutine.cpp" 1
 214:src/interruptRoutine.cpp ****     } else {
 887              		csrw sstatus, a5
 888              	# 0 "" 2
 889              		.loc 1 214 9 is_stmt 1
 214:src/interruptRoutine.cpp ****     } else {
 890              		.loc 1 214 22 is_stmt 0
 891              	#NO_APP
 892 0540 13052000 		li	a0,2
 893 0544 97000000 		call	_ZN5Riscv6mc_sipEm
 893      E7800000 
 894              	.LVL83:
 895              	.LBE6:
 896              	.LBE8:
 897              	.LBE11:
 898              		.loc 1 222 1
 899 054c 6F00C004 		j	.L41
 900              	.LVL84:
 901              	.L38:
 902              	.LBB12:
 903              	.LBB9:
 904              	.LBB7:
 216:src/interruptRoutine.cpp ****         printString("scause: ");
 905              		.loc 1 216 9 is_stmt 1
 216:src/interruptRoutine.cpp ****         printString("scause: ");
 906              		.loc 1 216 20 is_stmt 0
 907 0550 17050000 		lla	a0,.LC4
 907      13050500 
 908 0558 97000000 		call	_Z11printStringPKc@plt
 908      E7800000 
 909              	.LVL85:
 217:src/interruptRoutine.cpp ****         kPrintInt(scause);
 910              		.loc 1 217 9 is_stmt 1
 217:src/interruptRoutine.cpp ****         kPrintInt(scause);
 911              		.loc 1 217 20 is_stmt 0
 912 0560 17050000 		lla	a0,.LC5
 912      13050500 
 913 0568 97000000 		call	_Z11printStringPKc@plt
 913      E7800000 
 914              	.LVL86:
 218:src/interruptRoutine.cpp ****         printString("\nsepc: ");
GAS LISTING /tmp/cc8LWnaq.s 			page 23


 915              		.loc 1 218 9 is_stmt 1
 218:src/interruptRoutine.cpp ****         printString("\nsepc: ");
 916              		.loc 1 218 18 is_stmt 0
 917 0570 033584FD 		ld	a0,-40(s0)
 918 0574 97000000 		call	_Z9kPrintIntm@plt
 918      E7800000 
 919              	.LVL87:
 219:src/interruptRoutine.cpp ****         kPrintInt(sepc);
 920              		.loc 1 219 9 is_stmt 1
 219:src/interruptRoutine.cpp ****         kPrintInt(sepc);
 921              		.loc 1 219 20 is_stmt 0
 922 057c 17050000 		lla	a0,.LC2
 922      13050500 
 923 0584 97000000 		call	_Z11printStringPKc@plt
 923      E7800000 
 924              	.LVL88:
 220:src/interruptRoutine.cpp ****     }
 925              		.loc 1 220 9 is_stmt 1
 220:src/interruptRoutine.cpp ****     }
 926              		.loc 1 220 18 is_stmt 0
 927 058c 033504FD 		ld	a0,-48(s0)
 928 0590 97000000 		call	_Z9kPrintIntm@plt
 928      E7800000 
 929              	.LVL89:
 930              	.L41:
 931              	.LBE7:
 932              	.LBE9:
 933              	.LBE12:
 934              		.loc 1 222 1
 935 0598 13000000 		nop
 936 059c 83308107 		ld	ra,120(sp)
 937              		.cfi_restore 1
 938 05a0 03340107 		ld	s0,112(sp)
 939              		.cfi_restore 8
 940              		.cfi_def_cfa 2, 128
 941              	.LVL90:
 942 05a4 83348106 		ld	s1,104(sp)
 943              		.cfi_restore 9
 944 05a8 13010108 		addi	sp,sp,128
 945              		.cfi_def_cfa_offset 0
 946              	.LVL91:
 947 05ac 67800000 		jr	ra
 948              		.cfi_endproc
 949              	.LFE51:
 951              		.section	.text._ZN5Riscv6mc_sipEm,"axG",@progbits,_ZN5Riscv6mc_sipEm,comdat
 952              		.align	2
 953              		.weak	_ZN5Riscv6mc_sipEm
 955              	_ZN5Riscv6mc_sipEm:
 956              	.LFB10:
 957              		.file 2 "src/../h/Riscv.hpp"
   1:src/../h/Riscv.hpp **** //
   2:src/../h/Riscv.hpp **** // Created by os on 5/17/23.
   3:src/../h/Riscv.hpp **** //
   4:src/../h/Riscv.hpp **** 
   5:src/../h/Riscv.hpp **** #ifndef PROJEKAT2023_RISCV_HPP
   6:src/../h/Riscv.hpp **** #define PROJEKAT2023_RISCV_HPP
   7:src/../h/Riscv.hpp **** 
GAS LISTING /tmp/cc8LWnaq.s 			page 24


   8:src/../h/Riscv.hpp **** #include "../lib/hw.h"
   9:src/../h/Riscv.hpp **** 
  10:src/../h/Riscv.hpp **** class Riscv {
  11:src/../h/Riscv.hpp **** public:
  12:src/../h/Riscv.hpp **** 
  13:src/../h/Riscv.hpp **** 	static void popSppSpie();
  14:src/../h/Riscv.hpp **** 
  15:src/../h/Riscv.hpp **** 	//stavljanje registara x3-x31 na stek
  16:src/../h/Riscv.hpp **** 	static void pushRegisters();    //implementacija u asm
  17:src/../h/Riscv.hpp **** 
  18:src/../h/Riscv.hpp **** 	//skidanje registara x3-x31 sa steka
  19:src/../h/Riscv.hpp **** 	static void popRegisters();     //implementacija u asm
  20:src/../h/Riscv.hpp **** 
  21:src/../h/Riscv.hpp **** 	//read scause
  22:src/../h/Riscv.hpp **** 	static uint64 r_scause();
  23:src/../h/Riscv.hpp **** 
  24:src/../h/Riscv.hpp **** 	//write scause
  25:src/../h/Riscv.hpp **** 	static void w_scause(uint64 scause);
  26:src/../h/Riscv.hpp **** 
  27:src/../h/Riscv.hpp **** 	//read sepc
  28:src/../h/Riscv.hpp **** 	static uint64 r_sepc();
  29:src/../h/Riscv.hpp **** 
  30:src/../h/Riscv.hpp **** 	//write sepc
  31:src/../h/Riscv.hpp **** 	static void w_sepc(uint64 sepc);
  32:src/../h/Riscv.hpp **** 
  33:src/../h/Riscv.hpp **** 	//read stvec
  34:src/../h/Riscv.hpp **** 	static uint64 r_stvec();
  35:src/../h/Riscv.hpp **** 
  36:src/../h/Riscv.hpp **** 	//write stvec
  37:src/../h/Riscv.hpp **** 	static void w_stvec(uint64 stvec);
  38:src/../h/Riscv.hpp **** 
  39:src/../h/Riscv.hpp **** 	enum BitMaskSip {
  40:src/../h/Riscv.hpp **** 		//postoji zahtev za softverski prekid
  41:src/../h/Riscv.hpp **** 		SIP_SSIP = (1 << 1),
  42:src/../h/Riscv.hpp **** 		//postoji prekid od tajmera
  43:src/../h/Riscv.hpp **** 		SIP_STIP = (1 << 5),
  44:src/../h/Riscv.hpp **** 		//postoji zahtev za spoljasnji hardverski prekid
  45:src/../h/Riscv.hpp **** 		SIP_SEIP = (1 << 9)
  46:src/../h/Riscv.hpp **** 	};
  47:src/../h/Riscv.hpp **** 
  48:src/../h/Riscv.hpp **** 	//mask set sip
  49:src/../h/Riscv.hpp **** 	static void ms_sip(uint64 mask);
  50:src/../h/Riscv.hpp **** 
  51:src/../h/Riscv.hpp **** 	//mask clear sip
  52:src/../h/Riscv.hpp **** 	static void mc_sip(uint64 mask);
  53:src/../h/Riscv.hpp **** 
  54:src/../h/Riscv.hpp **** 	//read sip
  55:src/../h/Riscv.hpp **** 	static uint64 r_sip();
  56:src/../h/Riscv.hpp **** 
  57:src/../h/Riscv.hpp **** 	//write sip
  58:src/../h/Riscv.hpp **** 	static void w_sip(uint64 sip);
  59:src/../h/Riscv.hpp **** 
  60:src/../h/Riscv.hpp **** 	//kada se pozove sret, SIE dobija vrednost SPIE, SPIE se postavlja na 1,
  61:src/../h/Riscv.hpp **** 	//rezim se postavlja na osnovu SPP bita, SPP se postavlja na 0
  62:src/../h/Riscv.hpp **** 	enum BitMaskSstatus {
  63:src/../h/Riscv.hpp **** 		//1 - dozvoljeni prekidi; 0- nedozvoljeni prekidi; igonrise se u korisnickom rezimu
  64:src/../h/Riscv.hpp **** 		SSTATUS_SIE = (1 << 1),
GAS LISTING /tmp/cc8LWnaq.s 			page 25


  65:src/../h/Riscv.hpp **** 		//prethodna vrednost bita SIE
  66:src/../h/Riscv.hpp **** 		SSTATUS_SPIE = (1 << 5),
  67:src/../h/Riscv.hpp **** 		//iz kog rezima se desio skok; 0 - iz korisnickog; 1 - iz sistemskog
  68:src/../h/Riscv.hpp **** 		SSTATUS_SPP = (1 << 8)
  69:src/../h/Riscv.hpp **** 	};
  70:src/../h/Riscv.hpp **** 
  71:src/../h/Riscv.hpp **** 	//mask set sstatus
  72:src/../h/Riscv.hpp **** 	static void ms_sstatus(uint64 mask);
  73:src/../h/Riscv.hpp **** 
  74:src/../h/Riscv.hpp **** 	//mask clear sstatus
  75:src/../h/Riscv.hpp **** 	static void mc_sstatus(uint64 mask);
  76:src/../h/Riscv.hpp **** 
  77:src/../h/Riscv.hpp **** 	//read sstatus
  78:src/../h/Riscv.hpp **** 	static uint64 r_sstatus();
  79:src/../h/Riscv.hpp **** 
  80:src/../h/Riscv.hpp **** 	//write sstatus
  81:src/../h/Riscv.hpp **** 	static void w_sstatus(uint64 sstatus);
  82:src/../h/Riscv.hpp **** 
  83:src/../h/Riscv.hpp **** 	//upisuje kod sistemskog poziva u registar a0
  84:src/../h/Riscv.hpp **** 	static void loadOpCode(uint64 opCode);
  85:src/../h/Riscv.hpp **** 
  86:src/../h/Riscv.hpp **** };
  87:src/../h/Riscv.hpp **** 
  88:src/../h/Riscv.hpp **** inline uint64 Riscv::r_scause() {
  89:src/../h/Riscv.hpp **** 	uint64 volatile scause;
  90:src/../h/Riscv.hpp **** 	__asm__ volatile("csrr %[scause], scause": [scause] "=r"(scause));
  91:src/../h/Riscv.hpp **** 	return scause;
  92:src/../h/Riscv.hpp **** }
  93:src/../h/Riscv.hpp **** 
  94:src/../h/Riscv.hpp **** inline void Riscv::w_scause(uint64 scause) {
  95:src/../h/Riscv.hpp **** 	__asm__ volatile("csrw scause, %[scause]": :[scause] "r"(scause));
  96:src/../h/Riscv.hpp **** }
  97:src/../h/Riscv.hpp **** 
  98:src/../h/Riscv.hpp **** inline uint64 Riscv::r_sepc() {
  99:src/../h/Riscv.hpp **** 	uint64 volatile sepc;
 100:src/../h/Riscv.hpp **** 	__asm__ volatile("csrr %[sepc], sepc": [sepc] "=r"(sepc));
 101:src/../h/Riscv.hpp **** 	return sepc;
 102:src/../h/Riscv.hpp **** }
 103:src/../h/Riscv.hpp **** 
 104:src/../h/Riscv.hpp **** inline void Riscv::w_sepc(uint64 sepc) {
 105:src/../h/Riscv.hpp **** 	__asm__ volatile("csrw sepc, %[sepc]": :[sepc] "r"(sepc));
 106:src/../h/Riscv.hpp **** }
 107:src/../h/Riscv.hpp **** 
 108:src/../h/Riscv.hpp **** inline uint64 Riscv::r_stvec() {
 109:src/../h/Riscv.hpp **** 	uint64 volatile stvec;
 110:src/../h/Riscv.hpp **** 	__asm__ volatile("csrr %[stvec], stvec": [stvec] "=r"(stvec));
 111:src/../h/Riscv.hpp **** 	return stvec;
 112:src/../h/Riscv.hpp **** }
 113:src/../h/Riscv.hpp **** 
 114:src/../h/Riscv.hpp **** inline void Riscv::w_stvec(uint64 stvec) {
 115:src/../h/Riscv.hpp **** 	__asm__ volatile("csrw stvec, %[stvec]": :[stvec] "r"(stvec));
 116:src/../h/Riscv.hpp **** }
 117:src/../h/Riscv.hpp **** 
 118:src/../h/Riscv.hpp **** inline void Riscv::ms_sip(uint64 mask) {
 119:src/../h/Riscv.hpp **** 	__asm__ volatile("csrs sip, %[mask]": :[mask] "r"(mask));
 120:src/../h/Riscv.hpp **** }
 121:src/../h/Riscv.hpp **** 
GAS LISTING /tmp/cc8LWnaq.s 			page 26


 122:src/../h/Riscv.hpp **** inline void Riscv::mc_sip(uint64 mask) {
 958              		.loc 2 122 40 is_stmt 1
 959              		.cfi_startproc
 960              	.LVL92:
 961 0000 130101FF 		addi	sp,sp,-16
 962              		.cfi_def_cfa_offset 16
 963 0004 23348100 		sd	s0,8(sp)
 964              		.cfi_offset 8, -8
 965 0008 13040101 		addi	s0,sp,16
 966              		.cfi_def_cfa 8, 0
 123:src/../h/Riscv.hpp **** 	__asm__ volatile("csrc sip, %[mask]": :[mask] "r"(mask));
 967              		.loc 2 123 2
 968              		.loc 2 123 58 is_stmt 0
 969              	#APP
 970              	# 123 "src/../h/Riscv.hpp" 1
 124              	}
 971              		csrc sip, a0
 972              	# 0 "" 2
 973              		.loc 2 124 1
 974              	#NO_APP
 975 0010 03348100 		ld	s0,8(sp)
 976              		.cfi_restore 8
 977              		.cfi_def_cfa 2, 16
 978 0014 13010101 		addi	sp,sp,16
 979              		.cfi_def_cfa_offset 0
 980 0018 67800000 		jr	ra
 981              		.cfi_endproc
 982              	.LFE10:
 984              		.section	.text._ZN3TCB9setStatusENS_12ThreadStatusE,"axG",@progbits,_ZN3TCB9setStatusENS_12ThreadS
 985              		.align	2
 986              		.weak	_ZN3TCB9setStatusENS_12ThreadStatusE
 988              	_ZN3TCB9setStatusENS_12ThreadStatusE:
 989              	.LFB32:
 990              		.file 3 "src/../h/TCB.hpp"
   1:src/../h/TCB.hpp **** //
   2:src/../h/TCB.hpp **** // Created by os on 5/23/23.
   3:src/../h/TCB.hpp **** //
   4:src/../h/TCB.hpp **** 
   5:src/../h/TCB.hpp **** #ifndef PROJEKAT2023_TCB_HPP
   6:src/../h/TCB.hpp **** #define PROJEKAT2023_TCB_HPP
   7:src/../h/TCB.hpp **** 
   8:src/../h/TCB.hpp **** #include "../lib/hw.h"
   9:src/../h/TCB.hpp **** #include "../h/ThreadQueue.hpp"
  10:src/../h/TCB.hpp **** 
  11:src/../h/TCB.hpp **** class TCB {
  12:src/../h/TCB.hpp **** public:
  13:src/../h/TCB.hpp ****     friend class Scheduler;
  14:src/../h/TCB.hpp **** 
  15:src/../h/TCB.hpp ****     using Body = void (*)(void*);
  16:src/../h/TCB.hpp **** 
  17:src/../h/TCB.hpp ****     enum ThreadStatus {
  18:src/../h/TCB.hpp ****         CREATED, ACTIVE, BLOCKED, JOINING, SLEEPING, FINISHED
  19:src/../h/TCB.hpp ****     };
  20:src/../h/TCB.hpp **** 
  21:src/../h/TCB.hpp ****     void setStatus(ThreadStatus stat) { this->status = stat; }
 991              		.loc 3 21 10 is_stmt 1
 992              		.cfi_startproc
GAS LISTING /tmp/cc8LWnaq.s 			page 27


 993              	.LVL93:
 994 0000 130101FF 		addi	sp,sp,-16
 995              		.cfi_def_cfa_offset 16
 996 0004 23348100 		sd	s0,8(sp)
 997              		.cfi_offset 8, -8
 998 0008 13040101 		addi	s0,sp,16
 999              		.cfi_def_cfa 8, 0
 1000              		.loc 3 21 41
 1001              		.loc 3 21 54 is_stmt 0
 1002 000c 232CB504 		sw	a1,88(a0)
 1003              		.loc 3 21 62
 1004 0010 03348100 		ld	s0,8(sp)
 1005              		.cfi_restore 8
 1006              		.cfi_def_cfa 2, 16
 1007 0014 13010101 		addi	sp,sp,16
 1008              		.cfi_def_cfa_offset 0
 1009 0018 67800000 		jr	ra
 1010              		.cfi_endproc
 1011              	.LFE32:
 1013              		.section	.text._ZN3TCB12getTimeSliceEv,"axG",@progbits,_ZN3TCB12getTimeSliceEv,comdat
 1014              		.align	2
 1015              		.weak	_ZN3TCB12getTimeSliceEv
 1017              	_ZN3TCB12getTimeSliceEv:
 1018              	.LFB34:
  22:src/../h/TCB.hpp **** 
  23:src/../h/TCB.hpp ****     ThreadStatus getStatus() { return this->status; }
  24:src/../h/TCB.hpp **** 
  25:src/../h/TCB.hpp ****     static TCB* createThread(Body function, void* args, uint64* stack);
  26:src/../h/TCB.hpp **** 
  27:src/../h/TCB.hpp ****     static void start(TCB* newTcb);
  28:src/../h/TCB.hpp **** 
  29:src/../h/TCB.hpp **** //    bool isFinished() { return finished; }
  30:src/../h/TCB.hpp **** //
  31:src/../h/TCB.hpp **** //    void setFinished(bool finish) { this->finished = finish; }
  32:src/../h/TCB.hpp **** //
  33:src/../h/TCB.hpp **** //    bool isBlocked() { return blocked; }
  34:src/../h/TCB.hpp **** //
  35:src/../h/TCB.hpp **** //    void setBlocked(bool block) { this->blocked = block; }
  36:src/../h/TCB.hpp **** 
  37:src/../h/TCB.hpp ****     uint64 getTimeSlice() { return timeSlice; }
 1019              		.loc 3 37 12 is_stmt 1
 1020              		.cfi_startproc
 1021              	.LVL94:
 1022 0000 130101FF 		addi	sp,sp,-16
 1023              		.cfi_def_cfa_offset 16
 1024 0004 23348100 		sd	s0,8(sp)
 1025              		.cfi_offset 8, -8
 1026 0008 13040101 		addi	s0,sp,16
 1027              		.cfi_def_cfa 8, 0
 1028              		.loc 3 37 29
 1029              		.loc 3 37 47 is_stmt 0
 1030 000c 03358502 		ld	a0,40(a0)
 1031              	.LVL95:
 1032 0010 03348100 		ld	s0,8(sp)
 1033              		.cfi_restore 8
 1034              		.cfi_def_cfa 2, 16
 1035 0014 13010101 		addi	sp,sp,16
GAS LISTING /tmp/cc8LWnaq.s 			page 28


 1036              		.cfi_def_cfa_offset 0
 1037 0018 67800000 		jr	ra
 1038              		.cfi_endproc
 1039              	.LFE34:
 1041              		.text
 1042              	.Letext0:
 1043              		.file 4 "src/../lib/hw.h"
 1044              		.file 5 "src/../h/syscall_c.hpp"
 1045              		.file 6 "src/../h/KSem.hpp"
 1046              		.file 7 "src/../h/../h/ThreadQueue.hpp"
 1047              		.file 8 "src/../h/Scheduler.hpp"
 1048              		.file 9 "src/../h/KConsole.hpp"
 1049              		.file 10 "src/../h/KMemory.hpp"
 1050              		.file 11 "src/../h/../test/printing.hpp"
 1051              		.file 12 "src/../h/helper.hpp"
GAS LISTING /tmp/cc8LWnaq.s 			page 29


DEFINED SYMBOLS
                            *ABS*:0000000000000000 interruptRoutine.cpp
     /tmp/cc8LWnaq.s:29     .text:0000000000000000 interruptRoutine
     /tmp/cc8LWnaq.s:33     .text:0000000000000000 .L0 
     /tmp/cc8LWnaq.s:34     .text:0000000000000000 .L0 
     /tmp/cc8LWnaq.s:35     .text:0000000000000004 .L0 
     /tmp/cc8LWnaq.s:39     .text:0000000000000010 .L0 
     /tmp/cc8LWnaq.s:40     .text:0000000000000010 .L0 
     /tmp/cc8LWnaq.s:41     .text:0000000000000010 .L0 
     /tmp/cc8LWnaq.s:43     .text:0000000000000014 .L0 
     /tmp/cc8LWnaq.s:45     .text:0000000000000014 .L0 
     /tmp/cc8LWnaq.s:46     .text:0000000000000014 .L0 
src/interruptRoutine.cpp:24     .text:0000000000000014 .L0 
     /tmp/cc8LWnaq.s:55     .text:000000000000001c .L0 
src/interruptRoutine.cpp:25     .text:000000000000001c .L0 
     /tmp/cc8LWnaq.s:65     .text:0000000000000024 .L0 
src/interruptRoutine.cpp:26     .text:0000000000000024 .L0 
     /tmp/cc8LWnaq.s:75     .text:000000000000002c .L0 
     /tmp/cc8LWnaq.s:76     .text:000000000000002c .L0 
src/interruptRoutine.cpp:30     .text:000000000000002c .L0 
     /tmp/cc8LWnaq.s:86     .text:0000000000000034 .L0 
src/interruptRoutine.cpp:31     .text:0000000000000034 .L0 
     /tmp/cc8LWnaq.s:96     .text:000000000000003c .L0 
src/interruptRoutine.cpp:32     .text:000000000000003c .L0 
     /tmp/cc8LWnaq.s:106    .text:0000000000000044 .L0 
src/interruptRoutine.cpp:33     .text:0000000000000044 .L0 
     /tmp/cc8LWnaq.s:116    .text:000000000000004c .L0 
src/interruptRoutine.cpp:34     .text:000000000000004c .L0 
     /tmp/cc8LWnaq.s:126    .text:0000000000000054 .L0 
src/interruptRoutine.cpp:35     .text:0000000000000054 .L0 
     /tmp/cc8LWnaq.s:136    .text:000000000000005c .L0 
src/interruptRoutine.cpp:36     .text:000000000000005c .L0 
     /tmp/cc8LWnaq.s:146    .text:0000000000000064 .L0 
src/interruptRoutine.cpp:37     .text:0000000000000064 .L0 
     /tmp/cc8LWnaq.s:157    .text:000000000000006c .L0 
     /tmp/cc8LWnaq.s:161    .text:0000000000000078 .L0 
     /tmp/cc8LWnaq.s:166    .text:0000000000000084 .L0 
     /tmp/cc8LWnaq.s:274    .text:0000000000000110 .L0 
     /tmp/cc8LWnaq.s:275    .text:0000000000000110 .L0 
     /tmp/cc8LWnaq.s:276    .text:0000000000000110 .L0 
     /tmp/cc8LWnaq.s:280    .text:000000000000011c .L0 
src/interruptRoutine.cpp:47     .text:000000000000011c .L0 
     /tmp/cc8LWnaq.s:287    .text:0000000000000120 .L0 
     /tmp/cc8LWnaq.s:291    .text:0000000000000124 .L0 
     /tmp/cc8LWnaq.s:292    .text:0000000000000124 .L0 
     /tmp/cc8LWnaq.s:293    .text:0000000000000124 .L0 
     /tmp/cc8LWnaq.s:298    .text:0000000000000134 .L0 
src/interruptRoutine.cpp:54     .text:0000000000000134 .L0 
     /tmp/cc8LWnaq.s:305    .text:0000000000000138 .L0 
     /tmp/cc8LWnaq.s:309    .text:000000000000013c .L0 
     /tmp/cc8LWnaq.s:310    .text:000000000000013c .L0 
     /tmp/cc8LWnaq.s:311    .text:000000000000013c .L0 
     /tmp/cc8LWnaq.s:315    .text:0000000000000148 .L0 
     /tmp/cc8LWnaq.s:317    .text:000000000000014c .L0 
     /tmp/cc8LWnaq.s:324    .text:0000000000000164 .L0 
     /tmp/cc8LWnaq.s:326    .text:0000000000000168 .L0 
     /tmp/cc8LWnaq.s:327    .text:0000000000000168 .L0 
GAS LISTING /tmp/cc8LWnaq.s 			page 30


     /tmp/cc8LWnaq.s:329    .text:000000000000016c .L0 
     /tmp/cc8LWnaq.s:331    .text:0000000000000170 .L0 
     /tmp/cc8LWnaq.s:332    .text:0000000000000170 .L0 
     /tmp/cc8LWnaq.s:338    .text:0000000000000184 .L0 
     /tmp/cc8LWnaq.s:339    .text:0000000000000184 .L0 
     /tmp/cc8LWnaq.s:988    .text._ZN3TCB9setStatusENS_12ThreadStatusE:0000000000000000 _ZN3TCB9setStatusENS_12ThreadStatusE
     /tmp/cc8LWnaq.s:347    .text:000000000000019c .L0 
     /tmp/cc8LWnaq.s:348    .text:000000000000019c .L0 
     /tmp/cc8LWnaq.s:351    .text:00000000000001a4 .L0 
     /tmp/cc8LWnaq.s:353    .text:00000000000001a8 .L0 
src/interruptRoutine.cpp:68     .text:00000000000001a8 .L0 
     /tmp/cc8LWnaq.s:362    .text:00000000000001b0 .L0 
src/interruptRoutine.cpp:70     .text:00000000000001b0 .L0 
     /tmp/cc8LWnaq.s:370    .text:00000000000001b4 .L0 
src/interruptRoutine.cpp:72     .text:00000000000001b4 .L0 
     /tmp/cc8LWnaq.s:377    .text:00000000000001b8 .L0 
     /tmp/cc8LWnaq.s:381    .text:00000000000001bc .L0 
     /tmp/cc8LWnaq.s:382    .text:00000000000001bc .L0 
     /tmp/cc8LWnaq.s:383    .text:00000000000001bc .L0 
     /tmp/cc8LWnaq.s:390    .text:00000000000001d8 .L0 
     /tmp/cc8LWnaq.s:391    .text:00000000000001d8 .L0 
     /tmp/cc8LWnaq.s:394    .text:00000000000001e0 .L0 
     /tmp/cc8LWnaq.s:395    .text:00000000000001e0 .L0 
     /tmp/cc8LWnaq.s:398    .text:00000000000001e8 .L0 
     /tmp/cc8LWnaq.s:402    .text:00000000000001ec .L0 
     /tmp/cc8LWnaq.s:403    .text:00000000000001ec .L0 
     /tmp/cc8LWnaq.s:404    .text:00000000000001ec .L0 
     /tmp/cc8LWnaq.s:407    .text:00000000000001f4 .L0 
     /tmp/cc8LWnaq.s:411    .text:00000000000001f8 .L0 
     /tmp/cc8LWnaq.s:412    .text:00000000000001f8 .L0 
     /tmp/cc8LWnaq.s:413    .text:00000000000001f8 .L0 
     /tmp/cc8LWnaq.s:418    .text:0000000000000208 .L0 
     /tmp/cc8LWnaq.s:419    .text:0000000000000208 .L0 
     /tmp/cc8LWnaq.s:422    .text:0000000000000210 .L0 
     /tmp/cc8LWnaq.s:426    .text:0000000000000214 .L0 
     /tmp/cc8LWnaq.s:427    .text:0000000000000214 .L0 
     /tmp/cc8LWnaq.s:428    .text:0000000000000214 .L0 
     /tmp/cc8LWnaq.s:431    .text:000000000000021c .L0 
     /tmp/cc8LWnaq.s:433    .text:0000000000000220 .L0 
     /tmp/cc8LWnaq.s:438    .text:0000000000000230 .L0 
     /tmp/cc8LWnaq.s:440    .text:0000000000000234 .L0 
     /tmp/cc8LWnaq.s:441    .text:0000000000000234 .L0 
     /tmp/cc8LWnaq.s:444    .text:000000000000023c .L0 
     /tmp/cc8LWnaq.s:446    .text:0000000000000240 .L0 
src/interruptRoutine.cpp:97     .text:0000000000000240 .L0 
     /tmp/cc8LWnaq.s:455    .text:0000000000000248 .L0 
src/interruptRoutine.cpp:99     .text:0000000000000248 .L0 
     /tmp/cc8LWnaq.s:463    .text:000000000000024c .L0 
src/interruptRoutine.cpp:101    .text:000000000000024c .L0 
     /tmp/cc8LWnaq.s:470    .text:0000000000000250 .L0 
     /tmp/cc8LWnaq.s:474    .text:0000000000000254 .L0 
     /tmp/cc8LWnaq.s:475    .text:0000000000000254 .L0 
     /tmp/cc8LWnaq.s:476    .text:0000000000000254 .L0 
     /tmp/cc8LWnaq.s:481    .text:0000000000000264 .L0 
src/interruptRoutine.cpp:107    .text:0000000000000264 .L0 
     /tmp/cc8LWnaq.s:488    .text:0000000000000268 .L0 
     /tmp/cc8LWnaq.s:492    .text:000000000000026c .L0 
GAS LISTING /tmp/cc8LWnaq.s 			page 31


     /tmp/cc8LWnaq.s:493    .text:000000000000026c .L0 
     /tmp/cc8LWnaq.s:494    .text:000000000000026c .L0 
     /tmp/cc8LWnaq.s:499    .text:000000000000027c .L0 
src/interruptRoutine.cpp:113    .text:000000000000027c .L0 
     /tmp/cc8LWnaq.s:506    .text:0000000000000280 .L0 
     /tmp/cc8LWnaq.s:510    .text:0000000000000284 .L0 
     /tmp/cc8LWnaq.s:511    .text:0000000000000284 .L0 
     /tmp/cc8LWnaq.s:512    .text:0000000000000284 .L0 
     /tmp/cc8LWnaq.s:517    .text:0000000000000294 .L0 
src/interruptRoutine.cpp:119    .text:0000000000000294 .L0 
     /tmp/cc8LWnaq.s:524    .text:0000000000000298 .L0 
     /tmp/cc8LWnaq.s:528    .text:000000000000029c .L0 
     /tmp/cc8LWnaq.s:529    .text:000000000000029c .L0 
     /tmp/cc8LWnaq.s:532    .text:00000000000002a4 .L0 
src/interruptRoutine.cpp:125    .text:00000000000002a4 .L0 
     /tmp/cc8LWnaq.s:541    .text:00000000000002ac .L0 
src/interruptRoutine.cpp:127    .text:00000000000002ac .L0 
     /tmp/cc8LWnaq.s:549    .text:00000000000002b0 .L0 
src/interruptRoutine.cpp:129    .text:00000000000002b0 .L0 
     /tmp/cc8LWnaq.s:556    .text:00000000000002b4 .L0 
     /tmp/cc8LWnaq.s:559    .text:00000000000002bc .L0 
     /tmp/cc8LWnaq.s:560    .text:00000000000002bc .L0 
     /tmp/cc8LWnaq.s:567    .text:00000000000002d8 .L0 
     /tmp/cc8LWnaq.s:568    .text:00000000000002d8 .L0 
     /tmp/cc8LWnaq.s:571    .text:00000000000002e0 .L0 
     /tmp/cc8LWnaq.s:575    .text:00000000000002e4 .L0 
     /tmp/cc8LWnaq.s:576    .text:00000000000002e4 .L0 
     /tmp/cc8LWnaq.s:577    .text:00000000000002e4 .L0 
     /tmp/cc8LWnaq.s:580    .text:00000000000002ec .L0 
src/interruptRoutine.cpp:138    .text:00000000000002ec .L0 
     /tmp/cc8LWnaq.s:587    .text:00000000000002f0 .L0 
     /tmp/cc8LWnaq.s:591    .text:00000000000002f4 .L0 
     /tmp/cc8LWnaq.s:592    .text:00000000000002f4 .L0 
     /tmp/cc8LWnaq.s:593    .text:00000000000002f4 .L0 
     /tmp/cc8LWnaq.s:599    .text:0000000000000308 .L0 
     /tmp/cc8LWnaq.s:603    .text:000000000000030c .L0 
     /tmp/cc8LWnaq.s:604    .text:000000000000030c .L0 
     /tmp/cc8LWnaq.s:605    .text:000000000000030c .L0 
     /tmp/cc8LWnaq.s:609    .text:0000000000000318 .L0 
     /tmp/cc8LWnaq.s:611    .text:000000000000031c .L0 
     /tmp/cc8LWnaq.s:618    .text:0000000000000334 .L0 
     /tmp/cc8LWnaq.s:620    .text:0000000000000338 .L0 
     /tmp/cc8LWnaq.s:621    .text:0000000000000338 .L0 
     /tmp/cc8LWnaq.s:624    .text:0000000000000340 .L0 
     /tmp/cc8LWnaq.s:626    .text:0000000000000344 .L0 
src/interruptRoutine.cpp:153    .text:0000000000000344 .L0 
     /tmp/cc8LWnaq.s:635    .text:000000000000034c .L0 
src/interruptRoutine.cpp:155    .text:000000000000034c .L0 
     /tmp/cc8LWnaq.s:643    .text:0000000000000350 .L0 
src/interruptRoutine.cpp:157    .text:0000000000000350 .L0 
     /tmp/cc8LWnaq.s:650    .text:0000000000000354 .L0 
     /tmp/cc8LWnaq.s:654    .text:0000000000000358 .L0 
     /tmp/cc8LWnaq.s:655    .text:0000000000000358 .L0 
     /tmp/cc8LWnaq.s:656    .text:0000000000000358 .L0 
     /tmp/cc8LWnaq.s:661    .text:0000000000000368 .L0 
     /tmp/cc8LWnaq.s:662    .text:0000000000000368 .L0 
     /tmp/cc8LWnaq.s:668    .text:000000000000037c .L0 
GAS LISTING /tmp/cc8LWnaq.s 			page 32


     /tmp/cc8LWnaq.s:672    .text:0000000000000380 .L0 
     /tmp/cc8LWnaq.s:673    .text:0000000000000380 .L0 
     /tmp/cc8LWnaq.s:674    .text:0000000000000380 .L0 
     /tmp/cc8LWnaq.s:678    .text:000000000000038c .L0 
     /tmp/cc8LWnaq.s:682    .text:0000000000000390 .L0 
     /tmp/cc8LWnaq.s:683    .text:0000000000000390 .L0 
     /tmp/cc8LWnaq.s:684    .text:0000000000000390 .L0 
     /tmp/cc8LWnaq.s:688    .text:00000000000003a0 .L0 
     /tmp/cc8LWnaq.s:689    .text:00000000000003a0 .L0 
     /tmp/cc8LWnaq.s:693    .text:00000000000003ac .L0 
     /tmp/cc8LWnaq.s:694    .text:00000000000003ac .L0 
     /tmp/cc8LWnaq.s:698    .text:00000000000003bc .L0 
     /tmp/cc8LWnaq.s:699    .text:00000000000003bc .L0 
     /tmp/cc8LWnaq.s:703    .text:00000000000003c8 .L0 
     /tmp/cc8LWnaq.s:704    .text:00000000000003c8 .L0 
     /tmp/cc8LWnaq.s:708    .text:00000000000003d8 .L0 
     /tmp/cc8LWnaq.s:709    .text:00000000000003d8 .L0 
     /tmp/cc8LWnaq.s:713    .text:00000000000003e4 .L0 
     /tmp/cc8LWnaq.s:716    .text:00000000000003e8 .L0 
     /tmp/cc8LWnaq.s:719    .text:00000000000003ec .L0 
     /tmp/cc8LWnaq.s:720    .text:00000000000003ec .L0 
     /tmp/cc8LWnaq.s:725    .text:00000000000003f8 .L0 
     /tmp/cc8LWnaq.s:726    .text:00000000000003f8 .L0 
     /tmp/cc8LWnaq.s:732    .text:0000000000000400 .L0 
     /tmp/cc8LWnaq.s:734    .text:0000000000000400 .L0 
     /tmp/cc8LWnaq.s:743    .text:0000000000000408 .L0 
     /tmp/cc8LWnaq.s:750    .text:000000000000040c .L0 
     /tmp/cc8LWnaq.s:758    .text:0000000000000420 .L0 
     /tmp/cc8LWnaq.s:759    .text:0000000000000420 .L0 
     /tmp/cc8LWnaq.s:763    .text:000000000000042c .L0 
     /tmp/cc8LWnaq.s:766    .text:0000000000000430 .L0 
     /tmp/cc8LWnaq.s:770    .text:000000000000043c .L0 
     /tmp/cc8LWnaq.s:771    .text:000000000000043c .L0 
     /tmp/cc8LWnaq.s:775    .text:000000000000044c .L0 
     /tmp/cc8LWnaq.s:777    .text:0000000000000450 .L0 
     /tmp/cc8LWnaq.s:779    .text:0000000000000454 .L0 
     /tmp/cc8LWnaq.s:780    .text:0000000000000454 .L0 
     /tmp/cc8LWnaq.s:791    .text:0000000000000474 .L0 
     /tmp/cc8LWnaq.s:792    .text:0000000000000474 .L0 
     /tmp/cc8LWnaq.s:798    .text:0000000000000484 .L0 
     /tmp/cc8LWnaq.s:799    .text:0000000000000484 .L0 
     /tmp/cc8LWnaq.s:805    .text:0000000000000498 .L0 
     /tmp/cc8LWnaq.s:806    .text:0000000000000498 .L0 
     /tmp/cc8LWnaq.s:812    .text:00000000000004a0 .L0 
     /tmp/cc8LWnaq.s:814    .text:00000000000004a0 .L0 
     /tmp/cc8LWnaq.s:820    .text:00000000000004a8 .L0 
     /tmp/cc8LWnaq.s:822    .text:00000000000004a8 .L0 
     /tmp/cc8LWnaq.s:955    .text._ZN5Riscv6mc_sipEm:0000000000000000 _ZN5Riscv6mc_sipEm
     /tmp/cc8LWnaq.s:830    .text:00000000000004b4 .L0 
     /tmp/cc8LWnaq.s:837    .text:00000000000004b8 .L0 
     /tmp/cc8LWnaq.s:843    .text:00000000000004cc .L0 
     /tmp/cc8LWnaq.s:844    .text:00000000000004cc .L0 
     /tmp/cc8LWnaq.s:847    .text:00000000000004d4 .L0 
     /tmp/cc8LWnaq.s:848    .text:00000000000004d4 .L0 
     /tmp/cc8LWnaq.s:854    .text:00000000000004f0 .L0 
     /tmp/cc8LWnaq.s:855    .text:00000000000004f0 .L0 
     /tmp/cc8LWnaq.s:1017   .text._ZN3TCB12getTimeSliceEv:0000000000000000 _ZN3TCB12getTimeSliceEv
GAS LISTING /tmp/cc8LWnaq.s 			page 33


     /tmp/cc8LWnaq.s:862    .text:000000000000050c .L0 
     /tmp/cc8LWnaq.s:868    .text:0000000000000524 .L0 
     /tmp/cc8LWnaq.s:870    .text:0000000000000528 .L0 
     /tmp/cc8LWnaq.s:871    .text:0000000000000528 .L0 
     /tmp/cc8LWnaq.s:875    .text:0000000000000530 .L0 
     /tmp/cc8LWnaq.s:876    .text:0000000000000530 .L0 
     /tmp/cc8LWnaq.s:882    .text:0000000000000538 .L0 
     /tmp/cc8LWnaq.s:884    .text:0000000000000538 .L0 
     /tmp/cc8LWnaq.s:890    .text:0000000000000540 .L0 
     /tmp/cc8LWnaq.s:892    .text:0000000000000540 .L0 
     /tmp/cc8LWnaq.s:899    .text:000000000000054c .L0 
     /tmp/cc8LWnaq.s:906    .text:0000000000000550 .L0 
     /tmp/cc8LWnaq.s:907    .text:0000000000000550 .L0 
     /tmp/cc8LWnaq.s:911    .text:0000000000000560 .L0 
     /tmp/cc8LWnaq.s:912    .text:0000000000000560 .L0 
     /tmp/cc8LWnaq.s:916    .text:0000000000000570 .L0 
     /tmp/cc8LWnaq.s:917    .text:0000000000000570 .L0 
     /tmp/cc8LWnaq.s:921    .text:000000000000057c .L0 
     /tmp/cc8LWnaq.s:922    .text:000000000000057c .L0 
     /tmp/cc8LWnaq.s:926    .text:000000000000058c .L0 
     /tmp/cc8LWnaq.s:927    .text:000000000000058c .L0 
     /tmp/cc8LWnaq.s:935    .text:0000000000000598 .L0 
     /tmp/cc8LWnaq.s:937    .text:00000000000005a0 .L0 
     /tmp/cc8LWnaq.s:939    .text:00000000000005a4 .L0 
     /tmp/cc8LWnaq.s:940    .text:00000000000005a4 .L0 
     /tmp/cc8LWnaq.s:943    .text:00000000000005a8 .L0 
     /tmp/cc8LWnaq.s:945    .text:00000000000005ac .L0 
     /tmp/cc8LWnaq.s:948    .text:00000000000005b0 .L0 
     /tmp/cc8LWnaq.s:959    .text._ZN5Riscv6mc_sipEm:0000000000000000 .L0 
     /tmp/cc8LWnaq.s:961    .text._ZN5Riscv6mc_sipEm:0000000000000000 .L0 
     /tmp/cc8LWnaq.s:962    .text._ZN5Riscv6mc_sipEm:0000000000000004 .L0 
     /tmp/cc8LWnaq.s:964    .text._ZN5Riscv6mc_sipEm:0000000000000008 .L0 
     /tmp/cc8LWnaq.s:966    .text._ZN5Riscv6mc_sipEm:000000000000000c .L0 
     /tmp/cc8LWnaq.s:968    .text._ZN5Riscv6mc_sipEm:000000000000000c .L0 
  src/../h/Riscv.hpp:123    .text._ZN5Riscv6mc_sipEm:000000000000000c .L0 
     /tmp/cc8LWnaq.s:975    .text._ZN5Riscv6mc_sipEm:0000000000000010 .L0 
     /tmp/cc8LWnaq.s:976    .text._ZN5Riscv6mc_sipEm:0000000000000014 .L0 
     /tmp/cc8LWnaq.s:977    .text._ZN5Riscv6mc_sipEm:0000000000000014 .L0 
     /tmp/cc8LWnaq.s:979    .text._ZN5Riscv6mc_sipEm:0000000000000018 .L0 
     /tmp/cc8LWnaq.s:981    .text._ZN5Riscv6mc_sipEm:000000000000001c .L0 
     /tmp/cc8LWnaq.s:992    .text._ZN3TCB9setStatusENS_12ThreadStatusE:0000000000000000 .L0 
     /tmp/cc8LWnaq.s:994    .text._ZN3TCB9setStatusENS_12ThreadStatusE:0000000000000000 .L0 
     /tmp/cc8LWnaq.s:995    .text._ZN3TCB9setStatusENS_12ThreadStatusE:0000000000000004 .L0 
     /tmp/cc8LWnaq.s:997    .text._ZN3TCB9setStatusENS_12ThreadStatusE:0000000000000008 .L0 
     /tmp/cc8LWnaq.s:999    .text._ZN3TCB9setStatusENS_12ThreadStatusE:000000000000000c .L0 
     /tmp/cc8LWnaq.s:1001   .text._ZN3TCB9setStatusENS_12ThreadStatusE:000000000000000c .L0 
     /tmp/cc8LWnaq.s:1002   .text._ZN3TCB9setStatusENS_12ThreadStatusE:000000000000000c .L0 
     /tmp/cc8LWnaq.s:1004   .text._ZN3TCB9setStatusENS_12ThreadStatusE:0000000000000010 .L0 
     /tmp/cc8LWnaq.s:1005   .text._ZN3TCB9setStatusENS_12ThreadStatusE:0000000000000014 .L0 
     /tmp/cc8LWnaq.s:1006   .text._ZN3TCB9setStatusENS_12ThreadStatusE:0000000000000014 .L0 
     /tmp/cc8LWnaq.s:1008   .text._ZN3TCB9setStatusENS_12ThreadStatusE:0000000000000018 .L0 
     /tmp/cc8LWnaq.s:1010   .text._ZN3TCB9setStatusENS_12ThreadStatusE:000000000000001c .L0 
     /tmp/cc8LWnaq.s:1020   .text._ZN3TCB12getTimeSliceEv:0000000000000000 .L0 
     /tmp/cc8LWnaq.s:1022   .text._ZN3TCB12getTimeSliceEv:0000000000000000 .L0 
     /tmp/cc8LWnaq.s:1023   .text._ZN3TCB12getTimeSliceEv:0000000000000004 .L0 
     /tmp/cc8LWnaq.s:1025   .text._ZN3TCB12getTimeSliceEv:0000000000000008 .L0 
     /tmp/cc8LWnaq.s:1027   .text._ZN3TCB12getTimeSliceEv:000000000000000c .L0 
GAS LISTING /tmp/cc8LWnaq.s 			page 34


     /tmp/cc8LWnaq.s:1029   .text._ZN3TCB12getTimeSliceEv:000000000000000c .L0 
     /tmp/cc8LWnaq.s:1030   .text._ZN3TCB12getTimeSliceEv:000000000000000c .L0 
     /tmp/cc8LWnaq.s:1033   .text._ZN3TCB12getTimeSliceEv:0000000000000014 .L0 
     /tmp/cc8LWnaq.s:1034   .text._ZN3TCB12getTimeSliceEv:0000000000000014 .L0 
     /tmp/cc8LWnaq.s:1036   .text._ZN3TCB12getTimeSliceEv:0000000000000018 .L0 
     /tmp/cc8LWnaq.s:1038   .text._ZN3TCB12getTimeSliceEv:000000000000001c .L0 
     /tmp/cc8LWnaq.s:1052   .text:00000000000005b0 .L0 
     /tmp/cc8LWnaq.s:984    .text._ZN5Riscv6mc_sipEm:000000000000001c .L0 
     /tmp/cc8LWnaq.s:1013   .text._ZN3TCB9setStatusENS_12ThreadStatusE:000000000000001c .L0 
     /tmp/cc8LWnaq.s:1041   .text._ZN3TCB12getTimeSliceEv:000000000000001c .L0 
     /tmp/cc8LWnaq.s:198    .rodata:0000000000000074 .L9
     /tmp/cc8LWnaq.s:188    .text:00000000000000dc .L0 
     /tmp/cc8LWnaq.s:192    .text:00000000000000f0 .L0 
     /tmp/cc8LWnaq.s:383    .text:00000000000001bc .L0 
     /tmp/cc8LWnaq.s:560    .text:00000000000002bc .L0 
     /tmp/cc8LWnaq.s:8      .rodata:0000000000000000 .LC0
     /tmp/cc8LWnaq.s:684    .text:0000000000000390 .L0 
     /tmp/cc8LWnaq.s:11     .rodata:0000000000000018 .LC1
     /tmp/cc8LWnaq.s:694    .text:00000000000003ac .L0 
     /tmp/cc8LWnaq.s:14     .rodata:0000000000000028 .LC2
     /tmp/cc8LWnaq.s:704    .text:00000000000003c8 .L0 
     /tmp/cc8LWnaq.s:771    .text:000000000000043c .L0 
     /tmp/cc8LWnaq.s:780    .text:0000000000000454 .L0 
     /tmp/cc8LWnaq.s:17     .rodata:0000000000000030 .LC3
     /tmp/cc8LWnaq.s:792    .text:0000000000000474 .L0 
     /tmp/cc8LWnaq.s:848    .text:00000000000004d4 .L0 
     /tmp/cc8LWnaq.s:851    .text:00000000000004e4 .L0 
     /tmp/cc8LWnaq.s:855    .text:00000000000004f0 .L0 
     /tmp/cc8LWnaq.s:862    .text:000000000000050c .L0 
     /tmp/cc8LWnaq.s:20     .rodata:0000000000000048 .LC4
     /tmp/cc8LWnaq.s:907    .text:0000000000000550 .L0 
     /tmp/cc8LWnaq.s:23     .rodata:0000000000000068 .LC5
     /tmp/cc8LWnaq.s:912    .text:0000000000000560 .L0 
     /tmp/cc8LWnaq.s:922    .text:000000000000057c .L0 
     /tmp/cc8LWnaq.s:164    .text:0000000000000084 .L2
     /tmp/cc8LWnaq.s:745    .text:000000000000040c .L3
     /tmp/cc8LWnaq.s:670    .text:0000000000000380 .L4
     /tmp/cc8LWnaq.s:680    .text:0000000000000390 .L5
     /tmp/cc8LWnaq.s:652    .text:0000000000000358 .L6
     /tmp/cc8LWnaq.s:267    .text:0000000000000100 .L7
     /tmp/cc8LWnaq.s:601    .text:000000000000030c .L22
     /tmp/cc8LWnaq.s:717    .text:00000000000003ec .L23
     /tmp/cc8LWnaq.s:345    .text:000000000000019c .L24
     /tmp/cc8LWnaq.s:360    .text:00000000000001b0 .L25
     /tmp/cc8LWnaq.s:368    .text:00000000000001b4 .L26
     /tmp/cc8LWnaq.s:453    .text:0000000000000248 .L27
     /tmp/cc8LWnaq.s:461    .text:000000000000024c .L28
     /tmp/cc8LWnaq.s:539    .text:00000000000002ac .L29
     /tmp/cc8LWnaq.s:547    .text:00000000000002b0 .L30
     /tmp/cc8LWnaq.s:714    .text:00000000000003e8 .L40
     /tmp/cc8LWnaq.s:633    .text:000000000000034c .L32
     /tmp/cc8LWnaq.s:641    .text:0000000000000350 .L33
     /tmp/cc8LWnaq.s:930    .text:0000000000000598 .L41
     /tmp/cc8LWnaq.s:832    .text:00000000000004b8 .L35
     /tmp/cc8LWnaq.s:789    .text:0000000000000474 .L36
     /tmp/cc8LWnaq.s:796    .text:0000000000000484 .L37
     /tmp/cc8LWnaq.s:901    .text:0000000000000550 .L38
GAS LISTING /tmp/cc8LWnaq.s 			page 35


     /tmp/cc8LWnaq.s:873    .text:0000000000000530 .L39
     /tmp/cc8LWnaq.s:272    .text:0000000000000110 .L21
     /tmp/cc8LWnaq.s:289    .text:0000000000000124 .L20
     /tmp/cc8LWnaq.s:307    .text:000000000000013c .L19
     /tmp/cc8LWnaq.s:379    .text:00000000000001bc .L18
     /tmp/cc8LWnaq.s:400    .text:00000000000001ec .L17
     /tmp/cc8LWnaq.s:409    .text:00000000000001f8 .L16
     /tmp/cc8LWnaq.s:424    .text:0000000000000214 .L15
     /tmp/cc8LWnaq.s:472    .text:0000000000000254 .L14
     /tmp/cc8LWnaq.s:490    .text:000000000000026c .L13
     /tmp/cc8LWnaq.s:508    .text:0000000000000284 .L12
     /tmp/cc8LWnaq.s:526    .text:000000000000029c .L11
     /tmp/cc8LWnaq.s:573    .text:00000000000002e4 .L10
     /tmp/cc8LWnaq.s:589    .text:00000000000002f4 .L8
     /tmp/cc8LWnaq.s:3145   .debug_abbrev:0000000000000000 .Ldebug_abbrev0
     /tmp/cc8LWnaq.s:5093   .debug_str:0000000000000a74 .LASF224
     /tmp/cc8LWnaq.s:4977   .debug_str:0000000000000749 .LASF225
     /tmp/cc8LWnaq.s:5045   .debug_str:0000000000000940 .LASF226
     /tmp/cc8LWnaq.s:4713   .debug_ranges:0000000000000000 .Ldebug_ranges0
     /tmp/cc8LWnaq.s:4725   .debug_line:0000000000000000 .Ldebug_line0
     /tmp/cc8LWnaq.s:5011   .debug_str:000000000000082e .LASF3
     /tmp/cc8LWnaq.s:4879   .debug_str:0000000000000495 .LASF0
     /tmp/cc8LWnaq.s:4905   .debug_str:0000000000000540 .LASF1
     /tmp/cc8LWnaq.s:5023   .debug_str:0000000000000895 .LASF2
     /tmp/cc8LWnaq.s:4823   .debug_str:00000000000002e0 .LASF4
     /tmp/cc8LWnaq.s:5035   .debug_str:00000000000008fb .LASF5
     /tmp/cc8LWnaq.s:4891   .debug_str:00000000000004d5 .LASF6
     /tmp/cc8LWnaq.s:4741   .debug_str:000000000000006c .LASF7
     /tmp/cc8LWnaq.s:4985   .debug_str:0000000000000788 .LASF8
     /tmp/cc8LWnaq.s:4975   .debug_str:0000000000000736 .LASF9
     /tmp/cc8LWnaq.s:4895   .debug_str:00000000000004f9 .LASF10
     /tmp/cc8LWnaq.s:4845   .debug_str:0000000000000375 .LASF11
     /tmp/cc8LWnaq.s:4859   .debug_str:00000000000003e2 .LASF12
     /tmp/cc8LWnaq.s:4769   .debug_str:0000000000000126 .LASF13
     /tmp/cc8LWnaq.s:4831   .debug_str:0000000000000323 .LASF14
     /tmp/cc8LWnaq.s:4785   .debug_str:00000000000001a5 .LASF15
     /tmp/cc8LWnaq.s:4767   .debug_str:0000000000000116 .LASF16
     /tmp/cc8LWnaq.s:5069   .debug_str:00000000000009de .LASF17
     /tmp/cc8LWnaq.s:4817   .debug_str:000000000000029a .LASF18
     /tmp/cc8LWnaq.s:5055   .debug_str:000000000000098f .LASF19
     /tmp/cc8LWnaq.s:4925   .debug_str:00000000000005b7 .LASF20
     /tmp/cc8LWnaq.s:5145   .debug_str:0000000000000c71 .LASF59
     /tmp/cc8LWnaq.s:5005   .debug_str:000000000000080d .LASF60
     /tmp/cc8LWnaq.s:4913   .debug_str:000000000000056c .LASF21
     /tmp/cc8LWnaq.s:4747   .debug_str:0000000000000091 .LASF22
     /tmp/cc8LWnaq.s:5161   .debug_str:0000000000000cdf .LASF23
     /tmp/cc8LWnaq.s:4867   .debug_str:0000000000000433 .LASF24
     /tmp/cc8LWnaq.s:4875   .debug_str:0000000000000477 .LASF26
     /tmp/cc8LWnaq.s:5043   .debug_str:0000000000000932 .LASF25
     /tmp/cc8LWnaq.s:4821   .debug_str:00000000000002c5 .LASF27
     /tmp/cc8LWnaq.s:4883   .debug_str:00000000000004ac .LASF28
     /tmp/cc8LWnaq.s:5155   .debug_str:0000000000000cb8 .LASF29
     /tmp/cc8LWnaq.s:5119   .debug_str:0000000000000be8 .LASF30
     /tmp/cc8LWnaq.s:5111   .debug_str:0000000000000b9b .LASF32
     /tmp/cc8LWnaq.s:5019   .debug_str:0000000000000881 .LASF34
     /tmp/cc8LWnaq.s:4963   .debug_str:00000000000006df .LASF36
     /tmp/cc8LWnaq.s:4993   .debug_str:00000000000007a9 .LASF31
GAS LISTING /tmp/cc8LWnaq.s 			page 36


     /tmp/cc8LWnaq.s:5001   .debug_str:00000000000007e2 .LASF33
     /tmp/cc8LWnaq.s:4951   .debug_str:0000000000000683 .LASF35
     /tmp/cc8LWnaq.s:4897   .debug_str:000000000000050c .LASF37
     /tmp/cc8LWnaq.s:5157   .debug_str:0000000000000cd2 .LASF38
     /tmp/cc8LWnaq.s:5097   .debug_str:0000000000000b3d .LASF39
     /tmp/cc8LWnaq.s:4945   .debug_str:0000000000000660 .LASF40
     /tmp/cc8LWnaq.s:4961   .debug_str:00000000000006cb .LASF41
     /tmp/cc8LWnaq.s:5065   .debug_str:00000000000009ca .LASF42
     /tmp/cc8LWnaq.s:5037   .debug_str:0000000000000902 .LASF43
     /tmp/cc8LWnaq.s:5039   .debug_str:0000000000000915 .LASF44
     /tmp/cc8LWnaq.s:4775   .debug_str:0000000000000144 .LASF45
     /tmp/cc8LWnaq.s:4813   .debug_str:0000000000000287 .LASF46
     /tmp/cc8LWnaq.s:4873   .debug_str:0000000000000465 .LASF47
     /tmp/cc8LWnaq.s:4885   .debug_str:00000000000004b9 .LASF48
     /tmp/cc8LWnaq.s:4801   .debug_str:0000000000000244 .LASF49
     /tmp/cc8LWnaq.s:4743   .debug_str:0000000000000073 .LASF50
     /tmp/cc8LWnaq.s:5027   .debug_str:00000000000008ad .LASF51
     /tmp/cc8LWnaq.s:5021   .debug_str:000000000000088a .LASF52
     /tmp/cc8LWnaq.s:5183   .debug_str:0000000000000da2 .LASF53
     /tmp/cc8LWnaq.s:5147   .debug_str:0000000000000c77 .LASF54
     /tmp/cc8LWnaq.s:5163   .debug_str:0000000000000ce8 .LASF55
     /tmp/cc8LWnaq.s:5139   .debug_str:0000000000000c3e .LASF56
     /tmp/cc8LWnaq.s:4933   .debug_str:00000000000005e7 .LASF57
     /tmp/cc8LWnaq.s:5103   .debug_str:0000000000000b6b .LASF153
     /tmp/cc8LWnaq.s:4791   .debug_str:00000000000001e5 .LASF154
     /tmp/cc8LWnaq.s:5137   .debug_str:0000000000000c35 .LASF58
     /tmp/cc8LWnaq.s:5051   .debug_str:0000000000000974 .LASF61
     /tmp/cc8LWnaq.s:4991   .debug_str:00000000000007a1 .LASF62
     /tmp/cc8LWnaq.s:4799   .debug_str:000000000000023d .LASF63
     /tmp/cc8LWnaq.s:4727   .debug_str:0000000000000000 .LASF64
     /tmp/cc8LWnaq.s:4851   .debug_str:00000000000003a1 .LASF65
     /tmp/cc8LWnaq.s:4901   .debug_str:000000000000052f .LASF66
     /tmp/cc8LWnaq.s:4761   .debug_str:00000000000000ed .LASF67
     /tmp/cc8LWnaq.s:5077   .debug_str:0000000000000a13 .LASF131
     /tmp/cc8LWnaq.s:4773   .debug_str:000000000000013a .LASF68
     /tmp/cc8LWnaq.s:4861   .debug_str:00000000000003f0 .LASF70
     /tmp/cc8LWnaq.s:5007   .debug_str:0000000000000818 .LASF74
     /tmp/cc8LWnaq.s:4921   .debug_str:0000000000000598 .LASF76
     /tmp/cc8LWnaq.s:5067   .debug_str:00000000000009d1 .LASF69
     /tmp/cc8LWnaq.s:5153   .debug_str:0000000000000c96 .LASF71
     /tmp/cc8LWnaq.s:4967   .debug_str:00000000000006ff .LASF227
     /tmp/cc8LWnaq.s:5173   .debug_str:0000000000000d54 .LASF72
     /tmp/cc8LWnaq.s:4893   .debug_str:00000000000004e7 .LASF73
     /tmp/cc8LWnaq.s:4931   .debug_str:00000000000005da .LASF75
     /tmp/cc8LWnaq.s:5003   .debug_str:00000000000007f5 .LASF77
     /tmp/cc8LWnaq.s:4805   .debug_str:000000000000025f .LASF78
     /tmp/cc8LWnaq.s:5031   .debug_str:00000000000008d5 .LASF79
     /tmp/cc8LWnaq.s:4997   .debug_str:00000000000007d0 .LASF80
     /tmp/cc8LWnaq.s:4927   .debug_str:00000000000005bc .LASF81
     /tmp/cc8LWnaq.s:5117   .debug_str:0000000000000bdd .LASF82
     /tmp/cc8LWnaq.s:4833   .debug_str:0000000000000332 .LASF83
     /tmp/cc8LWnaq.s:5187   .debug_str:0000000000000dc7 .LASF84
     /tmp/cc8LWnaq.s:4829   .debug_str:000000000000030a .LASF85
     /tmp/cc8LWnaq.s:4911   .debug_str:0000000000000566 .LASF86
     /tmp/cc8LWnaq.s:5017   .debug_str:0000000000000871 .LASF87
     /tmp/cc8LWnaq.s:4807   .debug_str:000000000000026c .LASF88
     /tmp/cc8LWnaq.s:4777   .debug_str:0000000000000157 .LASF89
GAS LISTING /tmp/cc8LWnaq.s 			page 37


     /tmp/cc8LWnaq.s:5129   .debug_str:0000000000000c1c .LASF90
     /tmp/cc8LWnaq.s:4749   .debug_str:000000000000009a .LASF91
     /tmp/cc8LWnaq.s:5089   .debug_str:0000000000000a5c .LASF92
     /tmp/cc8LWnaq.s:4763   .debug_str:00000000000000f6 .LASF93
     /tmp/cc8LWnaq.s:5185   .debug_str:0000000000000dba .LASF94
     /tmp/cc8LWnaq.s:4855   .debug_str:00000000000003c1 .LASF95
     /tmp/cc8LWnaq.s:4733   .debug_str:000000000000001e .LASF96
     /tmp/cc8LWnaq.s:4959   .debug_str:00000000000006be .LASF97
     /tmp/cc8LWnaq.s:5109   .debug_str:0000000000000b93 .LASF98
     /tmp/cc8LWnaq.s:4765   .debug_str:0000000000000107 .LASF99
     /tmp/cc8LWnaq.s:5179   .debug_str:0000000000000d7b .LASF100
     /tmp/cc8LWnaq.s:5121   .debug_str:0000000000000bf1 .LASF101
     /tmp/cc8LWnaq.s:5099   .debug_str:0000000000000b51 .LASF102
     /tmp/cc8LWnaq.s:5091   .debug_str:0000000000000a64 .LASF103
     /tmp/cc8LWnaq.s:4971   .debug_str:000000000000070c .LASF104
     /tmp/cc8LWnaq.s:4731   .debug_str:0000000000000011 .LASF105
     /tmp/cc8LWnaq.s:5033   .debug_str:00000000000008ed .LASF106
     /tmp/cc8LWnaq.s:5133   .debug_str:0000000000000c29 .LASF107
     /tmp/cc8LWnaq.s:5171   .debug_str:0000000000000d3e .LASF161
     /tmp/cc8LWnaq.s:4793   .debug_str:00000000000001fd .LASF137
     /tmp/cc8LWnaq.s:4737   .debug_str:0000000000000036 .LASF138
     /tmp/cc8LWnaq.s:4847   .debug_str:0000000000000385 .LASF108
     /tmp/cc8LWnaq.s:5057   .debug_str:00000000000009a5 .LASF109
     /tmp/cc8LWnaq.s:4903   .debug_str:0000000000000538 .LASF110
     /tmp/cc8LWnaq.s:4957   .debug_str:00000000000006ab .LASF111
     /tmp/cc8LWnaq.s:4809   .debug_str:0000000000000275 .LASF112
     /tmp/cc8LWnaq.s:5029   .debug_str:00000000000008c5 .LASF113
     /tmp/cc8LWnaq.s:5073   .debug_str:00000000000009f7 .LASF114
     /tmp/cc8LWnaq.s:4757   .debug_str:00000000000000d2 .LASF115
     /tmp/cc8LWnaq.s:4803   .debug_str:0000000000000256 .LASF116
     /tmp/cc8LWnaq.s:4949   .debug_str:000000000000066d .LASF117
     /tmp/cc8LWnaq.s:4815   .debug_str:000000000000028d .LASF118
     /tmp/cc8LWnaq.s:4739   .debug_str:000000000000005e .LASF119
     /tmp/cc8LWnaq.s:4877   .debug_str:000000000000048f .LASF120
     /tmp/cc8LWnaq.s:5085   .debug_str:0000000000000a3a .LASF121
     /tmp/cc8LWnaq.s:4735   .debug_str:000000000000002e .LASF122
     /tmp/cc8LWnaq.s:4745   .debug_str:000000000000007e .LASF123
     /tmp/cc8LWnaq.s:5149   .debug_str:0000000000000c81 .LASF124
     /tmp/cc8LWnaq.s:5115   .debug_str:0000000000000bcd .LASF125
     /tmp/cc8LWnaq.s:5025   .debug_str:00000000000008a3 .LASF126
     /tmp/cc8LWnaq.s:4899   .debug_str:000000000000051f .LASF127
     /tmp/cc8LWnaq.s:4987   .debug_str:000000000000078f .LASF128
     /tmp/cc8LWnaq.s:5127   .debug_str:0000000000000c14 .LASF129
     /tmp/cc8LWnaq.s:4953   .debug_str:000000000000068a .LASF130
     /tmp/cc8LWnaq.s:5135   .debug_str:0000000000000c30 .LASF132
     /tmp/cc8LWnaq.s:5105   .debug_str:0000000000000b76 .LASF133
     /tmp/cc8LWnaq.s:4771   .debug_str:0000000000000135 .LASF134
     /tmp/cc8LWnaq.s:4781   .debug_str:0000000000000174 .LASF135
     /tmp/cc8LWnaq.s:4795   .debug_str:000000000000020b .LASF136
     /tmp/cc8LWnaq.s:4787   .debug_str:00000000000001b5 .LASF139
     /tmp/cc8LWnaq.s:4753   .debug_str:00000000000000c1 .LASF140
     /tmp/cc8LWnaq.s:4939   .debug_str:0000000000000627 .LASF141
     /tmp/cc8LWnaq.s:4751   .debug_str:00000000000000ac .LASF142
     /tmp/cc8LWnaq.s:4853   .debug_str:00000000000003a9 .LASF143
     /tmp/cc8LWnaq.s:5107   .debug_str:0000000000000b7b .LASF228
     /tmp/cc8LWnaq.s:5079   .debug_str:0000000000000a1b .LASF144
     /tmp/cc8LWnaq.s:4915   .debug_str:0000000000000575 .LASF145
GAS LISTING /tmp/cc8LWnaq.s 			page 38


     /tmp/cc8LWnaq.s:4887   .debug_str:00000000000004bf .LASF146
     /tmp/cc8LWnaq.s:4825   .debug_str:00000000000002e6 .LASF147
     /tmp/cc8LWnaq.s:4909   .debug_str:000000000000055e .LASF148
     /tmp/cc8LWnaq.s:4941   .debug_str:000000000000062c .LASF149
     /tmp/cc8LWnaq.s:4759   .debug_str:00000000000000e4 .LASF150
     /tmp/cc8LWnaq.s:4935   .debug_str:00000000000005fd .LASF151
     /tmp/cc8LWnaq.s:4789   .debug_str:00000000000001d0 .LASF152
     /tmp/cc8LWnaq.s:5143   .debug_str:0000000000000c5b .LASF155
     /tmp/cc8LWnaq.s:4843   .debug_str:000000000000036b .LASF156
     /tmp/cc8LWnaq.s:5063   .debug_str:00000000000009c5 .LASF157
     /tmp/cc8LWnaq.s:4947   .debug_str:0000000000000668 .LASF158
     /tmp/cc8LWnaq.s:5177   .debug_str:0000000000000d6e .LASF159
     /tmp/cc8LWnaq.s:5169   .debug_str:0000000000000d2c .LASF160
     /tmp/cc8LWnaq.s:4871   .debug_str:000000000000044d .LASF162
     /tmp/cc8LWnaq.s:5175   .debug_str:0000000000000d5a .LASF229
     /tmp/cc8LWnaq.s:5101   .debug_str:0000000000000b5b .LASF163
     /tmp/cc8LWnaq.s:5013   .debug_str:0000000000000833 .LASF164
     /tmp/cc8LWnaq.s:4755   .debug_str:00000000000000c7 .LASF165
     /tmp/cc8LWnaq.s:5181   .debug_str:0000000000000d81 .LASF166
     /tmp/cc8LWnaq.s:4917   .debug_str:000000000000058a .LASF167
     /tmp/cc8LWnaq.s:5075   .debug_str:00000000000009fe .LASF168
     /tmp/cc8LWnaq.s:4919   .debug_str:000000000000058f .LASF169
     /tmp/cc8LWnaq.s:5047   .debug_str:000000000000095e .LASF170
     /tmp/cc8LWnaq.s:4955   .debug_str:0000000000000696 .LASF171
     /tmp/cc8LWnaq.s:4979   .debug_str:0000000000000762 .LASF172
     /tmp/cc8LWnaq.s:4943   .debug_str:000000000000064b .LASF173
     /tmp/cc8LWnaq.s:5087   .debug_str:0000000000000a4b .LASF174
     /tmp/cc8LWnaq.s:5071   .debug_str:00000000000009ea .LASF175
     /tmp/cc8LWnaq.s:5113   .debug_str:0000000000000bb0 .LASF176
     /tmp/cc8LWnaq.s:5125   .debug_str:0000000000000c02 .LASF177
     /tmp/cc8LWnaq.s:5165   .debug_str:0000000000000cfe .LASF178
     /tmp/cc8LWnaq.s:4889   .debug_str:00000000000004c7 .LASF179
     /tmp/cc8LWnaq.s:4973   .debug_str:0000000000000718 .LASF180
     /tmp/cc8LWnaq.s:4865   .debug_str:0000000000000426 .LASF181
     /tmp/cc8LWnaq.s:5015   .debug_str:0000000000000854 .LASF182
     /tmp/cc8LWnaq.s:5061   .debug_str:00000000000009b1 .LASF183
     /tmp/cc8LWnaq.s:4857   .debug_str:00000000000003cd .LASF184
     /tmp/cc8LWnaq.s:4841   .debug_str:000000000000035d .LASF185
     /tmp/cc8LWnaq.s:5081   .debug_str:0000000000000a28 .LASF186
     /tmp/cc8LWnaq.s:5009   .debug_str:0000000000000822 .LASF187
     /tmp/cc8LWnaq.s:4729   .debug_str:0000000000000008 .LASF230
     /tmp/cc8LWnaq.s:5123   .debug_str:0000000000000bf6 .LASF188
     /tmp/cc8LWnaq.s:4811   .debug_str:000000000000027a .LASF189
     /tmp/cc8LWnaq.s:4881   .debug_str:00000000000004a2 .LASF190
     /tmp/cc8LWnaq.s:4989   .debug_str:0000000000000797 .LASF191
     /tmp/cc8LWnaq.s:4907   .debug_str:0000000000000553 .LASF192
     /tmp/cc8LWnaq.s:4965   .debug_str:00000000000006f4 .LASF193
     /tmp/cc8LWnaq.s:5049   .debug_str:0000000000000964 .LASF194
     /tmp/cc8LWnaq.s:5083   .debug_str:0000000000000a35 .LASF195
     /tmp/cc8LWnaq.s:4827   .debug_str:0000000000000302 .LASF196
     /tmp/cc8LWnaq.s:4863   .debug_str:0000000000000415 .LASF197
     /tmp/cc8LWnaq.s:4995   .debug_str:00000000000007b0 .LASF198
     /tmp/cc8LWnaq.s:4835   .debug_str:000000000000034a .LASF199
     /tmp/cc8LWnaq.s:4849   .debug_str:000000000000038b .LASF200
     /tmp/cc8LWnaq.s:4839   .debug_str:0000000000000357 .LASF201
     /tmp/cc8LWnaq.s:4819   .debug_str:00000000000002b0 .LASF202
     /tmp/cc8LWnaq.s:4929   .debug_str:00000000000005ce .LASF203
GAS LISTING /tmp/cc8LWnaq.s 			page 39


     /tmp/cc8LWnaq.s:5141   .debug_str:0000000000000c48 .LASF204
     /tmp/cc8LWnaq.s:4981   .debug_str:0000000000000768 .LASF205
     /tmp/cc8LWnaq.s:4869   .debug_str:000000000000043e .LASF206
     /tmp/cc8LWnaq.s:4797   .debug_str:0000000000000225 .LASF207
     /tmp/cc8LWnaq.s:4999   .debug_str:00000000000007d8 .LASF208
     /tmp/cc8LWnaq.s:4969   .debug_str:0000000000000704 .LASF209
     /tmp/cc8LWnaq.s:5041   .debug_str:000000000000091c .LASF210
     /tmp/cc8LWnaq.s:4983   .debug_str:0000000000000777 .LASF211
     /tmp/cc8LWnaq.s:30     .text:0000000000000000 .LFB51
     /tmp/cc8LWnaq.s:949    .text:00000000000005b0 .LFE51
     /tmp/cc8LWnaq.s:5059   .debug_str:00000000000009aa .LASF212
     /tmp/cc8LWnaq.s:4220   .debug_loc:0000000000000000 .LLST0
     /tmp/cc8LWnaq.s:5095   .debug_str:0000000000000b38 .LASF213
     /tmp/cc8LWnaq.s:4251   .debug_loc:0000000000000087 .LLST1
     /tmp/cc8LWnaq.s:5151   .debug_str:0000000000000c8e .LASF214
     /tmp/cc8LWnaq.s:4282   .debug_loc:000000000000010e .LLST2
     /tmp/cc8LWnaq.s:4304   .debug_loc:000000000000016e .LLST3
     /tmp/cc8LWnaq.s:4326   .debug_loc:00000000000001ce .LLST4
     /tmp/cc8LWnaq.s:4348   .debug_loc:000000000000022f .LLST5
     /tmp/cc8LWnaq.s:4370   .debug_loc:0000000000000290 .LLST6
     /tmp/cc8LWnaq.s:4392   .debug_loc:00000000000002f1 .LLST7
     /tmp/cc8LWnaq.s:4414   .debug_loc:0000000000000352 .LLST8
     /tmp/cc8LWnaq.s:4436   .debug_loc:00000000000003b3 .LLST9
     /tmp/cc8LWnaq.s:4458   .debug_loc:0000000000000414 .LLST10
     /tmp/cc8LWnaq.s:756    .text:0000000000000420 .LBB5
     /tmp/cc8LWnaq.s:825    .text:00000000000004b4 .LBE5
     /tmp/cc8LWnaq.s:4651   .debug_loc:000000000000076d .LLST11
     /tmp/cc8LWnaq.s:760    .text:0000000000000428 .LVL70
     /tmp/cc8LWnaq.s:786    .text:0000000000000470 .LVL73
     /tmp/cc8LWnaq.s:795    .text:0000000000000484 .LVL76
     /tmp/cc8LWnaq.s:803    .text:0000000000000498 .LVL77
     /tmp/cc8LWnaq.s:824    .text:00000000000004b4 .LVL78
     /tmp/cc8LWnaq.s:278    .text:000000000000011c .LVL21
     /tmp/cc8LWnaq.s:296    .text:0000000000000134 .LVL23
     /tmp/cc8LWnaq.s:321    .text:0000000000000160 .LVL25
     /tmp/cc8LWnaq.s:336    .text:0000000000000184 .LVL26
     /tmp/cc8LWnaq.s:344    .text:000000000000019c .LVL27
     /tmp/cc8LWnaq.s:388    .text:00000000000001d8 .LVL29
     /tmp/cc8LWnaq.s:392    .text:00000000000001e0 .LVL30
     /tmp/cc8LWnaq.s:396    .text:00000000000001e8 .LVL31
     /tmp/cc8LWnaq.s:405    .text:00000000000001f4 .LVL33
     /tmp/cc8LWnaq.s:416    .text:0000000000000208 .LVL35
     /tmp/cc8LWnaq.s:420    .text:0000000000000210 .LVL36
     /tmp/cc8LWnaq.s:435    .text:000000000000022c .LVL38
     /tmp/cc8LWnaq.s:479    .text:0000000000000264 .LVL40
     /tmp/cc8LWnaq.s:497    .text:000000000000027c .LVL42
     /tmp/cc8LWnaq.s:515    .text:0000000000000294 .LVL44
     /tmp/cc8LWnaq.s:565    .text:00000000000002d8 .LVL46
     /tmp/cc8LWnaq.s:569    .text:00000000000002e0 .LVL47
     /tmp/cc8LWnaq.s:578    .text:00000000000002ec .LVL49
     /tmp/cc8LWnaq.s:597    .text:0000000000000308 .LVL51
     /tmp/cc8LWnaq.s:615    .text:0000000000000330 .LVL53
     /tmp/cc8LWnaq.s:659    .text:0000000000000368 .LVL55
     /tmp/cc8LWnaq.s:666    .text:000000000000037c .LVL56
     /tmp/cc8LWnaq.s:676    .text:000000000000038c .LVL58
     /tmp/cc8LWnaq.s:686    .text:00000000000003a0 .LVL60
     /tmp/cc8LWnaq.s:691    .text:00000000000003ac .LVL61
GAS LISTING /tmp/cc8LWnaq.s 			page 40


     /tmp/cc8LWnaq.s:696    .text:00000000000003bc .LVL62
     /tmp/cc8LWnaq.s:701    .text:00000000000003c8 .LVL63
     /tmp/cc8LWnaq.s:706    .text:00000000000003d8 .LVL64
     /tmp/cc8LWnaq.s:711    .text:00000000000003e4 .LVL65
     /tmp/cc8LWnaq.s:845    .text:00000000000004d4 .LVL80
     /tmp/cc8LWnaq.s:859    .text:0000000000000508 .LVL81
     /tmp/cc8LWnaq.s:872    .text:0000000000000530 .LVL82
     /tmp/cc8LWnaq.s:894    .text:000000000000054c .LVL83
     /tmp/cc8LWnaq.s:909    .text:0000000000000560 .LVL85
     /tmp/cc8LWnaq.s:914    .text:0000000000000570 .LVL86
     /tmp/cc8LWnaq.s:919    .text:000000000000057c .LVL87
     /tmp/cc8LWnaq.s:924    .text:000000000000058c .LVL88
     /tmp/cc8LWnaq.s:929    .text:0000000000000598 .LVL89
     /tmp/cc8LWnaq.s:1018   .text._ZN3TCB12getTimeSliceEv:0000000000000000 .LFB34
     /tmp/cc8LWnaq.s:1039   .text._ZN3TCB12getTimeSliceEv:000000000000001c .LFE34
     /tmp/cc8LWnaq.s:4837   .debug_str:0000000000000352 .LASF215
     /tmp/cc8LWnaq.s:4680   .debug_loc:00000000000007f1 .LLST12
     /tmp/cc8LWnaq.s:989    .text._ZN3TCB9setStatusENS_12ThreadStatusE:0000000000000000 .LFB32
     /tmp/cc8LWnaq.s:1011   .text._ZN3TCB9setStatusENS_12ThreadStatusE:000000000000001c .LFE32
     /tmp/cc8LWnaq.s:5159   .debug_str:0000000000000cda .LASF216
     /tmp/cc8LWnaq.s:956    .text._ZN5Riscv6mc_sipEm:0000000000000000 .LFB10
     /tmp/cc8LWnaq.s:982    .text._ZN5Riscv6mc_sipEm:000000000000001c .LFE10
     /tmp/cc8LWnaq.s:5131   .debug_str:0000000000000c24 .LASF217
     /tmp/cc8LWnaq.s:4923   .debug_str:00000000000005ac .LASF218
     /tmp/cc8LWnaq.s:4783   .debug_str:0000000000000192 .LASF219
     /tmp/cc8LWnaq.s:5167   .debug_str:0000000000000d20 .LASF220
     /tmp/cc8LWnaq.s:5053   .debug_str:0000000000000981 .LASF221
     /tmp/cc8LWnaq.s:4937   .debug_str:0000000000000619 .LASF222
     /tmp/cc8LWnaq.s:4779   .debug_str:000000000000016a .LASF223
     /tmp/cc8LWnaq.s:53     .text:000000000000001c .LVL0
     /tmp/cc8LWnaq.s:60     .text:0000000000000020 .LVL1
     /tmp/cc8LWnaq.s:744    .text:000000000000040c .LVL68
     /tmp/cc8LWnaq.s:751    .text:0000000000000410 .LVL69
     /tmp/cc8LWnaq.s:941    .text:00000000000005a4 .LVL90
     /tmp/cc8LWnaq.s:946    .text:00000000000005ac .LVL91
     /tmp/cc8LWnaq.s:63     .text:0000000000000024 .LVL2
     /tmp/cc8LWnaq.s:70     .text:0000000000000028 .LVL3
     /tmp/cc8LWnaq.s:723    .text:00000000000003f8 .LVL66
     /tmp/cc8LWnaq.s:735    .text:0000000000000404 .LVL67
     /tmp/cc8LWnaq.s:73     .text:000000000000002c .LVL4
     /tmp/cc8LWnaq.s:81     .text:0000000000000030 .LVL5
     /tmp/cc8LWnaq.s:84     .text:0000000000000034 .LVL6
     /tmp/cc8LWnaq.s:91     .text:0000000000000038 .LVL7
     /tmp/cc8LWnaq.s:94     .text:000000000000003c .LVL8
     /tmp/cc8LWnaq.s:101    .text:0000000000000040 .LVL9
     /tmp/cc8LWnaq.s:104    .text:0000000000000044 .LVL10
     /tmp/cc8LWnaq.s:111    .text:0000000000000048 .LVL11
     /tmp/cc8LWnaq.s:114    .text:000000000000004c .LVL12
     /tmp/cc8LWnaq.s:121    .text:0000000000000050 .LVL13
     /tmp/cc8LWnaq.s:124    .text:0000000000000054 .LVL14
     /tmp/cc8LWnaq.s:131    .text:0000000000000058 .LVL15
     /tmp/cc8LWnaq.s:134    .text:000000000000005c .LVL16
     /tmp/cc8LWnaq.s:141    .text:0000000000000060 .LVL17
     /tmp/cc8LWnaq.s:144    .text:0000000000000064 .LVL18
     /tmp/cc8LWnaq.s:151    .text:0000000000000068 .LVL19
     /tmp/cc8LWnaq.s:154    .text:000000000000006c .LVL20
     /tmp/cc8LWnaq.s:288    .text:0000000000000124 .LVL22
GAS LISTING /tmp/cc8LWnaq.s 			page 41


     /tmp/cc8LWnaq.s:306    .text:000000000000013c .LVL24
     /tmp/cc8LWnaq.s:378    .text:00000000000001bc .LVL28
     /tmp/cc8LWnaq.s:399    .text:00000000000001ec .LVL32
     /tmp/cc8LWnaq.s:408    .text:00000000000001f8 .LVL34
     /tmp/cc8LWnaq.s:423    .text:0000000000000214 .LVL37
     /tmp/cc8LWnaq.s:471    .text:0000000000000254 .LVL39
     /tmp/cc8LWnaq.s:489    .text:000000000000026c .LVL41
     /tmp/cc8LWnaq.s:507    .text:0000000000000284 .LVL43
     /tmp/cc8LWnaq.s:525    .text:000000000000029c .LVL45
     /tmp/cc8LWnaq.s:572    .text:00000000000002e4 .LVL48
     /tmp/cc8LWnaq.s:588    .text:00000000000002f4 .LVL50
     /tmp/cc8LWnaq.s:600    .text:000000000000030c .LVL52
     /tmp/cc8LWnaq.s:651    .text:0000000000000358 .LVL54
     /tmp/cc8LWnaq.s:669    .text:0000000000000380 .LVL57
     /tmp/cc8LWnaq.s:679    .text:0000000000000390 .LVL59
     /tmp/cc8LWnaq.s:831    .text:00000000000004b8 .LVL79
     /tmp/cc8LWnaq.s:900    .text:0000000000000550 .LVL84
     /tmp/cc8LWnaq.s:764    .text:0000000000000430 .LVL71
     /tmp/cc8LWnaq.s:784    .text:0000000000000468 .LVL72
     /tmp/cc8LWnaq.s:788    .text:0000000000000474 .LVL74
     /tmp/cc8LWnaq.s:793    .text:000000000000047c .LVL75
     /tmp/cc8LWnaq.s:1021   .text._ZN3TCB12getTimeSliceEv:0000000000000000 .LVL94
     /tmp/cc8LWnaq.s:1031   .text._ZN3TCB12getTimeSliceEv:0000000000000010 .LVL95
     /tmp/cc8LWnaq.s:1053   .debug_info:0000000000000000 .Ldebug_info0
     /tmp/cc8LWnaq.s:5      .text:0000000000000000 .Ltext0
     /tmp/cc8LWnaq.s:1042   .text:00000000000005b0 .Letext0

UNDEFINED SYMBOLS
_ZN7KMemory7kmallocEm
_ZN7KMemory5kfreeEPv
_ZN3TCB12createThreadEPFvPvES0_Pm
_ZN9Scheduler3putEP3TCB
_ZN3TCB7runningE
_ZN3TCB13releaseJoinedEv
_ZN3TCB5yieldEv
_ZN3TCB10threadJoinEPS_
_ZN4KSem7initSemEj
_ZN4KSem8closeSemEPS_
_ZN4KSem4waitEv
_ZN4KSem6signalEv
_ZN9Scheduler10putToSleepEP3TCBm
_ZN8KConsole5kgetcEv
_ZN8KConsole5kputcEc
_Z9kPrintIntm
_Z11printStringPKc
plic_claim
_ZN8KConsole2srE
_ZN8KConsole2drE
_ZN8KConsole12placeInInputEc
plic_complete
_ZN9Scheduler4wakeEv
_ZN3TCB16runningTimeSliceE
