GAS LISTING /tmp/ccZTy7Y8.s 			page 1


   1              		.file	"interruptRoutine.cpp"
   2              		.option pic
   3              		.option norelax
   4              		.text
   5              	.Ltext0:
   6              		.section	.rodata
   7              		.align	3
   8              	.LC0:
   9 0000 0A4E6570 		.string	"\nNepostojeci op code: "
   9      6F73746F 
   9      6A656369 
   9      206F7020 
   9      636F6465 
  10 0017 00       		.align	3
  11              	.LC1:
  12 0018 0A736361 		.string	"\nscause: "
  12      7573653A 
  12      2000
  13 0022 00000000 		.align	3
  13      0000
  14              	.LC2:
  15 0028 0A736570 		.string	"\nsepc: "
  15      633A2000 
  16              		.align	3
  17              	.LC3:
  18 0030 4E656B69 		.string	"Neki drugi prekid\n"
  18      20647275 
  18      67692070 
  18      72656B69 
  18      640A00
  19 0043 00000000 		.align	3
  19      00
  20              	.LC4:
  21 0048 0A477265 		.string	"\nGreska u prekidnoj rutini\n"
  21      736B6120 
  21      75207072 
  21      656B6964 
  21      6E6F6A20 
  22 0064 00000000 		.align	3
  23              	.LC5:
  24 0068 73636175 		.string	"scause: "
  24      73653A20 
  24      00
  25              		.text
  26              		.align	2
  27              		.globl	interruptRoutine
  29              	interruptRoutine:
  30              	.LFB49:
  31              		.file 1 "src/interruptRoutine.cpp"
   1:src/interruptRoutine.cpp **** //
   2:src/interruptRoutine.cpp **** // Created by os on 5/22/23.
   3:src/interruptRoutine.cpp **** //
   4:src/interruptRoutine.cpp **** 
   5:src/interruptRoutine.cpp **** #include "../lib/console.h"
   6:src/interruptRoutine.cpp **** #include "../lib/hw.h"
   7:src/interruptRoutine.cpp **** #include "../h/MemoryAllocator.hpp"
   8:src/interruptRoutine.cpp **** #include "../h/helper.hpp"
GAS LISTING /tmp/ccZTy7Y8.s 			page 2


   9:src/interruptRoutine.cpp **** #include "../h/Riscv.hpp"
  10:src/interruptRoutine.cpp **** #include "../h/syscall_c.hpp"
  11:src/interruptRoutine.cpp **** #include "../h/TCB.hpp"
  12:src/interruptRoutine.cpp **** #include "../h/Scheduler.hpp"
  13:src/interruptRoutine.cpp **** #include "../h/KSem.hpp"
  14:src/interruptRoutine.cpp **** #include "../h/KConsole.hpp"
  15:src/interruptRoutine.cpp **** 
  16:src/interruptRoutine.cpp **** #include "../test/printing.hpp"
  17:src/interruptRoutine.cpp **** 
  18:src/interruptRoutine.cpp **** //void printInteger(int i);
  19:src/interruptRoutine.cpp **** 
  20:src/interruptRoutine.cpp **** #pragma GCC optimize("O0")
  21:src/interruptRoutine.cpp **** extern "C" void interruptRoutine() {
  32              		.loc 1 21 36
  33              		.cfi_startproc
  34 0000 130101F8 		addi	sp,sp,-128
  35              		.cfi_def_cfa_offset 128
  36 0004 233C1106 		sd	ra,120(sp)
  37 0008 23388106 		sd	s0,112(sp)
  38 000c 23349106 		sd	s1,104(sp)
  39              		.cfi_offset 1, -8
  40              		.cfi_offset 8, -16
  41              		.cfi_offset 9, -24
  42 0010 13040108 		addi	s0,sp,128
  43              		.cfi_def_cfa 8, 0
  22:src/interruptRoutine.cpp ****     //bitni sistemski registri
  23:src/interruptRoutine.cpp ****     uint64 scause, sepc, sstatus;
  44              		.loc 1 23 5
  24:src/interruptRoutine.cpp ****     __asm__ volatile("csrr %[scause], scause":[scause] "=r"(scause): : "a5", "a0", "a1", "a2", "a3"
  45              		.loc 1 24 5
  46              		.loc 1 24 119 is_stmt 0
  47              	#APP
  48              	# 24 "src/interruptRoutine.cpp" 1
  25              	    __asm__ volatile("csrr %[sepc], sepc":[sepc] "=r"(sepc): : "a5", "a0", "a1", "a2", "a3", "a4", 
  49              		csrr t1, scause
  50              	# 0 "" 2
  51              	#NO_APP
  52 0018 233C64FC 		sd	t1,-40(s0)
  53              	.LVL0:
  54              		.loc 1 25 5 is_stmt 1
  55              		.loc 1 25 111 is_stmt 0
  56              	#APP
  57              	# 25 "src/interruptRoutine.cpp" 1
  26              	    __asm__ volatile("csrr %[stat], sstatus":[stat] "=r"(sstatus): : "a5", "a0", "a1", "a2", "a3", 
  58              		csrr t1, sepc
  59              	# 0 "" 2
  60              	.LVL1:
  61              	#NO_APP
  62 0020 233864FC 		sd	t1,-48(s0)
  63              	.LVL2:
  64              		.loc 1 26 5 is_stmt 1
  65              		.loc 1 26 117 is_stmt 0
  66              	#APP
  67              	# 26 "src/interruptRoutine.cpp" 1
  27              	
  68              		csrr t1, sstatus
  69              	# 0 "" 2
GAS LISTING /tmp/ccZTy7Y8.s 			page 3


  70              	.LVL3:
  71              	#NO_APP
  72 0028 233464FC 		sd	t1,-56(s0)
  73              	.LVL4:
  28:src/interruptRoutine.cpp ****     //argumenti preneti sistemskom pozivu
  29:src/interruptRoutine.cpp ****     uint64 a0, a1, a2, a3, a4, a5, a6, a7;
  74              		.loc 1 29 5 is_stmt 1
  30:src/interruptRoutine.cpp ****     __asm__ volatile("mv %[ax], a0":[ax] "=r"(a0): : "a5", "a0", "a1", "a2", "a3", "a4", "a6", "a7"
  75              		.loc 1 30 5
  76              		.loc 1 30 101 is_stmt 0
  77              	#APP
  78              	# 30 "src/interruptRoutine.cpp" 1
  31              	    __asm__ volatile("mv %[ax], a1":[ax] "=r"(a1): : "a5", "a0", "a1", "a2", "a3", "a4", "a6", "a7"
  79              		mv t1, a0
  80              	# 0 "" 2
  81              	.LVL5:
  82              	#NO_APP
  83 0030 233064FC 		sd	t1,-64(s0)
  84              	.LVL6:
  85              		.loc 1 31 5 is_stmt 1
  86              		.loc 1 31 101 is_stmt 0
  87              	#APP
  88              	# 31 "src/interruptRoutine.cpp" 1
  32              	    __asm__ volatile("mv %[ax], a2":[ax] "=r"(a2): : "a5", "a0", "a1", "a2", "a3", "a4", "a6", "a7"
  89              		mv t1, a1
  90              	# 0 "" 2
  91              	.LVL7:
  92              	#NO_APP
  93 0038 233C64FA 		sd	t1,-72(s0)
  94              	.LVL8:
  95              		.loc 1 32 5 is_stmt 1
  96              		.loc 1 32 101 is_stmt 0
  97              	#APP
  98              	# 32 "src/interruptRoutine.cpp" 1
  33              	    __asm__ volatile("mv %[ax], a3":[ax] "=r"(a3): : "a5", "a0", "a1", "a2", "a3", "a4", "a6", "a7"
  99              		mv t1, a2
 100              	# 0 "" 2
 101              	.LVL9:
 102              	#NO_APP
 103 0040 233864FA 		sd	t1,-80(s0)
 104              	.LVL10:
 105              		.loc 1 33 5 is_stmt 1
 106              		.loc 1 33 101 is_stmt 0
 107              	#APP
 108              	# 33 "src/interruptRoutine.cpp" 1
  34              	    __asm__ volatile("mv %[ax], a4":[ax] "=r"(a4): : "a5", "a0", "a1", "a2", "a3", "a4", "a6", "a7"
 109              		mv t1, a3
 110              	# 0 "" 2
 111              	.LVL11:
 112              	#NO_APP
 113 0048 233464FA 		sd	t1,-88(s0)
 114              	.LVL12:
 115              		.loc 1 34 5 is_stmt 1
 116              		.loc 1 34 101 is_stmt 0
 117              	#APP
 118              	# 34 "src/interruptRoutine.cpp" 1
  35              	    __asm__ volatile("mv %[ax], a5":[ax] "=r"(a5): : "a5", "a0", "a1", "a2", "a3", "a4", "a6", "a7"
GAS LISTING /tmp/ccZTy7Y8.s 			page 4


 119              		mv t1, a4
 120              	# 0 "" 2
 121              	.LVL13:
 122              	#NO_APP
 123 0050 233064FA 		sd	t1,-96(s0)
 124              	.LVL14:
 125              		.loc 1 35 5 is_stmt 1
 126              		.loc 1 35 101 is_stmt 0
 127              	#APP
 128              	# 35 "src/interruptRoutine.cpp" 1
  36              	    __asm__ volatile("mv %[ax], a6":[ax] "=r"(a6): : "a5", "a0", "a1", "a2", "a3", "a4", "a6", "a7"
 129              		mv t1, a5
 130              	# 0 "" 2
 131              	.LVL15:
 132              	#NO_APP
 133 0058 233C64F8 		sd	t1,-104(s0)
 134              	.LVL16:
 135              		.loc 1 36 5 is_stmt 1
 136              		.loc 1 36 101 is_stmt 0
 137              	#APP
 138              	# 36 "src/interruptRoutine.cpp" 1
  37              	    __asm__ volatile("mv %[ax], a7":[ax] "=r"(a7): : "a5", "a0", "a1", "a2", "a3", "a4", "a6", "a7"
 139              		mv t1, a6
 140              	# 0 "" 2
 141              	.LVL17:
 142              	#NO_APP
 143 0060 233864F8 		sd	t1,-112(s0)
 144              	.LVL18:
 145              		.loc 1 37 5 is_stmt 1
 146              		.loc 1 37 101 is_stmt 0
 147              	#APP
 148              	# 37 "src/interruptRoutine.cpp" 1
  38              	
 149              		mv t1, a7
 150              	# 0 "" 2
 151              	.LVL19:
 152              	#NO_APP
 153 0068 233464F8 		sd	t1,-120(s0)
 154              	.LVL20:
  39:src/interruptRoutine.cpp ****     if (scause == 0x9 || scause == 0x8) {
 155              		.loc 1 39 5 is_stmt 1
 156              	.LBB2:
 157 006c 033784FD 		ld	a4,-40(s0)
 158 0070 93079000 		li	a5,9
 159 0074 6308F700 		beq	a4,a5,.L2
 160              		.loc 1 39 23 is_stmt 0 discriminator 1
 161 0078 033784FD 		ld	a4,-40(s0)
 162 007c 93078000 		li	a5,8
 163 0080 6312F736 		bne	a4,a5,.L3
 164              	.L2:
  40:src/interruptRoutine.cpp ****         //prekid zbog poziva ecall
  41:src/interruptRoutine.cpp ****         switch (a0) {
 165              		.loc 1 41 9 is_stmt 1
 166 0084 033704FC 		ld	a4,-64(s0)
 167 0088 93071009 		li	a5,145
 168 008c 6306F72C 		beq	a4,a5,.L4
 169 0090 033704FC 		ld	a4,-64(s0)
GAS LISTING /tmp/ccZTy7Y8.s 			page 5


 170 0094 93071009 		li	a5,145
 171 0098 63E8E72C 		bgtu	a4,a5,.L5
 172 009c 033704FC 		ld	a4,-64(s0)
 173 00a0 93071008 		li	a5,129
 174 00a4 6300F72A 		beq	a4,a5,.L6
 175 00a8 033704FC 		ld	a4,-64(s0)
 176 00ac 93071008 		li	a5,129
 177 00b0 63ECE72A 		bgtu	a4,a5,.L5
 178 00b4 033704FC 		ld	a4,-64(s0)
 179 00b8 93072004 		li	a5,66
 180 00bc 63E2E704 		bgtu	a4,a5,.L7
 181 00c0 833704FC 		ld	a5,-64(s0)
 182 00c4 6382072A 		beqz	a5,.L5
 183 00c8 033704FC 		ld	a4,-64(s0)
 184 00cc 93072004 		li	a5,66
 185 00d0 63ECE728 		bgtu	a4,a5,.L5
 186 00d4 833704FC 		ld	a5,-64(s0)
 187 00d8 13972700 		slli	a4,a5,2
 188 00dc 97070000 		lla	a5,.L9
 188      93870700 
 189 00e4 B307F700 		add	a5,a4,a5
 190 00e8 83A70700 		lw	a5,0(a5)
 191 00ec 1B870700 		sext.w	a4,a5
 192 00f0 97070000 		lla	a5,.L9
 192      93870700 
 193 00f8 B307F700 		add	a5,a4,a5
 194 00fc 67800700 		jr	a5
 195              		.section	.rodata
 196 0071 000000   		.align	2
 197              		.align	2
 198              	.L9:
 199 0074 00000000 		.word	.L5-.L9
 200 0078 00000000 		.word	.L21-.L9
 201 007c 00000000 		.word	.L20-.L9
 202 0080 00000000 		.word	.L5-.L9
 203 0084 00000000 		.word	.L5-.L9
 204 0088 00000000 		.word	.L5-.L9
 205 008c 00000000 		.word	.L5-.L9
 206 0090 00000000 		.word	.L5-.L9
 207 0094 00000000 		.word	.L5-.L9
 208 0098 00000000 		.word	.L5-.L9
 209 009c 00000000 		.word	.L5-.L9
 210 00a0 00000000 		.word	.L5-.L9
 211 00a4 00000000 		.word	.L5-.L9
 212 00a8 00000000 		.word	.L5-.L9
 213 00ac 00000000 		.word	.L5-.L9
 214 00b0 00000000 		.word	.L5-.L9
 215 00b4 00000000 		.word	.L5-.L9
 216 00b8 00000000 		.word	.L19-.L9
 217 00bc 00000000 		.word	.L18-.L9
 218 00c0 00000000 		.word	.L17-.L9
 219 00c4 00000000 		.word	.L16-.L9
 220 00c8 00000000 		.word	.L5-.L9
 221 00cc 00000000 		.word	.L5-.L9
 222 00d0 00000000 		.word	.L5-.L9
 223 00d4 00000000 		.word	.L5-.L9
 224 00d8 00000000 		.word	.L5-.L9
GAS LISTING /tmp/ccZTy7Y8.s 			page 6


 225 00dc 00000000 		.word	.L5-.L9
 226 00e0 00000000 		.word	.L5-.L9
 227 00e4 00000000 		.word	.L5-.L9
 228 00e8 00000000 		.word	.L5-.L9
 229 00ec 00000000 		.word	.L5-.L9
 230 00f0 00000000 		.word	.L5-.L9
 231 00f4 00000000 		.word	.L5-.L9
 232 00f8 00000000 		.word	.L15-.L9
 233 00fc 00000000 		.word	.L14-.L9
 234 0100 00000000 		.word	.L13-.L9
 235 0104 00000000 		.word	.L12-.L9
 236 0108 00000000 		.word	.L5-.L9
 237 010c 00000000 		.word	.L5-.L9
 238 0110 00000000 		.word	.L5-.L9
 239 0114 00000000 		.word	.L5-.L9
 240 0118 00000000 		.word	.L5-.L9
 241 011c 00000000 		.word	.L5-.L9
 242 0120 00000000 		.word	.L5-.L9
 243 0124 00000000 		.word	.L5-.L9
 244 0128 00000000 		.word	.L5-.L9
 245 012c 00000000 		.word	.L5-.L9
 246 0130 00000000 		.word	.L5-.L9
 247 0134 00000000 		.word	.L5-.L9
 248 0138 00000000 		.word	.L11-.L9
 249 013c 00000000 		.word	.L5-.L9
 250 0140 00000000 		.word	.L5-.L9
 251 0144 00000000 		.word	.L5-.L9
 252 0148 00000000 		.word	.L5-.L9
 253 014c 00000000 		.word	.L5-.L9
 254 0150 00000000 		.word	.L5-.L9
 255 0154 00000000 		.word	.L5-.L9
 256 0158 00000000 		.word	.L5-.L9
 257 015c 00000000 		.word	.L5-.L9
 258 0160 00000000 		.word	.L5-.L9
 259 0164 00000000 		.word	.L5-.L9
 260 0168 00000000 		.word	.L5-.L9
 261 016c 00000000 		.word	.L5-.L9
 262 0170 00000000 		.word	.L5-.L9
 263 0174 00000000 		.word	.L5-.L9
 264 0178 00000000 		.word	.L10-.L9
 265 017c 00000000 		.word	.L8-.L9
 266              		.text
 267              	.L7:
 268 0100 033704FC 		ld	a4,-64(s0)
 269 0104 93070008 		li	a5,128
 270 0108 6308F71E 		beq	a4,a5,.L22
 271 010c 6F00C025 		j	.L5
 272              	.L21:
  42:src/interruptRoutine.cpp ****             case 0x01:
 273              		.loc 1 42 13
  43:src/interruptRoutine.cpp ****                 //mem_alloc
  44:src/interruptRoutine.cpp ****                 //a1 = broj blokova koje treba alocirati
  45:src/interruptRoutine.cpp ****                 MemoryAllocator::kmalloc((size_t)a1 * MEM_BLOCK_SIZE);
 274              		.loc 1 45 17
 275              		.loc 1 45 41 is_stmt 0
 276 0110 833784FB 		ld	a5,-72(s0)
 277 0114 93976700 		slli	a5,a5,6
GAS LISTING /tmp/ccZTy7Y8.s 			page 7


 278 0118 93053000 		li	a1,3
 279 011c 13850700 		mv	a0,a5
 280 0120 97000000 		call	_ZN15MemoryAllocator7kmallocEmNS_7PurposeE@plt
 280      E7800000 
 281              	.LVL21:
  46:src/interruptRoutine.cpp ****                 __asm__ volatile("sd a0, 80(s0)");
 282              		.loc 1 46 17 is_stmt 1
 283              		.loc 1 46 50 is_stmt 0
 284              	#APP
 285              	# 46 "src/interruptRoutine.cpp" 1
  47              	                break;
 286              		sd a0, 80(s0)
 287              	# 0 "" 2
 288              		.loc 1 47 17 is_stmt 1
 289              	#NO_APP
 290 012c 6F008029 		j	.L23
 291              	.LVL22:
 292              	.L20:
  48:src/interruptRoutine.cpp ****             case 0x02:
 293              		.loc 1 48 13
  49:src/interruptRoutine.cpp ****                 //mem_free
  50:src/interruptRoutine.cpp ****                 //a1 = pokazivac na memoriju koju dealociramo, dobijen sa mem_alloc
  51:src/interruptRoutine.cpp ****                 MemoryAllocator::kfree((void*)a1);
 294              		.loc 1 51 17
 295              		.loc 1 51 39 is_stmt 0
 296 0130 833784FB 		ld	a5,-72(s0)
 297 0134 13850700 		mv	a0,a5
 298 0138 97000000 		call	_ZN15MemoryAllocator5kfreeEPv@plt
 298      E7800000 
 299              	.LVL23:
  52:src/interruptRoutine.cpp ****                 __asm__ volatile("sd a0, 80(s0)");
 300              		.loc 1 52 17 is_stmt 1
 301              		.loc 1 52 50 is_stmt 0
 302              	#APP
 303              	# 52 "src/interruptRoutine.cpp" 1
  53              	                break;
 304              		sd a0, 80(s0)
 305              	# 0 "" 2
 306              		.loc 1 53 17 is_stmt 1
 307              	#NO_APP
 308 0144 6F000028 		j	.L23
 309              	.LVL24:
 310              	.L19:
  54:src/interruptRoutine.cpp ****             case 0x11:
 311              		.loc 1 54 13
  55:src/interruptRoutine.cpp ****                 //thread_create
  56:src/interruptRoutine.cpp ****                 //a1 = pokazivac na rucku u koju upisujemo identifikator niti(adresa u memoriji)
  57:src/interruptRoutine.cpp ****                 //a2 = pokazivac na funkciju koju nit treba da izvrsava
  58:src/interruptRoutine.cpp ****                 //a3 = argumenti funkcije koju nit treba da izvrsava
  59:src/interruptRoutine.cpp ****                 //a4 = poslednja lokacija alociranog steka(najniza adresa)
  60:src/interruptRoutine.cpp ****                 *((thread_t*)a1) = TCB::createThread((TCB::Body)a2, (void*)a3, (uint64*)a4);
 312              		.loc 1 60 17
 313              		.loc 1 60 53 is_stmt 0
 314 0148 833704FB 		ld	a5,-80(s0)
 315 014c 033784FA 		ld	a4,-88(s0)
 316 0150 833604FA 		ld	a3,-96(s0)
 317              		.loc 1 60 17
GAS LISTING /tmp/ccZTy7Y8.s 			page 8


 318 0154 833484FB 		ld	s1,-72(s0)
 319              		.loc 1 60 53
 320 0158 13860600 		mv	a2,a3
 321 015c 93050700 		mv	a1,a4
 322 0160 13850700 		mv	a0,a5
 323 0164 97000000 		call	_ZN3TCB12createThreadEPFvPvES0_Pm@plt
 323      E7800000 
 324              	.LVL25:
 325 016c 93070500 		mv	a5,a0
 326              		.loc 1 60 34
 327 0170 23B0F400 		sd	a5,0(s1)
  61:src/interruptRoutine.cpp ****                 TCB::start(*((thread_t*)a1));
 328              		.loc 1 61 17 is_stmt 1
 329              		.loc 1 61 27 is_stmt 0
 330 0174 833784FB 		ld	a5,-72(s0)
 331 0178 83B70700 		ld	a5,0(a5)
 332 017c 13850700 		mv	a0,a5
 333 0180 97000000 		call	_ZN3TCB5startEPS_@plt
 333      E7800000 
 334              	.LVL26:
  62:src/interruptRoutine.cpp ****                 if (*((thread_t*)a1) != nullptr) {
 335              		.loc 1 62 17 is_stmt 1
 336              		.loc 1 62 21 is_stmt 0
 337 0188 833784FB 		ld	a5,-72(s0)
 338 018c 83B70700 		ld	a5,0(a5)
 339              		.loc 1 62 17
 340 0190 63860700 		beqz	a5,.L24
  63:src/interruptRoutine.cpp ****                     __asm__ volatile("li a0, 0");
 341              		.loc 1 63 21 is_stmt 1
 342              		.loc 1 63 49 is_stmt 0
 343              	#APP
 344              	# 63 "src/interruptRoutine.cpp" 1
  64              	                } else {
 345              		li a0, 0
 346              	# 0 "" 2
 347              	#NO_APP
 348 0198 6F008000 		j	.L25
 349              	.L24:
  65:src/interruptRoutine.cpp ****                     __asm__ volatile("li a0, -1");
 350              		.loc 1 65 21 is_stmt 1
 351              		.loc 1 65 50 is_stmt 0
 352              	#APP
 353              	# 65 "src/interruptRoutine.cpp" 1
  66              	                }
 354              		li a0, -1
 355              	# 0 "" 2
 356              	#NO_APP
 357              	.L25:
  67:src/interruptRoutine.cpp ****                 __asm__ volatile("sd a0, 80(s0)");
 358              		.loc 1 67 17 is_stmt 1
 359              		.loc 1 67 50 is_stmt 0
 360              	#APP
 361              	# 67 "src/interruptRoutine.cpp" 1
  68              	                break;
 362              		sd a0, 80(s0)
 363              	# 0 "" 2
 364              		.loc 1 68 17 is_stmt 1
GAS LISTING /tmp/ccZTy7Y8.s 			page 9


 365              	#NO_APP
 366 01a4 6F000022 		j	.L23
 367              	.LVL27:
 368              	.L18:
  69:src/interruptRoutine.cpp ****             case 0x12:
 369              		.loc 1 69 13
  70:src/interruptRoutine.cpp ****                 //thread_exit
  71:src/interruptRoutine.cpp ****                 //TCB::running->setFinished(true);
  72:src/interruptRoutine.cpp ****                 TCB::running->setStatus(TCB::FINISHED);
 370              		.loc 1 72 17
 371              		.loc 1 72 40 is_stmt 0
 372 01a8 97070000 		la	a5,_ZN3TCB7runningE
 372      83B70700 
 373 01b0 83B70700 		ld	a5,0(a5)
 374 01b4 93055000 		li	a1,5
 375 01b8 13850700 		mv	a0,a5
 376 01bc 97000000 		call	_ZN3TCB9setStatusENS_12ThreadStatusE
 376      E7800000 
 377              	.LVL28:
  73:src/interruptRoutine.cpp ****                 TCB::releaseJoined();
 378              		.loc 1 73 17 is_stmt 1
 379              		.loc 1 73 35 is_stmt 0
 380 01c4 97000000 		call	_ZN3TCB13releaseJoinedEv@plt
 380      E7800000 
 381              	.LVL29:
  74:src/interruptRoutine.cpp ****                 TCB::yield();
 382              		.loc 1 74 17 is_stmt 1
 383              		.loc 1 74 27 is_stmt 0
 384 01cc 97000000 		call	_ZN3TCB5yieldEv@plt
 384      E7800000 
 385              	.LVL30:
  75:src/interruptRoutine.cpp ****                 break;
 386              		.loc 1 75 17 is_stmt 1
 387 01d4 6F00001F 		j	.L23
 388              	.LVL31:
 389              	.L17:
  76:src/interruptRoutine.cpp ****             case 0x13:
 390              		.loc 1 76 13
  77:src/interruptRoutine.cpp ****                 //thread_dispatch
  78:src/interruptRoutine.cpp ****                 TCB::yield();
 391              		.loc 1 78 17
 392              		.loc 1 78 27 is_stmt 0
 393 01d8 97000000 		call	_ZN3TCB5yieldEv@plt
 393      E7800000 
 394              	.LVL32:
  79:src/interruptRoutine.cpp ****                 break;
 395              		.loc 1 79 17 is_stmt 1
 396 01e0 6F00401E 		j	.L23
 397              	.LVL33:
 398              	.L16:
  80:src/interruptRoutine.cpp ****             case 0x14:
 399              		.loc 1 80 13
  81:src/interruptRoutine.cpp ****                 //thread_join
  82:src/interruptRoutine.cpp ****                 //a1 = rucka niti na koju tekuca nit treba da ceka
  83:src/interruptRoutine.cpp ****                 TCB::threadJoin((thread_t)a1);
 400              		.loc 1 83 17
 401              		.loc 1 83 32 is_stmt 0
GAS LISTING /tmp/ccZTy7Y8.s 			page 10


 402 01e4 833784FB 		ld	a5,-72(s0)
 403 01e8 13850700 		mv	a0,a5
 404 01ec 97000000 		call	_ZN3TCB10threadJoinEPS_@plt
 404      E7800000 
 405              	.LVL34:
  84:src/interruptRoutine.cpp ****                 TCB::yield();
 406              		.loc 1 84 17 is_stmt 1
 407              		.loc 1 84 27 is_stmt 0
 408 01f4 97000000 		call	_ZN3TCB5yieldEv@plt
 408      E7800000 
 409              	.LVL35:
  85:src/interruptRoutine.cpp ****                 break;
 410              		.loc 1 85 17 is_stmt 1
 411 01fc 6F00801C 		j	.L23
 412              	.LVL36:
 413              	.L15:
  86:src/interruptRoutine.cpp ****             case 0x21:
 414              		.loc 1 86 13
  87:src/interruptRoutine.cpp ****                 //sem_open
  88:src/interruptRoutine.cpp ****                 //a1 = pokazivac na rucku semafora, u koju se upisuje adresa semafora u memoriji
  89:src/interruptRoutine.cpp ****                 *((sem_t*)a1) = KSem::initSem((uint)a2);
 415              		.loc 1 89 17
 416              		.loc 1 89 46 is_stmt 0
 417 0200 833704FB 		ld	a5,-80(s0)
 418 0204 9B870700 		sext.w	a5,a5
 419              		.loc 1 89 17
 420 0208 833484FB 		ld	s1,-72(s0)
 421              		.loc 1 89 46
 422 020c 13850700 		mv	a0,a5
 423 0210 97000000 		call	_ZN4KSem7initSemEj@plt
 423      E7800000 
 424              	.LVL37:
 425 0218 93070500 		mv	a5,a0
 426              		.loc 1 89 31
 427 021c 23B0F400 		sd	a5,0(s1)
  90:src/interruptRoutine.cpp ****                 if (*((sem_t*)a1) != nullptr) {
 428              		.loc 1 90 17 is_stmt 1
 429              		.loc 1 90 21 is_stmt 0
 430 0220 833784FB 		ld	a5,-72(s0)
 431 0224 83B70700 		ld	a5,0(a5)
 432              		.loc 1 90 17
 433 0228 63860700 		beqz	a5,.L26
  91:src/interruptRoutine.cpp ****                     __asm__ volatile("li a0, 0");
 434              		.loc 1 91 21 is_stmt 1
 435              		.loc 1 91 49 is_stmt 0
 436              	#APP
 437              	# 91 "src/interruptRoutine.cpp" 1
  92              	                } else {
 438              		li a0, 0
 439              	# 0 "" 2
 440              	#NO_APP
 441 0230 6F008000 		j	.L27
 442              	.L26:
  93:src/interruptRoutine.cpp ****                     __asm__ volatile("li a0, -1");
 443              		.loc 1 93 21 is_stmt 1
 444              		.loc 1 93 50 is_stmt 0
 445              	#APP
GAS LISTING /tmp/ccZTy7Y8.s 			page 11


 446              	# 93 "src/interruptRoutine.cpp" 1
  94              	                }
 447              		li a0, -1
 448              	# 0 "" 2
 449              	#NO_APP
 450              	.L27:
  95:src/interruptRoutine.cpp ****                 __asm__ volatile("sd a0, 80(s0)");
 451              		.loc 1 95 17 is_stmt 1
 452              		.loc 1 95 50 is_stmt 0
 453              	#APP
 454              	# 95 "src/interruptRoutine.cpp" 1
  96              	                break;
 455              		sd a0, 80(s0)
 456              	# 0 "" 2
 457              		.loc 1 96 17 is_stmt 1
 458              	#NO_APP
 459 023c 6F008018 		j	.L23
 460              	.LVL38:
 461              	.L14:
  97:src/interruptRoutine.cpp ****             case 0x22:
 462              		.loc 1 97 13
  98:src/interruptRoutine.cpp ****                 //sem_close
  99:src/interruptRoutine.cpp ****                 //a1 = rucka semafora
 100:src/interruptRoutine.cpp ****                 KSem::closeSem((sem_t)a1);
 463              		.loc 1 100 17
 464              		.loc 1 100 31 is_stmt 0
 465 0240 833784FB 		ld	a5,-72(s0)
 466 0244 13850700 		mv	a0,a5
 467 0248 97000000 		call	_ZN4KSem8closeSemEPS_@plt
 467      E7800000 
 468              	.LVL39:
 101:src/interruptRoutine.cpp ****                 __asm__ volatile("sd a0, 80(s0)");
 469              		.loc 1 101 17 is_stmt 1
 470              		.loc 1 101 50 is_stmt 0
 471              	#APP
 472              	# 101 "src/interruptRoutine.cpp" 1
 102              	                break;
 473              		sd a0, 80(s0)
 474              	# 0 "" 2
 475              		.loc 1 102 17 is_stmt 1
 476              	#NO_APP
 477 0254 6F000017 		j	.L23
 478              	.LVL40:
 479              	.L13:
 103:src/interruptRoutine.cpp ****             case 0x23:
 480              		.loc 1 103 13
 104:src/interruptRoutine.cpp ****                 //sem_wait
 105:src/interruptRoutine.cpp ****                 //a1 = rucka semafora
 106:src/interruptRoutine.cpp ****                 ((sem_t)a1)->wait();
 481              		.loc 1 106 17
 482              		.loc 1 106 34 is_stmt 0
 483 0258 833784FB 		ld	a5,-72(s0)
 484 025c 13850700 		mv	a0,a5
 485 0260 97000000 		call	_ZN4KSem4waitEv@plt
 485      E7800000 
 486              	.LVL41:
 107:src/interruptRoutine.cpp ****                 __asm__ volatile("sd a0, 80(s0)");
GAS LISTING /tmp/ccZTy7Y8.s 			page 12


 487              		.loc 1 107 17 is_stmt 1
 488              		.loc 1 107 50 is_stmt 0
 489              	#APP
 490              	# 107 "src/interruptRoutine.cpp" 1
 108              	                break;
 491              		sd a0, 80(s0)
 492              	# 0 "" 2
 493              		.loc 1 108 17 is_stmt 1
 494              	#NO_APP
 495 026c 6F008015 		j	.L23
 496              	.LVL42:
 497              	.L12:
 109:src/interruptRoutine.cpp ****             case 0x24:
 498              		.loc 1 109 13
 110:src/interruptRoutine.cpp ****                 //sem_signal
 111:src/interruptRoutine.cpp ****                 //a1 = rucka semafora
 112:src/interruptRoutine.cpp ****                 ((sem_t)a1)->signal();
 499              		.loc 1 112 17
 500              		.loc 1 112 36 is_stmt 0
 501 0270 833784FB 		ld	a5,-72(s0)
 502 0274 13850700 		mv	a0,a5
 503 0278 97000000 		call	_ZN4KSem6signalEv@plt
 503      E7800000 
 504              	.LVL43:
 113:src/interruptRoutine.cpp ****                 __asm__ volatile("sd a0, 80(s0)");
 505              		.loc 1 113 17 is_stmt 1
 506              		.loc 1 113 50 is_stmt 0
 507              	#APP
 508              	# 113 "src/interruptRoutine.cpp" 1
 114              	                break;
 509              		sd a0, 80(s0)
 510              	# 0 "" 2
 511              		.loc 1 114 17 is_stmt 1
 512              	#NO_APP
 513 0284 6F000014 		j	.L23
 514              	.LVL44:
 515              	.L11:
 115:src/interruptRoutine.cpp ****             case 0x31:
 516              		.loc 1 115 13
 116:src/interruptRoutine.cpp ****                 //time_sleep
 117:src/interruptRoutine.cpp ****                 //a1 = broj perioda tajmera na koji se uspavljuje tekuca nit
 118:src/interruptRoutine.cpp ****                 if ((time_t)a1 > 0) {
 517              		.loc 1 118 17
 518 0288 833784FB 		ld	a5,-72(s0)
 519 028c 63860700 		beqz	a5,.L28
 119:src/interruptRoutine.cpp ****                     __asm__ volatile("li a0, 0");
 520              		.loc 1 119 21
 521              		.loc 1 119 49 is_stmt 0
 522              	#APP
 523              	# 119 "src/interruptRoutine.cpp" 1
 120              	                } else {
 524              		li a0, 0
 525              	# 0 "" 2
 526              	#NO_APP
 527 0294 6F008000 		j	.L29
 528              	.L28:
 121:src/interruptRoutine.cpp ****                     __asm__ volatile("li a0, -1");
GAS LISTING /tmp/ccZTy7Y8.s 			page 13


 529              		.loc 1 121 21 is_stmt 1
 530              		.loc 1 121 50 is_stmt 0
 531              	#APP
 532              	# 121 "src/interruptRoutine.cpp" 1
 122              	                }
 533              		li a0, -1
 534              	# 0 "" 2
 535              	#NO_APP
 536              	.L29:
 123:src/interruptRoutine.cpp ****                 __asm__ volatile("sd a0, 80(s0)");
 537              		.loc 1 123 17 is_stmt 1
 538              		.loc 1 123 50 is_stmt 0
 539              	#APP
 540              	# 123 "src/interruptRoutine.cpp" 1
 124              	                if ((time_t)a1 > 0) {
 541              		sd a0, 80(s0)
 542              	# 0 "" 2
 543              		.loc 1 124 17 is_stmt 1
 544              	#NO_APP
 545 02a0 833784FB 		ld	a5,-72(s0)
 546 02a4 638E0710 		beqz	a5,.L39
 125:src/interruptRoutine.cpp ****                     Scheduler::putToSleep(TCB::running, (time_t)a1);
 547              		.loc 1 125 21
 548              		.loc 1 125 42 is_stmt 0
 549 02a8 97070000 		la	a5,_ZN3TCB7runningE
 549      83B70700 
 550 02b0 83B70700 		ld	a5,0(a5)
 551 02b4 833584FB 		ld	a1,-72(s0)
 552 02b8 13850700 		mv	a0,a5
 553 02bc 97000000 		call	_ZN9Scheduler10putToSleepEP3TCBm@plt
 553      E7800000 
 554              	.LVL45:
 126:src/interruptRoutine.cpp ****                     TCB::yield();
 555              		.loc 1 126 21 is_stmt 1
 556              		.loc 1 126 31 is_stmt 0
 557 02c4 97000000 		call	_ZN3TCB5yieldEv@plt
 557      E7800000 
 558              	.LVL46:
 127:src/interruptRoutine.cpp ****                 }
 128:src/interruptRoutine.cpp ****                 break;
 559              		.loc 1 128 17 is_stmt 1
 560 02cc 6F00400F 		j	.L39
 561              	.LVL47:
 562              	.L10:
 129:src/interruptRoutine.cpp ****             case 0x41:
 563              		.loc 1 129 13
 130:src/interruptRoutine.cpp ****                 //getc
 131:src/interruptRoutine.cpp ****                 KConsole::kgetc();
 564              		.loc 1 131 17
 565              		.loc 1 131 32 is_stmt 0
 566 02d0 97000000 		call	_ZN8KConsole5kgetcEv@plt
 566      E7800000 
 567              	.LVL48:
 132:src/interruptRoutine.cpp ****                 __asm__ volatile("sd a0, 80(s0)");
 568              		.loc 1 132 17 is_stmt 1
 569              		.loc 1 132 50 is_stmt 0
 570              	#APP
GAS LISTING /tmp/ccZTy7Y8.s 			page 14


 571              	# 132 "src/interruptRoutine.cpp" 1
 133              	                break;
 572              		sd a0, 80(s0)
 573              	# 0 "" 2
 574              		.loc 1 133 17 is_stmt 1
 575              	#NO_APP
 576 02dc 6F00800E 		j	.L23
 577              	.LVL49:
 578              	.L8:
 134:src/interruptRoutine.cpp ****             case 0x42:
 579              		.loc 1 134 13
 135:src/interruptRoutine.cpp ****                 //putc
 136:src/interruptRoutine.cpp ****                 //a1 = karakter koji se upisuje u bafer za ispis na konzolu
 137:src/interruptRoutine.cpp ****                 KConsole::kputc((char)a1);
 580              		.loc 1 137 17
 581              		.loc 1 137 32 is_stmt 0
 582 02e0 833784FB 		ld	a5,-72(s0)
 583 02e4 93F7F70F 		andi	a5,a5,0xff
 584 02e8 13850700 		mv	a0,a5
 585 02ec 97000000 		call	_ZN8KConsole5kputcEc@plt
 585      E7800000 
 586              	.LVL50:
 138:src/interruptRoutine.cpp ****                 break;
 587              		.loc 1 138 17 is_stmt 1
 588 02f4 6F00000D 		j	.L23
 589              	.LVL51:
 590              	.L22:
 139:src/interruptRoutine.cpp ****             case 0x80:
 591              		.loc 1 139 13
 140:src/interruptRoutine.cpp ****                 //alloc thread
 141:src/interruptRoutine.cpp ****                 //a1 = pokazivac na rucku u koju upisujemo identifikator niti(adresa u memoriji)
 142:src/interruptRoutine.cpp ****                 //a2 = pokazivac na funkciju koju nit treba da izvrsava
 143:src/interruptRoutine.cpp ****                 //a3 = argumenti funkcije koju nit treba da izvrsava
 144:src/interruptRoutine.cpp ****                 //a4 = poslednja lokacija alociranog steka(najniza adresa)
 145:src/interruptRoutine.cpp ****                 *((thread_t*)a1) = TCB::createThread((TCB::Body)a2, (void*)a3, (uint64*)a4);
 592              		.loc 1 145 17
 593              		.loc 1 145 53 is_stmt 0
 594 02f8 833704FB 		ld	a5,-80(s0)
 595 02fc 033784FA 		ld	a4,-88(s0)
 596 0300 833604FA 		ld	a3,-96(s0)
 597              		.loc 1 145 17
 598 0304 833484FB 		ld	s1,-72(s0)
 599              		.loc 1 145 53
 600 0308 13860600 		mv	a2,a3
 601 030c 93050700 		mv	a1,a4
 602 0310 13850700 		mv	a0,a5
 603 0314 97000000 		call	_ZN3TCB12createThreadEPFvPvES0_Pm@plt
 603      E7800000 
 604              	.LVL52:
 605 031c 93070500 		mv	a5,a0
 606              		.loc 1 145 34
 607 0320 23B0F400 		sd	a5,0(s1)
 146:src/interruptRoutine.cpp ****                 if (*((thread_t*)a1) != nullptr) {
 608              		.loc 1 146 17 is_stmt 1
 609              		.loc 1 146 21 is_stmt 0
 610 0324 833784FB 		ld	a5,-72(s0)
 611 0328 83B70700 		ld	a5,0(a5)
GAS LISTING /tmp/ccZTy7Y8.s 			page 15


 612              		.loc 1 146 17
 613 032c 63860700 		beqz	a5,.L31
 147:src/interruptRoutine.cpp ****                     __asm__ volatile("li a0, 0");
 614              		.loc 1 147 21 is_stmt 1
 615              		.loc 1 147 49 is_stmt 0
 616              	#APP
 617              	# 147 "src/interruptRoutine.cpp" 1
 148              	                } else {
 618              		li a0, 0
 619              	# 0 "" 2
 620              	#NO_APP
 621 0334 6F008000 		j	.L32
 622              	.L31:
 149:src/interruptRoutine.cpp ****                     __asm__ volatile("li a0, -1");
 623              		.loc 1 149 21 is_stmt 1
 624              		.loc 1 149 50 is_stmt 0
 625              	#APP
 626              	# 149 "src/interruptRoutine.cpp" 1
 150              	                }
 627              		li a0, -1
 628              	# 0 "" 2
 629              	#NO_APP
 630              	.L32:
 151:src/interruptRoutine.cpp ****                 __asm__ volatile("sd a0, 80(s0)");
 631              		.loc 1 151 17 is_stmt 1
 632              		.loc 1 151 50 is_stmt 0
 633              	#APP
 634              	# 151 "src/interruptRoutine.cpp" 1
 152              	                break;
 635              		sd a0, 80(s0)
 636              	# 0 "" 2
 637              		.loc 1 152 17 is_stmt 1
 638              	#NO_APP
 639 0340 6F004008 		j	.L23
 640              	.LVL53:
 641              	.L6:
 153:src/interruptRoutine.cpp ****             case 0x81:
 642              		.loc 1 153 13
 154:src/interruptRoutine.cpp ****                 //start thread
 155:src/interruptRoutine.cpp ****                 //a1 = rucka niti koja se stavlja u scheduler
 156:src/interruptRoutine.cpp ****                 Scheduler::put((thread_t)a1);
 643              		.loc 1 156 17
 644              		.loc 1 156 31 is_stmt 0
 645 0344 833784FB 		ld	a5,-72(s0)
 646 0348 13850700 		mv	a0,a5
 647 034c 97000000 		call	_ZN9Scheduler3putEP3TCB@plt
 647      E7800000 
 648              	.LVL54:
 157:src/interruptRoutine.cpp ****                 break;
 649              		.loc 1 157 17 is_stmt 1
 650 0354 6F000007 		j	.L23
 651              	.LVL55:
 652              	.L4:
 158:src/interruptRoutine.cpp ****             case 0x91:
 653              		.loc 1 158 13
 159:src/interruptRoutine.cpp ****                 //printInteger
 160:src/interruptRoutine.cpp ****                 //a1 = integer za ispis
GAS LISTING /tmp/ccZTy7Y8.s 			page 16


 161:src/interruptRoutine.cpp ****                 kPrintInt(a1);
 654              		.loc 1 161 17
 655              		.loc 1 161 26 is_stmt 0
 656 0358 033584FB 		ld	a0,-72(s0)
 657 035c 97000000 		call	_Z9kPrintIntm@plt
 657      E7800000 
 658              	.LVL56:
 162:src/interruptRoutine.cpp ****                 break;
 659              		.loc 1 162 17 is_stmt 1
 660 0364 6F000006 		j	.L23
 661              	.LVL57:
 662              	.L5:
 163:src/interruptRoutine.cpp ****             default:
 663              		.loc 1 163 13
 164:src/interruptRoutine.cpp ****                 printString("\nNepostojeci op code: ");
 664              		.loc 1 164 17
 665              		.loc 1 164 28 is_stmt 0
 666 0368 17050000 		lla	a0,.LC0
 666      13050500 
 667 0370 97000000 		call	_Z11printStringPKc@plt
 667      E7800000 
 668              	.LVL58:
 165:src/interruptRoutine.cpp ****                 kPrintInt(a0);
 669              		.loc 1 165 17 is_stmt 1
 670              		.loc 1 165 26 is_stmt 0
 671 0378 033504FC 		ld	a0,-64(s0)
 672 037c 97000000 		call	_Z9kPrintIntm@plt
 672      E7800000 
 673              	.LVL59:
 166:src/interruptRoutine.cpp ****                 printString("\nscause: ");
 674              		.loc 1 166 17 is_stmt 1
 675              		.loc 1 166 28 is_stmt 0
 676 0384 17050000 		lla	a0,.LC1
 676      13050500 
 677 038c 97000000 		call	_Z11printStringPKc@plt
 677      E7800000 
 678              	.LVL60:
 167:src/interruptRoutine.cpp ****                 kPrintInt(scause);
 679              		.loc 1 167 17 is_stmt 1
 680              		.loc 1 167 26 is_stmt 0
 681 0394 033584FD 		ld	a0,-40(s0)
 682 0398 97000000 		call	_Z9kPrintIntm@plt
 682      E7800000 
 683              	.LVL61:
 168:src/interruptRoutine.cpp ****                 printString("\nsepc: ");
 684              		.loc 1 168 17 is_stmt 1
 685              		.loc 1 168 28 is_stmt 0
 686 03a0 17050000 		lla	a0,.LC2
 686      13050500 
 687 03a8 97000000 		call	_Z11printStringPKc@plt
 687      E7800000 
 688              	.LVL62:
 169:src/interruptRoutine.cpp ****                 kPrintInt(sepc);
 689              		.loc 1 169 17 is_stmt 1
 690              		.loc 1 169 26 is_stmt 0
 691 03b0 033504FD 		ld	a0,-48(s0)
 692 03b4 97000000 		call	_Z9kPrintIntm@plt
GAS LISTING /tmp/ccZTy7Y8.s 			page 17


 692      E7800000 
 693              	.LVL63:
 170:src/interruptRoutine.cpp ****                 break;
 694              		.loc 1 170 17 is_stmt 1
 695 03bc 6F008000 		j	.L23
 696              	.L39:
 128:src/interruptRoutine.cpp ****             case 0x41:
 697              		.loc 1 128 17 is_stmt 0
 698 03c0 13000000 		nop
 699              	.L23:
 171:src/interruptRoutine.cpp ****         }
 172:src/interruptRoutine.cpp ****         //sepc pokazuje na ecall instrukciju, treba preci na sledecu instrukciju
 173:src/interruptRoutine.cpp ****         sepc += 4;
 700              		.loc 1 173 9 is_stmt 1
 701              		.loc 1 173 14 is_stmt 0
 702 03c4 833704FD 		ld	a5,-48(s0)
 703 03c8 93874700 		addi	a5,a5,4
 704 03cc 2338F4FC 		sd	a5,-48(s0)
 705              	.LVL64:
 174:src/interruptRoutine.cpp ****         __asm__ volatile("csrw sepc, %[sepc]": :[sepc] "r"(sepc));
 706              		.loc 1 174 9 is_stmt 1
 707              		.loc 1 174 66 is_stmt 0
 708 03d0 833704FD 		ld	a5,-48(s0)
 709              	#APP
 710              	# 174 "src/interruptRoutine.cpp" 1
 175              	        __asm__ volatile("csrw sstatus, %[stat]": :[stat]"r"(sstatus));
 711              		csrw sepc, a5
 712              	# 0 "" 2
 713              		.loc 1 175 9 is_stmt 1
 714              		.loc 1 175 71 is_stmt 0
 715              	#NO_APP
 716 03d8 833784FC 		ld	a5,-56(s0)
 717              	.LVL65:
 718              	#APP
 719              	# 175 "src/interruptRoutine.cpp" 1
 176              	    } else if (scause == 0x8000000000000009) {
 720              		csrw sstatus, a5
 721              	# 0 "" 2
 722              	#NO_APP
 723              	.LBE2:
 177:src/interruptRoutine.cpp ****         //spoljasnji hardverski prekid (od konzole)
 178:src/interruptRoutine.cpp ****         uint64 irq = plic_claim();
 179:src/interruptRoutine.cpp ****         if (irq == CONSOLE_IRQ) {
 180:src/interruptRoutine.cpp ****             if (*KConsole::sr & CONSOLE_RX_STATUS_BIT) {
 181:src/interruptRoutine.cpp ****                 KConsole::placeInInput(*KConsole::dr);
 182:src/interruptRoutine.cpp ****             }
 183:src/interruptRoutine.cpp ****             //printString("\nobradjen prekid konzole\n");
 184:src/interruptRoutine.cpp ****         } else {
 185:src/interruptRoutine.cpp ****             printString("Neki drugi prekid\n");
 186:src/interruptRoutine.cpp ****         }
 187:src/interruptRoutine.cpp ****         plic_complete(irq);
 188:src/interruptRoutine.cpp ****         __asm__ volatile("csrw sepc, %[sepc]": :[sepc] "r"(sepc));
 189:src/interruptRoutine.cpp ****         __asm__ volatile("csrw sstatus, %[stat]": :[stat]"r"(sstatus));
 190:src/interruptRoutine.cpp ****         Riscv::mc_sip(Riscv::SIP_SEIP);
 191:src/interruptRoutine.cpp ****     } else if (scause == 0x8000000000000001) {
 192:src/interruptRoutine.cpp ****         //prekid od tajmera
 193:src/interruptRoutine.cpp ****         //printString("\nPrekid od tajmera\n");
GAS LISTING /tmp/ccZTy7Y8.s 			page 18


 194:src/interruptRoutine.cpp ****         Scheduler::wake();
 195:src/interruptRoutine.cpp ****         TCB::runningTimeSlice++;
 196:src/interruptRoutine.cpp ****         if (TCB::runningTimeSlice >= TCB::running->getTimeSlice()) {
 197:src/interruptRoutine.cpp ****             //printString("\nMenjam kontekst\n");
 198:src/interruptRoutine.cpp ****             TCB::yield();
 199:src/interruptRoutine.cpp ****             //TCB::runningTimeSlice = 0;
 200:src/interruptRoutine.cpp ****         }
 201:src/interruptRoutine.cpp **** 
 202:src/interruptRoutine.cpp ****         __asm__ volatile("csrw sepc, %[sepc]": :[sepc] "r"(sepc));
 203:src/interruptRoutine.cpp ****         __asm__ volatile("csrw sstatus, %[stat]": :[stat]"r"(sstatus));
 204:src/interruptRoutine.cpp ****         Riscv::mc_sip(Riscv::SIP_SSIP);
 205:src/interruptRoutine.cpp ****     } else {
 206:src/interruptRoutine.cpp ****         printString("\nGreska u prekidnoj rutini\n");
 207:src/interruptRoutine.cpp ****         printString("scause: ");
 208:src/interruptRoutine.cpp ****         kPrintInt(scause);
 209:src/interruptRoutine.cpp ****         printString("\nsepc: ");
 210:src/interruptRoutine.cpp ****         kPrintInt(sepc);
 211:src/interruptRoutine.cpp ****     }
 212:src/interruptRoutine.cpp **** }
 724              		.loc 1 212 1
 725 03e0 6F000019 		j	.L40
 726              	.LVL66:
 727              	.L3:
 728              	.LBB10:
 729              	.LBB3:
 176:src/interruptRoutine.cpp ****         //spoljasnji hardverski prekid (od konzole)
 730              		.loc 1 176 12 is_stmt 1
 731              	.LBB4:
 732 03e4 033784FD 		ld	a4,-40(s0)
 733              	.LVL67:
 734 03e8 9307F0FF 		li	a5,-1
 735 03ec 9397F703 		slli	a5,a5,63
 736 03f0 93879700 		addi	a5,a5,9
 737 03f4 631EF708 		bne	a4,a5,.L34
 738              	.LBB5:
 178:src/interruptRoutine.cpp ****         if (irq == CONSOLE_IRQ) {
 739              		.loc 1 178 9
 178:src/interruptRoutine.cpp ****         if (irq == CONSOLE_IRQ) {
 740              		.loc 1 178 32 is_stmt 0
 741 03f8 97000000 		call	plic_claim@plt
 741      E7800000 
 742              	.LVL68:
 743 0400 93070500 		mv	a5,a0
 178:src/interruptRoutine.cpp ****         if (irq == CONSOLE_IRQ) {
 744              		.loc 1 178 33
 745 0404 2330F4F8 		sd	a5,-128(s0)
 746              	.LVL69:
 179:src/interruptRoutine.cpp ****             if (*KConsole::sr & CONSOLE_RX_STATUS_BIT) {
 747              		.loc 1 179 9 is_stmt 1
 748 0408 033704F8 		ld	a4,-128(s0)
 749 040c 9307A000 		li	a5,10
 750 0410 631EF702 		bne	a4,a5,.L35
 180:src/interruptRoutine.cpp ****                 KConsole::placeInInput(*KConsole::dr);
 751              		.loc 1 180 13
 180:src/interruptRoutine.cpp ****                 KConsole::placeInInput(*KConsole::dr);
 752              		.loc 1 180 17 is_stmt 0
 753 0414 97070000 		la	a5,_ZN8KConsole2srE
GAS LISTING /tmp/ccZTy7Y8.s 			page 19


 753      83B70700 
 754 041c 83B70700 		ld	a5,0(a5)
 755 0420 83C70700 		lbu	a5,0(a5)
 180:src/interruptRoutine.cpp ****                 KConsole::placeInInput(*KConsole::dr);
 756              		.loc 1 180 31
 757 0424 93F71700 		andi	a5,a5,1
 180:src/interruptRoutine.cpp ****                 KConsole::placeInInput(*KConsole::dr);
 758              		.loc 1 180 13
 759 0428 638A0702 		beqz	a5,.L36
 181:src/interruptRoutine.cpp ****             }
 760              		.loc 1 181 17 is_stmt 1
 181:src/interruptRoutine.cpp ****             }
 761              		.loc 1 181 39 is_stmt 0
 762 042c 97070000 		la	a5,_ZN8KConsole2drE
 762      83B70700 
 763 0434 83B70700 		ld	a5,0(a5)
 764 0438 83C70700 		lbu	a5,0(a5)
 765 043c 13850700 		mv	a0,a5
 766              	.LVL70:
 767 0440 97000000 		call	_ZN8KConsole12placeInInputEc@plt
 767      E7800000 
 768              	.LVL71:
 769 0448 6F004001 		j	.L36
 770              	.LVL72:
 771              	.L35:
 185:src/interruptRoutine.cpp ****         }
 772              		.loc 1 185 13 is_stmt 1
 185:src/interruptRoutine.cpp ****         }
 773              		.loc 1 185 24 is_stmt 0
 774 044c 17050000 		lla	a0,.LC3
 774      13050500 
 775              	.LVL73:
 776 0454 97000000 		call	_Z11printStringPKc@plt
 776      E7800000 
 777              	.LVL74:
 778              	.L36:
 187:src/interruptRoutine.cpp ****         __asm__ volatile("csrw sepc, %[sepc]": :[sepc] "r"(sepc));
 779              		.loc 1 187 9 is_stmt 1
 187:src/interruptRoutine.cpp ****         __asm__ volatile("csrw sepc, %[sepc]": :[sepc] "r"(sepc));
 780              		.loc 1 187 22 is_stmt 0
 781 045c 833704F8 		ld	a5,-128(s0)
 782 0460 9B870700 		sext.w	a5,a5
 783 0464 13850700 		mv	a0,a5
 784 0468 97000000 		call	plic_complete@plt
 784      E7800000 
 785              	.LVL75:
 188:src/interruptRoutine.cpp ****         __asm__ volatile("csrw sstatus, %[stat]": :[stat]"r"(sstatus));
 786              		.loc 1 188 9 is_stmt 1
 188:src/interruptRoutine.cpp ****         __asm__ volatile("csrw sstatus, %[stat]": :[stat]"r"(sstatus));
 787              		.loc 1 188 66 is_stmt 0
 788 0470 833704FD 		ld	a5,-48(s0)
 789              	#APP
 790              	# 188 "src/interruptRoutine.cpp" 1
 189:src/interruptRoutine.cpp ****         Riscv::mc_sip(Riscv::SIP_SEIP);
 791              		csrw sepc, a5
 792              	# 0 "" 2
 793              		.loc 1 189 9 is_stmt 1
GAS LISTING /tmp/ccZTy7Y8.s 			page 20


 189:src/interruptRoutine.cpp ****         Riscv::mc_sip(Riscv::SIP_SEIP);
 794              		.loc 1 189 71 is_stmt 0
 795              	#NO_APP
 796 0478 833784FC 		ld	a5,-56(s0)
 797              	#APP
 798              	# 189 "src/interruptRoutine.cpp" 1
 190:src/interruptRoutine.cpp ****     } else if (scause == 0x8000000000000001) {
 799              		csrw sstatus, a5
 800              	# 0 "" 2
 801              		.loc 1 190 9 is_stmt 1
 190:src/interruptRoutine.cpp ****     } else if (scause == 0x8000000000000001) {
 802              		.loc 1 190 22 is_stmt 0
 803              	#NO_APP
 804 0480 13050020 		li	a0,512
 805 0484 97000000 		call	_ZN5Riscv6mc_sipEm
 805      E7800000 
 806              	.LVL76:
 807              	.LBE5:
 808              	.LBE4:
 809              	.LBE3:
 810              	.LBE10:
 811              		.loc 1 212 1
 812 048c 6F00400E 		j	.L40
 813              	.LVL77:
 814              	.L34:
 815              	.LBB11:
 816              	.LBB8:
 817              	.LBB6:
 191:src/interruptRoutine.cpp ****         //prekid od tajmera
 818              		.loc 1 191 12 is_stmt 1
 819 0490 033784FD 		ld	a4,-40(s0)
 820 0494 9307F0FF 		li	a5,-1
 821 0498 9397F703 		slli	a5,a5,63
 822 049c 93871700 		addi	a5,a5,1
 823 04a0 6314F708 		bne	a4,a5,.L37
 194:src/interruptRoutine.cpp ****         TCB::runningTimeSlice++;
 824              		.loc 1 194 9
 194:src/interruptRoutine.cpp ****         TCB::runningTimeSlice++;
 825              		.loc 1 194 24 is_stmt 0
 826 04a4 97000000 		call	_ZN9Scheduler4wakeEv@plt
 826      E7800000 
 827              	.LVL78:
 195:src/interruptRoutine.cpp ****         if (TCB::runningTimeSlice >= TCB::running->getTimeSlice()) {
 828              		.loc 1 195 9 is_stmt 1
 195:src/interruptRoutine.cpp ****         if (TCB::runningTimeSlice >= TCB::running->getTimeSlice()) {
 829              		.loc 1 195 30 is_stmt 0
 830 04ac 97070000 		la	a5,_ZN3TCB16runningTimeSliceE
 830      83B70700 
 831 04b4 83B70700 		ld	a5,0(a5)
 832 04b8 13871700 		addi	a4,a5,1
 833 04bc 97070000 		la	a5,_ZN3TCB16runningTimeSliceE
 833      83B70700 
 834 04c4 23B0E700 		sd	a4,0(a5)
 196:src/interruptRoutine.cpp ****             //printString("\nMenjam kontekst\n");
 835              		.loc 1 196 9 is_stmt 1
 196:src/interruptRoutine.cpp ****             //printString("\nMenjam kontekst\n");
 836              		.loc 1 196 64 is_stmt 0
GAS LISTING /tmp/ccZTy7Y8.s 			page 21


 837 04c8 97070000 		la	a5,_ZN3TCB7runningE
 837      83B70700 
 838 04d0 83B70700 		ld	a5,0(a5)
 839 04d4 13850700 		mv	a0,a5
 840 04d8 97000000 		call	_ZN3TCB12getTimeSliceEv
 840      E7800000 
 841              	.LVL79:
 842 04e0 13070500 		mv	a4,a0
 196:src/interruptRoutine.cpp ****             //printString("\nMenjam kontekst\n");
 843              		.loc 1 196 35
 844 04e4 97070000 		la	a5,_ZN3TCB16runningTimeSliceE
 844      83B70700 
 845 04ec 83B70700 		ld	a5,0(a5)
 846 04f0 B3B7E700 		sgtu	a5,a4,a5
 847 04f4 93C71700 		xori	a5,a5,1
 848 04f8 93F7F70F 		andi	a5,a5,0xff
 196:src/interruptRoutine.cpp ****             //printString("\nMenjam kontekst\n");
 849              		.loc 1 196 9
 850 04fc 63860700 		beqz	a5,.L38
 198:src/interruptRoutine.cpp ****             //TCB::runningTimeSlice = 0;
 851              		.loc 1 198 13 is_stmt 1
 198:src/interruptRoutine.cpp ****             //TCB::runningTimeSlice = 0;
 852              		.loc 1 198 23 is_stmt 0
 853 0500 97000000 		call	_ZN3TCB5yieldEv@plt
 853      E7800000 
 854              	.LVL80:
 855              	.L38:
 202:src/interruptRoutine.cpp ****         __asm__ volatile("csrw sstatus, %[stat]": :[stat]"r"(sstatus));
 856              		.loc 1 202 9 is_stmt 1
 202:src/interruptRoutine.cpp ****         __asm__ volatile("csrw sstatus, %[stat]": :[stat]"r"(sstatus));
 857              		.loc 1 202 66 is_stmt 0
 858 0508 833704FD 		ld	a5,-48(s0)
 859              	#APP
 860              	# 202 "src/interruptRoutine.cpp" 1
 203:src/interruptRoutine.cpp ****         Riscv::mc_sip(Riscv::SIP_SSIP);
 861              		csrw sepc, a5
 862              	# 0 "" 2
 863              		.loc 1 203 9 is_stmt 1
 203:src/interruptRoutine.cpp ****         Riscv::mc_sip(Riscv::SIP_SSIP);
 864              		.loc 1 203 71 is_stmt 0
 865              	#NO_APP
 866 0510 833784FC 		ld	a5,-56(s0)
 867              	#APP
 868              	# 203 "src/interruptRoutine.cpp" 1
 204:src/interruptRoutine.cpp ****     } else {
 869              		csrw sstatus, a5
 870              	# 0 "" 2
 871              		.loc 1 204 9 is_stmt 1
 204:src/interruptRoutine.cpp ****     } else {
 872              		.loc 1 204 22 is_stmt 0
 873              	#NO_APP
 874 0518 13052000 		li	a0,2
 875 051c 97000000 		call	_ZN5Riscv6mc_sipEm
 875      E7800000 
 876              	.LVL81:
 877              	.LBE6:
 878              	.LBE8:
GAS LISTING /tmp/ccZTy7Y8.s 			page 22


 879              	.LBE11:
 880              		.loc 1 212 1
 881 0524 6F00C004 		j	.L40
 882              	.LVL82:
 883              	.L37:
 884              	.LBB12:
 885              	.LBB9:
 886              	.LBB7:
 206:src/interruptRoutine.cpp ****         printString("scause: ");
 887              		.loc 1 206 9 is_stmt 1
 206:src/interruptRoutine.cpp ****         printString("scause: ");
 888              		.loc 1 206 20 is_stmt 0
 889 0528 17050000 		lla	a0,.LC4
 889      13050500 
 890 0530 97000000 		call	_Z11printStringPKc@plt
 890      E7800000 
 891              	.LVL83:
 207:src/interruptRoutine.cpp ****         kPrintInt(scause);
 892              		.loc 1 207 9 is_stmt 1
 207:src/interruptRoutine.cpp ****         kPrintInt(scause);
 893              		.loc 1 207 20 is_stmt 0
 894 0538 17050000 		lla	a0,.LC5
 894      13050500 
 895 0540 97000000 		call	_Z11printStringPKc@plt
 895      E7800000 
 896              	.LVL84:
 208:src/interruptRoutine.cpp ****         printString("\nsepc: ");
 897              		.loc 1 208 9 is_stmt 1
 208:src/interruptRoutine.cpp ****         printString("\nsepc: ");
 898              		.loc 1 208 18 is_stmt 0
 899 0548 033584FD 		ld	a0,-40(s0)
 900 054c 97000000 		call	_Z9kPrintIntm@plt
 900      E7800000 
 901              	.LVL85:
 209:src/interruptRoutine.cpp ****         kPrintInt(sepc);
 902              		.loc 1 209 9 is_stmt 1
 209:src/interruptRoutine.cpp ****         kPrintInt(sepc);
 903              		.loc 1 209 20 is_stmt 0
 904 0554 17050000 		lla	a0,.LC2
 904      13050500 
 905 055c 97000000 		call	_Z11printStringPKc@plt
 905      E7800000 
 906              	.LVL86:
 210:src/interruptRoutine.cpp ****     }
 907              		.loc 1 210 9 is_stmt 1
 210:src/interruptRoutine.cpp ****     }
 908              		.loc 1 210 18 is_stmt 0
 909 0564 033504FD 		ld	a0,-48(s0)
 910 0568 97000000 		call	_Z9kPrintIntm@plt
 910      E7800000 
 911              	.LVL87:
 912              	.L40:
 913              	.LBE7:
 914              	.LBE9:
 915              	.LBE12:
 916              		.loc 1 212 1
 917 0570 13000000 		nop
GAS LISTING /tmp/ccZTy7Y8.s 			page 23


 918 0574 83308107 		ld	ra,120(sp)
 919              		.cfi_restore 1
 920 0578 03340107 		ld	s0,112(sp)
 921              		.cfi_restore 8
 922              		.cfi_def_cfa 2, 128
 923              	.LVL88:
 924 057c 83348106 		ld	s1,104(sp)
 925              		.cfi_restore 9
 926 0580 13010108 		addi	sp,sp,128
 927              		.cfi_def_cfa_offset 0
 928              	.LVL89:
 929 0584 67800000 		jr	ra
 930              		.cfi_endproc
 931              	.LFE49:
 933              		.section	.text._ZN5Riscv6mc_sipEm,"axG",@progbits,_ZN5Riscv6mc_sipEm,comdat
 934              		.align	2
 935              		.weak	_ZN5Riscv6mc_sipEm
 937              	_ZN5Riscv6mc_sipEm:
 938              	.LFB10:
 939              		.file 2 "src/../h/Riscv.hpp"
   1:src/../h/Riscv.hpp **** //
   2:src/../h/Riscv.hpp **** // Created by os on 5/17/23.
   3:src/../h/Riscv.hpp **** //
   4:src/../h/Riscv.hpp **** 
   5:src/../h/Riscv.hpp **** #ifndef PROJEKAT2023_RISCV_HPP
   6:src/../h/Riscv.hpp **** #define PROJEKAT2023_RISCV_HPP
   7:src/../h/Riscv.hpp **** 
   8:src/../h/Riscv.hpp **** #include "../lib/hw.h"
   9:src/../h/Riscv.hpp **** 
  10:src/../h/Riscv.hpp **** class Riscv {
  11:src/../h/Riscv.hpp **** public:
  12:src/../h/Riscv.hpp **** 
  13:src/../h/Riscv.hpp **** 	static void popSppSpie();
  14:src/../h/Riscv.hpp **** 
  15:src/../h/Riscv.hpp **** 	//stavljanje registara x3-x31 na stek
  16:src/../h/Riscv.hpp **** 	static void pushRegisters();    //implementacija u asm
  17:src/../h/Riscv.hpp **** 
  18:src/../h/Riscv.hpp **** 	//skidanje registara x3-x31 sa steka
  19:src/../h/Riscv.hpp **** 	static void popRegisters();     //implementacija u asm
  20:src/../h/Riscv.hpp **** 
  21:src/../h/Riscv.hpp **** 	//read scause
  22:src/../h/Riscv.hpp **** 	static uint64 r_scause();
  23:src/../h/Riscv.hpp **** 
  24:src/../h/Riscv.hpp **** 	//write scause
  25:src/../h/Riscv.hpp **** 	static void w_scause(uint64 scause);
  26:src/../h/Riscv.hpp **** 
  27:src/../h/Riscv.hpp **** 	//read sepc
  28:src/../h/Riscv.hpp **** 	static uint64 r_sepc();
  29:src/../h/Riscv.hpp **** 
  30:src/../h/Riscv.hpp **** 	//write sepc
  31:src/../h/Riscv.hpp **** 	static void w_sepc(uint64 sepc);
  32:src/../h/Riscv.hpp **** 
  33:src/../h/Riscv.hpp **** 	//read stvec
  34:src/../h/Riscv.hpp **** 	static uint64 r_stvec();
  35:src/../h/Riscv.hpp **** 
  36:src/../h/Riscv.hpp **** 	//write stvec
  37:src/../h/Riscv.hpp **** 	static void w_stvec(uint64 stvec);
GAS LISTING /tmp/ccZTy7Y8.s 			page 24


  38:src/../h/Riscv.hpp **** 
  39:src/../h/Riscv.hpp **** 	enum BitMaskSip {
  40:src/../h/Riscv.hpp **** 		//postoji zahtev za softverski prekid
  41:src/../h/Riscv.hpp **** 		SIP_SSIP = (1 << 1),
  42:src/../h/Riscv.hpp **** 		//postoji prekid od tajmera
  43:src/../h/Riscv.hpp **** 		SIP_STIP = (1 << 5),
  44:src/../h/Riscv.hpp **** 		//postoji zahtev za spoljasnji hardverski prekid
  45:src/../h/Riscv.hpp **** 		SIP_SEIP = (1 << 9)
  46:src/../h/Riscv.hpp **** 	};
  47:src/../h/Riscv.hpp **** 
  48:src/../h/Riscv.hpp **** 	//mask set sip
  49:src/../h/Riscv.hpp **** 	static void ms_sip(uint64 mask);
  50:src/../h/Riscv.hpp **** 
  51:src/../h/Riscv.hpp **** 	//mask clear sip
  52:src/../h/Riscv.hpp **** 	static void mc_sip(uint64 mask);
  53:src/../h/Riscv.hpp **** 
  54:src/../h/Riscv.hpp **** 	//read sip
  55:src/../h/Riscv.hpp **** 	static uint64 r_sip();
  56:src/../h/Riscv.hpp **** 
  57:src/../h/Riscv.hpp **** 	//write sip
  58:src/../h/Riscv.hpp **** 	static void w_sip(uint64 sip);
  59:src/../h/Riscv.hpp **** 
  60:src/../h/Riscv.hpp **** 	//kada se pozove sret, SIE dobija vrednost SPIE, SPIE se postavlja na 1,
  61:src/../h/Riscv.hpp **** 	//rezim se postavlja na osnovu SPP bita, SPP se postavlja na 0
  62:src/../h/Riscv.hpp **** 	enum BitMaskSstatus {
  63:src/../h/Riscv.hpp **** 		//1 - dozvoljeni prekidi; 0- nedozvoljeni prekidi; igonrise se u korisnickom rezimu
  64:src/../h/Riscv.hpp **** 		SSTATUS_SIE = (1 << 1),
  65:src/../h/Riscv.hpp **** 		//prethodna vrednost bita SIE
  66:src/../h/Riscv.hpp **** 		SSTATUS_SPIE = (1 << 5),
  67:src/../h/Riscv.hpp **** 		//iz kog rezima se desio skok; 0 - iz korisnickog; 1 - iz sistemskog
  68:src/../h/Riscv.hpp **** 		SSTATUS_SPP = (1 << 8)
  69:src/../h/Riscv.hpp **** 	};
  70:src/../h/Riscv.hpp **** 
  71:src/../h/Riscv.hpp **** 	//mask set sstatus
  72:src/../h/Riscv.hpp **** 	static void ms_sstatus(uint64 mask);
  73:src/../h/Riscv.hpp **** 
  74:src/../h/Riscv.hpp **** 	//mask clear sstatus
  75:src/../h/Riscv.hpp **** 	static void mc_sstatus(uint64 mask);
  76:src/../h/Riscv.hpp **** 
  77:src/../h/Riscv.hpp **** 	//read sstatus
  78:src/../h/Riscv.hpp **** 	static uint64 r_sstatus();
  79:src/../h/Riscv.hpp **** 
  80:src/../h/Riscv.hpp **** 	//write sstatus
  81:src/../h/Riscv.hpp **** 	static void w_sstatus(uint64 sstatus);
  82:src/../h/Riscv.hpp **** 
  83:src/../h/Riscv.hpp **** 	//upisuje kod sistemskog poziva u registar a0
  84:src/../h/Riscv.hpp **** 	static void loadOpCode(uint64 opCode);
  85:src/../h/Riscv.hpp **** 
  86:src/../h/Riscv.hpp **** };
  87:src/../h/Riscv.hpp **** 
  88:src/../h/Riscv.hpp **** inline uint64 Riscv::r_scause() {
  89:src/../h/Riscv.hpp **** 	uint64 volatile scause;
  90:src/../h/Riscv.hpp **** 	__asm__ volatile("csrr %[scause], scause": [scause] "=r"(scause));
  91:src/../h/Riscv.hpp **** 	return scause;
  92:src/../h/Riscv.hpp **** }
  93:src/../h/Riscv.hpp **** 
  94:src/../h/Riscv.hpp **** inline void Riscv::w_scause(uint64 scause) {
GAS LISTING /tmp/ccZTy7Y8.s 			page 25


  95:src/../h/Riscv.hpp **** 	__asm__ volatile("csrw scause, %[scause]": :[scause] "r"(scause));
  96:src/../h/Riscv.hpp **** }
  97:src/../h/Riscv.hpp **** 
  98:src/../h/Riscv.hpp **** inline uint64 Riscv::r_sepc() {
  99:src/../h/Riscv.hpp **** 	uint64 volatile sepc;
 100:src/../h/Riscv.hpp **** 	__asm__ volatile("csrr %[sepc], sepc": [sepc] "=r"(sepc));
 101:src/../h/Riscv.hpp **** 	return sepc;
 102:src/../h/Riscv.hpp **** }
 103:src/../h/Riscv.hpp **** 
 104:src/../h/Riscv.hpp **** inline void Riscv::w_sepc(uint64 sepc) {
 105:src/../h/Riscv.hpp **** 	__asm__ volatile("csrw sepc, %[sepc]": :[sepc] "r"(sepc));
 106:src/../h/Riscv.hpp **** }
 107:src/../h/Riscv.hpp **** 
 108:src/../h/Riscv.hpp **** inline uint64 Riscv::r_stvec() {
 109:src/../h/Riscv.hpp **** 	uint64 volatile stvec;
 110:src/../h/Riscv.hpp **** 	__asm__ volatile("csrr %[stvec], stvec": [stvec] "=r"(stvec));
 111:src/../h/Riscv.hpp **** 	return stvec;
 112:src/../h/Riscv.hpp **** }
 113:src/../h/Riscv.hpp **** 
 114:src/../h/Riscv.hpp **** inline void Riscv::w_stvec(uint64 stvec) {
 115:src/../h/Riscv.hpp **** 	__asm__ volatile("csrw stvec, %[stvec]": :[stvec] "r"(stvec));
 116:src/../h/Riscv.hpp **** }
 117:src/../h/Riscv.hpp **** 
 118:src/../h/Riscv.hpp **** inline void Riscv::ms_sip(uint64 mask) {
 119:src/../h/Riscv.hpp **** 	__asm__ volatile("csrs sip, %[mask]": :[mask] "r"(mask));
 120:src/../h/Riscv.hpp **** }
 121:src/../h/Riscv.hpp **** 
 122:src/../h/Riscv.hpp **** inline void Riscv::mc_sip(uint64 mask) {
 940              		.loc 2 122 40 is_stmt 1
 941              		.cfi_startproc
 942              	.LVL90:
 943 0000 130101FF 		addi	sp,sp,-16
 944              		.cfi_def_cfa_offset 16
 945 0004 23348100 		sd	s0,8(sp)
 946              		.cfi_offset 8, -8
 947 0008 13040101 		addi	s0,sp,16
 948              		.cfi_def_cfa 8, 0
 123:src/../h/Riscv.hpp **** 	__asm__ volatile("csrc sip, %[mask]": :[mask] "r"(mask));
 949              		.loc 2 123 2
 950              		.loc 2 123 58 is_stmt 0
 951              	#APP
 952              	# 123 "src/../h/Riscv.hpp" 1
 124              	}
 953              		csrc sip, a0
 954              	# 0 "" 2
 955              		.loc 2 124 1
 956              	#NO_APP
 957 0010 03348100 		ld	s0,8(sp)
 958              		.cfi_restore 8
 959              		.cfi_def_cfa 2, 16
 960 0014 13010101 		addi	sp,sp,16
 961              		.cfi_def_cfa_offset 0
 962 0018 67800000 		jr	ra
 963              		.cfi_endproc
 964              	.LFE10:
 966              		.section	.text._ZN3TCB9setStatusENS_12ThreadStatusE,"axG",@progbits,_ZN3TCB9setStatusENS_12ThreadS
 967              		.align	2
GAS LISTING /tmp/ccZTy7Y8.s 			page 26


 968              		.weak	_ZN3TCB9setStatusENS_12ThreadStatusE
 970              	_ZN3TCB9setStatusENS_12ThreadStatusE:
 971              	.LFB32:
 972              		.file 3 "src/../h/TCB.hpp"
   1:src/../h/TCB.hpp **** //
   2:src/../h/TCB.hpp **** // Created by os on 5/23/23.
   3:src/../h/TCB.hpp **** //
   4:src/../h/TCB.hpp **** 
   5:src/../h/TCB.hpp **** #ifndef PROJEKAT2023_TCB_HPP
   6:src/../h/TCB.hpp **** #define PROJEKAT2023_TCB_HPP
   7:src/../h/TCB.hpp **** 
   8:src/../h/TCB.hpp **** #include "../lib/hw.h"
   9:src/../h/TCB.hpp **** #include "../h/ThreadQueue.hpp"
  10:src/../h/TCB.hpp **** 
  11:src/../h/TCB.hpp **** class TCB {
  12:src/../h/TCB.hpp **** public:
  13:src/../h/TCB.hpp ****     friend class Scheduler;
  14:src/../h/TCB.hpp **** 
  15:src/../h/TCB.hpp ****     using Body = void (*)(void*);
  16:src/../h/TCB.hpp **** 
  17:src/../h/TCB.hpp ****     enum ThreadStatus {
  18:src/../h/TCB.hpp ****         CREATED, ACTIVE, BLOCKED, JOINING, SLEEPING, FINISHED
  19:src/../h/TCB.hpp ****     };
  20:src/../h/TCB.hpp **** 
  21:src/../h/TCB.hpp ****     void setStatus(ThreadStatus stat) { this->status = stat; }
 973              		.loc 3 21 10 is_stmt 1
 974              		.cfi_startproc
 975              	.LVL91:
 976 0000 130101FF 		addi	sp,sp,-16
 977              		.cfi_def_cfa_offset 16
 978 0004 23348100 		sd	s0,8(sp)
 979              		.cfi_offset 8, -8
 980 0008 13040101 		addi	s0,sp,16
 981              		.cfi_def_cfa 8, 0
 982              		.loc 3 21 41
 983              		.loc 3 21 54 is_stmt 0
 984 000c 232CB504 		sw	a1,88(a0)
 985              		.loc 3 21 62
 986 0010 03348100 		ld	s0,8(sp)
 987              		.cfi_restore 8
 988              		.cfi_def_cfa 2, 16
 989 0014 13010101 		addi	sp,sp,16
 990              		.cfi_def_cfa_offset 0
 991 0018 67800000 		jr	ra
 992              		.cfi_endproc
 993              	.LFE32:
 995              		.section	.text._ZN3TCB12getTimeSliceEv,"axG",@progbits,_ZN3TCB12getTimeSliceEv,comdat
 996              		.align	2
 997              		.weak	_ZN3TCB12getTimeSliceEv
 999              	_ZN3TCB12getTimeSliceEv:
 1000              	.LFB34:
  22:src/../h/TCB.hpp **** 
  23:src/../h/TCB.hpp ****     ThreadStatus getStatus() { return this->status; }
  24:src/../h/TCB.hpp **** 
  25:src/../h/TCB.hpp ****     static TCB* createThread(Body function, void* args, uint64* stack);
  26:src/../h/TCB.hpp **** 
  27:src/../h/TCB.hpp ****     static void start(TCB* newTcb);
GAS LISTING /tmp/ccZTy7Y8.s 			page 27


  28:src/../h/TCB.hpp **** 
  29:src/../h/TCB.hpp **** //    bool isFinished() { return finished; }
  30:src/../h/TCB.hpp **** //
  31:src/../h/TCB.hpp **** //    void setFinished(bool finish) { this->finished = finish; }
  32:src/../h/TCB.hpp **** //
  33:src/../h/TCB.hpp **** //    bool isBlocked() { return blocked; }
  34:src/../h/TCB.hpp **** //
  35:src/../h/TCB.hpp **** //    void setBlocked(bool block) { this->blocked = block; }
  36:src/../h/TCB.hpp **** 
  37:src/../h/TCB.hpp ****     uint64 getTimeSlice() { return timeSlice; }
 1001              		.loc 3 37 12 is_stmt 1
 1002              		.cfi_startproc
 1003              	.LVL92:
 1004 0000 130101FF 		addi	sp,sp,-16
 1005              		.cfi_def_cfa_offset 16
 1006 0004 23348100 		sd	s0,8(sp)
 1007              		.cfi_offset 8, -8
 1008 0008 13040101 		addi	s0,sp,16
 1009              		.cfi_def_cfa 8, 0
 1010              		.loc 3 37 29
 1011              		.loc 3 37 47 is_stmt 0
 1012 000c 03358502 		ld	a0,40(a0)
 1013              	.LVL93:
 1014 0010 03348100 		ld	s0,8(sp)
 1015              		.cfi_restore 8
 1016              		.cfi_def_cfa 2, 16
 1017 0014 13010101 		addi	sp,sp,16
 1018              		.cfi_def_cfa_offset 0
 1019 0018 67800000 		jr	ra
 1020              		.cfi_endproc
 1021              	.LFE34:
 1023              		.text
 1024              	.Letext0:
 1025              		.file 4 "src/../lib/hw.h"
 1026              		.file 5 "src/../h/MemoryAllocator.hpp"
 1027              		.file 6 "src/../h/syscall_c.hpp"
 1028              		.file 7 "src/../h/KSem.hpp"
 1029              		.file 8 "src/../h/../h/ThreadQueue.hpp"
 1030              		.file 9 "src/../h/Scheduler.hpp"
 1031              		.file 10 "src/../h/KConsole.hpp"
 1032              		.file 11 "src/../h/../test/printing.hpp"
 1033              		.file 12 "src/../h/helper.hpp"
GAS LISTING /tmp/ccZTy7Y8.s 			page 28


DEFINED SYMBOLS
                            *ABS*:0000000000000000 interruptRoutine.cpp
     /tmp/ccZTy7Y8.s:29     .text:0000000000000000 interruptRoutine
     /tmp/ccZTy7Y8.s:33     .text:0000000000000000 .L0 
     /tmp/ccZTy7Y8.s:34     .text:0000000000000000 .L0 
     /tmp/ccZTy7Y8.s:35     .text:0000000000000004 .L0 
     /tmp/ccZTy7Y8.s:39     .text:0000000000000010 .L0 
     /tmp/ccZTy7Y8.s:40     .text:0000000000000010 .L0 
     /tmp/ccZTy7Y8.s:41     .text:0000000000000010 .L0 
     /tmp/ccZTy7Y8.s:43     .text:0000000000000014 .L0 
     /tmp/ccZTy7Y8.s:45     .text:0000000000000014 .L0 
     /tmp/ccZTy7Y8.s:46     .text:0000000000000014 .L0 
src/interruptRoutine.cpp:24     .text:0000000000000014 .L0 
     /tmp/ccZTy7Y8.s:55     .text:000000000000001c .L0 
src/interruptRoutine.cpp:25     .text:000000000000001c .L0 
     /tmp/ccZTy7Y8.s:65     .text:0000000000000024 .L0 
src/interruptRoutine.cpp:26     .text:0000000000000024 .L0 
     /tmp/ccZTy7Y8.s:75     .text:000000000000002c .L0 
     /tmp/ccZTy7Y8.s:76     .text:000000000000002c .L0 
src/interruptRoutine.cpp:30     .text:000000000000002c .L0 
     /tmp/ccZTy7Y8.s:86     .text:0000000000000034 .L0 
src/interruptRoutine.cpp:31     .text:0000000000000034 .L0 
     /tmp/ccZTy7Y8.s:96     .text:000000000000003c .L0 
src/interruptRoutine.cpp:32     .text:000000000000003c .L0 
     /tmp/ccZTy7Y8.s:106    .text:0000000000000044 .L0 
src/interruptRoutine.cpp:33     .text:0000000000000044 .L0 
     /tmp/ccZTy7Y8.s:116    .text:000000000000004c .L0 
src/interruptRoutine.cpp:34     .text:000000000000004c .L0 
     /tmp/ccZTy7Y8.s:126    .text:0000000000000054 .L0 
src/interruptRoutine.cpp:35     .text:0000000000000054 .L0 
     /tmp/ccZTy7Y8.s:136    .text:000000000000005c .L0 
src/interruptRoutine.cpp:36     .text:000000000000005c .L0 
     /tmp/ccZTy7Y8.s:146    .text:0000000000000064 .L0 
src/interruptRoutine.cpp:37     .text:0000000000000064 .L0 
     /tmp/ccZTy7Y8.s:157    .text:000000000000006c .L0 
     /tmp/ccZTy7Y8.s:161    .text:0000000000000078 .L0 
     /tmp/ccZTy7Y8.s:166    .text:0000000000000084 .L0 
     /tmp/ccZTy7Y8.s:274    .text:0000000000000110 .L0 
     /tmp/ccZTy7Y8.s:275    .text:0000000000000110 .L0 
     /tmp/ccZTy7Y8.s:276    .text:0000000000000110 .L0 
     /tmp/ccZTy7Y8.s:283    .text:0000000000000128 .L0 
src/interruptRoutine.cpp:46     .text:0000000000000128 .L0 
     /tmp/ccZTy7Y8.s:290    .text:000000000000012c .L0 
     /tmp/ccZTy7Y8.s:294    .text:0000000000000130 .L0 
     /tmp/ccZTy7Y8.s:295    .text:0000000000000130 .L0 
     /tmp/ccZTy7Y8.s:296    .text:0000000000000130 .L0 
     /tmp/ccZTy7Y8.s:301    .text:0000000000000140 .L0 
src/interruptRoutine.cpp:52     .text:0000000000000140 .L0 
     /tmp/ccZTy7Y8.s:308    .text:0000000000000144 .L0 
     /tmp/ccZTy7Y8.s:312    .text:0000000000000148 .L0 
     /tmp/ccZTy7Y8.s:313    .text:0000000000000148 .L0 
     /tmp/ccZTy7Y8.s:314    .text:0000000000000148 .L0 
     /tmp/ccZTy7Y8.s:318    .text:0000000000000154 .L0 
     /tmp/ccZTy7Y8.s:320    .text:0000000000000158 .L0 
     /tmp/ccZTy7Y8.s:327    .text:0000000000000170 .L0 
     /tmp/ccZTy7Y8.s:329    .text:0000000000000174 .L0 
     /tmp/ccZTy7Y8.s:330    .text:0000000000000174 .L0 
GAS LISTING /tmp/ccZTy7Y8.s 			page 29


     /tmp/ccZTy7Y8.s:336    .text:0000000000000188 .L0 
     /tmp/ccZTy7Y8.s:337    .text:0000000000000188 .L0 
     /tmp/ccZTy7Y8.s:340    .text:0000000000000190 .L0 
     /tmp/ccZTy7Y8.s:342    .text:0000000000000194 .L0 
src/interruptRoutine.cpp:63     .text:0000000000000194 .L0 
     /tmp/ccZTy7Y8.s:351    .text:000000000000019c .L0 
src/interruptRoutine.cpp:65     .text:000000000000019c .L0 
     /tmp/ccZTy7Y8.s:359    .text:00000000000001a0 .L0 
src/interruptRoutine.cpp:67     .text:00000000000001a0 .L0 
     /tmp/ccZTy7Y8.s:366    .text:00000000000001a4 .L0 
     /tmp/ccZTy7Y8.s:370    .text:00000000000001a8 .L0 
     /tmp/ccZTy7Y8.s:371    .text:00000000000001a8 .L0 
     /tmp/ccZTy7Y8.s:372    .text:00000000000001a8 .L0 
     /tmp/ccZTy7Y8.s:970    .text._ZN3TCB9setStatusENS_12ThreadStatusE:0000000000000000 _ZN3TCB9setStatusENS_12ThreadStatusE
     /tmp/ccZTy7Y8.s:379    .text:00000000000001c4 .L0 
     /tmp/ccZTy7Y8.s:380    .text:00000000000001c4 .L0 
     /tmp/ccZTy7Y8.s:383    .text:00000000000001cc .L0 
     /tmp/ccZTy7Y8.s:384    .text:00000000000001cc .L0 
     /tmp/ccZTy7Y8.s:387    .text:00000000000001d4 .L0 
     /tmp/ccZTy7Y8.s:391    .text:00000000000001d8 .L0 
     /tmp/ccZTy7Y8.s:392    .text:00000000000001d8 .L0 
     /tmp/ccZTy7Y8.s:393    .text:00000000000001d8 .L0 
     /tmp/ccZTy7Y8.s:396    .text:00000000000001e0 .L0 
     /tmp/ccZTy7Y8.s:400    .text:00000000000001e4 .L0 
     /tmp/ccZTy7Y8.s:401    .text:00000000000001e4 .L0 
     /tmp/ccZTy7Y8.s:402    .text:00000000000001e4 .L0 
     /tmp/ccZTy7Y8.s:407    .text:00000000000001f4 .L0 
     /tmp/ccZTy7Y8.s:408    .text:00000000000001f4 .L0 
     /tmp/ccZTy7Y8.s:411    .text:00000000000001fc .L0 
     /tmp/ccZTy7Y8.s:415    .text:0000000000000200 .L0 
     /tmp/ccZTy7Y8.s:416    .text:0000000000000200 .L0 
     /tmp/ccZTy7Y8.s:417    .text:0000000000000200 .L0 
     /tmp/ccZTy7Y8.s:420    .text:0000000000000208 .L0 
     /tmp/ccZTy7Y8.s:422    .text:000000000000020c .L0 
     /tmp/ccZTy7Y8.s:427    .text:000000000000021c .L0 
     /tmp/ccZTy7Y8.s:429    .text:0000000000000220 .L0 
     /tmp/ccZTy7Y8.s:430    .text:0000000000000220 .L0 
     /tmp/ccZTy7Y8.s:433    .text:0000000000000228 .L0 
     /tmp/ccZTy7Y8.s:435    .text:000000000000022c .L0 
src/interruptRoutine.cpp:91     .text:000000000000022c .L0 
     /tmp/ccZTy7Y8.s:444    .text:0000000000000234 .L0 
src/interruptRoutine.cpp:93     .text:0000000000000234 .L0 
     /tmp/ccZTy7Y8.s:452    .text:0000000000000238 .L0 
src/interruptRoutine.cpp:95     .text:0000000000000238 .L0 
     /tmp/ccZTy7Y8.s:459    .text:000000000000023c .L0 
     /tmp/ccZTy7Y8.s:463    .text:0000000000000240 .L0 
     /tmp/ccZTy7Y8.s:464    .text:0000000000000240 .L0 
     /tmp/ccZTy7Y8.s:465    .text:0000000000000240 .L0 
     /tmp/ccZTy7Y8.s:470    .text:0000000000000250 .L0 
src/interruptRoutine.cpp:101    .text:0000000000000250 .L0 
     /tmp/ccZTy7Y8.s:477    .text:0000000000000254 .L0 
     /tmp/ccZTy7Y8.s:481    .text:0000000000000258 .L0 
     /tmp/ccZTy7Y8.s:482    .text:0000000000000258 .L0 
     /tmp/ccZTy7Y8.s:483    .text:0000000000000258 .L0 
     /tmp/ccZTy7Y8.s:488    .text:0000000000000268 .L0 
src/interruptRoutine.cpp:107    .text:0000000000000268 .L0 
     /tmp/ccZTy7Y8.s:495    .text:000000000000026c .L0 
GAS LISTING /tmp/ccZTy7Y8.s 			page 30


     /tmp/ccZTy7Y8.s:499    .text:0000000000000270 .L0 
     /tmp/ccZTy7Y8.s:500    .text:0000000000000270 .L0 
     /tmp/ccZTy7Y8.s:501    .text:0000000000000270 .L0 
     /tmp/ccZTy7Y8.s:506    .text:0000000000000280 .L0 
src/interruptRoutine.cpp:113    .text:0000000000000280 .L0 
     /tmp/ccZTy7Y8.s:513    .text:0000000000000284 .L0 
     /tmp/ccZTy7Y8.s:517    .text:0000000000000288 .L0 
     /tmp/ccZTy7Y8.s:518    .text:0000000000000288 .L0 
     /tmp/ccZTy7Y8.s:521    .text:0000000000000290 .L0 
src/interruptRoutine.cpp:119    .text:0000000000000290 .L0 
     /tmp/ccZTy7Y8.s:530    .text:0000000000000298 .L0 
src/interruptRoutine.cpp:121    .text:0000000000000298 .L0 
     /tmp/ccZTy7Y8.s:538    .text:000000000000029c .L0 
src/interruptRoutine.cpp:123    .text:000000000000029c .L0 
     /tmp/ccZTy7Y8.s:545    .text:00000000000002a0 .L0 
     /tmp/ccZTy7Y8.s:548    .text:00000000000002a8 .L0 
     /tmp/ccZTy7Y8.s:549    .text:00000000000002a8 .L0 
     /tmp/ccZTy7Y8.s:556    .text:00000000000002c4 .L0 
     /tmp/ccZTy7Y8.s:557    .text:00000000000002c4 .L0 
     /tmp/ccZTy7Y8.s:560    .text:00000000000002cc .L0 
     /tmp/ccZTy7Y8.s:564    .text:00000000000002d0 .L0 
     /tmp/ccZTy7Y8.s:565    .text:00000000000002d0 .L0 
     /tmp/ccZTy7Y8.s:566    .text:00000000000002d0 .L0 
     /tmp/ccZTy7Y8.s:569    .text:00000000000002d8 .L0 
src/interruptRoutine.cpp:132    .text:00000000000002d8 .L0 
     /tmp/ccZTy7Y8.s:576    .text:00000000000002dc .L0 
     /tmp/ccZTy7Y8.s:580    .text:00000000000002e0 .L0 
     /tmp/ccZTy7Y8.s:581    .text:00000000000002e0 .L0 
     /tmp/ccZTy7Y8.s:582    .text:00000000000002e0 .L0 
     /tmp/ccZTy7Y8.s:588    .text:00000000000002f4 .L0 
     /tmp/ccZTy7Y8.s:592    .text:00000000000002f8 .L0 
     /tmp/ccZTy7Y8.s:593    .text:00000000000002f8 .L0 
     /tmp/ccZTy7Y8.s:594    .text:00000000000002f8 .L0 
     /tmp/ccZTy7Y8.s:598    .text:0000000000000304 .L0 
     /tmp/ccZTy7Y8.s:600    .text:0000000000000308 .L0 
     /tmp/ccZTy7Y8.s:607    .text:0000000000000320 .L0 
     /tmp/ccZTy7Y8.s:609    .text:0000000000000324 .L0 
     /tmp/ccZTy7Y8.s:610    .text:0000000000000324 .L0 
     /tmp/ccZTy7Y8.s:613    .text:000000000000032c .L0 
     /tmp/ccZTy7Y8.s:615    .text:0000000000000330 .L0 
src/interruptRoutine.cpp:147    .text:0000000000000330 .L0 
     /tmp/ccZTy7Y8.s:624    .text:0000000000000338 .L0 
src/interruptRoutine.cpp:149    .text:0000000000000338 .L0 
     /tmp/ccZTy7Y8.s:632    .text:000000000000033c .L0 
src/interruptRoutine.cpp:151    .text:000000000000033c .L0 
     /tmp/ccZTy7Y8.s:639    .text:0000000000000340 .L0 
     /tmp/ccZTy7Y8.s:643    .text:0000000000000344 .L0 
     /tmp/ccZTy7Y8.s:644    .text:0000000000000344 .L0 
     /tmp/ccZTy7Y8.s:645    .text:0000000000000344 .L0 
     /tmp/ccZTy7Y8.s:650    .text:0000000000000354 .L0 
     /tmp/ccZTy7Y8.s:654    .text:0000000000000358 .L0 
     /tmp/ccZTy7Y8.s:655    .text:0000000000000358 .L0 
     /tmp/ccZTy7Y8.s:656    .text:0000000000000358 .L0 
     /tmp/ccZTy7Y8.s:660    .text:0000000000000364 .L0 
     /tmp/ccZTy7Y8.s:664    .text:0000000000000368 .L0 
     /tmp/ccZTy7Y8.s:665    .text:0000000000000368 .L0 
     /tmp/ccZTy7Y8.s:666    .text:0000000000000368 .L0 
GAS LISTING /tmp/ccZTy7Y8.s 			page 31


     /tmp/ccZTy7Y8.s:670    .text:0000000000000378 .L0 
     /tmp/ccZTy7Y8.s:671    .text:0000000000000378 .L0 
     /tmp/ccZTy7Y8.s:675    .text:0000000000000384 .L0 
     /tmp/ccZTy7Y8.s:676    .text:0000000000000384 .L0 
     /tmp/ccZTy7Y8.s:680    .text:0000000000000394 .L0 
     /tmp/ccZTy7Y8.s:681    .text:0000000000000394 .L0 
     /tmp/ccZTy7Y8.s:685    .text:00000000000003a0 .L0 
     /tmp/ccZTy7Y8.s:686    .text:00000000000003a0 .L0 
     /tmp/ccZTy7Y8.s:690    .text:00000000000003b0 .L0 
     /tmp/ccZTy7Y8.s:691    .text:00000000000003b0 .L0 
     /tmp/ccZTy7Y8.s:695    .text:00000000000003bc .L0 
     /tmp/ccZTy7Y8.s:698    .text:00000000000003c0 .L0 
     /tmp/ccZTy7Y8.s:701    .text:00000000000003c4 .L0 
     /tmp/ccZTy7Y8.s:702    .text:00000000000003c4 .L0 
     /tmp/ccZTy7Y8.s:707    .text:00000000000003d0 .L0 
     /tmp/ccZTy7Y8.s:708    .text:00000000000003d0 .L0 
     /tmp/ccZTy7Y8.s:714    .text:00000000000003d8 .L0 
     /tmp/ccZTy7Y8.s:716    .text:00000000000003d8 .L0 
     /tmp/ccZTy7Y8.s:725    .text:00000000000003e0 .L0 
     /tmp/ccZTy7Y8.s:732    .text:00000000000003e4 .L0 
     /tmp/ccZTy7Y8.s:740    .text:00000000000003f8 .L0 
     /tmp/ccZTy7Y8.s:741    .text:00000000000003f8 .L0 
     /tmp/ccZTy7Y8.s:745    .text:0000000000000404 .L0 
     /tmp/ccZTy7Y8.s:748    .text:0000000000000408 .L0 
     /tmp/ccZTy7Y8.s:752    .text:0000000000000414 .L0 
     /tmp/ccZTy7Y8.s:753    .text:0000000000000414 .L0 
     /tmp/ccZTy7Y8.s:757    .text:0000000000000424 .L0 
     /tmp/ccZTy7Y8.s:759    .text:0000000000000428 .L0 
     /tmp/ccZTy7Y8.s:761    .text:000000000000042c .L0 
     /tmp/ccZTy7Y8.s:762    .text:000000000000042c .L0 
     /tmp/ccZTy7Y8.s:773    .text:000000000000044c .L0 
     /tmp/ccZTy7Y8.s:774    .text:000000000000044c .L0 
     /tmp/ccZTy7Y8.s:780    .text:000000000000045c .L0 
     /tmp/ccZTy7Y8.s:781    .text:000000000000045c .L0 
     /tmp/ccZTy7Y8.s:787    .text:0000000000000470 .L0 
     /tmp/ccZTy7Y8.s:788    .text:0000000000000470 .L0 
     /tmp/ccZTy7Y8.s:794    .text:0000000000000478 .L0 
     /tmp/ccZTy7Y8.s:796    .text:0000000000000478 .L0 
     /tmp/ccZTy7Y8.s:802    .text:0000000000000480 .L0 
     /tmp/ccZTy7Y8.s:804    .text:0000000000000480 .L0 
     /tmp/ccZTy7Y8.s:937    .text._ZN5Riscv6mc_sipEm:0000000000000000 _ZN5Riscv6mc_sipEm
     /tmp/ccZTy7Y8.s:812    .text:000000000000048c .L0 
     /tmp/ccZTy7Y8.s:819    .text:0000000000000490 .L0 
     /tmp/ccZTy7Y8.s:825    .text:00000000000004a4 .L0 
     /tmp/ccZTy7Y8.s:826    .text:00000000000004a4 .L0 
     /tmp/ccZTy7Y8.s:829    .text:00000000000004ac .L0 
     /tmp/ccZTy7Y8.s:830    .text:00000000000004ac .L0 
     /tmp/ccZTy7Y8.s:836    .text:00000000000004c8 .L0 
     /tmp/ccZTy7Y8.s:837    .text:00000000000004c8 .L0 
     /tmp/ccZTy7Y8.s:999    .text._ZN3TCB12getTimeSliceEv:0000000000000000 _ZN3TCB12getTimeSliceEv
     /tmp/ccZTy7Y8.s:844    .text:00000000000004e4 .L0 
     /tmp/ccZTy7Y8.s:850    .text:00000000000004fc .L0 
     /tmp/ccZTy7Y8.s:852    .text:0000000000000500 .L0 
     /tmp/ccZTy7Y8.s:853    .text:0000000000000500 .L0 
     /tmp/ccZTy7Y8.s:857    .text:0000000000000508 .L0 
     /tmp/ccZTy7Y8.s:858    .text:0000000000000508 .L0 
     /tmp/ccZTy7Y8.s:864    .text:0000000000000510 .L0 
GAS LISTING /tmp/ccZTy7Y8.s 			page 32


     /tmp/ccZTy7Y8.s:866    .text:0000000000000510 .L0 
     /tmp/ccZTy7Y8.s:872    .text:0000000000000518 .L0 
     /tmp/ccZTy7Y8.s:874    .text:0000000000000518 .L0 
     /tmp/ccZTy7Y8.s:881    .text:0000000000000524 .L0 
     /tmp/ccZTy7Y8.s:888    .text:0000000000000528 .L0 
     /tmp/ccZTy7Y8.s:889    .text:0000000000000528 .L0 
     /tmp/ccZTy7Y8.s:893    .text:0000000000000538 .L0 
     /tmp/ccZTy7Y8.s:894    .text:0000000000000538 .L0 
     /tmp/ccZTy7Y8.s:898    .text:0000000000000548 .L0 
     /tmp/ccZTy7Y8.s:899    .text:0000000000000548 .L0 
     /tmp/ccZTy7Y8.s:903    .text:0000000000000554 .L0 
     /tmp/ccZTy7Y8.s:904    .text:0000000000000554 .L0 
     /tmp/ccZTy7Y8.s:908    .text:0000000000000564 .L0 
     /tmp/ccZTy7Y8.s:909    .text:0000000000000564 .L0 
     /tmp/ccZTy7Y8.s:917    .text:0000000000000570 .L0 
     /tmp/ccZTy7Y8.s:919    .text:0000000000000578 .L0 
     /tmp/ccZTy7Y8.s:921    .text:000000000000057c .L0 
     /tmp/ccZTy7Y8.s:922    .text:000000000000057c .L0 
     /tmp/ccZTy7Y8.s:925    .text:0000000000000580 .L0 
     /tmp/ccZTy7Y8.s:927    .text:0000000000000584 .L0 
     /tmp/ccZTy7Y8.s:930    .text:0000000000000588 .L0 
     /tmp/ccZTy7Y8.s:941    .text._ZN5Riscv6mc_sipEm:0000000000000000 .L0 
     /tmp/ccZTy7Y8.s:943    .text._ZN5Riscv6mc_sipEm:0000000000000000 .L0 
     /tmp/ccZTy7Y8.s:944    .text._ZN5Riscv6mc_sipEm:0000000000000004 .L0 
     /tmp/ccZTy7Y8.s:946    .text._ZN5Riscv6mc_sipEm:0000000000000008 .L0 
     /tmp/ccZTy7Y8.s:948    .text._ZN5Riscv6mc_sipEm:000000000000000c .L0 
     /tmp/ccZTy7Y8.s:950    .text._ZN5Riscv6mc_sipEm:000000000000000c .L0 
  src/../h/Riscv.hpp:123    .text._ZN5Riscv6mc_sipEm:000000000000000c .L0 
     /tmp/ccZTy7Y8.s:957    .text._ZN5Riscv6mc_sipEm:0000000000000010 .L0 
     /tmp/ccZTy7Y8.s:958    .text._ZN5Riscv6mc_sipEm:0000000000000014 .L0 
     /tmp/ccZTy7Y8.s:959    .text._ZN5Riscv6mc_sipEm:0000000000000014 .L0 
     /tmp/ccZTy7Y8.s:961    .text._ZN5Riscv6mc_sipEm:0000000000000018 .L0 
     /tmp/ccZTy7Y8.s:963    .text._ZN5Riscv6mc_sipEm:000000000000001c .L0 
     /tmp/ccZTy7Y8.s:974    .text._ZN3TCB9setStatusENS_12ThreadStatusE:0000000000000000 .L0 
     /tmp/ccZTy7Y8.s:976    .text._ZN3TCB9setStatusENS_12ThreadStatusE:0000000000000000 .L0 
     /tmp/ccZTy7Y8.s:977    .text._ZN3TCB9setStatusENS_12ThreadStatusE:0000000000000004 .L0 
     /tmp/ccZTy7Y8.s:979    .text._ZN3TCB9setStatusENS_12ThreadStatusE:0000000000000008 .L0 
     /tmp/ccZTy7Y8.s:981    .text._ZN3TCB9setStatusENS_12ThreadStatusE:000000000000000c .L0 
     /tmp/ccZTy7Y8.s:983    .text._ZN3TCB9setStatusENS_12ThreadStatusE:000000000000000c .L0 
     /tmp/ccZTy7Y8.s:984    .text._ZN3TCB9setStatusENS_12ThreadStatusE:000000000000000c .L0 
     /tmp/ccZTy7Y8.s:986    .text._ZN3TCB9setStatusENS_12ThreadStatusE:0000000000000010 .L0 
     /tmp/ccZTy7Y8.s:987    .text._ZN3TCB9setStatusENS_12ThreadStatusE:0000000000000014 .L0 
     /tmp/ccZTy7Y8.s:988    .text._ZN3TCB9setStatusENS_12ThreadStatusE:0000000000000014 .L0 
     /tmp/ccZTy7Y8.s:990    .text._ZN3TCB9setStatusENS_12ThreadStatusE:0000000000000018 .L0 
     /tmp/ccZTy7Y8.s:992    .text._ZN3TCB9setStatusENS_12ThreadStatusE:000000000000001c .L0 
     /tmp/ccZTy7Y8.s:1002   .text._ZN3TCB12getTimeSliceEv:0000000000000000 .L0 
     /tmp/ccZTy7Y8.s:1004   .text._ZN3TCB12getTimeSliceEv:0000000000000000 .L0 
     /tmp/ccZTy7Y8.s:1005   .text._ZN3TCB12getTimeSliceEv:0000000000000004 .L0 
     /tmp/ccZTy7Y8.s:1007   .text._ZN3TCB12getTimeSliceEv:0000000000000008 .L0 
     /tmp/ccZTy7Y8.s:1009   .text._ZN3TCB12getTimeSliceEv:000000000000000c .L0 
     /tmp/ccZTy7Y8.s:1011   .text._ZN3TCB12getTimeSliceEv:000000000000000c .L0 
     /tmp/ccZTy7Y8.s:1012   .text._ZN3TCB12getTimeSliceEv:000000000000000c .L0 
     /tmp/ccZTy7Y8.s:1015   .text._ZN3TCB12getTimeSliceEv:0000000000000014 .L0 
     /tmp/ccZTy7Y8.s:1016   .text._ZN3TCB12getTimeSliceEv:0000000000000014 .L0 
     /tmp/ccZTy7Y8.s:1018   .text._ZN3TCB12getTimeSliceEv:0000000000000018 .L0 
     /tmp/ccZTy7Y8.s:1020   .text._ZN3TCB12getTimeSliceEv:000000000000001c .L0 
     /tmp/ccZTy7Y8.s:1034   .text:0000000000000588 .L0 
GAS LISTING /tmp/ccZTy7Y8.s 			page 33


     /tmp/ccZTy7Y8.s:966    .text._ZN5Riscv6mc_sipEm:000000000000001c .L0 
     /tmp/ccZTy7Y8.s:995    .text._ZN3TCB9setStatusENS_12ThreadStatusE:000000000000001c .L0 
     /tmp/ccZTy7Y8.s:1023   .text._ZN3TCB12getTimeSliceEv:000000000000001c .L0 
     /tmp/ccZTy7Y8.s:198    .rodata:0000000000000074 .L9
     /tmp/ccZTy7Y8.s:188    .text:00000000000000dc .L0 
     /tmp/ccZTy7Y8.s:192    .text:00000000000000f0 .L0 
     /tmp/ccZTy7Y8.s:372    .text:00000000000001a8 .L0 
     /tmp/ccZTy7Y8.s:549    .text:00000000000002a8 .L0 
     /tmp/ccZTy7Y8.s:8      .rodata:0000000000000000 .LC0
     /tmp/ccZTy7Y8.s:666    .text:0000000000000368 .L0 
     /tmp/ccZTy7Y8.s:11     .rodata:0000000000000018 .LC1
     /tmp/ccZTy7Y8.s:676    .text:0000000000000384 .L0 
     /tmp/ccZTy7Y8.s:14     .rodata:0000000000000028 .LC2
     /tmp/ccZTy7Y8.s:686    .text:00000000000003a0 .L0 
     /tmp/ccZTy7Y8.s:753    .text:0000000000000414 .L0 
     /tmp/ccZTy7Y8.s:762    .text:000000000000042c .L0 
     /tmp/ccZTy7Y8.s:17     .rodata:0000000000000030 .LC3
     /tmp/ccZTy7Y8.s:774    .text:000000000000044c .L0 
     /tmp/ccZTy7Y8.s:830    .text:00000000000004ac .L0 
     /tmp/ccZTy7Y8.s:833    .text:00000000000004bc .L0 
     /tmp/ccZTy7Y8.s:837    .text:00000000000004c8 .L0 
     /tmp/ccZTy7Y8.s:844    .text:00000000000004e4 .L0 
     /tmp/ccZTy7Y8.s:20     .rodata:0000000000000048 .LC4
     /tmp/ccZTy7Y8.s:889    .text:0000000000000528 .L0 
     /tmp/ccZTy7Y8.s:23     .rodata:0000000000000068 .LC5
     /tmp/ccZTy7Y8.s:894    .text:0000000000000538 .L0 
     /tmp/ccZTy7Y8.s:904    .text:0000000000000554 .L0 
     /tmp/ccZTy7Y8.s:164    .text:0000000000000084 .L2
     /tmp/ccZTy7Y8.s:727    .text:00000000000003e4 .L3
     /tmp/ccZTy7Y8.s:652    .text:0000000000000358 .L4
     /tmp/ccZTy7Y8.s:662    .text:0000000000000368 .L5
     /tmp/ccZTy7Y8.s:641    .text:0000000000000344 .L6
     /tmp/ccZTy7Y8.s:267    .text:0000000000000100 .L7
     /tmp/ccZTy7Y8.s:590    .text:00000000000002f8 .L22
     /tmp/ccZTy7Y8.s:699    .text:00000000000003c4 .L23
     /tmp/ccZTy7Y8.s:349    .text:000000000000019c .L24
     /tmp/ccZTy7Y8.s:357    .text:00000000000001a0 .L25
     /tmp/ccZTy7Y8.s:442    .text:0000000000000234 .L26
     /tmp/ccZTy7Y8.s:450    .text:0000000000000238 .L27
     /tmp/ccZTy7Y8.s:528    .text:0000000000000298 .L28
     /tmp/ccZTy7Y8.s:536    .text:000000000000029c .L29
     /tmp/ccZTy7Y8.s:696    .text:00000000000003c0 .L39
     /tmp/ccZTy7Y8.s:622    .text:0000000000000338 .L31
     /tmp/ccZTy7Y8.s:630    .text:000000000000033c .L32
     /tmp/ccZTy7Y8.s:912    .text:0000000000000570 .L40
     /tmp/ccZTy7Y8.s:814    .text:0000000000000490 .L34
     /tmp/ccZTy7Y8.s:771    .text:000000000000044c .L35
     /tmp/ccZTy7Y8.s:778    .text:000000000000045c .L36
     /tmp/ccZTy7Y8.s:883    .text:0000000000000528 .L37
     /tmp/ccZTy7Y8.s:855    .text:0000000000000508 .L38
     /tmp/ccZTy7Y8.s:272    .text:0000000000000110 .L21
     /tmp/ccZTy7Y8.s:292    .text:0000000000000130 .L20
     /tmp/ccZTy7Y8.s:310    .text:0000000000000148 .L19
     /tmp/ccZTy7Y8.s:368    .text:00000000000001a8 .L18
     /tmp/ccZTy7Y8.s:389    .text:00000000000001d8 .L17
     /tmp/ccZTy7Y8.s:398    .text:00000000000001e4 .L16
     /tmp/ccZTy7Y8.s:413    .text:0000000000000200 .L15
GAS LISTING /tmp/ccZTy7Y8.s 			page 34


     /tmp/ccZTy7Y8.s:461    .text:0000000000000240 .L14
     /tmp/ccZTy7Y8.s:479    .text:0000000000000258 .L13
     /tmp/ccZTy7Y8.s:497    .text:0000000000000270 .L12
     /tmp/ccZTy7Y8.s:515    .text:0000000000000288 .L11
     /tmp/ccZTy7Y8.s:562    .text:00000000000002d0 .L10
     /tmp/ccZTy7Y8.s:578    .text:00000000000002e0 .L8
     /tmp/ccZTy7Y8.s:3199   .debug_abbrev:0000000000000000 .Ldebug_abbrev0
     /tmp/ccZTy7Y8.s:5172   .debug_str:0000000000000ab5 .LASF233
     /tmp/ccZTy7Y8.s:5054   .debug_str:0000000000000757 .LASF234
     /tmp/ccZTy7Y8.s:5124   .debug_str:000000000000095f .LASF235
     /tmp/ccZTy7Y8.s:4786   .debug_ranges:0000000000000000 .Ldebug_ranges0
     /tmp/ccZTy7Y8.s:4798   .debug_line:0000000000000000 .Ldebug_line0
     /tmp/ccZTy7Y8.s:5086   .debug_str:000000000000083b .LASF3
     /tmp/ccZTy7Y8.s:4946   .debug_str:0000000000000456 .LASF0
     /tmp/ccZTy7Y8.s:4976   .debug_str:0000000000000512 .LASF1
     /tmp/ccZTy7Y8.s:5102   .debug_str:00000000000008b5 .LASF2
     /tmp/ccZTy7Y8.s:4898   .debug_str:00000000000002e7 .LASF4
     /tmp/ccZTy7Y8.s:5114   .debug_str:000000000000091b .LASF5
     /tmp/ccZTy7Y8.s:4960   .debug_str:00000000000004a0 .LASF6
     /tmp/ccZTy7Y8.s:4814   .debug_str:000000000000006c .LASF7
     /tmp/ccZTy7Y8.s:5062   .debug_str:000000000000078a .LASF8
     /tmp/ccZTy7Y8.s:5052   .debug_str:0000000000000744 .LASF9
     /tmp/ccZTy7Y8.s:4966   .debug_str:00000000000004ce .LASF10
     /tmp/ccZTy7Y8.s:4916   .debug_str:0000000000000368 .LASF11
     /tmp/ccZTy7Y8.s:4928   .debug_str:00000000000003bf .LASF12
     /tmp/ccZTy7Y8.s:4846   .debug_str:000000000000014b .LASF13
     /tmp/ccZTy7Y8.s:4904   .debug_str:0000000000000322 .LASF14
     /tmp/ccZTy7Y8.s:4862   .debug_str:00000000000001ca .LASF15
     /tmp/ccZTy7Y8.s:4844   .debug_str:000000000000013b .LASF16
     /tmp/ccZTy7Y8.s:5146   .debug_str:0000000000000a17 .LASF17
     /tmp/ccZTy7Y8.s:4894   .debug_str:00000000000002b6 .LASF18
     /tmp/ccZTy7Y8.s:5132   .debug_str:00000000000009a0 .LASF19
     /tmp/ccZTy7Y8.s:5048   .debug_str:0000000000000716 .LASF42
     /tmp/ccZTy7Y8.s:5044   .debug_str:0000000000000702 .LASF44
     /tmp/ccZTy7Y8.s:5060   .debug_str:0000000000000784 .LASF20
     /tmp/ccZTy7Y8.s:5256   .debug_str:0000000000000dcc .LASF21
     /tmp/ccZTy7Y8.s:5090   .debug_str:0000000000000861 .LASF22
     /tmp/ccZTy7Y8.s:5198   .debug_str:0000000000000c4c .LASF23
     /tmp/ccZTy7Y8.s:4996   .debug_str:000000000000057d .LASF24
     /tmp/ccZTy7Y8.s:5068   .debug_str:00000000000007a3 .LASF28
     /tmp/ccZTy7Y8.s:4848   .debug_str:000000000000015a .LASF25
     /tmp/ccZTy7Y8.s:4828   .debug_str:00000000000000da .LASF26
     /tmp/ccZTy7Y8.s:4974   .debug_str:000000000000050d .LASF27
     /tmp/ccZTy7Y8.s:4886   .debug_str:0000000000000287 .LASF29
     /tmp/ccZTy7Y8.s:5084   .debug_str:0000000000000833 .LASF30
     /tmp/ccZTy7Y8.s:5014   .debug_str:0000000000000615 .LASF31
     /tmp/ccZTy7Y8.s:5242   .debug_str:0000000000000d60 .LASF32
     /tmp/ccZTy7Y8.s:5180   .debug_str:0000000000000ba4 .LASF34
     /tmp/ccZTy7Y8.s:4910   .debug_str:000000000000034e .LASF33
     /tmp/ccZTy7Y8.s:5040   .debug_str:00000000000006df .LASF35
     /tmp/ccZTy7Y8.s:4832   .debug_str:00000000000000ea .LASF36
     /tmp/ccZTy7Y8.s:5076   .debug_str:00000000000007d4 .LASF37
     /tmp/ccZTy7Y8.s:5240   .debug_str:0000000000000d4c .LASF49
     /tmp/ccZTy7Y8.s:5004   .debug_str:00000000000005af .LASF51
     /tmp/ccZTy7Y8.s:4826   .debug_str:00000000000000c1 .LASF58
     /tmp/ccZTy7Y8.s:5092   .debug_str:0000000000000868 .LASF38
     /tmp/ccZTy7Y8.s:5210   .debug_str:0000000000000c81 .LASF39
GAS LISTING /tmp/ccZTy7Y8.s 			page 35


     /tmp/ccZTy7Y8.s:4942   .debug_str:0000000000000444 .LASF40
     /tmp/ccZTy7Y8.s:4956   .debug_str:0000000000000488 .LASF86
     /tmp/ccZTy7Y8.s:5144   .debug_str:00000000000009e2 .LASF88
     /tmp/ccZTy7Y8.s:4998   .debug_str:0000000000000587 .LASF41
     /tmp/ccZTy7Y8.s:5230   .debug_str:0000000000000d05 .LASF43
     /tmp/ccZTy7Y8.s:5080   .debug_str:000000000000081e .LASF45
     /tmp/ccZTy7Y8.s:4984   .debug_str:000000000000053f .LASF46
     /tmp/ccZTy7Y8.s:4820   .debug_str:0000000000000091 .LASF47
     /tmp/ccZTy7Y8.s:5246   .debug_str:0000000000000d6d .LASF48
     /tmp/ccZTy7Y8.s:4936   .debug_str:000000000000040f .LASF50
     /tmp/ccZTy7Y8.s:5024   .debug_str:0000000000000652 .LASF52
     /tmp/ccZTy7Y8.s:5122   .debug_str:0000000000000951 .LASF53
     /tmp/ccZTy7Y8.s:4896   .debug_str:00000000000002cc .LASF54
     /tmp/ccZTy7Y8.s:4950   .debug_str:000000000000046d .LASF55
     /tmp/ccZTy7Y8.s:5212   .debug_str:0000000000000c8d .LASF56
     /tmp/ccZTy7Y8.s:4980   .debug_str:0000000000000530 .LASF60
     /tmp/ccZTy7Y8.s:5190   .debug_str:0000000000000bff .LASF62
     /tmp/ccZTy7Y8.s:5098   .debug_str:00000000000008a1 .LASF57
     /tmp/ccZTy7Y8.s:5036   .debug_str:00000000000006bf .LASF59
     /tmp/ccZTy7Y8.s:5070   .debug_str:00000000000007b2 .LASF61
     /tmp/ccZTy7Y8.s:5074   .debug_str:00000000000007c1 .LASF63
     /tmp/ccZTy7Y8.s:5022   .debug_str:000000000000064b .LASF64
     /tmp/ccZTy7Y8.s:4968   .debug_str:00000000000004e1 .LASF65
     /tmp/ccZTy7Y8.s:5012   .debug_str:000000000000060d .LASF66
     /tmp/ccZTy7Y8.s:5176   .debug_str:0000000000000b86 .LASF67
     /tmp/ccZTy7Y8.s:5016   .debug_str:0000000000000628 .LASF68
     /tmp/ccZTy7Y8.s:5034   .debug_str:00000000000006ab .LASF69
     /tmp/ccZTy7Y8.s:5142   .debug_str:00000000000009db .LASF70
     /tmp/ccZTy7Y8.s:5118   .debug_str:0000000000000937 .LASF71
     /tmp/ccZTy7Y8.s:5120   .debug_str:000000000000094a .LASF72
     /tmp/ccZTy7Y8.s:4852   .debug_str:0000000000000169 .LASF73
     /tmp/ccZTy7Y8.s:4890   .debug_str:00000000000002a3 .LASF74
     /tmp/ccZTy7Y8.s:4940   .debug_str:0000000000000432 .LASF75
     /tmp/ccZTy7Y8.s:4952   .debug_str:000000000000047a .LASF76
     /tmp/ccZTy7Y8.s:4876   .debug_str:0000000000000251 .LASF77
     /tmp/ccZTy7Y8.s:4816   .debug_str:0000000000000073 .LASF78
     /tmp/ccZTy7Y8.s:5106   .debug_str:00000000000008cd .LASF79
     /tmp/ccZTy7Y8.s:5100   .debug_str:00000000000008aa .LASF80
     /tmp/ccZTy7Y8.s:5270   .debug_str:0000000000000e3a .LASF81
     /tmp/ccZTy7Y8.s:5232   .debug_str:0000000000000d0b .LASF82
     /tmp/ccZTy7Y8.s:5248   .debug_str:0000000000000d76 .LASF83
     /tmp/ccZTy7Y8.s:5224   .debug_str:0000000000000cdd .LASF84
     /tmp/ccZTy7Y8.s:5002   .debug_str:0000000000000599 .LASF85
     /tmp/ccZTy7Y8.s:5182   .debug_str:0000000000000bcf .LASF87
     /tmp/ccZTy7Y8.s:4868   .debug_str:000000000000020a .LASF89
     /tmp/ccZTy7Y8.s:5222   .debug_str:0000000000000cd4 .LASF90
     /tmp/ccZTy7Y8.s:5130   .debug_str:0000000000000993 .LASF91
     /tmp/ccZTy7Y8.s:5072   .debug_str:00000000000007b9 .LASF92
     /tmp/ccZTy7Y8.s:4874   .debug_str:000000000000024a .LASF93
     /tmp/ccZTy7Y8.s:4800   .debug_str:0000000000000000 .LASF94
     /tmp/ccZTy7Y8.s:4920   .debug_str:000000000000037e .LASF95
     /tmp/ccZTy7Y8.s:4972   .debug_str:0000000000000504 .LASF96
     /tmp/ccZTy7Y8.s:4838   .debug_str:0000000000000112 .LASF97
     /tmp/ccZTy7Y8.s:5156   .debug_str:0000000000000a51 .LASF159
     /tmp/ccZTy7Y8.s:4850   .debug_str:000000000000015f .LASF98
     /tmp/ccZTy7Y8.s:4930   .debug_str:00000000000003cd .LASF99
     /tmp/ccZTy7Y8.s:5082   .debug_str:0000000000000829 .LASF104
GAS LISTING /tmp/ccZTy7Y8.s 			page 36


     /tmp/ccZTy7Y8.s:4992   .debug_str:000000000000055e .LASF106
     /tmp/ccZTy7Y8.s:5174   .debug_str:0000000000000b79 .LASF100
     /tmp/ccZTy7Y8.s:5238   .debug_str:0000000000000d2a .LASF101
     /tmp/ccZTy7Y8.s:5042   .debug_str:00000000000006fd .LASF236
     /tmp/ccZTy7Y8.s:5260   .debug_str:0000000000000dec .LASF102
     /tmp/ccZTy7Y8.s:4962   .debug_str:00000000000004b2 .LASF103
     /tmp/ccZTy7Y8.s:5000   .debug_str:000000000000058c .LASF105
     /tmp/ccZTy7Y8.s:5078   .debug_str:0000000000000806 .LASF107
     /tmp/ccZTy7Y8.s:4880   .debug_str:000000000000026c .LASF108
     /tmp/ccZTy7Y8.s:5110   .debug_str:00000000000008f5 .LASF109
     /tmp/ccZTy7Y8.s:5196   .debug_str:0000000000000c41 .LASF110
     /tmp/ccZTy7Y8.s:4906   .debug_str:0000000000000331 .LASF111
     /tmp/ccZTy7Y8.s:5274   .debug_str:0000000000000e5f .LASF112
     /tmp/ccZTy7Y8.s:4902   .debug_str:0000000000000309 .LASF113
     /tmp/ccZTy7Y8.s:4982   .debug_str:0000000000000539 .LASF114
     /tmp/ccZTy7Y8.s:5096   .debug_str:0000000000000891 .LASF115
     /tmp/ccZTy7Y8.s:4882   .debug_str:0000000000000279 .LASF116
     /tmp/ccZTy7Y8.s:4854   .debug_str:000000000000017c .LASF117
     /tmp/ccZTy7Y8.s:4986   .debug_str:0000000000000548 .LASF118
     /tmp/ccZTy7Y8.s:4822   .debug_str:000000000000009a .LASF119
     /tmp/ccZTy7Y8.s:5168   .debug_str:0000000000000a9d .LASF120
     /tmp/ccZTy7Y8.s:4840   .debug_str:000000000000011b .LASF121
     /tmp/ccZTy7Y8.s:5272   .debug_str:0000000000000e52 .LASF122
     /tmp/ccZTy7Y8.s:4924   .debug_str:000000000000039e .LASF123
     /tmp/ccZTy7Y8.s:4806   .debug_str:000000000000001e .LASF124
     /tmp/ccZTy7Y8.s:5032   .debug_str:000000000000069e .LASF125
     /tmp/ccZTy7Y8.s:5188   .debug_str:0000000000000bf7 .LASF126
     /tmp/ccZTy7Y8.s:4842   .debug_str:000000000000012c .LASF127
     /tmp/ccZTy7Y8.s:5266   .debug_str:0000000000000e13 .LASF128
     /tmp/ccZTy7Y8.s:5200   .debug_str:0000000000000c51 .LASF129
     /tmp/ccZTy7Y8.s:5178   .debug_str:0000000000000b9a .LASF130
     /tmp/ccZTy7Y8.s:5170   .debug_str:0000000000000aa5 .LASF131
     /tmp/ccZTy7Y8.s:5046   .debug_str:000000000000070a .LASF132
     /tmp/ccZTy7Y8.s:4804   .debug_str:0000000000000011 .LASF133
     /tmp/ccZTy7Y8.s:5112   .debug_str:000000000000090d .LASF134
     /tmp/ccZTy7Y8.s:5218   .debug_str:0000000000000cc8 .LASF135
     /tmp/ccZTy7Y8.s:5258   .debug_str:0000000000000dd6 .LASF186
     /tmp/ccZTy7Y8.s:4870   .debug_str:0000000000000222 .LASF164
     /tmp/ccZTy7Y8.s:4810   .debug_str:0000000000000036 .LASF165
     /tmp/ccZTy7Y8.s:4918   .debug_str:0000000000000378 .LASF136
     /tmp/ccZTy7Y8.s:5134   .debug_str:00000000000009b6 .LASF137
     /tmp/ccZTy7Y8.s:5162   .debug_str:0000000000000a73 .LASF138
     /tmp/ccZTy7Y8.s:5030   .debug_str:000000000000068b .LASF139
     /tmp/ccZTy7Y8.s:4884   .debug_str:0000000000000282 .LASF140
     /tmp/ccZTy7Y8.s:5108   .debug_str:00000000000008e5 .LASF141
     /tmp/ccZTy7Y8.s:5150   .debug_str:0000000000000a30 .LASF142
     /tmp/ccZTy7Y8.s:4834   .debug_str:00000000000000f7 .LASF143
     /tmp/ccZTy7Y8.s:4878   .debug_str:0000000000000263 .LASF144
     /tmp/ccZTy7Y8.s:5020   .debug_str:0000000000000635 .LASF145
     /tmp/ccZTy7Y8.s:4892   .debug_str:00000000000002a9 .LASF146
     /tmp/ccZTy7Y8.s:4812   .debug_str:000000000000005e .LASF147
     /tmp/ccZTy7Y8.s:4944   .debug_str:0000000000000450 .LASF148
     /tmp/ccZTy7Y8.s:5164   .debug_str:0000000000000a7b .LASF149
     /tmp/ccZTy7Y8.s:4808   .debug_str:000000000000002e .LASF150
     /tmp/ccZTy7Y8.s:4818   .debug_str:000000000000007e .LASF151
     /tmp/ccZTy7Y8.s:5234   .debug_str:0000000000000d15 .LASF152
     /tmp/ccZTy7Y8.s:5194   .debug_str:0000000000000c31 .LASF153
GAS LISTING /tmp/ccZTy7Y8.s 			page 37


     /tmp/ccZTy7Y8.s:5104   .debug_str:00000000000008c3 .LASF154
     /tmp/ccZTy7Y8.s:4970   .debug_str:00000000000004f4 .LASF155
     /tmp/ccZTy7Y8.s:5064   .debug_str:0000000000000791 .LASF156
     /tmp/ccZTy7Y8.s:5208   .debug_str:0000000000000c79 .LASF157
     /tmp/ccZTy7Y8.s:5026   .debug_str:000000000000066a .LASF158
     /tmp/ccZTy7Y8.s:5220   .debug_str:0000000000000ccf .LASF160
     /tmp/ccZTy7Y8.s:5184   .debug_str:0000000000000bda .LASF161
     /tmp/ccZTy7Y8.s:4858   .debug_str:0000000000000199 .LASF162
     /tmp/ccZTy7Y8.s:4872   .debug_str:0000000000000230 .LASF163
     /tmp/ccZTy7Y8.s:4864   .debug_str:00000000000001da .LASF166
     /tmp/ccZTy7Y8.s:4914   .debug_str:0000000000000362 .LASF167
     /tmp/ccZTy7Y8.s:5008   .debug_str:00000000000005e9 .LASF168
     /tmp/ccZTy7Y8.s:4824   .debug_str:00000000000000ac .LASF169
     /tmp/ccZTy7Y8.s:4922   .debug_str:0000000000000386 .LASF170
     /tmp/ccZTy7Y8.s:5186   .debug_str:0000000000000bdf .LASF237
     /tmp/ccZTy7Y8.s:5158   .debug_str:0000000000000a59 .LASF171
     /tmp/ccZTy7Y8.s:5116   .debug_str:0000000000000922 .LASF172
     /tmp/ccZTy7Y8.s:4954   .debug_str:0000000000000480 .LASF173
     /tmp/ccZTy7Y8.s:4900   .debug_str:00000000000002ed .LASF174
     /tmp/ccZTy7Y8.s:5226   .debug_str:0000000000000ce7 .LASF175
     /tmp/ccZTy7Y8.s:5010   .debug_str:00000000000005ee .LASF176
     /tmp/ccZTy7Y8.s:4836   .debug_str:0000000000000109 .LASF177
     /tmp/ccZTy7Y8.s:5214   .debug_str:0000000000000ca7 .LASF178
     /tmp/ccZTy7Y8.s:4866   .debug_str:00000000000001f5 .LASF179
     /tmp/ccZTy7Y8.s:5228   .debug_str:0000000000000cef .LASF180
     /tmp/ccZTy7Y8.s:4964   .debug_str:00000000000004c4 .LASF181
     /tmp/ccZTy7Y8.s:5140   .debug_str:00000000000009d6 .LASF182
     /tmp/ccZTy7Y8.s:5018   .debug_str:0000000000000630 .LASF183
     /tmp/ccZTy7Y8.s:5264   .debug_str:0000000000000e06 .LASF184
     /tmp/ccZTy7Y8.s:5254   .debug_str:0000000000000dba .LASF185
     /tmp/ccZTy7Y8.s:4938   .debug_str:000000000000041a .LASF187
     /tmp/ccZTy7Y8.s:5262   .debug_str:0000000000000df2 .LASF238
     /tmp/ccZTy7Y8.s:4932   .debug_str:00000000000003f2 .LASF188
     /tmp/ccZTy7Y8.s:5088   .debug_str:0000000000000840 .LASF189
     /tmp/ccZTy7Y8.s:4830   .debug_str:00000000000000df .LASF190
     /tmp/ccZTy7Y8.s:5268   .debug_str:0000000000000e19 .LASF191
     /tmp/ccZTy7Y8.s:4988   .debug_str:0000000000000550 .LASF192
     /tmp/ccZTy7Y8.s:5154   .debug_str:0000000000000a3c .LASF193
     /tmp/ccZTy7Y8.s:4990   .debug_str:0000000000000555 .LASF194
     /tmp/ccZTy7Y8.s:5126   .debug_str:000000000000097d .LASF195
     /tmp/ccZTy7Y8.s:5028   .debug_str:0000000000000676 .LASF196
     /tmp/ccZTy7Y8.s:5056   .debug_str:0000000000000770 .LASF197
     /tmp/ccZTy7Y8.s:5278   .debug_str:0000000000000e7e .LASF198
     /tmp/ccZTy7Y8.s:5166   .debug_str:0000000000000a8c .LASF199
     /tmp/ccZTy7Y8.s:5148   .debug_str:0000000000000a23 .LASF200
     /tmp/ccZTy7Y8.s:5192   .debug_str:0000000000000c14 .LASF201
     /tmp/ccZTy7Y8.s:5204   .debug_str:0000000000000c62 .LASF202
     /tmp/ccZTy7Y8.s:5250   .debug_str:0000000000000d8c .LASF203
     /tmp/ccZTy7Y8.s:4958   .debug_str:0000000000000492 .LASF204
     /tmp/ccZTy7Y8.s:5050   .debug_str:0000000000000726 .LASF205
     /tmp/ccZTy7Y8.s:4934   .debug_str:0000000000000402 .LASF206
     /tmp/ccZTy7Y8.s:5094   .debug_str:0000000000000874 .LASF207
     /tmp/ccZTy7Y8.s:5138   .debug_str:00000000000009c2 .LASF208
     /tmp/ccZTy7Y8.s:4926   .debug_str:00000000000003aa .LASF209
     /tmp/ccZTy7Y8.s:4912   .debug_str:0000000000000354 .LASF210
     /tmp/ccZTy7Y8.s:5160   .debug_str:0000000000000a66 .LASF211
     /tmp/ccZTy7Y8.s:4802   .debug_str:0000000000000008 .LASF239
GAS LISTING /tmp/ccZTy7Y8.s 			page 38


     /tmp/ccZTy7Y8.s:5202   .debug_str:0000000000000c56 .LASF212
     /tmp/ccZTy7Y8.s:4888   .debug_str:0000000000000296 .LASF213
     /tmp/ccZTy7Y8.s:4948   .debug_str:0000000000000463 .LASF214
     /tmp/ccZTy7Y8.s:5066   .debug_str:0000000000000799 .LASF215
     /tmp/ccZTy7Y8.s:4978   .debug_str:0000000000000525 .LASF216
     /tmp/ccZTy7Y8.s:5038   .debug_str:00000000000006d4 .LASF217
     /tmp/ccZTy7Y8.s:5128   .debug_str:0000000000000983 .LASF218
     /tmp/ccZTy7Y8.s:5152   .debug_str:0000000000000a37 .LASF219
     /tmp/ccZTy7Y8.s:5276   .debug_str:0000000000000e6d .LASF220
     /tmp/ccZTy7Y8.s:30     .text:0000000000000000 .LFB49
     /tmp/ccZTy7Y8.s:931    .text:0000000000000588 .LFE49
     /tmp/ccZTy7Y8.s:5136   .debug_str:00000000000009bb .LASF221
     /tmp/ccZTy7Y8.s:4293   .debug_loc:0000000000000000 .LLST0
     /tmp/ccZTy7Y8.s:5206   .debug_str:0000000000000c74 .LASF222
     /tmp/ccZTy7Y8.s:4324   .debug_loc:0000000000000087 .LLST1
     /tmp/ccZTy7Y8.s:5236   .debug_str:0000000000000d22 .LASF223
     /tmp/ccZTy7Y8.s:4355   .debug_loc:000000000000010e .LLST2
     /tmp/ccZTy7Y8.s:4377   .debug_loc:000000000000016e .LLST3
     /tmp/ccZTy7Y8.s:4399   .debug_loc:00000000000001ce .LLST4
     /tmp/ccZTy7Y8.s:4421   .debug_loc:000000000000022f .LLST5
     /tmp/ccZTy7Y8.s:4443   .debug_loc:0000000000000290 .LLST6
     /tmp/ccZTy7Y8.s:4465   .debug_loc:00000000000002f1 .LLST7
     /tmp/ccZTy7Y8.s:4487   .debug_loc:0000000000000352 .LLST8
     /tmp/ccZTy7Y8.s:4509   .debug_loc:00000000000003b3 .LLST9
     /tmp/ccZTy7Y8.s:4531   .debug_loc:0000000000000414 .LLST10
     /tmp/ccZTy7Y8.s:738    .text:00000000000003f8 .LBB5
     /tmp/ccZTy7Y8.s:807    .text:000000000000048c .LBE5
     /tmp/ccZTy7Y8.s:4724   .debug_loc:000000000000076d .LLST11
     /tmp/ccZTy7Y8.s:742    .text:0000000000000400 .LVL68
     /tmp/ccZTy7Y8.s:768    .text:0000000000000448 .LVL71
     /tmp/ccZTy7Y8.s:777    .text:000000000000045c .LVL74
     /tmp/ccZTy7Y8.s:785    .text:0000000000000470 .LVL75
     /tmp/ccZTy7Y8.s:806    .text:000000000000048c .LVL76
     /tmp/ccZTy7Y8.s:281    .text:0000000000000128 .LVL21
     /tmp/ccZTy7Y8.s:299    .text:0000000000000140 .LVL23
     /tmp/ccZTy7Y8.s:324    .text:000000000000016c .LVL25
     /tmp/ccZTy7Y8.s:334    .text:0000000000000188 .LVL26
     /tmp/ccZTy7Y8.s:377    .text:00000000000001c4 .LVL28
     /tmp/ccZTy7Y8.s:381    .text:00000000000001cc .LVL29
     /tmp/ccZTy7Y8.s:385    .text:00000000000001d4 .LVL30
     /tmp/ccZTy7Y8.s:394    .text:00000000000001e0 .LVL32
     /tmp/ccZTy7Y8.s:405    .text:00000000000001f4 .LVL34
     /tmp/ccZTy7Y8.s:409    .text:00000000000001fc .LVL35
     /tmp/ccZTy7Y8.s:424    .text:0000000000000218 .LVL37
     /tmp/ccZTy7Y8.s:468    .text:0000000000000250 .LVL39
     /tmp/ccZTy7Y8.s:486    .text:0000000000000268 .LVL41
     /tmp/ccZTy7Y8.s:504    .text:0000000000000280 .LVL43
     /tmp/ccZTy7Y8.s:554    .text:00000000000002c4 .LVL45
     /tmp/ccZTy7Y8.s:558    .text:00000000000002cc .LVL46
     /tmp/ccZTy7Y8.s:567    .text:00000000000002d8 .LVL48
     /tmp/ccZTy7Y8.s:586    .text:00000000000002f4 .LVL50
     /tmp/ccZTy7Y8.s:604    .text:000000000000031c .LVL52
     /tmp/ccZTy7Y8.s:648    .text:0000000000000354 .LVL54
     /tmp/ccZTy7Y8.s:658    .text:0000000000000364 .LVL56
     /tmp/ccZTy7Y8.s:668    .text:0000000000000378 .LVL58
     /tmp/ccZTy7Y8.s:673    .text:0000000000000384 .LVL59
     /tmp/ccZTy7Y8.s:678    .text:0000000000000394 .LVL60
GAS LISTING /tmp/ccZTy7Y8.s 			page 39


     /tmp/ccZTy7Y8.s:683    .text:00000000000003a0 .LVL61
     /tmp/ccZTy7Y8.s:688    .text:00000000000003b0 .LVL62
     /tmp/ccZTy7Y8.s:693    .text:00000000000003bc .LVL63
     /tmp/ccZTy7Y8.s:827    .text:00000000000004ac .LVL78
     /tmp/ccZTy7Y8.s:841    .text:00000000000004e0 .LVL79
     /tmp/ccZTy7Y8.s:854    .text:0000000000000508 .LVL80
     /tmp/ccZTy7Y8.s:876    .text:0000000000000524 .LVL81
     /tmp/ccZTy7Y8.s:891    .text:0000000000000538 .LVL83
     /tmp/ccZTy7Y8.s:896    .text:0000000000000548 .LVL84
     /tmp/ccZTy7Y8.s:901    .text:0000000000000554 .LVL85
     /tmp/ccZTy7Y8.s:906    .text:0000000000000564 .LVL86
     /tmp/ccZTy7Y8.s:911    .text:0000000000000570 .LVL87
     /tmp/ccZTy7Y8.s:1000   .text._ZN3TCB12getTimeSliceEv:0000000000000000 .LFB34
     /tmp/ccZTy7Y8.s:1021   .text._ZN3TCB12getTimeSliceEv:000000000000001c .LFE34
     /tmp/ccZTy7Y8.s:4908   .debug_str:0000000000000349 .LASF224
     /tmp/ccZTy7Y8.s:4753   .debug_loc:00000000000007f1 .LLST12
     /tmp/ccZTy7Y8.s:971    .text._ZN3TCB9setStatusENS_12ThreadStatusE:0000000000000000 .LFB32
     /tmp/ccZTy7Y8.s:993    .text._ZN3TCB9setStatusENS_12ThreadStatusE:000000000000001c .LFE32
     /tmp/ccZTy7Y8.s:5244   .debug_str:0000000000000d68 .LASF225
     /tmp/ccZTy7Y8.s:938    .text._ZN5Riscv6mc_sipEm:0000000000000000 .LFB10
     /tmp/ccZTy7Y8.s:964    .text._ZN5Riscv6mc_sipEm:000000000000001c .LFE10
     /tmp/ccZTy7Y8.s:5216   .debug_str:0000000000000cc3 .LASF226
     /tmp/ccZTy7Y8.s:4994   .debug_str:0000000000000572 .LASF227
     /tmp/ccZTy7Y8.s:4860   .debug_str:00000000000001b7 .LASF228
     /tmp/ccZTy7Y8.s:5252   .debug_str:0000000000000dae .LASF229
     /tmp/ccZTy7Y8.s:5058   .debug_str:0000000000000776 .LASF230
     /tmp/ccZTy7Y8.s:5006   .debug_str:00000000000005db .LASF231
     /tmp/ccZTy7Y8.s:4856   .debug_str:000000000000018f .LASF232
     /tmp/ccZTy7Y8.s:53     .text:000000000000001c .LVL0
     /tmp/ccZTy7Y8.s:60     .text:0000000000000020 .LVL1
     /tmp/ccZTy7Y8.s:726    .text:00000000000003e4 .LVL66
     /tmp/ccZTy7Y8.s:733    .text:00000000000003e8 .LVL67
     /tmp/ccZTy7Y8.s:923    .text:000000000000057c .LVL88
     /tmp/ccZTy7Y8.s:928    .text:0000000000000584 .LVL89
     /tmp/ccZTy7Y8.s:63     .text:0000000000000024 .LVL2
     /tmp/ccZTy7Y8.s:70     .text:0000000000000028 .LVL3
     /tmp/ccZTy7Y8.s:705    .text:00000000000003d0 .LVL64
     /tmp/ccZTy7Y8.s:717    .text:00000000000003dc .LVL65
     /tmp/ccZTy7Y8.s:73     .text:000000000000002c .LVL4
     /tmp/ccZTy7Y8.s:81     .text:0000000000000030 .LVL5
     /tmp/ccZTy7Y8.s:84     .text:0000000000000034 .LVL6
     /tmp/ccZTy7Y8.s:91     .text:0000000000000038 .LVL7
     /tmp/ccZTy7Y8.s:94     .text:000000000000003c .LVL8
     /tmp/ccZTy7Y8.s:101    .text:0000000000000040 .LVL9
     /tmp/ccZTy7Y8.s:104    .text:0000000000000044 .LVL10
     /tmp/ccZTy7Y8.s:111    .text:0000000000000048 .LVL11
     /tmp/ccZTy7Y8.s:114    .text:000000000000004c .LVL12
     /tmp/ccZTy7Y8.s:121    .text:0000000000000050 .LVL13
     /tmp/ccZTy7Y8.s:124    .text:0000000000000054 .LVL14
     /tmp/ccZTy7Y8.s:131    .text:0000000000000058 .LVL15
     /tmp/ccZTy7Y8.s:134    .text:000000000000005c .LVL16
     /tmp/ccZTy7Y8.s:141    .text:0000000000000060 .LVL17
     /tmp/ccZTy7Y8.s:144    .text:0000000000000064 .LVL18
     /tmp/ccZTy7Y8.s:151    .text:0000000000000068 .LVL19
     /tmp/ccZTy7Y8.s:154    .text:000000000000006c .LVL20
     /tmp/ccZTy7Y8.s:291    .text:0000000000000130 .LVL22
     /tmp/ccZTy7Y8.s:309    .text:0000000000000148 .LVL24
GAS LISTING /tmp/ccZTy7Y8.s 			page 40


     /tmp/ccZTy7Y8.s:367    .text:00000000000001a8 .LVL27
     /tmp/ccZTy7Y8.s:388    .text:00000000000001d8 .LVL31
     /tmp/ccZTy7Y8.s:397    .text:00000000000001e4 .LVL33
     /tmp/ccZTy7Y8.s:412    .text:0000000000000200 .LVL36
     /tmp/ccZTy7Y8.s:460    .text:0000000000000240 .LVL38
     /tmp/ccZTy7Y8.s:478    .text:0000000000000258 .LVL40
     /tmp/ccZTy7Y8.s:496    .text:0000000000000270 .LVL42
     /tmp/ccZTy7Y8.s:514    .text:0000000000000288 .LVL44
     /tmp/ccZTy7Y8.s:561    .text:00000000000002d0 .LVL47
     /tmp/ccZTy7Y8.s:577    .text:00000000000002e0 .LVL49
     /tmp/ccZTy7Y8.s:589    .text:00000000000002f8 .LVL51
     /tmp/ccZTy7Y8.s:640    .text:0000000000000344 .LVL53
     /tmp/ccZTy7Y8.s:651    .text:0000000000000358 .LVL55
     /tmp/ccZTy7Y8.s:661    .text:0000000000000368 .LVL57
     /tmp/ccZTy7Y8.s:813    .text:0000000000000490 .LVL77
     /tmp/ccZTy7Y8.s:882    .text:0000000000000528 .LVL82
     /tmp/ccZTy7Y8.s:746    .text:0000000000000408 .LVL69
     /tmp/ccZTy7Y8.s:766    .text:0000000000000440 .LVL70
     /tmp/ccZTy7Y8.s:770    .text:000000000000044c .LVL72
     /tmp/ccZTy7Y8.s:775    .text:0000000000000454 .LVL73
     /tmp/ccZTy7Y8.s:1003   .text._ZN3TCB12getTimeSliceEv:0000000000000000 .LVL92
     /tmp/ccZTy7Y8.s:1013   .text._ZN3TCB12getTimeSliceEv:0000000000000010 .LVL93
     /tmp/ccZTy7Y8.s:1035   .debug_info:0000000000000000 .Ldebug_info0
     /tmp/ccZTy7Y8.s:5      .text:0000000000000000 .Ltext0
     /tmp/ccZTy7Y8.s:1024   .text:0000000000000588 .Letext0

UNDEFINED SYMBOLS
_ZN15MemoryAllocator7kmallocEmNS_7PurposeE
_ZN15MemoryAllocator5kfreeEPv
_ZN3TCB12createThreadEPFvPvES0_Pm
_ZN3TCB5startEPS_
_ZN3TCB7runningE
_ZN3TCB13releaseJoinedEv
_ZN3TCB5yieldEv
_ZN3TCB10threadJoinEPS_
_ZN4KSem7initSemEj
_ZN4KSem8closeSemEPS_
_ZN4KSem4waitEv
_ZN4KSem6signalEv
_ZN9Scheduler10putToSleepEP3TCBm
_ZN8KConsole5kgetcEv
_ZN8KConsole5kputcEc
_ZN9Scheduler3putEP3TCB
_Z9kPrintIntm
_Z11printStringPKc
plic_claim
_ZN8KConsole2srE
_ZN8KConsole2drE
_ZN8KConsole12placeInInputEc
plic_complete
_ZN9Scheduler4wakeEv
_ZN3TCB16runningTimeSliceE
