GAS LISTING /tmp/ccUjdNV5.s 			page 1


   1              		.file	"interruptRoutine.cpp"
   2              		.option pic
   3              		.option norelax
   4              		.text
   5              	.Ltext0:
   6              		.section	.rodata
   7              		.align	3
   8              	.LC0:
   9 0000 0A4E6570 		.string	"\nNepostojeci op code: "
   9      6F73746F 
   9      6A656369 
   9      206F7020 
   9      636F6465 
  10 0017 00       		.align	3
  11              	.LC1:
  12 0018 0A736361 		.string	"\nscause: "
  12      7573653A 
  12      2000
  13 0022 00000000 		.align	3
  13      0000
  14              	.LC2:
  15 0028 0A736570 		.string	"\nsepc: "
  15      633A2000 
  16              		.align	3
  17              	.LC3:
  18 0030 0A727820 		.string	"\nrx grana\n"
  18      6772616E 
  18      610A00
  19 003b 00000000 		.align	3
  19      00
  20              	.LC4:
  21 0040 0A6E6973 		.string	"\nnista\n"
  21      74610A00 
  22              		.align	3
  23              	.LC5:
  24 0048 4E656B69 		.string	"Neki drugi prekid\n"
  24      20647275 
  24      67692070 
  24      72656B69 
  24      640A00
  25 005b 00000000 		.align	3
  25      00
  26              	.LC6:
  27 0060 0A477265 		.string	"\nGreska u prekidnoj rutini\n"
  27      736B6120 
  27      75207072 
  27      656B6964 
  27      6E6F6A20 
  28 007c 00000000 		.align	3
  29              	.LC7:
  30 0080 73636175 		.string	"scause: "
  30      73653A20 
  30      00
  31              		.text
  32              		.align	2
  33              		.globl	interruptRoutine
  35              	interruptRoutine:
GAS LISTING /tmp/ccUjdNV5.s 			page 2


  36              	.LFB51:
  37              		.file 1 "src/interruptRoutine.cpp"
   1:src/interruptRoutine.cpp **** //
   2:src/interruptRoutine.cpp **** // Created by os on 5/22/23.
   3:src/interruptRoutine.cpp **** //
   4:src/interruptRoutine.cpp **** 
   5:src/interruptRoutine.cpp **** #include "../lib/console.h"
   6:src/interruptRoutine.cpp **** #include "../lib/hw.h"
   7:src/interruptRoutine.cpp **** #include "../h/MemoryAllocator.hpp"
   8:src/interruptRoutine.cpp **** #include "../h/helper.hpp"
   9:src/interruptRoutine.cpp **** #include "../h/Riscv.hpp"
  10:src/interruptRoutine.cpp **** #include "../h/syscall_c.hpp"
  11:src/interruptRoutine.cpp **** #include "../h/TCB.hpp"
  12:src/interruptRoutine.cpp **** #include "../h/Scheduler.hpp"
  13:src/interruptRoutine.cpp **** #include "../h/KSem.hpp"
  14:src/interruptRoutine.cpp **** #include "../h/KConsole.hpp"
  15:src/interruptRoutine.cpp **** 
  16:src/interruptRoutine.cpp **** #include "../test/printing.hpp"
  17:src/interruptRoutine.cpp **** 
  18:src/interruptRoutine.cpp **** //void printInteger(int i);
  19:src/interruptRoutine.cpp **** 
  20:src/interruptRoutine.cpp **** #pragma GCC optimize("O0")
  21:src/interruptRoutine.cpp **** extern "C" void interruptRoutine() {
  38              		.loc 1 21 36
  39              		.cfi_startproc
  40 0000 130101EC 		addi	sp,sp,-320
  41              		.cfi_def_cfa_offset 320
  42 0004 233C1112 		sd	ra,312(sp)
  43 0008 23388112 		sd	s0,304(sp)
  44              		.cfi_offset 1, -8
  45              		.cfi_offset 8, -16
  46 000c 13040114 		addi	s0,sp,320
  47              		.cfi_def_cfa 8, 0
  22:src/interruptRoutine.cpp **** 	uint64 scause, sepc, sstatus;
  48              		.loc 1 22 2
  23:src/interruptRoutine.cpp **** 	__asm__ volatile("csrr %[scause], scause":[scause] "=r"(scause): : "a5", "a0", "a1", "a2", "a3", "
  49              		.loc 1 23 2
  50              		.loc 1 23 116 is_stmt 0
  51              	#APP
  52              	# 23 "src/interruptRoutine.cpp" 1
  24              		__asm__ volatile("csrr %[sepc], sepc":[sepc] "=r"(sepc): : "a5", "a0", "a1", "a2", "a3", "a4", "a6
  53              		csrr t1, scause
  54              	# 0 "" 2
  55              	#NO_APP
  56 0014 233C64FC 		sd	t1,-40(s0)
  57              	.LVL0:
  58              		.loc 1 24 2 is_stmt 1
  59              		.loc 1 24 108 is_stmt 0
  60              	#APP
  61              	# 24 "src/interruptRoutine.cpp" 1
  25              		__asm__ volatile("csrr %[status], sstatus":[status] "=r"(
  62              		csrr t1, sepc
  63              	# 0 "" 2
  64              	.LVL1:
  65              	#NO_APP
  66 001c 233864FC 		sd	t1,-48(s0)
  67              	.LVL2:
GAS LISTING /tmp/ccUjdNV5.s 			page 3


  68              		.loc 1 25 2 is_stmt 1
  26:src/interruptRoutine.cpp **** 			sstatus): : "a5", "a0", "a1", "a2", "a3", "a4", "a6", "a7");
  69              		.loc 1 26 63 is_stmt 0
  70              	#APP
  71              	# 26 "src/interruptRoutine.cpp" 1
  27              		uint64 a0, a1, a2, a3, a4, a5, a6, a7;
  72              		csrr t1, sstatus
  73              	# 0 "" 2
  74              	.LVL3:
  75              	#NO_APP
  76 0024 233464FC 		sd	t1,-56(s0)
  77              	.LVL4:
  78              		.loc 1 27 2 is_stmt 1
  28:src/interruptRoutine.cpp **** 	__asm__ volatile("mv %[ax], a0":[ax] "=r"(a0): : "a5", "a0", "a1", "a2", "a3", "a4", "a6", "a7");
  79              		.loc 1 28 2
  80              		.loc 1 28 98 is_stmt 0
  81              	#APP
  82              	# 28 "src/interruptRoutine.cpp" 1
  29              		__asm__ volatile("mv %[ax], a1":[ax] "=r"(a1): : "a5", "a0", "a1", "a2", "a3", "a4", "a6", "a7");
  83              		mv t1, a0
  84              	# 0 "" 2
  85              	.LVL5:
  86              	#NO_APP
  87 002c 233064FC 		sd	t1,-64(s0)
  88              	.LVL6:
  89              		.loc 1 29 2 is_stmt 1
  90              		.loc 1 29 98 is_stmt 0
  91              	#APP
  92              	# 29 "src/interruptRoutine.cpp" 1
  30              		__asm__ volatile("mv %[ax], a2":[ax] "=r"(a2): : "a5", "a0", "a1", "a2", "a3", "a4", "a6", "a7");
  93              		mv t1, a1
  94              	# 0 "" 2
  95              	.LVL7:
  96              	#NO_APP
  97 0034 233C64FA 		sd	t1,-72(s0)
  98              	.LVL8:
  99              		.loc 1 30 2 is_stmt 1
 100              		.loc 1 30 98 is_stmt 0
 101              	#APP
 102              	# 30 "src/interruptRoutine.cpp" 1
  31              		__asm__ volatile("mv %[ax], a3":[ax] "=r"(a3): : "a5", "a0", "a1", "a2", "a3", "a4", "a6", "a7");
 103              		mv t1, a2
 104              	# 0 "" 2
 105              	.LVL9:
 106              	#NO_APP
 107 003c 233864FA 		sd	t1,-80(s0)
 108              	.LVL10:
 109              		.loc 1 31 2 is_stmt 1
 110              		.loc 1 31 98 is_stmt 0
 111              	#APP
 112              	# 31 "src/interruptRoutine.cpp" 1
  32              		__asm__ volatile("mv %[ax], a4":[ax] "=r"(a4): : "a5", "a0", "a1", "a2", "a3", "a4", "a6", "a7");
 113              		mv t1, a3
 114              	# 0 "" 2
 115              	.LVL11:
 116              	#NO_APP
 117 0044 233464FA 		sd	t1,-88(s0)
GAS LISTING /tmp/ccUjdNV5.s 			page 4


 118              	.LVL12:
 119              		.loc 1 32 2 is_stmt 1
 120              		.loc 1 32 98 is_stmt 0
 121              	#APP
 122              	# 32 "src/interruptRoutine.cpp" 1
  33              		__asm__ volatile("mv %[ax], a5":[ax] "=r"(a5): : "a5", "a0", "a1", "a2", "a3", "a4", "a6", "a7");
 123              		mv t1, a4
 124              	# 0 "" 2
 125              	.LVL13:
 126              	#NO_APP
 127 004c 233064FA 		sd	t1,-96(s0)
 128              	.LVL14:
 129              		.loc 1 33 2 is_stmt 1
 130              		.loc 1 33 98 is_stmt 0
 131              	#APP
 132              	# 33 "src/interruptRoutine.cpp" 1
  34              		__asm__ volatile("mv %[ax], a6":[ax] "=r"(a6): : "a5", "a0", "a1", "a2", "a3", "a4", "a6", "a7");
 133              		mv t1, a5
 134              	# 0 "" 2
 135              	.LVL15:
 136              	#NO_APP
 137 0054 233C64F8 		sd	t1,-104(s0)
 138              	.LVL16:
 139              		.loc 1 34 2 is_stmt 1
 140              		.loc 1 34 98 is_stmt 0
 141              	#APP
 142              	# 34 "src/interruptRoutine.cpp" 1
  35              		__asm__ volatile("mv %[ax], a7":[ax] "=r"(a7): : "a5", "a0", "a1", "a2", "a3", "a4", "a6", "a7");
 143              		mv t1, a6
 144              	# 0 "" 2
 145              	.LVL17:
 146              	#NO_APP
 147 005c 233864F8 		sd	t1,-112(s0)
 148              	.LVL18:
 149              		.loc 1 35 2 is_stmt 1
 150              		.loc 1 35 98 is_stmt 0
 151              	#APP
 152              	# 35 "src/interruptRoutine.cpp" 1
  36              	
 153              		mv t1, a7
 154              	# 0 "" 2
 155              	.LVL19:
 156              	#NO_APP
 157 0064 233464F8 		sd	t1,-120(s0)
 158              	.LVL20:
  37:src/interruptRoutine.cpp **** 	if (scause == 0x09 || scause == 0x08) {
 159              		.loc 1 37 2 is_stmt 1
 160              	.LBB2:
 161 0068 033784FD 		ld	a4,-40(s0)
 162 006c 93079000 		li	a5,9
 163 0070 6308F700 		beq	a4,a5,.L2
 164              		.loc 1 37 21 is_stmt 0 discriminator 1
 165 0074 033784FD 		ld	a4,-40(s0)
 166 0078 93078000 		li	a5,8
 167 007c 6312F750 		bne	a4,a5,.L3
 168              	.L2:
 169              	.LBB3:
GAS LISTING /tmp/ccUjdNV5.s 			page 5


  38:src/interruptRoutine.cpp **** 		//prekid zbog poziva ecall
  39:src/interruptRoutine.cpp **** 		uint64 opCode = a0;
 170              		.loc 1 39 3 is_stmt 1
 171              		.loc 1 39 10 is_stmt 0
 172 0080 833704FC 		ld	a5,-64(s0)
 173 0084 233CF4F6 		sd	a5,-136(s0)
 174              	.LVL21:
  40:src/interruptRoutine.cpp **** 		switch (opCode) {
 175              		.loc 1 40 3 is_stmt 1
 176              	.LBB4:
 177 0088 033784F7 		ld	a4,-136(s0)
 178 008c 93071009 		li	a5,145
 179              	.LVL22:
 180 0090 6300F738 		beq	a4,a5,.L4
 181 0094 033784F7 		ld	a4,-136(s0)
 182 0098 93071009 		li	a5,145
 183 009c 63EEE744 		bgtu	a4,a5,.L5
 184 00a0 033784F7 		ld	a4,-136(s0)
 185 00a4 93070009 		li	a5,144
 186 00a8 6308F732 		beq	a4,a5,.L6
 187 00ac 033784F7 		ld	a4,-136(s0)
 188 00b0 93070009 		li	a5,144
 189 00b4 63E2E744 		bgtu	a4,a5,.L5
 190 00b8 033784F7 		ld	a4,-136(s0)
 191 00bc 93071008 		li	a5,129
 192 00c0 6300F730 		beq	a4,a5,.L7
 193 00c4 033784F7 		ld	a4,-136(s0)
 194 00c8 93071008 		li	a5,129
 195 00cc 63E6E742 		bgtu	a4,a5,.L5
 196 00d0 033784F7 		ld	a4,-136(s0)
 197 00d4 93072004 		li	a5,66
 198 00d8 63E2E704 		bgtu	a4,a5,.L8
 199 00dc 833784F7 		ld	a5,-136(s0)
 200 00e0 638C0740 		beqz	a5,.L5
 201 00e4 033784F7 		ld	a4,-136(s0)
 202 00e8 93072004 		li	a5,66
 203 00ec 63E6E740 		bgtu	a4,a5,.L5
 204 00f0 833784F7 		ld	a5,-136(s0)
 205 00f4 13972700 		slli	a4,a5,2
 206              	.LVL23:
 207 00f8 97070000 		lla	a5,.L10
 207      93870700 
 208              	.LVL24:
 209 0100 B307F700 		add	a5,a4,a5
 210 0104 83A70700 		lw	a5,0(a5)
 211 0108 1B870700 		sext.w	a4,a5
 212 010c 97070000 		lla	a5,.L10
 212      93870700 
 213 0114 B307F700 		add	a5,a4,a5
 214 0118 67800700 		jr	a5
 215              		.section	.rodata
 216 0089 000000   		.align	2
 217              		.align	2
 218              	.L10:
 219 008c 00000000 		.word	.L5-.L10
 220 0090 00000000 		.word	.L22-.L10
 221 0094 00000000 		.word	.L21-.L10
GAS LISTING /tmp/ccUjdNV5.s 			page 6


 222 0098 00000000 		.word	.L5-.L10
 223 009c 00000000 		.word	.L5-.L10
 224 00a0 00000000 		.word	.L5-.L10
 225 00a4 00000000 		.word	.L5-.L10
 226 00a8 00000000 		.word	.L5-.L10
 227 00ac 00000000 		.word	.L5-.L10
 228 00b0 00000000 		.word	.L5-.L10
 229 00b4 00000000 		.word	.L5-.L10
 230 00b8 00000000 		.word	.L5-.L10
 231 00bc 00000000 		.word	.L5-.L10
 232 00c0 00000000 		.word	.L5-.L10
 233 00c4 00000000 		.word	.L5-.L10
 234 00c8 00000000 		.word	.L5-.L10
 235 00cc 00000000 		.word	.L5-.L10
 236 00d0 00000000 		.word	.L20-.L10
 237 00d4 00000000 		.word	.L19-.L10
 238 00d8 00000000 		.word	.L18-.L10
 239 00dc 00000000 		.word	.L17-.L10
 240 00e0 00000000 		.word	.L5-.L10
 241 00e4 00000000 		.word	.L5-.L10
 242 00e8 00000000 		.word	.L5-.L10
 243 00ec 00000000 		.word	.L5-.L10
 244 00f0 00000000 		.word	.L5-.L10
 245 00f4 00000000 		.word	.L5-.L10
 246 00f8 00000000 		.word	.L5-.L10
 247 00fc 00000000 		.word	.L5-.L10
 248 0100 00000000 		.word	.L5-.L10
 249 0104 00000000 		.word	.L5-.L10
 250 0108 00000000 		.word	.L5-.L10
 251 010c 00000000 		.word	.L5-.L10
 252 0110 00000000 		.word	.L16-.L10
 253 0114 00000000 		.word	.L15-.L10
 254 0118 00000000 		.word	.L14-.L10
 255 011c 00000000 		.word	.L13-.L10
 256 0120 00000000 		.word	.L5-.L10
 257 0124 00000000 		.word	.L5-.L10
 258 0128 00000000 		.word	.L5-.L10
 259 012c 00000000 		.word	.L5-.L10
 260 0130 00000000 		.word	.L5-.L10
 261 0134 00000000 		.word	.L5-.L10
 262 0138 00000000 		.word	.L5-.L10
 263 013c 00000000 		.word	.L5-.L10
 264 0140 00000000 		.word	.L5-.L10
 265 0144 00000000 		.word	.L5-.L10
 266 0148 00000000 		.word	.L5-.L10
 267 014c 00000000 		.word	.L5-.L10
 268 0150 00000000 		.word	.L12-.L10
 269 0154 00000000 		.word	.L5-.L10
 270 0158 00000000 		.word	.L5-.L10
 271 015c 00000000 		.word	.L5-.L10
 272 0160 00000000 		.word	.L5-.L10
 273 0164 00000000 		.word	.L5-.L10
 274 0168 00000000 		.word	.L5-.L10
 275 016c 00000000 		.word	.L5-.L10
 276 0170 00000000 		.word	.L5-.L10
 277 0174 00000000 		.word	.L5-.L10
 278 0178 00000000 		.word	.L5-.L10
GAS LISTING /tmp/ccUjdNV5.s 			page 7


 279 017c 00000000 		.word	.L5-.L10
 280 0180 00000000 		.word	.L5-.L10
 281 0184 00000000 		.word	.L5-.L10
 282 0188 00000000 		.word	.L5-.L10
 283 018c 00000000 		.word	.L5-.L10
 284 0190 00000000 		.word	.L11-.L10
 285 0194 00000000 		.word	.L9-.L10
 286              		.text
 287              	.LVL25:
 288              	.L8:
 289 011c 033784F7 		ld	a4,-136(s0)
 290              	.LVL26:
 291 0120 93070008 		li	a5,128
 292 0124 630EF722 		beq	a4,a5,.L23
 293 0128 6F00003D 		j	.L5
 294              	.L22:
 295              	.LBB5:
  41:src/interruptRoutine.cpp **** 			case 0x01:
 296              		.loc 1 41 4
  42:src/interruptRoutine.cpp **** 				//mem_alloc
  43:src/interruptRoutine.cpp **** 				size_t size;
 297              		.loc 1 43 5
  44:src/interruptRoutine.cpp **** 				size = (size_t)a1;
 298              		.loc 1 44 5
 299              		.loc 1 44 10 is_stmt 0
 300 012c 833784FB 		ld	a5,-72(s0)
 301 0130 2338F4EC 		sd	a5,-304(s0)
 302              	.LVL27:
  45:src/interruptRoutine.cpp **** 				//__asm__ volatile("mv %[size], a1":[size] "=r"(size));
  46:src/interruptRoutine.cpp **** 				size = size * MEM_BLOCK_SIZE;
 303              		.loc 1 46 5 is_stmt 1
 304              		.loc 1 46 10 is_stmt 0
 305 0134 833704ED 		ld	a5,-304(s0)
 306 0138 93976700 		slli	a5,a5,6
 307              	.LVL28:
 308 013c 2338F4EC 		sd	a5,-304(s0)
 309              	.LVL29:
  47:src/interruptRoutine.cpp **** 				MemoryAllocator::kmalloc(size);
 310              		.loc 1 47 5 is_stmt 1
 311              		.loc 1 47 29 is_stmt 0
 312 0140 93053000 		li	a1,3
 313 0144 033504ED 		ld	a0,-304(s0)
 314 0148 97000000 		call	_ZN15MemoryAllocator7kmallocEmNS_7PurposeE@plt
 314      E7800000 
 315              	.LVL30:
  48:src/interruptRoutine.cpp **** 				__asm__ volatile("sd a0, 80(s0)");
 316              		.loc 1 48 5 is_stmt 1
 317              		.loc 1 48 38 is_stmt 0
 318              	#APP
 319              	# 48 "src/interruptRoutine.cpp" 1
  49              					break;
 320              		sd a0, 80(s0)
 321              	# 0 "" 2
 322              		.loc 1 49 5 is_stmt 1
 323              	#NO_APP
 324 0154 6F000041 		j	.L24
 325              	.LVL31:
GAS LISTING /tmp/ccUjdNV5.s 			page 8


 326              	.L21:
  50:src/interruptRoutine.cpp **** 			case 0x02:
 327              		.loc 1 50 4
  51:src/interruptRoutine.cpp **** 				//mem_free
  52:src/interruptRoutine.cpp **** 				void* ptr;
 328              		.loc 1 52 5
  53:src/interruptRoutine.cpp **** 				ptr = (void*)a1;
 329              		.loc 1 53 5
 330              		.loc 1 53 9 is_stmt 0
 331 0158 833784FB 		ld	a5,-72(s0)
 332 015c 233CF4EC 		sd	a5,-296(s0)
 333              	.LVL32:
  54:src/interruptRoutine.cpp **** 				//__asm__ volatile("mv %[ptr], a1" :[ptr]"=r"(ptr));
  55:src/interruptRoutine.cpp **** 				MemoryAllocator::kfree(ptr);
 334              		.loc 1 55 5 is_stmt 1
 335              		.loc 1 55 27 is_stmt 0
 336 0160 033584ED 		ld	a0,-296(s0)
 337 0164 97000000 		call	_ZN15MemoryAllocator5kfreeEPv@plt
 337      E7800000 
 338              	.LVL33:
  56:src/interruptRoutine.cpp **** 				__asm__ volatile("sd a0, 80(s0)");
 339              		.loc 1 56 5 is_stmt 1
 340              		.loc 1 56 38 is_stmt 0
 341              	#APP
 342              	# 56 "src/interruptRoutine.cpp" 1
  57              					break;
 343              		sd a0, 80(s0)
 344              	# 0 "" 2
 345              		.loc 1 57 5 is_stmt 1
 346              	#NO_APP
 347 0170 6F00403F 		j	.L24
 348              	.LVL34:
 349              	.L20:
  58:src/interruptRoutine.cpp **** 			case 0x11:
 350              		.loc 1 58 4
  59:src/interruptRoutine.cpp **** 				//thread_create
  60:src/interruptRoutine.cpp **** 				thread_t* handle;
 351              		.loc 1 60 5
  61:src/interruptRoutine.cpp **** 				handle = (thread_t*)a1;
 352              		.loc 1 61 5
 353              		.loc 1 61 12 is_stmt 0
 354 0174 833784FB 		ld	a5,-72(s0)
 355 0178 233CF4EE 		sd	a5,-264(s0)
 356              	.LVL35:
  62:src/interruptRoutine.cpp **** 				void (* function)(void*);
 357              		.loc 1 62 5 is_stmt 1
  63:src/interruptRoutine.cpp **** 				function = (void (*)(void*))a2;
 358              		.loc 1 63 5
 359              		.loc 1 63 14 is_stmt 0
 360 017c 833704FB 		ld	a5,-80(s0)
 361              	.LVL36:
 362 0180 2338F4EE 		sd	a5,-272(s0)
 363              	.LVL37:
  64:src/interruptRoutine.cpp **** 				void* args;
 364              		.loc 1 64 5 is_stmt 1
  65:src/interruptRoutine.cpp **** 				args = (void*)a3;
 365              		.loc 1 65 5
GAS LISTING /tmp/ccUjdNV5.s 			page 9


 366              		.loc 1 65 10 is_stmt 0
 367 0184 833784FA 		ld	a5,-88(s0)
 368              	.LVL38:
 369 0188 2334F4EE 		sd	a5,-280(s0)
 370              	.LVL39:
  66:src/interruptRoutine.cpp **** 				uint64* sp;
 371              		.loc 1 66 5 is_stmt 1
  67:src/interruptRoutine.cpp **** 				sp = (uint64*)a4;
 372              		.loc 1 67 5
 373              		.loc 1 67 8 is_stmt 0
 374 018c 833704FA 		ld	a5,-96(s0)
 375              	.LVL40:
 376 0190 2330F4EE 		sd	a5,-288(s0)
 377              	.LVL41:
  68:src/interruptRoutine.cpp **** 
  69:src/interruptRoutine.cpp **** 				*handle = TCB::createThread(function, args, sp);
 378              		.loc 1 69 5 is_stmt 1
 379              		.loc 1 69 32 is_stmt 0
 380 0194 033604EE 		ld	a2,-288(s0)
 381 0198 833584EE 		ld	a1,-280(s0)
 382 019c 033504EF 		ld	a0,-272(s0)
 383 01a0 97000000 		call	_ZN3TCB12createThreadEPFvPvES0_Pm@plt
 383      E7800000 
 384              	.LVL42:
 385 01a8 13070500 		mv	a4,a0
 386              		.loc 1 69 13
 387 01ac 833784EF 		ld	a5,-264(s0)
 388 01b0 23B0E700 		sd	a4,0(a5)
  70:src/interruptRoutine.cpp **** 				TCB::start(*handle);
 389              		.loc 1 70 5 is_stmt 1
 390              		.loc 1 70 15 is_stmt 0
 391 01b4 833784EF 		ld	a5,-264(s0)
 392 01b8 83B70700 		ld	a5,0(a5)
 393 01bc 13850700 		mv	a0,a5
 394 01c0 97000000 		call	_ZN3TCB5startEPS_@plt
 394      E7800000 
 395              	.LVL43:
  71:src/interruptRoutine.cpp **** 				if (*handle != nullptr) {
 396              		.loc 1 71 5 is_stmt 1
 397              		.loc 1 71 9 is_stmt 0
 398 01c8 833784EF 		ld	a5,-264(s0)
 399 01cc 83B70700 		ld	a5,0(a5)
 400              		.loc 1 71 5
 401 01d0 63860700 		beqz	a5,.L25
  72:src/interruptRoutine.cpp **** 					__asm__ volatile("li a0, 0");
 402              		.loc 1 72 6 is_stmt 1
 403              		.loc 1 72 34 is_stmt 0
 404              	#APP
 405              	# 72 "src/interruptRoutine.cpp" 1
  73              					} else {
 406              		li a0, 0
 407              	# 0 "" 2
 408              	#NO_APP
 409 01d8 6F008000 		j	.L26
 410              	.L25:
  74:src/interruptRoutine.cpp **** 					__asm__ volatile("li a0, -1");
 411              		.loc 1 74 6 is_stmt 1
GAS LISTING /tmp/ccUjdNV5.s 			page 10


 412              		.loc 1 74 35 is_stmt 0
 413              	#APP
 414              	# 74 "src/interruptRoutine.cpp" 1
  75              					}
 415              		li a0, -1
 416              	# 0 "" 2
 417              	#NO_APP
 418              	.L26:
  76:src/interruptRoutine.cpp **** 				__asm__ volatile("sd a0, 80(s0)");
 419              		.loc 1 76 5 is_stmt 1
 420              		.loc 1 76 38 is_stmt 0
 421              	#APP
 422              	# 76 "src/interruptRoutine.cpp" 1
  77              					break;
 423              		sd a0, 80(s0)
 424              	# 0 "" 2
 425              		.loc 1 77 5 is_stmt 1
 426              	#NO_APP
 427 01e4 6F000038 		j	.L24
 428              	.LVL44:
 429              	.L19:
  78:src/interruptRoutine.cpp **** 			case 0x12:
 430              		.loc 1 78 4
  79:src/interruptRoutine.cpp **** 				//thread_exit
  80:src/interruptRoutine.cpp **** 				TCB::running->setFinished(true);
 431              		.loc 1 80 5
 432              		.loc 1 80 30 is_stmt 0
 433 01e8 97070000 		la	a5,_ZN3TCB7runningE
 433      83B70700 
 434 01f0 83B70700 		ld	a5,0(a5)
 435 01f4 93051000 		li	a1,1
 436 01f8 13850700 		mv	a0,a5
 437 01fc 97000000 		call	_ZN3TCB11setFinishedEb
 437      E7800000 
 438              	.LVL45:
  81:src/interruptRoutine.cpp **** 				TCB::releaseJoined();
 439              		.loc 1 81 5 is_stmt 1
 440              		.loc 1 81 23 is_stmt 0
 441 0204 97000000 		call	_ZN3TCB13releaseJoinedEv@plt
 441      E7800000 
 442              	.LVL46:
  82:src/interruptRoutine.cpp **** 				TCB::yield();
 443              		.loc 1 82 5 is_stmt 1
 444              		.loc 1 82 15 is_stmt 0
 445 020c 97000000 		call	_ZN3TCB5yieldEv@plt
 445      E7800000 
 446              	.LVL47:
  83:src/interruptRoutine.cpp **** 				break;
 447              		.loc 1 83 5 is_stmt 1
 448 0214 6F000035 		j	.L24
 449              	.LVL48:
 450              	.L18:
  84:src/interruptRoutine.cpp **** 			case 0x13:
 451              		.loc 1 84 4
  85:src/interruptRoutine.cpp **** 				//thread_dispatch
  86:src/interruptRoutine.cpp **** 				TCB::yield();
 452              		.loc 1 86 5
GAS LISTING /tmp/ccUjdNV5.s 			page 11


 453              		.loc 1 86 15 is_stmt 0
 454 0218 97000000 		call	_ZN3TCB5yieldEv@plt
 454      E7800000 
 455              	.LVL49:
  87:src/interruptRoutine.cpp **** 				break;
 456              		.loc 1 87 5 is_stmt 1
 457 0220 6F004034 		j	.L24
 458              	.LVL50:
 459              	.L17:
  88:src/interruptRoutine.cpp **** 			case 0x14:
 460              		.loc 1 88 4
  89:src/interruptRoutine.cpp **** 				//thread_join
  90:src/interruptRoutine.cpp **** 				thread_t handleToJoin;
 461              		.loc 1 90 5
  91:src/interruptRoutine.cpp **** 				handleToJoin = (thread_t)a1;
 462              		.loc 1 91 5
 463              		.loc 1 91 18 is_stmt 0
 464 0224 833784FB 		ld	a5,-72(s0)
 465 0228 2330F4F0 		sd	a5,-256(s0)
 466              	.LVL51:
  92:src/interruptRoutine.cpp **** 				TCB::threadJoin(handleToJoin);
 467              		.loc 1 92 5 is_stmt 1
 468              		.loc 1 92 20 is_stmt 0
 469 022c 033504F0 		ld	a0,-256(s0)
 470 0230 97000000 		call	_ZN3TCB10threadJoinEPS_@plt
 470      E7800000 
 471              	.LVL52:
  93:src/interruptRoutine.cpp **** 				TCB::yield();
 472              		.loc 1 93 5 is_stmt 1
 473              		.loc 1 93 15 is_stmt 0
 474 0238 97000000 		call	_ZN3TCB5yieldEv@plt
 474      E7800000 
 475              	.LVL53:
  94:src/interruptRoutine.cpp **** 				break;
 476              		.loc 1 94 5 is_stmt 1
 477 0240 6F004032 		j	.L24
 478              	.LVL54:
 479              	.L16:
  95:src/interruptRoutine.cpp **** 			case 0x21:
 480              		.loc 1 95 4
  96:src/interruptRoutine.cpp **** 				//sem_open
  97:src/interruptRoutine.cpp **** 				sem_t* openHandle;
 481              		.loc 1 97 5
  98:src/interruptRoutine.cpp **** 				openHandle = (sem_t*)a1;
 482              		.loc 1 98 5
 483              		.loc 1 98 16 is_stmt 0
 484 0244 833784FB 		ld	a5,-72(s0)
 485 0248 2338F4F0 		sd	a5,-240(s0)
 486              	.LVL55:
  99:src/interruptRoutine.cpp **** 				uint initVal;
 487              		.loc 1 99 5 is_stmt 1
 100:src/interruptRoutine.cpp **** 				initVal = (uint)a2;
 488              		.loc 1 100 5
 489              		.loc 1 100 13 is_stmt 0
 490 024c 833704FB 		ld	a5,-80(s0)
 491              	.LVL56:
 492 0250 2326F4F0 		sw	a5,-244(s0)
GAS LISTING /tmp/ccUjdNV5.s 			page 12


 493              	.LVL57:
 101:src/interruptRoutine.cpp **** 				*openHandle = KSem::initSem(initVal);
 494              		.loc 1 101 5 is_stmt 1
 495              		.loc 1 101 32 is_stmt 0
 496 0254 8327C4F0 		lw	a5,-244(s0)
 497              	.LVL58:
 498 0258 13850700 		mv	a0,a5
 499 025c 97000000 		call	_ZN4KSem7initSemEj@plt
 499      E7800000 
 500              	.LVL59:
 501 0264 13070500 		mv	a4,a0
 502              		.loc 1 101 17
 503 0268 833704F1 		ld	a5,-240(s0)
 504 026c 23B0E700 		sd	a4,0(a5)
 102:src/interruptRoutine.cpp **** 				if (*openHandle != nullptr) {
 505              		.loc 1 102 5 is_stmt 1
 506              		.loc 1 102 9 is_stmt 0
 507 0270 833704F1 		ld	a5,-240(s0)
 508 0274 83B70700 		ld	a5,0(a5)
 509              		.loc 1 102 5
 510 0278 63860700 		beqz	a5,.L27
 103:src/interruptRoutine.cpp **** 					__asm__ volatile("li a0, 0");
 511              		.loc 1 103 6 is_stmt 1
 512              		.loc 1 103 34 is_stmt 0
 513              	#APP
 514              	# 103 "src/interruptRoutine.cpp" 1
 104              					} else {
 515              		li a0, 0
 516              	# 0 "" 2
 517              	#NO_APP
 518 0280 6F008000 		j	.L28
 519              	.L27:
 105:src/interruptRoutine.cpp **** 					__asm__ volatile("li a0, -1");
 520              		.loc 1 105 6 is_stmt 1
 521              		.loc 1 105 35 is_stmt 0
 522              	#APP
 523              	# 105 "src/interruptRoutine.cpp" 1
 106              					}
 524              		li a0, -1
 525              	# 0 "" 2
 526              	#NO_APP
 527              	.L28:
 107:src/interruptRoutine.cpp **** 				__asm__ volatile("sd a0, 80(s0)");
 528              		.loc 1 107 5 is_stmt 1
 529              		.loc 1 107 38 is_stmt 0
 530              	#APP
 531              	# 107 "src/interruptRoutine.cpp" 1
 108              					break;
 532              		sd a0, 80(s0)
 533              	# 0 "" 2
 534              		.loc 1 108 5 is_stmt 1
 535              	#NO_APP
 536 028c 6F00802D 		j	.L24
 537              	.LVL60:
 538              	.L15:
 109:src/interruptRoutine.cpp **** 			case 0x22:
 539              		.loc 1 109 4
GAS LISTING /tmp/ccUjdNV5.s 			page 13


 110:src/interruptRoutine.cpp **** 				//sem_close
 111:src/interruptRoutine.cpp **** 				sem_t closeHandle;
 540              		.loc 1 111 5
 112:src/interruptRoutine.cpp **** 				closeHandle = (sem_t)a1;
 541              		.loc 1 112 5
 542              		.loc 1 112 17 is_stmt 0
 543 0290 833784FB 		ld	a5,-72(s0)
 544 0294 233CF4F0 		sd	a5,-232(s0)
 545              	.LVL61:
 113:src/interruptRoutine.cpp **** 				KSem::closeSem(closeHandle);
 546              		.loc 1 113 5 is_stmt 1
 547              		.loc 1 113 19 is_stmt 0
 548 0298 033584F1 		ld	a0,-232(s0)
 549 029c 97000000 		call	_ZN4KSem8closeSemEPS_@plt
 549      E7800000 
 550              	.LVL62:
 114:src/interruptRoutine.cpp **** 				__asm__ volatile("sd a0, 80(s0)");
 551              		.loc 1 114 5 is_stmt 1
 552              		.loc 1 114 38 is_stmt 0
 553              	#APP
 554              	# 114 "src/interruptRoutine.cpp" 1
 115              					break;
 555              		sd a0, 80(s0)
 556              	# 0 "" 2
 557              		.loc 1 115 5 is_stmt 1
 558              	#NO_APP
 559 02a8 6F00C02B 		j	.L24
 560              	.LVL63:
 561              	.L14:
 116:src/interruptRoutine.cpp **** 			case 0x23:
 562              		.loc 1 116 4
 117:src/interruptRoutine.cpp **** 				//sem_wait
 118:src/interruptRoutine.cpp **** 				sem_t waitHandle;
 563              		.loc 1 118 5
 119:src/interruptRoutine.cpp **** 				waitHandle = (sem_t)a1;
 564              		.loc 1 119 5
 565              		.loc 1 119 16 is_stmt 0
 566 02ac 833784FB 		ld	a5,-72(s0)
 567 02b0 2330F4F2 		sd	a5,-224(s0)
 568              	.LVL64:
 120:src/interruptRoutine.cpp **** 				waitHandle->wait();
 569              		.loc 1 120 5 is_stmt 1
 570              		.loc 1 120 21 is_stmt 0
 571 02b4 033504F2 		ld	a0,-224(s0)
 572 02b8 97000000 		call	_ZN4KSem4waitEv@plt
 572      E7800000 
 573              	.LVL65:
 121:src/interruptRoutine.cpp **** 				__asm__ volatile("sd a0, 80(s0)");
 574              		.loc 1 121 5 is_stmt 1
 575              		.loc 1 121 38 is_stmt 0
 576              	#APP
 577              	# 121 "src/interruptRoutine.cpp" 1
 122              					break;
 578              		sd a0, 80(s0)
 579              	# 0 "" 2
 580              		.loc 1 122 5 is_stmt 1
 581              	#NO_APP
GAS LISTING /tmp/ccUjdNV5.s 			page 14


 582 02c4 6F00002A 		j	.L24
 583              	.LVL66:
 584              	.L13:
 123:src/interruptRoutine.cpp **** 			case 0x24:
 585              		.loc 1 123 4
 124:src/interruptRoutine.cpp **** 				//sem_signal
 125:src/interruptRoutine.cpp **** 				sem_t signalHandle;
 586              		.loc 1 125 5
 126:src/interruptRoutine.cpp **** 				signalHandle = (sem_t)a1;
 587              		.loc 1 126 5
 588              		.loc 1 126 18 is_stmt 0
 589 02c8 833784FB 		ld	a5,-72(s0)
 590 02cc 2334F4F2 		sd	a5,-216(s0)
 591              	.LVL67:
 127:src/interruptRoutine.cpp **** 				signalHandle->signal();
 592              		.loc 1 127 5 is_stmt 1
 593              		.loc 1 127 25 is_stmt 0
 594 02d0 033584F2 		ld	a0,-216(s0)
 595 02d4 97000000 		call	_ZN4KSem6signalEv@plt
 595      E7800000 
 596              	.LVL68:
 128:src/interruptRoutine.cpp **** 				__asm__ volatile("sd a0, 80(s0)");
 597              		.loc 1 128 5 is_stmt 1
 598              		.loc 1 128 38 is_stmt 0
 599              	#APP
 600              	# 128 "src/interruptRoutine.cpp" 1
 129              					break;
 601              		sd a0, 80(s0)
 602              	# 0 "" 2
 603              		.loc 1 129 5 is_stmt 1
 604              	#NO_APP
 605 02e0 6F004028 		j	.L24
 606              	.LVL69:
 607              	.L12:
 130:src/interruptRoutine.cpp **** 			case 0x31:
 608              		.loc 1 130 4
 131:src/interruptRoutine.cpp **** 				//time_sleep
 132:src/interruptRoutine.cpp **** 				time_t timerPeriods;
 609              		.loc 1 132 5
 133:src/interruptRoutine.cpp **** 				timerPeriods = (time_t)a1;
 610              		.loc 1 133 5
 611              		.loc 1 133 18 is_stmt 0
 612 02e4 833784FB 		ld	a5,-72(s0)
 613 02e8 2338F4F2 		sd	a5,-208(s0)
 614              	.LVL70:
 134:src/interruptRoutine.cpp **** 				if (timerPeriods > 0) {
 615              		.loc 1 134 5 is_stmt 1
 616 02ec 833704F3 		ld	a5,-208(s0)
 617 02f0 63860700 		beqz	a5,.L29
 135:src/interruptRoutine.cpp **** 					__asm__ volatile("li a0, 0");
 618              		.loc 1 135 6
 619              		.loc 1 135 34 is_stmt 0
 620              	#APP
 621              	# 135 "src/interruptRoutine.cpp" 1
 136              					} else {
 622              		li a0, 0
 623              	# 0 "" 2
GAS LISTING /tmp/ccUjdNV5.s 			page 15


 624              	#NO_APP
 625 02f8 6F008000 		j	.L30
 626              	.L29:
 137:src/interruptRoutine.cpp **** 					__asm__ volatile("li a0, -1");
 627              		.loc 1 137 6 is_stmt 1
 628              		.loc 1 137 35 is_stmt 0
 629              	#APP
 630              	# 137 "src/interruptRoutine.cpp" 1
 138              					}
 631              		li a0, -1
 632              	# 0 "" 2
 633              	#NO_APP
 634              	.L30:
 139:src/interruptRoutine.cpp **** 				__asm__ volatile("sd a0, 80(s0)");
 635              		.loc 1 139 5 is_stmt 1
 636              		.loc 1 139 38 is_stmt 0
 637              	#APP
 638              	# 139 "src/interruptRoutine.cpp" 1
 140              					if (timerPeriods > 0) {
 639              		sd a0, 80(s0)
 640              	# 0 "" 2
 641              		.loc 1 140 5 is_stmt 1
 642              	#NO_APP
 643 0304 833704F3 		ld	a5,-208(s0)
 644              	.LVL71:
 645 0308 63840724 		beqz	a5,.L50
 141:src/interruptRoutine.cpp **** 					Scheduler::putToSleep(TCB::running, timerPeriods);
 646              		.loc 1 141 6
 647              		.loc 1 141 27 is_stmt 0
 648 030c 97070000 		la	a5,_ZN3TCB7runningE
 648      83B70700 
 649 0314 83B70700 		ld	a5,0(a5)
 650 0318 833504F3 		ld	a1,-208(s0)
 651 031c 13850700 		mv	a0,a5
 652 0320 97000000 		call	_ZN9Scheduler10putToSleepEP3TCBm@plt
 652      E7800000 
 653              	.LVL72:
 142:src/interruptRoutine.cpp **** 					TCB::yield();
 654              		.loc 1 142 6 is_stmt 1
 655              		.loc 1 142 16 is_stmt 0
 656 0328 97000000 		call	_ZN3TCB5yieldEv@plt
 656      E7800000 
 657              	.LVL73:
 143:src/interruptRoutine.cpp **** 				}
 144:src/interruptRoutine.cpp **** 				break;
 658              		.loc 1 144 5 is_stmt 1
 659 0330 6F000022 		j	.L50
 660              	.LVL74:
 661              	.L11:
 145:src/interruptRoutine.cpp **** 			case 0x41:
 662              		.loc 1 145 4
 146:src/interruptRoutine.cpp **** 				//getc
 147:src/interruptRoutine.cpp **** 				__getc();
 663              		.loc 1 147 5
 664              		.loc 1 147 11 is_stmt 0
 665 0334 97000000 		call	__getc@plt
 665      E7800000 
GAS LISTING /tmp/ccUjdNV5.s 			page 16


 666              	.LVL75:
 148:src/interruptRoutine.cpp **** 				__asm__ volatile("sd a0, 80(s0)");
 667              		.loc 1 148 5 is_stmt 1
 668              		.loc 1 148 38 is_stmt 0
 669              	#APP
 670              	# 148 "src/interruptRoutine.cpp" 1
 149              					break;
 671              		sd a0, 80(s0)
 672              	# 0 "" 2
 673              		.loc 1 149 5 is_stmt 1
 674              	#NO_APP
 675 0340 6F004022 		j	.L24
 676              	.LVL76:
 677              	.L9:
 150:src/interruptRoutine.cpp **** 			case 0x42:
 678              		.loc 1 150 4
 151:src/interruptRoutine.cpp **** 				//putc
 152:src/interruptRoutine.cpp **** 				char c;
 679              		.loc 1 152 5
 153:src/interruptRoutine.cpp **** 				c = (char)a1;
 680              		.loc 1 153 5
 681              		.loc 1 153 7 is_stmt 0
 682 0344 833784FB 		ld	a5,-72(s0)
 683 0348 A30FF4F2 		sb	a5,-193(s0)
 684              	.LVL77:
 154:src/interruptRoutine.cpp **** 				__putc(c);
 685              		.loc 1 154 5 is_stmt 1
 686              		.loc 1 154 11 is_stmt 0
 687 034c 8347F4F3 		lbu	a5,-193(s0)
 688              	.LVL78:
 689 0350 13850700 		mv	a0,a5
 690 0354 97000000 		call	__putc@plt
 690      E7800000 
 691              	.LVL79:
 155:src/interruptRoutine.cpp **** 				break;
 692              		.loc 1 155 5 is_stmt 1
 693 035c 6F008020 		j	.L24
 694              	.LVL80:
 695              	.L23:
 156:src/interruptRoutine.cpp **** 			case 0x80:
 696              		.loc 1 156 4
 157:src/interruptRoutine.cpp **** 				//alloc thread
 158:src/interruptRoutine.cpp **** 				thread_t* handleAlloc;
 697              		.loc 1 158 5
 159:src/interruptRoutine.cpp **** 				handleAlloc = (thread_t*)a1;
 698              		.loc 1 159 5
 699              		.loc 1 159 17 is_stmt 0
 700 0360 833784FB 		ld	a5,-72(s0)
 701 0364 233CF4F4 		sd	a5,-168(s0)
 702              	.LVL81:
 160:src/interruptRoutine.cpp **** 				void (* foo)(void*);
 703              		.loc 1 160 5 is_stmt 1
 161:src/interruptRoutine.cpp **** 				foo = (void (*)(void*))a2;
 704              		.loc 1 161 5
 705              		.loc 1 161 9 is_stmt 0
 706 0368 833704FB 		ld	a5,-80(s0)
 707              	.LVL82:
GAS LISTING /tmp/ccUjdNV5.s 			page 17


 708 036c 2338F4F4 		sd	a5,-176(s0)
 709              	.LVL83:
 162:src/interruptRoutine.cpp **** 				void* argsAlloc;
 710              		.loc 1 162 5 is_stmt 1
 163:src/interruptRoutine.cpp **** 				argsAlloc = (void*)a3;
 711              		.loc 1 163 5
 712              		.loc 1 163 15 is_stmt 0
 713 0370 833784FA 		ld	a5,-88(s0)
 714              	.LVL84:
 715 0374 2334F4F4 		sd	a5,-184(s0)
 716              	.LVL85:
 164:src/interruptRoutine.cpp **** 				uint64* spAlloc;
 717              		.loc 1 164 5 is_stmt 1
 165:src/interruptRoutine.cpp **** 				spAlloc = (uint64*)a4;
 718              		.loc 1 165 5
 719              		.loc 1 165 13 is_stmt 0
 720 0378 833704FA 		ld	a5,-96(s0)
 721              	.LVL86:
 722 037c 2330F4F4 		sd	a5,-192(s0)
 723              	.LVL87:
 166:src/interruptRoutine.cpp **** 
 167:src/interruptRoutine.cpp **** 				*handleAlloc = TCB::createThread(foo, argsAlloc, spAlloc);
 724              		.loc 1 167 5 is_stmt 1
 725              		.loc 1 167 37 is_stmt 0
 726 0380 033604F4 		ld	a2,-192(s0)
 727 0384 833584F4 		ld	a1,-184(s0)
 728 0388 033504F5 		ld	a0,-176(s0)
 729 038c 97000000 		call	_ZN3TCB12createThreadEPFvPvES0_Pm@plt
 729      E7800000 
 730              	.LVL88:
 731 0394 13070500 		mv	a4,a0
 732              		.loc 1 167 18
 733 0398 833784F5 		ld	a5,-168(s0)
 734 039c 23B0E700 		sd	a4,0(a5)
 168:src/interruptRoutine.cpp **** 				if (*handleAlloc != nullptr) {
 735              		.loc 1 168 5 is_stmt 1
 736              		.loc 1 168 9 is_stmt 0
 737 03a0 833784F5 		ld	a5,-168(s0)
 738 03a4 83B70700 		ld	a5,0(a5)
 739              		.loc 1 168 5
 740 03a8 63860700 		beqz	a5,.L32
 169:src/interruptRoutine.cpp **** 					__asm__ volatile("li a0, 0");
 741              		.loc 1 169 6 is_stmt 1
 742              		.loc 1 169 34 is_stmt 0
 743              	#APP
 744              	# 169 "src/interruptRoutine.cpp" 1
 170              					} else {
 745              		li a0, 0
 746              	# 0 "" 2
 747              	#NO_APP
 748 03b0 6F008000 		j	.L33
 749              	.L32:
 171:src/interruptRoutine.cpp **** 					__asm__ volatile("li a0, -1");
 750              		.loc 1 171 6 is_stmt 1
 751              		.loc 1 171 35 is_stmt 0
 752              	#APP
 753              	# 171 "src/interruptRoutine.cpp" 1
GAS LISTING /tmp/ccUjdNV5.s 			page 18


 172              					}
 754              		li a0, -1
 755              	# 0 "" 2
 756              	#NO_APP
 757              	.L33:
 173:src/interruptRoutine.cpp **** 				__asm__ volatile("sd a0, 80(s0)");
 758              		.loc 1 173 5 is_stmt 1
 759              		.loc 1 173 38 is_stmt 0
 760              	#APP
 761              	# 173 "src/interruptRoutine.cpp" 1
 174              					break;
 762              		sd a0, 80(s0)
 763              	# 0 "" 2
 764              		.loc 1 174 5 is_stmt 1
 765              	#NO_APP
 766 03bc 6F00801A 		j	.L24
 767              	.LVL89:
 768              	.L7:
 175:src/interruptRoutine.cpp **** 			case 0x81:
 769              		.loc 1 175 4
 176:src/interruptRoutine.cpp **** 				//start thread
 177:src/interruptRoutine.cpp **** 				thread_t threadStartHandle;
 770              		.loc 1 177 5
 178:src/interruptRoutine.cpp **** 				threadStartHandle = (thread_t)a1;
 771              		.loc 1 178 5
 772              		.loc 1 178 23 is_stmt 0
 773 03c0 833784FB 		ld	a5,-72(s0)
 774 03c4 2330F4F6 		sd	a5,-160(s0)
 775              	.LVL90:
 179:src/interruptRoutine.cpp **** 				Scheduler::put(threadStartHandle);
 776              		.loc 1 179 5 is_stmt 1
 777              		.loc 1 179 19 is_stmt 0
 778 03c8 033504F6 		ld	a0,-160(s0)
 779 03cc 97000000 		call	_ZN9Scheduler3putEP3TCB@plt
 779      E7800000 
 780              	.LVL91:
 180:src/interruptRoutine.cpp **** 				break;
 781              		.loc 1 180 5 is_stmt 1
 782 03d4 6F000019 		j	.L24
 783              	.LVL92:
 784              	.L6:
 181:src/interruptRoutine.cpp **** 			case 0x90:
 785              		.loc 1 181 4
 182:src/interruptRoutine.cpp **** 				//printString
 183:src/interruptRoutine.cpp **** 				const char* string;
 786              		.loc 1 183 5
 184:src/interruptRoutine.cpp **** 				string = (const char*)a1;
 787              		.loc 1 184 5
 788              		.loc 1 184 12 is_stmt 0
 789 03d8 833784FB 		ld	a5,-72(s0)
 790 03dc 2334F4FE 		sd	a5,-24(s0)
 791              	.LVL93:
 792              	.L35:
 185:src/interruptRoutine.cpp **** 				while (*string != '\0') {
 793              		.loc 1 185 5 is_stmt 1
 794              		.loc 1 185 20
 795              		.loc 1 185 12 is_stmt 0
GAS LISTING /tmp/ccUjdNV5.s 			page 19


 796 03e0 833784FE 		ld	a5,-24(s0)
 797 03e4 83C70700 		lbu	a5,0(a5)
 798              		.loc 1 185 20
 799 03e8 63880716 		beqz	a5,.L51
 186:src/interruptRoutine.cpp **** 					__putc(*string);
 800              		.loc 1 186 6 is_stmt 1
 801              		.loc 1 186 12 is_stmt 0
 802 03ec 833784FE 		ld	a5,-24(s0)
 803 03f0 83C70700 		lbu	a5,0(a5)
 804 03f4 13850700 		mv	a0,a5
 805 03f8 97000000 		call	__putc@plt
 805      E7800000 
 806              	.LVL94:
 187:src/interruptRoutine.cpp **** 					string++;
 807              		.loc 1 187 6 is_stmt 1
 808              		.loc 1 187 12 is_stmt 0
 809 0400 833784FE 		ld	a5,-24(s0)
 810 0404 93871700 		addi	a5,a5,1
 811 0408 2334F4FE 		sd	a5,-24(s0)
 812              	.LVL95:
 185:src/interruptRoutine.cpp **** 				while (*string != '\0') {
 813              		.loc 1 185 5
 814 040c 6FF05FFD 		j	.L35
 815              	.LVL96:
 816              	.L4:
 188:src/interruptRoutine.cpp **** 				}
 189:src/interruptRoutine.cpp **** 				break;
 190:src/interruptRoutine.cpp **** 			case 0x91:
 817              		.loc 1 190 4 is_stmt 1
 191:src/interruptRoutine.cpp **** 				//printInteger
 192:src/interruptRoutine.cpp **** 				uint64 integer;
 818              		.loc 1 192 5
 193:src/interruptRoutine.cpp **** 				integer = a1;
 819              		.loc 1 193 5
 820              		.loc 1 193 13 is_stmt 0
 821 0410 833784FB 		ld	a5,-72(s0)
 822 0414 2338F4F6 		sd	a5,-144(s0)
 823              	.LVL97:
 194:src/interruptRoutine.cpp **** 				static char digits[] = "0123456789";
 824              		.loc 1 194 5 is_stmt 1
 195:src/interruptRoutine.cpp **** 				char buf[16];
 825              		.loc 1 195 5
 196:src/interruptRoutine.cpp **** 				int i, neg;
 826              		.loc 1 196 5
 197:src/interruptRoutine.cpp **** 				uint x;
 827              		.loc 1 197 5
 198:src/interruptRoutine.cpp **** 
 199:src/interruptRoutine.cpp **** 				neg = 0;
 828              		.loc 1 199 5
 829              		.loc 1 199 9 is_stmt 0
 830 0418 232604F6 		sw	zero,-148(s0)
 831              	.LVL98:
 200:src/interruptRoutine.cpp **** 				if (integer < 0) {
 832              		.loc 1 200 5 is_stmt 1
 201:src/interruptRoutine.cpp **** 					neg = 1;
 202:src/interruptRoutine.cpp **** 					x = -integer;
 203:src/interruptRoutine.cpp **** 				} else {
GAS LISTING /tmp/ccUjdNV5.s 			page 20


 204:src/interruptRoutine.cpp **** 					x = integer;
 833              		.loc 1 204 6
 834              		.loc 1 204 8 is_stmt 0
 835 041c 833704F7 		ld	a5,-144(s0)
 836 0420 2320F4FE 		sw	a5,-32(s0)
 837              	.LVL99:
 205:src/interruptRoutine.cpp **** 				}
 206:src/interruptRoutine.cpp **** 
 207:src/interruptRoutine.cpp **** 				i = 0;
 838              		.loc 1 207 5 is_stmt 1
 839              		.loc 1 207 7 is_stmt 0
 840 0424 232204FE 		sw	zero,-28(s0)
 841              	.LVL100:
 842              	.L37:
 208:src/interruptRoutine.cpp **** 				do {
 843              		.loc 1 208 5 is_stmt 1
 209:src/interruptRoutine.cpp **** 					buf[i++] = digits[x % 10];
 844              		.loc 1 209 6
 845              		.loc 1 209 26 is_stmt 0
 846 0428 032704FE 		lw	a4,-32(s0)
 847 042c 9307A000 		li	a5,10
 848 0430 BB77F702 		remuw	a5,a4,a5
 849 0434 1B860700 		sext.w	a2,a5
 850              		.loc 1 209 11
 851 0438 832744FE 		lw	a5,-28(s0)
 852 043c 1B871700 		addiw	a4,a5,1
 853 0440 2322E4FE 		sw	a4,-28(s0)
 854              	.LVL101:
 855              		.loc 1 209 30
 856 0444 97060000 		lla	a3,_ZZ16interruptRoutineE6digits
 856      93860600 
 857 044c 13170602 		slli	a4,a2,32
 858 0450 13570702 		srli	a4,a4,32
 859              	.LVL102:
 860 0454 3387E600 		add	a4,a3,a4
 861 0458 03470700 		lbu	a4,0(a4)
 862              		.loc 1 209 15
 863 045c 930604FF 		addi	a3,s0,-16
 864 0460 B387F600 		add	a5,a3,a5
 865 0464 2388E7EC 		sb	a4,-304(a5)
 210:src/interruptRoutine.cpp **** 				} while ((x /= 10) != 0);
 866              		.loc 1 210 24 is_stmt 1
 867              		.loc 1 210 17 is_stmt 0
 868 0468 032704FE 		lw	a4,-32(s0)
 869 046c 9307A000 		li	a5,10
 870 0470 BB57F702 		divuw	a5,a4,a5
 871 0474 2320F4FE 		sw	a5,-32(s0)
 872              	.LVL103:
 873              		.loc 1 210 24
 874 0478 832704FE 		lw	a5,-32(s0)
 875 047c 9B870700 		sext.w	a5,a5
 876              	.LVL104:
 877 0480 B337F000 		snez	a5,a5
 878 0484 93F7F70F 		andi	a5,a5,0xff
 879 0488 63840700 		beqz	a5,.L36
 208:src/interruptRoutine.cpp **** 				do {
 880              		.loc 1 208 5
GAS LISTING /tmp/ccUjdNV5.s 			page 21


 881 048c 6FF0DFF9 		j	.L37
 882              	.L36:
 211:src/interruptRoutine.cpp **** 				if (neg) buf[i++] = '-';
 883              		.loc 1 211 5 is_stmt 1
 884 0490 8327C4F6 		lw	a5,-148(s0)
 885 0494 9B870700 		sext.w	a5,a5
 886 0498 63800702 		beqz	a5,.L40
 887              		.loc 1 211 14 discriminator 1
 888              		.loc 1 211 19 is_stmt 0 discriminator 1
 889 049c 832744FE 		lw	a5,-28(s0)
 890 04a0 1B871700 		addiw	a4,a5,1
 891 04a4 2322E4FE 		sw	a4,-28(s0)
 892              	.LVL105:
 893              		.loc 1 211 23 discriminator 1
 894 04a8 130704FF 		addi	a4,s0,-16
 895              	.LVL106:
 896 04ac B307F700 		add	a5,a4,a5
 897 04b0 1307D002 		li	a4,45
 898 04b4 2388E7EC 		sb	a4,-304(a5)
 899              	.LVL107:
 900              	.L40:
 212:src/interruptRoutine.cpp **** 
 213:src/interruptRoutine.cpp **** 				while (--i >= 0) {
 901              		.loc 1 213 5 is_stmt 1
 902              		.loc 1 213 16
 903 04b8 832744FE 		lw	a5,-28(s0)
 904 04bc 9B87F7FF 		addiw	a5,a5,-1
 905 04c0 2322F4FE 		sw	a5,-28(s0)
 906              	.LVL108:
 907 04c4 832744FE 		lw	a5,-28(s0)
 908 04c8 93C7F7FF 		not	a5,a5
 909              	.LVL109:
 910 04cc 9BD7F701 		srliw	a5,a5,31
 911 04d0 93F7F70F 		andi	a5,a5,0xff
 912 04d4 63860708 		beqz	a5,.L52
 214:src/interruptRoutine.cpp **** 					__putc(buf[i]);
 913              		.loc 1 214 6
 914              		.loc 1 214 12 is_stmt 0
 915 04d8 832744FE 		lw	a5,-28(s0)
 916 04dc 130704FF 		addi	a4,s0,-16
 917 04e0 B307F700 		add	a5,a4,a5
 918 04e4 83C707ED 		lbu	a5,-304(a5)
 919 04e8 13850700 		mv	a0,a5
 920 04ec 97000000 		call	__putc@plt
 920      E7800000 
 921              	.LVL110:
 213:src/interruptRoutine.cpp **** 					__putc(buf[i]);
 922              		.loc 1 213 5
 923 04f4 6FF05FFC 		j	.L40
 924              	.LVL111:
 925              	.L5:
 215:src/interruptRoutine.cpp **** 				}
 216:src/interruptRoutine.cpp **** 				break;
 217:src/interruptRoutine.cpp **** 			default:
 926              		.loc 1 217 4 is_stmt 1
 218:src/interruptRoutine.cpp **** 				printString("\nNepostojeci op code: ");
 927              		.loc 1 218 5
GAS LISTING /tmp/ccUjdNV5.s 			page 22


 928              		.loc 1 218 16 is_stmt 0
 929 04f8 17050000 		lla	a0,.LC0
 929      13050500 
 930 0500 97000000 		call	_Z11printStringPKc@plt
 930      E7800000 
 931              	.LVL112:
 219:src/interruptRoutine.cpp **** 				printInteger(opCode);
 932              		.loc 1 219 5 is_stmt 1
 933              		.loc 1 219 17 is_stmt 0
 934 0508 033584F7 		ld	a0,-136(s0)
 935 050c 97000000 		call	_Z12printIntegerm@plt
 935      E7800000 
 936              	.LVL113:
 220:src/interruptRoutine.cpp **** 				printString("\nscause: ");
 937              		.loc 1 220 5 is_stmt 1
 938              		.loc 1 220 16 is_stmt 0
 939 0514 17050000 		lla	a0,.LC1
 939      13050500 
 940 051c 97000000 		call	_Z11printStringPKc@plt
 940      E7800000 
 941              	.LVL114:
 221:src/interruptRoutine.cpp **** 				printInteger(scause);
 942              		.loc 1 221 5 is_stmt 1
 943              		.loc 1 221 17 is_stmt 0
 944 0524 033584FD 		ld	a0,-40(s0)
 945 0528 97000000 		call	_Z12printIntegerm@plt
 945      E7800000 
 946              	.LVL115:
 222:src/interruptRoutine.cpp **** 				printString("\nsepc: ");
 947              		.loc 1 222 5 is_stmt 1
 948              		.loc 1 222 16 is_stmt 0
 949 0530 17050000 		lla	a0,.LC2
 949      13050500 
 950 0538 97000000 		call	_Z11printStringPKc@plt
 950      E7800000 
 951              	.LVL116:
 223:src/interruptRoutine.cpp **** 				printInteger(sepc);
 952              		.loc 1 223 5 is_stmt 1
 953              		.loc 1 223 17 is_stmt 0
 954 0540 033504FD 		ld	a0,-48(s0)
 955 0544 97000000 		call	_Z12printIntegerm@plt
 955      E7800000 
 956              	.LVL117:
 224:src/interruptRoutine.cpp **** 				break;
 957              		.loc 1 224 5 is_stmt 1
 958 054c 6F008001 		j	.L24
 959              	.LVL118:
 960              	.L50:
 144:src/interruptRoutine.cpp **** 			case 0x41:
 961              		.loc 1 144 5 is_stmt 0
 962 0550 13000000 		nop
 963 0554 6F000001 		j	.L24
 964              	.LVL119:
 965              	.L51:
 189:src/interruptRoutine.cpp **** 			case 0x91:
 966              		.loc 1 189 5
 967 0558 13000000 		nop
GAS LISTING /tmp/ccUjdNV5.s 			page 23


 968 055c 6F008000 		j	.L24
 969              	.LVL120:
 970              	.L52:
 216:src/interruptRoutine.cpp **** 			default:
 971              		.loc 1 216 5
 972 0560 13000000 		nop
 973              	.LVL121:
 974              	.L24:
 975              	.LBE5:
 976              	.LBE4:
 225:src/interruptRoutine.cpp **** 		}
 226:src/interruptRoutine.cpp **** 		//sepc pokazuje na ecall instrukciju, treba preci na sledecu instrukciju
 227:src/interruptRoutine.cpp **** 		//sepc += 4;
 228:src/interruptRoutine.cpp **** 		__asm__ volatile("addi %[dst], %[src], 0x4":[dst]"=r"(sepc):[src]"r"(
 977              		.loc 1 228 3 is_stmt 1 discriminator 1
 229:src/interruptRoutine.cpp **** 				sepc):"a5", "a0", "a1", "a2", "a3", "a4", "a6", "a7");
 978              		.loc 1 229 58 is_stmt 0 discriminator 1
 979 0564 033304FD 		ld	t1,-48(s0)
 980              	#APP
 981              	# 229 "src/interruptRoutine.cpp" 1
 230              			__asm__ volatile("csrw sepc, %[sepc]": :[sepc] "r"(sepc):"a5", "a0", "a1", "a2", "a3", "a4", "a6"
 982              		addi t1, t1, 0x4
 983              	# 0 "" 2
 984              	.LVL122:
 985              	#NO_APP
 986 056c 233864FC 		sd	t1,-48(s0)
 987              	.LVL123:
 988              		.loc 1 230 3 is_stmt 1 discriminator 1
 989              		.loc 1 230 107 is_stmt 0 discriminator 1
 990 0570 033304FD 		ld	t1,-48(s0)
 991              	#APP
 992              	# 230 "src/interruptRoutine.cpp" 1
 231              			//Riscv::w_sepc(sepc + 4);
 993              		csrw sepc, t1
 994              	# 0 "" 2
 995              	#NO_APP
 996              	.LBE3:
 997 0578 13000000 		nop
 998              	.LBE2:
 232:src/interruptRoutine.cpp **** 	} else if (scause == (1UL << 63 | 9)) {
 233:src/interruptRoutine.cpp **** 		//spoljasnji hardverski prekid (od konzole)
 234:src/interruptRoutine.cpp **** 		uint64 irq = plic_claim();
 235:src/interruptRoutine.cpp **** 		static uint8 i = 32;
 236:src/interruptRoutine.cpp **** 		static char c = '\n';
 237:src/interruptRoutine.cpp **** 		if (irq == CONSOLE_IRQ) {
 238:src/interruptRoutine.cpp **** 			if (*KConsole::sr & CONSOLE_RX_STATUS_BIT) {
 239:src/interruptRoutine.cpp **** 				//input smer, od tastature do bafera
 240:src/interruptRoutine.cpp **** 				//moze se procitati podatak pristigao od konzole
 241:src/interruptRoutine.cpp **** 				printString("\nrx grana\n");
 242:src/interruptRoutine.cpp **** 				printInteger(c = *KConsole::dr);
 243:src/interruptRoutine.cpp **** 				//printInteger(podatak);
 244:src/interruptRoutine.cpp **** 				//printString("\n");
 245:src/interruptRoutine.cpp **** 			}
 246:src/interruptRoutine.cpp **** 			if (*KConsole::sr & CONSOLE_TX_STATUS_BIT) {
 247:src/interruptRoutine.cpp **** 				//output smer, od bafera do ekrana
 248:src/interruptRoutine.cpp **** 				//kontroler konzole moze da primi podatak koji ce poslati na konzolu
 249:src/interruptRoutine.cpp **** 				//printString("\ntx grana\n");
GAS LISTING /tmp/ccUjdNV5.s 			page 24


 250:src/interruptRoutine.cpp **** 				//*KConsole::dr = (char)i;
 251:src/interruptRoutine.cpp **** 				*KConsole::dr = c;
 252:src/interruptRoutine.cpp **** 				if (i++ == 126)i = 32;
 253:src/interruptRoutine.cpp **** 			} else {
 254:src/interruptRoutine.cpp **** 				printString("\nnista\n");
 255:src/interruptRoutine.cpp **** 			}
 256:src/interruptRoutine.cpp **** 			//printString("\nobradjen prekid konzole\n");
 257:src/interruptRoutine.cpp **** 			plic_complete(irq);
 258:src/interruptRoutine.cpp **** 		} else {
 259:src/interruptRoutine.cpp **** 			printString("Neki drugi prekid\n");
 260:src/interruptRoutine.cpp **** 		}
 261:src/interruptRoutine.cpp **** 		//console_handler();
 262:src/interruptRoutine.cpp **** 		Riscv::w_sepc(sepc);
 263:src/interruptRoutine.cpp **** 		Riscv::w_sstatus(sstatus);
 264:src/interruptRoutine.cpp **** 		Riscv::mc_sip(Riscv::SIP_SEIP);
 265:src/interruptRoutine.cpp **** 	} else if (scause == (1UL << 63 | 1)) {
 266:src/interruptRoutine.cpp **** 		//prekid od tajmera
 267:src/interruptRoutine.cpp **** 		//printString("\nPrekid od tajmera\n");
 268:src/interruptRoutine.cpp **** 		Scheduler::wake();
 269:src/interruptRoutine.cpp **** 		TCB::runningTimeSlice++;
 270:src/interruptRoutine.cpp **** 		if (TCB::runningTimeSlice >= TCB::running->getTimeSlice()) {
 271:src/interruptRoutine.cpp **** 			//printString("\nMenjam kontekst\n");
 272:src/interruptRoutine.cpp **** 			TCB::yield();
 273:src/interruptRoutine.cpp **** 			TCB::runningTimeSlice = 0;
 274:src/interruptRoutine.cpp **** 		}
 275:src/interruptRoutine.cpp **** 
 276:src/interruptRoutine.cpp **** 		Riscv::w_sepc(sepc);
 277:src/interruptRoutine.cpp **** 		Riscv::w_sstatus(sstatus);
 278:src/interruptRoutine.cpp **** 		Riscv::mc_sip(Riscv::SIP_SSIP);
 279:src/interruptRoutine.cpp **** 	} else {
 280:src/interruptRoutine.cpp **** 		printString("\nGreska u prekidnoj rutini\n");
 281:src/interruptRoutine.cpp **** 		printString("scause: ");
 282:src/interruptRoutine.cpp **** 		printInteger(scause);
 283:src/interruptRoutine.cpp **** 		printString("\nsepc: ");
 284:src/interruptRoutine.cpp **** 		printInteger(sepc);
 285:src/interruptRoutine.cpp **** 	}
 286:src/interruptRoutine.cpp **** }
 999              		.loc 1 286 1 discriminator 1
 1000 057c 6F004026 		j	.L53
 1001              	.LVL124:
 1002              	.L3:
 1003              	.LBB13:
 1004              	.LBB6:
 232:src/interruptRoutine.cpp **** 	} else if (scause == (1UL << 63 | 9)) {
 1005              		.loc 1 232 9 is_stmt 1
 1006              	.LBB7:
 1007 0580 033784FD 		ld	a4,-40(s0)
 1008              	.LVL125:
 1009 0584 9307F0FF 		li	a5,-1
 1010 0588 9397F703 		slli	a5,a5,63
 1011 058c 93879700 		addi	a5,a5,9
 1012 0590 631EF714 		bne	a4,a5,.L42
 1013              	.LBB8:
 234:src/interruptRoutine.cpp **** 		static uint8 i = 32;
 1014              		.loc 1 234 3
 234:src/interruptRoutine.cpp **** 		static uint8 i = 32;
 1015              		.loc 1 234 26 is_stmt 0
GAS LISTING /tmp/ccUjdNV5.s 			page 25


 1016 0594 97000000 		call	plic_claim@plt
 1016      E7800000 
 1017              	.LVL126:
 1018 059c 93070500 		mv	a5,a0
 234:src/interruptRoutine.cpp **** 		static uint8 i = 32;
 1019              		.loc 1 234 27
 1020 05a0 2330F4F8 		sd	a5,-128(s0)
 1021              	.LVL127:
 235:src/interruptRoutine.cpp **** 		static char c = '\n';
 1022              		.loc 1 235 3 is_stmt 1
 236:src/interruptRoutine.cpp **** 		if (irq == CONSOLE_IRQ) {
 1023              		.loc 1 236 3
 237:src/interruptRoutine.cpp **** 			if (*KConsole::sr & CONSOLE_RX_STATUS_BIT) {
 1024              		.loc 1 237 3
 1025 05a4 033704F8 		ld	a4,-128(s0)
 1026 05a8 9307A000 		li	a5,10
 1027 05ac 6314F710 		bne	a4,a5,.L43
 238:src/interruptRoutine.cpp **** 				//input smer, od tastature do bafera
 1028              		.loc 1 238 4
 238:src/interruptRoutine.cpp **** 				//input smer, od tastature do bafera
 1029              		.loc 1 238 8 is_stmt 0
 1030 05b0 97070000 		la	a5,_ZN8KConsole2srE
 1030      83B70700 
 1031 05b8 83B70700 		ld	a5,0(a5)
 1032 05bc 83C70700 		lbu	a5,0(a5)
 238:src/interruptRoutine.cpp **** 				//input smer, od tastature do bafera
 1033              		.loc 1 238 22
 1034 05c0 93F71700 		andi	a5,a5,1
 238:src/interruptRoutine.cpp **** 				//input smer, od tastature do bafera
 1035              		.loc 1 238 4
 1036 05c4 63840704 		beqz	a5,.L44
 241:src/interruptRoutine.cpp **** 				printInteger(c = *KConsole::dr);
 1037              		.loc 1 241 5 is_stmt 1
 241:src/interruptRoutine.cpp **** 				printInteger(c = *KConsole::dr);
 1038              		.loc 1 241 16 is_stmt 0
 1039 05c8 17050000 		lla	a0,.LC3
 1039      13050500 
 1040              	.LVL128:
 1041 05d0 97000000 		call	_Z11printStringPKc@plt
 1041      E7800000 
 1042              	.LVL129:
 242:src/interruptRoutine.cpp **** 				//printInteger(podatak);
 1043              		.loc 1 242 5 is_stmt 1
 242:src/interruptRoutine.cpp **** 				//printInteger(podatak);
 1044              		.loc 1 242 22 is_stmt 0
 1045 05d8 97070000 		la	a5,_ZN8KConsole2drE
 1045      83B70700 
 1046 05e0 83B70700 		ld	a5,0(a5)
 1047 05e4 03C70700 		lbu	a4,0(a5)
 242:src/interruptRoutine.cpp **** 				//printInteger(podatak);
 1048              		.loc 1 242 20
 1049 05e8 97070000 		lla	a5,_ZZ16interruptRoutineE1c
 1049      93870700 
 1050 05f0 2380E700 		sb	a4,0(a5)
 1051 05f4 97070000 		lla	a5,_ZZ16interruptRoutineE1c
 1051      93870700 
 1052 05fc 83C70700 		lbu	a5,0(a5)
GAS LISTING /tmp/ccUjdNV5.s 			page 26


 242:src/interruptRoutine.cpp **** 				//printInteger(podatak);
 1053              		.loc 1 242 17
 1054 0600 13850700 		mv	a0,a5
 1055 0604 97000000 		call	_Z12printIntegerm@plt
 1055      E7800000 
 1056              	.LVL130:
 1057              	.L44:
 246:src/interruptRoutine.cpp **** 				//output smer, od bafera do ekrana
 1058              		.loc 1 246 4 is_stmt 1
 246:src/interruptRoutine.cpp **** 				//output smer, od bafera do ekrana
 1059              		.loc 1 246 8 is_stmt 0
 1060 060c 97070000 		la	a5,_ZN8KConsole2srE
 1060      83B70700 
 1061 0614 83B70700 		ld	a5,0(a5)
 1062 0618 83C70700 		lbu	a5,0(a5)
 246:src/interruptRoutine.cpp **** 				//output smer, od bafera do ekrana
 1063              		.loc 1 246 22
 1064 061c 93F70702 		andi	a5,a5,32
 246:src/interruptRoutine.cpp **** 				//output smer, od bafera do ekrana
 1065              		.loc 1 246 4
 1066 0620 63860706 		beqz	a5,.L45
 251:src/interruptRoutine.cpp **** 				if (i++ == 126)i = 32;
 1067              		.loc 1 251 5 is_stmt 1
 1068 0624 97070000 		la	a5,_ZN8KConsole2drE
 1068      83B70700 
 1069 062c 83B70700 		ld	a5,0(a5)
 251:src/interruptRoutine.cpp **** 				if (i++ == 126)i = 32;
 1070              		.loc 1 251 19 is_stmt 0
 1071 0630 17070000 		lla	a4,_ZZ16interruptRoutineE1c
 1071      13070700 
 1072 0638 03470700 		lbu	a4,0(a4)
 1073 063c 2380E700 		sb	a4,0(a5)
 252:src/interruptRoutine.cpp **** 			} else {
 1074              		.loc 1 252 5 is_stmt 1
 252:src/interruptRoutine.cpp **** 			} else {
 1075              		.loc 1 252 10 is_stmt 0
 1076 0640 97070000 		lla	a5,_ZZ16interruptRoutineE1i
 1076      93870700 
 1077 0648 83C70700 		lbu	a5,0(a5)
 1078 064c 1B871700 		addiw	a4,a5,1
 1079 0650 9376F70F 		andi	a3,a4,0xff
 1080 0654 17070000 		lla	a4,_ZZ16interruptRoutineE1i
 1080      13070700 
 1081 065c 2300D700 		sb	a3,0(a4)
 252:src/interruptRoutine.cpp **** 			} else {
 1082              		.loc 1 252 13
 1083 0660 1B870700 		sext.w	a4,a5
 1084 0664 9307E007 		li	a5,126
 1085 0668 B307F740 		sub	a5,a4,a5
 1086 066c 93B71700 		seqz	a5,a5
 1087 0670 93F7F70F 		andi	a5,a5,0xff
 252:src/interruptRoutine.cpp **** 			} else {
 1088              		.loc 1 252 5
 1089 0674 63840702 		beqz	a5,.L46
 252:src/interruptRoutine.cpp **** 			} else {
 1090              		.loc 1 252 20 is_stmt 1 discriminator 1
 252:src/interruptRoutine.cpp **** 			} else {
GAS LISTING /tmp/ccUjdNV5.s 			page 27


 1091              		.loc 1 252 22 is_stmt 0 discriminator 1
 1092 0678 97070000 		lla	a5,_ZZ16interruptRoutineE1i
 1092      93870700 
 1093 0680 13070002 		li	a4,32
 1094 0684 2380E700 		sb	a4,0(a5)
 1095 0688 6F004001 		j	.L46
 1096              	.L45:
 254:src/interruptRoutine.cpp **** 			}
 1097              		.loc 1 254 5 is_stmt 1
 254:src/interruptRoutine.cpp **** 			}
 1098              		.loc 1 254 16 is_stmt 0
 1099 068c 17050000 		lla	a0,.LC4
 1099      13050500 
 1100 0694 97000000 		call	_Z11printStringPKc@plt
 1100      E7800000 
 1101              	.LVL131:
 1102              	.L46:
 257:src/interruptRoutine.cpp **** 		} else {
 1103              		.loc 1 257 4 is_stmt 1
 257:src/interruptRoutine.cpp **** 		} else {
 1104              		.loc 1 257 17 is_stmt 0
 1105 069c 833704F8 		ld	a5,-128(s0)
 1106 06a0 9B870700 		sext.w	a5,a5
 1107 06a4 13850700 		mv	a0,a5
 1108 06a8 97000000 		call	plic_complete@plt
 1108      E7800000 
 1109              	.LVL132:
 1110 06b0 6F004001 		j	.L47
 1111              	.LVL133:
 1112              	.L43:
 259:src/interruptRoutine.cpp **** 		}
 1113              		.loc 1 259 4 is_stmt 1
 259:src/interruptRoutine.cpp **** 		}
 1114              		.loc 1 259 15 is_stmt 0
 1115 06b4 17050000 		lla	a0,.LC5
 1115      13050500 
 1116              	.LVL134:
 1117 06bc 97000000 		call	_Z11printStringPKc@plt
 1117      E7800000 
 1118              	.LVL135:
 1119              	.L47:
 262:src/interruptRoutine.cpp **** 		Riscv::w_sstatus(sstatus);
 1120              		.loc 1 262 3 is_stmt 1
 262:src/interruptRoutine.cpp **** 		Riscv::w_sstatus(sstatus);
 1121              		.loc 1 262 16 is_stmt 0
 1122 06c4 033504FD 		ld	a0,-48(s0)
 1123 06c8 97000000 		call	_ZN5Riscv6w_sepcEm
 1123      E7800000 
 1124              	.LVL136:
 263:src/interruptRoutine.cpp **** 		Riscv::mc_sip(Riscv::SIP_SEIP);
 1125              		.loc 1 263 3 is_stmt 1
 263:src/interruptRoutine.cpp **** 		Riscv::mc_sip(Riscv::SIP_SEIP);
 1126              		.loc 1 263 19 is_stmt 0
 1127 06d0 033584FC 		ld	a0,-56(s0)
 1128 06d4 97000000 		call	_ZN5Riscv9w_sstatusEm
 1128      E7800000 
 1129              	.LVL137:
GAS LISTING /tmp/ccUjdNV5.s 			page 28


 264:src/interruptRoutine.cpp **** 	} else if (scause == (1UL << 63 | 1)) {
 1130              		.loc 1 264 3 is_stmt 1
 264:src/interruptRoutine.cpp **** 	} else if (scause == (1UL << 63 | 1)) {
 1131              		.loc 1 264 16 is_stmt 0
 1132 06dc 13050020 		li	a0,512
 1133 06e0 97000000 		call	_ZN5Riscv6mc_sipEm
 1133      E7800000 
 1134              	.LVL138:
 1135              	.LBE8:
 1136              	.LBE7:
 1137              	.LBE6:
 1138              	.LBE13:
 1139              		.loc 1 286 1
 1140 06e8 6F00800F 		j	.L53
 1141              	.LVL139:
 1142              	.L42:
 1143              	.LBB14:
 1144              	.LBB11:
 1145              	.LBB9:
 265:src/interruptRoutine.cpp **** 		//prekid od tajmera
 1146              		.loc 1 265 9 is_stmt 1
 1147 06ec 033784FD 		ld	a4,-40(s0)
 1148 06f0 9307F0FF 		li	a5,-1
 1149 06f4 9397F703 		slli	a5,a5,63
 1150 06f8 93871700 		addi	a5,a5,1
 1151 06fc 631EF708 		bne	a4,a5,.L48
 268:src/interruptRoutine.cpp **** 		TCB::runningTimeSlice++;
 1152              		.loc 1 268 3
 268:src/interruptRoutine.cpp **** 		TCB::runningTimeSlice++;
 1153              		.loc 1 268 18 is_stmt 0
 1154 0700 97000000 		call	_ZN9Scheduler4wakeEv@plt
 1154      E7800000 
 1155              	.LVL140:
 269:src/interruptRoutine.cpp **** 		if (TCB::runningTimeSlice >= TCB::running->getTimeSlice()) {
 1156              		.loc 1 269 3 is_stmt 1
 269:src/interruptRoutine.cpp **** 		if (TCB::runningTimeSlice >= TCB::running->getTimeSlice()) {
 1157              		.loc 1 269 24 is_stmt 0
 1158 0708 97070000 		la	a5,_ZN3TCB16runningTimeSliceE
 1158      83B70700 
 1159 0710 83B70700 		ld	a5,0(a5)
 1160 0714 13871700 		addi	a4,a5,1
 1161 0718 97070000 		la	a5,_ZN3TCB16runningTimeSliceE
 1161      83B70700 
 1162 0720 23B0E700 		sd	a4,0(a5)
 270:src/interruptRoutine.cpp **** 			//printString("\nMenjam kontekst\n");
 1163              		.loc 1 270 3 is_stmt 1
 270:src/interruptRoutine.cpp **** 			//printString("\nMenjam kontekst\n");
 1164              		.loc 1 270 58 is_stmt 0
 1165 0724 97070000 		la	a5,_ZN3TCB7runningE
 1165      83B70700 
 1166 072c 83B70700 		ld	a5,0(a5)
 1167 0730 13850700 		mv	a0,a5
 1168 0734 97000000 		call	_ZN3TCB12getTimeSliceEv
 1168      E7800000 
 1169              	.LVL141:
 1170 073c 13070500 		mv	a4,a0
 270:src/interruptRoutine.cpp **** 			//printString("\nMenjam kontekst\n");
GAS LISTING /tmp/ccUjdNV5.s 			page 29


 1171              		.loc 1 270 29
 1172 0740 97070000 		la	a5,_ZN3TCB16runningTimeSliceE
 1172      83B70700 
 1173 0748 83B70700 		ld	a5,0(a5)
 1174 074c B3B7E700 		sgtu	a5,a4,a5
 1175 0750 93C71700 		xori	a5,a5,1
 1176 0754 93F7F70F 		andi	a5,a5,0xff
 270:src/interruptRoutine.cpp **** 			//printString("\nMenjam kontekst\n");
 1177              		.loc 1 270 3
 1178 0758 638C0700 		beqz	a5,.L49
 272:src/interruptRoutine.cpp **** 			TCB::runningTimeSlice = 0;
 1179              		.loc 1 272 4 is_stmt 1
 272:src/interruptRoutine.cpp **** 			TCB::runningTimeSlice = 0;
 1180              		.loc 1 272 14 is_stmt 0
 1181 075c 97000000 		call	_ZN3TCB5yieldEv@plt
 1181      E7800000 
 1182              	.LVL142:
 273:src/interruptRoutine.cpp **** 		}
 1183              		.loc 1 273 4 is_stmt 1
 273:src/interruptRoutine.cpp **** 		}
 1184              		.loc 1 273 26 is_stmt 0
 1185 0764 97070000 		la	a5,_ZN3TCB16runningTimeSliceE
 1185      83B70700 
 1186 076c 23B00700 		sd	zero,0(a5)
 1187              	.L49:
 276:src/interruptRoutine.cpp **** 		Riscv::w_sstatus(sstatus);
 1188              		.loc 1 276 3 is_stmt 1
 276:src/interruptRoutine.cpp **** 		Riscv::w_sstatus(sstatus);
 1189              		.loc 1 276 16 is_stmt 0
 1190 0770 033504FD 		ld	a0,-48(s0)
 1191 0774 97000000 		call	_ZN5Riscv6w_sepcEm
 1191      E7800000 
 1192              	.LVL143:
 277:src/interruptRoutine.cpp **** 		Riscv::mc_sip(Riscv::SIP_SSIP);
 1193              		.loc 1 277 3 is_stmt 1
 277:src/interruptRoutine.cpp **** 		Riscv::mc_sip(Riscv::SIP_SSIP);
 1194              		.loc 1 277 19 is_stmt 0
 1195 077c 033584FC 		ld	a0,-56(s0)
 1196 0780 97000000 		call	_ZN5Riscv9w_sstatusEm
 1196      E7800000 
 1197              	.LVL144:
 278:src/interruptRoutine.cpp **** 	} else {
 1198              		.loc 1 278 3 is_stmt 1
 278:src/interruptRoutine.cpp **** 	} else {
 1199              		.loc 1 278 16 is_stmt 0
 1200 0788 13052000 		li	a0,2
 1201 078c 97000000 		call	_ZN5Riscv6mc_sipEm
 1201      E7800000 
 1202              	.LVL145:
 1203              	.LBE9:
 1204              	.LBE11:
 1205              	.LBE14:
 1206              		.loc 1 286 1
 1207 0794 6F00C004 		j	.L53
 1208              	.LVL146:
 1209              	.L48:
 1210              	.LBB15:
GAS LISTING /tmp/ccUjdNV5.s 			page 30


 1211              	.LBB12:
 1212              	.LBB10:
 280:src/interruptRoutine.cpp **** 		printString("scause: ");
 1213              		.loc 1 280 3 is_stmt 1
 280:src/interruptRoutine.cpp **** 		printString("scause: ");
 1214              		.loc 1 280 14 is_stmt 0
 1215 0798 17050000 		lla	a0,.LC6
 1215      13050500 
 1216 07a0 97000000 		call	_Z11printStringPKc@plt
 1216      E7800000 
 1217              	.LVL147:
 281:src/interruptRoutine.cpp **** 		printInteger(scause);
 1218              		.loc 1 281 3 is_stmt 1
 281:src/interruptRoutine.cpp **** 		printInteger(scause);
 1219              		.loc 1 281 14 is_stmt 0
 1220 07a8 17050000 		lla	a0,.LC7
 1220      13050500 
 1221 07b0 97000000 		call	_Z11printStringPKc@plt
 1221      E7800000 
 1222              	.LVL148:
 282:src/interruptRoutine.cpp **** 		printString("\nsepc: ");
 1223              		.loc 1 282 3 is_stmt 1
 282:src/interruptRoutine.cpp **** 		printString("\nsepc: ");
 1224              		.loc 1 282 15 is_stmt 0
 1225 07b8 033584FD 		ld	a0,-40(s0)
 1226 07bc 97000000 		call	_Z12printIntegerm@plt
 1226      E7800000 
 1227              	.LVL149:
 283:src/interruptRoutine.cpp **** 		printInteger(sepc);
 1228              		.loc 1 283 3 is_stmt 1
 283:src/interruptRoutine.cpp **** 		printInteger(sepc);
 1229              		.loc 1 283 14 is_stmt 0
 1230 07c4 17050000 		lla	a0,.LC2
 1230      13050500 
 1231 07cc 97000000 		call	_Z11printStringPKc@plt
 1231      E7800000 
 1232              	.LVL150:
 284:src/interruptRoutine.cpp **** 	}
 1233              		.loc 1 284 3 is_stmt 1
 284:src/interruptRoutine.cpp **** 	}
 1234              		.loc 1 284 15 is_stmt 0
 1235 07d4 033504FD 		ld	a0,-48(s0)
 1236 07d8 97000000 		call	_Z12printIntegerm@plt
 1236      E7800000 
 1237              	.LVL151:
 1238              	.L53:
 1239              	.LBE10:
 1240              	.LBE12:
 1241              	.LBE15:
 1242              		.loc 1 286 1
 1243 07e0 13000000 		nop
 1244 07e4 83308113 		ld	ra,312(sp)
 1245              		.cfi_restore 1
 1246 07e8 03340113 		ld	s0,304(sp)
 1247              		.cfi_restore 8
 1248              		.cfi_def_cfa 2, 320
 1249              	.LVL152:
GAS LISTING /tmp/ccUjdNV5.s 			page 31


 1250 07ec 13010114 		addi	sp,sp,320
 1251              		.cfi_def_cfa_offset 0
 1252              	.LVL153:
 1253 07f0 67800000 		jr	ra
 1254              		.cfi_endproc
 1255              	.LFE51:
 1257              		.section	.text._ZN5Riscv6w_sepcEm,"axG",@progbits,_ZN5Riscv6w_sepcEm,comdat
 1258              		.align	2
 1259              		.weak	_ZN5Riscv6w_sepcEm
 1261              	_ZN5Riscv6w_sepcEm:
 1262              	.LFB6:
 1263              		.file 2 "src/../h/Riscv.hpp"
   1:src/../h/Riscv.hpp **** //
   2:src/../h/Riscv.hpp **** // Created by os on 5/17/23.
   3:src/../h/Riscv.hpp **** //
   4:src/../h/Riscv.hpp **** 
   5:src/../h/Riscv.hpp **** #ifndef PROJEKAT2023_RISCV_HPP
   6:src/../h/Riscv.hpp **** #define PROJEKAT2023_RISCV_HPP
   7:src/../h/Riscv.hpp **** 
   8:src/../h/Riscv.hpp **** #include "../lib/hw.h"
   9:src/../h/Riscv.hpp **** 
  10:src/../h/Riscv.hpp **** class Riscv {
  11:src/../h/Riscv.hpp **** public:
  12:src/../h/Riscv.hpp **** 
  13:src/../h/Riscv.hpp **** 	static void popSppSpie();
  14:src/../h/Riscv.hpp **** 
  15:src/../h/Riscv.hpp **** 	//stavljanje registara x3-x31 na stek
  16:src/../h/Riscv.hpp **** 	static void pushRegisters();    //implementacija u asm
  17:src/../h/Riscv.hpp **** 
  18:src/../h/Riscv.hpp **** 	//skidanje registara x3-x31 sa steka
  19:src/../h/Riscv.hpp **** 	static void popRegisters();     //implementacija u asm
  20:src/../h/Riscv.hpp **** 
  21:src/../h/Riscv.hpp **** 	//read scause
  22:src/../h/Riscv.hpp **** 	static uint64 r_scause();
  23:src/../h/Riscv.hpp **** 
  24:src/../h/Riscv.hpp **** 	//write scause
  25:src/../h/Riscv.hpp **** 	static void w_scause(uint64 scause);
  26:src/../h/Riscv.hpp **** 
  27:src/../h/Riscv.hpp **** 	//read sepc
  28:src/../h/Riscv.hpp **** 	static uint64 r_sepc();
  29:src/../h/Riscv.hpp **** 
  30:src/../h/Riscv.hpp **** 	//write sepc
  31:src/../h/Riscv.hpp **** 	static void w_sepc(uint64 sepc);
  32:src/../h/Riscv.hpp **** 
  33:src/../h/Riscv.hpp **** 	//read stvec
  34:src/../h/Riscv.hpp **** 	static uint64 r_stvec();
  35:src/../h/Riscv.hpp **** 
  36:src/../h/Riscv.hpp **** 	//write stvec
  37:src/../h/Riscv.hpp **** 	static void w_stvec(uint64 stvec);
  38:src/../h/Riscv.hpp **** 
  39:src/../h/Riscv.hpp **** 	enum BitMaskSip {
  40:src/../h/Riscv.hpp **** 		//postoji zahtev za softverski prekid
  41:src/../h/Riscv.hpp **** 		SIP_SSIP = (1 << 1),
  42:src/../h/Riscv.hpp **** 		//postoji prekid od tajmera
  43:src/../h/Riscv.hpp **** 		SIP_STIP = (1 << 5),
  44:src/../h/Riscv.hpp **** 		//postoji zahtev za spoljasnji hardverski prekid
  45:src/../h/Riscv.hpp **** 		SIP_SEIP = (1 << 9)
GAS LISTING /tmp/ccUjdNV5.s 			page 32


  46:src/../h/Riscv.hpp **** 	};
  47:src/../h/Riscv.hpp **** 
  48:src/../h/Riscv.hpp **** 	//mask set sip
  49:src/../h/Riscv.hpp **** 	static void ms_sip(uint64 mask);
  50:src/../h/Riscv.hpp **** 
  51:src/../h/Riscv.hpp **** 	//mask clear sip
  52:src/../h/Riscv.hpp **** 	static void mc_sip(uint64 mask);
  53:src/../h/Riscv.hpp **** 
  54:src/../h/Riscv.hpp **** 	//read sip
  55:src/../h/Riscv.hpp **** 	static uint64 r_sip();
  56:src/../h/Riscv.hpp **** 
  57:src/../h/Riscv.hpp **** 	//write sip
  58:src/../h/Riscv.hpp **** 	static void w_sip(uint64 sip);
  59:src/../h/Riscv.hpp **** 
  60:src/../h/Riscv.hpp **** 	//kada se pozove sret, SIE dobija vrednost SPIE, SPIE se postavlja na 1,
  61:src/../h/Riscv.hpp **** 	//rezim se postavlja na osnovu SPP bita, SPP se postavlja na 0
  62:src/../h/Riscv.hpp **** 	enum BitMaskSstatus {
  63:src/../h/Riscv.hpp **** 		//1 - dozvoljeni prekidi; 0- nedozvoljeni prekidi; igonrise se u korisnickom rezimu
  64:src/../h/Riscv.hpp **** 		SSTATUS_SIE = (1 << 1),
  65:src/../h/Riscv.hpp **** 		//prethodna vrednost bita SIE
  66:src/../h/Riscv.hpp **** 		SSTATUS_SPIE = (1 << 5),
  67:src/../h/Riscv.hpp **** 		//iz kog rezima se desio skok; 0 - iz korisnickog; 1 - iz sistemskog
  68:src/../h/Riscv.hpp **** 		SSTATUS_SPP = (1 << 8)
  69:src/../h/Riscv.hpp **** 	};
  70:src/../h/Riscv.hpp **** 
  71:src/../h/Riscv.hpp **** 	//mask set sstatus
  72:src/../h/Riscv.hpp **** 	static void ms_sstatus(uint64 mask);
  73:src/../h/Riscv.hpp **** 
  74:src/../h/Riscv.hpp **** 	//mask clear sstatus
  75:src/../h/Riscv.hpp **** 	static void mc_sstatus(uint64 mask);
  76:src/../h/Riscv.hpp **** 
  77:src/../h/Riscv.hpp **** 	//read sstatus
  78:src/../h/Riscv.hpp **** 	static uint64 r_sstatus();
  79:src/../h/Riscv.hpp **** 
  80:src/../h/Riscv.hpp **** 	//write sstatus
  81:src/../h/Riscv.hpp **** 	static void w_sstatus(uint64 sstatus);
  82:src/../h/Riscv.hpp **** 
  83:src/../h/Riscv.hpp **** 	//upisuje kod sistemskog poziva u registar a0
  84:src/../h/Riscv.hpp **** 	static void loadOpCode(uint64 opCode);
  85:src/../h/Riscv.hpp **** 
  86:src/../h/Riscv.hpp **** };
  87:src/../h/Riscv.hpp **** 
  88:src/../h/Riscv.hpp **** inline uint64 Riscv::r_scause() {
  89:src/../h/Riscv.hpp **** 	uint64 volatile scause;
  90:src/../h/Riscv.hpp **** 	__asm__ volatile("csrr %[scause], scause": [scause] "=r"(scause));
  91:src/../h/Riscv.hpp **** 	return scause;
  92:src/../h/Riscv.hpp **** }
  93:src/../h/Riscv.hpp **** 
  94:src/../h/Riscv.hpp **** inline void Riscv::w_scause(uint64 scause) {
  95:src/../h/Riscv.hpp **** 	__asm__ volatile("csrw scause, %[scause]": :[scause] "r"(scause));
  96:src/../h/Riscv.hpp **** }
  97:src/../h/Riscv.hpp **** 
  98:src/../h/Riscv.hpp **** inline uint64 Riscv::r_sepc() {
  99:src/../h/Riscv.hpp **** 	uint64 volatile sepc;
 100:src/../h/Riscv.hpp **** 	__asm__ volatile("csrr %[sepc], sepc": [sepc] "=r"(sepc));
 101:src/../h/Riscv.hpp **** 	return sepc;
 102:src/../h/Riscv.hpp **** }
GAS LISTING /tmp/ccUjdNV5.s 			page 33


 103:src/../h/Riscv.hpp **** 
 104:src/../h/Riscv.hpp **** inline void Riscv::w_sepc(uint64 sepc) {
 1264              		.loc 2 104 40 is_stmt 1
 1265              		.cfi_startproc
 1266              	.LVL154:
 1267 0000 130101FF 		addi	sp,sp,-16
 1268              		.cfi_def_cfa_offset 16
 1269 0004 23348100 		sd	s0,8(sp)
 1270              		.cfi_offset 8, -8
 1271 0008 13040101 		addi	s0,sp,16
 1272              		.cfi_def_cfa 8, 0
 105:src/../h/Riscv.hpp **** 	__asm__ volatile("csrw sepc, %[sepc]": :[sepc] "r"(sepc));
 1273              		.loc 2 105 2
 1274              		.loc 2 105 59 is_stmt 0
 1275              	#APP
 1276              	# 105 "src/../h/Riscv.hpp" 1
 106              	}
 1277              		csrw sepc, a0
 1278              	# 0 "" 2
 1279              		.loc 2 106 1
 1280              	#NO_APP
 1281 0010 03348100 		ld	s0,8(sp)
 1282              		.cfi_restore 8
 1283              		.cfi_def_cfa 2, 16
 1284 0014 13010101 		addi	sp,sp,16
 1285              		.cfi_def_cfa_offset 0
 1286 0018 67800000 		jr	ra
 1287              		.cfi_endproc
 1288              	.LFE6:
 1290              		.section	.text._ZN5Riscv6mc_sipEm,"axG",@progbits,_ZN5Riscv6mc_sipEm,comdat
 1291              		.align	2
 1292              		.weak	_ZN5Riscv6mc_sipEm
 1294              	_ZN5Riscv6mc_sipEm:
 1295              	.LFB10:
 107:src/../h/Riscv.hpp **** 
 108:src/../h/Riscv.hpp **** inline uint64 Riscv::r_stvec() {
 109:src/../h/Riscv.hpp **** 	uint64 volatile stvec;
 110:src/../h/Riscv.hpp **** 	__asm__ volatile("csrr %[stvec], stvec": [stvec] "=r"(stvec));
 111:src/../h/Riscv.hpp **** 	return stvec;
 112:src/../h/Riscv.hpp **** }
 113:src/../h/Riscv.hpp **** 
 114:src/../h/Riscv.hpp **** inline void Riscv::w_stvec(uint64 stvec) {
 115:src/../h/Riscv.hpp **** 	__asm__ volatile("csrw stvec, %[stvec]": :[stvec] "r"(stvec));
 116:src/../h/Riscv.hpp **** }
 117:src/../h/Riscv.hpp **** 
 118:src/../h/Riscv.hpp **** inline void Riscv::ms_sip(uint64 mask) {
 119:src/../h/Riscv.hpp **** 	__asm__ volatile("csrs sip, %[mask]": :[mask] "r"(mask));
 120:src/../h/Riscv.hpp **** }
 121:src/../h/Riscv.hpp **** 
 122:src/../h/Riscv.hpp **** inline void Riscv::mc_sip(uint64 mask) {
 1296              		.loc 2 122 40 is_stmt 1
 1297              		.cfi_startproc
 1298              	.LVL155:
 1299 0000 130101FF 		addi	sp,sp,-16
 1300              		.cfi_def_cfa_offset 16
 1301 0004 23348100 		sd	s0,8(sp)
 1302              		.cfi_offset 8, -8
GAS LISTING /tmp/ccUjdNV5.s 			page 34


 1303 0008 13040101 		addi	s0,sp,16
 1304              		.cfi_def_cfa 8, 0
 123:src/../h/Riscv.hpp **** 	__asm__ volatile("csrc sip, %[mask]": :[mask] "r"(mask));
 1305              		.loc 2 123 2
 1306              		.loc 2 123 58 is_stmt 0
 1307              	#APP
 1308              	# 123 "src/../h/Riscv.hpp" 1
 124              	}
 1309              		csrc sip, a0
 1310              	# 0 "" 2
 1311              		.loc 2 124 1
 1312              	#NO_APP
 1313 0010 03348100 		ld	s0,8(sp)
 1314              		.cfi_restore 8
 1315              		.cfi_def_cfa 2, 16
 1316 0014 13010101 		addi	sp,sp,16
 1317              		.cfi_def_cfa_offset 0
 1318 0018 67800000 		jr	ra
 1319              		.cfi_endproc
 1320              	.LFE10:
 1322              		.section	.text._ZN5Riscv9w_sstatusEm,"axG",@progbits,_ZN5Riscv9w_sstatusEm,comdat
 1323              		.align	2
 1324              		.weak	_ZN5Riscv9w_sstatusEm
 1326              	_ZN5Riscv9w_sstatusEm:
 1327              	.LFB16:
 125:src/../h/Riscv.hpp **** 
 126:src/../h/Riscv.hpp **** inline uint64 Riscv::r_sip() {
 127:src/../h/Riscv.hpp **** 	uint64 volatile sip;
 128:src/../h/Riscv.hpp **** 	__asm__ volatile("csrr %[sip], sip": [sip] "=r"(sip));
 129:src/../h/Riscv.hpp **** 	return sip;
 130:src/../h/Riscv.hpp **** }
 131:src/../h/Riscv.hpp **** 
 132:src/../h/Riscv.hpp **** inline void Riscv::w_sip(uint64 sip) {
 133:src/../h/Riscv.hpp **** 	__asm__ volatile("csrw sip, %[sip]": :[sip] "r"(sip));
 134:src/../h/Riscv.hpp **** }
 135:src/../h/Riscv.hpp **** 
 136:src/../h/Riscv.hpp **** inline void Riscv::ms_sstatus(uint64 mask) {
 137:src/../h/Riscv.hpp **** 	__asm__ volatile("csrs sstatus, %[mask]": :[mask] "r"(mask));
 138:src/../h/Riscv.hpp **** }
 139:src/../h/Riscv.hpp **** 
 140:src/../h/Riscv.hpp **** inline void Riscv::mc_sstatus(uint64 mask) {
 141:src/../h/Riscv.hpp **** 	__asm__ volatile("csrc sstatus, %[mask]": :[mask] "r"(mask));
 142:src/../h/Riscv.hpp **** }
 143:src/../h/Riscv.hpp **** 
 144:src/../h/Riscv.hpp **** inline uint64 Riscv::r_sstatus() {
 145:src/../h/Riscv.hpp **** 	uint64 volatile sstatus;
 146:src/../h/Riscv.hpp **** 	__asm__ volatile("csrr %[sstatus], sstatus": [sstatus] "=r"(sstatus));
 147:src/../h/Riscv.hpp **** 	return sstatus;
 148:src/../h/Riscv.hpp **** }
 149:src/../h/Riscv.hpp **** 
 150:src/../h/Riscv.hpp **** inline void Riscv::w_sstatus(uint64 sstatus) {
 1328              		.loc 2 150 46 is_stmt 1
 1329              		.cfi_startproc
 1330              	.LVL156:
 1331 0000 130101FF 		addi	sp,sp,-16
 1332              		.cfi_def_cfa_offset 16
 1333 0004 23348100 		sd	s0,8(sp)
GAS LISTING /tmp/ccUjdNV5.s 			page 35


 1334              		.cfi_offset 8, -8
 1335 0008 13040101 		addi	s0,sp,16
 1336              		.cfi_def_cfa 8, 0
 151:src/../h/Riscv.hpp **** 	__asm__ volatile("csrw sstatus, %[sstatus]": :[sstatus] "r"(sstatus));
 1337              		.loc 2 151 2
 1338              		.loc 2 151 71 is_stmt 0
 1339              	#APP
 1340              	# 151 "src/../h/Riscv.hpp" 1
 152              	}
 1341              		csrw sstatus, a0
 1342              	# 0 "" 2
 1343              		.loc 2 152 1
 1344              	#NO_APP
 1345 0010 03348100 		ld	s0,8(sp)
 1346              		.cfi_restore 8
 1347              		.cfi_def_cfa 2, 16
 1348 0014 13010101 		addi	sp,sp,16
 1349              		.cfi_def_cfa_offset 0
 1350 0018 67800000 		jr	ra
 1351              		.cfi_endproc
 1352              	.LFE16:
 1354              		.section	.text._ZN3TCB11setFinishedEb,"axG",@progbits,_ZN3TCB11setFinishedEb,comdat
 1355              		.align	2
 1356              		.weak	_ZN3TCB11setFinishedEb
 1358              	_ZN3TCB11setFinishedEb:
 1359              	.LFB33:
 1360              		.file 3 "src/../h/TCB.hpp"
   1:src/../h/TCB.hpp **** //
   2:src/../h/TCB.hpp **** // Created by os on 5/23/23.
   3:src/../h/TCB.hpp **** //
   4:src/../h/TCB.hpp **** 
   5:src/../h/TCB.hpp **** #ifndef PROJEKAT2023_TCB_HPP
   6:src/../h/TCB.hpp **** #define PROJEKAT2023_TCB_HPP
   7:src/../h/TCB.hpp **** 
   8:src/../h/TCB.hpp **** #include "../lib/hw.h"
   9:src/../h/TCB.hpp **** #include "../h/ThreadQueue.hpp"
  10:src/../h/TCB.hpp **** 
  11:src/../h/TCB.hpp **** class TCB {
  12:src/../h/TCB.hpp **** public:
  13:src/../h/TCB.hpp **** 	friend class Scheduler;
  14:src/../h/TCB.hpp **** 
  15:src/../h/TCB.hpp **** 	using Body = void (*)(void*);
  16:src/../h/TCB.hpp **** 
  17:src/../h/TCB.hpp **** 	static TCB* createThread(Body function, void* args, uint64* stack);
  18:src/../h/TCB.hpp **** 	static void start(TCB* newTcb);
  19:src/../h/TCB.hpp **** 
  20:src/../h/TCB.hpp **** 	bool isFinished() { return finished; }
  21:src/../h/TCB.hpp **** 
  22:src/../h/TCB.hpp **** 	void setFinished(bool finish) { this->finished = finish; }
 1361              		.loc 3 22 7 is_stmt 1
 1362              		.cfi_startproc
 1363              	.LVL157:
 1364 0000 130101FF 		addi	sp,sp,-16
 1365              		.cfi_def_cfa_offset 16
 1366 0004 23348100 		sd	s0,8(sp)
 1367              		.cfi_offset 8, -8
 1368 0008 13040101 		addi	s0,sp,16
GAS LISTING /tmp/ccUjdNV5.s 			page 36


 1369              		.cfi_def_cfa 8, 0
 1370              		.loc 3 22 34
 1371              		.loc 3 22 49 is_stmt 0
 1372 000c 2308B502 		sb	a1,48(a0)
 1373              		.loc 3 22 59
 1374 0010 03348100 		ld	s0,8(sp)
 1375              		.cfi_restore 8
 1376              		.cfi_def_cfa 2, 16
 1377 0014 13010101 		addi	sp,sp,16
 1378              		.cfi_def_cfa_offset 0
 1379 0018 67800000 		jr	ra
 1380              		.cfi_endproc
 1381              	.LFE33:
 1383              		.section	.text._ZN3TCB12getTimeSliceEv,"axG",@progbits,_ZN3TCB12getTimeSliceEv,comdat
 1384              		.align	2
 1385              		.weak	_ZN3TCB12getTimeSliceEv
 1387              	_ZN3TCB12getTimeSliceEv:
 1388              	.LFB36:
  23:src/../h/TCB.hpp **** 
  24:src/../h/TCB.hpp **** 	bool isBlocked() { return blocked; }
  25:src/../h/TCB.hpp **** 
  26:src/../h/TCB.hpp **** 	void setBlocked(bool block) { this->blocked = block; }
  27:src/../h/TCB.hpp **** 
  28:src/../h/TCB.hpp **** 	uint64 getTimeSlice() { return timeSlice; }
 1389              		.loc 3 28 9 is_stmt 1
 1390              		.cfi_startproc
 1391              	.LVL158:
 1392 0000 130101FF 		addi	sp,sp,-16
 1393              		.cfi_def_cfa_offset 16
 1394 0004 23348100 		sd	s0,8(sp)
 1395              		.cfi_offset 8, -8
 1396 0008 13040101 		addi	s0,sp,16
 1397              		.cfi_def_cfa 8, 0
 1398              		.loc 3 28 26
 1399              		.loc 3 28 44 is_stmt 0
 1400 000c 03358502 		ld	a0,40(a0)
 1401              	.LVL159:
 1402 0010 03348100 		ld	s0,8(sp)
 1403              		.cfi_restore 8
 1404              		.cfi_def_cfa 2, 16
 1405 0014 13010101 		addi	sp,sp,16
 1406              		.cfi_def_cfa_offset 0
 1407 0018 67800000 		jr	ra
 1408              		.cfi_endproc
 1409              	.LFE36:
 1411              		.data
 1412              		.align	3
 1415              	_ZZ16interruptRoutineE6digits:
 1416 0000 30313233 		.string	"0123456789"
 1416      34353637 
 1416      383900
 1419              	_ZZ16interruptRoutineE1i:
 1420 000b 20       		.byte	32
 1423              	_ZZ16interruptRoutineE1c:
 1424 000c 0A       		.byte	10
 1425              		.text
 1426              	.Letext0:
GAS LISTING /tmp/ccUjdNV5.s 			page 37


 1427              		.file 4 "src/../lib/hw.h"
 1428              		.file 5 "src/../h/MemoryAllocator.hpp"
 1429              		.file 6 "src/../h/syscall_c.hpp"
 1430              		.file 7 "src/../h/KSem.hpp"
 1431              		.file 8 "src/../h/../h/ThreadQueue.hpp"
 1432              		.file 9 "src/../h/Scheduler.hpp"
 1433              		.file 10 "src/../lib/console.h"
 1434              		.file 11 "src/../h/../test/printing.hpp"
 1435              		.file 12 "src/../h/helper.hpp"
GAS LISTING /tmp/ccUjdNV5.s 			page 38


DEFINED SYMBOLS
                            *ABS*:0000000000000000 interruptRoutine.cpp
     /tmp/ccUjdNV5.s:35     .text:0000000000000000 interruptRoutine
     /tmp/ccUjdNV5.s:39     .text:0000000000000000 .L0 
     /tmp/ccUjdNV5.s:40     .text:0000000000000000 .L0 
     /tmp/ccUjdNV5.s:41     .text:0000000000000004 .L0 
     /tmp/ccUjdNV5.s:44     .text:000000000000000c .L0 
     /tmp/ccUjdNV5.s:45     .text:000000000000000c .L0 
     /tmp/ccUjdNV5.s:47     .text:0000000000000010 .L0 
     /tmp/ccUjdNV5.s:49     .text:0000000000000010 .L0 
     /tmp/ccUjdNV5.s:50     .text:0000000000000010 .L0 
src/interruptRoutine.cpp:23     .text:0000000000000010 .L0 
     /tmp/ccUjdNV5.s:59     .text:0000000000000018 .L0 
src/interruptRoutine.cpp:24     .text:0000000000000018 .L0 
     /tmp/ccUjdNV5.s:69     .text:0000000000000020 .L0 
src/interruptRoutine.cpp:26     .text:0000000000000020 .L0 
     /tmp/ccUjdNV5.s:79     .text:0000000000000028 .L0 
     /tmp/ccUjdNV5.s:80     .text:0000000000000028 .L0 
src/interruptRoutine.cpp:28     .text:0000000000000028 .L0 
     /tmp/ccUjdNV5.s:90     .text:0000000000000030 .L0 
src/interruptRoutine.cpp:29     .text:0000000000000030 .L0 
     /tmp/ccUjdNV5.s:100    .text:0000000000000038 .L0 
src/interruptRoutine.cpp:30     .text:0000000000000038 .L0 
     /tmp/ccUjdNV5.s:110    .text:0000000000000040 .L0 
src/interruptRoutine.cpp:31     .text:0000000000000040 .L0 
     /tmp/ccUjdNV5.s:120    .text:0000000000000048 .L0 
src/interruptRoutine.cpp:32     .text:0000000000000048 .L0 
     /tmp/ccUjdNV5.s:130    .text:0000000000000050 .L0 
src/interruptRoutine.cpp:33     .text:0000000000000050 .L0 
     /tmp/ccUjdNV5.s:140    .text:0000000000000058 .L0 
src/interruptRoutine.cpp:34     .text:0000000000000058 .L0 
     /tmp/ccUjdNV5.s:150    .text:0000000000000060 .L0 
src/interruptRoutine.cpp:35     .text:0000000000000060 .L0 
     /tmp/ccUjdNV5.s:161    .text:0000000000000068 .L0 
     /tmp/ccUjdNV5.s:165    .text:0000000000000074 .L0 
     /tmp/ccUjdNV5.s:171    .text:0000000000000080 .L0 
     /tmp/ccUjdNV5.s:172    .text:0000000000000080 .L0 
     /tmp/ccUjdNV5.s:177    .text:0000000000000088 .L0 
     /tmp/ccUjdNV5.s:297    .text:000000000000012c .L0 
     /tmp/ccUjdNV5.s:298    .text:000000000000012c .L0 
     /tmp/ccUjdNV5.s:299    .text:000000000000012c .L0 
     /tmp/ccUjdNV5.s:300    .text:000000000000012c .L0 
     /tmp/ccUjdNV5.s:304    .text:0000000000000134 .L0 
     /tmp/ccUjdNV5.s:305    .text:0000000000000134 .L0 
     /tmp/ccUjdNV5.s:311    .text:0000000000000140 .L0 
     /tmp/ccUjdNV5.s:312    .text:0000000000000140 .L0 
     /tmp/ccUjdNV5.s:317    .text:0000000000000150 .L0 
src/interruptRoutine.cpp:48     .text:0000000000000150 .L0 
     /tmp/ccUjdNV5.s:324    .text:0000000000000154 .L0 
     /tmp/ccUjdNV5.s:328    .text:0000000000000158 .L0 
     /tmp/ccUjdNV5.s:329    .text:0000000000000158 .L0 
     /tmp/ccUjdNV5.s:330    .text:0000000000000158 .L0 
     /tmp/ccUjdNV5.s:331    .text:0000000000000158 .L0 
     /tmp/ccUjdNV5.s:335    .text:0000000000000160 .L0 
     /tmp/ccUjdNV5.s:336    .text:0000000000000160 .L0 
     /tmp/ccUjdNV5.s:340    .text:000000000000016c .L0 
src/interruptRoutine.cpp:56     .text:000000000000016c .L0 
GAS LISTING /tmp/ccUjdNV5.s 			page 39


     /tmp/ccUjdNV5.s:347    .text:0000000000000170 .L0 
     /tmp/ccUjdNV5.s:351    .text:0000000000000174 .L0 
     /tmp/ccUjdNV5.s:352    .text:0000000000000174 .L0 
     /tmp/ccUjdNV5.s:353    .text:0000000000000174 .L0 
     /tmp/ccUjdNV5.s:354    .text:0000000000000174 .L0 
     /tmp/ccUjdNV5.s:358    .text:000000000000017c .L0 
     /tmp/ccUjdNV5.s:359    .text:000000000000017c .L0 
     /tmp/ccUjdNV5.s:360    .text:000000000000017c .L0 
     /tmp/ccUjdNV5.s:365    .text:0000000000000184 .L0 
     /tmp/ccUjdNV5.s:366    .text:0000000000000184 .L0 
     /tmp/ccUjdNV5.s:367    .text:0000000000000184 .L0 
     /tmp/ccUjdNV5.s:372    .text:000000000000018c .L0 
     /tmp/ccUjdNV5.s:373    .text:000000000000018c .L0 
     /tmp/ccUjdNV5.s:374    .text:000000000000018c .L0 
     /tmp/ccUjdNV5.s:379    .text:0000000000000194 .L0 
     /tmp/ccUjdNV5.s:380    .text:0000000000000194 .L0 
     /tmp/ccUjdNV5.s:387    .text:00000000000001ac .L0 
     /tmp/ccUjdNV5.s:390    .text:00000000000001b4 .L0 
     /tmp/ccUjdNV5.s:391    .text:00000000000001b4 .L0 
     /tmp/ccUjdNV5.s:397    .text:00000000000001c8 .L0 
     /tmp/ccUjdNV5.s:398    .text:00000000000001c8 .L0 
     /tmp/ccUjdNV5.s:401    .text:00000000000001d0 .L0 
     /tmp/ccUjdNV5.s:403    .text:00000000000001d4 .L0 
src/interruptRoutine.cpp:72     .text:00000000000001d4 .L0 
     /tmp/ccUjdNV5.s:412    .text:00000000000001dc .L0 
src/interruptRoutine.cpp:74     .text:00000000000001dc .L0 
     /tmp/ccUjdNV5.s:420    .text:00000000000001e0 .L0 
src/interruptRoutine.cpp:76     .text:00000000000001e0 .L0 
     /tmp/ccUjdNV5.s:427    .text:00000000000001e4 .L0 
     /tmp/ccUjdNV5.s:431    .text:00000000000001e8 .L0 
     /tmp/ccUjdNV5.s:432    .text:00000000000001e8 .L0 
     /tmp/ccUjdNV5.s:433    .text:00000000000001e8 .L0 
     /tmp/ccUjdNV5.s:1358   .text._ZN3TCB11setFinishedEb:0000000000000000 _ZN3TCB11setFinishedEb
     /tmp/ccUjdNV5.s:440    .text:0000000000000204 .L0 
     /tmp/ccUjdNV5.s:441    .text:0000000000000204 .L0 
     /tmp/ccUjdNV5.s:444    .text:000000000000020c .L0 
     /tmp/ccUjdNV5.s:445    .text:000000000000020c .L0 
     /tmp/ccUjdNV5.s:448    .text:0000000000000214 .L0 
     /tmp/ccUjdNV5.s:452    .text:0000000000000218 .L0 
     /tmp/ccUjdNV5.s:453    .text:0000000000000218 .L0 
     /tmp/ccUjdNV5.s:454    .text:0000000000000218 .L0 
     /tmp/ccUjdNV5.s:457    .text:0000000000000220 .L0 
     /tmp/ccUjdNV5.s:461    .text:0000000000000224 .L0 
     /tmp/ccUjdNV5.s:462    .text:0000000000000224 .L0 
     /tmp/ccUjdNV5.s:463    .text:0000000000000224 .L0 
     /tmp/ccUjdNV5.s:464    .text:0000000000000224 .L0 
     /tmp/ccUjdNV5.s:468    .text:000000000000022c .L0 
     /tmp/ccUjdNV5.s:469    .text:000000000000022c .L0 
     /tmp/ccUjdNV5.s:473    .text:0000000000000238 .L0 
     /tmp/ccUjdNV5.s:474    .text:0000000000000238 .L0 
     /tmp/ccUjdNV5.s:477    .text:0000000000000240 .L0 
     /tmp/ccUjdNV5.s:481    .text:0000000000000244 .L0 
     /tmp/ccUjdNV5.s:482    .text:0000000000000244 .L0 
     /tmp/ccUjdNV5.s:483    .text:0000000000000244 .L0 
     /tmp/ccUjdNV5.s:484    .text:0000000000000244 .L0 
     /tmp/ccUjdNV5.s:488    .text:000000000000024c .L0 
     /tmp/ccUjdNV5.s:489    .text:000000000000024c .L0 
GAS LISTING /tmp/ccUjdNV5.s 			page 40


     /tmp/ccUjdNV5.s:490    .text:000000000000024c .L0 
     /tmp/ccUjdNV5.s:495    .text:0000000000000254 .L0 
     /tmp/ccUjdNV5.s:496    .text:0000000000000254 .L0 
     /tmp/ccUjdNV5.s:503    .text:0000000000000268 .L0 
     /tmp/ccUjdNV5.s:506    .text:0000000000000270 .L0 
     /tmp/ccUjdNV5.s:507    .text:0000000000000270 .L0 
     /tmp/ccUjdNV5.s:510    .text:0000000000000278 .L0 
     /tmp/ccUjdNV5.s:512    .text:000000000000027c .L0 
src/interruptRoutine.cpp:103    .text:000000000000027c .L0 
     /tmp/ccUjdNV5.s:521    .text:0000000000000284 .L0 
src/interruptRoutine.cpp:105    .text:0000000000000284 .L0 
     /tmp/ccUjdNV5.s:529    .text:0000000000000288 .L0 
src/interruptRoutine.cpp:107    .text:0000000000000288 .L0 
     /tmp/ccUjdNV5.s:536    .text:000000000000028c .L0 
     /tmp/ccUjdNV5.s:540    .text:0000000000000290 .L0 
     /tmp/ccUjdNV5.s:541    .text:0000000000000290 .L0 
     /tmp/ccUjdNV5.s:542    .text:0000000000000290 .L0 
     /tmp/ccUjdNV5.s:543    .text:0000000000000290 .L0 
     /tmp/ccUjdNV5.s:547    .text:0000000000000298 .L0 
     /tmp/ccUjdNV5.s:548    .text:0000000000000298 .L0 
     /tmp/ccUjdNV5.s:552    .text:00000000000002a4 .L0 
src/interruptRoutine.cpp:114    .text:00000000000002a4 .L0 
     /tmp/ccUjdNV5.s:559    .text:00000000000002a8 .L0 
     /tmp/ccUjdNV5.s:563    .text:00000000000002ac .L0 
     /tmp/ccUjdNV5.s:564    .text:00000000000002ac .L0 
     /tmp/ccUjdNV5.s:565    .text:00000000000002ac .L0 
     /tmp/ccUjdNV5.s:566    .text:00000000000002ac .L0 
     /tmp/ccUjdNV5.s:570    .text:00000000000002b4 .L0 
     /tmp/ccUjdNV5.s:571    .text:00000000000002b4 .L0 
     /tmp/ccUjdNV5.s:575    .text:00000000000002c0 .L0 
src/interruptRoutine.cpp:121    .text:00000000000002c0 .L0 
     /tmp/ccUjdNV5.s:582    .text:00000000000002c4 .L0 
     /tmp/ccUjdNV5.s:586    .text:00000000000002c8 .L0 
     /tmp/ccUjdNV5.s:587    .text:00000000000002c8 .L0 
     /tmp/ccUjdNV5.s:588    .text:00000000000002c8 .L0 
     /tmp/ccUjdNV5.s:589    .text:00000000000002c8 .L0 
     /tmp/ccUjdNV5.s:593    .text:00000000000002d0 .L0 
     /tmp/ccUjdNV5.s:594    .text:00000000000002d0 .L0 
     /tmp/ccUjdNV5.s:598    .text:00000000000002dc .L0 
src/interruptRoutine.cpp:128    .text:00000000000002dc .L0 
     /tmp/ccUjdNV5.s:605    .text:00000000000002e0 .L0 
     /tmp/ccUjdNV5.s:609    .text:00000000000002e4 .L0 
     /tmp/ccUjdNV5.s:610    .text:00000000000002e4 .L0 
     /tmp/ccUjdNV5.s:611    .text:00000000000002e4 .L0 
     /tmp/ccUjdNV5.s:612    .text:00000000000002e4 .L0 
     /tmp/ccUjdNV5.s:616    .text:00000000000002ec .L0 
     /tmp/ccUjdNV5.s:619    .text:00000000000002f4 .L0 
src/interruptRoutine.cpp:135    .text:00000000000002f4 .L0 
     /tmp/ccUjdNV5.s:628    .text:00000000000002fc .L0 
src/interruptRoutine.cpp:137    .text:00000000000002fc .L0 
     /tmp/ccUjdNV5.s:636    .text:0000000000000300 .L0 
src/interruptRoutine.cpp:139    .text:0000000000000300 .L0 
     /tmp/ccUjdNV5.s:643    .text:0000000000000304 .L0 
     /tmp/ccUjdNV5.s:647    .text:000000000000030c .L0 
     /tmp/ccUjdNV5.s:648    .text:000000000000030c .L0 
     /tmp/ccUjdNV5.s:655    .text:0000000000000328 .L0 
     /tmp/ccUjdNV5.s:656    .text:0000000000000328 .L0 
GAS LISTING /tmp/ccUjdNV5.s 			page 41


     /tmp/ccUjdNV5.s:659    .text:0000000000000330 .L0 
     /tmp/ccUjdNV5.s:663    .text:0000000000000334 .L0 
     /tmp/ccUjdNV5.s:664    .text:0000000000000334 .L0 
     /tmp/ccUjdNV5.s:665    .text:0000000000000334 .L0 
     /tmp/ccUjdNV5.s:668    .text:000000000000033c .L0 
src/interruptRoutine.cpp:148    .text:000000000000033c .L0 
     /tmp/ccUjdNV5.s:675    .text:0000000000000340 .L0 
     /tmp/ccUjdNV5.s:679    .text:0000000000000344 .L0 
     /tmp/ccUjdNV5.s:680    .text:0000000000000344 .L0 
     /tmp/ccUjdNV5.s:681    .text:0000000000000344 .L0 
     /tmp/ccUjdNV5.s:682    .text:0000000000000344 .L0 
     /tmp/ccUjdNV5.s:686    .text:000000000000034c .L0 
     /tmp/ccUjdNV5.s:687    .text:000000000000034c .L0 
     /tmp/ccUjdNV5.s:693    .text:000000000000035c .L0 
     /tmp/ccUjdNV5.s:697    .text:0000000000000360 .L0 
     /tmp/ccUjdNV5.s:698    .text:0000000000000360 .L0 
     /tmp/ccUjdNV5.s:699    .text:0000000000000360 .L0 
     /tmp/ccUjdNV5.s:700    .text:0000000000000360 .L0 
     /tmp/ccUjdNV5.s:704    .text:0000000000000368 .L0 
     /tmp/ccUjdNV5.s:705    .text:0000000000000368 .L0 
     /tmp/ccUjdNV5.s:706    .text:0000000000000368 .L0 
     /tmp/ccUjdNV5.s:711    .text:0000000000000370 .L0 
     /tmp/ccUjdNV5.s:712    .text:0000000000000370 .L0 
     /tmp/ccUjdNV5.s:713    .text:0000000000000370 .L0 
     /tmp/ccUjdNV5.s:718    .text:0000000000000378 .L0 
     /tmp/ccUjdNV5.s:719    .text:0000000000000378 .L0 
     /tmp/ccUjdNV5.s:720    .text:0000000000000378 .L0 
     /tmp/ccUjdNV5.s:725    .text:0000000000000380 .L0 
     /tmp/ccUjdNV5.s:726    .text:0000000000000380 .L0 
     /tmp/ccUjdNV5.s:733    .text:0000000000000398 .L0 
     /tmp/ccUjdNV5.s:736    .text:00000000000003a0 .L0 
     /tmp/ccUjdNV5.s:737    .text:00000000000003a0 .L0 
     /tmp/ccUjdNV5.s:740    .text:00000000000003a8 .L0 
     /tmp/ccUjdNV5.s:742    .text:00000000000003ac .L0 
src/interruptRoutine.cpp:169    .text:00000000000003ac .L0 
     /tmp/ccUjdNV5.s:751    .text:00000000000003b4 .L0 
src/interruptRoutine.cpp:171    .text:00000000000003b4 .L0 
     /tmp/ccUjdNV5.s:759    .text:00000000000003b8 .L0 
src/interruptRoutine.cpp:173    .text:00000000000003b8 .L0 
     /tmp/ccUjdNV5.s:766    .text:00000000000003bc .L0 
     /tmp/ccUjdNV5.s:770    .text:00000000000003c0 .L0 
     /tmp/ccUjdNV5.s:771    .text:00000000000003c0 .L0 
     /tmp/ccUjdNV5.s:772    .text:00000000000003c0 .L0 
     /tmp/ccUjdNV5.s:773    .text:00000000000003c0 .L0 
     /tmp/ccUjdNV5.s:777    .text:00000000000003c8 .L0 
     /tmp/ccUjdNV5.s:778    .text:00000000000003c8 .L0 
     /tmp/ccUjdNV5.s:782    .text:00000000000003d4 .L0 
     /tmp/ccUjdNV5.s:786    .text:00000000000003d8 .L0 
     /tmp/ccUjdNV5.s:787    .text:00000000000003d8 .L0 
     /tmp/ccUjdNV5.s:788    .text:00000000000003d8 .L0 
     /tmp/ccUjdNV5.s:789    .text:00000000000003d8 .L0 
     /tmp/ccUjdNV5.s:794    .text:00000000000003e0 .L0 
     /tmp/ccUjdNV5.s:795    .text:00000000000003e0 .L0 
     /tmp/ccUjdNV5.s:796    .text:00000000000003e0 .L0 
     /tmp/ccUjdNV5.s:799    .text:00000000000003e8 .L0 
     /tmp/ccUjdNV5.s:801    .text:00000000000003ec .L0 
     /tmp/ccUjdNV5.s:802    .text:00000000000003ec .L0 
GAS LISTING /tmp/ccUjdNV5.s 			page 42


     /tmp/ccUjdNV5.s:808    .text:0000000000000400 .L0 
     /tmp/ccUjdNV5.s:809    .text:0000000000000400 .L0 
     /tmp/ccUjdNV5.s:814    .text:000000000000040c .L0 
     /tmp/ccUjdNV5.s:818    .text:0000000000000410 .L0 
     /tmp/ccUjdNV5.s:819    .text:0000000000000410 .L0 
     /tmp/ccUjdNV5.s:820    .text:0000000000000410 .L0 
     /tmp/ccUjdNV5.s:821    .text:0000000000000410 .L0 
     /tmp/ccUjdNV5.s:825    .text:0000000000000418 .L0 
     /tmp/ccUjdNV5.s:826    .text:0000000000000418 .L0 
     /tmp/ccUjdNV5.s:827    .text:0000000000000418 .L0 
     /tmp/ccUjdNV5.s:828    .text:0000000000000418 .L0 
     /tmp/ccUjdNV5.s:829    .text:0000000000000418 .L0 
     /tmp/ccUjdNV5.s:830    .text:0000000000000418 .L0 
     /tmp/ccUjdNV5.s:833    .text:000000000000041c .L0 
     /tmp/ccUjdNV5.s:834    .text:000000000000041c .L0 
     /tmp/ccUjdNV5.s:835    .text:000000000000041c .L0 
     /tmp/ccUjdNV5.s:839    .text:0000000000000424 .L0 
     /tmp/ccUjdNV5.s:840    .text:0000000000000424 .L0 
     /tmp/ccUjdNV5.s:844    .text:0000000000000428 .L0 
     /tmp/ccUjdNV5.s:845    .text:0000000000000428 .L0 
     /tmp/ccUjdNV5.s:846    .text:0000000000000428 .L0 
     /tmp/ccUjdNV5.s:851    .text:0000000000000438 .L0 
     /tmp/ccUjdNV5.s:1415   .data:0000000000000000 _ZZ16interruptRoutineE6digits
     /tmp/ccUjdNV5.s:856    .text:0000000000000444 .L0 
     /tmp/ccUjdNV5.s:863    .text:000000000000045c .L0 
     /tmp/ccUjdNV5.s:867    .text:0000000000000468 .L0 
     /tmp/ccUjdNV5.s:868    .text:0000000000000468 .L0 
     /tmp/ccUjdNV5.s:874    .text:0000000000000478 .L0 
     /tmp/ccUjdNV5.s:881    .text:000000000000048c .L0 
     /tmp/ccUjdNV5.s:884    .text:0000000000000490 .L0 
     /tmp/ccUjdNV5.s:888    .text:000000000000049c .L0 
     /tmp/ccUjdNV5.s:889    .text:000000000000049c .L0 
     /tmp/ccUjdNV5.s:894    .text:00000000000004a8 .L0 
     /tmp/ccUjdNV5.s:902    .text:00000000000004b8 .L0 
     /tmp/ccUjdNV5.s:903    .text:00000000000004b8 .L0 
     /tmp/ccUjdNV5.s:914    .text:00000000000004d8 .L0 
     /tmp/ccUjdNV5.s:915    .text:00000000000004d8 .L0 
     /tmp/ccUjdNV5.s:923    .text:00000000000004f4 .L0 
     /tmp/ccUjdNV5.s:927    .text:00000000000004f8 .L0 
     /tmp/ccUjdNV5.s:928    .text:00000000000004f8 .L0 
     /tmp/ccUjdNV5.s:929    .text:00000000000004f8 .L0 
     /tmp/ccUjdNV5.s:933    .text:0000000000000508 .L0 
     /tmp/ccUjdNV5.s:934    .text:0000000000000508 .L0 
     /tmp/ccUjdNV5.s:938    .text:0000000000000514 .L0 
     /tmp/ccUjdNV5.s:939    .text:0000000000000514 .L0 
     /tmp/ccUjdNV5.s:943    .text:0000000000000524 .L0 
     /tmp/ccUjdNV5.s:944    .text:0000000000000524 .L0 
     /tmp/ccUjdNV5.s:948    .text:0000000000000530 .L0 
     /tmp/ccUjdNV5.s:949    .text:0000000000000530 .L0 
     /tmp/ccUjdNV5.s:953    .text:0000000000000540 .L0 
     /tmp/ccUjdNV5.s:954    .text:0000000000000540 .L0 
     /tmp/ccUjdNV5.s:958    .text:000000000000054c .L0 
     /tmp/ccUjdNV5.s:962    .text:0000000000000550 .L0 
     /tmp/ccUjdNV5.s:967    .text:0000000000000558 .L0 
     /tmp/ccUjdNV5.s:972    .text:0000000000000560 .L0 
     /tmp/ccUjdNV5.s:978    .text:0000000000000564 .L0 
     /tmp/ccUjdNV5.s:979    .text:0000000000000564 .L0 
GAS LISTING /tmp/ccUjdNV5.s 			page 43


     /tmp/ccUjdNV5.s:989    .text:0000000000000570 .L0 
     /tmp/ccUjdNV5.s:990    .text:0000000000000570 .L0 
     /tmp/ccUjdNV5.s:1000   .text:000000000000057c .L0 
     /tmp/ccUjdNV5.s:1007   .text:0000000000000580 .L0 
     /tmp/ccUjdNV5.s:1015   .text:0000000000000594 .L0 
     /tmp/ccUjdNV5.s:1016   .text:0000000000000594 .L0 
     /tmp/ccUjdNV5.s:1020   .text:00000000000005a0 .L0 
     /tmp/ccUjdNV5.s:1023   .text:00000000000005a4 .L0 
     /tmp/ccUjdNV5.s:1024   .text:00000000000005a4 .L0 
     /tmp/ccUjdNV5.s:1025   .text:00000000000005a4 .L0 
     /tmp/ccUjdNV5.s:1029   .text:00000000000005b0 .L0 
     /tmp/ccUjdNV5.s:1030   .text:00000000000005b0 .L0 
     /tmp/ccUjdNV5.s:1034   .text:00000000000005c0 .L0 
     /tmp/ccUjdNV5.s:1036   .text:00000000000005c4 .L0 
     /tmp/ccUjdNV5.s:1038   .text:00000000000005c8 .L0 
     /tmp/ccUjdNV5.s:1039   .text:00000000000005c8 .L0 
     /tmp/ccUjdNV5.s:1044   .text:00000000000005d8 .L0 
     /tmp/ccUjdNV5.s:1045   .text:00000000000005d8 .L0 
     /tmp/ccUjdNV5.s:1423   .data:000000000000000c _ZZ16interruptRoutineE1c
     /tmp/ccUjdNV5.s:1049   .text:00000000000005e8 .L0 
     /tmp/ccUjdNV5.s:1054   .text:0000000000000600 .L0 
     /tmp/ccUjdNV5.s:1059   .text:000000000000060c .L0 
     /tmp/ccUjdNV5.s:1060   .text:000000000000060c .L0 
     /tmp/ccUjdNV5.s:1064   .text:000000000000061c .L0 
     /tmp/ccUjdNV5.s:1066   .text:0000000000000620 .L0 
     /tmp/ccUjdNV5.s:1068   .text:0000000000000624 .L0 
     /tmp/ccUjdNV5.s:1071   .text:0000000000000630 .L0 
     /tmp/ccUjdNV5.s:1075   .text:0000000000000640 .L0 
     /tmp/ccUjdNV5.s:1419   .data:000000000000000b _ZZ16interruptRoutineE1i
     /tmp/ccUjdNV5.s:1076   .text:0000000000000640 .L0 
     /tmp/ccUjdNV5.s:1083   .text:0000000000000660 .L0 
     /tmp/ccUjdNV5.s:1089   .text:0000000000000674 .L0 
     /tmp/ccUjdNV5.s:1091   .text:0000000000000678 .L0 
     /tmp/ccUjdNV5.s:1092   .text:0000000000000678 .L0 
     /tmp/ccUjdNV5.s:1098   .text:000000000000068c .L0 
     /tmp/ccUjdNV5.s:1099   .text:000000000000068c .L0 
     /tmp/ccUjdNV5.s:1104   .text:000000000000069c .L0 
     /tmp/ccUjdNV5.s:1105   .text:000000000000069c .L0 
     /tmp/ccUjdNV5.s:1114   .text:00000000000006b4 .L0 
     /tmp/ccUjdNV5.s:1115   .text:00000000000006b4 .L0 
     /tmp/ccUjdNV5.s:1121   .text:00000000000006c4 .L0 
     /tmp/ccUjdNV5.s:1122   .text:00000000000006c4 .L0 
     /tmp/ccUjdNV5.s:1261   .text._ZN5Riscv6w_sepcEm:0000000000000000 _ZN5Riscv6w_sepcEm
     /tmp/ccUjdNV5.s:1126   .text:00000000000006d0 .L0 
     /tmp/ccUjdNV5.s:1127   .text:00000000000006d0 .L0 
     /tmp/ccUjdNV5.s:1326   .text._ZN5Riscv9w_sstatusEm:0000000000000000 _ZN5Riscv9w_sstatusEm
     /tmp/ccUjdNV5.s:1131   .text:00000000000006dc .L0 
     /tmp/ccUjdNV5.s:1132   .text:00000000000006dc .L0 
     /tmp/ccUjdNV5.s:1294   .text._ZN5Riscv6mc_sipEm:0000000000000000 _ZN5Riscv6mc_sipEm
     /tmp/ccUjdNV5.s:1140   .text:00000000000006e8 .L0 
     /tmp/ccUjdNV5.s:1147   .text:00000000000006ec .L0 
     /tmp/ccUjdNV5.s:1153   .text:0000000000000700 .L0 
     /tmp/ccUjdNV5.s:1154   .text:0000000000000700 .L0 
     /tmp/ccUjdNV5.s:1157   .text:0000000000000708 .L0 
     /tmp/ccUjdNV5.s:1158   .text:0000000000000708 .L0 
     /tmp/ccUjdNV5.s:1164   .text:0000000000000724 .L0 
     /tmp/ccUjdNV5.s:1165   .text:0000000000000724 .L0 
GAS LISTING /tmp/ccUjdNV5.s 			page 44


     /tmp/ccUjdNV5.s:1387   .text._ZN3TCB12getTimeSliceEv:0000000000000000 _ZN3TCB12getTimeSliceEv
     /tmp/ccUjdNV5.s:1172   .text:0000000000000740 .L0 
     /tmp/ccUjdNV5.s:1178   .text:0000000000000758 .L0 
     /tmp/ccUjdNV5.s:1180   .text:000000000000075c .L0 
     /tmp/ccUjdNV5.s:1181   .text:000000000000075c .L0 
     /tmp/ccUjdNV5.s:1184   .text:0000000000000764 .L0 
     /tmp/ccUjdNV5.s:1185   .text:0000000000000764 .L0 
     /tmp/ccUjdNV5.s:1189   .text:0000000000000770 .L0 
     /tmp/ccUjdNV5.s:1190   .text:0000000000000770 .L0 
     /tmp/ccUjdNV5.s:1194   .text:000000000000077c .L0 
     /tmp/ccUjdNV5.s:1195   .text:000000000000077c .L0 
     /tmp/ccUjdNV5.s:1199   .text:0000000000000788 .L0 
     /tmp/ccUjdNV5.s:1200   .text:0000000000000788 .L0 
     /tmp/ccUjdNV5.s:1207   .text:0000000000000794 .L0 
     /tmp/ccUjdNV5.s:1214   .text:0000000000000798 .L0 
     /tmp/ccUjdNV5.s:1215   .text:0000000000000798 .L0 
     /tmp/ccUjdNV5.s:1219   .text:00000000000007a8 .L0 
     /tmp/ccUjdNV5.s:1220   .text:00000000000007a8 .L0 
     /tmp/ccUjdNV5.s:1224   .text:00000000000007b8 .L0 
     /tmp/ccUjdNV5.s:1225   .text:00000000000007b8 .L0 
     /tmp/ccUjdNV5.s:1229   .text:00000000000007c4 .L0 
     /tmp/ccUjdNV5.s:1230   .text:00000000000007c4 .L0 
     /tmp/ccUjdNV5.s:1234   .text:00000000000007d4 .L0 
     /tmp/ccUjdNV5.s:1235   .text:00000000000007d4 .L0 
     /tmp/ccUjdNV5.s:1243   .text:00000000000007e0 .L0 
     /tmp/ccUjdNV5.s:1245   .text:00000000000007e8 .L0 
     /tmp/ccUjdNV5.s:1247   .text:00000000000007ec .L0 
     /tmp/ccUjdNV5.s:1248   .text:00000000000007ec .L0 
     /tmp/ccUjdNV5.s:1251   .text:00000000000007f0 .L0 
     /tmp/ccUjdNV5.s:1254   .text:00000000000007f4 .L0 
     /tmp/ccUjdNV5.s:1265   .text._ZN5Riscv6w_sepcEm:0000000000000000 .L0 
     /tmp/ccUjdNV5.s:1267   .text._ZN5Riscv6w_sepcEm:0000000000000000 .L0 
     /tmp/ccUjdNV5.s:1268   .text._ZN5Riscv6w_sepcEm:0000000000000004 .L0 
     /tmp/ccUjdNV5.s:1270   .text._ZN5Riscv6w_sepcEm:0000000000000008 .L0 
     /tmp/ccUjdNV5.s:1272   .text._ZN5Riscv6w_sepcEm:000000000000000c .L0 
     /tmp/ccUjdNV5.s:1274   .text._ZN5Riscv6w_sepcEm:000000000000000c .L0 
  src/../h/Riscv.hpp:105    .text._ZN5Riscv6w_sepcEm:000000000000000c .L0 
     /tmp/ccUjdNV5.s:1281   .text._ZN5Riscv6w_sepcEm:0000000000000010 .L0 
     /tmp/ccUjdNV5.s:1282   .text._ZN5Riscv6w_sepcEm:0000000000000014 .L0 
     /tmp/ccUjdNV5.s:1283   .text._ZN5Riscv6w_sepcEm:0000000000000014 .L0 
     /tmp/ccUjdNV5.s:1285   .text._ZN5Riscv6w_sepcEm:0000000000000018 .L0 
     /tmp/ccUjdNV5.s:1287   .text._ZN5Riscv6w_sepcEm:000000000000001c .L0 
     /tmp/ccUjdNV5.s:1297   .text._ZN5Riscv6mc_sipEm:0000000000000000 .L0 
     /tmp/ccUjdNV5.s:1299   .text._ZN5Riscv6mc_sipEm:0000000000000000 .L0 
     /tmp/ccUjdNV5.s:1300   .text._ZN5Riscv6mc_sipEm:0000000000000004 .L0 
     /tmp/ccUjdNV5.s:1302   .text._ZN5Riscv6mc_sipEm:0000000000000008 .L0 
     /tmp/ccUjdNV5.s:1304   .text._ZN5Riscv6mc_sipEm:000000000000000c .L0 
     /tmp/ccUjdNV5.s:1306   .text._ZN5Riscv6mc_sipEm:000000000000000c .L0 
  src/../h/Riscv.hpp:123    .text._ZN5Riscv6mc_sipEm:000000000000000c .L0 
     /tmp/ccUjdNV5.s:1313   .text._ZN5Riscv6mc_sipEm:0000000000000010 .L0 
     /tmp/ccUjdNV5.s:1314   .text._ZN5Riscv6mc_sipEm:0000000000000014 .L0 
     /tmp/ccUjdNV5.s:1315   .text._ZN5Riscv6mc_sipEm:0000000000000014 .L0 
     /tmp/ccUjdNV5.s:1317   .text._ZN5Riscv6mc_sipEm:0000000000000018 .L0 
     /tmp/ccUjdNV5.s:1319   .text._ZN5Riscv6mc_sipEm:000000000000001c .L0 
     /tmp/ccUjdNV5.s:1329   .text._ZN5Riscv9w_sstatusEm:0000000000000000 .L0 
     /tmp/ccUjdNV5.s:1331   .text._ZN5Riscv9w_sstatusEm:0000000000000000 .L0 
     /tmp/ccUjdNV5.s:1332   .text._ZN5Riscv9w_sstatusEm:0000000000000004 .L0 
GAS LISTING /tmp/ccUjdNV5.s 			page 45


     /tmp/ccUjdNV5.s:1334   .text._ZN5Riscv9w_sstatusEm:0000000000000008 .L0 
     /tmp/ccUjdNV5.s:1336   .text._ZN5Riscv9w_sstatusEm:000000000000000c .L0 
     /tmp/ccUjdNV5.s:1338   .text._ZN5Riscv9w_sstatusEm:000000000000000c .L0 
  src/../h/Riscv.hpp:151    .text._ZN5Riscv9w_sstatusEm:000000000000000c .L0 
     /tmp/ccUjdNV5.s:1345   .text._ZN5Riscv9w_sstatusEm:0000000000000010 .L0 
     /tmp/ccUjdNV5.s:1346   .text._ZN5Riscv9w_sstatusEm:0000000000000014 .L0 
     /tmp/ccUjdNV5.s:1347   .text._ZN5Riscv9w_sstatusEm:0000000000000014 .L0 
     /tmp/ccUjdNV5.s:1349   .text._ZN5Riscv9w_sstatusEm:0000000000000018 .L0 
     /tmp/ccUjdNV5.s:1351   .text._ZN5Riscv9w_sstatusEm:000000000000001c .L0 
     /tmp/ccUjdNV5.s:1362   .text._ZN3TCB11setFinishedEb:0000000000000000 .L0 
     /tmp/ccUjdNV5.s:1364   .text._ZN3TCB11setFinishedEb:0000000000000000 .L0 
     /tmp/ccUjdNV5.s:1365   .text._ZN3TCB11setFinishedEb:0000000000000004 .L0 
     /tmp/ccUjdNV5.s:1367   .text._ZN3TCB11setFinishedEb:0000000000000008 .L0 
     /tmp/ccUjdNV5.s:1369   .text._ZN3TCB11setFinishedEb:000000000000000c .L0 
     /tmp/ccUjdNV5.s:1371   .text._ZN3TCB11setFinishedEb:000000000000000c .L0 
     /tmp/ccUjdNV5.s:1372   .text._ZN3TCB11setFinishedEb:000000000000000c .L0 
     /tmp/ccUjdNV5.s:1374   .text._ZN3TCB11setFinishedEb:0000000000000010 .L0 
     /tmp/ccUjdNV5.s:1375   .text._ZN3TCB11setFinishedEb:0000000000000014 .L0 
     /tmp/ccUjdNV5.s:1376   .text._ZN3TCB11setFinishedEb:0000000000000014 .L0 
     /tmp/ccUjdNV5.s:1378   .text._ZN3TCB11setFinishedEb:0000000000000018 .L0 
     /tmp/ccUjdNV5.s:1380   .text._ZN3TCB11setFinishedEb:000000000000001c .L0 
     /tmp/ccUjdNV5.s:1390   .text._ZN3TCB12getTimeSliceEv:0000000000000000 .L0 
     /tmp/ccUjdNV5.s:1392   .text._ZN3TCB12getTimeSliceEv:0000000000000000 .L0 
     /tmp/ccUjdNV5.s:1393   .text._ZN3TCB12getTimeSliceEv:0000000000000004 .L0 
     /tmp/ccUjdNV5.s:1395   .text._ZN3TCB12getTimeSliceEv:0000000000000008 .L0 
     /tmp/ccUjdNV5.s:1397   .text._ZN3TCB12getTimeSliceEv:000000000000000c .L0 
     /tmp/ccUjdNV5.s:1399   .text._ZN3TCB12getTimeSliceEv:000000000000000c .L0 
     /tmp/ccUjdNV5.s:1400   .text._ZN3TCB12getTimeSliceEv:000000000000000c .L0 
     /tmp/ccUjdNV5.s:1403   .text._ZN3TCB12getTimeSliceEv:0000000000000014 .L0 
     /tmp/ccUjdNV5.s:1404   .text._ZN3TCB12getTimeSliceEv:0000000000000014 .L0 
     /tmp/ccUjdNV5.s:1406   .text._ZN3TCB12getTimeSliceEv:0000000000000018 .L0 
     /tmp/ccUjdNV5.s:1408   .text._ZN3TCB12getTimeSliceEv:000000000000001c .L0 
     /tmp/ccUjdNV5.s:1436   .text:00000000000007f4 .L0 
     /tmp/ccUjdNV5.s:1290   .text._ZN5Riscv6w_sepcEm:000000000000001c .L0 
     /tmp/ccUjdNV5.s:1322   .text._ZN5Riscv6mc_sipEm:000000000000001c .L0 
     /tmp/ccUjdNV5.s:1354   .text._ZN5Riscv9w_sstatusEm:000000000000001c .L0 
     /tmp/ccUjdNV5.s:1383   .text._ZN3TCB11setFinishedEb:000000000000001c .L0 
     /tmp/ccUjdNV5.s:1411   .text._ZN3TCB12getTimeSliceEv:000000000000001c .L0 
     /tmp/ccUjdNV5.s:218    .rodata:000000000000008c .L10
     /tmp/ccUjdNV5.s:207    .text:00000000000000f8 .L0 
     /tmp/ccUjdNV5.s:212    .text:000000000000010c .L0 
     /tmp/ccUjdNV5.s:433    .text:00000000000001e8 .L0 
     /tmp/ccUjdNV5.s:648    .text:000000000000030c .L0 
     /tmp/ccUjdNV5.s:856    .text:0000000000000444 .L0 
     /tmp/ccUjdNV5.s:8      .rodata:0000000000000000 .LC0
     /tmp/ccUjdNV5.s:929    .text:00000000000004f8 .L0 
     /tmp/ccUjdNV5.s:11     .rodata:0000000000000018 .LC1
     /tmp/ccUjdNV5.s:939    .text:0000000000000514 .L0 
     /tmp/ccUjdNV5.s:14     .rodata:0000000000000028 .LC2
     /tmp/ccUjdNV5.s:949    .text:0000000000000530 .L0 
     /tmp/ccUjdNV5.s:1030   .text:00000000000005b0 .L0 
     /tmp/ccUjdNV5.s:17     .rodata:0000000000000030 .LC3
     /tmp/ccUjdNV5.s:1039   .text:00000000000005c8 .L0 
     /tmp/ccUjdNV5.s:1045   .text:00000000000005d8 .L0 
     /tmp/ccUjdNV5.s:1049   .text:00000000000005e8 .L0 
     /tmp/ccUjdNV5.s:1051   .text:00000000000005f4 .L0 
     /tmp/ccUjdNV5.s:1060   .text:000000000000060c .L0 
GAS LISTING /tmp/ccUjdNV5.s 			page 46


     /tmp/ccUjdNV5.s:1068   .text:0000000000000624 .L0 
     /tmp/ccUjdNV5.s:1071   .text:0000000000000630 .L0 
     /tmp/ccUjdNV5.s:1076   .text:0000000000000640 .L0 
     /tmp/ccUjdNV5.s:1080   .text:0000000000000654 .L0 
     /tmp/ccUjdNV5.s:1092   .text:0000000000000678 .L0 
     /tmp/ccUjdNV5.s:20     .rodata:0000000000000040 .LC4
     /tmp/ccUjdNV5.s:1099   .text:000000000000068c .L0 
     /tmp/ccUjdNV5.s:23     .rodata:0000000000000048 .LC5
     /tmp/ccUjdNV5.s:1115   .text:00000000000006b4 .L0 
     /tmp/ccUjdNV5.s:1158   .text:0000000000000708 .L0 
     /tmp/ccUjdNV5.s:1161   .text:0000000000000718 .L0 
     /tmp/ccUjdNV5.s:1165   .text:0000000000000724 .L0 
     /tmp/ccUjdNV5.s:1172   .text:0000000000000740 .L0 
     /tmp/ccUjdNV5.s:1185   .text:0000000000000764 .L0 
     /tmp/ccUjdNV5.s:26     .rodata:0000000000000060 .LC6
     /tmp/ccUjdNV5.s:1215   .text:0000000000000798 .L0 
     /tmp/ccUjdNV5.s:29     .rodata:0000000000000080 .LC7
     /tmp/ccUjdNV5.s:1220   .text:00000000000007a8 .L0 
     /tmp/ccUjdNV5.s:1230   .text:00000000000007c4 .L0 
     /tmp/ccUjdNV5.s:168    .text:0000000000000080 .L2
     /tmp/ccUjdNV5.s:1002   .text:0000000000000580 .L3
     /tmp/ccUjdNV5.s:816    .text:0000000000000410 .L4
     /tmp/ccUjdNV5.s:925    .text:00000000000004f8 .L5
     /tmp/ccUjdNV5.s:784    .text:00000000000003d8 .L6
     /tmp/ccUjdNV5.s:768    .text:00000000000003c0 .L7
     /tmp/ccUjdNV5.s:288    .text:000000000000011c .L8
     /tmp/ccUjdNV5.s:695    .text:0000000000000360 .L23
     /tmp/ccUjdNV5.s:974    .text:0000000000000564 .L24
     /tmp/ccUjdNV5.s:410    .text:00000000000001dc .L25
     /tmp/ccUjdNV5.s:418    .text:00000000000001e0 .L26
     /tmp/ccUjdNV5.s:519    .text:0000000000000284 .L27
     /tmp/ccUjdNV5.s:527    .text:0000000000000288 .L28
     /tmp/ccUjdNV5.s:626    .text:00000000000002fc .L29
     /tmp/ccUjdNV5.s:634    .text:0000000000000300 .L30
     /tmp/ccUjdNV5.s:960    .text:0000000000000550 .L50
     /tmp/ccUjdNV5.s:749    .text:00000000000003b4 .L32
     /tmp/ccUjdNV5.s:757    .text:00000000000003b8 .L33
     /tmp/ccUjdNV5.s:965    .text:0000000000000558 .L51
     /tmp/ccUjdNV5.s:792    .text:00000000000003e0 .L35
     /tmp/ccUjdNV5.s:882    .text:0000000000000490 .L36
     /tmp/ccUjdNV5.s:842    .text:0000000000000428 .L37
     /tmp/ccUjdNV5.s:900    .text:00000000000004b8 .L40
     /tmp/ccUjdNV5.s:970    .text:0000000000000560 .L52
     /tmp/ccUjdNV5.s:1238   .text:00000000000007e0 .L53
     /tmp/ccUjdNV5.s:1142   .text:00000000000006ec .L42
     /tmp/ccUjdNV5.s:1112   .text:00000000000006b4 .L43
     /tmp/ccUjdNV5.s:1057   .text:000000000000060c .L44
     /tmp/ccUjdNV5.s:1096   .text:000000000000068c .L45
     /tmp/ccUjdNV5.s:1102   .text:000000000000069c .L46
     /tmp/ccUjdNV5.s:1119   .text:00000000000006c4 .L47
     /tmp/ccUjdNV5.s:1209   .text:0000000000000798 .L48
     /tmp/ccUjdNV5.s:1187   .text:0000000000000770 .L49
     /tmp/ccUjdNV5.s:294    .text:000000000000012c .L22
     /tmp/ccUjdNV5.s:326    .text:0000000000000158 .L21
     /tmp/ccUjdNV5.s:349    .text:0000000000000174 .L20
     /tmp/ccUjdNV5.s:429    .text:00000000000001e8 .L19
     /tmp/ccUjdNV5.s:450    .text:0000000000000218 .L18
GAS LISTING /tmp/ccUjdNV5.s 			page 47


     /tmp/ccUjdNV5.s:459    .text:0000000000000224 .L17
     /tmp/ccUjdNV5.s:479    .text:0000000000000244 .L16
     /tmp/ccUjdNV5.s:538    .text:0000000000000290 .L15
     /tmp/ccUjdNV5.s:561    .text:00000000000002ac .L14
     /tmp/ccUjdNV5.s:584    .text:00000000000002c8 .L13
     /tmp/ccUjdNV5.s:607    .text:00000000000002e4 .L12
     /tmp/ccUjdNV5.s:661    .text:0000000000000334 .L11
     /tmp/ccUjdNV5.s:677    .text:0000000000000344 .L9
     /tmp/ccUjdNV5.s:3757   .debug_abbrev:0000000000000000 .Ldebug_abbrev0
     /tmp/ccUjdNV5.s:6179   .debug_str:0000000000000a0c .LASF222
     /tmp/ccUjdNV5.s:6069   .debug_str:00000000000006f2 .LASF223
     /tmp/ccUjdNV5.s:6133   .debug_str:00000000000008d5 .LASF224
     /tmp/ccUjdNV5.s:5801   .debug_ranges:0000000000000000 .Ldebug_ranges0
     /tmp/ccUjdNV5.s:5817   .debug_line:0000000000000000 .Ldebug_line0
     /tmp/ccUjdNV5.s:6099   .debug_str:00000000000007dc .LASF3
     /tmp/ccUjdNV5.s:5965   .debug_str:000000000000045c .LASF0
     /tmp/ccUjdNV5.s:5997   .debug_str:0000000000000526 .LASF1
     /tmp/ccUjdNV5.s:6113   .debug_str:0000000000000839 .LASF2
     /tmp/ccUjdNV5.s:5921   .debug_str:000000000000031e .LASF4
     /tmp/ccUjdNV5.s:6123   .debug_str:0000000000000891 .LASF5
     /tmp/ccUjdNV5.s:5981   .debug_str:00000000000004b8 .LASF6
     /tmp/ccUjdNV5.s:5833   .debug_str:0000000000000076 .LASF7
     /tmp/ccUjdNV5.s:6079   .debug_str:000000000000073f .LASF8
     /tmp/ccUjdNV5.s:6067   .debug_str:00000000000006df .LASF9
     /tmp/ccUjdNV5.s:5987   .debug_str:00000000000004e6 .LASF10
     /tmp/ccUjdNV5.s:5939   .debug_str:00000000000003a7 .LASF11
     /tmp/ccUjdNV5.s:5947   .debug_str:00000000000003e1 .LASF12
     /tmp/ccUjdNV5.s:5871   .debug_str:0000000000000185 .LASF13
     /tmp/ccUjdNV5.s:5929   .debug_str:000000000000036f .LASF14
     /tmp/ccUjdNV5.s:5885   .debug_str:00000000000001fe .LASF15
     /tmp/ccUjdNV5.s:5869   .debug_str:0000000000000175 .LASF16
     /tmp/ccUjdNV5.s:6153   .debug_str:000000000000096e .LASF17
     /tmp/ccUjdNV5.s:5917   .debug_str:00000000000002ed .LASF18
     /tmp/ccUjdNV5.s:6137   .debug_str:00000000000008fc .LASF19
     /tmp/ccUjdNV5.s:6065   .debug_str:00000000000006cf .LASF41
     /tmp/ccUjdNV5.s:6059   .debug_str:00000000000006b2 .LASF43
     /tmp/ccUjdNV5.s:6077   .debug_str:0000000000000739 .LASF20
     /tmp/ccUjdNV5.s:6253   .debug_str:0000000000000cb4 .LASF21
     /tmp/ccUjdNV5.s:6103   .debug_str:0000000000000802 .LASF22
     /tmp/ccUjdNV5.s:6205   .debug_str:0000000000000b9d .LASF23
     /tmp/ccUjdNV5.s:6017   .debug_str:0000000000000584 .LASF24
     /tmp/ccUjdNV5.s:6085   .debug_str:0000000000000756 .LASF28
     /tmp/ccUjdNV5.s:5873   .debug_str:0000000000000194 .LASF25
     /tmp/ccUjdNV5.s:5849   .debug_str:00000000000000eb .LASF26
     /tmp/ccUjdNV5.s:5995   .debug_str:0000000000000521 .LASF27
     /tmp/ccUjdNV5.s:5909   .debug_str:00000000000002be .LASF29
     /tmp/ccUjdNV5.s:6097   .debug_str:00000000000007d4 .LASF30
     /tmp/ccUjdNV5.s:6241   .debug_str:0000000000000c68 .LASF31
     /tmp/ccUjdNV5.s:6187   .debug_str:0000000000000afb .LASF33
     /tmp/ccUjdNV5.s:5935   .debug_str:000000000000039b .LASF32
     /tmp/ccUjdNV5.s:6055   .debug_str:000000000000068f .LASF34
     /tmp/ccUjdNV5.s:5853   .debug_str:00000000000000fb .LASF35
     /tmp/ccUjdNV5.s:6091   .debug_str:000000000000077f .LASF36
     /tmp/ccUjdNV5.s:5847   .debug_str:00000000000000d2 .LASF55
     /tmp/ccUjdNV5.s:6105   .debug_str:0000000000000809 .LASF37
     /tmp/ccUjdNV5.s:6213   .debug_str:0000000000000bb4 .LASF38
     /tmp/ccUjdNV5.s:5961   .debug_str:000000000000044a .LASF39
GAS LISTING /tmp/ccUjdNV5.s 			page 48


     /tmp/ccUjdNV5.s:5977   .debug_str:00000000000004a6 .LASF83
     /tmp/ccUjdNV5.s:6151   .debug_str:0000000000000939 .LASF85
     /tmp/ccUjdNV5.s:6019   .debug_str:000000000000058e .LASF40
     /tmp/ccUjdNV5.s:6227   .debug_str:0000000000000bfb .LASF42
     /tmp/ccUjdNV5.s:6095   .debug_str:00000000000007c9 .LASF44
     /tmp/ccUjdNV5.s:6005   .debug_str:000000000000054f .LASF45
     /tmp/ccUjdNV5.s:5839   .debug_str:000000000000009b .LASF46
     /tmp/ccUjdNV5.s:6243   .debug_str:0000000000000c70 .LASF47
     /tmp/ccUjdNV5.s:5951   .debug_str:00000000000003ff .LASF48
     /tmp/ccUjdNV5.s:6041   .debug_str:000000000000061b .LASF50
     /tmp/ccUjdNV5.s:6131   .debug_str:00000000000008c7 .LASF49
     /tmp/ccUjdNV5.s:5919   .debug_str:0000000000000303 .LASF51
     /tmp/ccUjdNV5.s:5971   .debug_str:000000000000048b .LASF52
     /tmp/ccUjdNV5.s:6237   .debug_str:0000000000000c42 .LASF53
     /tmp/ccUjdNV5.s:5999   .debug_str:0000000000000539 .LASF57
     /tmp/ccUjdNV5.s:6197   .debug_str:0000000000000b56 .LASF59
     /tmp/ccUjdNV5.s:6109   .debug_str:0000000000000825 .LASF54
     /tmp/ccUjdNV5.s:6053   .debug_str:000000000000067a .LASF56
     /tmp/ccUjdNV5.s:6087   .debug_str:0000000000000765 .LASF58
     /tmp/ccUjdNV5.s:6089   .debug_str:000000000000076c .LASF60
     /tmp/ccUjdNV5.s:6039   .debug_str:0000000000000614 .LASF61
     /tmp/ccUjdNV5.s:5989   .debug_str:00000000000004f9 .LASF62
     /tmp/ccUjdNV5.s:6029   .debug_str:00000000000005dc .LASF63
     /tmp/ccUjdNV5.s:6183   .debug_str:0000000000000add .LASF64
     /tmp/ccUjdNV5.s:6033   .debug_str:00000000000005f1 .LASF65
     /tmp/ccUjdNV5.s:6051   .debug_str:0000000000000666 .LASF66
     /tmp/ccUjdNV5.s:6147   .debug_str:000000000000092b .LASF67
     /tmp/ccUjdNV5.s:6127   .debug_str:00000000000008ad .LASF68
     /tmp/ccUjdNV5.s:6129   .debug_str:00000000000008c0 .LASF69
     /tmp/ccUjdNV5.s:5877   .debug_str:00000000000001a5 .LASF70
     /tmp/ccUjdNV5.s:5913   .debug_str:00000000000002da .LASF71
     /tmp/ccUjdNV5.s:5959   .debug_str:0000000000000438 .LASF72
     /tmp/ccUjdNV5.s:5973   .debug_str:0000000000000498 .LASF73
     /tmp/ccUjdNV5.s:5899   .debug_str:0000000000000288 .LASF74
     /tmp/ccUjdNV5.s:5835   .debug_str:000000000000007d .LASF75
     /tmp/ccUjdNV5.s:6117   .debug_str:0000000000000851 .LASF76
     /tmp/ccUjdNV5.s:6111   .debug_str:000000000000082e .LASF77
     /tmp/ccUjdNV5.s:6267   .debug_str:0000000000000d22 .LASF78
     /tmp/ccUjdNV5.s:6229   .debug_str:0000000000000c01 .LASF79
     /tmp/ccUjdNV5.s:6247   .debug_str:0000000000000c80 .LASF80
     /tmp/ccUjdNV5.s:6221   .debug_str:0000000000000bd3 .LASF81
     /tmp/ccUjdNV5.s:6025   .debug_str:00000000000005a7 .LASF82
     /tmp/ccUjdNV5.s:6189   .debug_str:0000000000000b26 .LASF84
     /tmp/ccUjdNV5.s:5891   .debug_str:000000000000023e .LASF86
     /tmp/ccUjdNV5.s:6219   .debug_str:0000000000000bca .LASF87
     /tmp/ccUjdNV5.s:6163   .debug_str:00000000000009b0 .LASF155
     /tmp/ccUjdNV5.s:6181   .debug_str:0000000000000ad0 .LASF88
     /tmp/ccUjdNV5.s:6235   .debug_str:0000000000000c20 .LASF89
     /tmp/ccUjdNV5.s:6057   .debug_str:00000000000006ad .LASF225
     /tmp/ccUjdNV5.s:6257   .debug_str:0000000000000cd4 .LASF90
     /tmp/ccUjdNV5.s:5983   .debug_str:00000000000004ca .LASF91
     /tmp/ccUjdNV5.s:6165   .debug_str:00000000000009b8 .LASF94
     /tmp/ccUjdNV5.s:6157   .debug_str:000000000000098e .LASF96
     /tmp/ccUjdNV5.s:5857   .debug_str:000000000000011a .LASF92
     /tmp/ccUjdNV5.s:6199   .debug_str:0000000000000b6b .LASF93
     /tmp/ccUjdNV5.s:6115   .debug_str:0000000000000847 .LASF95
     /tmp/ccUjdNV5.s:6155   .debug_str:000000000000097a .LASF97
GAS LISTING /tmp/ccUjdNV5.s 			page 49


     /tmp/ccUjdNV5.s:6169   .debug_str:00000000000009d0 .LASF98
     /tmp/ccUjdNV5.s:5925   .debug_str:0000000000000340 .LASF99
     /tmp/ccUjdNV5.s:6023   .debug_str:000000000000059a .LASF100
     /tmp/ccUjdNV5.s:6093   .debug_str:00000000000007b1 .LASF101
     /tmp/ccUjdNV5.s:5903   .debug_str:00000000000002a3 .LASF102
     /tmp/ccUjdNV5.s:6121   .debug_str:0000000000000879 .LASF103
     /tmp/ccUjdNV5.s:6203   .debug_str:0000000000000b92 .LASF104
     /tmp/ccUjdNV5.s:5931   .debug_str:000000000000037e .LASF105
     /tmp/ccUjdNV5.s:6271   .debug_str:0000000000000d47 .LASF106
     /tmp/ccUjdNV5.s:5927   .debug_str:0000000000000356 .LASF107
     /tmp/ccUjdNV5.s:6001   .debug_str:0000000000000542 .LASF108
     /tmp/ccUjdNV5.s:6107   .debug_str:0000000000000815 .LASF109
     /tmp/ccUjdNV5.s:5905   .debug_str:00000000000002b0 .LASF110
     /tmp/ccUjdNV5.s:5879   .debug_str:00000000000001b8 .LASF111
     /tmp/ccUjdNV5.s:6007   .debug_str:0000000000000558 .LASF112
     /tmp/ccUjdNV5.s:5841   .debug_str:00000000000000a4 .LASF113
     /tmp/ccUjdNV5.s:6175   .debug_str:00000000000009f4 .LASF114
     /tmp/ccUjdNV5.s:5865   .debug_str:0000000000000155 .LASF115
     /tmp/ccUjdNV5.s:6195   .debug_str:0000000000000b4e .LASF116
     /tmp/ccUjdNV5.s:5867   .debug_str:0000000000000166 .LASF117
     /tmp/ccUjdNV5.s:6263   .debug_str:0000000000000cfb .LASF118
     /tmp/ccUjdNV5.s:6207   .debug_str:0000000000000ba2 .LASF119
     /tmp/ccUjdNV5.s:6185   .debug_str:0000000000000af1 .LASF120
     /tmp/ccUjdNV5.s:6135   .debug_str:00000000000008f3 .LASF121
     /tmp/ccUjdNV5.s:6081   .debug_str:0000000000000746 .LASF122
     /tmp/ccUjdNV5.s:5953   .debug_str:000000000000040a .LASF123
     /tmp/ccUjdNV5.s:6177   .debug_str:00000000000009fc .LASF124
     /tmp/ccUjdNV5.s:6063   .debug_str:00000000000006c3 .LASF125
     /tmp/ccUjdNV5.s:5823   .debug_str:000000000000001d .LASF126
     /tmp/ccUjdNV5.s:5825   .debug_str:000000000000002a .LASF127
     /tmp/ccUjdNV5.s:6255   .debug_str:0000000000000cbe .LASF181
     /tmp/ccUjdNV5.s:5893   .debug_str:0000000000000256 .LASF128
     /tmp/ccUjdNV5.s:5829   .debug_str:0000000000000040 .LASF129
     /tmp/ccUjdNV5.s:6269   .debug_str:0000000000000d3a .LASF130
     /tmp/ccUjdNV5.s:5945   .debug_str:00000000000003d5 .LASF131
     /tmp/ccUjdNV5.s:5967   .debug_str:0000000000000469 .LASF143
     /tmp/ccUjdNV5.s:6049   .debug_str:0000000000000659 .LASF160
     /tmp/ccUjdNV5.s:5941   .debug_str:00000000000003b7 .LASF132
     /tmp/ccUjdNV5.s:6139   .debug_str:0000000000000912 .LASF133
     /tmp/ccUjdNV5.s:6171   .debug_str:00000000000009db .LASF134
     /tmp/ccUjdNV5.s:6047   .debug_str:0000000000000646 .LASF135
     /tmp/ccUjdNV5.s:5907   .debug_str:00000000000002b9 .LASF136
     /tmp/ccUjdNV5.s:6119   .debug_str:0000000000000869 .LASF137
     /tmp/ccUjdNV5.s:6161   .debug_str:00000000000009a9 .LASF138
     /tmp/ccUjdNV5.s:5855   .debug_str:0000000000000108 .LASF139
     /tmp/ccUjdNV5.s:5901   .debug_str:000000000000029a .LASF140
     /tmp/ccUjdNV5.s:6037   .debug_str:00000000000005fe .LASF141
     /tmp/ccUjdNV5.s:5915   .debug_str:00000000000002e0 .LASF142
     /tmp/ccUjdNV5.s:5831   .debug_str:0000000000000068 .LASF144
     /tmp/ccUjdNV5.s:5963   .debug_str:0000000000000456 .LASF145
     /tmp/ccUjdNV5.s:6173   .debug_str:00000000000009e3 .LASF146
     /tmp/ccUjdNV5.s:5827   .debug_str:0000000000000038 .LASF147
     /tmp/ccUjdNV5.s:5837   .debug_str:0000000000000088 .LASF148
     /tmp/ccUjdNV5.s:6231   .debug_str:0000000000000c0b .LASF149
     /tmp/ccUjdNV5.s:6201   .debug_str:0000000000000b82 .LASF150
     /tmp/ccUjdNV5.s:5897   .debug_str:000000000000027e .LASF151
     /tmp/ccUjdNV5.s:5991   .debug_str:000000000000050c .LASF152
GAS LISTING /tmp/ccUjdNV5.s 			page 50


     /tmp/ccUjdNV5.s:6211   .debug_str:0000000000000bac .LASF153
     /tmp/ccUjdNV5.s:6043   .debug_str:0000000000000633 .LASF154
     /tmp/ccUjdNV5.s:6217   .debug_str:0000000000000bc5 .LASF156
     /tmp/ccUjdNV5.s:6191   .debug_str:0000000000000b31 .LASF157
     /tmp/ccUjdNV5.s:5881   .debug_str:00000000000001cb .LASF158
     /tmp/ccUjdNV5.s:5895   .debug_str:0000000000000264 .LASF159
     /tmp/ccUjdNV5.s:5887   .debug_str:000000000000020e .LASF161
     /tmp/ccUjdNV5.s:5937   .debug_str:00000000000003a1 .LASF162
     /tmp/ccUjdNV5.s:5993   .debug_str:000000000000051c .LASF163
     /tmp/ccUjdNV5.s:5843   .debug_str:00000000000000b6 .LASF164
     /tmp/ccUjdNV5.s:5943   .debug_str:00000000000003bd .LASF165
     /tmp/ccUjdNV5.s:6193   .debug_str:0000000000000b36 .LASF226
     /tmp/ccUjdNV5.s:6167   .debug_str:00000000000009c3 .LASF166
     /tmp/ccUjdNV5.s:6125   .debug_str:0000000000000898 .LASF167
     /tmp/ccUjdNV5.s:5975   .debug_str:000000000000049e .LASF168
     /tmp/ccUjdNV5.s:5923   .debug_str:0000000000000324 .LASF169
     /tmp/ccUjdNV5.s:6223   .debug_str:0000000000000bdd .LASF170
     /tmp/ccUjdNV5.s:6027   .debug_str:00000000000005bd .LASF171
     /tmp/ccUjdNV5.s:5859   .debug_str:0000000000000126 .LASF172
     /tmp/ccUjdNV5.s:5863   .debug_str:0000000000000139 .LASF173
     /tmp/ccUjdNV5.s:5889   .debug_str:0000000000000229 .LASF174
     /tmp/ccUjdNV5.s:6225   .debug_str:0000000000000be5 .LASF175
     /tmp/ccUjdNV5.s:5985   .debug_str:00000000000004dc .LASF176
     /tmp/ccUjdNV5.s:6145   .debug_str:0000000000000926 .LASF177
     /tmp/ccUjdNV5.s:6035   .debug_str:00000000000005f9 .LASF178
     /tmp/ccUjdNV5.s:6261   .debug_str:0000000000000cee .LASF179
     /tmp/ccUjdNV5.s:6251   .debug_str:0000000000000ca2 .LASF180
     /tmp/ccUjdNV5.s:5957   .debug_str:0000000000000420 .LASF182
     /tmp/ccUjdNV5.s:6259   .debug_str:0000000000000cda .LASF227
     /tmp/ccUjdNV5.s:5949   .debug_str:00000000000003ef .LASF183
     /tmp/ccUjdNV5.s:6101   .debug_str:00000000000007e1 .LASF184
     /tmp/ccUjdNV5.s:5851   .debug_str:00000000000000f0 .LASF185
     /tmp/ccUjdNV5.s:6265   .debug_str:0000000000000d01 .LASF186
     /tmp/ccUjdNV5.s:6009   .debug_str:0000000000000560 .LASF187
     /tmp/ccUjdNV5.s:5883   .debug_str:00000000000001e9 .LASF188
     /tmp/ccUjdNV5.s:6159   .debug_str:00000000000009a4 .LASF189
     /tmp/ccUjdNV5.s:6273   .debug_str:0000000000000d55 .LASF190
     /tmp/ccUjdNV5.s:36     .text:0000000000000000 .LFB51
     /tmp/ccUjdNV5.s:1255   .text:00000000000007f4 .LFE51
     /tmp/ccUjdNV5.s:6141   .debug_str:0000000000000917 .LASF191
     /tmp/ccUjdNV5.s:4869   .debug_loc:0000000000000000 .LLST0
     /tmp/ccUjdNV5.s:6209   .debug_str:0000000000000ba7 .LASF192
     /tmp/ccUjdNV5.s:4900   .debug_loc:0000000000000087 .LLST1
     /tmp/ccUjdNV5.s:6233   .debug_str:0000000000000c18 .LASF193
     /tmp/ccUjdNV5.s:4931   .debug_loc:000000000000010e .LLST2
     /tmp/ccUjdNV5.s:4953   .debug_loc:000000000000016e .LLST3
     /tmp/ccUjdNV5.s:4975   .debug_loc:00000000000001ce .LLST4
     /tmp/ccUjdNV5.s:4997   .debug_loc:0000000000000230 .LLST5
     /tmp/ccUjdNV5.s:5019   .debug_loc:0000000000000292 .LLST6
     /tmp/ccUjdNV5.s:5041   .debug_loc:00000000000002f4 .LLST7
     /tmp/ccUjdNV5.s:5063   .debug_loc:0000000000000356 .LLST8
     /tmp/ccUjdNV5.s:5085   .debug_loc:00000000000003b8 .LLST9
     /tmp/ccUjdNV5.s:5107   .debug_loc:000000000000041a .LLST10
     /tmp/ccUjdNV5.s:169    .text:0000000000000080 .LBB3
     /tmp/ccUjdNV5.s:996    .text:0000000000000578 .LBE3
     /tmp/ccUjdNV5.s:6045   .debug_str:000000000000063f .LASF194
     /tmp/ccUjdNV5.s:5309   .debug_loc:000000000000079c .LLST11
GAS LISTING /tmp/ccUjdNV5.s 			page 51


     /tmp/ccUjdNV5.s:295    .text:000000000000012c .LBB5
     /tmp/ccUjdNV5.s:975    .text:0000000000000564 .LBE5
     /tmp/ccUjdNV5.s:5375   .debug_loc:00000000000008c0 .LLST12
     /tmp/ccUjdNV5.s:5396   .debug_loc:0000000000000920 .LLST13
     /tmp/ccUjdNV5.s:6245   .debug_str:0000000000000c79 .LASF195
     /tmp/ccUjdNV5.s:5408   .debug_loc:0000000000000958 .LLST14
     /tmp/ccUjdNV5.s:6061   .debug_str:00000000000006ba .LASF196
     /tmp/ccUjdNV5.s:5420   .debug_loc:0000000000000990 .LLST15
     /tmp/ccUjdNV5.s:5432   .debug_loc:00000000000009c8 .LLST16
     /tmp/ccUjdNV5.s:5444   .debug_loc:0000000000000a00 .LLST17
     /tmp/ccUjdNV5.s:6031   .debug_str:00000000000005e4 .LASF197
     /tmp/ccUjdNV5.s:5456   .debug_loc:0000000000000a38 .LLST18
     /tmp/ccUjdNV5.s:5955   .debug_str:0000000000000415 .LASF198
     /tmp/ccUjdNV5.s:5468   .debug_loc:0000000000000a70 .LLST19
     /tmp/ccUjdNV5.s:6143   .debug_str:000000000000091e .LASF199
     /tmp/ccUjdNV5.s:5480   .debug_loc:0000000000000aa8 .LLST20
     /tmp/ccUjdNV5.s:5875   .debug_str:0000000000000199 .LASF200
     /tmp/ccUjdNV5.s:5492   .debug_loc:0000000000000ae0 .LLST21
     /tmp/ccUjdNV5.s:5819   .debug_str:0000000000000000 .LASF201
     /tmp/ccUjdNV5.s:5504   .debug_loc:0000000000000b18 .LLST22
     /tmp/ccUjdNV5.s:6013   .debug_str:0000000000000570 .LASF202
     /tmp/ccUjdNV5.s:5516   .debug_loc:0000000000000b50 .LLST23
     /tmp/ccUjdNV5.s:5911   .debug_str:00000000000002cd .LASF203
     /tmp/ccUjdNV5.s:5528   .debug_loc:0000000000000b88 .LLST24
     /tmp/ccUjdNV5.s:5545   .debug_loc:0000000000000bd5 .LLST25
     /tmp/ccUjdNV5.s:6239   .debug_str:0000000000000c5c .LASF204
     /tmp/ccUjdNV5.s:5557   .debug_loc:0000000000000c0d .LLST26
     /tmp/ccUjdNV5.s:5569   .debug_loc:0000000000000c45 .LLST27
     /tmp/ccUjdNV5.s:5861   .debug_str:000000000000012f .LASF205
     /tmp/ccUjdNV5.s:5581   .debug_loc:0000000000000c7d .LLST28
     /tmp/ccUjdNV5.s:6083   .debug_str:000000000000074e .LASF206
     /tmp/ccUjdNV5.s:5593   .debug_loc:0000000000000cb5 .LLST29
     /tmp/ccUjdNV5.s:5969   .debug_str:0000000000000479 .LASF207
     /tmp/ccUjdNV5.s:5605   .debug_loc:0000000000000ced .LLST30
     /tmp/ccUjdNV5.s:5845   .debug_str:00000000000000cb .LASF208
     /tmp/ccUjdNV5.s:5617   .debug_loc:0000000000000d25 .LLST31
     /tmp/ccUjdNV5.s:5979   .debug_str:00000000000004b0 .LASF209
     /tmp/ccUjdNV5.s:5634   .debug_loc:0000000000000d70 .LLST32
     /tmp/ccUjdNV5.s:6149   .debug_str:0000000000000932 .LASF210
     /tmp/ccUjdNV5.s:5656   .debug_loc:0000000000000dd2 .LLST33
     /tmp/ccUjdNV5.s:5696   .debug_loc:0000000000000e7f .LLST34
     /tmp/ccUjdNV5.s:5709   .debug_loc:0000000000000eb9 .LLST35
     /tmp/ccUjdNV5.s:315    .text:0000000000000150 .LVL30
     /tmp/ccUjdNV5.s:338    .text:000000000000016c .LVL33
     /tmp/ccUjdNV5.s:384    .text:00000000000001a8 .LVL42
     /tmp/ccUjdNV5.s:395    .text:00000000000001c8 .LVL43
     /tmp/ccUjdNV5.s:438    .text:0000000000000204 .LVL45
     /tmp/ccUjdNV5.s:442    .text:000000000000020c .LVL46
     /tmp/ccUjdNV5.s:446    .text:0000000000000214 .LVL47
     /tmp/ccUjdNV5.s:455    .text:0000000000000220 .LVL49
     /tmp/ccUjdNV5.s:471    .text:0000000000000238 .LVL52
     /tmp/ccUjdNV5.s:475    .text:0000000000000240 .LVL53
     /tmp/ccUjdNV5.s:500    .text:0000000000000264 .LVL59
     /tmp/ccUjdNV5.s:550    .text:00000000000002a4 .LVL62
     /tmp/ccUjdNV5.s:573    .text:00000000000002c0 .LVL65
     /tmp/ccUjdNV5.s:596    .text:00000000000002dc .LVL68
     /tmp/ccUjdNV5.s:653    .text:0000000000000328 .LVL72
GAS LISTING /tmp/ccUjdNV5.s 			page 52


     /tmp/ccUjdNV5.s:657    .text:0000000000000330 .LVL73
     /tmp/ccUjdNV5.s:666    .text:000000000000033c .LVL75
     /tmp/ccUjdNV5.s:691    .text:000000000000035c .LVL79
     /tmp/ccUjdNV5.s:730    .text:0000000000000394 .LVL88
     /tmp/ccUjdNV5.s:780    .text:00000000000003d4 .LVL91
     /tmp/ccUjdNV5.s:806    .text:0000000000000400 .LVL94
     /tmp/ccUjdNV5.s:921    .text:00000000000004f4 .LVL110
     /tmp/ccUjdNV5.s:931    .text:0000000000000508 .LVL112
     /tmp/ccUjdNV5.s:936    .text:0000000000000514 .LVL113
     /tmp/ccUjdNV5.s:941    .text:0000000000000524 .LVL114
     /tmp/ccUjdNV5.s:946    .text:0000000000000530 .LVL115
     /tmp/ccUjdNV5.s:951    .text:0000000000000540 .LVL116
     /tmp/ccUjdNV5.s:956    .text:000000000000054c .LVL117
     /tmp/ccUjdNV5.s:1013   .text:0000000000000594 .LBB8
     /tmp/ccUjdNV5.s:1135   .text:00000000000006e8 .LBE8
     /tmp/ccUjdNV5.s:5735   .debug_loc:0000000000000f2b .LLST36
     /tmp/ccUjdNV5.s:1017   .text:000000000000059c .LVL126
     /tmp/ccUjdNV5.s:1042   .text:00000000000005d8 .LVL129
     /tmp/ccUjdNV5.s:1056   .text:000000000000060c .LVL130
     /tmp/ccUjdNV5.s:1101   .text:000000000000069c .LVL131
     /tmp/ccUjdNV5.s:1109   .text:00000000000006b0 .LVL132
     /tmp/ccUjdNV5.s:1118   .text:00000000000006c4 .LVL135
     /tmp/ccUjdNV5.s:1124   .text:00000000000006d0 .LVL136
     /tmp/ccUjdNV5.s:1129   .text:00000000000006dc .LVL137
     /tmp/ccUjdNV5.s:1134   .text:00000000000006e8 .LVL138
     /tmp/ccUjdNV5.s:1155   .text:0000000000000708 .LVL140
     /tmp/ccUjdNV5.s:1169   .text:000000000000073c .LVL141
     /tmp/ccUjdNV5.s:1182   .text:0000000000000764 .LVL142
     /tmp/ccUjdNV5.s:1192   .text:000000000000077c .LVL143
     /tmp/ccUjdNV5.s:1197   .text:0000000000000788 .LVL144
     /tmp/ccUjdNV5.s:1202   .text:0000000000000794 .LVL145
     /tmp/ccUjdNV5.s:1217   .text:00000000000007a8 .LVL147
     /tmp/ccUjdNV5.s:1222   .text:00000000000007b8 .LVL148
     /tmp/ccUjdNV5.s:1227   .text:00000000000007c4 .LVL149
     /tmp/ccUjdNV5.s:1232   .text:00000000000007d4 .LVL150
     /tmp/ccUjdNV5.s:1237   .text:00000000000007e0 .LVL151
     /tmp/ccUjdNV5.s:1388   .text._ZN3TCB12getTimeSliceEv:0000000000000000 .LFB36
     /tmp/ccUjdNV5.s:1409   .text._ZN3TCB12getTimeSliceEv:000000000000001c .LFE36
     /tmp/ccUjdNV5.s:5933   .debug_str:0000000000000396 .LASF211
     /tmp/ccUjdNV5.s:5764   .debug_loc:0000000000000fb1 .LLST37
     /tmp/ccUjdNV5.s:1359   .text._ZN3TCB11setFinishedEb:0000000000000000 .LFB33
     /tmp/ccUjdNV5.s:1381   .text._ZN3TCB11setFinishedEb:000000000000001c .LFE33
     /tmp/ccUjdNV5.s:6021   .debug_str:0000000000000593 .LASF212
     /tmp/ccUjdNV5.s:1327   .text._ZN5Riscv9w_sstatusEm:0000000000000000 .LFB16
     /tmp/ccUjdNV5.s:1352   .text._ZN5Riscv9w_sstatusEm:000000000000001c .LFE16
     /tmp/ccUjdNV5.s:1295   .text._ZN5Riscv6mc_sipEm:0000000000000000 .LFB10
     /tmp/ccUjdNV5.s:1320   .text._ZN5Riscv6mc_sipEm:000000000000001c .LFE10
     /tmp/ccUjdNV5.s:6215   .debug_str:0000000000000bc0 .LASF213
     /tmp/ccUjdNV5.s:1262   .text._ZN5Riscv6w_sepcEm:0000000000000000 .LFB6
     /tmp/ccUjdNV5.s:1288   .text._ZN5Riscv6w_sepcEm:000000000000001c .LFE6
     /tmp/ccUjdNV5.s:6003   .debug_str:0000000000000548 .LASF214
     /tmp/ccUjdNV5.s:6015   .debug_str:000000000000057d .LASF215
     /tmp/ccUjdNV5.s:6071   .debug_str:000000000000070b .LASF216
     /tmp/ccUjdNV5.s:6249   .debug_str:0000000000000c96 .LASF217
     /tmp/ccUjdNV5.s:5821   .debug_str:000000000000000b .LASF218
     /tmp/ccUjdNV5.s:6075   .debug_str:000000000000072c .LASF219
     /tmp/ccUjdNV5.s:6011   .debug_str:0000000000000565 .LASF220
GAS LISTING /tmp/ccUjdNV5.s 			page 53


     /tmp/ccUjdNV5.s:6073   .debug_str:000000000000071e .LASF221
     /tmp/ccUjdNV5.s:57     .text:0000000000000018 .LVL0
     /tmp/ccUjdNV5.s:64     .text:000000000000001c .LVL1
     /tmp/ccUjdNV5.s:1001   .text:0000000000000580 .LVL124
     /tmp/ccUjdNV5.s:1008   .text:0000000000000584 .LVL125
     /tmp/ccUjdNV5.s:1249   .text:00000000000007ec .LVL152
     /tmp/ccUjdNV5.s:1252   .text:00000000000007f0 .LVL153
     /tmp/ccUjdNV5.s:67     .text:0000000000000020 .LVL2
     /tmp/ccUjdNV5.s:74     .text:0000000000000024 .LVL3
     /tmp/ccUjdNV5.s:984    .text:000000000000056c .LVL122
     /tmp/ccUjdNV5.s:987    .text:0000000000000570 .LVL123
     /tmp/ccUjdNV5.s:77     .text:0000000000000028 .LVL4
     /tmp/ccUjdNV5.s:85     .text:000000000000002c .LVL5
     /tmp/ccUjdNV5.s:88     .text:0000000000000030 .LVL6
     /tmp/ccUjdNV5.s:95     .text:0000000000000034 .LVL7
     /tmp/ccUjdNV5.s:98     .text:0000000000000038 .LVL8
     /tmp/ccUjdNV5.s:105    .text:000000000000003c .LVL9
     /tmp/ccUjdNV5.s:108    .text:0000000000000040 .LVL10
     /tmp/ccUjdNV5.s:115    .text:0000000000000044 .LVL11
     /tmp/ccUjdNV5.s:118    .text:0000000000000048 .LVL12
     /tmp/ccUjdNV5.s:125    .text:000000000000004c .LVL13
     /tmp/ccUjdNV5.s:128    .text:0000000000000050 .LVL14
     /tmp/ccUjdNV5.s:135    .text:0000000000000054 .LVL15
     /tmp/ccUjdNV5.s:138    .text:0000000000000058 .LVL16
     /tmp/ccUjdNV5.s:145    .text:000000000000005c .LVL17
     /tmp/ccUjdNV5.s:148    .text:0000000000000060 .LVL18
     /tmp/ccUjdNV5.s:155    .text:0000000000000064 .LVL19
     /tmp/ccUjdNV5.s:158    .text:0000000000000068 .LVL20
     /tmp/ccUjdNV5.s:325    .text:0000000000000158 .LVL31
     /tmp/ccUjdNV5.s:348    .text:0000000000000174 .LVL34
     /tmp/ccUjdNV5.s:428    .text:00000000000001e8 .LVL44
     /tmp/ccUjdNV5.s:449    .text:0000000000000218 .LVL48
     /tmp/ccUjdNV5.s:458    .text:0000000000000224 .LVL50
     /tmp/ccUjdNV5.s:478    .text:0000000000000244 .LVL54
     /tmp/ccUjdNV5.s:537    .text:0000000000000290 .LVL60
     /tmp/ccUjdNV5.s:560    .text:00000000000002ac .LVL63
     /tmp/ccUjdNV5.s:583    .text:00000000000002c8 .LVL66
     /tmp/ccUjdNV5.s:606    .text:00000000000002e4 .LVL69
     /tmp/ccUjdNV5.s:660    .text:0000000000000334 .LVL74
     /tmp/ccUjdNV5.s:676    .text:0000000000000344 .LVL76
     /tmp/ccUjdNV5.s:694    .text:0000000000000360 .LVL80
     /tmp/ccUjdNV5.s:767    .text:00000000000003c0 .LVL89
     /tmp/ccUjdNV5.s:783    .text:00000000000003d8 .LVL92
     /tmp/ccUjdNV5.s:791    .text:00000000000003e0 .LVL93
     /tmp/ccUjdNV5.s:815    .text:0000000000000410 .LVL96
     /tmp/ccUjdNV5.s:899    .text:00000000000004b8 .LVL107
     /tmp/ccUjdNV5.s:924    .text:00000000000004f8 .LVL111
     /tmp/ccUjdNV5.s:1141   .text:00000000000006ec .LVL139
     /tmp/ccUjdNV5.s:1208   .text:0000000000000798 .LVL146
     /tmp/ccUjdNV5.s:174    .text:0000000000000088 .LVL21
     /tmp/ccUjdNV5.s:179    .text:0000000000000090 .LVL22
     /tmp/ccUjdNV5.s:206    .text:00000000000000f8 .LVL23
     /tmp/ccUjdNV5.s:208    .text:0000000000000100 .LVL24
     /tmp/ccUjdNV5.s:287    .text:000000000000011c .LVL25
     /tmp/ccUjdNV5.s:290    .text:0000000000000120 .LVL26
     /tmp/ccUjdNV5.s:841    .text:0000000000000428 .LVL100
     /tmp/ccUjdNV5.s:302    .text:0000000000000134 .LVL27
GAS LISTING /tmp/ccUjdNV5.s 			page 54


     /tmp/ccUjdNV5.s:307    .text:000000000000013c .LVL28
     /tmp/ccUjdNV5.s:309    .text:0000000000000140 .LVL29
     /tmp/ccUjdNV5.s:333    .text:0000000000000160 .LVL32
     /tmp/ccUjdNV5.s:356    .text:000000000000017c .LVL35
     /tmp/ccUjdNV5.s:361    .text:0000000000000180 .LVL36
     /tmp/ccUjdNV5.s:363    .text:0000000000000184 .LVL37
     /tmp/ccUjdNV5.s:368    .text:0000000000000188 .LVL38
     /tmp/ccUjdNV5.s:370    .text:000000000000018c .LVL39
     /tmp/ccUjdNV5.s:375    .text:0000000000000190 .LVL40
     /tmp/ccUjdNV5.s:377    .text:0000000000000194 .LVL41
     /tmp/ccUjdNV5.s:466    .text:000000000000022c .LVL51
     /tmp/ccUjdNV5.s:486    .text:000000000000024c .LVL55
     /tmp/ccUjdNV5.s:491    .text:0000000000000250 .LVL56
     /tmp/ccUjdNV5.s:493    .text:0000000000000254 .LVL57
     /tmp/ccUjdNV5.s:497    .text:0000000000000258 .LVL58
     /tmp/ccUjdNV5.s:545    .text:0000000000000298 .LVL61
     /tmp/ccUjdNV5.s:568    .text:00000000000002b4 .LVL64
     /tmp/ccUjdNV5.s:591    .text:00000000000002d0 .LVL67
     /tmp/ccUjdNV5.s:614    .text:00000000000002ec .LVL70
     /tmp/ccUjdNV5.s:644    .text:0000000000000308 .LVL71
     /tmp/ccUjdNV5.s:959    .text:0000000000000550 .LVL118
     /tmp/ccUjdNV5.s:964    .text:0000000000000558 .LVL119
     /tmp/ccUjdNV5.s:684    .text:000000000000034c .LVL77
     /tmp/ccUjdNV5.s:688    .text:0000000000000350 .LVL78
     /tmp/ccUjdNV5.s:702    .text:0000000000000368 .LVL81
     /tmp/ccUjdNV5.s:707    .text:000000000000036c .LVL82
     /tmp/ccUjdNV5.s:709    .text:0000000000000370 .LVL83
     /tmp/ccUjdNV5.s:714    .text:0000000000000374 .LVL84
     /tmp/ccUjdNV5.s:716    .text:0000000000000378 .LVL85
     /tmp/ccUjdNV5.s:721    .text:000000000000037c .LVL86
     /tmp/ccUjdNV5.s:723    .text:0000000000000380 .LVL87
     /tmp/ccUjdNV5.s:775    .text:00000000000003c8 .LVL90
     /tmp/ccUjdNV5.s:812    .text:000000000000040c .LVL95
     /tmp/ccUjdNV5.s:969    .text:0000000000000560 .LVL120
     /tmp/ccUjdNV5.s:823    .text:0000000000000418 .LVL97
     /tmp/ccUjdNV5.s:973    .text:0000000000000564 .LVL121
     /tmp/ccUjdNV5.s:854    .text:0000000000000444 .LVL101
     /tmp/ccUjdNV5.s:859    .text:0000000000000454 .LVL102
     /tmp/ccUjdNV5.s:892    .text:00000000000004a8 .LVL105
     /tmp/ccUjdNV5.s:895    .text:00000000000004ac .LVL106
     /tmp/ccUjdNV5.s:906    .text:00000000000004c4 .LVL108
     /tmp/ccUjdNV5.s:909    .text:00000000000004cc .LVL109
     /tmp/ccUjdNV5.s:831    .text:000000000000041c .LVL98
     /tmp/ccUjdNV5.s:837    .text:0000000000000424 .LVL99
     /tmp/ccUjdNV5.s:872    .text:0000000000000478 .LVL103
     /tmp/ccUjdNV5.s:876    .text:0000000000000480 .LVL104
     /tmp/ccUjdNV5.s:1021   .text:00000000000005a4 .LVL127
     /tmp/ccUjdNV5.s:1040   .text:00000000000005d0 .LVL128
     /tmp/ccUjdNV5.s:1111   .text:00000000000006b4 .LVL133
     /tmp/ccUjdNV5.s:1116   .text:00000000000006bc .LVL134
     /tmp/ccUjdNV5.s:1391   .text._ZN3TCB12getTimeSliceEv:0000000000000000 .LVL158
     /tmp/ccUjdNV5.s:1401   .text._ZN3TCB12getTimeSliceEv:0000000000000010 .LVL159
     /tmp/ccUjdNV5.s:1437   .debug_info:0000000000000000 .Ldebug_info0
     /tmp/ccUjdNV5.s:5      .text:0000000000000000 .Ltext0
     /tmp/ccUjdNV5.s:1426   .text:00000000000007f4 .Letext0

UNDEFINED SYMBOLS
GAS LISTING /tmp/ccUjdNV5.s 			page 55


_ZN15MemoryAllocator7kmallocEmNS_7PurposeE
_ZN15MemoryAllocator5kfreeEPv
_ZN3TCB12createThreadEPFvPvES0_Pm
_ZN3TCB5startEPS_
_ZN3TCB7runningE
_ZN3TCB13releaseJoinedEv
_ZN3TCB5yieldEv
_ZN3TCB10threadJoinEPS_
_ZN4KSem7initSemEj
_ZN4KSem8closeSemEPS_
_ZN4KSem4waitEv
_ZN4KSem6signalEv
_ZN9Scheduler10putToSleepEP3TCBm
__getc
__putc
_ZN9Scheduler3putEP3TCB
_Z11printStringPKc
_Z12printIntegerm
plic_claim
_ZN8KConsole2srE
_ZN8KConsole2drE
plic_complete
_ZN9Scheduler4wakeEv
_ZN3TCB16runningTimeSliceE
