GAS LISTING /tmp/cc3HINz4.s 			page 1


   1              		.file	"interruptRoutine.cpp"
   2              		.option pic
   3              		.option norelax
   4              		.text
   5              	.Ltext0:
   6              		.section	.text._ZN4KSemD2Ev,"axG",@progbits,_ZN4KSemD5Ev,comdat
   7              		.align	2
   8              		.weak	_ZN4KSemD2Ev
  10              	_ZN4KSemD2Ev:
  11              	.LFB68:
  12              		.file 1 "src/../h/KSem.hpp"
   1:src/../h/KSem.hpp **** //
   2:src/../h/KSem.hpp **** // Created by os on 6/4/23.
   3:src/../h/KSem.hpp **** //
   4:src/../h/KSem.hpp **** 
   5:src/../h/KSem.hpp **** #ifndef PROJEKAT2023_KSEM_HPP
   6:src/../h/KSem.hpp **** #define PROJEKAT2023_KSEM_HPP
   7:src/../h/KSem.hpp **** 
   8:src/../h/KSem.hpp **** #include "../h/ThreadQueue.hpp"
   9:src/../h/KSem.hpp **** 
  10:src/../h/KSem.hpp **** //klasa napravljena po uzoru na semafor u skolskom jezgru
  11:src/../h/KSem.hpp **** class KSem {
  13              		.loc 1 11 7
  14              		.cfi_startproc
  15              		.cfi_personality 0x9b,DW.ref.__gxx_personality_v0
  16              		.cfi_lsda 0x1b,.LLSDA68
  17              	.LVL0:
  18 0000 130101FE 		addi	sp,sp,-32
  19              		.cfi_def_cfa_offset 32
  20 0004 233C1100 		sd	ra,24(sp)
  21 0008 23388100 		sd	s0,16(sp)
  22 000c 23349100 		sd	s1,8(sp)
  23              		.cfi_offset 1, -8
  24              		.cfi_offset 8, -16
  25              		.cfi_offset 9, -24
  26 0010 13040102 		addi	s0,sp,32
  27              		.cfi_def_cfa 8, 0
  28 0014 93040500 		mv	s1,a0
  29              	.LVL1:
  30              	.L3:
  31              	.LBB19:
  32              	.LBB20:
  33              		.file 2 "src/../h/../h/ThreadQueue.hpp"
   1:src/../h/../h/ThreadQueue.hpp **** //
   2:src/../h/../h/ThreadQueue.hpp **** // Created by os on 6/4/23.
   3:src/../h/../h/ThreadQueue.hpp **** //
   4:src/../h/../h/ThreadQueue.hpp **** 
   5:src/../h/../h/ThreadQueue.hpp **** #ifndef PROJEKAT2023_THREADQUEUE_HPP
   6:src/../h/../h/ThreadQueue.hpp **** #define PROJEKAT2023_THREADQUEUE_HPP
   7:src/../h/../h/ThreadQueue.hpp **** 
   8:src/../h/../h/ThreadQueue.hpp **** #include "../h/syscall_c.hpp"
   9:src/../h/../h/ThreadQueue.hpp **** 
  10:src/../h/../h/ThreadQueue.hpp **** class TCB;
  11:src/../h/../h/ThreadQueue.hpp **** 
  12:src/../h/../h/ThreadQueue.hpp **** class ThreadQueue {
  13:src/../h/../h/ThreadQueue.hpp **** private:
  14:src/../h/../h/ThreadQueue.hpp ****     struct Node {
GAS LISTING /tmp/cc3HINz4.s 			page 2


  15:src/../h/../h/ThreadQueue.hpp ****         TCB* data;
  16:src/../h/../h/ThreadQueue.hpp ****         Node* next;
  17:src/../h/../h/ThreadQueue.hpp **** 
  18:src/../h/../h/ThreadQueue.hpp ****         Node(TCB* d) : data(d), next(nullptr) {}
  19:src/../h/../h/ThreadQueue.hpp **** 
  20:src/../h/../h/ThreadQueue.hpp ****         static void* operator new(size_t size) {
  21:src/../h/../h/ThreadQueue.hpp ****             return mem_alloc(size);
  22:src/../h/../h/ThreadQueue.hpp ****         }
  23:src/../h/../h/ThreadQueue.hpp **** 
  24:src/../h/../h/ThreadQueue.hpp ****         static void operator delete(void* ptr) {
  25:src/../h/../h/ThreadQueue.hpp ****             mem_free(ptr);
  26:src/../h/../h/ThreadQueue.hpp ****         }
  27:src/../h/../h/ThreadQueue.hpp ****     };
  28:src/../h/../h/ThreadQueue.hpp **** 
  29:src/../h/../h/ThreadQueue.hpp ****     Node* front;
  30:src/../h/../h/ThreadQueue.hpp ****     Node* back;
  31:src/../h/../h/ThreadQueue.hpp **** 
  32:src/../h/../h/ThreadQueue.hpp **** public:
  33:src/../h/../h/ThreadQueue.hpp ****     ThreadQueue() : front(nullptr), back(nullptr) {}
  34:src/../h/../h/ThreadQueue.hpp **** 
  35:src/../h/../h/ThreadQueue.hpp ****     ThreadQueue(const ThreadQueue &) = delete;
  36:src/../h/../h/ThreadQueue.hpp **** 
  37:src/../h/../h/ThreadQueue.hpp ****     ThreadQueue &operator=(const ThreadQueue &) = delete;
  38:src/../h/../h/ThreadQueue.hpp **** 
  39:src/../h/../h/ThreadQueue.hpp ****     ~ThreadQueue() {
  40:src/../h/../h/ThreadQueue.hpp ****         while (!isEmpty()) {
  34              		.loc 2 40 9
  35              		.loc 2 40 16
  36              	.LBB21:
  37              	.LBB22:
  41:src/../h/../h/ThreadQueue.hpp ****             Node* node = front;
  42:src/../h/../h/ThreadQueue.hpp ****             front = front->next;
  43:src/../h/../h/ThreadQueue.hpp ****             delete node;
  44:src/../h/../h/ThreadQueue.hpp ****         }
  45:src/../h/../h/ThreadQueue.hpp ****     }
  46:src/../h/../h/ThreadQueue.hpp **** 
  47:src/../h/../h/ThreadQueue.hpp ****     bool isEmpty() const {
  48:src/../h/../h/ThreadQueue.hpp ****         return front == nullptr;
  38              		.loc 2 48 9
  39              		.loc 2 48 16 is_stmt 0
  40 0018 03B58400 		ld	a0,8(s1)
  41              	.LVL2:
  42              	.LBE22:
  43              	.LBE21:
  40:src/../h/../h/ThreadQueue.hpp ****             Node* node = front;
  44              		.loc 2 40 16
  45 001c 630E0500 		beqz	a0,.L1
  46              	.LBB23:
  41:src/../h/../h/ThreadQueue.hpp ****             Node* node = front;
  47              		.loc 2 41 13 is_stmt 1
  48              	.LVL3:
  42:src/../h/../h/ThreadQueue.hpp ****             delete node;
  49              		.loc 2 42 13
  42:src/../h/../h/ThreadQueue.hpp ****             delete node;
  50              		.loc 2 42 28 is_stmt 0
  51 0020 83378500 		ld	a5,8(a0)
  42:src/../h/../h/ThreadQueue.hpp ****             delete node;
GAS LISTING /tmp/cc3HINz4.s 			page 3


  52              		.loc 2 42 19
  53 0024 23B4F400 		sd	a5,8(s1)
  43:src/../h/../h/ThreadQueue.hpp ****         }
  54              		.loc 2 43 13 is_stmt 1
  43:src/../h/../h/ThreadQueue.hpp ****         }
  55              		.loc 2 43 24 is_stmt 0
  56 0028 E30805FE 		beqz	a0,.L3
  57              	.LVL4:
  58              	.LBB24:
  59              	.LBB25:
  25:src/../h/../h/ThreadQueue.hpp ****         }
  60              		.loc 2 25 13 is_stmt 1
  25:src/../h/../h/ThreadQueue.hpp ****         }
  61              		.loc 2 25 21 is_stmt 0
  62 002c 97000000 		call	_Z8mem_freePv@plt
  62      E7800000 
  63              	.LVL5:
  26:src/../h/../h/ThreadQueue.hpp ****     };
  64              		.loc 2 26 9
  65 0034 6FF05FFE 		j	.L3
  66              	.L1:
  67              	.LBE25:
  68              	.LBE24:
  69              	.LBE23:
  70              	.LBE20:
  71              	.LBE19:
  72              		.loc 1 11 7
  73 0038 83308101 		ld	ra,24(sp)
  74              		.cfi_restore 1
  75 003c 03340101 		ld	s0,16(sp)
  76              		.cfi_restore 8
  77              		.cfi_def_cfa 2, 32
  78 0040 83348100 		ld	s1,8(sp)
  79              		.cfi_restore 9
  80              	.LVL6:
  81 0044 13010102 		addi	sp,sp,32
  82              		.cfi_def_cfa_offset 0
  83 0048 67800000 		jr	ra
  84              		.cfi_endproc
  85              	.LFE68:
  86              		.globl	__gxx_personality_v0
  87              		.section	.gcc_except_table._ZN4KSemD2Ev,"aG",@progbits,_ZN4KSemD5Ev,comdat
  88              	.LLSDA68:
  89 0000 FF       		.byte	0xff
  90 0001 FF       		.byte	0xff
  91 0002 03       		.byte	0x3
  92 0003 00       		.byte	0
  93              		.section	.text._ZN4KSemD2Ev,"axG",@progbits,_ZN4KSemD5Ev,comdat
  95              		.weak	_ZN4KSemD1Ev
  96              		.set	_ZN4KSemD1Ev,_ZN4KSemD2Ev
  97              		.text
  98              		.align	2
  99              		.globl	interruptRoutine
 101              	interruptRoutine:
 102              	.LFB66:
 103              		.file 3 "src/interruptRoutine.cpp"
   1:src/interruptRoutine.cpp **** //
GAS LISTING /tmp/cc3HINz4.s 			page 4


   2:src/interruptRoutine.cpp **** // Created by os on 5/22/23.
   3:src/interruptRoutine.cpp **** //
   4:src/interruptRoutine.cpp **** 
   5:src/interruptRoutine.cpp **** #include "../lib/hw.h"
   6:src/interruptRoutine.cpp **** #include "../h/Riscv.hpp"
   7:src/interruptRoutine.cpp **** #include "../h/KMemory.hpp"
   8:src/interruptRoutine.cpp **** #include "../h/KSem.hpp"
   9:src/interruptRoutine.cpp **** #include "../h/KConsole.hpp"
  10:src/interruptRoutine.cpp **** #include "../h/TCB.hpp"
  11:src/interruptRoutine.cpp **** #include "../h/Scheduler.hpp"
  12:src/interruptRoutine.cpp **** 
  13:src/interruptRoutine.cpp **** //#include "../test/printing.hpp"
  14:src/interruptRoutine.cpp **** 
  15:src/interruptRoutine.cpp **** int main();
  16:src/interruptRoutine.cpp **** 
  17:src/interruptRoutine.cpp **** #pragma GCC optimize("O0")
  18:src/interruptRoutine.cpp **** extern "C" void interruptRoutine() {
 104              		.loc 3 18 36 is_stmt 1
 105              		.cfi_startproc
 106 0000 130101F9 		addi	sp,sp,-112
 107              		.cfi_def_cfa_offset 112
 108 0004 23341106 		sd	ra,104(sp)
 109 0008 23308106 		sd	s0,96(sp)
 110 000c 233C9104 		sd	s1,88(sp)
 111              		.cfi_offset 1, -8
 112              		.cfi_offset 8, -16
 113              		.cfi_offset 9, -24
 114 0010 13040107 		addi	s0,sp,112
 115              		.cfi_def_cfa 8, 0
  19:src/interruptRoutine.cpp ****     //bitni sistemski registri
  20:src/interruptRoutine.cpp ****     uint64 scause, sepc, sstatus;
 116              		.loc 3 20 5
  21:src/interruptRoutine.cpp ****     __asm__ volatile("csrr %[scause], scause":[scause] "=r"(scause): : "a5", "a0", "a1", "a2", "a3"
 117              		.loc 3 21 5
 118              		.loc 3 21 119 is_stmt 0
 119              	#APP
 120              	# 21 "src/interruptRoutine.cpp" 1
  22              	    __asm__ volatile("csrr %[sepc], sepc":[sepc] "=r"(sepc): : "a5", "a0", "a1", "a2", "a3", "a4", 
 121              		csrr t1, scause
 122              	# 0 "" 2
 123              	#NO_APP
 124 0018 233C64FC 		sd	t1,-40(s0)
 125              	.LVL7:
 126              		.loc 3 22 5 is_stmt 1
 127              		.loc 3 22 111 is_stmt 0
 128              	#APP
 129              	# 22 "src/interruptRoutine.cpp" 1
  23              	    __asm__ volatile("csrr %[stat], sstatus":[stat] "=r"(sstatus): : "a5", "a0", "a1", "a2", "a3", 
 130              		csrr t1, sepc
 131              	# 0 "" 2
 132              	.LVL8:
 133              	#NO_APP
 134 0020 233864FC 		sd	t1,-48(s0)
 135              	.LVL9:
 136              		.loc 3 23 5 is_stmt 1
 137              		.loc 3 23 117 is_stmt 0
 138              	#APP
GAS LISTING /tmp/cc3HINz4.s 			page 5


 139              	# 23 "src/interruptRoutine.cpp" 1
  24              	
 140              		csrr t1, sstatus
 141              	# 0 "" 2
 142              	.LVL10:
 143              	#NO_APP
 144 0028 233464FC 		sd	t1,-56(s0)
 145              	.LVL11:
  25:src/interruptRoutine.cpp ****     //argumenti preneti sistemskom pozivu
  26:src/interruptRoutine.cpp ****     uint64 a0, a1, a2, a3, a4;
 146              		.loc 3 26 5 is_stmt 1
  27:src/interruptRoutine.cpp ****     //uint64 a5, a6, a7;
  28:src/interruptRoutine.cpp ****     __asm__ volatile("mv %[ax], a0":[ax] "=r"(a0): : "a5", "a0", "a1", "a2", "a3", "a4", "a6", "a7"
 147              		.loc 3 28 5
 148              		.loc 3 28 101 is_stmt 0
 149              	#APP
 150              	# 28 "src/interruptRoutine.cpp" 1
  29              	    __asm__ volatile("mv %[ax], a1":[ax] "=r"(a1): : "a5", "a0", "a1", "a2", "a3", "a4", "a6", "a7"
 151              		mv t1, a0
 152              	# 0 "" 2
 153              	.LVL12:
 154              	#NO_APP
 155 0030 233064FC 		sd	t1,-64(s0)
 156              	.LVL13:
 157              		.loc 3 29 5 is_stmt 1
 158              		.loc 3 29 101 is_stmt 0
 159              	#APP
 160              	# 29 "src/interruptRoutine.cpp" 1
  30              	    __asm__ volatile("mv %[ax], a2":[ax] "=r"(a2): : "a5", "a0", "a1", "a2", "a3", "a4", "a6", "a7"
 161              		mv t1, a1
 162              	# 0 "" 2
 163              	.LVL14:
 164              	#NO_APP
 165 0038 233C64FA 		sd	t1,-72(s0)
 166              	.LVL15:
 167              		.loc 3 30 5 is_stmt 1
 168              		.loc 3 30 101 is_stmt 0
 169              	#APP
 170              	# 30 "src/interruptRoutine.cpp" 1
  31              	    __asm__ volatile("mv %[ax], a3":[ax] "=r"(a3): : "a5", "a0", "a1", "a2", "a3", "a4", "a6", "a7"
 171              		mv t1, a2
 172              	# 0 "" 2
 173              	.LVL16:
 174              	#NO_APP
 175 0040 233864FA 		sd	t1,-80(s0)
 176              	.LVL17:
 177              		.loc 3 31 5 is_stmt 1
 178              		.loc 3 31 101 is_stmt 0
 179              	#APP
 180              	# 31 "src/interruptRoutine.cpp" 1
  32              	    __asm__ volatile("mv %[ax], a4":[ax] "=r"(a4): : "a5", "a0", "a1", "a2", "a3", "a4", "a6", "a7"
 181              		mv t1, a3
 182              	# 0 "" 2
 183              	.LVL18:
 184              	#NO_APP
 185 0048 233464FA 		sd	t1,-88(s0)
 186              	.LVL19:
GAS LISTING /tmp/cc3HINz4.s 			page 6


 187              		.loc 3 32 5 is_stmt 1
 188              		.loc 3 32 101 is_stmt 0
 189              	#APP
 190              	# 32 "src/interruptRoutine.cpp" 1
  33              	//    __asm__ volatile("mv %[ax], a5":[ax] "=r"(a5): : "a5", "a0", "a1", "a2", "a3", "a4", "a6", "a
 191              		mv t1, a4
 192              	# 0 "" 2
 193              	.LVL20:
 194              	#NO_APP
 195 0050 233064FA 		sd	t1,-96(s0)
 196              	.LVL21:
  34:src/interruptRoutine.cpp **** //    __asm__ volatile("mv %[ax], a6":[ax] "=r"(a6): : "a5", "a0", "a1", "a2", "a3", "a4", "a6", "a
  35:src/interruptRoutine.cpp **** //    __asm__ volatile("mv %[ax], a7":[ax] "=r"(a7): : "a5", "a0", "a1", "a2", "a3", "a4", "a6", "a
  36:src/interruptRoutine.cpp **** 
  37:src/interruptRoutine.cpp ****     if (scause == 0x9 || scause == 0x8) {
 197              		.loc 3 37 5 is_stmt 1
 198              	.LBB26:
 199 0054 033784FD 		ld	a4,-40(s0)
 200 0058 93079000 		li	a5,9
 201 005c 6308F700 		beq	a4,a5,.L7
 202              		.loc 3 37 23 is_stmt 0 discriminator 1
 203 0060 033784FD 		ld	a4,-40(s0)
 204 0064 93078000 		li	a5,8
 205 0068 6312F744 		bne	a4,a5,.L8
 206              	.L7:
 207              	.LBB27:
  38:src/interruptRoutine.cpp ****         //prekid zbog poziva ecall
  39:src/interruptRoutine.cpp ****         switch (a0) {
 208              		.loc 3 39 9 is_stmt 1
 209 006c 033704FC 		ld	a4,-64(s0)
 210 0070 93071008 		li	a5,129
 211 0074 63E8E73E 		bgtu	a4,a5,.L52
 212 0078 833704FC 		ld	a5,-64(s0)
 213 007c 13972700 		slli	a4,a5,2
 214 0080 97070000 		lla	a5,.L11
 214      93870700 
 215 0088 B307F700 		add	a5,a4,a5
 216 008c 83A70700 		lw	a5,0(a5)
 217 0090 1B870700 		sext.w	a4,a5
 218 0094 97070000 		lla	a5,.L11
 218      93870700 
 219 009c B307F700 		add	a5,a4,a5
 220 00a0 67800700 		jr	a5
 221              		.section	.rodata
 222              		.align	2
 223              		.align	2
 224              	.L11:
 225 0000 00000000 		.word	.L52-.L11
 226 0004 00000000 		.word	.L27-.L11
 227 0008 00000000 		.word	.L26-.L11
 228 000c 00000000 		.word	.L52-.L11
 229 0010 00000000 		.word	.L52-.L11
 230 0014 00000000 		.word	.L52-.L11
 231 0018 00000000 		.word	.L52-.L11
 232 001c 00000000 		.word	.L52-.L11
 233 0020 00000000 		.word	.L52-.L11
 234 0024 00000000 		.word	.L52-.L11
GAS LISTING /tmp/cc3HINz4.s 			page 7


 235 0028 00000000 		.word	.L52-.L11
 236 002c 00000000 		.word	.L52-.L11
 237 0030 00000000 		.word	.L52-.L11
 238 0034 00000000 		.word	.L52-.L11
 239 0038 00000000 		.word	.L52-.L11
 240 003c 00000000 		.word	.L52-.L11
 241 0040 00000000 		.word	.L52-.L11
 242 0044 00000000 		.word	.L25-.L11
 243 0048 00000000 		.word	.L24-.L11
 244 004c 00000000 		.word	.L23-.L11
 245 0050 00000000 		.word	.L22-.L11
 246 0054 00000000 		.word	.L21-.L11
 247 0058 00000000 		.word	.L52-.L11
 248 005c 00000000 		.word	.L52-.L11
 249 0060 00000000 		.word	.L52-.L11
 250 0064 00000000 		.word	.L52-.L11
 251 0068 00000000 		.word	.L52-.L11
 252 006c 00000000 		.word	.L52-.L11
 253 0070 00000000 		.word	.L52-.L11
 254 0074 00000000 		.word	.L52-.L11
 255 0078 00000000 		.word	.L52-.L11
 256 007c 00000000 		.word	.L52-.L11
 257 0080 00000000 		.word	.L52-.L11
 258 0084 00000000 		.word	.L20-.L11
 259 0088 00000000 		.word	.L19-.L11
 260 008c 00000000 		.word	.L18-.L11
 261 0090 00000000 		.word	.L17-.L11
 262 0094 00000000 		.word	.L52-.L11
 263 0098 00000000 		.word	.L52-.L11
 264 009c 00000000 		.word	.L52-.L11
 265 00a0 00000000 		.word	.L52-.L11
 266 00a4 00000000 		.word	.L52-.L11
 267 00a8 00000000 		.word	.L52-.L11
 268 00ac 00000000 		.word	.L52-.L11
 269 00b0 00000000 		.word	.L52-.L11
 270 00b4 00000000 		.word	.L52-.L11
 271 00b8 00000000 		.word	.L52-.L11
 272 00bc 00000000 		.word	.L52-.L11
 273 00c0 00000000 		.word	.L52-.L11
 274 00c4 00000000 		.word	.L16-.L11
 275 00c8 00000000 		.word	.L52-.L11
 276 00cc 00000000 		.word	.L52-.L11
 277 00d0 00000000 		.word	.L52-.L11
 278 00d4 00000000 		.word	.L52-.L11
 279 00d8 00000000 		.word	.L52-.L11
 280 00dc 00000000 		.word	.L52-.L11
 281 00e0 00000000 		.word	.L52-.L11
 282 00e4 00000000 		.word	.L52-.L11
 283 00e8 00000000 		.word	.L52-.L11
 284 00ec 00000000 		.word	.L52-.L11
 285 00f0 00000000 		.word	.L52-.L11
 286 00f4 00000000 		.word	.L52-.L11
 287 00f8 00000000 		.word	.L52-.L11
 288 00fc 00000000 		.word	.L52-.L11
 289 0100 00000000 		.word	.L52-.L11
 290 0104 00000000 		.word	.L15-.L11
 291 0108 00000000 		.word	.L14-.L11
GAS LISTING /tmp/cc3HINz4.s 			page 8


 292 010c 00000000 		.word	.L43-.L11
 293 0110 00000000 		.word	.L52-.L11
 294 0114 00000000 		.word	.L52-.L11
 295 0118 00000000 		.word	.L52-.L11
 296 011c 00000000 		.word	.L52-.L11
 297 0120 00000000 		.word	.L52-.L11
 298 0124 00000000 		.word	.L52-.L11
 299 0128 00000000 		.word	.L52-.L11
 300 012c 00000000 		.word	.L52-.L11
 301 0130 00000000 		.word	.L52-.L11
 302 0134 00000000 		.word	.L52-.L11
 303 0138 00000000 		.word	.L52-.L11
 304 013c 00000000 		.word	.L52-.L11
 305 0140 00000000 		.word	.L52-.L11
 306 0144 00000000 		.word	.L52-.L11
 307 0148 00000000 		.word	.L52-.L11
 308 014c 00000000 		.word	.L52-.L11
 309 0150 00000000 		.word	.L52-.L11
 310 0154 00000000 		.word	.L52-.L11
 311 0158 00000000 		.word	.L52-.L11
 312 015c 00000000 		.word	.L52-.L11
 313 0160 00000000 		.word	.L52-.L11
 314 0164 00000000 		.word	.L52-.L11
 315 0168 00000000 		.word	.L52-.L11
 316 016c 00000000 		.word	.L52-.L11
 317 0170 00000000 		.word	.L52-.L11
 318 0174 00000000 		.word	.L52-.L11
 319 0178 00000000 		.word	.L52-.L11
 320 017c 00000000 		.word	.L52-.L11
 321 0180 00000000 		.word	.L52-.L11
 322 0184 00000000 		.word	.L52-.L11
 323 0188 00000000 		.word	.L52-.L11
 324 018c 00000000 		.word	.L52-.L11
 325 0190 00000000 		.word	.L52-.L11
 326 0194 00000000 		.word	.L52-.L11
 327 0198 00000000 		.word	.L52-.L11
 328 019c 00000000 		.word	.L52-.L11
 329 01a0 00000000 		.word	.L52-.L11
 330 01a4 00000000 		.word	.L52-.L11
 331 01a8 00000000 		.word	.L52-.L11
 332 01ac 00000000 		.word	.L52-.L11
 333 01b0 00000000 		.word	.L52-.L11
 334 01b4 00000000 		.word	.L52-.L11
 335 01b8 00000000 		.word	.L52-.L11
 336 01bc 00000000 		.word	.L52-.L11
 337 01c0 00000000 		.word	.L52-.L11
 338 01c4 00000000 		.word	.L52-.L11
 339 01c8 00000000 		.word	.L52-.L11
 340 01cc 00000000 		.word	.L52-.L11
 341 01d0 00000000 		.word	.L52-.L11
 342 01d4 00000000 		.word	.L52-.L11
 343 01d8 00000000 		.word	.L52-.L11
 344 01dc 00000000 		.word	.L52-.L11
 345 01e0 00000000 		.word	.L52-.L11
 346 01e4 00000000 		.word	.L52-.L11
 347 01e8 00000000 		.word	.L52-.L11
 348 01ec 00000000 		.word	.L52-.L11
GAS LISTING /tmp/cc3HINz4.s 			page 9


 349 01f0 00000000 		.word	.L52-.L11
 350 01f4 00000000 		.word	.L52-.L11
 351 01f8 00000000 		.word	.L52-.L11
 352 01fc 00000000 		.word	.L52-.L11
 353 0200 00000000 		.word	.L12-.L11
 354 0204 00000000 		.word	.L10-.L11
 355              		.text
 356              	.L27:
 357              	.LBB28:
 358              	.LBB29:
  40:src/interruptRoutine.cpp ****             case 0x01:
 359              		.loc 3 40 13
  41:src/interruptRoutine.cpp ****                 //mem_alloc
  42:src/interruptRoutine.cpp ****                 //a1 = broj blokova koje treba alocirati
  43:src/interruptRoutine.cpp ****                 KMemory::kmalloc((size_t)a1);
 360              		.loc 3 43 17
 361              		.loc 3 43 33 is_stmt 0
 362 00a4 033584FB 		ld	a0,-72(s0)
 363 00a8 97000000 		call	_ZN7KMemory7kmallocEm@plt
 363      E7800000 
 364              	.LVL22:
  44:src/interruptRoutine.cpp ****                 __asm__ volatile("sd a0, 80(s0)");
 365              		.loc 3 44 17 is_stmt 1
 366              		.loc 3 44 50 is_stmt 0
 367              	#APP
 368              	# 44 "src/interruptRoutine.cpp" 1
  45              	                break;
 369              		sd a0, 80(s0)
 370              	# 0 "" 2
 371              		.loc 3 45 17 is_stmt 1
 372              	#NO_APP
 373 00b4 6F00403D 		j	.L28
 374              	.LVL23:
 375              	.L26:
  46:src/interruptRoutine.cpp ****             case 0x02:
 376              		.loc 3 46 13
  47:src/interruptRoutine.cpp ****                 //mem_free
  48:src/interruptRoutine.cpp ****                 //a1 = pokazivac na memoriju koju dealociramo, dobijen sa mem_alloc
  49:src/interruptRoutine.cpp ****                 KMemory::kfree((void*)a1);
 377              		.loc 3 49 17
 378              		.loc 3 49 31 is_stmt 0
 379 00b8 833784FB 		ld	a5,-72(s0)
 380 00bc 13850700 		mv	a0,a5
 381 00c0 97000000 		call	_ZN7KMemory5kfreeEPv@plt
 381      E7800000 
 382              	.LVL24:
  50:src/interruptRoutine.cpp ****                 __asm__ volatile("sd a0, 80(s0)");
 383              		.loc 3 50 17 is_stmt 1
 384              		.loc 3 50 50 is_stmt 0
 385              	#APP
 386              	# 50 "src/interruptRoutine.cpp" 1
  51              	                break;
 387              		sd a0, 80(s0)
 388              	# 0 "" 2
 389              		.loc 3 51 17 is_stmt 1
 390              	#NO_APP
 391 00cc 6F00C03B 		j	.L28
GAS LISTING /tmp/cc3HINz4.s 			page 10


 392              	.LVL25:
 393              	.L25:
  52:src/interruptRoutine.cpp ****             case 0x11:
 394              		.loc 3 52 13
  53:src/interruptRoutine.cpp ****                 //thread_create
  54:src/interruptRoutine.cpp ****                 //a1 = pokazivac na rucku u koju upisujemo identifikator niti(adresa u memoriji)
  55:src/interruptRoutine.cpp ****                 //a2 = pokazivac na funkciju koju nit treba da izvrsava
  56:src/interruptRoutine.cpp ****                 //a3 = argumenti funkcije koju nit treba da izvrsava
  57:src/interruptRoutine.cpp ****                 //a4 = poslednja lokacija alociranog steka(najniza adresa)
  58:src/interruptRoutine.cpp ****                 *((thread_t*)a1) = TCB::createThread((TCB::Body)a2, (void*)a3, (uint64*)a4);
 395              		.loc 3 58 17
 396              		.loc 3 58 53 is_stmt 0
 397 00d0 833704FB 		ld	a5,-80(s0)
 398 00d4 033784FA 		ld	a4,-88(s0)
 399 00d8 833604FA 		ld	a3,-96(s0)
 400              		.loc 3 58 17
 401 00dc 833484FB 		ld	s1,-72(s0)
 402              		.loc 3 58 53
 403 00e0 13860600 		mv	a2,a3
 404 00e4 93050700 		mv	a1,a4
 405 00e8 13850700 		mv	a0,a5
 406 00ec 97000000 		call	_ZN3TCB12createThreadEPFvPvES0_Pm@plt
 406      E7800000 
 407              	.LVL26:
 408 00f4 93070500 		mv	a5,a0
 409              		.loc 3 58 34
 410 00f8 23B0F400 		sd	a5,0(s1)
  59:src/interruptRoutine.cpp ****                 if (*((thread_t*)a1) != nullptr) {
 411              		.loc 3 59 17 is_stmt 1
 412              		.loc 3 59 21 is_stmt 0
 413 00fc 833784FB 		ld	a5,-72(s0)
 414 0100 83B70700 		ld	a5,0(a5)
 415              		.loc 3 59 17
 416 0104 63880702 		beqz	a5,.L29
  60:src/interruptRoutine.cpp ****                     if ((TCB::Body)a2 != (TCB::Body)main) {
 417              		.loc 3 60 21 is_stmt 1
 418              		.loc 3 60 39 is_stmt 0
 419 0108 033704FB 		ld	a4,-80(s0)
 420              		.loc 3 60 21
 421 010c 97070000 		la	a5,main
 421      83B70700 
 422 0114 630CF700 		beq	a4,a5,.L30
  61:src/interruptRoutine.cpp ****                         Scheduler::put(*((thread_t*)a1));
 423              		.loc 3 61 25 is_stmt 1
 424              		.loc 3 61 39 is_stmt 0
 425 0118 833784FB 		ld	a5,-72(s0)
 426 011c 83B70700 		ld	a5,0(a5)
 427 0120 13850700 		mv	a0,a5
 428 0124 97000000 		call	_ZN9Scheduler3putEP3TCB@plt
 428      E7800000 
 429              	.LVL27:
 430              	.L30:
  62:src/interruptRoutine.cpp ****                     }
  63:src/interruptRoutine.cpp ****                     __asm__ volatile("li a0, 0");
 431              		.loc 3 63 21 is_stmt 1
 432              		.loc 3 63 49 is_stmt 0
 433              	#APP
GAS LISTING /tmp/cc3HINz4.s 			page 11


 434              	# 63 "src/interruptRoutine.cpp" 1
  64              	                } else {
 435              		li a0, 0
 436              	# 0 "" 2
 437              	#NO_APP
 438 0130 6F008000 		j	.L31
 439              	.L29:
  65:src/interruptRoutine.cpp ****                     __asm__ volatile("li a0, -1");
 440              		.loc 3 65 21 is_stmt 1
 441              		.loc 3 65 50 is_stmt 0
 442              	#APP
 443              	# 65 "src/interruptRoutine.cpp" 1
  66              	                }
 444              		li a0, -1
 445              	# 0 "" 2
 446              	#NO_APP
 447              	.L31:
  67:src/interruptRoutine.cpp ****                 __asm__ volatile("sd a0, 80(s0)");
 448              		.loc 3 67 17 is_stmt 1
 449              		.loc 3 67 50 is_stmt 0
 450              	#APP
 451              	# 67 "src/interruptRoutine.cpp" 1
  68              	                break;
 452              		sd a0, 80(s0)
 453              	# 0 "" 2
 454              		.loc 3 68 17 is_stmt 1
 455              	#NO_APP
 456 013c 6F00C034 		j	.L28
 457              	.LVL28:
 458              	.L24:
  69:src/interruptRoutine.cpp ****             case 0x12:
 459              		.loc 3 69 13
  70:src/interruptRoutine.cpp ****                 //thread_exit
  71:src/interruptRoutine.cpp ****                 TCB::getRunning()->setStatus(TCB::FINISHED);
 460              		.loc 3 71 17
 461              		.loc 3 71 45 is_stmt 0
 462 0140 97000000 		call	_ZN3TCB10getRunningEv
 462      E7800000 
 463              	.LVL29:
 464 0148 93070500 		mv	a5,a0
 465 014c 93055000 		li	a1,5
 466 0150 13850700 		mv	a0,a5
 467 0154 97000000 		call	_ZN3TCB9setStatusENS_12ThreadStatusE
 467      E7800000 
 468              	.LVL30:
  72:src/interruptRoutine.cpp ****                 TCB::releaseJoined(TCB::getRunning());
 469              		.loc 3 72 17 is_stmt 1
 470              		.loc 3 72 35 is_stmt 0
 471 015c 97000000 		call	_ZN3TCB10getRunningEv
 471      E7800000 
 472              	.LVL31:
 473 0164 93070500 		mv	a5,a0
 474 0168 13850700 		mv	a0,a5
 475 016c 97000000 		call	_ZN3TCB13releaseJoinedEPS_@plt
 475      E7800000 
 476              	.LVL32:
  73:src/interruptRoutine.cpp ****                 __asm__ volatile("li a0, 0");
GAS LISTING /tmp/cc3HINz4.s 			page 12


 477              		.loc 3 73 17 is_stmt 1
 478              		.loc 3 73 45 is_stmt 0
 479              	#APP
 480              	# 73 "src/interruptRoutine.cpp" 1
  74              	                __asm__ volatile("sd a0, 80(s0)");
 481              		li a0, 0
 482              	# 0 "" 2
 483              		.loc 3 74 17 is_stmt 1
 484              		.loc 3 74 50 is_stmt 0
 485              	# 74 "src/interruptRoutine.cpp" 1
  75              	                TCB::dispatch();
 486              		sd a0, 80(s0)
 487              	# 0 "" 2
 488              		.loc 3 75 17 is_stmt 1
 489              		.loc 3 75 30 is_stmt 0
 490              	#NO_APP
 491 017c 97000000 		call	_ZN3TCB8dispatchEv@plt
 491      E7800000 
 492              	.LVL33:
  76:src/interruptRoutine.cpp ****                 break;
 493              		.loc 3 76 17 is_stmt 1
 494 0184 6F004030 		j	.L28
 495              	.LVL34:
 496              	.L23:
  77:src/interruptRoutine.cpp ****             case 0x13:
 497              		.loc 3 77 13
  78:src/interruptRoutine.cpp ****                 //thread_dispatch
  79:src/interruptRoutine.cpp ****                 TCB::dispatch();
 498              		.loc 3 79 17
 499              		.loc 3 79 30 is_stmt 0
 500 0188 97000000 		call	_ZN3TCB8dispatchEv@plt
 500      E7800000 
 501              	.LVL35:
  80:src/interruptRoutine.cpp ****                 break;
 502              		.loc 3 80 17 is_stmt 1
 503 0190 6F00802F 		j	.L28
 504              	.LVL36:
 505              	.L22:
  81:src/interruptRoutine.cpp ****             case 0x14:
 506              		.loc 3 81 13
  82:src/interruptRoutine.cpp ****                 //thread_join
  83:src/interruptRoutine.cpp ****                 //a1 = rucka niti na koju tekuca nit treba da ceka
  84:src/interruptRoutine.cpp ****                 TCB::threadJoin((thread_t)a1);
 507              		.loc 3 84 17
 508              		.loc 3 84 32 is_stmt 0
 509 0194 833784FB 		ld	a5,-72(s0)
 510 0198 13850700 		mv	a0,a5
 511 019c 97000000 		call	_ZN3TCB10threadJoinEPS_@plt
 511      E7800000 
 512              	.LVL37:
  85:src/interruptRoutine.cpp ****                 TCB::dispatch();
 513              		.loc 3 85 17 is_stmt 1
 514              		.loc 3 85 30 is_stmt 0
 515 01a4 97000000 		call	_ZN3TCB8dispatchEv@plt
 515      E7800000 
 516              	.LVL38:
  86:src/interruptRoutine.cpp ****                 break;
GAS LISTING /tmp/cc3HINz4.s 			page 13


 517              		.loc 3 86 17 is_stmt 1
 518 01ac 6F00C02D 		j	.L28
 519              	.LVL39:
 520              	.L21:
  87:src/interruptRoutine.cpp ****             case 0x15:
 521              		.loc 3 87 13
  88:src/interruptRoutine.cpp ****                 //destruktor klase Thread, brise nit ciji je handle prosledjen
  89:src/interruptRoutine.cpp ****                 //a1 = rucka niti koja se brise
  90:src/interruptRoutine.cpp ****                 if (TCB::getRunning() == (thread_t)a1) {
 522              		.loc 3 90 17
 523              		.loc 3 90 36 is_stmt 0
 524 01b0 97000000 		call	_ZN3TCB10getRunningEv
 524      E7800000 
 525              	.LVL40:
 526 01b8 13070500 		mv	a4,a0
 527              		.loc 3 90 39
 528 01bc 833784FB 		ld	a5,-72(s0)
 529 01c0 B307F740 		sub	a5,a4,a5
 530 01c4 93B71700 		seqz	a5,a5
 531 01c8 93F7F70F 		andi	a5,a5,0xff
 532              		.loc 3 90 17
 533 01cc 63820704 		beqz	a5,.L32
  91:src/interruptRoutine.cpp ****                     TCB::getRunning()->setStatus(TCB::FINISHED);
 534              		.loc 3 91 21 is_stmt 1
 535              		.loc 3 91 49 is_stmt 0
 536 01d0 97000000 		call	_ZN3TCB10getRunningEv
 536      E7800000 
 537              	.LVL41:
 538 01d8 93070500 		mv	a5,a0
 539 01dc 93055000 		li	a1,5
 540 01e0 13850700 		mv	a0,a5
 541 01e4 97000000 		call	_ZN3TCB9setStatusENS_12ThreadStatusE
 541      E7800000 
 542              	.LVL42:
  92:src/interruptRoutine.cpp ****                     TCB::releaseJoined(TCB::getRunning());
 543              		.loc 3 92 21 is_stmt 1
 544              		.loc 3 92 39 is_stmt 0
 545 01ec 97000000 		call	_ZN3TCB10getRunningEv
 545      E7800000 
 546              	.LVL43:
 547 01f4 93070500 		mv	a5,a0
 548 01f8 13850700 		mv	a0,a5
 549 01fc 97000000 		call	_ZN3TCB13releaseJoinedEPS_@plt
 549      E7800000 
 550              	.LVL44:
  93:src/interruptRoutine.cpp ****                     TCB::dispatch();
 551              		.loc 3 93 21 is_stmt 1
 552              		.loc 3 93 34 is_stmt 0
 553 0204 97000000 		call	_ZN3TCB8dispatchEv@plt
 553      E7800000 
 554              	.LVL45:
  94:src/interruptRoutine.cpp ****                 } else {
  95:src/interruptRoutine.cpp ****                     TCB::quitThread((thread_t)a1);
  96:src/interruptRoutine.cpp ****                     TCB::releaseJoined((thread_t)a1);
  97:src/interruptRoutine.cpp ****                 }
  98:src/interruptRoutine.cpp ****                 break;
 555              		.loc 3 98 17
GAS LISTING /tmp/cc3HINz4.s 			page 14


 556 020c 6F00C027 		j	.L28
 557              	.L32:
  95:src/interruptRoutine.cpp ****                     TCB::releaseJoined((thread_t)a1);
 558              		.loc 3 95 21 is_stmt 1
  95:src/interruptRoutine.cpp ****                     TCB::releaseJoined((thread_t)a1);
 559              		.loc 3 95 36 is_stmt 0
 560 0210 833784FB 		ld	a5,-72(s0)
 561 0214 13850700 		mv	a0,a5
 562 0218 97000000 		call	_ZN3TCB10quitThreadEPS_@plt
 562      E7800000 
 563              	.LVL46:
  96:src/interruptRoutine.cpp ****                 }
 564              		.loc 3 96 21 is_stmt 1
  96:src/interruptRoutine.cpp ****                 }
 565              		.loc 3 96 39 is_stmt 0
 566 0220 833784FB 		ld	a5,-72(s0)
 567 0224 13850700 		mv	a0,a5
 568 0228 97000000 		call	_ZN3TCB13releaseJoinedEPS_@plt
 568      E7800000 
 569              	.LVL47:
 570              		.loc 3 98 17 is_stmt 1
 571 0230 6F008025 		j	.L28
 572              	.LVL48:
 573              	.L20:
  99:src/interruptRoutine.cpp ****             case 0x21:
 574              		.loc 3 99 13
 100:src/interruptRoutine.cpp ****                 //sem_open
 101:src/interruptRoutine.cpp ****                 //a1 = pokazivac na rucku semafora, u koju se upisuje adresa semafora u memoriji
 102:src/interruptRoutine.cpp ****                 *((sem_t*)a1) = KSem::initSem((uint)a2);
 575              		.loc 3 102 17
 576              		.loc 3 102 46 is_stmt 0
 577 0234 833704FB 		ld	a5,-80(s0)
 578 0238 9B870700 		sext.w	a5,a5
 579              		.loc 3 102 17
 580 023c 833484FB 		ld	s1,-72(s0)
 581              		.loc 3 102 46
 582 0240 13850700 		mv	a0,a5
 583 0244 97000000 		call	_ZN4KSem7initSemEj@plt
 583      E7800000 
 584              	.LVL49:
 585 024c 93070500 		mv	a5,a0
 586              		.loc 3 102 31
 587 0250 23B0F400 		sd	a5,0(s1)
 103:src/interruptRoutine.cpp ****                 if (*((sem_t*)a1) != nullptr) {
 588              		.loc 3 103 17 is_stmt 1
 589              		.loc 3 103 21 is_stmt 0
 590 0254 833784FB 		ld	a5,-72(s0)
 591 0258 83B70700 		ld	a5,0(a5)
 592              		.loc 3 103 17
 593 025c 63860700 		beqz	a5,.L34
 104:src/interruptRoutine.cpp ****                     __asm__ volatile("li a0, 0");
 594              		.loc 3 104 21 is_stmt 1
 595              		.loc 3 104 49 is_stmt 0
 596              	#APP
 597              	# 104 "src/interruptRoutine.cpp" 1
 105              	                } else {
 598              		li a0, 0
GAS LISTING /tmp/cc3HINz4.s 			page 15


 599              	# 0 "" 2
 600              	#NO_APP
 601 0264 6F008000 		j	.L35
 602              	.L34:
 106:src/interruptRoutine.cpp ****                     __asm__ volatile("li a0, -1");
 603              		.loc 3 106 21 is_stmt 1
 604              		.loc 3 106 50 is_stmt 0
 605              	#APP
 606              	# 106 "src/interruptRoutine.cpp" 1
 107              	                }
 607              		li a0, -1
 608              	# 0 "" 2
 609              	#NO_APP
 610              	.L35:
 108:src/interruptRoutine.cpp ****                 __asm__ volatile("sd a0, 80(s0)");
 611              		.loc 3 108 17 is_stmt 1
 612              		.loc 3 108 50 is_stmt 0
 613              	#APP
 614              	# 108 "src/interruptRoutine.cpp" 1
 109              	                break;
 615              		sd a0, 80(s0)
 616              	# 0 "" 2
 617              		.loc 3 109 17 is_stmt 1
 618              	#NO_APP
 619 0270 6F008021 		j	.L28
 620              	.LVL50:
 621              	.L19:
 110:src/interruptRoutine.cpp ****             case 0x22:
 622              		.loc 3 110 13
 111:src/interruptRoutine.cpp ****                 //sem_close
 112:src/interruptRoutine.cpp ****                 //a1 = rucka semafora
 113:src/interruptRoutine.cpp ****                 KSem::closeSem((sem_t)a1);
 623              		.loc 3 113 17
 624              		.loc 3 113 31 is_stmt 0
 625 0274 833784FB 		ld	a5,-72(s0)
 626 0278 13850700 		mv	a0,a5
 627 027c 97000000 		call	_ZN4KSem8closeSemEPS_@plt
 627      E7800000 
 628              	.LVL51:
 114:src/interruptRoutine.cpp ****                 __asm__ volatile("sd a0, 80(s0)");
 629              		.loc 3 114 17 is_stmt 1
 630              		.loc 3 114 50 is_stmt 0
 631              	#APP
 632              	# 114 "src/interruptRoutine.cpp" 1
 115              	                delete (sem_t)a1;
 633              		sd a0, 80(s0)
 634              	# 0 "" 2
 635              		.loc 3 115 17 is_stmt 1
 636              		.loc 3 115 24 is_stmt 0
 637              	#NO_APP
 638 0288 833484FB 		ld	s1,-72(s0)
 639              		.loc 3 115 33
 640 028c 6380041E 		beqz	s1,.L53
 641              		.loc 3 115 31 discriminator 1
 642 0290 13850400 		mv	a0,s1
 643 0294 97000000 		call	_ZN4KSemD1Ev
 643      E7800000 
GAS LISTING /tmp/cc3HINz4.s 			page 16


 644              	.LVL52:
 645 029c 13850400 		mv	a0,s1
 646 02a0 97000000 		call	_ZN4KSemdlEPv@plt
 646      E7800000 
 647              	.LVL53:
 116:src/interruptRoutine.cpp ****                 break;
 648              		.loc 3 116 17 is_stmt 1 discriminator 1
 649 02a8 6F00401C 		j	.L53
 650              	.LVL54:
 651              	.L18:
 117:src/interruptRoutine.cpp ****             case 0x23:
 652              		.loc 3 117 13
 118:src/interruptRoutine.cpp ****                 //sem_wait
 119:src/interruptRoutine.cpp ****                 //a1 = rucka semafora
 120:src/interruptRoutine.cpp ****                 ((sem_t)a1)->wait();
 653              		.loc 3 120 17
 654              		.loc 3 120 34 is_stmt 0
 655 02ac 833784FB 		ld	a5,-72(s0)
 656 02b0 13850700 		mv	a0,a5
 657 02b4 97000000 		call	_ZN4KSem4waitEv@plt
 657      E7800000 
 658              	.LVL55:
 121:src/interruptRoutine.cpp ****                 __asm__ volatile("sd a0, 80(s0)");
 659              		.loc 3 121 17 is_stmt 1
 660              		.loc 3 121 50 is_stmt 0
 661              	#APP
 662              	# 121 "src/interruptRoutine.cpp" 1
 122              	                break;
 663              		sd a0, 80(s0)
 664              	# 0 "" 2
 665              		.loc 3 122 17 is_stmt 1
 666              	#NO_APP
 667 02c0 6F00801C 		j	.L28
 668              	.LVL56:
 669              	.L17:
 123:src/interruptRoutine.cpp ****             case 0x24:
 670              		.loc 3 123 13
 124:src/interruptRoutine.cpp ****                 //sem_signal
 125:src/interruptRoutine.cpp ****                 //a1 = rucka semafora
 126:src/interruptRoutine.cpp ****                 ((sem_t)a1)->signal();
 671              		.loc 3 126 17
 672              		.loc 3 126 36 is_stmt 0
 673 02c4 833784FB 		ld	a5,-72(s0)
 674 02c8 13850700 		mv	a0,a5
 675 02cc 97000000 		call	_ZN4KSem6signalEv@plt
 675      E7800000 
 676              	.LVL57:
 127:src/interruptRoutine.cpp ****                 __asm__ volatile("sd a0, 80(s0)");
 677              		.loc 3 127 17 is_stmt 1
 678              		.loc 3 127 50 is_stmt 0
 679              	#APP
 680              	# 127 "src/interruptRoutine.cpp" 1
 128              	                break;
 681              		sd a0, 80(s0)
 682              	# 0 "" 2
 683              		.loc 3 128 17 is_stmt 1
 684              	#NO_APP
GAS LISTING /tmp/cc3HINz4.s 			page 17


 685 02d8 6F00001B 		j	.L28
 686              	.LVL58:
 687              	.L16:
 129:src/interruptRoutine.cpp ****             case 0x31:
 688              		.loc 3 129 13
 130:src/interruptRoutine.cpp ****                 //time_sleep
 131:src/interruptRoutine.cpp ****                 //a1 = broj perioda tajmera na koji se uspavljuje tekuca nit
 132:src/interruptRoutine.cpp ****                 if ((time_t)a1 > 0) {
 689              		.loc 3 132 17
 690 02dc 833784FB 		ld	a5,-72(s0)
 691 02e0 63860700 		beqz	a5,.L37
 133:src/interruptRoutine.cpp ****                     __asm__ volatile("li a0, 0");
 692              		.loc 3 133 21
 693              		.loc 3 133 49 is_stmt 0
 694              	#APP
 695              	# 133 "src/interruptRoutine.cpp" 1
 134              	                } else {
 696              		li a0, 0
 697              	# 0 "" 2
 698              	#NO_APP
 699 02e8 6F008000 		j	.L38
 700              	.L37:
 135:src/interruptRoutine.cpp ****                     __asm__ volatile("li a0, -1");
 701              		.loc 3 135 21 is_stmt 1
 702              		.loc 3 135 50 is_stmt 0
 703              	#APP
 704              	# 135 "src/interruptRoutine.cpp" 1
 136              	                }
 705              		li a0, -1
 706              	# 0 "" 2
 707              	#NO_APP
 708              	.L38:
 137:src/interruptRoutine.cpp ****                 __asm__ volatile("sd a0, 80(s0)");
 709              		.loc 3 137 17 is_stmt 1
 710              		.loc 3 137 50 is_stmt 0
 711              	#APP
 712              	# 137 "src/interruptRoutine.cpp" 1
 138              	                if ((time_t)a1 > 0) {
 713              		sd a0, 80(s0)
 714              	# 0 "" 2
 715              		.loc 3 138 17 is_stmt 1
 716              	#NO_APP
 717 02f4 833784FB 		ld	a5,-72(s0)
 718 02f8 638E0716 		beqz	a5,.L54
 139:src/interruptRoutine.cpp ****                     Scheduler::putToSleep(TCB::getRunning(), (time_t)a1);
 719              		.loc 3 139 21
 720              		.loc 3 139 42 is_stmt 0
 721 02fc 97000000 		call	_ZN3TCB10getRunningEv
 721      E7800000 
 722              	.LVL59:
 723 0304 93070500 		mv	a5,a0
 724 0308 833584FB 		ld	a1,-72(s0)
 725 030c 13850700 		mv	a0,a5
 726 0310 97000000 		call	_ZN9Scheduler10putToSleepEP3TCBm@plt
 726      E7800000 
 727              	.LVL60:
 140:src/interruptRoutine.cpp ****                     TCB::dispatch();
GAS LISTING /tmp/cc3HINz4.s 			page 18


 728              		.loc 3 140 21 is_stmt 1
 729              		.loc 3 140 34 is_stmt 0
 730 0318 97000000 		call	_ZN3TCB8dispatchEv@plt
 730      E7800000 
 731              	.LVL61:
 141:src/interruptRoutine.cpp ****                 }
 142:src/interruptRoutine.cpp ****                 break;
 732              		.loc 3 142 17 is_stmt 1
 733 0320 6F004015 		j	.L54
 734              	.LVL62:
 735              	.L15:
 143:src/interruptRoutine.cpp ****             case 0x41:
 736              		.loc 3 143 13
 144:src/interruptRoutine.cpp ****                 //getc
 145:src/interruptRoutine.cpp ****                 KConsole::kgetc();
 737              		.loc 3 145 17
 738              		.loc 3 145 32 is_stmt 0
 739 0324 97000000 		call	_ZN8KConsole5kgetcEv@plt
 739      E7800000 
 740              	.LVL63:
 146:src/interruptRoutine.cpp ****                 __asm__ volatile("sd a0, 80(s0)");
 741              		.loc 3 146 17 is_stmt 1
 742              		.loc 3 146 50 is_stmt 0
 743              	#APP
 744              	# 146 "src/interruptRoutine.cpp" 1
 147              	                break;
 745              		sd a0, 80(s0)
 746              	# 0 "" 2
 747              		.loc 3 147 17 is_stmt 1
 748              	#NO_APP
 749 0330 6F008015 		j	.L28
 750              	.LVL64:
 751              	.L14:
 148:src/interruptRoutine.cpp ****             case 0x42:
 752              		.loc 3 148 13
 149:src/interruptRoutine.cpp ****                 //putc
 150:src/interruptRoutine.cpp ****                 //a1 = karakter koji se upisuje u bafer za ispis na konzolu
 151:src/interruptRoutine.cpp ****                 KConsole::kputc((char)a1);
 753              		.loc 3 151 17
 754              		.loc 3 151 32 is_stmt 0
 755 0334 833784FB 		ld	a5,-72(s0)
 756 0338 93F7F70F 		andi	a5,a5,0xff
 757 033c 13850700 		mv	a0,a5
 758 0340 97000000 		call	_ZN8KConsole5kputcEc@plt
 758      E7800000 
 759              	.LVL65:
 152:src/interruptRoutine.cpp ****                 break;
 760              		.loc 3 152 17 is_stmt 1
 761 0348 6F000014 		j	.L28
 762              	.L43:
 153:src/interruptRoutine.cpp ****             case 0x43:
 763              		.loc 3 153 13
 154:src/interruptRoutine.cpp ****                 //flush izlaznog bafera konzole
 155:src/interruptRoutine.cpp ****                 while (KConsole::getOutputHead() != KConsole::getOutputTail()) {
 764              		.loc 3 155 17
 765              		.loc 3 155 50
 766              		.loc 3 155 47 is_stmt 0
GAS LISTING /tmp/cc3HINz4.s 			page 19


 767 034c 97000000 		call	_ZN8KConsole13getOutputHeadEv
 767      E7800000 
 768              	.LVL66:
 769 0354 93070500 		mv	a5,a0
 770 0358 93840700 		mv	s1,a5
 771              		.loc 3 155 76
 772 035c 97000000 		call	_ZN8KConsole13getOutputTailEv
 772      E7800000 
 773              	.LVL67:
 774 0364 93070500 		mv	a5,a0
 775              		.loc 3 155 50
 776 0368 13870400 		mv	a4,s1
 777 036c B307F740 		sub	a5,a4,a5
 778 0370 B337F000 		snez	a5,a5
 779 0374 93F7F70F 		andi	a5,a5,0xff
 780 0378 63820710 		beqz	a5,.L55
 781              	.LBB30:
 156:src/interruptRoutine.cpp ****                     char c = KConsole::getFromOutput();
 782              		.loc 3 156 21 is_stmt 1
 783              		.loc 3 156 53 is_stmt 0
 784 037c 97000000 		call	_ZN8KConsole13getFromOutputEv@plt
 784      E7800000 
 785              	.LVL68:
 786 0384 93070500 		mv	a5,a0
 787 0388 A30BF4F8 		sb	a5,-105(s0)
 788              	.LVL69:
 789              	.L42:
 157:src/interruptRoutine.cpp ****                     while (!(KConsole::getSRvalue() & CONSOLE_TX_STATUS_BIT)) {}
 790              		.loc 3 157 21 is_stmt 1
 791              		.loc 3 157 28
 792              		.loc 3 157 50 is_stmt 0
 793 038c 97000000 		call	_ZN8KConsole10getSRvalueEv
 793      E7800000 
 794              	.LVL70:
 795 0394 93070500 		mv	a5,a0
 796              		.loc 3 157 53
 797 0398 93F70702 		andi	a5,a5,32
 798              		.loc 3 157 28
 799 039c 93B71700 		seqz	a5,a5
 800 03a0 93F7F70F 		andi	a5,a5,0xff
 801 03a4 63840700 		beqz	a5,.L41
 802              		.loc 3 157 21
 803 03a8 6FF05FFE 		j	.L42
 804              	.L41:
 158:src/interruptRoutine.cpp ****                     KConsole::setDRvalue(c);
 805              		.loc 3 158 21 is_stmt 1
 806              		.loc 3 158 41 is_stmt 0
 807 03ac 834774F9 		lbu	a5,-105(s0)
 808 03b0 13850700 		mv	a0,a5
 809 03b4 97000000 		call	_ZN8KConsole10setDRvalueEc
 809      E7800000 
 810              	.LVL71:
 159:src/interruptRoutine.cpp ****                     sem_signal(KConsole::getOutputBufferHasSpace());
 811              		.loc 3 159 21 is_stmt 1
 812              		.loc 3 159 31 is_stmt 0
 813 03bc 97000000 		call	_ZN8KConsole23getOutputBufferHasSpaceEv
 813      E7800000 
GAS LISTING /tmp/cc3HINz4.s 			page 20


 814              	.LVL72:
 815 03c4 93070500 		mv	a5,a0
 816 03c8 13850700 		mv	a0,a5
 817 03cc 97000000 		call	_Z10sem_signalP4KSem@plt
 817      E7800000 
 818              	.LVL73:
 819              	.LBE30:
 155:src/interruptRoutine.cpp ****                     char c = KConsole::getFromOutput();
 820              		.loc 3 155 17
 821 03d4 6FF09FF7 		j	.L43
 822              	.LVL74:
 823              	.L12:
 160:src/interruptRoutine.cpp ****                 }
 161:src/interruptRoutine.cpp ****                 break;
 162:src/interruptRoutine.cpp ****             case 0x80:
 824              		.loc 3 162 13 is_stmt 1
 163:src/interruptRoutine.cpp ****                 //alloc thread
 164:src/interruptRoutine.cpp ****                 //a1 = pokazivac na rucku u koju upisujemo identifikator niti(adresa u memoriji)
 165:src/interruptRoutine.cpp ****                 //a2 = pokazivac na funkciju koju nit treba da izvrsava
 166:src/interruptRoutine.cpp ****                 //a3 = argumenti funkcije koju nit treba da izvrsava
 167:src/interruptRoutine.cpp ****                 //a4 = poslednja lokacija alociranog steka(najniza adresa)
 168:src/interruptRoutine.cpp ****                 *((thread_t*)a1) = TCB::createThread((TCB::Body)a2, (void*)a3, (uint64*)a4);
 825              		.loc 3 168 17
 826              		.loc 3 168 53 is_stmt 0
 827 03d8 833704FB 		ld	a5,-80(s0)
 828 03dc 033784FA 		ld	a4,-88(s0)
 829 03e0 833604FA 		ld	a3,-96(s0)
 830              		.loc 3 168 17
 831 03e4 833484FB 		ld	s1,-72(s0)
 832              		.loc 3 168 53
 833 03e8 13860600 		mv	a2,a3
 834 03ec 93050700 		mv	a1,a4
 835 03f0 13850700 		mv	a0,a5
 836 03f4 97000000 		call	_ZN3TCB12createThreadEPFvPvES0_Pm@plt
 836      E7800000 
 837              	.LVL75:
 838 03fc 93070500 		mv	a5,a0
 839              		.loc 3 168 34
 840 0400 23B0F400 		sd	a5,0(s1)
 169:src/interruptRoutine.cpp ****                 if (*((thread_t*)a1) != nullptr) {
 841              		.loc 3 169 17 is_stmt 1
 842              		.loc 3 169 21 is_stmt 0
 843 0404 833784FB 		ld	a5,-72(s0)
 844 0408 83B70700 		ld	a5,0(a5)
 845              		.loc 3 169 17
 846 040c 63860700 		beqz	a5,.L44
 170:src/interruptRoutine.cpp ****                     __asm__ volatile("li a0, 0");
 847              		.loc 3 170 21 is_stmt 1
 848              		.loc 3 170 49 is_stmt 0
 849              	#APP
 850              	# 170 "src/interruptRoutine.cpp" 1
 171              	                } else {
 851              		li a0, 0
 852              	# 0 "" 2
 853              	#NO_APP
 854 0414 6F008000 		j	.L45
 855              	.L44:
GAS LISTING /tmp/cc3HINz4.s 			page 21


 172:src/interruptRoutine.cpp ****                     __asm__ volatile("li a0, -1");
 856              		.loc 3 172 21 is_stmt 1
 857              		.loc 3 172 50 is_stmt 0
 858              	#APP
 859              	# 172 "src/interruptRoutine.cpp" 1
 173              	                }
 860              		li a0, -1
 861              	# 0 "" 2
 862              	#NO_APP
 863              	.L45:
 174:src/interruptRoutine.cpp ****                 __asm__ volatile("sd a0, 80(s0)");
 864              		.loc 3 174 17 is_stmt 1
 865              		.loc 3 174 50 is_stmt 0
 866              	#APP
 867              	# 174 "src/interruptRoutine.cpp" 1
 175              	                break;
 868              		sd a0, 80(s0)
 869              	# 0 "" 2
 870              		.loc 3 175 17 is_stmt 1
 871              	#NO_APP
 872 0420 6F008006 		j	.L28
 873              	.LVL76:
 874              	.L10:
 176:src/interruptRoutine.cpp ****             case 0x81:
 875              		.loc 3 176 13
 177:src/interruptRoutine.cpp ****                 //start thread
 178:src/interruptRoutine.cpp ****                 //a1 = rucka niti koja se stavlja u scheduler
 179:src/interruptRoutine.cpp ****                 if (((thread_t)a1)->getBody() != (TCB::Body)main) {
 876              		.loc 3 179 17
 877              		.loc 3 179 44 is_stmt 0
 878 0424 833784FB 		ld	a5,-72(s0)
 879 0428 13850700 		mv	a0,a5
 880 042c 97000000 		call	_ZN3TCB7getBodyEv
 880      E7800000 
 881              	.LVL77:
 882 0434 13070500 		mv	a4,a0
 883              		.loc 3 179 47
 884 0438 97070000 		la	a5,main
 884      83B70700 
 885 0440 B307F740 		sub	a5,a4,a5
 886 0444 B337F000 		snez	a5,a5
 887 0448 93F7F70F 		andi	a5,a5,0xff
 888              		.loc 3 179 17
 889 044c 638C0702 		beqz	a5,.L56
 180:src/interruptRoutine.cpp ****                     Scheduler::put((thread_t)a1);
 890              		.loc 3 180 21 is_stmt 1
 891              		.loc 3 180 35 is_stmt 0
 892 0450 833784FB 		ld	a5,-72(s0)
 893 0454 13850700 		mv	a0,a5
 894 0458 97000000 		call	_ZN9Scheduler3putEP3TCB@plt
 894      E7800000 
 895              	.LVL78:
 181:src/interruptRoutine.cpp ****                 }
 182:src/interruptRoutine.cpp ****                 break;
 896              		.loc 3 182 17 is_stmt 1
 897 0460 6F004002 		j	.L56
 898              	.LVL79:
GAS LISTING /tmp/cc3HINz4.s 			page 22


 899              	.L52:
 183:src/interruptRoutine.cpp ****             default:
 184:src/interruptRoutine.cpp ****                 //potreban printing.hpp
 185:src/interruptRoutine.cpp **** //                printString("\nNepostojeci op code: ");
 186:src/interruptRoutine.cpp **** //                printInt(a0);
 187:src/interruptRoutine.cpp **** //                printString("\nscause: ");
 188:src/interruptRoutine.cpp **** //                printInt(scause);
 189:src/interruptRoutine.cpp **** //                printString("\nsepc: ");
 190:src/interruptRoutine.cpp **** //                printInt(sepc);
 191:src/interruptRoutine.cpp ****                 break;
 900              		.loc 3 191 17 is_stmt 0
 901 0464 13000000 		nop
 902 0468 6F000002 		j	.L28
 903              	.LVL80:
 904              	.L53:
 116:src/interruptRoutine.cpp ****             case 0x23:
 905              		.loc 3 116 17
 906 046c 13000000 		nop
 907 0470 6F008001 		j	.L28
 908              	.L54:
 142:src/interruptRoutine.cpp ****             case 0x41:
 909              		.loc 3 142 17
 910 0474 13000000 		nop
 911 0478 6F000001 		j	.L28
 912              	.L55:
 161:src/interruptRoutine.cpp ****             case 0x80:
 913              		.loc 3 161 17
 914 047c 13000000 		nop
 915 0480 6F008000 		j	.L28
 916              	.L56:
 182:src/interruptRoutine.cpp ****             default:
 917              		.loc 3 182 17
 918 0484 13000000 		nop
 919              	.L28:
 920              	.LBE29:
 921              	.LBE28:
 192:src/interruptRoutine.cpp ****         }
 193:src/interruptRoutine.cpp ****         //sepc pokazuje na ecall instrukciju, treba preci na sledecu instrukciju
 194:src/interruptRoutine.cpp ****         sepc += 4;
 922              		.loc 3 194 9 is_stmt 1
 923              		.loc 3 194 14 is_stmt 0
 924 0488 833704FD 		ld	a5,-48(s0)
 925 048c 93874700 		addi	a5,a5,4
 926 0490 2338F4FC 		sd	a5,-48(s0)
 927              	.LVL81:
 195:src/interruptRoutine.cpp ****         __asm__ volatile("csrw sepc, %[sepc]": :[sepc] "r"(sepc));
 928              		.loc 3 195 9 is_stmt 1
 929              		.loc 3 195 66 is_stmt 0
 930 0494 833704FD 		ld	a5,-48(s0)
 931              	#APP
 932              	# 195 "src/interruptRoutine.cpp" 1
 196              	        __asm__ volatile("csrw sstatus, %[stat]": :[stat]"r"(sstatus));
 933              		csrw sepc, a5
 934              	# 0 "" 2
 935              		.loc 3 196 9 is_stmt 1
 936              		.loc 3 196 71 is_stmt 0
 937              	#NO_APP
GAS LISTING /tmp/cc3HINz4.s 			page 23


 938 049c 833784FC 		ld	a5,-56(s0)
 939              	.LVL82:
 940              	#APP
 941              	# 196 "src/interruptRoutine.cpp" 1
 197              	    } else if (scause == 0x8000000000000009) {
 942              		csrw sstatus, a5
 943              	# 0 "" 2
 944              	#NO_APP
 945              	.LBE27:
 946 04a4 13000000 		nop
 947              	.LBE26:
 198:src/interruptRoutine.cpp ****         //spoljasnji hardverski prekid (od konzole)
 199:src/interruptRoutine.cpp ****         uint64 irq = plic_claim();
 200:src/interruptRoutine.cpp ****         if (irq == CONSOLE_IRQ) {
 201:src/interruptRoutine.cpp ****             if (KConsole::getSRvalue() & CONSOLE_RX_STATUS_BIT) {
 202:src/interruptRoutine.cpp ****                 //upisuje karakter sa ulaza(otkucani) u ulazni bafer KConsole
 203:src/interruptRoutine.cpp ****                 KConsole::placeInInput(KConsole::getDRvalue());
 204:src/interruptRoutine.cpp ****             }
 205:src/interruptRoutine.cpp ****         }
 206:src/interruptRoutine.cpp ****         plic_complete(irq);
 207:src/interruptRoutine.cpp ****         __asm__ volatile("csrw sepc, %[sepc]": :[sepc] "r"(sepc));
 208:src/interruptRoutine.cpp ****         __asm__ volatile("csrw sstatus, %[stat]": :[stat]"r"(sstatus));
 209:src/interruptRoutine.cpp ****         Riscv::mc_sip(Riscv::SIP_SEIP);
 210:src/interruptRoutine.cpp ****     } else if (scause == 0x8000000000000001) {
 211:src/interruptRoutine.cpp ****         //prekid od tajmera
 212:src/interruptRoutine.cpp ****         Scheduler::wake();
 213:src/interruptRoutine.cpp ****         TCB::getRunningTimeSlice()++;
 214:src/interruptRoutine.cpp ****         Riscv::mc_sip(Riscv::SIP_SSIP);
 215:src/interruptRoutine.cpp ****         if (TCB::getRunningTimeSlice() >= TCB::getRunning()->getTimeSlice()) {
 216:src/interruptRoutine.cpp ****             TCB::dispatch();
 217:src/interruptRoutine.cpp ****         }
 218:src/interruptRoutine.cpp ****         __asm__ volatile("csrw sepc, %[sepc]": :[sepc] "r"(sepc));
 219:src/interruptRoutine.cpp ****         __asm__ volatile("csrw sstatus, %[stat]": :[stat]"r"(sstatus));
 220:src/interruptRoutine.cpp **** 
 221:src/interruptRoutine.cpp ****     } else {
 222:src/interruptRoutine.cpp ****         //potreban printing.hpp
 223:src/interruptRoutine.cpp **** //        printString("\nGreska u prekidnoj rutini\n");
 224:src/interruptRoutine.cpp **** //        printString("scause: ");
 225:src/interruptRoutine.cpp **** //        printInt(scause);
 226:src/interruptRoutine.cpp **** //        printString("\nsepc: ");
 227:src/interruptRoutine.cpp **** //        printInt(sepc);
 228:src/interruptRoutine.cpp ****         __asm__ volatile("csrw sepc, %[sepc]": :[sepc] "r"(sepc));
 229:src/interruptRoutine.cpp ****         __asm__ volatile("csrw sstatus, %[stat]": :[stat]"r"(sstatus));
 230:src/interruptRoutine.cpp ****     }
 231:src/interruptRoutine.cpp **** }...
 948              		.loc 3 231 1
 949 04a8 6F004014 		j	.L57
 950              	.LVL83:
 951              	.L8:
 952              	.LBB38:
 953              	.LBB31:
 197:src/interruptRoutine.cpp ****     } else if (scause == 0x8000000000000009) {
 954              		.loc 3 197 12 is_stmt 1
 955              	.LBB32:
 956 04ac 033784FD 		ld	a4,-40(s0)
 957              	.LVL84:
 958 04b0 9307F0FF 		li	a5,-1
GAS LISTING /tmp/cc3HINz4.s 			page 24


 959 04b4 9397F703 		slli	a5,a5,63
 960 04b8 93879700 		addi	a5,a5,9
 961 04bc 6314F708 		bne	a4,a5,.L48
 962              	.LBB33:
 199:src/interruptRoutine.cpp ****         uint64 irq = plic_claim();
 963              		.loc 3 199 9
 199:src/interruptRoutine.cpp ****         uint64 irq = plic_claim();
 964              		.loc 3 199 32 is_stmt 0
 965 04c0 97000000 		call	plic_claim@plt
 965      E7800000 
 966              	.LVL85:
 967 04c8 93070500 		mv	a5,a0
 199:src/interruptRoutine.cpp ****         uint64 irq = plic_claim();
 968              		.loc 3 199 33
 969 04cc 233CF4F8 		sd	a5,-104(s0)
 970              	.LVL86:
 200:src/interruptRoutine.cpp ****         if (irq == CONSOLE_IRQ) {
 971              		.loc 3 200 9 is_stmt 1
 972 04d0 033784F9 		ld	a4,-104(s0)
 973 04d4 9307A000 		li	a5,10
 974 04d8 631CF702 		bne	a4,a5,.L49
 201:src/interruptRoutine.cpp ****             if (KConsole::getSRvalue() & CONSOLE_RX_STATUS_BIT) {
 975              		.loc 3 201 13
 201:src/interruptRoutine.cpp ****             if (KConsole::getSRvalue() & CONSOLE_RX_STATUS_BIT) {
 976              		.loc 3 201 37 is_stmt 0
 977 04dc 97000000 		call	_ZN8KConsole10getSRvalueEv
 977      E7800000 
 978              	.LVL87:
 979 04e4 93070500 		mv	a5,a0
 201:src/interruptRoutine.cpp ****             if (KConsole::getSRvalue() & CONSOLE_RX_STATUS_BIT) {
 980              		.loc 3 201 40
 981 04e8 93F71700 		andi	a5,a5,1
 201:src/interruptRoutine.cpp ****             if (KConsole::getSRvalue() & CONSOLE_RX_STATUS_BIT) {
 982              		.loc 3 201 63
 983 04ec B337F000 		snez	a5,a5
 984 04f0 93F7F70F 		andi	a5,a5,0xff
 201:src/interruptRoutine.cpp ****             if (KConsole::getSRvalue() & CONSOLE_RX_STATUS_BIT) {
 985              		.loc 3 201 13
 986 04f4 638E0700 		beqz	a5,.L49
 203:src/interruptRoutine.cpp ****                 KConsole::placeInInput(KConsole::getDRvalue());
 987              		.loc 3 203 17 is_stmt 1
 203:src/interruptRoutine.cpp ****                 KConsole::placeInInput(KConsole::getDRvalue());
 988              		.loc 3 203 60 is_stmt 0
 989 04f8 97000000 		call	_ZN8KConsole10getDRvalueEv
 989      E7800000 
 990              	.LVL88:
 991 0500 93070500 		mv	a5,a0
 203:src/interruptRoutine.cpp ****                 KConsole::placeInInput(KConsole::getDRvalue());
 992              		.loc 3 203 39
 993 0504 13850700 		mv	a0,a5
 994 0508 97000000 		call	_ZN8KConsole12placeInInputEc@plt
 994      E7800000 
 995              	.LVL89:
 996              	.L49:
 206:src/interruptRoutine.cpp ****         plic_complete(irq);
 997              		.loc 3 206 9 is_stmt 1
 206:src/interruptRoutine.cpp ****         plic_complete(irq);
GAS LISTING /tmp/cc3HINz4.s 			page 25


 998              		.loc 3 206 22 is_stmt 0
 999 0510 833784F9 		ld	a5,-104(s0)
 1000 0514 9B870700 		sext.w	a5,a5
 1001 0518 13850700 		mv	a0,a5
 1002 051c 97000000 		call	plic_complete@plt
 1002      E7800000 
 1003              	.LVL90:
 207:src/interruptRoutine.cpp ****         __asm__ volatile("csrw sepc, %[sepc]": :[sepc] "r"(sepc));
 1004              		.loc 3 207 9 is_stmt 1
 207:src/interruptRoutine.cpp ****         __asm__ volatile("csrw sepc, %[sepc]": :[sepc] "r"(sepc));
 1005              		.loc 3 207 66 is_stmt 0
 1006 0524 833704FD 		ld	a5,-48(s0)
 1007              	#APP
 1008              	# 207 "src/interruptRoutine.cpp" 1
 208:src/interruptRoutine.cpp ****         __asm__ volatile("csrw sstatus, %[stat]": :[stat]"r"(sstatus));
 1009              		csrw sepc, a5
 1010              	# 0 "" 2
 1011              		.loc 3 208 9 is_stmt 1
 208:src/interruptRoutine.cpp ****         __asm__ volatile("csrw sstatus, %[stat]": :[stat]"r"(sstatus));
 1012              		.loc 3 208 71 is_stmt 0
 1013              	#NO_APP
 1014 052c 833784FC 		ld	a5,-56(s0)
 1015              	#APP
 1016              	# 208 "src/interruptRoutine.cpp" 1
 209:src/interruptRoutine.cpp ****         Riscv::mc_sip(Riscv::SIP_SEIP);
 1017              		csrw sstatus, a5
 1018              	# 0 "" 2
 1019              		.loc 3 209 9 is_stmt 1
 209:src/interruptRoutine.cpp ****         Riscv::mc_sip(Riscv::SIP_SEIP);
 1020              		.loc 3 209 22 is_stmt 0
 1021              	#NO_APP
 1022 0534 13050020 		li	a0,512
 1023 0538 97000000 		call	_ZN5Riscv6mc_sipEm
 1023      E7800000 
 1024              	.LVL91:
 1025              	.LBE33:
 1026              	.LBE32:
 1027              	.LBE31:
 1028              	.LBE38:
 1029              		.loc 3 231 1
 1030 0540 6F00C00A 		j	.L57
 1031              	.LVL92:
 1032              	.L48:
 1033              	.LBB39:
 1034              	.LBB36:
 1035              	.LBB34:
 210:src/interruptRoutine.cpp ****     } else if (scause == 0x8000000000000001) {
 1036              		.loc 3 210 12 is_stmt 1
 1037 0544 033784FD 		ld	a4,-40(s0)
 1038 0548 9307F0FF 		li	a5,-1
 1039 054c 9397F703 		slli	a5,a5,63
 1040 0550 93871700 		addi	a5,a5,1
 1041 0554 6314F708 		bne	a4,a5,.L50
 212:src/interruptRoutine.cpp ****         Scheduler::wake();
 1042              		.loc 3 212 9
 212:src/interruptRoutine.cpp ****         Scheduler::wake();
 1043              		.loc 3 212 24 is_stmt 0
GAS LISTING /tmp/cc3HINz4.s 			page 26


 1044 0558 97000000 		call	_ZN9Scheduler4wakeEv@plt
 1044      E7800000 
 1045              	.LVL93:
 213:src/interruptRoutine.cpp ****         TCB::getRunningTimeSlice()++;
 1046              		.loc 3 213 9 is_stmt 1
 213:src/interruptRoutine.cpp ****         TCB::getRunningTimeSlice()++;
 1047              		.loc 3 213 34 is_stmt 0
 1048 0560 97000000 		call	_ZN3TCB19getRunningTimeSliceEv
 1048      E7800000 
 1049              	.LVL94:
 1050 0568 93070500 		mv	a5,a0
 213:src/interruptRoutine.cpp ****         TCB::getRunningTimeSlice()++;
 1051              		.loc 3 213 33
 1052 056c 03B70700 		ld	a4,0(a5)
 213:src/interruptRoutine.cpp ****         TCB::getRunningTimeSlice()++;
 1053              		.loc 3 213 35
 1054 0570 13071700 		addi	a4,a4,1
 1055 0574 23B0E700 		sd	a4,0(a5)
 214:src/interruptRoutine.cpp ****         Riscv::mc_sip(Riscv::SIP_SSIP);
 1056              		.loc 3 214 9 is_stmt 1
 214:src/interruptRoutine.cpp ****         Riscv::mc_sip(Riscv::SIP_SSIP);
 1057              		.loc 3 214 22 is_stmt 0
 1058 0578 13052000 		li	a0,2
 1059 057c 97000000 		call	_ZN5Riscv6mc_sipEm
 1059      E7800000 
 1060              	.LVL95:
 215:src/interruptRoutine.cpp ****         if (TCB::getRunningTimeSlice() >= TCB::getRunning()->getTimeSlice()) {
 1061              		.loc 3 215 9 is_stmt 1
 215:src/interruptRoutine.cpp ****         if (TCB::getRunningTimeSlice() >= TCB::getRunning()->getTimeSlice()) {
 1062              		.loc 3 215 38 is_stmt 0
 1063 0584 97000000 		call	_ZN3TCB19getRunningTimeSliceEv
 1063      E7800000 
 1064              	.LVL96:
 1065 058c 93070500 		mv	a5,a0
 215:src/interruptRoutine.cpp ****         if (TCB::getRunningTimeSlice() >= TCB::getRunning()->getTimeSlice()) {
 1066              		.loc 3 215 37
 1067 0590 83B40700 		ld	s1,0(a5)
 215:src/interruptRoutine.cpp ****         if (TCB::getRunningTimeSlice() >= TCB::getRunning()->getTimeSlice()) {
 1068              		.loc 3 215 74
 1069 0594 97000000 		call	_ZN3TCB10getRunningEv
 1069      E7800000 
 1070              	.LVL97:
 1071 059c 93070500 		mv	a5,a0
 1072 05a0 13850700 		mv	a0,a5
 1073 05a4 97000000 		call	_ZN3TCB12getTimeSliceEv
 1073      E7800000 
 1074              	.LVL98:
 1075 05ac 93070500 		mv	a5,a0
 215:src/interruptRoutine.cpp ****         if (TCB::getRunningTimeSlice() >= TCB::getRunning()->getTimeSlice()) {
 1076              		.loc 3 215 40
 1077 05b0 B3B7F400 		sltu	a5,s1,a5
 1078 05b4 93C71700 		xori	a5,a5,1
 1079 05b8 93F7F70F 		andi	a5,a5,0xff
 215:src/interruptRoutine.cpp ****         if (TCB::getRunningTimeSlice() >= TCB::getRunning()->getTimeSlice()) {
 1080              		.loc 3 215 9
 1081 05bc 63860700 		beqz	a5,.L51
 216:src/interruptRoutine.cpp ****             TCB::dispatch();
GAS LISTING /tmp/cc3HINz4.s 			page 27


 1082              		.loc 3 216 13 is_stmt 1
 216:src/interruptRoutine.cpp ****             TCB::dispatch();
 1083              		.loc 3 216 26 is_stmt 0
 1084 05c0 97000000 		call	_ZN3TCB8dispatchEv@plt
 1084      E7800000 
 1085              	.LVL99:
 1086              	.L51:
 218:src/interruptRoutine.cpp ****         __asm__ volatile("csrw sepc, %[sepc]": :[sepc] "r"(sepc));
 1087              		.loc 3 218 9 is_stmt 1
 218:src/interruptRoutine.cpp ****         __asm__ volatile("csrw sepc, %[sepc]": :[sepc] "r"(sepc));
 1088              		.loc 3 218 66 is_stmt 0
 1089 05c8 833704FD 		ld	a5,-48(s0)
 1090              	#APP
 1091              	# 218 "src/interruptRoutine.cpp" 1
 219:src/interruptRoutine.cpp ****         __asm__ volatile("csrw sstatus, %[stat]": :[stat]"r"(sstatus));
 1092              		csrw sepc, a5
 1093              	# 0 "" 2
 1094              		.loc 3 219 9 is_stmt 1
 219:src/interruptRoutine.cpp ****         __asm__ volatile("csrw sstatus, %[stat]": :[stat]"r"(sstatus));
 1095              		.loc 3 219 71 is_stmt 0
 1096              	#NO_APP
 1097 05d0 833784FC 		ld	a5,-56(s0)
 1098              	#APP
 1099              	# 219 "src/interruptRoutine.cpp" 1
 1100              		csrw sstatus, a5
 1101              	# 0 "" 2
 1102              	#NO_APP
 1103              	.LBE34:
 1104              	.LBE36:
 1105              	.LBE39:
 1106              		.loc 3 231 1
 1107 05d8 6F004001 		j	.L57
 1108              	.LVL100:
 1109              	.L50:
 1110              	.LBB40:
 1111              	.LBB37:
 1112              	.LBB35:
 228:src/interruptRoutine.cpp ****         __asm__ volatile("csrw sepc, %[sepc]": :[sepc] "r"(sepc));
 1113              		.loc 3 228 9 is_stmt 1
 228:src/interruptRoutine.cpp ****         __asm__ volatile("csrw sepc, %[sepc]": :[sepc] "r"(sepc));
 1114              		.loc 3 228 66 is_stmt 0
 1115 05dc 833704FD 		ld	a5,-48(s0)
 1116              	#APP
 1117              	# 228 "src/interruptRoutine.cpp" 1
 229:src/interruptRoutine.cpp ****         __asm__ volatile("csrw sstatus, %[stat]": :[stat]"r"(sstatus));
 1118              		csrw sepc, a5
 1119              	# 0 "" 2
 1120              		.loc 3 229 9 is_stmt 1
 229:src/interruptRoutine.cpp ****         __asm__ volatile("csrw sstatus, %[stat]": :[stat]"r"(sstatus));
 1121              		.loc 3 229 71 is_stmt 0
 1122              	#NO_APP
 1123 05e4 833784FC 		ld	a5,-56(s0)
 1124              	#APP
 1125              	# 229 "src/interruptRoutine.cpp" 1
 1126              		csrw sstatus, a5
 1127              	# 0 "" 2
 1128              	.LVL101:
GAS LISTING /tmp/cc3HINz4.s 			page 28


 1129              	#NO_APP
 1130              	.L57:
 1131              	.LBE35:
 1132              	.LBE37:
 1133              	.LBE40:
 1134              		.loc 3 231 1
 1135 05ec 13000000 		nop
 1136 05f0 83308106 		ld	ra,104(sp)
 1137              		.cfi_restore 1
 1138 05f4 03340106 		ld	s0,96(sp)
 1139              		.cfi_restore 8
 1140              		.cfi_def_cfa 2, 112
 1141              	.LVL102:
 1142 05f8 83348105 		ld	s1,88(sp)
 1143              		.cfi_restore 9
 1144 05fc 13010107 		addi	sp,sp,112
 1145              		.cfi_def_cfa_offset 0
 1146              	.LVL103:
 1147 0600 67800000 		jr	ra
 1148              		.cfi_endproc
 1149              	.LFE66:
 1151              		.section	.text._ZN5Riscv6mc_sipEm,"axG",@progbits,_ZN5Riscv6mc_sipEm,comdat
 1152              		.align	2
 1153              		.weak	_ZN5Riscv6mc_sipEm
 1155              	_ZN5Riscv6mc_sipEm:
 1156              	.LFB7:
 1157              		.file 4 "src/../h/Riscv.hpp"
   1:src/../h/Riscv.hpp **** //
   2:src/../h/Riscv.hpp **** // Created by os on 5/17/23.
   3:src/../h/Riscv.hpp **** //
   4:src/../h/Riscv.hpp **** 
   5:src/../h/Riscv.hpp **** #ifndef PROJEKAT2023_RISCV_HPP
   6:src/../h/Riscv.hpp **** #define PROJEKAT2023_RISCV_HPP
   7:src/../h/Riscv.hpp **** 
   8:src/../h/Riscv.hpp **** #include "../lib/hw.h"
   9:src/../h/Riscv.hpp **** 
  10:src/../h/Riscv.hpp **** class Riscv {
  11:src/../h/Riscv.hpp **** public:
  12:src/../h/Riscv.hpp **** 
  13:src/../h/Riscv.hpp **** 	static void returnFromInterrupt();
  14:src/../h/Riscv.hpp **** 
  15:src/../h/Riscv.hpp **** 	//read scause
  16:src/../h/Riscv.hpp **** 	static uint64 r_scause();
  17:src/../h/Riscv.hpp **** 
  18:src/../h/Riscv.hpp **** 	//write scause
  19:src/../h/Riscv.hpp **** 	static void w_scause(uint64 scause);
  20:src/../h/Riscv.hpp **** 
  21:src/../h/Riscv.hpp **** 	//read sepc
  22:src/../h/Riscv.hpp **** 	static uint64 r_sepc();
  23:src/../h/Riscv.hpp **** 
  24:src/../h/Riscv.hpp **** 	//write sepc
  25:src/../h/Riscv.hpp **** 	static void w_sepc(uint64 sepc);
  26:src/../h/Riscv.hpp **** 
  27:src/../h/Riscv.hpp **** 	//read stvec
  28:src/../h/Riscv.hpp **** 	static uint64 r_stvec();
  29:src/../h/Riscv.hpp **** 
  30:src/../h/Riscv.hpp **** 	//write stvec
GAS LISTING /tmp/cc3HINz4.s 			page 29


  31:src/../h/Riscv.hpp **** 	static void w_stvec(uint64 stvec);
  32:src/../h/Riscv.hpp **** 
  33:src/../h/Riscv.hpp **** 	enum BitMaskSip {
  34:src/../h/Riscv.hpp **** 		//postoji zahtev za softverski prekid
  35:src/../h/Riscv.hpp **** 		SIP_SSIP = (1 << 1),
  36:src/../h/Riscv.hpp **** 		//postoji prekid od tajmera
  37:src/../h/Riscv.hpp **** 		SIP_STIP = (1 << 5),
  38:src/../h/Riscv.hpp **** 		//postoji zahtev za spoljasnji hardverski prekid
  39:src/../h/Riscv.hpp **** 		SIP_SEIP = (1 << 9)
  40:src/../h/Riscv.hpp **** 	};
  41:src/../h/Riscv.hpp **** 
  42:src/../h/Riscv.hpp **** 	//mask set sip
  43:src/../h/Riscv.hpp **** 	static void ms_sip(uint64 mask);
  44:src/../h/Riscv.hpp **** 
  45:src/../h/Riscv.hpp **** 	//mask clear sip
  46:src/../h/Riscv.hpp **** 	static void mc_sip(uint64 mask);
  47:src/../h/Riscv.hpp **** 
  48:src/../h/Riscv.hpp **** 	//read sip
  49:src/../h/Riscv.hpp **** 	static uint64 r_sip();
  50:src/../h/Riscv.hpp **** 
  51:src/../h/Riscv.hpp **** 	//write sip
  52:src/../h/Riscv.hpp **** 	static void w_sip(uint64 sip);
  53:src/../h/Riscv.hpp **** 
  54:src/../h/Riscv.hpp **** 	//kada se pozove sret, SIE dobija vrednost SPIE, SPIE se postavlja na 1,
  55:src/../h/Riscv.hpp **** 	//rezim se postavlja na osnovu SPP bita, SPP se postavlja na 0
  56:src/../h/Riscv.hpp **** 	enum BitMaskSstatus {
  57:src/../h/Riscv.hpp **** 		//1 - dozvoljeni prekidi; 0- nedozvoljeni prekidi; igonrise se u korisnickom rezimu
  58:src/../h/Riscv.hpp **** 		SSTATUS_SIE = (1 << 1),
  59:src/../h/Riscv.hpp **** 		//prethodna vrednost bita SIE
  60:src/../h/Riscv.hpp **** 		SSTATUS_SPIE = (1 << 5),
  61:src/../h/Riscv.hpp **** 		//iz kog rezima se desio skok; 0 - iz korisnickog; 1 - iz sistemskog
  62:src/../h/Riscv.hpp **** 		SSTATUS_SPP = (1 << 8)
  63:src/../h/Riscv.hpp **** 	};
  64:src/../h/Riscv.hpp **** 
  65:src/../h/Riscv.hpp **** 	//mask set sstatus
  66:src/../h/Riscv.hpp **** 	static void ms_sstatus(uint64 mask);
  67:src/../h/Riscv.hpp **** 
  68:src/../h/Riscv.hpp **** 	//mask clear sstatus
  69:src/../h/Riscv.hpp **** 	static void mc_sstatus(uint64 mask);
  70:src/../h/Riscv.hpp **** 
  71:src/../h/Riscv.hpp **** 	//read sstatus
  72:src/../h/Riscv.hpp **** 	static uint64 r_sstatus();
  73:src/../h/Riscv.hpp **** 
  74:src/../h/Riscv.hpp **** 	//write sstatus
  75:src/../h/Riscv.hpp **** 	static void w_sstatus(uint64 sstatus);
  76:src/../h/Riscv.hpp **** 
  77:src/../h/Riscv.hpp **** };
  78:src/../h/Riscv.hpp **** 
  79:src/../h/Riscv.hpp **** inline uint64 Riscv::r_scause() {
  80:src/../h/Riscv.hpp **** 	uint64 volatile scause;
  81:src/../h/Riscv.hpp **** 	__asm__ volatile("csrr %[scause], scause": [scause] "=r"(scause));
  82:src/../h/Riscv.hpp **** 	return scause;
  83:src/../h/Riscv.hpp **** }
  84:src/../h/Riscv.hpp **** 
  85:src/../h/Riscv.hpp **** inline void Riscv::w_scause(uint64 scause) {
  86:src/../h/Riscv.hpp **** 	__asm__ volatile("csrw scause, %[scause]": :[scause] "r"(scause));
  87:src/../h/Riscv.hpp **** }
GAS LISTING /tmp/cc3HINz4.s 			page 30


  88:src/../h/Riscv.hpp **** 
  89:src/../h/Riscv.hpp **** inline uint64 Riscv::r_sepc() {
  90:src/../h/Riscv.hpp **** 	uint64 volatile sepc;
  91:src/../h/Riscv.hpp **** 	__asm__ volatile("csrr %[sepc], sepc": [sepc] "=r"(sepc));
  92:src/../h/Riscv.hpp **** 	return sepc;
  93:src/../h/Riscv.hpp **** }
  94:src/../h/Riscv.hpp **** 
  95:src/../h/Riscv.hpp **** inline void Riscv::w_sepc(uint64 sepc) {
  96:src/../h/Riscv.hpp **** 	__asm__ volatile("csrw sepc, %[sepc]": :[sepc] "r"(sepc));
  97:src/../h/Riscv.hpp **** }
  98:src/../h/Riscv.hpp **** 
  99:src/../h/Riscv.hpp **** inline uint64 Riscv::r_stvec() {
 100:src/../h/Riscv.hpp **** 	uint64 volatile stvec;
 101:src/../h/Riscv.hpp **** 	__asm__ volatile("csrr %[stvec], stvec": [stvec] "=r"(stvec));
 102:src/../h/Riscv.hpp **** 	return stvec;
 103:src/../h/Riscv.hpp **** }
 104:src/../h/Riscv.hpp **** 
 105:src/../h/Riscv.hpp **** inline void Riscv::w_stvec(uint64 stvec) {
 106:src/../h/Riscv.hpp **** 	__asm__ volatile("csrw stvec, %[stvec]": :[stvec] "r"(stvec));
 107:src/../h/Riscv.hpp **** }
 108:src/../h/Riscv.hpp **** 
 109:src/../h/Riscv.hpp **** inline void Riscv::ms_sip(uint64 mask) {
 110:src/../h/Riscv.hpp **** 	__asm__ volatile("csrs sip, %[mask]": :[mask] "r"(mask));
 111:src/../h/Riscv.hpp **** }
 112:src/../h/Riscv.hpp **** 
 113:src/../h/Riscv.hpp **** inline void Riscv::mc_sip(uint64 mask) {
 1158              		.loc 4 113 40 is_stmt 1
 1159              		.cfi_startproc
 1160              	.LVL104:
 1161 0000 130101FF 		addi	sp,sp,-16
 1162              		.cfi_def_cfa_offset 16
 1163 0004 23348100 		sd	s0,8(sp)
 1164              		.cfi_offset 8, -8
 1165 0008 13040101 		addi	s0,sp,16
 1166              		.cfi_def_cfa 8, 0
 114:src/../h/Riscv.hpp **** 	__asm__ volatile("csrc sip, %[mask]": :[mask] "r"(mask));
 1167              		.loc 4 114 2
 1168              		.loc 4 114 58 is_stmt 0
 1169              	#APP
 1170              	# 114 "src/../h/Riscv.hpp" 1
 115              	}
 1171              		csrc sip, a0
 1172              	# 0 "" 2
 1173              		.loc 4 115 1
 1174              	#NO_APP
 1175 0010 03348100 		ld	s0,8(sp)
 1176              		.cfi_restore 8
 1177              		.cfi_def_cfa 2, 16
 1178 0014 13010101 		addi	sp,sp,16
 1179              		.cfi_def_cfa_offset 0
 1180 0018 67800000 		jr	ra
 1181              		.cfi_endproc
 1182              	.LFE7:
 1184              		.section	.text._ZN8KConsole10getSRvalueEv,"axG",@progbits,_ZN8KConsole10getSRvalueEv,comdat
 1185              		.align	2
 1186              		.weak	_ZN8KConsole10getSRvalueEv
 1188              	_ZN8KConsole10getSRvalueEv:
GAS LISTING /tmp/cc3HINz4.s 			page 31


 1189              	.LFB35:
 1190              		.file 5 "src/../h/KConsole.hpp"
   1:src/../h/KConsole.hpp **** //
   2:src/../h/KConsole.hpp **** // Created by os on 6/7/23.
   3:src/../h/KConsole.hpp **** //
   4:src/../h/KConsole.hpp **** 
   5:src/../h/KConsole.hpp **** #ifndef PROJEKAT2023_KCONSOLE_HPP
   6:src/../h/KConsole.hpp **** #define PROJEKAT2023_KCONSOLE_HPP
   7:src/../h/KConsole.hpp **** 
   8:src/../h/KConsole.hpp **** #include "../lib/hw.h"
   9:src/../h/KConsole.hpp **** 
  10:src/../h/KConsole.hpp **** class KSem;
  11:src/../h/KConsole.hpp **** 
  12:src/../h/KConsole.hpp **** typedef KSem* sem_t;
  13:src/../h/KConsole.hpp **** 
  14:src/../h/KConsole.hpp **** class KConsole {
  15:src/../h/KConsole.hpp **** public:
  16:src/../h/KConsole.hpp ****     static void initKConsole();
  17:src/../h/KConsole.hpp **** 
  18:src/../h/KConsole.hpp ****     //stavlja karakter u izlazni bafer konzole
  19:src/../h/KConsole.hpp ****     static void kputc(char c);
  20:src/../h/KConsole.hpp **** 
  21:src/../h/KConsole.hpp ****     //uzima karakter iz ulaznog bafera konzole
  22:src/../h/KConsole.hpp ****     static char kgetc();
  23:src/../h/KConsole.hpp **** 
  24:src/../h/KConsole.hpp ****     //vraca karakter iz izlaznog bafera; ako je bafer prazan, blokira se dok se ne napuni
  25:src/../h/KConsole.hpp ****     static char getFromOutput();
  26:src/../h/KConsole.hpp **** 
  27:src/../h/KConsole.hpp ****     //stavlja karakter u ulazni bafer; ako je bafer pun, ignorise se
  28:src/../h/KConsole.hpp ****     static void placeInInput(char c);
  29:src/../h/KConsole.hpp **** 
  30:src/../h/KConsole.hpp ****     //ispis svih preostalih karaktera u izlaznom baferu
  31:src/../h/KConsole.hpp ****     static void flush() {
  32:src/../h/KConsole.hpp ****         __asm__ volatile("li a0, 0x43");
  33:src/../h/KConsole.hpp ****         __asm__ volatile("ecall");
  34:src/../h/KConsole.hpp ****     }
  35:src/../h/KConsole.hpp **** 
  36:src/../h/KConsole.hpp ****     static uint8 getSRvalue() { return *sr; }
 1191              		.loc 5 36 18 is_stmt 1
 1192              		.cfi_startproc
 1193 0000 130101FF 		addi	sp,sp,-16
 1194              		.cfi_def_cfa_offset 16
 1195 0004 23348100 		sd	s0,8(sp)
 1196              		.cfi_offset 8, -8
 1197 0008 13040101 		addi	s0,sp,16
 1198              		.cfi_def_cfa 8, 0
 1199              		.loc 5 36 33
 1200              		.loc 5 36 40 is_stmt 0
 1201 000c 97070000 		la	a5,_ZN8KConsole2srE
 1201      83B70700 
 1202 0014 83B70700 		ld	a5,0(a5)
 1203              		.loc 5 36 45
 1204 0018 03C50700 		lbu	a0,0(a5)
 1205 001c 03348100 		ld	s0,8(sp)
 1206              		.cfi_restore 8
 1207              		.cfi_def_cfa 2, 16
 1208 0020 13010101 		addi	sp,sp,16
GAS LISTING /tmp/cc3HINz4.s 			page 32


 1209              		.cfi_def_cfa_offset 0
 1210 0024 67800000 		jr	ra
 1211              		.cfi_endproc
 1212              	.LFE35:
 1214              		.section	.text._ZN8KConsole10getDRvalueEv,"axG",@progbits,_ZN8KConsole10getDRvalueEv,comdat
 1215              		.align	2
 1216              		.weak	_ZN8KConsole10getDRvalueEv
 1218              	_ZN8KConsole10getDRvalueEv:
 1219              	.LFB36:
  37:src/../h/KConsole.hpp **** 
  38:src/../h/KConsole.hpp ****     static uint8 getDRvalue() { return *dr; }
 1220              		.loc 5 38 18 is_stmt 1
 1221              		.cfi_startproc
 1222 0000 130101FF 		addi	sp,sp,-16
 1223              		.cfi_def_cfa_offset 16
 1224 0004 23348100 		sd	s0,8(sp)
 1225              		.cfi_offset 8, -8
 1226 0008 13040101 		addi	s0,sp,16
 1227              		.cfi_def_cfa 8, 0
 1228              		.loc 5 38 33
 1229              		.loc 5 38 40 is_stmt 0
 1230 000c 97070000 		la	a5,_ZN8KConsole2drE
 1230      83B70700 
 1231 0014 83B70700 		ld	a5,0(a5)
 1232              		.loc 5 38 45
 1233 0018 03C50700 		lbu	a0,0(a5)
 1234 001c 03348100 		ld	s0,8(sp)
 1235              		.cfi_restore 8
 1236              		.cfi_def_cfa 2, 16
 1237 0020 13010101 		addi	sp,sp,16
 1238              		.cfi_def_cfa_offset 0
 1239 0024 67800000 		jr	ra
 1240              		.cfi_endproc
 1241              	.LFE36:
 1243              		.section	.text._ZN8KConsole10setDRvalueEc,"axG",@progbits,_ZN8KConsole10setDRvalueEc,comdat
 1244              		.align	2
 1245              		.weak	_ZN8KConsole10setDRvalueEc
 1247              	_ZN8KConsole10setDRvalueEc:
 1248              	.LFB37:
  39:src/../h/KConsole.hpp **** 
  40:src/../h/KConsole.hpp ****     static void setDRvalue(char c) { *dr = c; }
 1249              		.loc 5 40 17 is_stmt 1
 1250              		.cfi_startproc
 1251              	.LVL105:
 1252 0000 130101FF 		addi	sp,sp,-16
 1253              		.cfi_def_cfa_offset 16
 1254 0004 23348100 		sd	s0,8(sp)
 1255              		.cfi_offset 8, -8
 1256 0008 13040101 		addi	s0,sp,16
 1257              		.cfi_def_cfa 8, 0
 1258              		.loc 5 40 38
 1259 000c 97070000 		la	a5,_ZN8KConsole2drE
 1259      83B70700 
 1260 0014 83B70700 		ld	a5,0(a5)
 1261              		.loc 5 40 42 is_stmt 0
 1262 0018 2380A700 		sb	a0,0(a5)
 1263              		.loc 5 40 47
GAS LISTING /tmp/cc3HINz4.s 			page 33


 1264 001c 03348100 		ld	s0,8(sp)
 1265              		.cfi_restore 8
 1266              		.cfi_def_cfa 2, 16
 1267 0020 13010101 		addi	sp,sp,16
 1268              		.cfi_def_cfa_offset 0
 1269 0024 67800000 		jr	ra
 1270              		.cfi_endproc
 1271              	.LFE37:
 1273              		.section	.text._ZN8KConsole23getOutputBufferHasSpaceEv,"axG",@progbits,_ZN8KConsole23getOutputBuff
 1274              		.align	2
 1275              		.weak	_ZN8KConsole23getOutputBufferHasSpaceEv
 1277              	_ZN8KConsole23getOutputBufferHasSpaceEv:
 1278              	.LFB38:
  41:src/../h/KConsole.hpp **** 
  42:src/../h/KConsole.hpp ****     static sem_t getOutputBufferHasSpace() { return outputBufferHasSpace; }
 1279              		.loc 5 42 18 is_stmt 1
 1280              		.cfi_startproc
 1281 0000 130101FF 		addi	sp,sp,-16
 1282              		.cfi_def_cfa_offset 16
 1283 0004 23348100 		sd	s0,8(sp)
 1284              		.cfi_offset 8, -8
 1285 0008 13040101 		addi	s0,sp,16
 1286              		.cfi_def_cfa 8, 0
 1287              		.loc 5 42 46
 1288              		.loc 5 42 75 is_stmt 0
 1289 000c 97070000 		la	a5,_ZN8KConsole20outputBufferHasSpaceE
 1289      83B70700 
 1290 0014 03B50700 		ld	a0,0(a5)
 1291 0018 03348100 		ld	s0,8(sp)
 1292              		.cfi_restore 8
 1293              		.cfi_def_cfa 2, 16
 1294 001c 13010101 		addi	sp,sp,16
 1295              		.cfi_def_cfa_offset 0
 1296 0020 67800000 		jr	ra
 1297              		.cfi_endproc
 1298              	.LFE38:
 1300              		.section	.text._ZN8KConsole13getOutputHeadEv,"axG",@progbits,_ZN8KConsole13getOutputHeadEv,comdat
 1301              		.align	2
 1302              		.weak	_ZN8KConsole13getOutputHeadEv
 1304              	_ZN8KConsole13getOutputHeadEv:
 1305              	.LFB39:
  43:src/../h/KConsole.hpp **** 
  44:src/../h/KConsole.hpp ****     static int getOutputHead() { return outputHead; }
 1306              		.loc 5 44 16 is_stmt 1
 1307              		.cfi_startproc
 1308 0000 130101FF 		addi	sp,sp,-16
 1309              		.cfi_def_cfa_offset 16
 1310 0004 23348100 		sd	s0,8(sp)
 1311              		.cfi_offset 8, -8
 1312 0008 13040101 		addi	s0,sp,16
 1313              		.cfi_def_cfa 8, 0
 1314              		.loc 5 44 34
 1315              		.loc 5 44 53 is_stmt 0
 1316 000c 97070000 		la	a5,_ZN8KConsole10outputHeadE
 1316      83B70700 
 1317 0014 03A50700 		lw	a0,0(a5)
 1318 0018 03348100 		ld	s0,8(sp)
GAS LISTING /tmp/cc3HINz4.s 			page 34


 1319              		.cfi_restore 8
 1320              		.cfi_def_cfa 2, 16
 1321 001c 13010101 		addi	sp,sp,16
 1322              		.cfi_def_cfa_offset 0
 1323 0020 67800000 		jr	ra
 1324              		.cfi_endproc
 1325              	.LFE39:
 1327              		.section	.text._ZN8KConsole13getOutputTailEv,"axG",@progbits,_ZN8KConsole13getOutputTailEv,comdat
 1328              		.align	2
 1329              		.weak	_ZN8KConsole13getOutputTailEv
 1331              	_ZN8KConsole13getOutputTailEv:
 1332              	.LFB40:
  45:src/../h/KConsole.hpp **** 
  46:src/../h/KConsole.hpp ****     static int getOutputTail() { return outputTail; }
 1333              		.loc 5 46 16 is_stmt 1
 1334              		.cfi_startproc
 1335 0000 130101FF 		addi	sp,sp,-16
 1336              		.cfi_def_cfa_offset 16
 1337 0004 23348100 		sd	s0,8(sp)
 1338              		.cfi_offset 8, -8
 1339 0008 13040101 		addi	s0,sp,16
 1340              		.cfi_def_cfa 8, 0
 1341              		.loc 5 46 34
 1342              		.loc 5 46 53 is_stmt 0
 1343 000c 97070000 		la	a5,_ZN8KConsole10outputTailE
 1343      83B70700 
 1344 0014 03A50700 		lw	a0,0(a5)
 1345 0018 03348100 		ld	s0,8(sp)
 1346              		.cfi_restore 8
 1347              		.cfi_def_cfa 2, 16
 1348 001c 13010101 		addi	sp,sp,16
 1349              		.cfi_def_cfa_offset 0
 1350 0020 67800000 		jr	ra
 1351              		.cfi_endproc
 1352              	.LFE40:
 1354              		.section	.text._ZN3TCB9setStatusENS_12ThreadStatusE,"axG",@progbits,_ZN3TCB9setStatusENS_12ThreadS
 1355              		.align	2
 1356              		.weak	_ZN3TCB9setStatusENS_12ThreadStatusE
 1358              	_ZN3TCB9setStatusENS_12ThreadStatusE:
 1359              	.LFB44:
 1360              		.file 6 "src/../h/TCB.hpp"
   1:src/../h/TCB.hpp **** //
   2:src/../h/TCB.hpp **** // Created by os on 5/23/23.
   3:src/../h/TCB.hpp **** //
   4:src/../h/TCB.hpp **** 
   5:src/../h/TCB.hpp **** #ifndef PROJEKAT2023_TCB_HPP
   6:src/../h/TCB.hpp **** #define PROJEKAT2023_TCB_HPP
   7:src/../h/TCB.hpp **** 
   8:src/../h/TCB.hpp **** #include "../lib/hw.h"
   9:src/../h/TCB.hpp **** #include "../h/ThreadQueue.hpp"
  10:src/../h/TCB.hpp **** 
  11:src/../h/TCB.hpp **** int main();
  12:src/../h/TCB.hpp **** 
  13:src/../h/TCB.hpp **** class TCB {
  14:src/../h/TCB.hpp **** public:
  15:src/../h/TCB.hpp ****     friend class Scheduler;
  16:src/../h/TCB.hpp **** 
GAS LISTING /tmp/cc3HINz4.s 			page 35


  17:src/../h/TCB.hpp ****     using Body = void (*)(void*);
  18:src/../h/TCB.hpp **** 
  19:src/../h/TCB.hpp ****     enum ThreadStatus {
  20:src/../h/TCB.hpp ****         CREATED, ACTIVE, BLOCKED, JOINING, SLEEPING, FINISHED
  21:src/../h/TCB.hpp ****     };
  22:src/../h/TCB.hpp **** 
  23:src/../h/TCB.hpp ****     static TCB* createThread(Body function, void* args, uint64* stack);
  24:src/../h/TCB.hpp **** 
  25:src/../h/TCB.hpp ****     void setStatus(ThreadStatus stat) { this->status = stat; }
 1361              		.loc 6 25 10 is_stmt 1
 1362              		.cfi_startproc
 1363              	.LVL106:
 1364 0000 130101FF 		addi	sp,sp,-16
 1365              		.cfi_def_cfa_offset 16
 1366 0004 23348100 		sd	s0,8(sp)
 1367              		.cfi_offset 8, -8
 1368 0008 13040101 		addi	s0,sp,16
 1369              		.cfi_def_cfa 8, 0
 1370              		.loc 6 25 41
 1371              		.loc 6 25 54 is_stmt 0
 1372 000c 232CB504 		sw	a1,88(a0)
 1373              		.loc 6 25 62
 1374 0010 03348100 		ld	s0,8(sp)
 1375              		.cfi_restore 8
 1376              		.cfi_def_cfa 2, 16
 1377 0014 13010101 		addi	sp,sp,16
 1378              		.cfi_def_cfa_offset 0
 1379 0018 67800000 		jr	ra
 1380              		.cfi_endproc
 1381              	.LFE44:
 1383              		.section	.text._ZN3TCB12getTimeSliceEv,"axG",@progbits,_ZN3TCB12getTimeSliceEv,comdat
 1384              		.align	2
 1385              		.weak	_ZN3TCB12getTimeSliceEv
 1387              	_ZN3TCB12getTimeSliceEv:
 1388              	.LFB46:
  26:src/../h/TCB.hpp **** 
  27:src/../h/TCB.hpp ****     ThreadStatus getStatus() { return this->status; }
  28:src/../h/TCB.hpp **** 
  29:src/../h/TCB.hpp ****     uint64 getTimeSlice() { return timeSlice; }
 1389              		.loc 6 29 12 is_stmt 1
 1390              		.cfi_startproc
 1391              	.LVL107:
 1392 0000 130101FF 		addi	sp,sp,-16
 1393              		.cfi_def_cfa_offset 16
 1394 0004 23348100 		sd	s0,8(sp)
 1395              		.cfi_offset 8, -8
 1396 0008 13040101 		addi	s0,sp,16
 1397              		.cfi_def_cfa 8, 0
 1398              		.loc 6 29 29
 1399              		.loc 6 29 47 is_stmt 0
 1400 000c 03358502 		ld	a0,40(a0)
 1401              	.LVL108:
 1402 0010 03348100 		ld	s0,8(sp)
 1403              		.cfi_restore 8
 1404              		.cfi_def_cfa 2, 16
 1405 0014 13010101 		addi	sp,sp,16
 1406              		.cfi_def_cfa_offset 0
GAS LISTING /tmp/cc3HINz4.s 			page 36


 1407 0018 67800000 		jr	ra
 1408              		.cfi_endproc
 1409              	.LFE46:
 1411              		.section	.text._ZN3TCB7getBodyEv,"axG",@progbits,_ZN3TCB7getBodyEv,comdat
 1412              		.align	2
 1413              		.weak	_ZN3TCB7getBodyEv
 1415              	_ZN3TCB7getBodyEv:
 1416              	.LFB47:
  30:src/../h/TCB.hpp **** 
  31:src/../h/TCB.hpp ****     Body getBody() { return threadFunction; }
 1417              		.loc 6 31 10 is_stmt 1
 1418              		.cfi_startproc
 1419              	.LVL109:
 1420 0000 130101FF 		addi	sp,sp,-16
 1421              		.cfi_def_cfa_offset 16
 1422 0004 23348100 		sd	s0,8(sp)
 1423              		.cfi_offset 8, -8
 1424 0008 13040101 		addi	s0,sp,16
 1425              		.cfi_def_cfa 8, 0
 1426              		.loc 6 31 22
 1427              		.loc 6 31 45 is_stmt 0
 1428 000c 03350501 		ld	a0,16(a0)
 1429              	.LVL110:
 1430 0010 03348100 		ld	s0,8(sp)
 1431              		.cfi_restore 8
 1432              		.cfi_def_cfa 2, 16
 1433 0014 13010101 		addi	sp,sp,16
 1434              		.cfi_def_cfa_offset 0
 1435 0018 67800000 		jr	ra
 1436              		.cfi_endproc
 1437              	.LFE47:
 1439              		.section	.text._ZN3TCB10getRunningEv,"axG",@progbits,_ZN3TCB10getRunningEv,comdat
 1440              		.align	2
 1441              		.weak	_ZN3TCB10getRunningEv
 1443              	_ZN3TCB10getRunningEv:
 1444              	.LFB51:
  32:src/../h/TCB.hpp **** 
  33:src/../h/TCB.hpp ****     ThreadQueue* getListOfJoiningThreads() { return &waitingToJoin; }
  34:src/../h/TCB.hpp **** 
  35:src/../h/TCB.hpp ****     void setMySemaphore(KSem* sem) { mySemaphore = sem; }
  36:src/../h/TCB.hpp **** 
  37:src/../h/TCB.hpp ****     void setJoiningWithTCB(TCB* tcb) { joiningWithTCB = tcb; }
  38:src/../h/TCB.hpp **** 
  39:src/../h/TCB.hpp ****     static TCB* getRunning() { return running; }
 1445              		.loc 6 39 17 is_stmt 1
 1446              		.cfi_startproc
 1447 0000 130101FF 		addi	sp,sp,-16
 1448              		.cfi_def_cfa_offset 16
 1449 0004 23348100 		sd	s0,8(sp)
 1450              		.cfi_offset 8, -8
 1451 0008 13040101 		addi	s0,sp,16
 1452              		.cfi_def_cfa 8, 0
 1453              		.loc 6 39 32
 1454              		.loc 6 39 48 is_stmt 0
 1455 000c 97070000 		la	a5,_ZN3TCB7runningE
 1455      83B70700 
 1456 0014 03B50700 		ld	a0,0(a5)
GAS LISTING /tmp/cc3HINz4.s 			page 37


 1457 0018 03348100 		ld	s0,8(sp)
 1458              		.cfi_restore 8
 1459              		.cfi_def_cfa 2, 16
 1460 001c 13010101 		addi	sp,sp,16
 1461              		.cfi_def_cfa_offset 0
 1462 0020 67800000 		jr	ra
 1463              		.cfi_endproc
 1464              	.LFE51:
 1466              		.section	.text._ZN3TCB19getRunningTimeSliceEv,"axG",@progbits,_ZN3TCB19getRunningTimeSliceEv,comda
 1467              		.align	2
 1468              		.weak	_ZN3TCB19getRunningTimeSliceEv
 1470              	_ZN3TCB19getRunningTimeSliceEv:
 1471              	.LFB53:
  40:src/../h/TCB.hpp **** 
  41:src/../h/TCB.hpp ****     static void setRunning(TCB* newRunning) { running = newRunning; }
  42:src/../h/TCB.hpp **** 
  43:src/../h/TCB.hpp ****     static uint64 &getRunningTimeSlice() { return runningTimeSlice; }
 1472              		.loc 6 43 20 is_stmt 1
 1473              		.cfi_startproc
 1474 0000 130101FF 		addi	sp,sp,-16
 1475              		.cfi_def_cfa_offset 16
 1476 0004 23348100 		sd	s0,8(sp)
 1477              		.cfi_offset 8, -8
 1478 0008 13040101 		addi	s0,sp,16
 1479              		.cfi_def_cfa 8, 0
 1480              		.loc 6 43 44
 1481              		.loc 6 43 69 is_stmt 0
 1482 000c 17050000 		la	a0,_ZN3TCB16runningTimeSliceE
 1482      03350500 
 1483 0014 03348100 		ld	s0,8(sp)
 1484              		.cfi_restore 8
 1485              		.cfi_def_cfa 2, 16
 1486 0018 13010101 		addi	sp,sp,16
 1487              		.cfi_def_cfa_offset 0
 1488 001c 67800000 		jr	ra
 1489              		.cfi_endproc
 1490              	.LFE53:
 1492              		.text
 1493              	.Letext0:
 1494              		.file 7 "src/../lib/hw.h"
 1495              		.file 8 "src/../h/KMemory.hpp"
 1496              		.file 9 "src/../h/../h/../h/syscall_c.hpp"
 1497              		.file 10 "src/../h/Scheduler.hpp"
 6320              		.align	3
 6323              	DW.ref.__gxx_personality_v0:
 6324 0000 00000000 		.dword	__gxx_personality_v0
 6324      00000000 
 6325              		.ident	"GCC: (Ubuntu 9.4.0-1ubuntu1~20.04) 9.4.0"
 6326              		.section	.note.GNU-stack,"",@progbits
GAS LISTING /tmp/cc3HINz4.s 			page 38


DEFINED SYMBOLS
                            *ABS*:0000000000000000 interruptRoutine.cpp
     /tmp/cc3HINz4.s:10     .text._ZN4KSemD2Ev:0000000000000000 _ZN4KSemD2Ev
     /tmp/cc3HINz4.s:14     .text._ZN4KSemD2Ev:0000000000000000 .L0 
     /tmp/cc3HINz4.s:6323   .data.rel.local.DW.ref.__gxx_personality_v0:0000000000000000 DW.ref.__gxx_personality_v0
     /tmp/cc3HINz4.s:18     .text._ZN4KSemD2Ev:0000000000000000 .L0 
     /tmp/cc3HINz4.s:19     .text._ZN4KSemD2Ev:0000000000000004 .L0 
     /tmp/cc3HINz4.s:23     .text._ZN4KSemD2Ev:0000000000000010 .L0 
     /tmp/cc3HINz4.s:24     .text._ZN4KSemD2Ev:0000000000000010 .L0 
     /tmp/cc3HINz4.s:25     .text._ZN4KSemD2Ev:0000000000000010 .L0 
     /tmp/cc3HINz4.s:27     .text._ZN4KSemD2Ev:0000000000000014 .L0 
     /tmp/cc3HINz4.s:35     .text._ZN4KSemD2Ev:0000000000000018 .L0 
     /tmp/cc3HINz4.s:38     .text._ZN4KSemD2Ev:0000000000000018 .L0 
     /tmp/cc3HINz4.s:39     .text._ZN4KSemD2Ev:0000000000000018 .L0 
     /tmp/cc3HINz4.s:40     .text._ZN4KSemD2Ev:0000000000000018 .L0 
     /tmp/cc3HINz4.s:45     .text._ZN4KSemD2Ev:000000000000001c .L0 
     /tmp/cc3HINz4.s:49     .text._ZN4KSemD2Ev:0000000000000020 .L0 
     /tmp/cc3HINz4.s:50     .text._ZN4KSemD2Ev:0000000000000020 .L0 
     /tmp/cc3HINz4.s:51     .text._ZN4KSemD2Ev:0000000000000020 .L0 
     /tmp/cc3HINz4.s:53     .text._ZN4KSemD2Ev:0000000000000024 .L0 
     /tmp/cc3HINz4.s:55     .text._ZN4KSemD2Ev:0000000000000028 .L0 
     /tmp/cc3HINz4.s:56     .text._ZN4KSemD2Ev:0000000000000028 .L0 
     /tmp/cc3HINz4.s:61     .text._ZN4KSemD2Ev:000000000000002c .L0 
     /tmp/cc3HINz4.s:62     .text._ZN4KSemD2Ev:000000000000002c .L0 
     /tmp/cc3HINz4.s:65     .text._ZN4KSemD2Ev:0000000000000034 .L0 
     /tmp/cc3HINz4.s:73     .text._ZN4KSemD2Ev:0000000000000038 .L0 
     /tmp/cc3HINz4.s:74     .text._ZN4KSemD2Ev:000000000000003c .L0 
     /tmp/cc3HINz4.s:76     .text._ZN4KSemD2Ev:0000000000000040 .L0 
     /tmp/cc3HINz4.s:77     .text._ZN4KSemD2Ev:0000000000000040 .L0 
     /tmp/cc3HINz4.s:79     .text._ZN4KSemD2Ev:0000000000000044 .L0 
     /tmp/cc3HINz4.s:82     .text._ZN4KSemD2Ev:0000000000000048 .L0 
     /tmp/cc3HINz4.s:84     .text._ZN4KSemD2Ev:000000000000004c .L0 
     /tmp/cc3HINz4.s:10     .text._ZN4KSemD2Ev:0000000000000000 _ZN4KSemD1Ev
     /tmp/cc3HINz4.s:101    .text:0000000000000000 interruptRoutine
     /tmp/cc3HINz4.s:105    .text:0000000000000000 .L0 
     /tmp/cc3HINz4.s:106    .text:0000000000000000 .L0 
     /tmp/cc3HINz4.s:107    .text:0000000000000004 .L0 
     /tmp/cc3HINz4.s:111    .text:0000000000000010 .L0 
     /tmp/cc3HINz4.s:112    .text:0000000000000010 .L0 
     /tmp/cc3HINz4.s:113    .text:0000000000000010 .L0 
     /tmp/cc3HINz4.s:115    .text:0000000000000014 .L0 
     /tmp/cc3HINz4.s:117    .text:0000000000000014 .L0 
     /tmp/cc3HINz4.s:118    .text:0000000000000014 .L0 
src/interruptRoutine.cpp:21     .text:0000000000000014 .L0 
     /tmp/cc3HINz4.s:127    .text:000000000000001c .L0 
src/interruptRoutine.cpp:22     .text:000000000000001c .L0 
     /tmp/cc3HINz4.s:137    .text:0000000000000024 .L0 
src/interruptRoutine.cpp:23     .text:0000000000000024 .L0 
     /tmp/cc3HINz4.s:147    .text:000000000000002c .L0 
     /tmp/cc3HINz4.s:148    .text:000000000000002c .L0 
src/interruptRoutine.cpp:28     .text:000000000000002c .L0 
     /tmp/cc3HINz4.s:158    .text:0000000000000034 .L0 
src/interruptRoutine.cpp:29     .text:0000000000000034 .L0 
     /tmp/cc3HINz4.s:168    .text:000000000000003c .L0 
src/interruptRoutine.cpp:30     .text:000000000000003c .L0 
     /tmp/cc3HINz4.s:178    .text:0000000000000044 .L0 
src/interruptRoutine.cpp:31     .text:0000000000000044 .L0 
GAS LISTING /tmp/cc3HINz4.s 			page 39


     /tmp/cc3HINz4.s:188    .text:000000000000004c .L0 
src/interruptRoutine.cpp:32     .text:000000000000004c .L0 
     /tmp/cc3HINz4.s:199    .text:0000000000000054 .L0 
     /tmp/cc3HINz4.s:203    .text:0000000000000060 .L0 
     /tmp/cc3HINz4.s:209    .text:000000000000006c .L0 
     /tmp/cc3HINz4.s:360    .text:00000000000000a4 .L0 
     /tmp/cc3HINz4.s:361    .text:00000000000000a4 .L0 
     /tmp/cc3HINz4.s:362    .text:00000000000000a4 .L0 
     /tmp/cc3HINz4.s:366    .text:00000000000000b0 .L0 
src/interruptRoutine.cpp:44     .text:00000000000000b0 .L0 
     /tmp/cc3HINz4.s:373    .text:00000000000000b4 .L0 
     /tmp/cc3HINz4.s:377    .text:00000000000000b8 .L0 
     /tmp/cc3HINz4.s:378    .text:00000000000000b8 .L0 
     /tmp/cc3HINz4.s:379    .text:00000000000000b8 .L0 
     /tmp/cc3HINz4.s:384    .text:00000000000000c8 .L0 
src/interruptRoutine.cpp:50     .text:00000000000000c8 .L0 
     /tmp/cc3HINz4.s:391    .text:00000000000000cc .L0 
     /tmp/cc3HINz4.s:395    .text:00000000000000d0 .L0 
     /tmp/cc3HINz4.s:396    .text:00000000000000d0 .L0 
     /tmp/cc3HINz4.s:397    .text:00000000000000d0 .L0 
     /tmp/cc3HINz4.s:401    .text:00000000000000dc .L0 
     /tmp/cc3HINz4.s:403    .text:00000000000000e0 .L0 
     /tmp/cc3HINz4.s:410    .text:00000000000000f8 .L0 
     /tmp/cc3HINz4.s:412    .text:00000000000000fc .L0 
     /tmp/cc3HINz4.s:413    .text:00000000000000fc .L0 
     /tmp/cc3HINz4.s:416    .text:0000000000000104 .L0 
     /tmp/cc3HINz4.s:418    .text:0000000000000108 .L0 
     /tmp/cc3HINz4.s:419    .text:0000000000000108 .L0 
     /tmp/cc3HINz4.s:421    .text:000000000000010c .L0 
     /tmp/cc3HINz4.s:424    .text:0000000000000118 .L0 
     /tmp/cc3HINz4.s:425    .text:0000000000000118 .L0 
     /tmp/cc3HINz4.s:432    .text:000000000000012c .L0 
src/interruptRoutine.cpp:63     .text:000000000000012c .L0 
     /tmp/cc3HINz4.s:441    .text:0000000000000134 .L0 
src/interruptRoutine.cpp:65     .text:0000000000000134 .L0 
     /tmp/cc3HINz4.s:449    .text:0000000000000138 .L0 
src/interruptRoutine.cpp:67     .text:0000000000000138 .L0 
     /tmp/cc3HINz4.s:456    .text:000000000000013c .L0 
     /tmp/cc3HINz4.s:460    .text:0000000000000140 .L0 
     /tmp/cc3HINz4.s:461    .text:0000000000000140 .L0 
     /tmp/cc3HINz4.s:1443   .text._ZN3TCB10getRunningEv:0000000000000000 _ZN3TCB10getRunningEv
     /tmp/cc3HINz4.s:462    .text:0000000000000140 .L0 
     /tmp/cc3HINz4.s:1358   .text._ZN3TCB9setStatusENS_12ThreadStatusE:0000000000000000 _ZN3TCB9setStatusENS_12ThreadStatusE
     /tmp/cc3HINz4.s:470    .text:000000000000015c .L0 
     /tmp/cc3HINz4.s:471    .text:000000000000015c .L0 
     /tmp/cc3HINz4.s:478    .text:0000000000000174 .L0 
src/interruptRoutine.cpp:73     .text:0000000000000174 .L0 
     /tmp/cc3HINz4.s:484    .text:0000000000000178 .L0 
src/interruptRoutine.cpp:74     .text:0000000000000178 .L0 
     /tmp/cc3HINz4.s:489    .text:000000000000017c .L0 
     /tmp/cc3HINz4.s:491    .text:000000000000017c .L0 
     /tmp/cc3HINz4.s:494    .text:0000000000000184 .L0 
     /tmp/cc3HINz4.s:498    .text:0000000000000188 .L0 
     /tmp/cc3HINz4.s:499    .text:0000000000000188 .L0 
     /tmp/cc3HINz4.s:500    .text:0000000000000188 .L0 
     /tmp/cc3HINz4.s:503    .text:0000000000000190 .L0 
     /tmp/cc3HINz4.s:507    .text:0000000000000194 .L0 
GAS LISTING /tmp/cc3HINz4.s 			page 40


     /tmp/cc3HINz4.s:508    .text:0000000000000194 .L0 
     /tmp/cc3HINz4.s:509    .text:0000000000000194 .L0 
     /tmp/cc3HINz4.s:514    .text:00000000000001a4 .L0 
     /tmp/cc3HINz4.s:515    .text:00000000000001a4 .L0 
     /tmp/cc3HINz4.s:518    .text:00000000000001ac .L0 
     /tmp/cc3HINz4.s:522    .text:00000000000001b0 .L0 
     /tmp/cc3HINz4.s:523    .text:00000000000001b0 .L0 
     /tmp/cc3HINz4.s:524    .text:00000000000001b0 .L0 
     /tmp/cc3HINz4.s:528    .text:00000000000001bc .L0 
     /tmp/cc3HINz4.s:533    .text:00000000000001cc .L0 
     /tmp/cc3HINz4.s:535    .text:00000000000001d0 .L0 
     /tmp/cc3HINz4.s:536    .text:00000000000001d0 .L0 
     /tmp/cc3HINz4.s:544    .text:00000000000001ec .L0 
     /tmp/cc3HINz4.s:545    .text:00000000000001ec .L0 
     /tmp/cc3HINz4.s:552    .text:0000000000000204 .L0 
     /tmp/cc3HINz4.s:553    .text:0000000000000204 .L0 
     /tmp/cc3HINz4.s:556    .text:000000000000020c .L0 
     /tmp/cc3HINz4.s:559    .text:0000000000000210 .L0 
     /tmp/cc3HINz4.s:560    .text:0000000000000210 .L0 
     /tmp/cc3HINz4.s:565    .text:0000000000000220 .L0 
     /tmp/cc3HINz4.s:566    .text:0000000000000220 .L0 
     /tmp/cc3HINz4.s:571    .text:0000000000000230 .L0 
     /tmp/cc3HINz4.s:575    .text:0000000000000234 .L0 
     /tmp/cc3HINz4.s:576    .text:0000000000000234 .L0 
     /tmp/cc3HINz4.s:577    .text:0000000000000234 .L0 
     /tmp/cc3HINz4.s:580    .text:000000000000023c .L0 
     /tmp/cc3HINz4.s:582    .text:0000000000000240 .L0 
     /tmp/cc3HINz4.s:587    .text:0000000000000250 .L0 
     /tmp/cc3HINz4.s:589    .text:0000000000000254 .L0 
     /tmp/cc3HINz4.s:590    .text:0000000000000254 .L0 
     /tmp/cc3HINz4.s:593    .text:000000000000025c .L0 
     /tmp/cc3HINz4.s:595    .text:0000000000000260 .L0 
src/interruptRoutine.cpp:104    .text:0000000000000260 .L0 
     /tmp/cc3HINz4.s:604    .text:0000000000000268 .L0 
src/interruptRoutine.cpp:106    .text:0000000000000268 .L0 
     /tmp/cc3HINz4.s:612    .text:000000000000026c .L0 
src/interruptRoutine.cpp:108    .text:000000000000026c .L0 
     /tmp/cc3HINz4.s:619    .text:0000000000000270 .L0 
     /tmp/cc3HINz4.s:623    .text:0000000000000274 .L0 
     /tmp/cc3HINz4.s:624    .text:0000000000000274 .L0 
     /tmp/cc3HINz4.s:625    .text:0000000000000274 .L0 
     /tmp/cc3HINz4.s:630    .text:0000000000000284 .L0 
src/interruptRoutine.cpp:114    .text:0000000000000284 .L0 
     /tmp/cc3HINz4.s:636    .text:0000000000000288 .L0 
     /tmp/cc3HINz4.s:638    .text:0000000000000288 .L0 
     /tmp/cc3HINz4.s:640    .text:000000000000028c .L0 
     /tmp/cc3HINz4.s:642    .text:0000000000000290 .L0 
     /tmp/cc3HINz4.s:649    .text:00000000000002a8 .L0 
     /tmp/cc3HINz4.s:653    .text:00000000000002ac .L0 
     /tmp/cc3HINz4.s:654    .text:00000000000002ac .L0 
     /tmp/cc3HINz4.s:655    .text:00000000000002ac .L0 
     /tmp/cc3HINz4.s:660    .text:00000000000002bc .L0 
src/interruptRoutine.cpp:121    .text:00000000000002bc .L0 
     /tmp/cc3HINz4.s:667    .text:00000000000002c0 .L0 
     /tmp/cc3HINz4.s:671    .text:00000000000002c4 .L0 
     /tmp/cc3HINz4.s:672    .text:00000000000002c4 .L0 
     /tmp/cc3HINz4.s:673    .text:00000000000002c4 .L0 
GAS LISTING /tmp/cc3HINz4.s 			page 41


     /tmp/cc3HINz4.s:678    .text:00000000000002d4 .L0 
src/interruptRoutine.cpp:127    .text:00000000000002d4 .L0 
     /tmp/cc3HINz4.s:685    .text:00000000000002d8 .L0 
     /tmp/cc3HINz4.s:689    .text:00000000000002dc .L0 
     /tmp/cc3HINz4.s:690    .text:00000000000002dc .L0 
     /tmp/cc3HINz4.s:693    .text:00000000000002e4 .L0 
src/interruptRoutine.cpp:133    .text:00000000000002e4 .L0 
     /tmp/cc3HINz4.s:702    .text:00000000000002ec .L0 
src/interruptRoutine.cpp:135    .text:00000000000002ec .L0 
     /tmp/cc3HINz4.s:710    .text:00000000000002f0 .L0 
src/interruptRoutine.cpp:137    .text:00000000000002f0 .L0 
     /tmp/cc3HINz4.s:717    .text:00000000000002f4 .L0 
     /tmp/cc3HINz4.s:720    .text:00000000000002fc .L0 
     /tmp/cc3HINz4.s:721    .text:00000000000002fc .L0 
     /tmp/cc3HINz4.s:729    .text:0000000000000318 .L0 
     /tmp/cc3HINz4.s:730    .text:0000000000000318 .L0 
     /tmp/cc3HINz4.s:733    .text:0000000000000320 .L0 
     /tmp/cc3HINz4.s:737    .text:0000000000000324 .L0 
     /tmp/cc3HINz4.s:738    .text:0000000000000324 .L0 
     /tmp/cc3HINz4.s:739    .text:0000000000000324 .L0 
     /tmp/cc3HINz4.s:742    .text:000000000000032c .L0 
src/interruptRoutine.cpp:146    .text:000000000000032c .L0 
     /tmp/cc3HINz4.s:749    .text:0000000000000330 .L0 
     /tmp/cc3HINz4.s:753    .text:0000000000000334 .L0 
     /tmp/cc3HINz4.s:754    .text:0000000000000334 .L0 
     /tmp/cc3HINz4.s:755    .text:0000000000000334 .L0 
     /tmp/cc3HINz4.s:761    .text:0000000000000348 .L0 
     /tmp/cc3HINz4.s:764    .text:000000000000034c .L0 
     /tmp/cc3HINz4.s:765    .text:000000000000034c .L0 
     /tmp/cc3HINz4.s:766    .text:000000000000034c .L0 
     /tmp/cc3HINz4.s:1304   .text._ZN8KConsole13getOutputHeadEv:0000000000000000 _ZN8KConsole13getOutputHeadEv
     /tmp/cc3HINz4.s:767    .text:000000000000034c .L0 
     /tmp/cc3HINz4.s:1331   .text._ZN8KConsole13getOutputTailEv:0000000000000000 _ZN8KConsole13getOutputTailEv
     /tmp/cc3HINz4.s:772    .text:000000000000035c .L0 
     /tmp/cc3HINz4.s:776    .text:0000000000000368 .L0 
     /tmp/cc3HINz4.s:783    .text:000000000000037c .L0 
     /tmp/cc3HINz4.s:784    .text:000000000000037c .L0 
     /tmp/cc3HINz4.s:791    .text:000000000000038c .L0 
     /tmp/cc3HINz4.s:792    .text:000000000000038c .L0 
     /tmp/cc3HINz4.s:1188   .text._ZN8KConsole10getSRvalueEv:0000000000000000 _ZN8KConsole10getSRvalueEv
     /tmp/cc3HINz4.s:793    .text:000000000000038c .L0 
     /tmp/cc3HINz4.s:797    .text:0000000000000398 .L0 
     /tmp/cc3HINz4.s:799    .text:000000000000039c .L0 
     /tmp/cc3HINz4.s:803    .text:00000000000003a8 .L0 
     /tmp/cc3HINz4.s:806    .text:00000000000003ac .L0 
     /tmp/cc3HINz4.s:807    .text:00000000000003ac .L0 
     /tmp/cc3HINz4.s:1247   .text._ZN8KConsole10setDRvalueEc:0000000000000000 _ZN8KConsole10setDRvalueEc
     /tmp/cc3HINz4.s:812    .text:00000000000003bc .L0 
     /tmp/cc3HINz4.s:1277   .text._ZN8KConsole23getOutputBufferHasSpaceEv:0000000000000000 _ZN8KConsole23getOutputBufferHasSpaceEv
     /tmp/cc3HINz4.s:813    .text:00000000000003bc .L0 
     /tmp/cc3HINz4.s:821    .text:00000000000003d4 .L0 
     /tmp/cc3HINz4.s:825    .text:00000000000003d8 .L0 
     /tmp/cc3HINz4.s:826    .text:00000000000003d8 .L0 
     /tmp/cc3HINz4.s:827    .text:00000000000003d8 .L0 
     /tmp/cc3HINz4.s:831    .text:00000000000003e4 .L0 
     /tmp/cc3HINz4.s:833    .text:00000000000003e8 .L0 
     /tmp/cc3HINz4.s:840    .text:0000000000000400 .L0 
GAS LISTING /tmp/cc3HINz4.s 			page 42


     /tmp/cc3HINz4.s:842    .text:0000000000000404 .L0 
     /tmp/cc3HINz4.s:843    .text:0000000000000404 .L0 
     /tmp/cc3HINz4.s:846    .text:000000000000040c .L0 
     /tmp/cc3HINz4.s:848    .text:0000000000000410 .L0 
src/interruptRoutine.cpp:170    .text:0000000000000410 .L0 
     /tmp/cc3HINz4.s:857    .text:0000000000000418 .L0 
src/interruptRoutine.cpp:172    .text:0000000000000418 .L0 
     /tmp/cc3HINz4.s:865    .text:000000000000041c .L0 
src/interruptRoutine.cpp:174    .text:000000000000041c .L0 
     /tmp/cc3HINz4.s:872    .text:0000000000000420 .L0 
     /tmp/cc3HINz4.s:876    .text:0000000000000424 .L0 
     /tmp/cc3HINz4.s:877    .text:0000000000000424 .L0 
     /tmp/cc3HINz4.s:878    .text:0000000000000424 .L0 
     /tmp/cc3HINz4.s:1415   .text._ZN3TCB7getBodyEv:0000000000000000 _ZN3TCB7getBodyEv
     /tmp/cc3HINz4.s:884    .text:0000000000000438 .L0 
     /tmp/cc3HINz4.s:889    .text:000000000000044c .L0 
     /tmp/cc3HINz4.s:891    .text:0000000000000450 .L0 
     /tmp/cc3HINz4.s:892    .text:0000000000000450 .L0 
     /tmp/cc3HINz4.s:897    .text:0000000000000460 .L0 
     /tmp/cc3HINz4.s:901    .text:0000000000000464 .L0 
     /tmp/cc3HINz4.s:906    .text:000000000000046c .L0 
     /tmp/cc3HINz4.s:910    .text:0000000000000474 .L0 
     /tmp/cc3HINz4.s:914    .text:000000000000047c .L0 
     /tmp/cc3HINz4.s:918    .text:0000000000000484 .L0 
     /tmp/cc3HINz4.s:923    .text:0000000000000488 .L0 
     /tmp/cc3HINz4.s:924    .text:0000000000000488 .L0 
     /tmp/cc3HINz4.s:929    .text:0000000000000494 .L0 
     /tmp/cc3HINz4.s:930    .text:0000000000000494 .L0 
     /tmp/cc3HINz4.s:936    .text:000000000000049c .L0 
     /tmp/cc3HINz4.s:938    .text:000000000000049c .L0 
     /tmp/cc3HINz4.s:949    .text:00000000000004a8 .L0 
     /tmp/cc3HINz4.s:956    .text:00000000000004ac .L0 
     /tmp/cc3HINz4.s:964    .text:00000000000004c0 .L0 
     /tmp/cc3HINz4.s:965    .text:00000000000004c0 .L0 
     /tmp/cc3HINz4.s:969    .text:00000000000004cc .L0 
     /tmp/cc3HINz4.s:972    .text:00000000000004d0 .L0 
     /tmp/cc3HINz4.s:976    .text:00000000000004dc .L0 
     /tmp/cc3HINz4.s:977    .text:00000000000004dc .L0 
     /tmp/cc3HINz4.s:981    .text:00000000000004e8 .L0 
     /tmp/cc3HINz4.s:983    .text:00000000000004ec .L0 
     /tmp/cc3HINz4.s:986    .text:00000000000004f4 .L0 
     /tmp/cc3HINz4.s:988    .text:00000000000004f8 .L0 
     /tmp/cc3HINz4.s:1218   .text._ZN8KConsole10getDRvalueEv:0000000000000000 _ZN8KConsole10getDRvalueEv
     /tmp/cc3HINz4.s:989    .text:00000000000004f8 .L0 
     /tmp/cc3HINz4.s:993    .text:0000000000000504 .L0 
     /tmp/cc3HINz4.s:998    .text:0000000000000510 .L0 
     /tmp/cc3HINz4.s:999    .text:0000000000000510 .L0 
     /tmp/cc3HINz4.s:1005   .text:0000000000000524 .L0 
     /tmp/cc3HINz4.s:1006   .text:0000000000000524 .L0 
     /tmp/cc3HINz4.s:1012   .text:000000000000052c .L0 
     /tmp/cc3HINz4.s:1014   .text:000000000000052c .L0 
     /tmp/cc3HINz4.s:1020   .text:0000000000000534 .L0 
     /tmp/cc3HINz4.s:1022   .text:0000000000000534 .L0 
     /tmp/cc3HINz4.s:1155   .text._ZN5Riscv6mc_sipEm:0000000000000000 _ZN5Riscv6mc_sipEm
     /tmp/cc3HINz4.s:1030   .text:0000000000000540 .L0 
     /tmp/cc3HINz4.s:1037   .text:0000000000000544 .L0 
     /tmp/cc3HINz4.s:1043   .text:0000000000000558 .L0 
GAS LISTING /tmp/cc3HINz4.s 			page 43


     /tmp/cc3HINz4.s:1044   .text:0000000000000558 .L0 
     /tmp/cc3HINz4.s:1047   .text:0000000000000560 .L0 
     /tmp/cc3HINz4.s:1470   .text._ZN3TCB19getRunningTimeSliceEv:0000000000000000 _ZN3TCB19getRunningTimeSliceEv
     /tmp/cc3HINz4.s:1048   .text:0000000000000560 .L0 
     /tmp/cc3HINz4.s:1052   .text:000000000000056c .L0 
     /tmp/cc3HINz4.s:1054   .text:0000000000000570 .L0 
     /tmp/cc3HINz4.s:1057   .text:0000000000000578 .L0 
     /tmp/cc3HINz4.s:1058   .text:0000000000000578 .L0 
     /tmp/cc3HINz4.s:1062   .text:0000000000000584 .L0 
     /tmp/cc3HINz4.s:1063   .text:0000000000000584 .L0 
     /tmp/cc3HINz4.s:1067   .text:0000000000000590 .L0 
     /tmp/cc3HINz4.s:1069   .text:0000000000000594 .L0 
     /tmp/cc3HINz4.s:1387   .text._ZN3TCB12getTimeSliceEv:0000000000000000 _ZN3TCB12getTimeSliceEv
     /tmp/cc3HINz4.s:1077   .text:00000000000005b0 .L0 
     /tmp/cc3HINz4.s:1081   .text:00000000000005bc .L0 
     /tmp/cc3HINz4.s:1083   .text:00000000000005c0 .L0 
     /tmp/cc3HINz4.s:1084   .text:00000000000005c0 .L0 
     /tmp/cc3HINz4.s:1088   .text:00000000000005c8 .L0 
     /tmp/cc3HINz4.s:1089   .text:00000000000005c8 .L0 
     /tmp/cc3HINz4.s:1095   .text:00000000000005d0 .L0 
     /tmp/cc3HINz4.s:1097   .text:00000000000005d0 .L0 
     /tmp/cc3HINz4.s:1107   .text:00000000000005d8 .L0 
     /tmp/cc3HINz4.s:1114   .text:00000000000005dc .L0 
     /tmp/cc3HINz4.s:1115   .text:00000000000005dc .L0 
     /tmp/cc3HINz4.s:1121   .text:00000000000005e4 .L0 
     /tmp/cc3HINz4.s:1123   .text:00000000000005e4 .L0 
     /tmp/cc3HINz4.s:1135   .text:00000000000005ec .L0 
     /tmp/cc3HINz4.s:1137   .text:00000000000005f4 .L0 
     /tmp/cc3HINz4.s:1139   .text:00000000000005f8 .L0 
     /tmp/cc3HINz4.s:1140   .text:00000000000005f8 .L0 
     /tmp/cc3HINz4.s:1143   .text:00000000000005fc .L0 
     /tmp/cc3HINz4.s:1145   .text:0000000000000600 .L0 
     /tmp/cc3HINz4.s:1148   .text:0000000000000604 .L0 
     /tmp/cc3HINz4.s:1159   .text._ZN5Riscv6mc_sipEm:0000000000000000 .L0 
     /tmp/cc3HINz4.s:1161   .text._ZN5Riscv6mc_sipEm:0000000000000000 .L0 
     /tmp/cc3HINz4.s:1162   .text._ZN5Riscv6mc_sipEm:0000000000000004 .L0 
     /tmp/cc3HINz4.s:1164   .text._ZN5Riscv6mc_sipEm:0000000000000008 .L0 
     /tmp/cc3HINz4.s:1166   .text._ZN5Riscv6mc_sipEm:000000000000000c .L0 
     /tmp/cc3HINz4.s:1168   .text._ZN5Riscv6mc_sipEm:000000000000000c .L0 
  src/../h/Riscv.hpp:114    .text._ZN5Riscv6mc_sipEm:000000000000000c .L0 
     /tmp/cc3HINz4.s:1175   .text._ZN5Riscv6mc_sipEm:0000000000000010 .L0 
     /tmp/cc3HINz4.s:1176   .text._ZN5Riscv6mc_sipEm:0000000000000014 .L0 
     /tmp/cc3HINz4.s:1177   .text._ZN5Riscv6mc_sipEm:0000000000000014 .L0 
     /tmp/cc3HINz4.s:1179   .text._ZN5Riscv6mc_sipEm:0000000000000018 .L0 
     /tmp/cc3HINz4.s:1181   .text._ZN5Riscv6mc_sipEm:000000000000001c .L0 
     /tmp/cc3HINz4.s:1192   .text._ZN8KConsole10getSRvalueEv:0000000000000000 .L0 
     /tmp/cc3HINz4.s:1193   .text._ZN8KConsole10getSRvalueEv:0000000000000000 .L0 
     /tmp/cc3HINz4.s:1194   .text._ZN8KConsole10getSRvalueEv:0000000000000004 .L0 
     /tmp/cc3HINz4.s:1196   .text._ZN8KConsole10getSRvalueEv:0000000000000008 .L0 
     /tmp/cc3HINz4.s:1198   .text._ZN8KConsole10getSRvalueEv:000000000000000c .L0 
     /tmp/cc3HINz4.s:1200   .text._ZN8KConsole10getSRvalueEv:000000000000000c .L0 
     /tmp/cc3HINz4.s:1201   .text._ZN8KConsole10getSRvalueEv:000000000000000c .L0 
     /tmp/cc3HINz4.s:1204   .text._ZN8KConsole10getSRvalueEv:0000000000000018 .L0 
     /tmp/cc3HINz4.s:1206   .text._ZN8KConsole10getSRvalueEv:0000000000000020 .L0 
     /tmp/cc3HINz4.s:1207   .text._ZN8KConsole10getSRvalueEv:0000000000000020 .L0 
     /tmp/cc3HINz4.s:1209   .text._ZN8KConsole10getSRvalueEv:0000000000000024 .L0 
     /tmp/cc3HINz4.s:1211   .text._ZN8KConsole10getSRvalueEv:0000000000000028 .L0 
GAS LISTING /tmp/cc3HINz4.s 			page 44


     /tmp/cc3HINz4.s:1221   .text._ZN8KConsole10getDRvalueEv:0000000000000000 .L0 
     /tmp/cc3HINz4.s:1222   .text._ZN8KConsole10getDRvalueEv:0000000000000000 .L0 
     /tmp/cc3HINz4.s:1223   .text._ZN8KConsole10getDRvalueEv:0000000000000004 .L0 
     /tmp/cc3HINz4.s:1225   .text._ZN8KConsole10getDRvalueEv:0000000000000008 .L0 
     /tmp/cc3HINz4.s:1227   .text._ZN8KConsole10getDRvalueEv:000000000000000c .L0 
     /tmp/cc3HINz4.s:1229   .text._ZN8KConsole10getDRvalueEv:000000000000000c .L0 
     /tmp/cc3HINz4.s:1230   .text._ZN8KConsole10getDRvalueEv:000000000000000c .L0 
     /tmp/cc3HINz4.s:1233   .text._ZN8KConsole10getDRvalueEv:0000000000000018 .L0 
     /tmp/cc3HINz4.s:1235   .text._ZN8KConsole10getDRvalueEv:0000000000000020 .L0 
     /tmp/cc3HINz4.s:1236   .text._ZN8KConsole10getDRvalueEv:0000000000000020 .L0 
     /tmp/cc3HINz4.s:1238   .text._ZN8KConsole10getDRvalueEv:0000000000000024 .L0 
     /tmp/cc3HINz4.s:1240   .text._ZN8KConsole10getDRvalueEv:0000000000000028 .L0 
     /tmp/cc3HINz4.s:1250   .text._ZN8KConsole10setDRvalueEc:0000000000000000 .L0 
     /tmp/cc3HINz4.s:1252   .text._ZN8KConsole10setDRvalueEc:0000000000000000 .L0 
     /tmp/cc3HINz4.s:1253   .text._ZN8KConsole10setDRvalueEc:0000000000000004 .L0 
     /tmp/cc3HINz4.s:1255   .text._ZN8KConsole10setDRvalueEc:0000000000000008 .L0 
     /tmp/cc3HINz4.s:1257   .text._ZN8KConsole10setDRvalueEc:000000000000000c .L0 
     /tmp/cc3HINz4.s:1259   .text._ZN8KConsole10setDRvalueEc:000000000000000c .L0 
     /tmp/cc3HINz4.s:1262   .text._ZN8KConsole10setDRvalueEc:0000000000000018 .L0 
     /tmp/cc3HINz4.s:1264   .text._ZN8KConsole10setDRvalueEc:000000000000001c .L0 
     /tmp/cc3HINz4.s:1265   .text._ZN8KConsole10setDRvalueEc:0000000000000020 .L0 
     /tmp/cc3HINz4.s:1266   .text._ZN8KConsole10setDRvalueEc:0000000000000020 .L0 
     /tmp/cc3HINz4.s:1268   .text._ZN8KConsole10setDRvalueEc:0000000000000024 .L0 
     /tmp/cc3HINz4.s:1270   .text._ZN8KConsole10setDRvalueEc:0000000000000028 .L0 
     /tmp/cc3HINz4.s:1280   .text._ZN8KConsole23getOutputBufferHasSpaceEv:0000000000000000 .L0 
     /tmp/cc3HINz4.s:1281   .text._ZN8KConsole23getOutputBufferHasSpaceEv:0000000000000000 .L0 
     /tmp/cc3HINz4.s:1282   .text._ZN8KConsole23getOutputBufferHasSpaceEv:0000000000000004 .L0 
     /tmp/cc3HINz4.s:1284   .text._ZN8KConsole23getOutputBufferHasSpaceEv:0000000000000008 .L0 
     /tmp/cc3HINz4.s:1286   .text._ZN8KConsole23getOutputBufferHasSpaceEv:000000000000000c .L0 
     /tmp/cc3HINz4.s:1288   .text._ZN8KConsole23getOutputBufferHasSpaceEv:000000000000000c .L0 
     /tmp/cc3HINz4.s:1289   .text._ZN8KConsole23getOutputBufferHasSpaceEv:000000000000000c .L0 
     /tmp/cc3HINz4.s:1292   .text._ZN8KConsole23getOutputBufferHasSpaceEv:000000000000001c .L0 
     /tmp/cc3HINz4.s:1293   .text._ZN8KConsole23getOutputBufferHasSpaceEv:000000000000001c .L0 
     /tmp/cc3HINz4.s:1295   .text._ZN8KConsole23getOutputBufferHasSpaceEv:0000000000000020 .L0 
     /tmp/cc3HINz4.s:1297   .text._ZN8KConsole23getOutputBufferHasSpaceEv:0000000000000024 .L0 
     /tmp/cc3HINz4.s:1307   .text._ZN8KConsole13getOutputHeadEv:0000000000000000 .L0 
     /tmp/cc3HINz4.s:1308   .text._ZN8KConsole13getOutputHeadEv:0000000000000000 .L0 
     /tmp/cc3HINz4.s:1309   .text._ZN8KConsole13getOutputHeadEv:0000000000000004 .L0 
     /tmp/cc3HINz4.s:1311   .text._ZN8KConsole13getOutputHeadEv:0000000000000008 .L0 
     /tmp/cc3HINz4.s:1313   .text._ZN8KConsole13getOutputHeadEv:000000000000000c .L0 
     /tmp/cc3HINz4.s:1315   .text._ZN8KConsole13getOutputHeadEv:000000000000000c .L0 
     /tmp/cc3HINz4.s:1316   .text._ZN8KConsole13getOutputHeadEv:000000000000000c .L0 
     /tmp/cc3HINz4.s:1319   .text._ZN8KConsole13getOutputHeadEv:000000000000001c .L0 
     /tmp/cc3HINz4.s:1320   .text._ZN8KConsole13getOutputHeadEv:000000000000001c .L0 
     /tmp/cc3HINz4.s:1322   .text._ZN8KConsole13getOutputHeadEv:0000000000000020 .L0 
     /tmp/cc3HINz4.s:1324   .text._ZN8KConsole13getOutputHeadEv:0000000000000024 .L0 
     /tmp/cc3HINz4.s:1334   .text._ZN8KConsole13getOutputTailEv:0000000000000000 .L0 
     /tmp/cc3HINz4.s:1335   .text._ZN8KConsole13getOutputTailEv:0000000000000000 .L0 
     /tmp/cc3HINz4.s:1336   .text._ZN8KConsole13getOutputTailEv:0000000000000004 .L0 
     /tmp/cc3HINz4.s:1338   .text._ZN8KConsole13getOutputTailEv:0000000000000008 .L0 
     /tmp/cc3HINz4.s:1340   .text._ZN8KConsole13getOutputTailEv:000000000000000c .L0 
     /tmp/cc3HINz4.s:1342   .text._ZN8KConsole13getOutputTailEv:000000000000000c .L0 
     /tmp/cc3HINz4.s:1343   .text._ZN8KConsole13getOutputTailEv:000000000000000c .L0 
     /tmp/cc3HINz4.s:1346   .text._ZN8KConsole13getOutputTailEv:000000000000001c .L0 
     /tmp/cc3HINz4.s:1347   .text._ZN8KConsole13getOutputTailEv:000000000000001c .L0 
     /tmp/cc3HINz4.s:1349   .text._ZN8KConsole13getOutputTailEv:0000000000000020 .L0 
     /tmp/cc3HINz4.s:1351   .text._ZN8KConsole13getOutputTailEv:0000000000000024 .L0 
GAS LISTING /tmp/cc3HINz4.s 			page 45


     /tmp/cc3HINz4.s:1362   .text._ZN3TCB9setStatusENS_12ThreadStatusE:0000000000000000 .L0 
     /tmp/cc3HINz4.s:1364   .text._ZN3TCB9setStatusENS_12ThreadStatusE:0000000000000000 .L0 
     /tmp/cc3HINz4.s:1365   .text._ZN3TCB9setStatusENS_12ThreadStatusE:0000000000000004 .L0 
     /tmp/cc3HINz4.s:1367   .text._ZN3TCB9setStatusENS_12ThreadStatusE:0000000000000008 .L0 
     /tmp/cc3HINz4.s:1369   .text._ZN3TCB9setStatusENS_12ThreadStatusE:000000000000000c .L0 
     /tmp/cc3HINz4.s:1371   .text._ZN3TCB9setStatusENS_12ThreadStatusE:000000000000000c .L0 
     /tmp/cc3HINz4.s:1372   .text._ZN3TCB9setStatusENS_12ThreadStatusE:000000000000000c .L0 
     /tmp/cc3HINz4.s:1374   .text._ZN3TCB9setStatusENS_12ThreadStatusE:0000000000000010 .L0 
     /tmp/cc3HINz4.s:1375   .text._ZN3TCB9setStatusENS_12ThreadStatusE:0000000000000014 .L0 
     /tmp/cc3HINz4.s:1376   .text._ZN3TCB9setStatusENS_12ThreadStatusE:0000000000000014 .L0 
     /tmp/cc3HINz4.s:1378   .text._ZN3TCB9setStatusENS_12ThreadStatusE:0000000000000018 .L0 
     /tmp/cc3HINz4.s:1380   .text._ZN3TCB9setStatusENS_12ThreadStatusE:000000000000001c .L0 
     /tmp/cc3HINz4.s:1390   .text._ZN3TCB12getTimeSliceEv:0000000000000000 .L0 
     /tmp/cc3HINz4.s:1392   .text._ZN3TCB12getTimeSliceEv:0000000000000000 .L0 
     /tmp/cc3HINz4.s:1393   .text._ZN3TCB12getTimeSliceEv:0000000000000004 .L0 
     /tmp/cc3HINz4.s:1395   .text._ZN3TCB12getTimeSliceEv:0000000000000008 .L0 
     /tmp/cc3HINz4.s:1397   .text._ZN3TCB12getTimeSliceEv:000000000000000c .L0 
     /tmp/cc3HINz4.s:1399   .text._ZN3TCB12getTimeSliceEv:000000000000000c .L0 
     /tmp/cc3HINz4.s:1400   .text._ZN3TCB12getTimeSliceEv:000000000000000c .L0 
     /tmp/cc3HINz4.s:1403   .text._ZN3TCB12getTimeSliceEv:0000000000000014 .L0 
     /tmp/cc3HINz4.s:1404   .text._ZN3TCB12getTimeSliceEv:0000000000000014 .L0 
     /tmp/cc3HINz4.s:1406   .text._ZN3TCB12getTimeSliceEv:0000000000000018 .L0 
     /tmp/cc3HINz4.s:1408   .text._ZN3TCB12getTimeSliceEv:000000000000001c .L0 
     /tmp/cc3HINz4.s:1418   .text._ZN3TCB7getBodyEv:0000000000000000 .L0 
     /tmp/cc3HINz4.s:1420   .text._ZN3TCB7getBodyEv:0000000000000000 .L0 
     /tmp/cc3HINz4.s:1421   .text._ZN3TCB7getBodyEv:0000000000000004 .L0 
     /tmp/cc3HINz4.s:1423   .text._ZN3TCB7getBodyEv:0000000000000008 .L0 
     /tmp/cc3HINz4.s:1425   .text._ZN3TCB7getBodyEv:000000000000000c .L0 
     /tmp/cc3HINz4.s:1427   .text._ZN3TCB7getBodyEv:000000000000000c .L0 
     /tmp/cc3HINz4.s:1428   .text._ZN3TCB7getBodyEv:000000000000000c .L0 
     /tmp/cc3HINz4.s:1431   .text._ZN3TCB7getBodyEv:0000000000000014 .L0 
     /tmp/cc3HINz4.s:1432   .text._ZN3TCB7getBodyEv:0000000000000014 .L0 
     /tmp/cc3HINz4.s:1434   .text._ZN3TCB7getBodyEv:0000000000000018 .L0 
     /tmp/cc3HINz4.s:1436   .text._ZN3TCB7getBodyEv:000000000000001c .L0 
     /tmp/cc3HINz4.s:1446   .text._ZN3TCB10getRunningEv:0000000000000000 .L0 
     /tmp/cc3HINz4.s:1447   .text._ZN3TCB10getRunningEv:0000000000000000 .L0 
     /tmp/cc3HINz4.s:1448   .text._ZN3TCB10getRunningEv:0000000000000004 .L0 
     /tmp/cc3HINz4.s:1450   .text._ZN3TCB10getRunningEv:0000000000000008 .L0 
     /tmp/cc3HINz4.s:1452   .text._ZN3TCB10getRunningEv:000000000000000c .L0 
     /tmp/cc3HINz4.s:1454   .text._ZN3TCB10getRunningEv:000000000000000c .L0 
     /tmp/cc3HINz4.s:1455   .text._ZN3TCB10getRunningEv:000000000000000c .L0 
     /tmp/cc3HINz4.s:1458   .text._ZN3TCB10getRunningEv:000000000000001c .L0 
     /tmp/cc3HINz4.s:1459   .text._ZN3TCB10getRunningEv:000000000000001c .L0 
     /tmp/cc3HINz4.s:1461   .text._ZN3TCB10getRunningEv:0000000000000020 .L0 
     /tmp/cc3HINz4.s:1463   .text._ZN3TCB10getRunningEv:0000000000000024 .L0 
     /tmp/cc3HINz4.s:1473   .text._ZN3TCB19getRunningTimeSliceEv:0000000000000000 .L0 
     /tmp/cc3HINz4.s:1474   .text._ZN3TCB19getRunningTimeSliceEv:0000000000000000 .L0 
     /tmp/cc3HINz4.s:1475   .text._ZN3TCB19getRunningTimeSliceEv:0000000000000004 .L0 
     /tmp/cc3HINz4.s:1477   .text._ZN3TCB19getRunningTimeSliceEv:0000000000000008 .L0 
     /tmp/cc3HINz4.s:1479   .text._ZN3TCB19getRunningTimeSliceEv:000000000000000c .L0 
     /tmp/cc3HINz4.s:1481   .text._ZN3TCB19getRunningTimeSliceEv:000000000000000c .L0 
     /tmp/cc3HINz4.s:1482   .text._ZN3TCB19getRunningTimeSliceEv:000000000000000c .L0 
     /tmp/cc3HINz4.s:1484   .text._ZN3TCB19getRunningTimeSliceEv:0000000000000018 .L0 
     /tmp/cc3HINz4.s:1485   .text._ZN3TCB19getRunningTimeSliceEv:0000000000000018 .L0 
     /tmp/cc3HINz4.s:1487   .text._ZN3TCB19getRunningTimeSliceEv:000000000000001c .L0 
     /tmp/cc3HINz4.s:1489   .text._ZN3TCB19getRunningTimeSliceEv:0000000000000020 .L0 
     /tmp/cc3HINz4.s:97     .text._ZN4KSemD2Ev:000000000000004c .L0 
GAS LISTING /tmp/cc3HINz4.s 			page 46


     /tmp/cc3HINz4.s:1498   .text:0000000000000604 .L0 
     /tmp/cc3HINz4.s:1184   .text._ZN5Riscv6mc_sipEm:000000000000001c .L0 
     /tmp/cc3HINz4.s:1214   .text._ZN8KConsole10getSRvalueEv:0000000000000028 .L0 
     /tmp/cc3HINz4.s:1243   .text._ZN8KConsole10getDRvalueEv:0000000000000028 .L0 
     /tmp/cc3HINz4.s:1273   .text._ZN8KConsole10setDRvalueEc:0000000000000028 .L0 
     /tmp/cc3HINz4.s:1300   .text._ZN8KConsole23getOutputBufferHasSpaceEv:0000000000000024 .L0 
     /tmp/cc3HINz4.s:1327   .text._ZN8KConsole13getOutputHeadEv:0000000000000024 .L0 
     /tmp/cc3HINz4.s:1354   .text._ZN8KConsole13getOutputTailEv:0000000000000024 .L0 
     /tmp/cc3HINz4.s:1383   .text._ZN3TCB9setStatusENS_12ThreadStatusE:000000000000001c .L0 
     /tmp/cc3HINz4.s:1411   .text._ZN3TCB12getTimeSliceEv:000000000000001c .L0 
     /tmp/cc3HINz4.s:1439   .text._ZN3TCB7getBodyEv:000000000000001c .L0 
     /tmp/cc3HINz4.s:1466   .text._ZN3TCB10getRunningEv:0000000000000024 .L0 
     /tmp/cc3HINz4.s:1492   .text._ZN3TCB19getRunningTimeSliceEv:0000000000000020 .L0 
     /tmp/cc3HINz4.s:224    .rodata:0000000000000000 .L11
     /tmp/cc3HINz4.s:214    .text:0000000000000080 .L0 
     /tmp/cc3HINz4.s:218    .text:0000000000000094 .L0 
     /tmp/cc3HINz4.s:421    .text:000000000000010c .L0 
     /tmp/cc3HINz4.s:884    .text:0000000000000438 .L0 
     /tmp/cc3HINz4.s:206    .text:000000000000006c .L7
     /tmp/cc3HINz4.s:951    .text:00000000000004ac .L8
     /tmp/cc3HINz4.s:899    .text:0000000000000464 .L52
     /tmp/cc3HINz4.s:919    .text:0000000000000488 .L28
     /tmp/cc3HINz4.s:439    .text:0000000000000134 .L29
     /tmp/cc3HINz4.s:430    .text:000000000000012c .L30
     /tmp/cc3HINz4.s:447    .text:0000000000000138 .L31
     /tmp/cc3HINz4.s:557    .text:0000000000000210 .L32
     /tmp/cc3HINz4.s:602    .text:0000000000000268 .L34
     /tmp/cc3HINz4.s:610    .text:000000000000026c .L35
     /tmp/cc3HINz4.s:904    .text:000000000000046c .L53
     /tmp/cc3HINz4.s:700    .text:00000000000002ec .L37
     /tmp/cc3HINz4.s:708    .text:00000000000002f0 .L38
     /tmp/cc3HINz4.s:908    .text:0000000000000474 .L54
     /tmp/cc3HINz4.s:912    .text:000000000000047c .L55
     /tmp/cc3HINz4.s:804    .text:00000000000003ac .L41
     /tmp/cc3HINz4.s:789    .text:000000000000038c .L42
     /tmp/cc3HINz4.s:762    .text:000000000000034c .L43
     /tmp/cc3HINz4.s:855    .text:0000000000000418 .L44
     /tmp/cc3HINz4.s:863    .text:000000000000041c .L45
     /tmp/cc3HINz4.s:916    .text:0000000000000484 .L56
     /tmp/cc3HINz4.s:1130   .text:00000000000005ec .L57
     /tmp/cc3HINz4.s:1032   .text:0000000000000544 .L48
     /tmp/cc3HINz4.s:996    .text:0000000000000510 .L49
     /tmp/cc3HINz4.s:1109   .text:00000000000005dc .L50
     /tmp/cc3HINz4.s:1086   .text:00000000000005c8 .L51
     /tmp/cc3HINz4.s:66     .text._ZN4KSemD2Ev:0000000000000038 .L1
     /tmp/cc3HINz4.s:30     .text._ZN4KSemD2Ev:0000000000000018 .L3
     /tmp/cc3HINz4.s:356    .text:00000000000000a4 .L27
     /tmp/cc3HINz4.s:375    .text:00000000000000b8 .L26
     /tmp/cc3HINz4.s:393    .text:00000000000000d0 .L25
     /tmp/cc3HINz4.s:458    .text:0000000000000140 .L24
     /tmp/cc3HINz4.s:496    .text:0000000000000188 .L23
     /tmp/cc3HINz4.s:505    .text:0000000000000194 .L22
     /tmp/cc3HINz4.s:520    .text:00000000000001b0 .L21
     /tmp/cc3HINz4.s:573    .text:0000000000000234 .L20
     /tmp/cc3HINz4.s:621    .text:0000000000000274 .L19
     /tmp/cc3HINz4.s:651    .text:00000000000002ac .L18
     /tmp/cc3HINz4.s:669    .text:00000000000002c4 .L17
GAS LISTING /tmp/cc3HINz4.s 			page 47


     /tmp/cc3HINz4.s:687    .text:00000000000002dc .L16
     /tmp/cc3HINz4.s:735    .text:0000000000000324 .L15
     /tmp/cc3HINz4.s:751    .text:0000000000000334 .L14
     /tmp/cc3HINz4.s:823    .text:00000000000003d8 .L12
     /tmp/cc3HINz4.s:874    .text:0000000000000424 .L10
     /tmp/cc3HINz4.s:1201   .text._ZN8KConsole10getSRvalueEv:000000000000000c .L0 
     /tmp/cc3HINz4.s:1230   .text._ZN8KConsole10getDRvalueEv:000000000000000c .L0 
     /tmp/cc3HINz4.s:1259   .text._ZN8KConsole10setDRvalueEc:000000000000000c .L0 
     /tmp/cc3HINz4.s:1289   .text._ZN8KConsole23getOutputBufferHasSpaceEv:000000000000000c .L0 
     /tmp/cc3HINz4.s:1316   .text._ZN8KConsole13getOutputHeadEv:000000000000000c .L0 
     /tmp/cc3HINz4.s:1343   .text._ZN8KConsole13getOutputTailEv:000000000000000c .L0 
     /tmp/cc3HINz4.s:1455   .text._ZN3TCB10getRunningEv:000000000000000c .L0 
     /tmp/cc3HINz4.s:1482   .text._ZN3TCB19getRunningTimeSliceEv:000000000000000c .L0 
     /tmp/cc3HINz4.s:3904   .debug_abbrev:0000000000000000 .Ldebug_abbrev0
     /tmp/cc3HINz4.s:6209   .debug_str:0000000000000c96 .LASF255
     /tmp/cc3HINz4.s:6085   .debug_str:000000000000090a .LASF256
     /tmp/cc3HINz4.s:6157   .debug_str:0000000000000b3b .LASF257
     /tmp/cc3HINz4.s:5751   .debug_ranges:0000000000000000 .Ldebug_ranges0
     /tmp/cc3HINz4.s:5783   .debug_line:0000000000000000 .Ldebug_line0
     /tmp/cc3HINz4.s:6121   .debug_str:0000000000000a12 .LASF3
     /tmp/cc3HINz4.s:5967   .debug_str:000000000000055f .LASF0
     /tmp/cc3HINz4.s:5999   .debug_str:000000000000063e .LASF1
     /tmp/cc3HINz4.s:6135   .debug_str:0000000000000a96 .LASF2
     /tmp/cc3HINz4.s:5905   .debug_str:000000000000037e .LASF4
     /tmp/cc3HINz4.s:6149   .debug_str:0000000000000aff .LASF5
     /tmp/cc3HINz4.s:5981   .debug_str:00000000000005c6 .LASF6
     /tmp/cc3HINz4.s:5811   .debug_str:00000000000000c8 .LASF7
     /tmp/cc3HINz4.s:6095   .debug_str:0000000000000967 .LASF8
     /tmp/cc3HINz4.s:6083   .debug_str:00000000000008f7 .LASF9
     /tmp/cc3HINz4.s:5987   .debug_str:00000000000005ef .LASF10
     /tmp/cc3HINz4.s:5931   .debug_str:0000000000000445 .LASF11
     /tmp/cc3HINz4.s:5947   .debug_str:00000000000004c7 .LASF12
     /tmp/cc3HINz4.s:5849   .debug_str:00000000000001d4 .LASF13
     /tmp/cc3HINz4.s:5915   .debug_str:00000000000003dd .LASF14
     /tmp/cc3HINz4.s:5867   .debug_str:0000000000000250 .LASF15
     /tmp/cc3HINz4.s:5847   .debug_str:00000000000001c4 .LASF16
     /tmp/cc3HINz4.s:6183   .debug_str:0000000000000bef .LASF17
     /tmp/cc3HINz4.s:5901   .debug_str:000000000000034a .LASF18
     /tmp/cc3HINz4.s:6169   .debug_str:0000000000000ba0 .LASF19
     /tmp/cc3HINz4.s:6269   .debug_str:0000000000000f09 .LASF49
     /tmp/cc3HINz4.s:6117   .debug_str:00000000000009fd .LASF70
     /tmp/cc3HINz4.s:6007   .debug_str:000000000000066c .LASF20
     /tmp/cc3HINz4.s:5817   .debug_str:00000000000000ed .LASF21
     /tmp/cc3HINz4.s:6287   .debug_str:0000000000000f90 .LASF22
     /tmp/cc3HINz4.s:6031   .debug_str:000000000000071b .LASF51
     /tmp/cc3HINz4.s:6247   .debug_str:0000000000000e79 .LASF53
     /tmp/cc3HINz4.s:6245   .debug_str:0000000000000e70 .LASF23
     /tmp/cc3HINz4.s:6235   .debug_str:0000000000000e0f .LASF25
     /tmp/cc3HINz4.s:6131   .debug_str:0000000000000a82 .LASF27
     /tmp/cc3HINz4.s:6069   .debug_str:0000000000000881 .LASF29
     /tmp/cc3HINz4.s:6103   .debug_str:0000000000000988 .LASF24
     /tmp/cc3HINz4.s:6111   .debug_str:00000000000009c1 .LASF26
     /tmp/cc3HINz4.s:6057   .debug_str:0000000000000825 .LASF28
     /tmp/cc3HINz4.s:5991   .debug_str:000000000000060a .LASF30
     /tmp/cc3HINz4.s:6283   .debug_str:0000000000000f83 .LASF31
     /tmp/cc3HINz4.s:6215   .debug_str:0000000000000d6c .LASF32
     /tmp/cc3HINz4.s:6047   .debug_str:00000000000007d8 .LASF33
GAS LISTING /tmp/cc3HINz4.s 			page 48


     /tmp/cc3HINz4.s:6067   .debug_str:000000000000086d .LASF34
     /tmp/cc3HINz4.s:6179   .debug_str:0000000000000bdb .LASF35
     /tmp/cc3HINz4.s:6151   .debug_str:0000000000000b06 .LASF36
     /tmp/cc3HINz4.s:6153   .debug_str:0000000000000b19 .LASF37
     /tmp/cc3HINz4.s:5857   .debug_str:0000000000000200 .LASF38
     /tmp/cc3HINz4.s:5897   .debug_str:0000000000000337 .LASF39
     /tmp/cc3HINz4.s:5959   .debug_str:0000000000000532 .LASF40
     /tmp/cc3HINz4.s:5973   .debug_str:000000000000058b .LASF41
     /tmp/cc3HINz4.s:5883   .debug_str:00000000000002f0 .LASF42
     /tmp/cc3HINz4.s:5813   .debug_str:00000000000000cf .LASF43
     /tmp/cc3HINz4.s:6139   .debug_str:0000000000000aae .LASF44
     /tmp/cc3HINz4.s:6133   .debug_str:0000000000000a8b .LASF45
     /tmp/cc3HINz4.s:6307   .debug_str:000000000000104b .LASF46
     /tmp/cc3HINz4.s:6271   .debug_str:0000000000000f0f .LASF47
     /tmp/cc3HINz4.s:6289   .debug_str:0000000000000f99 .LASF48
     /tmp/cc3HINz4.s:6265   .debug_str:0000000000000ee9 .LASF64
     /tmp/cc3HINz4.s:6029   .debug_str:0000000000000705 .LASF66
     /tmp/cc3HINz4.s:5909   .debug_str:00000000000003a0 .LASF50
     /tmp/cc3HINz4.s:5841   .debug_str:0000000000000194 .LASF52
     /tmp/cc3HINz4.s:6105   .debug_str:000000000000098f .LASF54
     /tmp/cc3HINz4.s:5919   .debug_str:0000000000000404 .LASF55
     /tmp/cc3HINz4.s:5937   .debug_str:000000000000047d .LASF57
     /tmp/cc3HINz4.s:5923   .debug_str:0000000000000411 .LASF56
     /tmp/cc3HINz4.s:5971   .debug_str:0000000000000576 .LASF58
     /tmp/cc3HINz4.s:5963   .debug_str:000000000000054d .LASF59
     /tmp/cc3HINz4.s:6025   .debug_str:00000000000006ec .LASF60
     /tmp/cc3HINz4.s:6141   .debug_str:0000000000000ac6 .LASF61
     /tmp/cc3HINz4.s:6109   .debug_str:00000000000009b7 .LASF62
     /tmp/cc3HINz4.s:6089   .debug_str:0000000000000929 .LASF63
     /tmp/cc3HINz4.s:6077   .debug_str:00000000000008c5 .LASF65
     /tmp/cc3HINz4.s:6249   .debug_str:0000000000000e9a .LASF67
     /tmp/cc3HINz4.s:6021   .debug_str:00000000000006d5 .LASF68
     /tmp/cc3HINz4.s:6263   .debug_str:0000000000000ee0 .LASF69
     /tmp/cc3HINz4.s:6163   .debug_str:0000000000000b6f .LASF71
     /tmp/cc3HINz4.s:6101   .debug_str:0000000000000980 .LASF72
     /tmp/cc3HINz4.s:5881   .debug_str:00000000000002e9 .LASF73
     /tmp/cc3HINz4.s:5789   .debug_str:0000000000000026 .LASF74
     /tmp/cc3HINz4.s:5939   .debug_str:0000000000000493 .LASF75
     /tmp/cc3HINz4.s:5995   .debug_str:000000000000062d .LASF76
     /tmp/cc3HINz4.s:5837   .debug_str:0000000000000176 .LASF77
     /tmp/cc3HINz4.s:6193   .debug_str:0000000000000c2a .LASF156
     /tmp/cc3HINz4.s:6181   .debug_str:0000000000000be2 .LASF78
     /tmp/cc3HINz4.s:6281   .debug_str:0000000000000f61 .LASF79
     /tmp/cc3HINz4.s:6073   .debug_str:00000000000008b5 .LASF258
     /tmp/cc3HINz4.s:5853   .debug_str:00000000000001e8 .LASF80
     /tmp/cc3HINz4.s:5949   .debug_str:00000000000004d5 .LASF81
     /tmp/cc3HINz4.s:6119   .debug_str:0000000000000a08 .LASF82
     /tmp/cc3HINz4.s:6017   .debug_str:00000000000006b6 .LASF84
     /tmp/cc3HINz4.s:6027   .debug_str:00000000000006f8 .LASF83
     /tmp/cc3HINz4.s:6115   .debug_str:00000000000009e5 .LASF85
     /tmp/cc3HINz4.s:6107   .debug_str:00000000000009af .LASF86
     /tmp/cc3HINz4.s:6023   .debug_str:00000000000006da .LASF87
     /tmp/cc3HINz4.s:6279   .debug_str:0000000000000f49 .LASF88
     /tmp/cc3HINz4.s:6033   .debug_str:000000000000072f .LASF89
     /tmp/cc3HINz4.s:5863   .debug_str:000000000000022c .LASF90
     /tmp/cc3HINz4.s:5977   .debug_str:0000000000000599 .LASF91
     /tmp/cc3HINz4.s:5933   .debug_str:0000000000000455 .LASF92
GAS LISTING /tmp/cc3HINz4.s 			page 49


     /tmp/cc3HINz4.s:6053   .debug_str:00000000000007ee .LASF93
     /tmp/cc3HINz4.s:5893   .debug_str:0000000000000326 .LASF94
     /tmp/cc3HINz4.s:6167   .debug_str:0000000000000b8a .LASF95
     /tmp/cc3HINz4.s:5793   .debug_str:0000000000000037 .LASF96
     /tmp/cc3HINz4.s:6199   .debug_str:0000000000000c44 .LASF97
     /tmp/cc3HINz4.s:6243   .debug_str:0000000000000e5c .LASF98
     /tmp/cc3HINz4.s:6071   .debug_str:0000000000000896 .LASF99
     /tmp/cc3HINz4.s:6241   .debug_str:0000000000000e51 .LASF100
     /tmp/cc3HINz4.s:5917   .debug_str:00000000000003ec .LASF101
     /tmp/cc3HINz4.s:6311   .debug_str:0000000000001070 .LASF102
     /tmp/cc3HINz4.s:6155   .debug_str:0000000000000b20 .LASF103
     /tmp/cc3HINz4.s:5889   .debug_str:0000000000000318 .LASF104
     /tmp/cc3HINz4.s:5861   .debug_str:0000000000000219 .LASF105
     /tmp/cc3HINz4.s:6255   .debug_str:0000000000000ec7 .LASF106
     /tmp/cc3HINz4.s:5819   .debug_str:00000000000000f6 .LASF107
     /tmp/cc3HINz4.s:5941   .debug_str:000000000000049b .LASF108
     /tmp/cc3HINz4.s:6125   .debug_str:0000000000000a38 .LASF109
     /tmp/cc3HINz4.s:6309   .debug_str:0000000000001063 .LASF110
     /tmp/cc3HINz4.s:5943   .debug_str:00000000000004a6 .LASF111
     /tmp/cc3HINz4.s:5797   .debug_str:0000000000000049 .LASF112
     /tmp/cc3HINz4.s:6065   .debug_str:0000000000000860 .LASF113
     /tmp/cc3HINz4.s:6293   .debug_str:0000000000000fc1 .LASF223
     /tmp/cc3HINz4.s:6233   .debug_str:0000000000000e07 .LASF114
     /tmp/cc3HINz4.s:5845   .debug_str:00000000000001b5 .LASF115
     /tmp/cc3HINz4.s:6303   .debug_str:0000000000001024 .LASF116
     /tmp/cc3HINz4.s:6189   .debug_str:0000000000000c1a .LASF117
     /tmp/cc3HINz4.s:6217   .debug_str:0000000000000d80 .LASF118
     /tmp/cc3HINz4.s:6207   .debug_str:0000000000000c86 .LASF119
     /tmp/cc3HINz4.s:6079   .debug_str:00000000000008cd .LASF120
     /tmp/cc3HINz4.s:5911   .debug_str:00000000000003a8 .LASF121
     /tmp/cc3HINz4.s:6147   .debug_str:0000000000000af1 .LASF122
     /tmp/cc3HINz4.s:6259   .debug_str:0000000000000ed4 .LASF123
     /tmp/cc3HINz4.s:6043   .debug_str:00000000000007b7 .LASF124
     /tmp/cc3HINz4.s:6315   .debug_str:0000000000001096 .LASF125
     /tmp/cc3HINz4.s:6205   .debug_str:0000000000000c7e .LASF126
     /tmp/cc3HINz4.s:6113   .debug_str:00000000000009d4 .LASF127
     /tmp/cc3HINz4.s:5875   .debug_str:00000000000002a5 .LASF153
     /tmp/cc3HINz4.s:5803   .debug_str:000000000000007d .LASF162
     /tmp/cc3HINz4.s:6015   .debug_str:00000000000006b0 .LASF128
     /tmp/cc3HINz4.s:6171   .debug_str:0000000000000bb6 .LASF129
     /tmp/cc3HINz4.s:5997   .debug_str:0000000000000636 .LASF130
     /tmp/cc3HINz4.s:6063   .debug_str:000000000000084d .LASF131
     /tmp/cc3HINz4.s:5891   .debug_str:0000000000000321 .LASF132
     /tmp/cc3HINz4.s:5843   .debug_str:00000000000001a5 .LASF133
     /tmp/cc3HINz4.s:6187   .debug_str:0000000000000c13 .LASF134
     /tmp/cc3HINz4.s:5831   .debug_str:0000000000000146 .LASF135
     /tmp/cc3HINz4.s:5885   .debug_str:0000000000000302 .LASF136
     /tmp/cc3HINz4.s:5935   .debug_str:0000000000000467 .LASF137
     /tmp/cc3HINz4.s:5899   .debug_str:000000000000033d .LASF138
     /tmp/cc3HINz4.s:5805   .debug_str:00000000000000a5 .LASF139
     /tmp/cc3HINz4.s:6075   .debug_str:00000000000008ba .LASF140
     /tmp/cc3HINz4.s:6227   .debug_str:0000000000000dcb .LASF141
     /tmp/cc3HINz4.s:6221   .debug_str:0000000000000d9a .LASF142
     /tmp/cc3HINz4.s:5823   .debug_str:0000000000000115 .LASF143
     /tmp/cc3HINz4.s:5965   .debug_str:0000000000000559 .LASF144
     /tmp/cc3HINz4.s:6201   .debug_str:0000000000000c5c .LASF145
     /tmp/cc3HINz4.s:5799   .debug_str:0000000000000059 .LASF146
GAS LISTING /tmp/cc3HINz4.s 			page 50


     /tmp/cc3HINz4.s:5815   .debug_str:00000000000000da .LASF147
     /tmp/cc3HINz4.s:6275   .debug_str:0000000000000f34 .LASF148
     /tmp/cc3HINz4.s:6239   .debug_str:0000000000000e41 .LASF149
     /tmp/cc3HINz4.s:6137   .debug_str:0000000000000aa4 .LASF150
     /tmp/cc3HINz4.s:5993   .debug_str:000000000000061d .LASF151
     /tmp/cc3HINz4.s:6097   .debug_str:000000000000096e .LASF152
     /tmp/cc3HINz4.s:5895   .debug_str:0000000000000331 .LASF154
     /tmp/cc3HINz4.s:6229   .debug_str:0000000000000de2 .LASF259
     /tmp/cc3HINz4.s:6059   .debug_str:000000000000082c .LASF155
     /tmp/cc3HINz4.s:6261   .debug_str:0000000000000edb .LASF157
     /tmp/cc3HINz4.s:5925   .debug_str:0000000000000417 .LASF158
     /tmp/cc3HINz4.s:5851   .debug_str:00000000000001e3 .LASF159
     /tmp/cc3HINz4.s:5903   .debug_str:0000000000000360 .LASF160
     /tmp/cc3HINz4.s:5877   .debug_str:00000000000002b3 .LASF161
     /tmp/cc3HINz4.s:5869   .debug_str:0000000000000260 .LASF163
     /tmp/cc3HINz4.s:5827   .debug_str:0000000000000135 .LASF164
     /tmp/cc3HINz4.s:6039   .debug_str:0000000000000793 .LASF165
     /tmp/cc3HINz4.s:5833   .debug_str:0000000000000158 .LASF166
     /tmp/cc3HINz4.s:6185   .debug_str:0000000000000bfb .LASF167
     /tmp/cc3HINz4.s:6231   .debug_str:0000000000000def .LASF260
     /tmp/cc3HINz4.s:5983   .debug_str:00000000000005d8 .LASF168
     /tmp/cc3HINz4.s:5873   .debug_str:0000000000000290 .LASF169
     /tmp/cc3HINz4.s:5975   .debug_str:0000000000000591 .LASF170
     /tmp/cc3HINz4.s:5907   .debug_str:0000000000000384 .LASF171
     /tmp/cc3HINz4.s:6003   .debug_str:000000000000065c .LASF172
     /tmp/cc3HINz4.s:6041   .debug_str:0000000000000798 .LASF173
     /tmp/cc3HINz4.s:5835   .debug_str:000000000000016d .LASF174
     /tmp/cc3HINz4.s:6035   .debug_str:0000000000000752 .LASF175
     /tmp/cc3HINz4.s:5795   .debug_str:0000000000000042 .LASF176
     /tmp/cc3HINz4.s:6009   .debug_str:0000000000000675 .LASF177
     /tmp/cc3HINz4.s:5871   .debug_str:000000000000027b .LASF178
     /tmp/cc3HINz4.s:6267   .debug_str:0000000000000ef3 .LASF179
     /tmp/cc3HINz4.s:6051   .debug_str:00000000000007e5 .LASF180
     /tmp/cc3HINz4.s:5887   .debug_str:000000000000030b .LASF181
     /tmp/cc3HINz4.s:6237   .debug_str:0000000000000e24 .LASF182
     /tmp/cc3HINz4.s:6159   .debug_str:0000000000000b59 .LASF183
     /tmp/cc3HINz4.s:6061   .debug_str:0000000000000838 .LASF184
     /tmp/cc3HINz4.s:6087   .debug_str:0000000000000923 .LASF185
     /tmp/cc3HINz4.s:6045   .debug_str:00000000000007c3 .LASF186
     /tmp/cc3HINz4.s:5979   .debug_str:00000000000005b8 .LASF187
     /tmp/cc3HINz4.s:6081   .debug_str:00000000000008d9 .LASF188
     /tmp/cc3HINz4.s:5953   .debug_str:0000000000000505 .LASF189
     /tmp/cc3HINz4.s:6129   .debug_str:0000000000000a65 .LASF190
     /tmp/cc3HINz4.s:5859   .debug_str:0000000000000213 .LASF191
     /tmp/cc3HINz4.s:5839   .debug_str:000000000000017f .LASF192
     /tmp/cc3HINz4.s:5807   .debug_str:00000000000000b3 .LASF193
     /tmp/cc3HINz4.s:6273   .debug_str:0000000000000f19 .LASF194
     /tmp/cc3HINz4.s:5787   .debug_str:000000000000001b .LASF195
     /tmp/cc3HINz4.s:5929   .debug_str:000000000000042a .LASF196
     /tmp/cc3HINz4.s:6191   .debug_str:0000000000000c1f .LASF197
     /tmp/cc3HINz4.s:5785   .debug_str:0000000000000000 .LASF198
     /tmp/cc3HINz4.s:6013   .debug_str:0000000000000698 .LASF199
     /tmp/cc3HINz4.s:5913   .debug_str:00000000000003b5 .LASF200
     /tmp/cc3HINz4.s:6145   .debug_str:0000000000000ae3 .LASF201
     /tmp/cc3HINz4.s:6093   .debug_str:0000000000000949 .LASF202
     /tmp/cc3HINz4.s:5855   .debug_str:00000000000001f2 .LASF203
     /tmp/cc3HINz4.s:6297   .debug_str:0000000000000fe5 .LASF204
GAS LISTING /tmp/cc3HINz4.s 			page 51


     /tmp/cc3HINz4.s:6203   .debug_str:0000000000000c6d .LASF205
     /tmp/cc3HINz4.s:6175   .debug_str:0000000000000bc2 .LASF206
     /tmp/cc3HINz4.s:5945   .debug_str:00000000000004b2 .LASF207
     /tmp/cc3HINz4.s:6195   .debug_str:0000000000000c32 .LASF208
     /tmp/cc3HINz4.s:5927   .debug_str:000000000000041c .LASF209
     /tmp/cc3HINz4.s:5791   .debug_str:000000000000002e .LASF261
     /tmp/cc3HINz4.s:6251   .debug_str:0000000000000eb0 .LASF210
     /tmp/cc3HINz4.s:6213   .debug_str:0000000000000d5f .LASF211
     /tmp/cc3HINz4.s:5969   .debug_str:000000000000056c .LASF212
     /tmp/cc3HINz4.s:6099   .debug_str:0000000000000976 .LASF213
     /tmp/cc3HINz4.s:6001   .debug_str:0000000000000651 .LASF214
     /tmp/cc3HINz4.s:6253   .debug_str:0000000000000ebc .LASF215
     /tmp/cc3HINz4.s:6161   .debug_str:0000000000000b5f .LASF216
     /tmp/cc3HINz4.s:6197   .debug_str:0000000000000c3f .LASF217
     /tmp/cc3HINz4.s:5985   .debug_str:00000000000005e5 .LASF218
     /tmp/cc3HINz4.s:6177   .debug_str:0000000000000bd6 .LASF219
     /tmp/cc3HINz4.s:6049   .debug_str:00000000000007e0 .LASF220
     /tmp/cc3HINz4.s:6301   .debug_str:0000000000001017 .LASF221
     /tmp/cc3HINz4.s:6291   .debug_str:0000000000000faf .LASF222
     /tmp/cc3HINz4.s:5957   .debug_str:000000000000051a .LASF224
     /tmp/cc3HINz4.s:6299   .debug_str:0000000000001003 .LASF262
     /tmp/cc3HINz4.s:5829   .debug_str:000000000000013b .LASF225
     /tmp/cc3HINz4.s:6305   .debug_str:000000000000102a .LASF226
     /tmp/cc3HINz4.s:6011   .debug_str:0000000000000693 .LASF227
     /tmp/cc3HINz4.s:5865   .debug_str:000000000000023b .LASF228
     /tmp/cc3HINz4.s:5955   .debug_str:0000000000000512 .LASF229
     /tmp/cc3HINz4.s:6055   .debug_str:000000000000080d .LASF230
     /tmp/cc3HINz4.s:6005   .debug_str:0000000000000664 .LASF231
     /tmp/cc3HINz4.s:5801   .debug_str:0000000000000061 .LASF232
     /tmp/cc3HINz4.s:5825   .debug_str:000000000000012d .LASF233
     /tmp/cc3HINz4.s:6313   .debug_str:000000000000107e .LASF234
     /tmp/cc3HINz4.s:5989   .debug_str:0000000000000602 .LASF235
     /tmp/cc3HINz4.s:5879   .debug_str:00000000000002cd .LASF236
     /tmp/cc3HINz4.s:6219   .debug_str:0000000000000d8a .LASF237
     /tmp/cc3HINz4.s:6123   .debug_str:0000000000000a17 .LASF238
     /tmp/cc3HINz4.s:6225   .debug_str:0000000000000dbb .LASF239
     /tmp/cc3HINz4.s:6037   .debug_str:000000000000076e .LASF240
     /tmp/cc3HINz4.s:6091   .debug_str:0000000000000938 .LASF241
     /tmp/cc3HINz4.s:102    .text:0000000000000000 .LFB66
     /tmp/cc3HINz4.s:1149   .text:0000000000000604 .LFE66
     /tmp/cc3HINz4.s:6173   .debug_str:0000000000000bbb .LASF242
     /tmp/cc3HINz4.s:5240   .debug_loc:0000000000000000 .LLST5
     /tmp/cc3HINz4.s:6211   .debug_str:0000000000000d5a .LASF243
     /tmp/cc3HINz4.s:5271   .debug_loc:0000000000000087 .LLST6
     /tmp/cc3HINz4.s:6277   .debug_str:0000000000000f41 .LASF244
     /tmp/cc3HINz4.s:5302   .debug_loc:000000000000010e .LLST7
     /tmp/cc3HINz4.s:5324   .debug_loc:000000000000016d .LLST8
     /tmp/cc3HINz4.s:5346   .debug_loc:00000000000001cc .LLST9
     /tmp/cc3HINz4.s:5368   .debug_loc:000000000000022d .LLST10
     /tmp/cc3HINz4.s:5390   .debug_loc:000000000000028e .LLST11
     /tmp/cc3HINz4.s:5412   .debug_loc:00000000000002ef .LLST12
     /tmp/cc3HINz4.s:781    .text:000000000000037c .LBB30
     /tmp/cc3HINz4.s:819    .text:00000000000003d4 .LBE30
     /tmp/cc3HINz4.s:5605   .debug_loc:0000000000000648 .LLST13
     /tmp/cc3HINz4.s:785    .text:0000000000000384 .LVL68
     /tmp/cc3HINz4.s:794    .text:0000000000000394 .LVL70
     /tmp/cc3HINz4.s:810    .text:00000000000003bc .LVL71
GAS LISTING /tmp/cc3HINz4.s 			page 52


     /tmp/cc3HINz4.s:814    .text:00000000000003c4 .LVL72
     /tmp/cc3HINz4.s:818    .text:00000000000003d4 .LVL73
     /tmp/cc3HINz4.s:962    .text:00000000000004c0 .LBB33
     /tmp/cc3HINz4.s:1025   .text:0000000000000540 .LBE33
     /tmp/cc3HINz4.s:5613   .debug_loc:000000000000066d .LLST14
     /tmp/cc3HINz4.s:966    .text:00000000000004c8 .LVL85
     /tmp/cc3HINz4.s:978    .text:00000000000004e4 .LVL87
     /tmp/cc3HINz4.s:990    .text:0000000000000500 .LVL88
     /tmp/cc3HINz4.s:995    .text:0000000000000510 .LVL89
     /tmp/cc3HINz4.s:1003   .text:0000000000000524 .LVL90
     /tmp/cc3HINz4.s:1024   .text:0000000000000540 .LVL91
     /tmp/cc3HINz4.s:364    .text:00000000000000b0 .LVL22
     /tmp/cc3HINz4.s:382    .text:00000000000000c8 .LVL24
     /tmp/cc3HINz4.s:407    .text:00000000000000f4 .LVL26
     /tmp/cc3HINz4.s:429    .text:000000000000012c .LVL27
     /tmp/cc3HINz4.s:463    .text:0000000000000148 .LVL29
     /tmp/cc3HINz4.s:468    .text:000000000000015c .LVL30
     /tmp/cc3HINz4.s:472    .text:0000000000000164 .LVL31
     /tmp/cc3HINz4.s:476    .text:0000000000000174 .LVL32
     /tmp/cc3HINz4.s:492    .text:0000000000000184 .LVL33
     /tmp/cc3HINz4.s:501    .text:0000000000000190 .LVL35
     /tmp/cc3HINz4.s:512    .text:00000000000001a4 .LVL37
     /tmp/cc3HINz4.s:516    .text:00000000000001ac .LVL38
     /tmp/cc3HINz4.s:525    .text:00000000000001b8 .LVL40
     /tmp/cc3HINz4.s:537    .text:00000000000001d8 .LVL41
     /tmp/cc3HINz4.s:542    .text:00000000000001ec .LVL42
     /tmp/cc3HINz4.s:546    .text:00000000000001f4 .LVL43
     /tmp/cc3HINz4.s:550    .text:0000000000000204 .LVL44
     /tmp/cc3HINz4.s:554    .text:000000000000020c .LVL45
     /tmp/cc3HINz4.s:563    .text:0000000000000220 .LVL46
     /tmp/cc3HINz4.s:569    .text:0000000000000230 .LVL47
     /tmp/cc3HINz4.s:584    .text:000000000000024c .LVL49
     /tmp/cc3HINz4.s:628    .text:0000000000000284 .LVL51
     /tmp/cc3HINz4.s:644    .text:000000000000029c .LVL52
     /tmp/cc3HINz4.s:647    .text:00000000000002a8 .LVL53
     /tmp/cc3HINz4.s:658    .text:00000000000002bc .LVL55
     /tmp/cc3HINz4.s:676    .text:00000000000002d4 .LVL57
     /tmp/cc3HINz4.s:722    .text:0000000000000304 .LVL59
     /tmp/cc3HINz4.s:727    .text:0000000000000318 .LVL60
     /tmp/cc3HINz4.s:731    .text:0000000000000320 .LVL61
     /tmp/cc3HINz4.s:740    .text:000000000000032c .LVL63
     /tmp/cc3HINz4.s:759    .text:0000000000000348 .LVL65
     /tmp/cc3HINz4.s:768    .text:0000000000000354 .LVL66
     /tmp/cc3HINz4.s:773    .text:0000000000000364 .LVL67
     /tmp/cc3HINz4.s:837    .text:00000000000003fc .LVL75
     /tmp/cc3HINz4.s:881    .text:0000000000000434 .LVL77
     /tmp/cc3HINz4.s:895    .text:0000000000000460 .LVL78
     /tmp/cc3HINz4.s:1045   .text:0000000000000560 .LVL93
     /tmp/cc3HINz4.s:1049   .text:0000000000000568 .LVL94
     /tmp/cc3HINz4.s:1060   .text:0000000000000584 .LVL95
     /tmp/cc3HINz4.s:1064   .text:000000000000058c .LVL96
     /tmp/cc3HINz4.s:1070   .text:000000000000059c .LVL97
     /tmp/cc3HINz4.s:1074   .text:00000000000005ac .LVL98
     /tmp/cc3HINz4.s:1085   .text:00000000000005c8 .LVL99
     /tmp/cc3HINz4.s:5921   .debug_str:000000000000040c .LASF245
     /tmp/cc3HINz4.s:5809   .debug_str:00000000000000be .LASF246
     /tmp/cc3HINz4.s:5821   .debug_str:0000000000000108 .LASF263
GAS LISTING /tmp/cc3HINz4.s 			page 53


     /tmp/cc3HINz4.s:11     .text._ZN4KSemD2Ev:0000000000000000 .LFB68
     /tmp/cc3HINz4.s:85     .text._ZN4KSemD2Ev:000000000000004c .LFE68
     /tmp/cc3HINz4.s:5625   .debug_loc:00000000000006a5 .LLST0
     /tmp/cc3HINz4.s:31     .text._ZN4KSemD2Ev:0000000000000018 .LBB19
     /tmp/cc3HINz4.s:71     .text._ZN4KSemD2Ev:0000000000000038 .LBE19
     /tmp/cc3HINz4.s:5643   .debug_loc:00000000000006f1 .LLST1
     /tmp/cc3HINz4.s:36     .text._ZN4KSemD2Ev:0000000000000018 .LBB21
     /tmp/cc3HINz4.s:43     .text._ZN4KSemD2Ev:000000000000001c .LBE21
     /tmp/cc3HINz4.s:5661   .debug_loc:000000000000072e .LLST2
     /tmp/cc3HINz4.s:46     .text._ZN4KSemD2Ev:0000000000000020 .LBB23
     /tmp/cc3HINz4.s:69     .text._ZN4KSemD2Ev:0000000000000038 .LBE23
     /tmp/cc3HINz4.s:5670   .debug_loc:0000000000000753 .LLST3
     /tmp/cc3HINz4.s:58     .text._ZN4KSemD2Ev:000000000000002c .LBB24
     /tmp/cc3HINz4.s:68     .text._ZN4KSemD2Ev:0000000000000038 .LBE24
     /tmp/cc3HINz4.s:5677   .debug_loc:0000000000000776 .LLST4
     /tmp/cc3HINz4.s:63     .text._ZN4KSemD2Ev:0000000000000034 .LVL5
     /tmp/cc3HINz4.s:1471   .text._ZN3TCB19getRunningTimeSliceEv:0000000000000000 .LFB53
     /tmp/cc3HINz4.s:1490   .text._ZN3TCB19getRunningTimeSliceEv:0000000000000020 .LFE53
     /tmp/cc3HINz4.s:1444   .text._ZN3TCB10getRunningEv:0000000000000000 .LFB51
     /tmp/cc3HINz4.s:1464   .text._ZN3TCB10getRunningEv:0000000000000024 .LFE51
     /tmp/cc3HINz4.s:1416   .text._ZN3TCB7getBodyEv:0000000000000000 .LFB47
     /tmp/cc3HINz4.s:1437   .text._ZN3TCB7getBodyEv:000000000000001c .LFE47
     /tmp/cc3HINz4.s:5684   .debug_loc:0000000000000799 .LLST16
     /tmp/cc3HINz4.s:1388   .text._ZN3TCB12getTimeSliceEv:0000000000000000 .LFB46
     /tmp/cc3HINz4.s:1409   .text._ZN3TCB12getTimeSliceEv:000000000000001c .LFE46
     /tmp/cc3HINz4.s:5698   .debug_loc:00000000000007d2 .LLST15
     /tmp/cc3HINz4.s:1359   .text._ZN3TCB9setStatusENS_12ThreadStatusE:0000000000000000 .LFB44
     /tmp/cc3HINz4.s:1381   .text._ZN3TCB9setStatusENS_12ThreadStatusE:000000000000001c .LFE44
     /tmp/cc3HINz4.s:6285   .debug_str:0000000000000f8b .LASF247
     /tmp/cc3HINz4.s:1332   .text._ZN8KConsole13getOutputTailEv:0000000000000000 .LFB40
     /tmp/cc3HINz4.s:1352   .text._ZN8KConsole13getOutputTailEv:0000000000000024 .LFE40
     /tmp/cc3HINz4.s:1305   .text._ZN8KConsole13getOutputHeadEv:0000000000000000 .LFB39
     /tmp/cc3HINz4.s:1325   .text._ZN8KConsole13getOutputHeadEv:0000000000000024 .LFE39
     /tmp/cc3HINz4.s:1278   .text._ZN8KConsole23getOutputBufferHasSpaceEv:0000000000000000 .LFB38
     /tmp/cc3HINz4.s:1298   .text._ZN8KConsole23getOutputBufferHasSpaceEv:0000000000000024 .LFE38
     /tmp/cc3HINz4.s:1248   .text._ZN8KConsole10setDRvalueEc:0000000000000000 .LFB37
     /tmp/cc3HINz4.s:1271   .text._ZN8KConsole10setDRvalueEc:0000000000000028 .LFE37
     /tmp/cc3HINz4.s:1219   .text._ZN8KConsole10getDRvalueEv:0000000000000000 .LFB36
     /tmp/cc3HINz4.s:1241   .text._ZN8KConsole10getDRvalueEv:0000000000000028 .LFE36
     /tmp/cc3HINz4.s:1189   .text._ZN8KConsole10getSRvalueEv:0000000000000000 .LFB35
     /tmp/cc3HINz4.s:1212   .text._ZN8KConsole10getSRvalueEv:0000000000000028 .LFE35
     /tmp/cc3HINz4.s:6143   .debug_str:0000000000000ade .LASF264
     /tmp/cc3HINz4.s:6223   .debug_str:0000000000000da6 .LASF265
     /tmp/cc3HINz4.s:1156   .text._ZN5Riscv6mc_sipEm:0000000000000000 .LFB7
     /tmp/cc3HINz4.s:1182   .text._ZN5Riscv6mc_sipEm:000000000000001c .LFE7
     /tmp/cc3HINz4.s:6257   .debug_str:0000000000000ecf .LASF248
     /tmp/cc3HINz4.s:6127   .debug_str:0000000000000a50 .LASF249
     /tmp/cc3HINz4.s:5951   .debug_str:00000000000004fa .LASF251
     /tmp/cc3HINz4.s:6019   .debug_str:00000000000006ca .LASF250
     /tmp/cc3HINz4.s:6165   .debug_str:0000000000000b7c .LASF252
     /tmp/cc3HINz4.s:6295   .debug_str:0000000000000fd7 .LASF253
     /tmp/cc3HINz4.s:5961   .debug_str:0000000000000544 .LASF254
     /tmp/cc3HINz4.s:125    .text:000000000000001c .LVL7
     /tmp/cc3HINz4.s:132    .text:0000000000000020 .LVL8
     /tmp/cc3HINz4.s:950    .text:00000000000004ac .LVL83
     /tmp/cc3HINz4.s:957    .text:00000000000004b0 .LVL84
     /tmp/cc3HINz4.s:1141   .text:00000000000005f8 .LVL102
GAS LISTING /tmp/cc3HINz4.s 			page 54


     /tmp/cc3HINz4.s:1146   .text:0000000000000600 .LVL103
     /tmp/cc3HINz4.s:135    .text:0000000000000024 .LVL9
     /tmp/cc3HINz4.s:142    .text:0000000000000028 .LVL10
     /tmp/cc3HINz4.s:927    .text:0000000000000494 .LVL81
     /tmp/cc3HINz4.s:939    .text:00000000000004a0 .LVL82
     /tmp/cc3HINz4.s:145    .text:000000000000002c .LVL11
     /tmp/cc3HINz4.s:153    .text:0000000000000030 .LVL12
     /tmp/cc3HINz4.s:156    .text:0000000000000034 .LVL13
     /tmp/cc3HINz4.s:163    .text:0000000000000038 .LVL14
     /tmp/cc3HINz4.s:166    .text:000000000000003c .LVL15
     /tmp/cc3HINz4.s:173    .text:0000000000000040 .LVL16
     /tmp/cc3HINz4.s:176    .text:0000000000000044 .LVL17
     /tmp/cc3HINz4.s:183    .text:0000000000000048 .LVL18
     /tmp/cc3HINz4.s:186    .text:000000000000004c .LVL19
     /tmp/cc3HINz4.s:193    .text:0000000000000050 .LVL20
     /tmp/cc3HINz4.s:196    .text:0000000000000054 .LVL21
     /tmp/cc3HINz4.s:374    .text:00000000000000b8 .LVL23
     /tmp/cc3HINz4.s:392    .text:00000000000000d0 .LVL25
     /tmp/cc3HINz4.s:457    .text:0000000000000140 .LVL28
     /tmp/cc3HINz4.s:495    .text:0000000000000188 .LVL34
     /tmp/cc3HINz4.s:504    .text:0000000000000194 .LVL36
     /tmp/cc3HINz4.s:519    .text:00000000000001b0 .LVL39
     /tmp/cc3HINz4.s:572    .text:0000000000000234 .LVL48
     /tmp/cc3HINz4.s:620    .text:0000000000000274 .LVL50
     /tmp/cc3HINz4.s:650    .text:00000000000002ac .LVL54
     /tmp/cc3HINz4.s:668    .text:00000000000002c4 .LVL56
     /tmp/cc3HINz4.s:686    .text:00000000000002dc .LVL58
     /tmp/cc3HINz4.s:734    .text:0000000000000324 .LVL62
     /tmp/cc3HINz4.s:750    .text:0000000000000334 .LVL64
     /tmp/cc3HINz4.s:822    .text:00000000000003d8 .LVL74
     /tmp/cc3HINz4.s:873    .text:0000000000000424 .LVL76
     /tmp/cc3HINz4.s:898    .text:0000000000000464 .LVL79
     /tmp/cc3HINz4.s:903    .text:000000000000046c .LVL80
     /tmp/cc3HINz4.s:1031   .text:0000000000000544 .LVL92
     /tmp/cc3HINz4.s:1108   .text:00000000000005dc .LVL100
     /tmp/cc3HINz4.s:1128   .text:00000000000005ec .LVL101
     /tmp/cc3HINz4.s:788    .text:000000000000038c .LVL69
     /tmp/cc3HINz4.s:970    .text:00000000000004d0 .LVL86
     /tmp/cc3HINz4.s:17     .text._ZN4KSemD2Ev:0000000000000000 .LVL0
     /tmp/cc3HINz4.s:29     .text._ZN4KSemD2Ev:0000000000000018 .LVL1
     /tmp/cc3HINz4.s:80     .text._ZN4KSemD2Ev:0000000000000044 .LVL6
     /tmp/cc3HINz4.s:41     .text._ZN4KSemD2Ev:000000000000001c .LVL2
     /tmp/cc3HINz4.s:48     .text._ZN4KSemD2Ev:0000000000000020 .LVL3
     /tmp/cc3HINz4.s:57     .text._ZN4KSemD2Ev:000000000000002c .LVL4
     /tmp/cc3HINz4.s:1419   .text._ZN3TCB7getBodyEv:0000000000000000 .LVL109
     /tmp/cc3HINz4.s:1429   .text._ZN3TCB7getBodyEv:0000000000000010 .LVL110
     /tmp/cc3HINz4.s:1391   .text._ZN3TCB12getTimeSliceEv:0000000000000000 .LVL107
     /tmp/cc3HINz4.s:1401   .text._ZN3TCB12getTimeSliceEv:0000000000000010 .LVL108
     /tmp/cc3HINz4.s:1499   .debug_info:0000000000000000 .Ldebug_info0
     /tmp/cc3HINz4.s:5      .text:0000000000000000 .Ltext0
     /tmp/cc3HINz4.s:1493   .text:0000000000000604 .Letext0
     /tmp/cc3HINz4.s:88     .gcc_except_table._ZN4KSemD2Ev:0000000000000000 .LLSDA68
                           .group:0000000000000000 _ZN4KSemD5Ev

UNDEFINED SYMBOLS
_Z8mem_freePv
__gxx_personality_v0
GAS LISTING /tmp/cc3HINz4.s 			page 55


_ZN7KMemory7kmallocEm
_ZN7KMemory5kfreeEPv
_ZN3TCB12createThreadEPFvPvES0_Pm
main
_ZN9Scheduler3putEP3TCB
_ZN3TCB13releaseJoinedEPS_
_ZN3TCB8dispatchEv
_ZN3TCB10threadJoinEPS_
_ZN3TCB10quitThreadEPS_
_ZN4KSem7initSemEj
_ZN4KSem8closeSemEPS_
_ZN4KSemdlEPv
_ZN4KSem4waitEv
_ZN4KSem6signalEv
_ZN9Scheduler10putToSleepEP3TCBm
_ZN8KConsole5kgetcEv
_ZN8KConsole5kputcEc
_ZN8KConsole13getFromOutputEv
_Z10sem_signalP4KSem
plic_claim
_ZN8KConsole12placeInInputEc
plic_complete
_ZN9Scheduler4wakeEv
_ZN8KConsole2srE
_ZN8KConsole2drE
_ZN8KConsole20outputBufferHasSpaceE
_ZN8KConsole10outputHeadE
_ZN8KConsole10outputTailE
_ZN3TCB7runningE
_ZN3TCB16runningTimeSliceE
