GAS LISTING /tmp/ccNoxOHy.s 			page 1


   1              		.file	"interruptRoutine.cpp"
   2              		.option pic
   3              		.option norelax
   4              		.text
   5              	.Ltext0:
   6              		.section	.rodata
   7              		.align	3
   8              	.LC0:
   9 0000 0A4E6570 		.string	"\nNepostojeci op code: "
   9      6F73746F 
   9      6A656369 
   9      206F7020 
   9      636F6465 
  10 0017 00       		.align	3
  11              	.LC1:
  12 0018 0A736361 		.string	"\nscause: "
  12      7573653A 
  12      2000
  13 0022 00000000 		.align	3
  13      0000
  14              	.LC2:
  15 0028 0A736570 		.string	"\nsepc: "
  15      633A2000 
  16              		.align	3
  17              	.LC3:
  18 0030 0A477265 		.string	"\nGreska u prekidnoj rutini"
  18      736B6120 
  18      75207072 
  18      656B6964 
  18      6E6F6A20 
  19 004b 00000000 		.align	3
  19      00
  20              	.LC4:
  21 0050 73636175 		.string	"scause: "
  21      73653A20 
  21      00
  22              		.text
  23              		.align	2
  24              		.globl	interruptRoutine
  26              	interruptRoutine:
  27              	.LFB27:
  28              		.file 1 "src/interruptRoutine.cpp"
   1:src/interruptRoutine.cpp **** //
   2:src/interruptRoutine.cpp **** // Created by os on 5/22/23.
   3:src/interruptRoutine.cpp **** //
   4:src/interruptRoutine.cpp **** 
   5:src/interruptRoutine.cpp **** #include "../lib/console.h"
   6:src/interruptRoutine.cpp **** #include "../lib/hw.h"
   7:src/interruptRoutine.cpp **** #include "../h/MemoryAllocator.hpp"
   8:src/interruptRoutine.cpp **** #include "../h/helper.hpp"
   9:src/interruptRoutine.cpp **** #include "../h/Riscv.hpp"
  10:src/interruptRoutine.cpp **** #include "../h/syscall_c.hpp"
  11:src/interruptRoutine.cpp **** #include "../h/TCB.hpp"
  12:src/interruptRoutine.cpp **** 
  13:src/interruptRoutine.cpp **** #pragma GCC optimize("O0")
  14:src/interruptRoutine.cpp **** 
  15:src/interruptRoutine.cpp **** extern "C" void interruptRoutine() {
GAS LISTING /tmp/ccNoxOHy.s 			page 2


  29              		.loc 1 15 36
  30              		.cfi_startproc
  31 0000 130101F6 		addi	sp,sp,-160
  32              		.cfi_def_cfa_offset 160
  33 0004 233C1108 		sd	ra,152(sp)
  34 0008 23388108 		sd	s0,144(sp)
  35              		.cfi_offset 1, -8
  36              		.cfi_offset 8, -16
  37 000c 1304010A 		addi	s0,sp,160
  38              		.cfi_def_cfa 8, 0
  16:src/interruptRoutine.cpp **** 	//uint64 scause = Riscv::r_scause();
  17:src/interruptRoutine.cpp **** 	//uint64 sepc = Riscv::r_sepc();
  18:src/interruptRoutine.cpp **** 	uint64 scause, sepc;
  39              		.loc 1 18 2
  19:src/interruptRoutine.cpp **** 	__asm__ volatile("csrr %[scause], scause":[scause] "=r"(scause): : "a5", "a0", "a1", "a2", "a3", "
  40              		.loc 1 19 2
  41              		.loc 1 19 116 is_stmt 0
  42              	#APP
  43              	# 19 "src/interruptRoutine.cpp" 1
  20              		__asm__ volatile("csrr %[sepc], sepc":[sepc] "=r"(sepc): : "a5", "a0", "a1", "a2", "a3", "a4", "a6
  44              		csrr t1, scause
  45              	# 0 "" 2
  46              	#NO_APP
  47 0014 233464FE 		sd	t1,-24(s0)
  48              	.LVL0:
  49              		.loc 1 20 2 is_stmt 1
  50              		.loc 1 20 108 is_stmt 0
  51              	#APP
  52              	# 20 "src/interruptRoutine.cpp" 1
  21              		uint64 a0, a1, a2, a3, a4, a5, a6, a7;
  53              		csrr t1, sepc
  54              	# 0 "" 2
  55              	.LVL1:
  56              	#NO_APP
  57 001c 233064FE 		sd	t1,-32(s0)
  58              	.LVL2:
  59              		.loc 1 21 2 is_stmt 1
  22:src/interruptRoutine.cpp **** 	__asm__ volatile("mv %[ax], a0":[ax] "=r"(a0): : "a5", "a0", "a1", "a2", "a3", "a4", "a6", "a7");
  60              		.loc 1 22 2
  61              		.loc 1 22 98 is_stmt 0
  62              	#APP
  63              	# 22 "src/interruptRoutine.cpp" 1
  23              		__asm__ volatile("mv %[ax], a1":[ax] "=r"(a1): : "a5", "a0", "a1", "a2", "a3", "a4", "a6", "a7");
  64              		mv t1, a0
  65              	# 0 "" 2
  66              	.LVL3:
  67              	#NO_APP
  68 0024 233C64FC 		sd	t1,-40(s0)
  69              	.LVL4:
  70              		.loc 1 23 2 is_stmt 1
  71              		.loc 1 23 98 is_stmt 0
  72              	#APP
  73              	# 23 "src/interruptRoutine.cpp" 1
  24              		__asm__ volatile("mv %[ax], a2":[ax] "=r"(a2): : "a5", "a0", "a1", "a2", "a3", "a4", "a6", "a7");
  74              		mv t1, a1
  75              	# 0 "" 2
  76              	.LVL5:
GAS LISTING /tmp/ccNoxOHy.s 			page 3


  77              	#NO_APP
  78 002c 233864FC 		sd	t1,-48(s0)
  79              	.LVL6:
  80              		.loc 1 24 2 is_stmt 1
  81              		.loc 1 24 98 is_stmt 0
  82              	#APP
  83              	# 24 "src/interruptRoutine.cpp" 1
  25              		__asm__ volatile("mv %[ax], a3":[ax] "=r"(a3): : "a5", "a0", "a1", "a2", "a3", "a4", "a6", "a7");
  84              		mv t1, a2
  85              	# 0 "" 2
  86              	.LVL7:
  87              	#NO_APP
  88 0034 233464FC 		sd	t1,-56(s0)
  89              	.LVL8:
  90              		.loc 1 25 2 is_stmt 1
  91              		.loc 1 25 98 is_stmt 0
  92              	#APP
  93              	# 25 "src/interruptRoutine.cpp" 1
  26              		__asm__ volatile("mv %[ax], a4":[ax] "=r"(a4): : "a5", "a0", "a1", "a2", "a3", "a4", "a6", "a7");
  94              		mv t1, a3
  95              	# 0 "" 2
  96              	.LVL9:
  97              	#NO_APP
  98 003c 233064FC 		sd	t1,-64(s0)
  99              	.LVL10:
 100              		.loc 1 26 2 is_stmt 1
 101              		.loc 1 26 98 is_stmt 0
 102              	#APP
 103              	# 26 "src/interruptRoutine.cpp" 1
  27              		__asm__ volatile("mv %[ax], a5":[ax] "=r"(a5): : "a5", "a0", "a1", "a2", "a3", "a4", "a6", "a7");
 104              		mv t1, a4
 105              	# 0 "" 2
 106              	.LVL11:
 107              	#NO_APP
 108 0044 233C64FA 		sd	t1,-72(s0)
 109              	.LVL12:
 110              		.loc 1 27 2 is_stmt 1
 111              		.loc 1 27 98 is_stmt 0
 112              	#APP
 113              	# 27 "src/interruptRoutine.cpp" 1
  28              		__asm__ volatile("mv %[ax], a6":[ax] "=r"(a6): : "a5", "a0", "a1", "a2", "a3", "a4", "a6", "a7");
 114              		mv t1, a5
 115              	# 0 "" 2
 116              	.LVL13:
 117              	#NO_APP
 118 004c 233864FA 		sd	t1,-80(s0)
 119              	.LVL14:
 120              		.loc 1 28 2 is_stmt 1
 121              		.loc 1 28 98 is_stmt 0
 122              	#APP
 123              	# 28 "src/interruptRoutine.cpp" 1
  29              		__asm__ volatile("mv %[ax], a7":[ax] "=r"(a7): : "a5", "a0", "a1", "a2", "a3", "a4", "a6", "a7");
 124              		mv t1, a6
 125              	# 0 "" 2
 126              	.LVL15:
 127              	#NO_APP
 128 0054 233464FA 		sd	t1,-88(s0)
GAS LISTING /tmp/ccNoxOHy.s 			page 4


 129              	.LVL16:
 130              		.loc 1 29 2 is_stmt 1
 131              		.loc 1 29 98 is_stmt 0
 132              	#APP
 133              	# 29 "src/interruptRoutine.cpp" 1
  30              	
 134              		mv t1, a7
 135              	# 0 "" 2
 136              	.LVL17:
 137              	#NO_APP
 138 005c 233064FA 		sd	t1,-96(s0)
 139              	.LVL18:
  31:src/interruptRoutine.cpp **** 	if (scause == 0x09 || scause == 0x08) {
 140              		.loc 1 31 2 is_stmt 1
 141              	.LBB2:
 142 0060 033784FE 		ld	a4,-24(s0)
 143 0064 93079000 		li	a5,9
 144 0068 6308F700 		beq	a4,a5,.L2
 145              		.loc 1 31 21 is_stmt 0 discriminator 1
 146 006c 033784FE 		ld	a4,-24(s0)
 147 0070 93078000 		li	a5,8
 148 0074 6310F716 		bne	a4,a5,.L3
 149              	.L2:
 150              	.LBB3:
  32:src/interruptRoutine.cpp **** 		//prekid zbog poziva ecall
  33:src/interruptRoutine.cpp **** 		uint64 opCode = a0;
 151              		.loc 1 33 3 is_stmt 1
 152              		.loc 1 33 10 is_stmt 0
 153 0078 833784FD 		ld	a5,-40(s0)
 154 007c 233CF4F8 		sd	a5,-104(s0)
 155              	.LVL19:
  34:src/interruptRoutine.cpp **** 
  35:src/interruptRoutine.cpp **** 		switch (opCode) {
 156              		.loc 1 35 3 is_stmt 1
 157 0080 033784F9 		ld	a4,-104(s0)
 158 0084 93072004 		li	a5,66
 159              	.LVL20:
 160 0088 63EAE70C 		bgtu	a4,a5,.L4
 161 008c 833784F9 		ld	a5,-104(s0)
 162 0090 13972700 		slli	a4,a5,2
 163              	.LVL21:
 164 0094 97070000 		lla	a5,.L6
 164      93870700 
 165              	.LVL22:
 166 009c B307F700 		add	a5,a4,a5
 167 00a0 83A70700 		lw	a5,0(a5)
 168 00a4 1B870700 		sext.w	a4,a5
 169 00a8 97070000 		lla	a5,.L6
 169      93870700 
 170 00b0 B307F700 		add	a5,a4,a5
 171 00b4 67800700 		jr	a5
 172              		.section	.rodata
 173 0059 000000   		.align	2
 174              		.align	2
 175              	.L6:
 176 005c 00000000 		.word	.L4-.L6
 177 0060 00000000 		.word	.L18-.L6
GAS LISTING /tmp/ccNoxOHy.s 			page 5


 178 0064 00000000 		.word	.L17-.L6
 179 0068 00000000 		.word	.L4-.L6
 180 006c 00000000 		.word	.L4-.L6
 181 0070 00000000 		.word	.L4-.L6
 182 0074 00000000 		.word	.L4-.L6
 183 0078 00000000 		.word	.L4-.L6
 184 007c 00000000 		.word	.L4-.L6
 185 0080 00000000 		.word	.L4-.L6
 186 0084 00000000 		.word	.L4-.L6
 187 0088 00000000 		.word	.L4-.L6
 188 008c 00000000 		.word	.L4-.L6
 189 0090 00000000 		.word	.L4-.L6
 190 0094 00000000 		.word	.L4-.L6
 191 0098 00000000 		.word	.L4-.L6
 192 009c 00000000 		.word	.L4-.L6
 193 00a0 00000000 		.word	.L16-.L6
 194 00a4 00000000 		.word	.L25-.L6
 195 00a8 00000000 		.word	.L25-.L6
 196 00ac 00000000 		.word	.L25-.L6
 197 00b0 00000000 		.word	.L4-.L6
 198 00b4 00000000 		.word	.L4-.L6
 199 00b8 00000000 		.word	.L4-.L6
 200 00bc 00000000 		.word	.L4-.L6
 201 00c0 00000000 		.word	.L4-.L6
 202 00c4 00000000 		.word	.L4-.L6
 203 00c8 00000000 		.word	.L4-.L6
 204 00cc 00000000 		.word	.L4-.L6
 205 00d0 00000000 		.word	.L4-.L6
 206 00d4 00000000 		.word	.L4-.L6
 207 00d8 00000000 		.word	.L4-.L6
 208 00dc 00000000 		.word	.L4-.L6
 209 00e0 00000000 		.word	.L25-.L6
 210 00e4 00000000 		.word	.L25-.L6
 211 00e8 00000000 		.word	.L25-.L6
 212 00ec 00000000 		.word	.L25-.L6
 213 00f0 00000000 		.word	.L4-.L6
 214 00f4 00000000 		.word	.L4-.L6
 215 00f8 00000000 		.word	.L4-.L6
 216 00fc 00000000 		.word	.L4-.L6
 217 0100 00000000 		.word	.L4-.L6
 218 0104 00000000 		.word	.L4-.L6
 219 0108 00000000 		.word	.L4-.L6
 220 010c 00000000 		.word	.L4-.L6
 221 0110 00000000 		.word	.L4-.L6
 222 0114 00000000 		.word	.L4-.L6
 223 0118 00000000 		.word	.L4-.L6
 224 011c 00000000 		.word	.L4-.L6
 225 0120 00000000 		.word	.L25-.L6
 226 0124 00000000 		.word	.L4-.L6
 227 0128 00000000 		.word	.L4-.L6
 228 012c 00000000 		.word	.L4-.L6
 229 0130 00000000 		.word	.L4-.L6
 230 0134 00000000 		.word	.L4-.L6
 231 0138 00000000 		.word	.L4-.L6
 232 013c 00000000 		.word	.L4-.L6
 233 0140 00000000 		.word	.L4-.L6
 234 0144 00000000 		.word	.L4-.L6
GAS LISTING /tmp/ccNoxOHy.s 			page 6


 235 0148 00000000 		.word	.L4-.L6
 236 014c 00000000 		.word	.L4-.L6
 237 0150 00000000 		.word	.L4-.L6
 238 0154 00000000 		.word	.L4-.L6
 239 0158 00000000 		.word	.L4-.L6
 240 015c 00000000 		.word	.L4-.L6
 241 0160 00000000 		.word	.L25-.L6
 242 0164 00000000 		.word	.L25-.L6
 243              		.text
 244              	.L18:
 245              	.LBB4:
 246              	.LBB5:
  36:src/interruptRoutine.cpp **** 			case 0x01:
 247              		.loc 1 36 4
  37:src/interruptRoutine.cpp **** 				//mem_alloc
  38:src/interruptRoutine.cpp **** 				size_t size;
 248              		.loc 1 38 5
  39:src/interruptRoutine.cpp **** 				size = (size_t)a1;
 249              		.loc 1 39 5
 250              		.loc 1 39 10 is_stmt 0
 251 00b8 833704FD 		ld	a5,-48(s0)
 252 00bc 2334F4F6 		sd	a5,-152(s0)
 253              	.LVL23:
  40:src/interruptRoutine.cpp **** 				//__asm__ volatile("mv %[size], a1":[size] "=r"(size));
  41:src/interruptRoutine.cpp **** 				size = size * MEM_BLOCK_SIZE;
 254              		.loc 1 41 5 is_stmt 1
 255              		.loc 1 41 10 is_stmt 0
 256 00c0 833784F6 		ld	a5,-152(s0)
 257 00c4 93976700 		slli	a5,a5,6
 258              	.LVL24:
 259 00c8 2334F4F6 		sd	a5,-152(s0)
 260              	.LVL25:
  42:src/interruptRoutine.cpp **** 				MemoryAllocator::kmalloc(size);
 261              		.loc 1 42 5 is_stmt 1
 262              		.loc 1 42 29 is_stmt 0
 263 00cc 033584F6 		ld	a0,-152(s0)
 264 00d0 97000000 		call	_ZN15MemoryAllocator7kmallocEm@plt
 264      E7800000 
 265              	.LVL26:
  43:src/interruptRoutine.cpp **** 				__asm__ volatile("sd a0, 80(s0)");
 266              		.loc 1 43 5 is_stmt 1
 267              		.loc 1 43 38 is_stmt 0
 268              	#APP
 269              	# 43 "src/interruptRoutine.cpp" 1
  44              					break;
 270              		sd a0, 80(s0)
 271              	# 0 "" 2
 272              		.loc 1 44 5 is_stmt 1
 273              	#NO_APP
 274 00dc 6F00C00D 		j	.L19
 275              	.LVL27:
 276              	.L17:
  45:src/interruptRoutine.cpp **** 			case 0x02:
 277              		.loc 1 45 4
  46:src/interruptRoutine.cpp **** 				//mem_free
  47:src/interruptRoutine.cpp **** 				void* ptr;
 278              		.loc 1 47 5
GAS LISTING /tmp/ccNoxOHy.s 			page 7


  48:src/interruptRoutine.cpp **** 				ptr = (void*)a1;
 279              		.loc 1 48 5
 280              		.loc 1 48 9 is_stmt 0
 281 00e0 833704FD 		ld	a5,-48(s0)
 282 00e4 2338F4F6 		sd	a5,-144(s0)
 283              	.LVL28:
  49:src/interruptRoutine.cpp **** 				//__asm__ volatile("mv %[ptr], a1" :[ptr]"=r"(ptr));
  50:src/interruptRoutine.cpp **** 				MemoryAllocator::kfree(ptr);
 284              		.loc 1 50 5 is_stmt 1
 285              		.loc 1 50 27 is_stmt 0
 286 00e8 033504F7 		ld	a0,-144(s0)
 287 00ec 97000000 		call	_ZN15MemoryAllocator5kfreeEPv@plt
 287      E7800000 
 288              	.LVL29:
  51:src/interruptRoutine.cpp **** 				__asm__ volatile("sd a0, 80(s0)");
 289              		.loc 1 51 5 is_stmt 1
 290              		.loc 1 51 38 is_stmt 0
 291              	#APP
 292              	# 51 "src/interruptRoutine.cpp" 1
  52              					break;
 293              		sd a0, 80(s0)
 294              	# 0 "" 2
 295              		.loc 1 52 5 is_stmt 1
 296              	#NO_APP
 297 00f8 6F00000C 		j	.L19
 298              	.LVL30:
 299              	.L16:
  53:src/interruptRoutine.cpp **** 			case 0x11:
 300              		.loc 1 53 4
  54:src/interruptRoutine.cpp **** 				//thread_create
  55:src/interruptRoutine.cpp **** 				thread_t* handle;
 301              		.loc 1 55 5
  56:src/interruptRoutine.cpp **** 				handle = (thread_t*)a1;
 302              		.loc 1 56 5
 303              		.loc 1 56 12 is_stmt 0
 304 00fc 833704FD 		ld	a5,-48(s0)
 305 0100 2338F4F8 		sd	a5,-112(s0)
 306              	.LVL31:
  57:src/interruptRoutine.cpp **** 				void (* function)(void*);
 307              		.loc 1 57 5 is_stmt 1
  58:src/interruptRoutine.cpp **** 				function = (void (*)(void*))a2;
 308              		.loc 1 58 5
 309              		.loc 1 58 14 is_stmt 0
 310 0104 833784FC 		ld	a5,-56(s0)
 311              	.LVL32:
 312 0108 2334F4F8 		sd	a5,-120(s0)
 313              	.LVL33:
  59:src/interruptRoutine.cpp **** 				void* args;
 314              		.loc 1 59 5 is_stmt 1
  60:src/interruptRoutine.cpp **** 				args = (void*)a3;
 315              		.loc 1 60 5
 316              		.loc 1 60 10 is_stmt 0
 317 010c 833704FC 		ld	a5,-64(s0)
 318              	.LVL34:
 319 0110 2330F4F8 		sd	a5,-128(s0)
 320              	.LVL35:
  61:src/interruptRoutine.cpp **** 				uint64* sp;
GAS LISTING /tmp/ccNoxOHy.s 			page 8


 321              		.loc 1 61 5 is_stmt 1
  62:src/interruptRoutine.cpp **** 				sp = (uint64*)a4;
 322              		.loc 1 62 5
 323              		.loc 1 62 8 is_stmt 0
 324 0114 833784FB 		ld	a5,-72(s0)
 325              	.LVL36:
 326 0118 233CF4F6 		sd	a5,-136(s0)
 327              	.LVL37:
  63:src/interruptRoutine.cpp **** //				__asm__ volatile("mv %[handle], a1":[handle]"=r"(handle));
  64:src/interruptRoutine.cpp **** //				__asm__ volatile("mv %[f], a2":[f]"=r"(function));
  65:src/interruptRoutine.cpp **** //				__asm__ volatile("mv %[args], a3":[args]"=r"(args));
  66:src/interruptRoutine.cpp **** //				__asm__ volatile("mv %[sp], a4":[sp]"=r"(sp));
  67:src/interruptRoutine.cpp **** 
  68:src/interruptRoutine.cpp **** 				*handle = TCB::createThread(function, args, sp);
 328              		.loc 1 68 5 is_stmt 1
 329              		.loc 1 68 32 is_stmt 0
 330 011c 033684F7 		ld	a2,-136(s0)
 331 0120 833504F8 		ld	a1,-128(s0)
 332 0124 033584F8 		ld	a0,-120(s0)
 333 0128 97000000 		call	_ZN3TCB12createThreadEPFvPvES0_Pm@plt
 333      E7800000 
 334              	.LVL38:
 335 0130 13070500 		mv	a4,a0
 336              		.loc 1 68 13
 337 0134 833704F9 		ld	a5,-112(s0)
 338 0138 23B0E700 		sd	a4,0(a5)
  69:src/interruptRoutine.cpp **** 				if (*handle != nullptr) {
 339              		.loc 1 69 5 is_stmt 1
 340              		.loc 1 69 9 is_stmt 0
 341 013c 833704F9 		ld	a5,-112(s0)
 342 0140 83B70700 		ld	a5,0(a5)
 343              		.loc 1 69 5
 344 0144 63860700 		beqz	a5,.L20
  70:src/interruptRoutine.cpp **** 					__asm__ volatile("li a0, 0");
 345              		.loc 1 70 6 is_stmt 1
 346              		.loc 1 70 34 is_stmt 0
 347              	#APP
 348              	# 70 "src/interruptRoutine.cpp" 1
  71              					} else {
 349              		li a0, 0
 350              	# 0 "" 2
 351              	#NO_APP
 352 014c 6F008000 		j	.L21
 353              	.L20:
  72:src/interruptRoutine.cpp **** 					__asm__ volatile("li a0, -1");
 354              		.loc 1 72 6 is_stmt 1
 355              		.loc 1 72 35 is_stmt 0
 356              	#APP
 357              	# 72 "src/interruptRoutine.cpp" 1
  73              					}
 358              		li a0, -1
 359              	# 0 "" 2
 360              	#NO_APP
 361              	.L21:
  74:src/interruptRoutine.cpp **** 				__asm__ volatile("sd a0, 80(s0)");
 362              		.loc 1 74 5 is_stmt 1
 363              		.loc 1 74 38 is_stmt 0
GAS LISTING /tmp/ccNoxOHy.s 			page 9


 364              	#APP
 365              	# 74 "src/interruptRoutine.cpp" 1
  75              					break;
 366              		sd a0, 80(s0)
 367              	# 0 "" 2
 368              		.loc 1 75 5 is_stmt 1
 369              	#NO_APP
 370 0158 6F000006 		j	.L19
 371              	.LVL39:
 372              	.L4:
  76:src/interruptRoutine.cpp **** 			case 0x12:
  77:src/interruptRoutine.cpp **** 				//thread_exit
  78:src/interruptRoutine.cpp **** 				break;
  79:src/interruptRoutine.cpp **** 			case 0x13:
  80:src/interruptRoutine.cpp **** 				//thread_dispatch
  81:src/interruptRoutine.cpp **** 				break;
  82:src/interruptRoutine.cpp **** 			case 0x14:
  83:src/interruptRoutine.cpp **** 				//thread_join
  84:src/interruptRoutine.cpp **** 				break;
  85:src/interruptRoutine.cpp **** 			case 0x21:
  86:src/interruptRoutine.cpp **** 				//sem_open
  87:src/interruptRoutine.cpp **** 				break;
  88:src/interruptRoutine.cpp **** 			case 0x22:
  89:src/interruptRoutine.cpp **** 				//sem_close
  90:src/interruptRoutine.cpp **** 				break;
  91:src/interruptRoutine.cpp **** 			case 0x23:
  92:src/interruptRoutine.cpp **** 				//sem_wait
  93:src/interruptRoutine.cpp **** 				break;
  94:src/interruptRoutine.cpp **** 			case 0x24:
  95:src/interruptRoutine.cpp **** 				//sem_signal
  96:src/interruptRoutine.cpp **** 				break;
  97:src/interruptRoutine.cpp **** 			case 0x31:
  98:src/interruptRoutine.cpp **** 				//time_sleep
  99:src/interruptRoutine.cpp **** 				break;
 100:src/interruptRoutine.cpp **** 			case 0x41:
 101:src/interruptRoutine.cpp **** 				//getc
 102:src/interruptRoutine.cpp **** 				break;
 103:src/interruptRoutine.cpp **** 			case 0x42:
 104:src/interruptRoutine.cpp **** 				//putc
 105:src/interruptRoutine.cpp **** 				break;
 106:src/interruptRoutine.cpp **** 			default:
 373              		.loc 1 106 4
 107:src/interruptRoutine.cpp **** 				printString("\nNepostojeci op code: ");
 374              		.loc 1 107 5
 375              		.loc 1 107 16 is_stmt 0
 376 015c 17050000 		lla	a0,.LC0
 376      13050500 
 377 0164 97000000 		call	_Z11printStringPKc@plt
 377      E7800000 
 378              	.LVL40:
 108:src/interruptRoutine.cpp **** 				printInteger(opCode);
 379              		.loc 1 108 5 is_stmt 1
 380              		.loc 1 108 17 is_stmt 0
 381 016c 033584F9 		ld	a0,-104(s0)
 382 0170 97000000 		call	_Z12printIntegerm@plt
 382      E7800000 
 383              	.LVL41:
GAS LISTING /tmp/ccNoxOHy.s 			page 10


 109:src/interruptRoutine.cpp **** 				printString("\nscause: ");
 384              		.loc 1 109 5 is_stmt 1
 385              		.loc 1 109 16 is_stmt 0
 386 0178 17050000 		lla	a0,.LC1
 386      13050500 
 387 0180 97000000 		call	_Z11printStringPKc@plt
 387      E7800000 
 388              	.LVL42:
 110:src/interruptRoutine.cpp **** 				printInteger(scause);
 389              		.loc 1 110 5 is_stmt 1
 390              		.loc 1 110 17 is_stmt 0
 391 0188 033584FE 		ld	a0,-24(s0)
 392 018c 97000000 		call	_Z12printIntegerm@plt
 392      E7800000 
 393              	.LVL43:
 111:src/interruptRoutine.cpp **** 				printString("\nsepc: ");
 394              		.loc 1 111 5 is_stmt 1
 395              		.loc 1 111 16 is_stmt 0
 396 0194 17050000 		lla	a0,.LC2
 396      13050500 
 397 019c 97000000 		call	_Z11printStringPKc@plt
 397      E7800000 
 398              	.LVL44:
 112:src/interruptRoutine.cpp **** 				printInteger(sepc);
 399              		.loc 1 112 5 is_stmt 1
 400              		.loc 1 112 17 is_stmt 0
 401 01a4 033504FE 		ld	a0,-32(s0)
 402 01a8 97000000 		call	_Z12printIntegerm@plt
 402      E7800000 
 403              	.LVL45:
 113:src/interruptRoutine.cpp **** 				break;
 404              		.loc 1 113 5 is_stmt 1
 405 01b0 6F008000 		j	.L19
 406              	.LVL46:
 407              	.L25:
  78:src/interruptRoutine.cpp **** 			case 0x13:
 408              		.loc 1 78 5 is_stmt 0
 409 01b4 13000000 		nop
 410              	.LVL47:
 411              	.L19:
 412              	.LBE5:
 413              	.LBE4:
 114:src/interruptRoutine.cpp **** 		}
 115:src/interruptRoutine.cpp **** 		//sepc pokazuje na ecall instrukciju, treba preci na sledecu instrukciju
 116:src/interruptRoutine.cpp **** 		//sepc += 4;
 117:src/interruptRoutine.cpp **** 		__asm__ volatile("addi %[dst], %[src], 0x4":[dst]"=r"(sepc):[src]"r"(
 414              		.loc 1 117 3 is_stmt 1
 118:src/interruptRoutine.cpp **** 				sepc):"a5", "a0", "a1", "a2", "a3", "a4", "a6", "a7");
 415              		.loc 1 118 58 is_stmt 0
 416 01b8 033304FE 		ld	t1,-32(s0)
 417              	#APP
 418              	# 118 "src/interruptRoutine.cpp" 1
 119              			__asm__ volatile("csrw sepc, %[sepc]": :[sepc] "r"(sepc):"a5", "a0", "a1", "a2", "a3", "a4", "a6"
 419              		addi t1, t1, 0x4
 420              	# 0 "" 2
 421              	.LVL48:
 422              	#NO_APP
GAS LISTING /tmp/ccNoxOHy.s 			page 11


 423 01c0 233064FE 		sd	t1,-32(s0)
 424              	.LVL49:
 425              		.loc 1 119 3 is_stmt 1
 426              		.loc 1 119 107 is_stmt 0
 427 01c4 033304FE 		ld	t1,-32(s0)
 428              	#APP
 429              	# 119 "src/interruptRoutine.cpp" 1
 120              			//Riscv::w_sepc(sepc + 4);
 430              		csrw sepc, t1
 431              	# 0 "" 2
 432              	#NO_APP
 433              	.LBE3:
 434 01cc 13000000 		nop
 435              	.LBE2:
 121:src/interruptRoutine.cpp **** 	} else if (scause == (1UL << 63 | 9)) {
 122:src/interruptRoutine.cpp **** 		//spoljasnji hardverski prekid
 123:src/interruptRoutine.cpp **** 		console_handler();
 124:src/interruptRoutine.cpp **** 	} else if (scause == (1UL << 63 | 1)) {
 125:src/interruptRoutine.cpp **** 		//prekid od tajmera
 126:src/interruptRoutine.cpp **** 		Riscv::mc_sip(Riscv::SIP_SSIP);
 127:src/interruptRoutine.cpp **** 	} else {
 128:src/interruptRoutine.cpp **** 		println("\nGreska u prekidnoj rutini");
 129:src/interruptRoutine.cpp **** 		printString("scause: ");
 130:src/interruptRoutine.cpp **** 		printInteger(scause);
 131:src/interruptRoutine.cpp **** 		printString("\nsepc: ");
 132:src/interruptRoutine.cpp **** 		printInteger(sepc);
 133:src/interruptRoutine.cpp **** 	}
 134:src/interruptRoutine.cpp **** }
 436              		.loc 1 134 1
 437 01d0 6F000009 		j	.L26
 438              	.LVL50:
 439              	.L3:
 440              	.LBB6:
 121:src/interruptRoutine.cpp **** 	} else if (scause == (1UL << 63 | 9)) {
 441              		.loc 1 121 9 is_stmt 1
 442 01d4 033784FE 		ld	a4,-24(s0)
 443              	.LVL51:
 444 01d8 9307F0FF 		li	a5,-1
 445 01dc 9397F703 		slli	a5,a5,63
 446 01e0 93879700 		addi	a5,a5,9
 447 01e4 6318F700 		bne	a4,a5,.L23
 123:src/interruptRoutine.cpp **** 	} else if (scause == (1UL << 63 | 1)) {
 448              		.loc 1 123 3
 123:src/interruptRoutine.cpp **** 	} else if (scause == (1UL << 63 | 1)) {
 449              		.loc 1 123 18 is_stmt 0
 450 01e8 97000000 		call	console_handler@plt
 450      E7800000 
 451              	.LVL52:
 452              	.LBE6:
 453              		.loc 1 134 1
 454 01f0 6F000007 		j	.L26
 455              	.LVL53:
 456              	.L23:
 457              	.LBB7:
 124:src/interruptRoutine.cpp **** 		//prekid od tajmera
 458              		.loc 1 124 9 is_stmt 1
 459 01f4 033784FE 		ld	a4,-24(s0)
GAS LISTING /tmp/ccNoxOHy.s 			page 12


 460 01f8 9307F0FF 		li	a5,-1
 461 01fc 9397F703 		slli	a5,a5,63
 462 0200 93871700 		addi	a5,a5,1
 463 0204 631AF700 		bne	a4,a5,.L24
 126:src/interruptRoutine.cpp **** 	} else {
 464              		.loc 1 126 3
 126:src/interruptRoutine.cpp **** 	} else {
 465              		.loc 1 126 16 is_stmt 0
 466 0208 13052000 		li	a0,2
 467 020c 97000000 		call	_ZN5Riscv6mc_sipEm
 467      E7800000 
 468              	.LVL54:
 469              	.LBE7:
 470              		.loc 1 134 1
 471 0214 6F00C004 		j	.L26
 472              	.LVL55:
 473              	.L24:
 474              	.LBB8:
 128:src/interruptRoutine.cpp **** 		printString("scause: ");
 475              		.loc 1 128 3 is_stmt 1
 128:src/interruptRoutine.cpp **** 		printString("scause: ");
 476              		.loc 1 128 10 is_stmt 0
 477 0218 17050000 		lla	a0,.LC3
 477      13050500 
 478 0220 97000000 		call	_Z7printlnPKc@plt
 478      E7800000 
 479              	.LVL56:
 129:src/interruptRoutine.cpp **** 		printInteger(scause);
 480              		.loc 1 129 3 is_stmt 1
 129:src/interruptRoutine.cpp **** 		printInteger(scause);
 481              		.loc 1 129 14 is_stmt 0
 482 0228 17050000 		lla	a0,.LC4
 482      13050500 
 483 0230 97000000 		call	_Z11printStringPKc@plt
 483      E7800000 
 484              	.LVL57:
 130:src/interruptRoutine.cpp **** 		printString("\nsepc: ");
 485              		.loc 1 130 3 is_stmt 1
 130:src/interruptRoutine.cpp **** 		printString("\nsepc: ");
 486              		.loc 1 130 15 is_stmt 0
 487 0238 033584FE 		ld	a0,-24(s0)
 488 023c 97000000 		call	_Z12printIntegerm@plt
 488      E7800000 
 489              	.LVL58:
 131:src/interruptRoutine.cpp **** 		printInteger(sepc);
 490              		.loc 1 131 3 is_stmt 1
 131:src/interruptRoutine.cpp **** 		printInteger(sepc);
 491              		.loc 1 131 14 is_stmt 0
 492 0244 17050000 		lla	a0,.LC2
 492      13050500 
 493 024c 97000000 		call	_Z11printStringPKc@plt
 493      E7800000 
 494              	.LVL59:
 132:src/interruptRoutine.cpp **** 	}
 495              		.loc 1 132 3 is_stmt 1
 132:src/interruptRoutine.cpp **** 	}
 496              		.loc 1 132 15 is_stmt 0
GAS LISTING /tmp/ccNoxOHy.s 			page 13


 497 0254 033504FE 		ld	a0,-32(s0)
 498 0258 97000000 		call	_Z12printIntegerm@plt
 498      E7800000 
 499              	.LVL60:
 500              	.L26:
 501              	.LBE8:
 502              		.loc 1 134 1
 503 0260 13000000 		nop
 504 0264 83308109 		ld	ra,152(sp)
 505              		.cfi_restore 1
 506 0268 03340109 		ld	s0,144(sp)
 507              		.cfi_restore 8
 508              		.cfi_def_cfa 2, 160
 509              	.LVL61:
 510 026c 1301010A 		addi	sp,sp,160
 511              		.cfi_def_cfa_offset 0
 512              	.LVL62:
 513 0270 67800000 		jr	ra
 514              		.cfi_endproc
 515              	.LFE27:
 517              		.section	.text._ZN5Riscv6mc_sipEm,"axG",@progbits,_ZN5Riscv6mc_sipEm,comdat
 518              		.align	2
 519              		.weak	_ZN5Riscv6mc_sipEm
 521              	_ZN5Riscv6mc_sipEm:
 522              	.LFB10:
 523              		.file 2 "src/../h/Riscv.hpp"
   1:src/../h/Riscv.hpp **** //
   2:src/../h/Riscv.hpp **** // Created by os on 5/17/23.
   3:src/../h/Riscv.hpp **** //
   4:src/../h/Riscv.hpp **** 
   5:src/../h/Riscv.hpp **** #ifndef PROJEKAT2023_RISCV_HPP
   6:src/../h/Riscv.hpp **** #define PROJEKAT2023_RISCV_HPP
   7:src/../h/Riscv.hpp **** 
   8:src/../h/Riscv.hpp **** #include "../lib/hw.h"
   9:src/../h/Riscv.hpp **** 
  10:src/../h/Riscv.hpp **** class Riscv {
  11:src/../h/Riscv.hpp **** public:
  12:src/../h/Riscv.hpp **** 
  13:src/../h/Riscv.hpp **** 	//stavljanje registara x3-x31 na stek
  14:src/../h/Riscv.hpp **** 	static void pushRegisters();    //implementacija u asm
  15:src/../h/Riscv.hpp **** 
  16:src/../h/Riscv.hpp **** 	//skidanje registara x3-x31 sa steka
  17:src/../h/Riscv.hpp **** 	static void popRegisters();     //implementacija u asm
  18:src/../h/Riscv.hpp **** 
  19:src/../h/Riscv.hpp **** 	//read scause
  20:src/../h/Riscv.hpp **** 	static uint64 r_scause();
  21:src/../h/Riscv.hpp **** 
  22:src/../h/Riscv.hpp **** 	//write scause
  23:src/../h/Riscv.hpp **** 	static void w_scause(uint64 scause);
  24:src/../h/Riscv.hpp **** 
  25:src/../h/Riscv.hpp **** 	//read sepc
  26:src/../h/Riscv.hpp **** 	static uint64 r_sepc();
  27:src/../h/Riscv.hpp **** 
  28:src/../h/Riscv.hpp **** 	//write sepc
  29:src/../h/Riscv.hpp **** 	static void w_sepc(uint64 sepc);
  30:src/../h/Riscv.hpp **** 
  31:src/../h/Riscv.hpp **** 	//read stvec
GAS LISTING /tmp/ccNoxOHy.s 			page 14


  32:src/../h/Riscv.hpp **** 	static uint64 r_stvec();
  33:src/../h/Riscv.hpp **** 
  34:src/../h/Riscv.hpp **** 	//write stvec
  35:src/../h/Riscv.hpp **** 	static void w_stvec(uint64 stvec);
  36:src/../h/Riscv.hpp **** 
  37:src/../h/Riscv.hpp **** 	enum BitMaskSip {
  38:src/../h/Riscv.hpp **** 		SIP_SSIP = (1 << 1),    //postoji zahtev za softverski prekid
  39:src/../h/Riscv.hpp **** 		SIP_STIP = (1 << 5),    //postoji prekid od tajmera
  40:src/../h/Riscv.hpp **** 		SIP_SEIP = (1 << 9)        //postoji zahtev za spoljasnji hardverski prekid
  41:src/../h/Riscv.hpp **** 	};
  42:src/../h/Riscv.hpp **** 
  43:src/../h/Riscv.hpp **** 	//mask set sip
  44:src/../h/Riscv.hpp **** 	static void ms_sip(uint64 mask);
  45:src/../h/Riscv.hpp **** 
  46:src/../h/Riscv.hpp **** 	//mask clear sip
  47:src/../h/Riscv.hpp **** 	static void mc_sip(uint64 mask);
  48:src/../h/Riscv.hpp **** 
  49:src/../h/Riscv.hpp **** 	//read sip
  50:src/../h/Riscv.hpp **** 	static uint64 r_sip();
  51:src/../h/Riscv.hpp **** 
  52:src/../h/Riscv.hpp **** 	//write sip
  53:src/../h/Riscv.hpp **** 	static void w_sip(uint64 sip);
  54:src/../h/Riscv.hpp **** 
  55:src/../h/Riscv.hpp **** 	enum BitMaskSstatus {
  56:src/../h/Riscv.hpp **** 		SSTATUS_SIE = (1 << 1),
  57:src/../h/Riscv.hpp **** 		SSTATUS_SPIE = (1 << 5),
  58:src/../h/Riscv.hpp **** 		SSTATUS_SPP = (1 << 8)
  59:src/../h/Riscv.hpp **** 	};
  60:src/../h/Riscv.hpp **** 
  61:src/../h/Riscv.hpp **** 	//mask set sstatus
  62:src/../h/Riscv.hpp **** 	static void ms_sstatus(uint64 mask);
  63:src/../h/Riscv.hpp **** 
  64:src/../h/Riscv.hpp **** 	//mask clear sstatus
  65:src/../h/Riscv.hpp **** 	static void mc_sstatus(uint64 mask);
  66:src/../h/Riscv.hpp **** 
  67:src/../h/Riscv.hpp **** 	//read sstatus
  68:src/../h/Riscv.hpp **** 	static uint64 r_sstatus();
  69:src/../h/Riscv.hpp **** 
  70:src/../h/Riscv.hpp **** 	//write sstatus
  71:src/../h/Riscv.hpp **** 	static void w_sstatus(uint64 sstatus);
  72:src/../h/Riscv.hpp **** 
  73:src/../h/Riscv.hpp **** 	//upisuje kod sistemskog poziva u registar a0
  74:src/../h/Riscv.hpp **** 	static void loadOpCode(uint64 opCode);
  75:src/../h/Riscv.hpp **** 
  76:src/../h/Riscv.hpp **** };
  77:src/../h/Riscv.hpp **** 
  78:src/../h/Riscv.hpp **** inline uint64 Riscv::r_scause() {
  79:src/../h/Riscv.hpp **** 	uint64 volatile scause;
  80:src/../h/Riscv.hpp **** 	__asm__ volatile("csrr %[scause], scause": [scause] "=r"(scause));
  81:src/../h/Riscv.hpp **** 	return scause;
  82:src/../h/Riscv.hpp **** }
  83:src/../h/Riscv.hpp **** 
  84:src/../h/Riscv.hpp **** inline void Riscv::w_scause(uint64 scause) {
  85:src/../h/Riscv.hpp **** 	__asm__ volatile("csrw scause, %[scause]": :[scause] "r"(scause));
  86:src/../h/Riscv.hpp **** }
  87:src/../h/Riscv.hpp **** 
  88:src/../h/Riscv.hpp **** inline uint64 Riscv::r_sepc() {
GAS LISTING /tmp/ccNoxOHy.s 			page 15


  89:src/../h/Riscv.hpp **** 	uint64 volatile sepc;
  90:src/../h/Riscv.hpp **** 	__asm__ volatile("csrr %[sepc], sepc": [sepc] "=r"(sepc));
  91:src/../h/Riscv.hpp **** 	return sepc;
  92:src/../h/Riscv.hpp **** }
  93:src/../h/Riscv.hpp **** 
  94:src/../h/Riscv.hpp **** inline void Riscv::w_sepc(uint64 sepc) {
  95:src/../h/Riscv.hpp **** 	__asm__ volatile("csrw sepc, %[sepc]": :[sepc] "r"(sepc));
  96:src/../h/Riscv.hpp **** }
  97:src/../h/Riscv.hpp **** 
  98:src/../h/Riscv.hpp **** inline uint64 Riscv::r_stvec() {
  99:src/../h/Riscv.hpp **** 	uint64 volatile stvec;
 100:src/../h/Riscv.hpp **** 	__asm__ volatile("csrr %[stvec], stvec": [stvec] "=r"(stvec));
 101:src/../h/Riscv.hpp **** 	return stvec;
 102:src/../h/Riscv.hpp **** }
 103:src/../h/Riscv.hpp **** 
 104:src/../h/Riscv.hpp **** inline void Riscv::w_stvec(uint64 stvec) {
 105:src/../h/Riscv.hpp **** 	__asm__ volatile("csrw stvec, %[stvec]": :[stvec] "r"(stvec));
 106:src/../h/Riscv.hpp **** }
 107:src/../h/Riscv.hpp **** 
 108:src/../h/Riscv.hpp **** inline void Riscv::ms_sip(uint64 mask) {
 109:src/../h/Riscv.hpp **** 	__asm__ volatile("csrs sip, %[mask]": :[mask] "r"(mask));
 110:src/../h/Riscv.hpp **** }
 111:src/../h/Riscv.hpp **** 
 112:src/../h/Riscv.hpp **** inline void Riscv::mc_sip(uint64 mask) {
 524              		.loc 2 112 40 is_stmt 1
 525              		.cfi_startproc
 526              	.LVL63:
 527 0000 130101FF 		addi	sp,sp,-16
 528              		.cfi_def_cfa_offset 16
 529 0004 23348100 		sd	s0,8(sp)
 530              		.cfi_offset 8, -8
 531 0008 13040101 		addi	s0,sp,16
 532              		.cfi_def_cfa 8, 0
 113:src/../h/Riscv.hpp **** 	__asm__ volatile("csrc sip, %[mask]": :[mask] "r"(mask));
 533              		.loc 2 113 2
 534              		.loc 2 113 58 is_stmt 0
 535              	#APP
 536              	# 113 "src/../h/Riscv.hpp" 1
 114              	}
 537              		csrc sip, a0
 538              	# 0 "" 2
 539              		.loc 2 114 1
 540              	#NO_APP
 541 0010 03348100 		ld	s0,8(sp)
 542              		.cfi_restore 8
 543              		.cfi_def_cfa 2, 16
 544 0014 13010101 		addi	sp,sp,16
 545              		.cfi_def_cfa_offset 0
 546 0018 67800000 		jr	ra
 547              		.cfi_endproc
 548              	.LFE10:
 550              		.text
 551              	.Letext0:
 552              		.file 3 "src/../lib/hw.h"
 553              		.file 4 "src/../h/MemoryAllocator.hpp"
 554              		.file 5 "src/../h/syscall_c.hpp"
 555              		.file 6 "src/../h/TCB.hpp"
GAS LISTING /tmp/ccNoxOHy.s 			page 16


 556              		.file 7 "src/../h/helper.hpp"
 557              		.file 8 "src/../lib/console.h"
GAS LISTING /tmp/ccNoxOHy.s 			page 17


DEFINED SYMBOLS
                            *ABS*:0000000000000000 interruptRoutine.cpp
     /tmp/ccNoxOHy.s:26     .text:0000000000000000 interruptRoutine
     /tmp/ccNoxOHy.s:30     .text:0000000000000000 .L0 
     /tmp/ccNoxOHy.s:31     .text:0000000000000000 .L0 
     /tmp/ccNoxOHy.s:32     .text:0000000000000004 .L0 
     /tmp/ccNoxOHy.s:35     .text:000000000000000c .L0 
     /tmp/ccNoxOHy.s:36     .text:000000000000000c .L0 
     /tmp/ccNoxOHy.s:38     .text:0000000000000010 .L0 
     /tmp/ccNoxOHy.s:40     .text:0000000000000010 .L0 
     /tmp/ccNoxOHy.s:41     .text:0000000000000010 .L0 
src/interruptRoutine.cpp:19     .text:0000000000000010 .L0 
     /tmp/ccNoxOHy.s:50     .text:0000000000000018 .L0 
src/interruptRoutine.cpp:20     .text:0000000000000018 .L0 
     /tmp/ccNoxOHy.s:60     .text:0000000000000020 .L0 
     /tmp/ccNoxOHy.s:61     .text:0000000000000020 .L0 
src/interruptRoutine.cpp:22     .text:0000000000000020 .L0 
     /tmp/ccNoxOHy.s:71     .text:0000000000000028 .L0 
src/interruptRoutine.cpp:23     .text:0000000000000028 .L0 
     /tmp/ccNoxOHy.s:81     .text:0000000000000030 .L0 
src/interruptRoutine.cpp:24     .text:0000000000000030 .L0 
     /tmp/ccNoxOHy.s:91     .text:0000000000000038 .L0 
src/interruptRoutine.cpp:25     .text:0000000000000038 .L0 
     /tmp/ccNoxOHy.s:101    .text:0000000000000040 .L0 
src/interruptRoutine.cpp:26     .text:0000000000000040 .L0 
     /tmp/ccNoxOHy.s:111    .text:0000000000000048 .L0 
src/interruptRoutine.cpp:27     .text:0000000000000048 .L0 
     /tmp/ccNoxOHy.s:121    .text:0000000000000050 .L0 
src/interruptRoutine.cpp:28     .text:0000000000000050 .L0 
     /tmp/ccNoxOHy.s:131    .text:0000000000000058 .L0 
src/interruptRoutine.cpp:29     .text:0000000000000058 .L0 
     /tmp/ccNoxOHy.s:142    .text:0000000000000060 .L0 
     /tmp/ccNoxOHy.s:146    .text:000000000000006c .L0 
     /tmp/ccNoxOHy.s:152    .text:0000000000000078 .L0 
     /tmp/ccNoxOHy.s:153    .text:0000000000000078 .L0 
     /tmp/ccNoxOHy.s:157    .text:0000000000000080 .L0 
     /tmp/ccNoxOHy.s:248    .text:00000000000000b8 .L0 
     /tmp/ccNoxOHy.s:249    .text:00000000000000b8 .L0 
     /tmp/ccNoxOHy.s:250    .text:00000000000000b8 .L0 
     /tmp/ccNoxOHy.s:251    .text:00000000000000b8 .L0 
     /tmp/ccNoxOHy.s:255    .text:00000000000000c0 .L0 
     /tmp/ccNoxOHy.s:256    .text:00000000000000c0 .L0 
     /tmp/ccNoxOHy.s:262    .text:00000000000000cc .L0 
     /tmp/ccNoxOHy.s:263    .text:00000000000000cc .L0 
     /tmp/ccNoxOHy.s:267    .text:00000000000000d8 .L0 
src/interruptRoutine.cpp:43     .text:00000000000000d8 .L0 
     /tmp/ccNoxOHy.s:274    .text:00000000000000dc .L0 
     /tmp/ccNoxOHy.s:278    .text:00000000000000e0 .L0 
     /tmp/ccNoxOHy.s:279    .text:00000000000000e0 .L0 
     /tmp/ccNoxOHy.s:280    .text:00000000000000e0 .L0 
     /tmp/ccNoxOHy.s:281    .text:00000000000000e0 .L0 
     /tmp/ccNoxOHy.s:285    .text:00000000000000e8 .L0 
     /tmp/ccNoxOHy.s:286    .text:00000000000000e8 .L0 
     /tmp/ccNoxOHy.s:290    .text:00000000000000f4 .L0 
src/interruptRoutine.cpp:51     .text:00000000000000f4 .L0 
     /tmp/ccNoxOHy.s:297    .text:00000000000000f8 .L0 
     /tmp/ccNoxOHy.s:301    .text:00000000000000fc .L0 
GAS LISTING /tmp/ccNoxOHy.s 			page 18


     /tmp/ccNoxOHy.s:302    .text:00000000000000fc .L0 
     /tmp/ccNoxOHy.s:303    .text:00000000000000fc .L0 
     /tmp/ccNoxOHy.s:304    .text:00000000000000fc .L0 
     /tmp/ccNoxOHy.s:308    .text:0000000000000104 .L0 
     /tmp/ccNoxOHy.s:309    .text:0000000000000104 .L0 
     /tmp/ccNoxOHy.s:310    .text:0000000000000104 .L0 
     /tmp/ccNoxOHy.s:315    .text:000000000000010c .L0 
     /tmp/ccNoxOHy.s:316    .text:000000000000010c .L0 
     /tmp/ccNoxOHy.s:317    .text:000000000000010c .L0 
     /tmp/ccNoxOHy.s:322    .text:0000000000000114 .L0 
     /tmp/ccNoxOHy.s:323    .text:0000000000000114 .L0 
     /tmp/ccNoxOHy.s:324    .text:0000000000000114 .L0 
     /tmp/ccNoxOHy.s:329    .text:000000000000011c .L0 
     /tmp/ccNoxOHy.s:330    .text:000000000000011c .L0 
     /tmp/ccNoxOHy.s:337    .text:0000000000000134 .L0 
     /tmp/ccNoxOHy.s:340    .text:000000000000013c .L0 
     /tmp/ccNoxOHy.s:341    .text:000000000000013c .L0 
     /tmp/ccNoxOHy.s:344    .text:0000000000000144 .L0 
     /tmp/ccNoxOHy.s:346    .text:0000000000000148 .L0 
src/interruptRoutine.cpp:70     .text:0000000000000148 .L0 
     /tmp/ccNoxOHy.s:355    .text:0000000000000150 .L0 
src/interruptRoutine.cpp:72     .text:0000000000000150 .L0 
     /tmp/ccNoxOHy.s:363    .text:0000000000000154 .L0 
src/interruptRoutine.cpp:74     .text:0000000000000154 .L0 
     /tmp/ccNoxOHy.s:370    .text:0000000000000158 .L0 
     /tmp/ccNoxOHy.s:374    .text:000000000000015c .L0 
     /tmp/ccNoxOHy.s:375    .text:000000000000015c .L0 
     /tmp/ccNoxOHy.s:376    .text:000000000000015c .L0 
     /tmp/ccNoxOHy.s:380    .text:000000000000016c .L0 
     /tmp/ccNoxOHy.s:381    .text:000000000000016c .L0 
     /tmp/ccNoxOHy.s:385    .text:0000000000000178 .L0 
     /tmp/ccNoxOHy.s:386    .text:0000000000000178 .L0 
     /tmp/ccNoxOHy.s:390    .text:0000000000000188 .L0 
     /tmp/ccNoxOHy.s:391    .text:0000000000000188 .L0 
     /tmp/ccNoxOHy.s:395    .text:0000000000000194 .L0 
     /tmp/ccNoxOHy.s:396    .text:0000000000000194 .L0 
     /tmp/ccNoxOHy.s:400    .text:00000000000001a4 .L0 
     /tmp/ccNoxOHy.s:401    .text:00000000000001a4 .L0 
     /tmp/ccNoxOHy.s:405    .text:00000000000001b0 .L0 
     /tmp/ccNoxOHy.s:409    .text:00000000000001b4 .L0 
     /tmp/ccNoxOHy.s:415    .text:00000000000001b8 .L0 
     /tmp/ccNoxOHy.s:416    .text:00000000000001b8 .L0 
     /tmp/ccNoxOHy.s:426    .text:00000000000001c4 .L0 
     /tmp/ccNoxOHy.s:427    .text:00000000000001c4 .L0 
     /tmp/ccNoxOHy.s:437    .text:00000000000001d0 .L0 
     /tmp/ccNoxOHy.s:442    .text:00000000000001d4 .L0 
     /tmp/ccNoxOHy.s:449    .text:00000000000001e8 .L0 
     /tmp/ccNoxOHy.s:450    .text:00000000000001e8 .L0 
     /tmp/ccNoxOHy.s:454    .text:00000000000001f0 .L0 
     /tmp/ccNoxOHy.s:459    .text:00000000000001f4 .L0 
     /tmp/ccNoxOHy.s:465    .text:0000000000000208 .L0 
     /tmp/ccNoxOHy.s:466    .text:0000000000000208 .L0 
     /tmp/ccNoxOHy.s:521    .text._ZN5Riscv6mc_sipEm:0000000000000000 _ZN5Riscv6mc_sipEm
     /tmp/ccNoxOHy.s:471    .text:0000000000000214 .L0 
     /tmp/ccNoxOHy.s:476    .text:0000000000000218 .L0 
     /tmp/ccNoxOHy.s:477    .text:0000000000000218 .L0 
     /tmp/ccNoxOHy.s:481    .text:0000000000000228 .L0 
GAS LISTING /tmp/ccNoxOHy.s 			page 19


     /tmp/ccNoxOHy.s:482    .text:0000000000000228 .L0 
     /tmp/ccNoxOHy.s:486    .text:0000000000000238 .L0 
     /tmp/ccNoxOHy.s:487    .text:0000000000000238 .L0 
     /tmp/ccNoxOHy.s:491    .text:0000000000000244 .L0 
     /tmp/ccNoxOHy.s:492    .text:0000000000000244 .L0 
     /tmp/ccNoxOHy.s:496    .text:0000000000000254 .L0 
     /tmp/ccNoxOHy.s:497    .text:0000000000000254 .L0 
     /tmp/ccNoxOHy.s:503    .text:0000000000000260 .L0 
     /tmp/ccNoxOHy.s:505    .text:0000000000000268 .L0 
     /tmp/ccNoxOHy.s:507    .text:000000000000026c .L0 
     /tmp/ccNoxOHy.s:508    .text:000000000000026c .L0 
     /tmp/ccNoxOHy.s:511    .text:0000000000000270 .L0 
     /tmp/ccNoxOHy.s:514    .text:0000000000000274 .L0 
     /tmp/ccNoxOHy.s:525    .text._ZN5Riscv6mc_sipEm:0000000000000000 .L0 
     /tmp/ccNoxOHy.s:527    .text._ZN5Riscv6mc_sipEm:0000000000000000 .L0 
     /tmp/ccNoxOHy.s:528    .text._ZN5Riscv6mc_sipEm:0000000000000004 .L0 
     /tmp/ccNoxOHy.s:530    .text._ZN5Riscv6mc_sipEm:0000000000000008 .L0 
     /tmp/ccNoxOHy.s:532    .text._ZN5Riscv6mc_sipEm:000000000000000c .L0 
     /tmp/ccNoxOHy.s:534    .text._ZN5Riscv6mc_sipEm:000000000000000c .L0 
  src/../h/Riscv.hpp:113    .text._ZN5Riscv6mc_sipEm:000000000000000c .L0 
     /tmp/ccNoxOHy.s:541    .text._ZN5Riscv6mc_sipEm:0000000000000010 .L0 
     /tmp/ccNoxOHy.s:542    .text._ZN5Riscv6mc_sipEm:0000000000000014 .L0 
     /tmp/ccNoxOHy.s:543    .text._ZN5Riscv6mc_sipEm:0000000000000014 .L0 
     /tmp/ccNoxOHy.s:545    .text._ZN5Riscv6mc_sipEm:0000000000000018 .L0 
     /tmp/ccNoxOHy.s:547    .text._ZN5Riscv6mc_sipEm:000000000000001c .L0 
     /tmp/ccNoxOHy.s:558    .text:0000000000000274 .L0 
     /tmp/ccNoxOHy.s:550    .text._ZN5Riscv6mc_sipEm:000000000000001c .L0 
     /tmp/ccNoxOHy.s:175    .rodata:000000000000005c .L6
     /tmp/ccNoxOHy.s:164    .text:0000000000000094 .L0 
     /tmp/ccNoxOHy.s:169    .text:00000000000000a8 .L0 
     /tmp/ccNoxOHy.s:8      .rodata:0000000000000000 .LC0
     /tmp/ccNoxOHy.s:376    .text:000000000000015c .L0 
     /tmp/ccNoxOHy.s:11     .rodata:0000000000000018 .LC1
     /tmp/ccNoxOHy.s:386    .text:0000000000000178 .L0 
     /tmp/ccNoxOHy.s:14     .rodata:0000000000000028 .LC2
     /tmp/ccNoxOHy.s:396    .text:0000000000000194 .L0 
     /tmp/ccNoxOHy.s:17     .rodata:0000000000000030 .LC3
     /tmp/ccNoxOHy.s:477    .text:0000000000000218 .L0 
     /tmp/ccNoxOHy.s:20     .rodata:0000000000000050 .LC4
     /tmp/ccNoxOHy.s:482    .text:0000000000000228 .L0 
     /tmp/ccNoxOHy.s:492    .text:0000000000000244 .L0 
     /tmp/ccNoxOHy.s:149    .text:0000000000000078 .L2
     /tmp/ccNoxOHy.s:439    .text:00000000000001d4 .L3
     /tmp/ccNoxOHy.s:372    .text:000000000000015c .L4
     /tmp/ccNoxOHy.s:411    .text:00000000000001b8 .L19
     /tmp/ccNoxOHy.s:353    .text:0000000000000150 .L20
     /tmp/ccNoxOHy.s:361    .text:0000000000000154 .L21
     /tmp/ccNoxOHy.s:500    .text:0000000000000260 .L26
     /tmp/ccNoxOHy.s:456    .text:00000000000001f4 .L23
     /tmp/ccNoxOHy.s:473    .text:0000000000000218 .L24
     /tmp/ccNoxOHy.s:244    .text:00000000000000b8 .L18
     /tmp/ccNoxOHy.s:276    .text:00000000000000e0 .L17
     /tmp/ccNoxOHy.s:299    .text:00000000000000fc .L16
     /tmp/ccNoxOHy.s:407    .text:00000000000001b4 .L25
     /tmp/ccNoxOHy.s:1693   .debug_abbrev:0000000000000000 .Ldebug_abbrev0
     /tmp/ccNoxOHy.s:3147   .debug_str:0000000000000629 .LASF120
     /tmp/ccNoxOHy.s:3023   .debug_str:00000000000002c0 .LASF121
GAS LISTING /tmp/ccNoxOHy.s 			page 20


     /tmp/ccNoxOHy.s:3017   .debug_str:0000000000000278 .LASF122
     /tmp/ccNoxOHy.s:2923   .debug_ranges:0000000000000000 .Ldebug_ranges0
     /tmp/ccNoxOHy.s:2931   .debug_line:0000000000000000 .Ldebug_line0
     /tmp/ccNoxOHy.s:3069   .debug_str:000000000000043c .LASF0
     /tmp/ccNoxOHy.s:3089   .debug_str:000000000000048d .LASF1
     /tmp/ccNoxOHy.s:3057   .debug_str:00000000000003c8 .LASF2
     /tmp/ccNoxOHy.s:3029   .debug_str:0000000000000309 .LASF4
     /tmp/ccNoxOHy.s:3129   .debug_str:00000000000005be .LASF3
     /tmp/ccNoxOHy.s:2959   .debug_str:00000000000000ae .LASF5
     /tmp/ccNoxOHy.s:2981   .debug_str:0000000000000143 .LASF6
     /tmp/ccNoxOHy.s:3093   .debug_str:00000000000004a7 .LASF7
     /tmp/ccNoxOHy.s:3067   .debug_str:0000000000000429 .LASF8
     /tmp/ccNoxOHy.s:3161   .debug_str:000000000000073d .LASF9
     /tmp/ccNoxOHy.s:3015   .debug_str:000000000000026a .LASF10
     /tmp/ccNoxOHy.s:3105   .debug_str:0000000000000506 .LASF11
     /tmp/ccNoxOHy.s:3149   .debug_str:00000000000006ed .LASF12
     /tmp/ccNoxOHy.s:2961   .debug_str:00000000000000b5 .LASF13
     /tmp/ccNoxOHy.s:2941   .debug_str:000000000000003b .LASF14
     /tmp/ccNoxOHy.s:2965   .debug_str:00000000000000cf .LASF15
     /tmp/ccNoxOHy.s:3123   .debug_str:000000000000058a .LASF16
     /tmp/ccNoxOHy.s:2975   .debug_str:0000000000000102 .LASF17
     /tmp/ccNoxOHy.s:3053   .debug_str:00000000000003ad .LASF31
     /tmp/ccNoxOHy.s:3157   .debug_str:0000000000000721 .LASF21
     /tmp/ccNoxOHy.s:3185   .debug_str:00000000000007f0 .LASF18
     /tmp/ccNoxOHy.s:3171   .debug_str:0000000000000788 .LASF19
     /tmp/ccNoxOHy.s:3143   .debug_str:0000000000000612 .LASF20
     /tmp/ccNoxOHy.s:3031   .debug_str:0000000000000310 .LASF22
     /tmp/ccNoxOHy.s:3155   .debug_str:0000000000000719 .LASF23
     /tmp/ccNoxOHy.s:3121   .debug_str:000000000000056b .LASF25
     /tmp/ccNoxOHy.s:2971   .debug_str:00000000000000eb .LASF24
     /tmp/ccNoxOHy.s:2939   .debug_str:000000000000001d .LASF26
     /tmp/ccNoxOHy.s:2987   .debug_str:000000000000016d .LASF41
     /tmp/ccNoxOHy.s:2935   .debug_str:0000000000000009 .LASF27
     /tmp/ccNoxOHy.s:3181   .debug_str:00000000000007d9 .LASF28
     /tmp/ccNoxOHy.s:3101   .debug_str:00000000000004e2 .LASF29
     /tmp/ccNoxOHy.s:2995   .debug_str:00000000000001bf .LASF69
     /tmp/ccNoxOHy.s:3063   .debug_str:00000000000003ec .LASF71
     /tmp/ccNoxOHy.s:3001   .debug_str:00000000000001f1 .LASF30
     /tmp/ccNoxOHy.s:3085   .debug_str:000000000000047c .LASF32
     /tmp/ccNoxOHy.s:3043   .debug_str:0000000000000351 .LASF123
     /tmp/ccNoxOHy.s:3137   .debug_str:00000000000005f5 .LASF33
     /tmp/ccNoxOHy.s:3083   .debug_str:0000000000000473 .LASF34
     /tmp/ccNoxOHy.s:3037   .debug_str:0000000000000333 .LASF35
     /tmp/ccNoxOHy.s:2957   .debug_str:00000000000000a0 .LASF36
     /tmp/ccNoxOHy.s:2993   .debug_str:00000000000001a4 .LASF38
     /tmp/ccNoxOHy.s:3139   .debug_str:00000000000005fe .LASF37
     /tmp/ccNoxOHy.s:3027   .debug_str:00000000000002ef .LASF39
     /tmp/ccNoxOHy.s:2943   .debug_str:000000000000004b .LASF43
     /tmp/ccNoxOHy.s:2997   .debug_str:00000000000001c9 .LASF45
     /tmp/ccNoxOHy.s:2991   .debug_str:000000000000019b .LASF40
     /tmp/ccNoxOHy.s:2989   .debug_str:0000000000000186 .LASF42
     /tmp/ccNoxOHy.s:3131   .debug_str:00000000000005d0 .LASF44
     /tmp/ccNoxOHy.s:3113   .debug_str:000000000000053b .LASF46
     /tmp/ccNoxOHy.s:3119   .debug_str:0000000000000564 .LASF47
     /tmp/ccNoxOHy.s:3013   .debug_str:0000000000000257 .LASF48
     /tmp/ccNoxOHy.s:3005   .debug_str:0000000000000209 .LASF49
     /tmp/ccNoxOHy.s:2977   .debug_str:0000000000000118 .LASF50
GAS LISTING /tmp/ccNoxOHy.s 			page 21


     /tmp/ccNoxOHy.s:2937   .debug_str:0000000000000015 .LASF51
     /tmp/ccNoxOHy.s:3021   .debug_str:00000000000002ac .LASF52
     /tmp/ccNoxOHy.s:3071   .debug_str:0000000000000449 .LASF53
     /tmp/ccNoxOHy.s:3175   .debug_str:000000000000079d .LASF54
     /tmp/ccNoxOHy.s:2953   .debug_str:0000000000000083 .LASF55
     /tmp/ccNoxOHy.s:3003   .debug_str:00000000000001f6 .LASF56
     /tmp/ccNoxOHy.s:3011   .debug_str:0000000000000251 .LASF57
     /tmp/ccNoxOHy.s:3145   .debug_str:0000000000000617 .LASF58
     /tmp/ccNoxOHy.s:2949   .debug_str:0000000000000066 .LASF59
     /tmp/ccNoxOHy.s:3191   .debug_str:0000000000000815 .LASF60
     /tmp/ccNoxOHy.s:3183   .debug_str:00000000000007e5 .LASF61
     /tmp/ccNoxOHy.s:3127   .debug_str:00000000000005a6 .LASF62
     /tmp/ccNoxOHy.s:3087   .debug_str:0000000000000482 .LASF63
     /tmp/ccNoxOHy.s:3045   .debug_str:000000000000035c .LASF64
     /tmp/ccNoxOHy.s:2963   .debug_str:00000000000000c5 .LASF65
     /tmp/ccNoxOHy.s:3025   .debug_str:00000000000002d9 .LASF66
     /tmp/ccNoxOHy.s:3061   .debug_str:00000000000003e2 .LASF67
     /tmp/ccNoxOHy.s:3019   .debug_str:0000000000000296 .LASF68
     /tmp/ccNoxOHy.s:2967   .debug_str:00000000000000db .LASF70
     /tmp/ccNoxOHy.s:3187   .debug_str:00000000000007f5 .LASF72
     /tmp/ccNoxOHy.s:2933   .debug_str:0000000000000000 .LASF73
     /tmp/ccNoxOHy.s:2947   .debug_str:000000000000005e .LASF124
     /tmp/ccNoxOHy.s:3041   .debug_str:0000000000000344 .LASF74
     /tmp/ccNoxOHy.s:3177   .debug_str:00000000000007b0 .LASF75
     /tmp/ccNoxOHy.s:3117   .debug_str:000000000000055f .LASF125
     /tmp/ccNoxOHy.s:3095   .debug_str:00000000000004ba .LASF78
     /tmp/ccNoxOHy.s:3047   .debug_str:0000000000000374 .LASF80
     /tmp/ccNoxOHy.s:3059   .debug_str:00000000000003d6 .LASF76
     /tmp/ccNoxOHy.s:2979   .debug_str:000000000000012c .LASF77
     /tmp/ccNoxOHy.s:2945   .debug_str:0000000000000054 .LASF79
     /tmp/ccNoxOHy.s:3099   .debug_str:00000000000004ce .LASF81
     /tmp/ccNoxOHy.s:3033   .debug_str:000000000000031f .LASF82
     /tmp/ccNoxOHy.s:3049   .debug_str:000000000000038a .LASF83
     /tmp/ccNoxOHy.s:3051   .debug_str:00000000000003a0 .LASF84
     /tmp/ccNoxOHy.s:3103   .debug_str:00000000000004ee .LASF85
     /tmp/ccNoxOHy.s:3159   .debug_str:0000000000000730 .LASF86
     /tmp/ccNoxOHy.s:3163   .debug_str:000000000000074d .LASF87
     /tmp/ccNoxOHy.s:3135   .debug_str:00000000000005e9 .LASF88
     /tmp/ccNoxOHy.s:2951   .debug_str:000000000000006c .LASF89
     /tmp/ccNoxOHy.s:3055   .debug_str:00000000000003bd .LASF90
     /tmp/ccNoxOHy.s:3007   .debug_str:0000000000000211 .LASF91
     /tmp/ccNoxOHy.s:3125   .debug_str:00000000000005a0 .LASF92
     /tmp/ccNoxOHy.s:3173   .debug_str:000000000000078d .LASF93
     /tmp/ccNoxOHy.s:3073   .debug_str:0000000000000450 .LASF94
     /tmp/ccNoxOHy.s:2999   .debug_str:00000000000001de .LASF95
     /tmp/ccNoxOHy.s:3189   .debug_str:000000000000080d .LASF96
     /tmp/ccNoxOHy.s:3133   .debug_str:00000000000005d7 .LASF97
     /tmp/ccNoxOHy.s:3169   .debug_str:0000000000000780 .LASF98
     /tmp/ccNoxOHy.s:3115   .debug_str:000000000000054e .LASF99
     /tmp/ccNoxOHy.s:3039   .debug_str:000000000000033c .LASF100
     /tmp/ccNoxOHy.s:3153   .debug_str:000000000000070a .LASF101
     /tmp/ccNoxOHy.s:3075   .debug_str:0000000000000459 .LASF102
     /tmp/ccNoxOHy.s:3077   .debug_str:000000000000045f .LASF103
     /tmp/ccNoxOHy.s:3081   .debug_str:0000000000000469 .LASF104
     /tmp/ccNoxOHy.s:3035   .debug_str:000000000000032a .LASF105
     /tmp/ccNoxOHy.s:3065   .debug_str:0000000000000421 .LASF106
     /tmp/ccNoxOHy.s:2955   .debug_str:000000000000008a .LASF126
GAS LISTING /tmp/ccNoxOHy.s 			page 22


     /tmp/ccNoxOHy.s:3165   .debug_str:0000000000000765 .LASF127
     /tmp/ccNoxOHy.s:3009   .debug_str:0000000000000229 .LASF128
     /tmp/ccNoxOHy.s:2973   .debug_str:00000000000000f1 .LASF107
     /tmp/ccNoxOHy.s:27     .text:0000000000000000 .LFB27
     /tmp/ccNoxOHy.s:515    .text:0000000000000274 .LFE27
     /tmp/ccNoxOHy.s:3179   .debug_str:00000000000007d2 .LASF108
     /tmp/ccNoxOHy.s:2501   .debug_loc:0000000000000000 .LLST0
     /tmp/ccNoxOHy.s:3079   .debug_str:0000000000000464 .LASF109
     /tmp/ccNoxOHy.s:2532   .debug_loc:0000000000000087 .LLST1
     /tmp/ccNoxOHy.s:2563   .debug_loc:000000000000010e .LLST2
     /tmp/ccNoxOHy.s:2585   .debug_loc:000000000000016e .LLST3
     /tmp/ccNoxOHy.s:2607   .debug_loc:00000000000001ce .LLST4
     /tmp/ccNoxOHy.s:2629   .debug_loc:000000000000022e .LLST5
     /tmp/ccNoxOHy.s:2651   .debug_loc:000000000000028e .LLST6
     /tmp/ccNoxOHy.s:2673   .debug_loc:00000000000002f0 .LLST7
     /tmp/ccNoxOHy.s:2695   .debug_loc:0000000000000352 .LLST8
     /tmp/ccNoxOHy.s:2717   .debug_loc:00000000000003b4 .LLST9
     /tmp/ccNoxOHy.s:150    .text:0000000000000078 .LBB3
     /tmp/ccNoxOHy.s:433    .text:00000000000001cc .LBE3
     /tmp/ccNoxOHy.s:3091   .debug_str:00000000000004a0 .LASF110
     /tmp/ccNoxOHy.s:2802   .debug_loc:000000000000052e .LLST10
     /tmp/ccNoxOHy.s:246    .text:00000000000000b8 .LBB5
     /tmp/ccNoxOHy.s:412    .text:00000000000001b8 .LBE5
     /tmp/ccNoxOHy.s:2827   .debug_loc:00000000000005a0 .LLST11
     /tmp/ccNoxOHy.s:2848   .debug_loc:00000000000005ff .LLST12
     /tmp/ccNoxOHy.s:3141   .debug_str:000000000000060b .LASF111
     /tmp/ccNoxOHy.s:2860   .debug_loc:0000000000000637 .LLST13
     /tmp/ccNoxOHy.s:3097   .debug_str:00000000000004c5 .LASF112
     /tmp/ccNoxOHy.s:2872   .debug_loc:000000000000066e .LLST14
     /tmp/ccNoxOHy.s:2884   .debug_loc:00000000000006a5 .LLST15
     /tmp/ccNoxOHy.s:2896   .debug_loc:00000000000006dc .LLST16
     /tmp/ccNoxOHy.s:265    .text:00000000000000d8 .LVL26
     /tmp/ccNoxOHy.s:288    .text:00000000000000f4 .LVL29
     /tmp/ccNoxOHy.s:334    .text:0000000000000130 .LVL38
     /tmp/ccNoxOHy.s:378    .text:000000000000016c .LVL40
     /tmp/ccNoxOHy.s:383    .text:0000000000000178 .LVL41
     /tmp/ccNoxOHy.s:388    .text:0000000000000188 .LVL42
     /tmp/ccNoxOHy.s:393    .text:0000000000000194 .LVL43
     /tmp/ccNoxOHy.s:398    .text:00000000000001a4 .LVL44
     /tmp/ccNoxOHy.s:403    .text:00000000000001b0 .LVL45
     /tmp/ccNoxOHy.s:451    .text:00000000000001f0 .LVL52
     /tmp/ccNoxOHy.s:468    .text:0000000000000214 .LVL54
     /tmp/ccNoxOHy.s:479    .text:0000000000000228 .LVL56
     /tmp/ccNoxOHy.s:484    .text:0000000000000238 .LVL57
     /tmp/ccNoxOHy.s:489    .text:0000000000000244 .LVL58
     /tmp/ccNoxOHy.s:494    .text:0000000000000254 .LVL59
     /tmp/ccNoxOHy.s:499    .text:0000000000000260 .LVL60
     /tmp/ccNoxOHy.s:522    .text._ZN5Riscv6mc_sipEm:0000000000000000 .LFB10
     /tmp/ccNoxOHy.s:548    .text._ZN5Riscv6mc_sipEm:000000000000001c .LFE10
     /tmp/ccNoxOHy.s:2969   .debug_str:00000000000000e6 .LASF129
     /tmp/ccNoxOHy.s:2983   .debug_str:000000000000014a .LASF113
     /tmp/ccNoxOHy.s:3109   .debug_str:000000000000051d .LASF115
     /tmp/ccNoxOHy.s:3111   .debug_str:0000000000000529 .LASF114
     /tmp/ccNoxOHy.s:3167   .debug_str:0000000000000773 .LASF116
     /tmp/ccNoxOHy.s:2985   .debug_str:000000000000015d .LASF117
     /tmp/ccNoxOHy.s:3151   .debug_str:00000000000006fc .LASF118
     /tmp/ccNoxOHy.s:3107   .debug_str:0000000000000515 .LASF119
GAS LISTING /tmp/ccNoxOHy.s 			page 23


     /tmp/ccNoxOHy.s:48     .text:0000000000000018 .LVL0
     /tmp/ccNoxOHy.s:55     .text:000000000000001c .LVL1
     /tmp/ccNoxOHy.s:438    .text:00000000000001d4 .LVL50
     /tmp/ccNoxOHy.s:443    .text:00000000000001d8 .LVL51
     /tmp/ccNoxOHy.s:509    .text:000000000000026c .LVL61
     /tmp/ccNoxOHy.s:512    .text:0000000000000270 .LVL62
     /tmp/ccNoxOHy.s:58     .text:0000000000000020 .LVL2
     /tmp/ccNoxOHy.s:66     .text:0000000000000024 .LVL3
     /tmp/ccNoxOHy.s:421    .text:00000000000001c0 .LVL48
     /tmp/ccNoxOHy.s:424    .text:00000000000001c4 .LVL49
     /tmp/ccNoxOHy.s:69     .text:0000000000000028 .LVL4
     /tmp/ccNoxOHy.s:76     .text:000000000000002c .LVL5
     /tmp/ccNoxOHy.s:79     .text:0000000000000030 .LVL6
     /tmp/ccNoxOHy.s:86     .text:0000000000000034 .LVL7
     /tmp/ccNoxOHy.s:89     .text:0000000000000038 .LVL8
     /tmp/ccNoxOHy.s:96     .text:000000000000003c .LVL9
     /tmp/ccNoxOHy.s:99     .text:0000000000000040 .LVL10
     /tmp/ccNoxOHy.s:106    .text:0000000000000044 .LVL11
     /tmp/ccNoxOHy.s:109    .text:0000000000000048 .LVL12
     /tmp/ccNoxOHy.s:116    .text:000000000000004c .LVL13
     /tmp/ccNoxOHy.s:119    .text:0000000000000050 .LVL14
     /tmp/ccNoxOHy.s:126    .text:0000000000000054 .LVL15
     /tmp/ccNoxOHy.s:129    .text:0000000000000058 .LVL16
     /tmp/ccNoxOHy.s:136    .text:000000000000005c .LVL17
     /tmp/ccNoxOHy.s:139    .text:0000000000000060 .LVL18
     /tmp/ccNoxOHy.s:275    .text:00000000000000e0 .LVL27
     /tmp/ccNoxOHy.s:298    .text:00000000000000fc .LVL30
     /tmp/ccNoxOHy.s:371    .text:000000000000015c .LVL39
     /tmp/ccNoxOHy.s:406    .text:00000000000001b4 .LVL46
     /tmp/ccNoxOHy.s:410    .text:00000000000001b8 .LVL47
     /tmp/ccNoxOHy.s:455    .text:00000000000001f4 .LVL53
     /tmp/ccNoxOHy.s:472    .text:0000000000000218 .LVL55
     /tmp/ccNoxOHy.s:155    .text:0000000000000080 .LVL19
     /tmp/ccNoxOHy.s:159    .text:0000000000000088 .LVL20
     /tmp/ccNoxOHy.s:163    .text:0000000000000094 .LVL21
     /tmp/ccNoxOHy.s:165    .text:000000000000009c .LVL22
     /tmp/ccNoxOHy.s:253    .text:00000000000000c0 .LVL23
     /tmp/ccNoxOHy.s:258    .text:00000000000000c8 .LVL24
     /tmp/ccNoxOHy.s:260    .text:00000000000000cc .LVL25
     /tmp/ccNoxOHy.s:283    .text:00000000000000e8 .LVL28
     /tmp/ccNoxOHy.s:306    .text:0000000000000104 .LVL31
     /tmp/ccNoxOHy.s:311    .text:0000000000000108 .LVL32
     /tmp/ccNoxOHy.s:313    .text:000000000000010c .LVL33
     /tmp/ccNoxOHy.s:318    .text:0000000000000110 .LVL34
     /tmp/ccNoxOHy.s:320    .text:0000000000000114 .LVL35
     /tmp/ccNoxOHy.s:325    .text:0000000000000118 .LVL36
     /tmp/ccNoxOHy.s:327    .text:000000000000011c .LVL37
     /tmp/ccNoxOHy.s:559    .debug_info:0000000000000000 .Ldebug_info0
     /tmp/ccNoxOHy.s:5      .text:0000000000000000 .Ltext0
     /tmp/ccNoxOHy.s:551    .text:0000000000000274 .Letext0

UNDEFINED SYMBOLS
_ZN15MemoryAllocator7kmallocEm
_ZN15MemoryAllocator5kfreeEPv
_ZN3TCB12createThreadEPFvPvES0_Pm
_Z11printStringPKc
_Z12printIntegerm
GAS LISTING /tmp/ccNoxOHy.s 			page 24


console_handler
_Z7printlnPKc
