GAS LISTING /tmp/cc4O7tPZ.s 			page 1


   1              		.file	"interruptRoutine.cpp"
   2              		.option pic
   3              		.option norelax
   4              		.text
   5              	.Ltext0:
   6              		.section	.rodata
   7              		.align	3
   8              	.LC0:
   9 0000 0A4E6570 		.string	"\nNepostojeci op code: "
   9      6F73746F 
   9      6A656369 
   9      206F7020 
   9      636F6465 
  10 0017 00       		.align	3
  11              	.LC1:
  12 0018 0A736361 		.string	"\nscause: "
  12      7573653A 
  12      2000
  13 0022 00000000 		.align	3
  13      0000
  14              	.LC2:
  15 0028 0A736570 		.string	"\nsepc: "
  15      633A2000 
  16              		.align	3
  17              	.LC3:
  18 0030 4E656B69 		.string	"Neki drugi prekid\n"
  18      20647275 
  18      67692070 
  18      72656B69 
  18      640A00
  19 0043 00000000 		.align	3
  19      00
  20              	.LC4:
  21 0048 0A477265 		.string	"\nGreska u prekidnoj rutini\n"
  21      736B6120 
  21      75207072 
  21      656B6964 
  21      6E6F6A20 
  22 0064 00000000 		.align	3
  23              	.LC5:
  24 0068 73636175 		.string	"scause: "
  24      73653A20 
  24      00
  25              		.text
  26              		.align	2
  27              		.globl	interruptRoutine
  29              	interruptRoutine:
  30              	.LFB51:
  31              		.file 1 "src/interruptRoutine.cpp"
   1:src/interruptRoutine.cpp **** //
   2:src/interruptRoutine.cpp **** // Created by os on 5/22/23.
   3:src/interruptRoutine.cpp **** //
   4:src/interruptRoutine.cpp **** 
   5:src/interruptRoutine.cpp **** #include "../lib/console.h"
   6:src/interruptRoutine.cpp **** #include "../lib/hw.h"
   7:src/interruptRoutine.cpp **** #include "../h/MemoryAllocator.hpp"
   8:src/interruptRoutine.cpp **** #include "../h/helper.hpp"
GAS LISTING /tmp/cc4O7tPZ.s 			page 2


   9:src/interruptRoutine.cpp **** #include "../h/Riscv.hpp"
  10:src/interruptRoutine.cpp **** #include "../h/syscall_c.hpp"
  11:src/interruptRoutine.cpp **** #include "../h/TCB.hpp"
  12:src/interruptRoutine.cpp **** #include "../h/Scheduler.hpp"
  13:src/interruptRoutine.cpp **** #include "../h/KSem.hpp"
  14:src/interruptRoutine.cpp **** #include "../h/KConsole.hpp"
  15:src/interruptRoutine.cpp **** 
  16:src/interruptRoutine.cpp **** #include "../test/printing.hpp"
  17:src/interruptRoutine.cpp **** 
  18:src/interruptRoutine.cpp **** //void printInteger(int i);
  19:src/interruptRoutine.cpp **** 
  20:src/interruptRoutine.cpp **** #pragma GCC optimize("O0")
  21:src/interruptRoutine.cpp **** extern "C" void interruptRoutine() {
  32              		.loc 1 21 36
  33              		.cfi_startproc
  34 0000 130101EC 		addi	sp,sp,-320
  35              		.cfi_def_cfa_offset 320
  36 0004 233C1112 		sd	ra,312(sp)
  37 0008 23388112 		sd	s0,304(sp)
  38              		.cfi_offset 1, -8
  39              		.cfi_offset 8, -16
  40 000c 13040114 		addi	s0,sp,320
  41              		.cfi_def_cfa 8, 0
  22:src/interruptRoutine.cpp **** 	uint64 scause, sepc, sstatus;
  42              		.loc 1 22 2
  23:src/interruptRoutine.cpp **** 	__asm__ volatile("csrr %[scause], scause":[scause] "=r"(scause): : "a5", "a0", "a1", "a2", "a3", "
  43              		.loc 1 23 2
  44              		.loc 1 23 116 is_stmt 0
  45              	#APP
  46              	# 23 "src/interruptRoutine.cpp" 1
  24              		__asm__ volatile("csrr %[sepc], sepc":[sepc] "=r"(sepc): : "a5", "a0", "a1", "a2", "a3", "a4", "a6
  47              		csrr t1, scause
  48              	# 0 "" 2
  49              	#NO_APP
  50 0014 233C64FC 		sd	t1,-40(s0)
  51              	.LVL0:
  52              		.loc 1 24 2 is_stmt 1
  53              		.loc 1 24 108 is_stmt 0
  54              	#APP
  55              	# 24 "src/interruptRoutine.cpp" 1
  25              		__asm__ volatile("csrr %[status], sstatus":[status] "=r"(
  56              		csrr t1, sepc
  57              	# 0 "" 2
  58              	.LVL1:
  59              	#NO_APP
  60 001c 233864FC 		sd	t1,-48(s0)
  61              	.LVL2:
  62              		.loc 1 25 2 is_stmt 1
  26:src/interruptRoutine.cpp **** 			sstatus): : "a5", "a0", "a1", "a2", "a3", "a4", "a6", "a7");
  63              		.loc 1 26 63 is_stmt 0
  64              	#APP
  65              	# 26 "src/interruptRoutine.cpp" 1
  27              		uint64 a0, a1, a2, a3, a4, a5, a6, a7;
  66              		csrr t1, sstatus
  67              	# 0 "" 2
  68              	.LVL3:
  69              	#NO_APP
GAS LISTING /tmp/cc4O7tPZ.s 			page 3


  70 0024 233464FC 		sd	t1,-56(s0)
  71              	.LVL4:
  72              		.loc 1 27 2 is_stmt 1
  28:src/interruptRoutine.cpp **** 	__asm__ volatile("mv %[ax], a0":[ax] "=r"(a0): : "a5", "a0", "a1", "a2", "a3", "a4", "a6", "a7");
  73              		.loc 1 28 2
  74              		.loc 1 28 98 is_stmt 0
  75              	#APP
  76              	# 28 "src/interruptRoutine.cpp" 1
  29              		__asm__ volatile("mv %[ax], a1":[ax] "=r"(a1): : "a5", "a0", "a1", "a2", "a3", "a4", "a6", "a7");
  77              		mv t1, a0
  78              	# 0 "" 2
  79              	.LVL5:
  80              	#NO_APP
  81 002c 233064FC 		sd	t1,-64(s0)
  82              	.LVL6:
  83              		.loc 1 29 2 is_stmt 1
  84              		.loc 1 29 98 is_stmt 0
  85              	#APP
  86              	# 29 "src/interruptRoutine.cpp" 1
  30              		__asm__ volatile("mv %[ax], a2":[ax] "=r"(a2): : "a5", "a0", "a1", "a2", "a3", "a4", "a6", "a7");
  87              		mv t1, a1
  88              	# 0 "" 2
  89              	.LVL7:
  90              	#NO_APP
  91 0034 233C64FA 		sd	t1,-72(s0)
  92              	.LVL8:
  93              		.loc 1 30 2 is_stmt 1
  94              		.loc 1 30 98 is_stmt 0
  95              	#APP
  96              	# 30 "src/interruptRoutine.cpp" 1
  31              		__asm__ volatile("mv %[ax], a3":[ax] "=r"(a3): : "a5", "a0", "a1", "a2", "a3", "a4", "a6", "a7");
  97              		mv t1, a2
  98              	# 0 "" 2
  99              	.LVL9:
 100              	#NO_APP
 101 003c 233864FA 		sd	t1,-80(s0)
 102              	.LVL10:
 103              		.loc 1 31 2 is_stmt 1
 104              		.loc 1 31 98 is_stmt 0
 105              	#APP
 106              	# 31 "src/interruptRoutine.cpp" 1
  32              		__asm__ volatile("mv %[ax], a4":[ax] "=r"(a4): : "a5", "a0", "a1", "a2", "a3", "a4", "a6", "a7");
 107              		mv t1, a3
 108              	# 0 "" 2
 109              	.LVL11:
 110              	#NO_APP
 111 0044 233464FA 		sd	t1,-88(s0)
 112              	.LVL12:
 113              		.loc 1 32 2 is_stmt 1
 114              		.loc 1 32 98 is_stmt 0
 115              	#APP
 116              	# 32 "src/interruptRoutine.cpp" 1
  33              		__asm__ volatile("mv %[ax], a5":[ax] "=r"(a5): : "a5", "a0", "a1", "a2", "a3", "a4", "a6", "a7");
 117              		mv t1, a4
 118              	# 0 "" 2
 119              	.LVL13:
 120              	#NO_APP
GAS LISTING /tmp/cc4O7tPZ.s 			page 4


 121 004c 233064FA 		sd	t1,-96(s0)
 122              	.LVL14:
 123              		.loc 1 33 2 is_stmt 1
 124              		.loc 1 33 98 is_stmt 0
 125              	#APP
 126              	# 33 "src/interruptRoutine.cpp" 1
  34              		__asm__ volatile("mv %[ax], a6":[ax] "=r"(a6): : "a5", "a0", "a1", "a2", "a3", "a4", "a6", "a7");
 127              		mv t1, a5
 128              	# 0 "" 2
 129              	.LVL15:
 130              	#NO_APP
 131 0054 233C64F8 		sd	t1,-104(s0)
 132              	.LVL16:
 133              		.loc 1 34 2 is_stmt 1
 134              		.loc 1 34 98 is_stmt 0
 135              	#APP
 136              	# 34 "src/interruptRoutine.cpp" 1
  35              		__asm__ volatile("mv %[ax], a7":[ax] "=r"(a7): : "a5", "a0", "a1", "a2", "a3", "a4", "a6", "a7");
 137              		mv t1, a6
 138              	# 0 "" 2
 139              	.LVL17:
 140              	#NO_APP
 141 005c 233864F8 		sd	t1,-112(s0)
 142              	.LVL18:
 143              		.loc 1 35 2 is_stmt 1
 144              		.loc 1 35 98 is_stmt 0
 145              	#APP
 146              	# 35 "src/interruptRoutine.cpp" 1
  36              	
 147              		mv t1, a7
 148              	# 0 "" 2
 149              	.LVL19:
 150              	#NO_APP
 151 0064 233464F8 		sd	t1,-120(s0)
 152              	.LVL20:
  37:src/interruptRoutine.cpp **** 	if (scause == 0x09 || scause == 0x08) {
 153              		.loc 1 37 2 is_stmt 1
 154              	.LBB2:
 155 0068 033784FD 		ld	a4,-40(s0)
 156 006c 93079000 		li	a5,9
 157 0070 6308F700 		beq	a4,a5,.L2
 158              		.loc 1 37 21 is_stmt 0 discriminator 1
 159 0074 033784FD 		ld	a4,-40(s0)
 160 0078 93078000 		li	a5,8
 161 007c 6316F750 		bne	a4,a5,.L3
 162              	.L2:
 163              	.LBB3:
  38:src/interruptRoutine.cpp **** 		//prekid zbog poziva ecall
  39:src/interruptRoutine.cpp **** 		uint64 opCode = a0;
 164              		.loc 1 39 3 is_stmt 1
 165              		.loc 1 39 10 is_stmt 0
 166 0080 833704FC 		ld	a5,-64(s0)
 167 0084 233CF4F6 		sd	a5,-136(s0)
 168              	.LVL21:
  40:src/interruptRoutine.cpp **** 		switch (opCode) {
 169              		.loc 1 40 3 is_stmt 1
 170              	.LBB4:
GAS LISTING /tmp/cc4O7tPZ.s 			page 5


 171 0088 033784F7 		ld	a4,-136(s0)
 172 008c 93071009 		li	a5,145
 173              	.LVL22:
 174 0090 6300F738 		beq	a4,a5,.L4
 175 0094 033784F7 		ld	a4,-136(s0)
 176 0098 93071009 		li	a5,145
 177 009c 63EEE744 		bgtu	a4,a5,.L5
 178 00a0 033784F7 		ld	a4,-136(s0)
 179 00a4 93070009 		li	a5,144
 180 00a8 6308F732 		beq	a4,a5,.L6
 181 00ac 033784F7 		ld	a4,-136(s0)
 182 00b0 93070009 		li	a5,144
 183 00b4 63E2E744 		bgtu	a4,a5,.L5
 184 00b8 033784F7 		ld	a4,-136(s0)
 185 00bc 93071008 		li	a5,129
 186 00c0 6300F730 		beq	a4,a5,.L7
 187 00c4 033784F7 		ld	a4,-136(s0)
 188 00c8 93071008 		li	a5,129
 189 00cc 63E6E742 		bgtu	a4,a5,.L5
 190 00d0 033784F7 		ld	a4,-136(s0)
 191 00d4 93072004 		li	a5,66
 192 00d8 63E2E704 		bgtu	a4,a5,.L8
 193 00dc 833784F7 		ld	a5,-136(s0)
 194 00e0 638C0740 		beqz	a5,.L5
 195 00e4 033784F7 		ld	a4,-136(s0)
 196 00e8 93072004 		li	a5,66
 197 00ec 63E6E740 		bgtu	a4,a5,.L5
 198 00f0 833784F7 		ld	a5,-136(s0)
 199 00f4 13972700 		slli	a4,a5,2
 200              	.LVL23:
 201 00f8 97070000 		lla	a5,.L10
 201      93870700 
 202              	.LVL24:
 203 0100 B307F700 		add	a5,a4,a5
 204 0104 83A70700 		lw	a5,0(a5)
 205 0108 1B870700 		sext.w	a4,a5
 206 010c 97070000 		lla	a5,.L10
 206      93870700 
 207 0114 B307F700 		add	a5,a4,a5
 208 0118 67800700 		jr	a5
 209              		.section	.rodata
 210 0071 000000   		.align	2
 211              		.align	2
 212              	.L10:
 213 0074 00000000 		.word	.L5-.L10
 214 0078 00000000 		.word	.L22-.L10
 215 007c 00000000 		.word	.L21-.L10
 216 0080 00000000 		.word	.L5-.L10
 217 0084 00000000 		.word	.L5-.L10
 218 0088 00000000 		.word	.L5-.L10
 219 008c 00000000 		.word	.L5-.L10
 220 0090 00000000 		.word	.L5-.L10
 221 0094 00000000 		.word	.L5-.L10
 222 0098 00000000 		.word	.L5-.L10
 223 009c 00000000 		.word	.L5-.L10
 224 00a0 00000000 		.word	.L5-.L10
 225 00a4 00000000 		.word	.L5-.L10
GAS LISTING /tmp/cc4O7tPZ.s 			page 6


 226 00a8 00000000 		.word	.L5-.L10
 227 00ac 00000000 		.word	.L5-.L10
 228 00b0 00000000 		.word	.L5-.L10
 229 00b4 00000000 		.word	.L5-.L10
 230 00b8 00000000 		.word	.L20-.L10
 231 00bc 00000000 		.word	.L19-.L10
 232 00c0 00000000 		.word	.L18-.L10
 233 00c4 00000000 		.word	.L17-.L10
 234 00c8 00000000 		.word	.L5-.L10
 235 00cc 00000000 		.word	.L5-.L10
 236 00d0 00000000 		.word	.L5-.L10
 237 00d4 00000000 		.word	.L5-.L10
 238 00d8 00000000 		.word	.L5-.L10
 239 00dc 00000000 		.word	.L5-.L10
 240 00e0 00000000 		.word	.L5-.L10
 241 00e4 00000000 		.word	.L5-.L10
 242 00e8 00000000 		.word	.L5-.L10
 243 00ec 00000000 		.word	.L5-.L10
 244 00f0 00000000 		.word	.L5-.L10
 245 00f4 00000000 		.word	.L5-.L10
 246 00f8 00000000 		.word	.L16-.L10
 247 00fc 00000000 		.word	.L15-.L10
 248 0100 00000000 		.word	.L14-.L10
 249 0104 00000000 		.word	.L13-.L10
 250 0108 00000000 		.word	.L5-.L10
 251 010c 00000000 		.word	.L5-.L10
 252 0110 00000000 		.word	.L5-.L10
 253 0114 00000000 		.word	.L5-.L10
 254 0118 00000000 		.word	.L5-.L10
 255 011c 00000000 		.word	.L5-.L10
 256 0120 00000000 		.word	.L5-.L10
 257 0124 00000000 		.word	.L5-.L10
 258 0128 00000000 		.word	.L5-.L10
 259 012c 00000000 		.word	.L5-.L10
 260 0130 00000000 		.word	.L5-.L10
 261 0134 00000000 		.word	.L5-.L10
 262 0138 00000000 		.word	.L12-.L10
 263 013c 00000000 		.word	.L5-.L10
 264 0140 00000000 		.word	.L5-.L10
 265 0144 00000000 		.word	.L5-.L10
 266 0148 00000000 		.word	.L5-.L10
 267 014c 00000000 		.word	.L5-.L10
 268 0150 00000000 		.word	.L5-.L10
 269 0154 00000000 		.word	.L5-.L10
 270 0158 00000000 		.word	.L5-.L10
 271 015c 00000000 		.word	.L5-.L10
 272 0160 00000000 		.word	.L5-.L10
 273 0164 00000000 		.word	.L5-.L10
 274 0168 00000000 		.word	.L5-.L10
 275 016c 00000000 		.word	.L5-.L10
 276 0170 00000000 		.word	.L5-.L10
 277 0174 00000000 		.word	.L5-.L10
 278 0178 00000000 		.word	.L11-.L10
 279 017c 00000000 		.word	.L9-.L10
 280              		.text
 281              	.LVL25:
 282              	.L8:
GAS LISTING /tmp/cc4O7tPZ.s 			page 7


 283 011c 033784F7 		ld	a4,-136(s0)
 284              	.LVL26:
 285 0120 93070008 		li	a5,128
 286 0124 630EF722 		beq	a4,a5,.L23
 287 0128 6F00003D 		j	.L5
 288              	.L22:
 289              	.LBB5:
  41:src/interruptRoutine.cpp **** 			case 0x01:
 290              		.loc 1 41 4
  42:src/interruptRoutine.cpp **** 				//mem_alloc
  43:src/interruptRoutine.cpp **** 				size_t size;
 291              		.loc 1 43 5
  44:src/interruptRoutine.cpp **** 				size = (size_t)a1;
 292              		.loc 1 44 5
 293              		.loc 1 44 10 is_stmt 0
 294 012c 833784FB 		ld	a5,-72(s0)
 295 0130 2338F4EC 		sd	a5,-304(s0)
 296              	.LVL27:
  45:src/interruptRoutine.cpp **** 				//__asm__ volatile("mv %[size], a1":[size] "=r"(size));
  46:src/interruptRoutine.cpp **** 				size = size * MEM_BLOCK_SIZE;
 297              		.loc 1 46 5 is_stmt 1
 298              		.loc 1 46 10 is_stmt 0
 299 0134 833704ED 		ld	a5,-304(s0)
 300 0138 93976700 		slli	a5,a5,6
 301              	.LVL28:
 302 013c 2338F4EC 		sd	a5,-304(s0)
 303              	.LVL29:
  47:src/interruptRoutine.cpp **** 				MemoryAllocator::kmalloc(size);
 304              		.loc 1 47 5 is_stmt 1
 305              		.loc 1 47 29 is_stmt 0
 306 0140 93053000 		li	a1,3
 307 0144 033504ED 		ld	a0,-304(s0)
 308 0148 97000000 		call	_ZN15MemoryAllocator7kmallocEmNS_7PurposeE@plt
 308      E7800000 
 309              	.LVL30:
  48:src/interruptRoutine.cpp **** 				__asm__ volatile("sd a0, 80(s0)");
 310              		.loc 1 48 5 is_stmt 1
 311              		.loc 1 48 38 is_stmt 0
 312              	#APP
 313              	# 48 "src/interruptRoutine.cpp" 1
  49              					break;
 314              		sd a0, 80(s0)
 315              	# 0 "" 2
 316              		.loc 1 49 5 is_stmt 1
 317              	#NO_APP
 318 0154 6F000041 		j	.L24
 319              	.LVL31:
 320              	.L21:
  50:src/interruptRoutine.cpp **** 			case 0x02:
 321              		.loc 1 50 4
  51:src/interruptRoutine.cpp **** 				//mem_free
  52:src/interruptRoutine.cpp **** 				void* ptr;
 322              		.loc 1 52 5
  53:src/interruptRoutine.cpp **** 				ptr = (void*)a1;
 323              		.loc 1 53 5
 324              		.loc 1 53 9 is_stmt 0
 325 0158 833784FB 		ld	a5,-72(s0)
GAS LISTING /tmp/cc4O7tPZ.s 			page 8


 326 015c 233CF4EC 		sd	a5,-296(s0)
 327              	.LVL32:
  54:src/interruptRoutine.cpp **** 				//__asm__ volatile("mv %[ptr], a1" :[ptr]"=r"(ptr));
  55:src/interruptRoutine.cpp **** 				MemoryAllocator::kfree(ptr);
 328              		.loc 1 55 5 is_stmt 1
 329              		.loc 1 55 27 is_stmt 0
 330 0160 033584ED 		ld	a0,-296(s0)
 331 0164 97000000 		call	_ZN15MemoryAllocator5kfreeEPv@plt
 331      E7800000 
 332              	.LVL33:
  56:src/interruptRoutine.cpp **** 				__asm__ volatile("sd a0, 80(s0)");
 333              		.loc 1 56 5 is_stmt 1
 334              		.loc 1 56 38 is_stmt 0
 335              	#APP
 336              	# 56 "src/interruptRoutine.cpp" 1
  57              					break;
 337              		sd a0, 80(s0)
 338              	# 0 "" 2
 339              		.loc 1 57 5 is_stmt 1
 340              	#NO_APP
 341 0170 6F00403F 		j	.L24
 342              	.LVL34:
 343              	.L20:
  58:src/interruptRoutine.cpp **** 			case 0x11:
 344              		.loc 1 58 4
  59:src/interruptRoutine.cpp **** 				//thread_create
  60:src/interruptRoutine.cpp **** 				thread_t* handle;
 345              		.loc 1 60 5
  61:src/interruptRoutine.cpp **** 				handle = (thread_t*)a1;
 346              		.loc 1 61 5
 347              		.loc 1 61 12 is_stmt 0
 348 0174 833784FB 		ld	a5,-72(s0)
 349 0178 233CF4EE 		sd	a5,-264(s0)
 350              	.LVL35:
  62:src/interruptRoutine.cpp **** 				void (* function)(void*);
 351              		.loc 1 62 5 is_stmt 1
  63:src/interruptRoutine.cpp **** 				function = (void (*)(void*))a2;
 352              		.loc 1 63 5
 353              		.loc 1 63 14 is_stmt 0
 354 017c 833704FB 		ld	a5,-80(s0)
 355              	.LVL36:
 356 0180 2338F4EE 		sd	a5,-272(s0)
 357              	.LVL37:
  64:src/interruptRoutine.cpp **** 				void* args;
 358              		.loc 1 64 5 is_stmt 1
  65:src/interruptRoutine.cpp **** 				args = (void*)a3;
 359              		.loc 1 65 5
 360              		.loc 1 65 10 is_stmt 0
 361 0184 833784FA 		ld	a5,-88(s0)
 362              	.LVL38:
 363 0188 2334F4EE 		sd	a5,-280(s0)
 364              	.LVL39:
  66:src/interruptRoutine.cpp **** 				uint64* sp;
 365              		.loc 1 66 5 is_stmt 1
  67:src/interruptRoutine.cpp **** 				sp = (uint64*)a4;
 366              		.loc 1 67 5
 367              		.loc 1 67 8 is_stmt 0
GAS LISTING /tmp/cc4O7tPZ.s 			page 9


 368 018c 833704FA 		ld	a5,-96(s0)
 369              	.LVL40:
 370 0190 2330F4EE 		sd	a5,-288(s0)
 371              	.LVL41:
  68:src/interruptRoutine.cpp **** 
  69:src/interruptRoutine.cpp **** 				*handle = TCB::createThread(function, args, sp);
 372              		.loc 1 69 5 is_stmt 1
 373              		.loc 1 69 32 is_stmt 0
 374 0194 033604EE 		ld	a2,-288(s0)
 375 0198 833584EE 		ld	a1,-280(s0)
 376 019c 033504EF 		ld	a0,-272(s0)
 377 01a0 97000000 		call	_ZN3TCB12createThreadEPFvPvES0_Pm@plt
 377      E7800000 
 378              	.LVL42:
 379 01a8 13070500 		mv	a4,a0
 380              		.loc 1 69 13
 381 01ac 833784EF 		ld	a5,-264(s0)
 382 01b0 23B0E700 		sd	a4,0(a5)
  70:src/interruptRoutine.cpp **** 				TCB::start(*handle);
 383              		.loc 1 70 5 is_stmt 1
 384              		.loc 1 70 15 is_stmt 0
 385 01b4 833784EF 		ld	a5,-264(s0)
 386 01b8 83B70700 		ld	a5,0(a5)
 387 01bc 13850700 		mv	a0,a5
 388 01c0 97000000 		call	_ZN3TCB5startEPS_@plt
 388      E7800000 
 389              	.LVL43:
  71:src/interruptRoutine.cpp **** 				if (*handle != nullptr) {
 390              		.loc 1 71 5 is_stmt 1
 391              		.loc 1 71 9 is_stmt 0
 392 01c8 833784EF 		ld	a5,-264(s0)
 393 01cc 83B70700 		ld	a5,0(a5)
 394              		.loc 1 71 5
 395 01d0 63860700 		beqz	a5,.L25
  72:src/interruptRoutine.cpp **** 					__asm__ volatile("li a0, 0");
 396              		.loc 1 72 6 is_stmt 1
 397              		.loc 1 72 34 is_stmt 0
 398              	#APP
 399              	# 72 "src/interruptRoutine.cpp" 1
  73              					} else {
 400              		li a0, 0
 401              	# 0 "" 2
 402              	#NO_APP
 403 01d8 6F008000 		j	.L26
 404              	.L25:
  74:src/interruptRoutine.cpp **** 					__asm__ volatile("li a0, -1");
 405              		.loc 1 74 6 is_stmt 1
 406              		.loc 1 74 35 is_stmt 0
 407              	#APP
 408              	# 74 "src/interruptRoutine.cpp" 1
  75              					}
 409              		li a0, -1
 410              	# 0 "" 2
 411              	#NO_APP
 412              	.L26:
  76:src/interruptRoutine.cpp **** 				__asm__ volatile("sd a0, 80(s0)");
 413              		.loc 1 76 5 is_stmt 1
GAS LISTING /tmp/cc4O7tPZ.s 			page 10


 414              		.loc 1 76 38 is_stmt 0
 415              	#APP
 416              	# 76 "src/interruptRoutine.cpp" 1
  77              					break;
 417              		sd a0, 80(s0)
 418              	# 0 "" 2
 419              		.loc 1 77 5 is_stmt 1
 420              	#NO_APP
 421 01e4 6F000038 		j	.L24
 422              	.LVL44:
 423              	.L19:
  78:src/interruptRoutine.cpp **** 			case 0x12:
 424              		.loc 1 78 4
  79:src/interruptRoutine.cpp **** 				//thread_exit
  80:src/interruptRoutine.cpp **** 				TCB::running->setFinished(true);
 425              		.loc 1 80 5
 426              		.loc 1 80 30 is_stmt 0
 427 01e8 97070000 		la	a5,_ZN3TCB7runningE
 427      83B70700 
 428 01f0 83B70700 		ld	a5,0(a5)
 429 01f4 93051000 		li	a1,1
 430 01f8 13850700 		mv	a0,a5
 431 01fc 97000000 		call	_ZN3TCB11setFinishedEb
 431      E7800000 
 432              	.LVL45:
  81:src/interruptRoutine.cpp **** 				TCB::releaseJoined();
 433              		.loc 1 81 5 is_stmt 1
 434              		.loc 1 81 23 is_stmt 0
 435 0204 97000000 		call	_ZN3TCB13releaseJoinedEv@plt
 435      E7800000 
 436              	.LVL46:
  82:src/interruptRoutine.cpp **** 				TCB::yield();
 437              		.loc 1 82 5 is_stmt 1
 438              		.loc 1 82 15 is_stmt 0
 439 020c 97000000 		call	_ZN3TCB5yieldEv@plt
 439      E7800000 
 440              	.LVL47:
  83:src/interruptRoutine.cpp **** 				break;
 441              		.loc 1 83 5 is_stmt 1
 442 0214 6F000035 		j	.L24
 443              	.LVL48:
 444              	.L18:
  84:src/interruptRoutine.cpp **** 			case 0x13:
 445              		.loc 1 84 4
  85:src/interruptRoutine.cpp **** 				//thread_dispatch
  86:src/interruptRoutine.cpp **** 				TCB::yield();
 446              		.loc 1 86 5
 447              		.loc 1 86 15 is_stmt 0
 448 0218 97000000 		call	_ZN3TCB5yieldEv@plt
 448      E7800000 
 449              	.LVL49:
  87:src/interruptRoutine.cpp **** 				break;
 450              		.loc 1 87 5 is_stmt 1
 451 0220 6F004034 		j	.L24
 452              	.LVL50:
 453              	.L17:
  88:src/interruptRoutine.cpp **** 			case 0x14:
GAS LISTING /tmp/cc4O7tPZ.s 			page 11


 454              		.loc 1 88 4
  89:src/interruptRoutine.cpp **** 				//thread_join
  90:src/interruptRoutine.cpp **** 				thread_t handleToJoin;
 455              		.loc 1 90 5
  91:src/interruptRoutine.cpp **** 				handleToJoin = (thread_t)a1;
 456              		.loc 1 91 5
 457              		.loc 1 91 18 is_stmt 0
 458 0224 833784FB 		ld	a5,-72(s0)
 459 0228 2330F4F0 		sd	a5,-256(s0)
 460              	.LVL51:
  92:src/interruptRoutine.cpp **** 				TCB::threadJoin(handleToJoin);
 461              		.loc 1 92 5 is_stmt 1
 462              		.loc 1 92 20 is_stmt 0
 463 022c 033504F0 		ld	a0,-256(s0)
 464 0230 97000000 		call	_ZN3TCB10threadJoinEPS_@plt
 464      E7800000 
 465              	.LVL52:
  93:src/interruptRoutine.cpp **** 				TCB::yield();
 466              		.loc 1 93 5 is_stmt 1
 467              		.loc 1 93 15 is_stmt 0
 468 0238 97000000 		call	_ZN3TCB5yieldEv@plt
 468      E7800000 
 469              	.LVL53:
  94:src/interruptRoutine.cpp **** 				break;
 470              		.loc 1 94 5 is_stmt 1
 471 0240 6F004032 		j	.L24
 472              	.LVL54:
 473              	.L16:
  95:src/interruptRoutine.cpp **** 			case 0x21:
 474              		.loc 1 95 4
  96:src/interruptRoutine.cpp **** 				//sem_open
  97:src/interruptRoutine.cpp **** 				sem_t* openHandle;
 475              		.loc 1 97 5
  98:src/interruptRoutine.cpp **** 				openHandle = (sem_t*)a1;
 476              		.loc 1 98 5
 477              		.loc 1 98 16 is_stmt 0
 478 0244 833784FB 		ld	a5,-72(s0)
 479 0248 2338F4F0 		sd	a5,-240(s0)
 480              	.LVL55:
  99:src/interruptRoutine.cpp **** 				uint initVal;
 481              		.loc 1 99 5 is_stmt 1
 100:src/interruptRoutine.cpp **** 				initVal = (uint)a2;
 482              		.loc 1 100 5
 483              		.loc 1 100 13 is_stmt 0
 484 024c 833704FB 		ld	a5,-80(s0)
 485              	.LVL56:
 486 0250 2326F4F0 		sw	a5,-244(s0)
 487              	.LVL57:
 101:src/interruptRoutine.cpp **** 				*openHandle = KSem::initSem(initVal);
 488              		.loc 1 101 5 is_stmt 1
 489              		.loc 1 101 32 is_stmt 0
 490 0254 8327C4F0 		lw	a5,-244(s0)
 491              	.LVL58:
 492 0258 13850700 		mv	a0,a5
 493 025c 97000000 		call	_ZN4KSem7initSemEj@plt
 493      E7800000 
 494              	.LVL59:
GAS LISTING /tmp/cc4O7tPZ.s 			page 12


 495 0264 13070500 		mv	a4,a0
 496              		.loc 1 101 17
 497 0268 833704F1 		ld	a5,-240(s0)
 498 026c 23B0E700 		sd	a4,0(a5)
 102:src/interruptRoutine.cpp **** 				if (*openHandle != nullptr) {
 499              		.loc 1 102 5 is_stmt 1
 500              		.loc 1 102 9 is_stmt 0
 501 0270 833704F1 		ld	a5,-240(s0)
 502 0274 83B70700 		ld	a5,0(a5)
 503              		.loc 1 102 5
 504 0278 63860700 		beqz	a5,.L27
 103:src/interruptRoutine.cpp **** 					__asm__ volatile("li a0, 0");
 505              		.loc 1 103 6 is_stmt 1
 506              		.loc 1 103 34 is_stmt 0
 507              	#APP
 508              	# 103 "src/interruptRoutine.cpp" 1
 104              					} else {
 509              		li a0, 0
 510              	# 0 "" 2
 511              	#NO_APP
 512 0280 6F008000 		j	.L28
 513              	.L27:
 105:src/interruptRoutine.cpp **** 					__asm__ volatile("li a0, -1");
 514              		.loc 1 105 6 is_stmt 1
 515              		.loc 1 105 35 is_stmt 0
 516              	#APP
 517              	# 105 "src/interruptRoutine.cpp" 1
 106              					}
 518              		li a0, -1
 519              	# 0 "" 2
 520              	#NO_APP
 521              	.L28:
 107:src/interruptRoutine.cpp **** 				__asm__ volatile("sd a0, 80(s0)");
 522              		.loc 1 107 5 is_stmt 1
 523              		.loc 1 107 38 is_stmt 0
 524              	#APP
 525              	# 107 "src/interruptRoutine.cpp" 1
 108              					break;
 526              		sd a0, 80(s0)
 527              	# 0 "" 2
 528              		.loc 1 108 5 is_stmt 1
 529              	#NO_APP
 530 028c 6F00802D 		j	.L24
 531              	.LVL60:
 532              	.L15:
 109:src/interruptRoutine.cpp **** 			case 0x22:
 533              		.loc 1 109 4
 110:src/interruptRoutine.cpp **** 				//sem_close
 111:src/interruptRoutine.cpp **** 				sem_t closeHandle;
 534              		.loc 1 111 5
 112:src/interruptRoutine.cpp **** 				closeHandle = (sem_t)a1;
 535              		.loc 1 112 5
 536              		.loc 1 112 17 is_stmt 0
 537 0290 833784FB 		ld	a5,-72(s0)
 538 0294 233CF4F0 		sd	a5,-232(s0)
 539              	.LVL61:
 113:src/interruptRoutine.cpp **** 				KSem::closeSem(closeHandle);
GAS LISTING /tmp/cc4O7tPZ.s 			page 13


 540              		.loc 1 113 5 is_stmt 1
 541              		.loc 1 113 19 is_stmt 0
 542 0298 033584F1 		ld	a0,-232(s0)
 543 029c 97000000 		call	_ZN4KSem8closeSemEPS_@plt
 543      E7800000 
 544              	.LVL62:
 114:src/interruptRoutine.cpp **** 				__asm__ volatile("sd a0, 80(s0)");
 545              		.loc 1 114 5 is_stmt 1
 546              		.loc 1 114 38 is_stmt 0
 547              	#APP
 548              	# 114 "src/interruptRoutine.cpp" 1
 115              					break;
 549              		sd a0, 80(s0)
 550              	# 0 "" 2
 551              		.loc 1 115 5 is_stmt 1
 552              	#NO_APP
 553 02a8 6F00C02B 		j	.L24
 554              	.LVL63:
 555              	.L14:
 116:src/interruptRoutine.cpp **** 			case 0x23:
 556              		.loc 1 116 4
 117:src/interruptRoutine.cpp **** 				//sem_wait
 118:src/interruptRoutine.cpp **** 				sem_t waitHandle;
 557              		.loc 1 118 5
 119:src/interruptRoutine.cpp **** 				waitHandle = (sem_t)a1;
 558              		.loc 1 119 5
 559              		.loc 1 119 16 is_stmt 0
 560 02ac 833784FB 		ld	a5,-72(s0)
 561 02b0 2330F4F2 		sd	a5,-224(s0)
 562              	.LVL64:
 120:src/interruptRoutine.cpp **** 				waitHandle->wait();
 563              		.loc 1 120 5 is_stmt 1
 564              		.loc 1 120 21 is_stmt 0
 565 02b4 033504F2 		ld	a0,-224(s0)
 566 02b8 97000000 		call	_ZN4KSem4waitEv@plt
 566      E7800000 
 567              	.LVL65:
 121:src/interruptRoutine.cpp **** 				__asm__ volatile("sd a0, 80(s0)");
 568              		.loc 1 121 5 is_stmt 1
 569              		.loc 1 121 38 is_stmt 0
 570              	#APP
 571              	# 121 "src/interruptRoutine.cpp" 1
 122              					break;
 572              		sd a0, 80(s0)
 573              	# 0 "" 2
 574              		.loc 1 122 5 is_stmt 1
 575              	#NO_APP
 576 02c4 6F00002A 		j	.L24
 577              	.LVL66:
 578              	.L13:
 123:src/interruptRoutine.cpp **** 			case 0x24:
 579              		.loc 1 123 4
 124:src/interruptRoutine.cpp **** 				//sem_signal
 125:src/interruptRoutine.cpp **** 				sem_t signalHandle;
 580              		.loc 1 125 5
 126:src/interruptRoutine.cpp **** 				signalHandle = (sem_t)a1;
 581              		.loc 1 126 5
GAS LISTING /tmp/cc4O7tPZ.s 			page 14


 582              		.loc 1 126 18 is_stmt 0
 583 02c8 833784FB 		ld	a5,-72(s0)
 584 02cc 2334F4F2 		sd	a5,-216(s0)
 585              	.LVL67:
 127:src/interruptRoutine.cpp **** 				signalHandle->signal();
 586              		.loc 1 127 5 is_stmt 1
 587              		.loc 1 127 25 is_stmt 0
 588 02d0 033584F2 		ld	a0,-216(s0)
 589 02d4 97000000 		call	_ZN4KSem6signalEv@plt
 589      E7800000 
 590              	.LVL68:
 128:src/interruptRoutine.cpp **** 				__asm__ volatile("sd a0, 80(s0)");
 591              		.loc 1 128 5 is_stmt 1
 592              		.loc 1 128 38 is_stmt 0
 593              	#APP
 594              	# 128 "src/interruptRoutine.cpp" 1
 129              					break;
 595              		sd a0, 80(s0)
 596              	# 0 "" 2
 597              		.loc 1 129 5 is_stmt 1
 598              	#NO_APP
 599 02e0 6F004028 		j	.L24
 600              	.LVL69:
 601              	.L12:
 130:src/interruptRoutine.cpp **** 			case 0x31:
 602              		.loc 1 130 4
 131:src/interruptRoutine.cpp **** 				//time_sleep
 132:src/interruptRoutine.cpp **** 				time_t timerPeriods;
 603              		.loc 1 132 5
 133:src/interruptRoutine.cpp **** 				timerPeriods = (time_t)a1;
 604              		.loc 1 133 5
 605              		.loc 1 133 18 is_stmt 0
 606 02e4 833784FB 		ld	a5,-72(s0)
 607 02e8 2338F4F2 		sd	a5,-208(s0)
 608              	.LVL70:
 134:src/interruptRoutine.cpp **** 				if (timerPeriods > 0) {
 609              		.loc 1 134 5 is_stmt 1
 610 02ec 833704F3 		ld	a5,-208(s0)
 611 02f0 63860700 		beqz	a5,.L29
 135:src/interruptRoutine.cpp **** 					__asm__ volatile("li a0, 0");
 612              		.loc 1 135 6
 613              		.loc 1 135 34 is_stmt 0
 614              	#APP
 615              	# 135 "src/interruptRoutine.cpp" 1
 136              					} else {
 616              		li a0, 0
 617              	# 0 "" 2
 618              	#NO_APP
 619 02f8 6F008000 		j	.L30
 620              	.L29:
 137:src/interruptRoutine.cpp **** 					__asm__ volatile("li a0, -1");
 621              		.loc 1 137 6 is_stmt 1
 622              		.loc 1 137 35 is_stmt 0
 623              	#APP
 624              	# 137 "src/interruptRoutine.cpp" 1
 138              					}
 625              		li a0, -1
GAS LISTING /tmp/cc4O7tPZ.s 			page 15


 626              	# 0 "" 2
 627              	#NO_APP
 628              	.L30:
 139:src/interruptRoutine.cpp **** 				__asm__ volatile("sd a0, 80(s0)");
 629              		.loc 1 139 5 is_stmt 1
 630              		.loc 1 139 38 is_stmt 0
 631              	#APP
 632              	# 139 "src/interruptRoutine.cpp" 1
 140              					if (timerPeriods > 0) {
 633              		sd a0, 80(s0)
 634              	# 0 "" 2
 635              		.loc 1 140 5 is_stmt 1
 636              	#NO_APP
 637 0304 833704F3 		ld	a5,-208(s0)
 638              	.LVL71:
 639 0308 63840724 		beqz	a5,.L48
 141:src/interruptRoutine.cpp **** 					Scheduler::putToSleep(TCB::running, timerPeriods);
 640              		.loc 1 141 6
 641              		.loc 1 141 27 is_stmt 0
 642 030c 97070000 		la	a5,_ZN3TCB7runningE
 642      83B70700 
 643 0314 83B70700 		ld	a5,0(a5)
 644 0318 833504F3 		ld	a1,-208(s0)
 645 031c 13850700 		mv	a0,a5
 646 0320 97000000 		call	_ZN9Scheduler10putToSleepEP3TCBm@plt
 646      E7800000 
 647              	.LVL72:
 142:src/interruptRoutine.cpp **** 					TCB::yield();
 648              		.loc 1 142 6 is_stmt 1
 649              		.loc 1 142 16 is_stmt 0
 650 0328 97000000 		call	_ZN3TCB5yieldEv@plt
 650      E7800000 
 651              	.LVL73:
 143:src/interruptRoutine.cpp **** 				}
 144:src/interruptRoutine.cpp **** 				break;
 652              		.loc 1 144 5 is_stmt 1
 653 0330 6F000022 		j	.L48
 654              	.LVL74:
 655              	.L11:
 145:src/interruptRoutine.cpp **** 			case 0x41:
 656              		.loc 1 145 4
 146:src/interruptRoutine.cpp **** 				//getc
 147:src/interruptRoutine.cpp **** 				KConsole::kgetc();
 657              		.loc 1 147 5
 658              		.loc 1 147 20 is_stmt 0
 659 0334 97000000 		call	_ZN8KConsole5kgetcEv@plt
 659      E7800000 
 660              	.LVL75:
 148:src/interruptRoutine.cpp **** 				__asm__ volatile("sd a0, 80(s0)");
 661              		.loc 1 148 5 is_stmt 1
 662              		.loc 1 148 38 is_stmt 0
 663              	#APP
 664              	# 148 "src/interruptRoutine.cpp" 1
 149              					break;
 665              		sd a0, 80(s0)
 666              	# 0 "" 2
 667              		.loc 1 149 5 is_stmt 1
GAS LISTING /tmp/cc4O7tPZ.s 			page 16


 668              	#NO_APP
 669 0340 6F004022 		j	.L24
 670              	.LVL76:
 671              	.L9:
 150:src/interruptRoutine.cpp **** 			case 0x42:
 672              		.loc 1 150 4
 151:src/interruptRoutine.cpp **** 				//putc
 152:src/interruptRoutine.cpp **** 				char c;
 673              		.loc 1 152 5
 153:src/interruptRoutine.cpp **** 				c = (char)a1;
 674              		.loc 1 153 5
 675              		.loc 1 153 7 is_stmt 0
 676 0344 833784FB 		ld	a5,-72(s0)
 677 0348 A30FF4F2 		sb	a5,-193(s0)
 678              	.LVL77:
 154:src/interruptRoutine.cpp **** 				KConsole::kputc(c);
 679              		.loc 1 154 5 is_stmt 1
 680              		.loc 1 154 20 is_stmt 0
 681 034c 8347F4F3 		lbu	a5,-193(s0)
 682              	.LVL78:
 683 0350 13850700 		mv	a0,a5
 684 0354 97000000 		call	_ZN8KConsole5kputcEc@plt
 684      E7800000 
 685              	.LVL79:
 155:src/interruptRoutine.cpp **** 				break;
 686              		.loc 1 155 5 is_stmt 1
 687 035c 6F008020 		j	.L24
 688              	.LVL80:
 689              	.L23:
 156:src/interruptRoutine.cpp **** 			case 0x80:
 690              		.loc 1 156 4
 157:src/interruptRoutine.cpp **** 				//alloc thread
 158:src/interruptRoutine.cpp **** 				thread_t* handleAlloc;
 691              		.loc 1 158 5
 159:src/interruptRoutine.cpp **** 				handleAlloc = (thread_t*)a1;
 692              		.loc 1 159 5
 693              		.loc 1 159 17 is_stmt 0
 694 0360 833784FB 		ld	a5,-72(s0)
 695 0364 233CF4F4 		sd	a5,-168(s0)
 696              	.LVL81:
 160:src/interruptRoutine.cpp **** 				void (* foo)(void*);
 697              		.loc 1 160 5 is_stmt 1
 161:src/interruptRoutine.cpp **** 				foo = (void (*)(void*))a2;
 698              		.loc 1 161 5
 699              		.loc 1 161 9 is_stmt 0
 700 0368 833704FB 		ld	a5,-80(s0)
 701              	.LVL82:
 702 036c 2338F4F4 		sd	a5,-176(s0)
 703              	.LVL83:
 162:src/interruptRoutine.cpp **** 				void* argsAlloc;
 704              		.loc 1 162 5 is_stmt 1
 163:src/interruptRoutine.cpp **** 				argsAlloc = (void*)a3;
 705              		.loc 1 163 5
 706              		.loc 1 163 15 is_stmt 0
 707 0370 833784FA 		ld	a5,-88(s0)
 708              	.LVL84:
 709 0374 2334F4F4 		sd	a5,-184(s0)
GAS LISTING /tmp/cc4O7tPZ.s 			page 17


 710              	.LVL85:
 164:src/interruptRoutine.cpp **** 				uint64* spAlloc;
 711              		.loc 1 164 5 is_stmt 1
 165:src/interruptRoutine.cpp **** 				spAlloc = (uint64*)a4;
 712              		.loc 1 165 5
 713              		.loc 1 165 13 is_stmt 0
 714 0378 833704FA 		ld	a5,-96(s0)
 715              	.LVL86:
 716 037c 2330F4F4 		sd	a5,-192(s0)
 717              	.LVL87:
 166:src/interruptRoutine.cpp **** 
 167:src/interruptRoutine.cpp **** 				*handleAlloc = TCB::createThread(foo, argsAlloc, spAlloc);
 718              		.loc 1 167 5 is_stmt 1
 719              		.loc 1 167 37 is_stmt 0
 720 0380 033604F4 		ld	a2,-192(s0)
 721 0384 833584F4 		ld	a1,-184(s0)
 722 0388 033504F5 		ld	a0,-176(s0)
 723 038c 97000000 		call	_ZN3TCB12createThreadEPFvPvES0_Pm@plt
 723      E7800000 
 724              	.LVL88:
 725 0394 13070500 		mv	a4,a0
 726              		.loc 1 167 18
 727 0398 833784F5 		ld	a5,-168(s0)
 728 039c 23B0E700 		sd	a4,0(a5)
 168:src/interruptRoutine.cpp **** 				if (*handleAlloc != nullptr) {
 729              		.loc 1 168 5 is_stmt 1
 730              		.loc 1 168 9 is_stmt 0
 731 03a0 833784F5 		ld	a5,-168(s0)
 732 03a4 83B70700 		ld	a5,0(a5)
 733              		.loc 1 168 5
 734 03a8 63860700 		beqz	a5,.L32
 169:src/interruptRoutine.cpp **** 					__asm__ volatile("li a0, 0");
 735              		.loc 1 169 6 is_stmt 1
 736              		.loc 1 169 34 is_stmt 0
 737              	#APP
 738              	# 169 "src/interruptRoutine.cpp" 1
 170              					} else {
 739              		li a0, 0
 740              	# 0 "" 2
 741              	#NO_APP
 742 03b0 6F008000 		j	.L33
 743              	.L32:
 171:src/interruptRoutine.cpp **** 					__asm__ volatile("li a0, -1");
 744              		.loc 1 171 6 is_stmt 1
 745              		.loc 1 171 35 is_stmt 0
 746              	#APP
 747              	# 171 "src/interruptRoutine.cpp" 1
 172              					}
 748              		li a0, -1
 749              	# 0 "" 2
 750              	#NO_APP
 751              	.L33:
 173:src/interruptRoutine.cpp **** 				__asm__ volatile("sd a0, 80(s0)");
 752              		.loc 1 173 5 is_stmt 1
 753              		.loc 1 173 38 is_stmt 0
 754              	#APP
 755              	# 173 "src/interruptRoutine.cpp" 1
GAS LISTING /tmp/cc4O7tPZ.s 			page 18


 174              					break;
 756              		sd a0, 80(s0)
 757              	# 0 "" 2
 758              		.loc 1 174 5 is_stmt 1
 759              	#NO_APP
 760 03bc 6F00801A 		j	.L24
 761              	.LVL89:
 762              	.L7:
 175:src/interruptRoutine.cpp **** 			case 0x81:
 763              		.loc 1 175 4
 176:src/interruptRoutine.cpp **** 				//start thread
 177:src/interruptRoutine.cpp **** 				thread_t threadStartHandle;
 764              		.loc 1 177 5
 178:src/interruptRoutine.cpp **** 				threadStartHandle = (thread_t)a1;
 765              		.loc 1 178 5
 766              		.loc 1 178 23 is_stmt 0
 767 03c0 833784FB 		ld	a5,-72(s0)
 768 03c4 2330F4F6 		sd	a5,-160(s0)
 769              	.LVL90:
 179:src/interruptRoutine.cpp **** 				Scheduler::put(threadStartHandle);
 770              		.loc 1 179 5 is_stmt 1
 771              		.loc 1 179 19 is_stmt 0
 772 03c8 033504F6 		ld	a0,-160(s0)
 773 03cc 97000000 		call	_ZN9Scheduler3putEP3TCB@plt
 773      E7800000 
 774              	.LVL91:
 180:src/interruptRoutine.cpp **** 				break;
 775              		.loc 1 180 5 is_stmt 1
 776 03d4 6F000019 		j	.L24
 777              	.LVL92:
 778              	.L6:
 181:src/interruptRoutine.cpp **** 			case 0x90:
 779              		.loc 1 181 4
 182:src/interruptRoutine.cpp **** 				//printString
 183:src/interruptRoutine.cpp **** 				const char* string;
 780              		.loc 1 183 5
 184:src/interruptRoutine.cpp **** 				string = (const char*)a1;
 781              		.loc 1 184 5
 782              		.loc 1 184 12 is_stmt 0
 783 03d8 833784FB 		ld	a5,-72(s0)
 784 03dc 2334F4FE 		sd	a5,-24(s0)
 785              	.LVL93:
 786              	.L35:
 185:src/interruptRoutine.cpp **** 				while (*string != '\0') {
 787              		.loc 1 185 5 is_stmt 1
 788              		.loc 1 185 20
 789              		.loc 1 185 12 is_stmt 0
 790 03e0 833784FE 		ld	a5,-24(s0)
 791 03e4 83C70700 		lbu	a5,0(a5)
 792              		.loc 1 185 20
 793 03e8 63880716 		beqz	a5,.L49
 186:src/interruptRoutine.cpp **** 					putc(*string);
 794              		.loc 1 186 6 is_stmt 1
 795              		.loc 1 186 10 is_stmt 0
 796 03ec 833784FE 		ld	a5,-24(s0)
 797 03f0 83C70700 		lbu	a5,0(a5)
 798 03f4 13850700 		mv	a0,a5
GAS LISTING /tmp/cc4O7tPZ.s 			page 19


 799 03f8 97000000 		call	_Z4putcc@plt
 799      E7800000 
 800              	.LVL94:
 187:src/interruptRoutine.cpp **** 					string++;
 801              		.loc 1 187 6 is_stmt 1
 802              		.loc 1 187 12 is_stmt 0
 803 0400 833784FE 		ld	a5,-24(s0)
 804 0404 93871700 		addi	a5,a5,1
 805 0408 2334F4FE 		sd	a5,-24(s0)
 806              	.LVL95:
 185:src/interruptRoutine.cpp **** 				while (*string != '\0') {
 807              		.loc 1 185 5
 808 040c 6FF05FFD 		j	.L35
 809              	.LVL96:
 810              	.L4:
 188:src/interruptRoutine.cpp **** 				}
 189:src/interruptRoutine.cpp **** 				break;
 190:src/interruptRoutine.cpp **** 			case 0x91:
 811              		.loc 1 190 4 is_stmt 1
 191:src/interruptRoutine.cpp **** 				//printInteger
 192:src/interruptRoutine.cpp **** 				uint64 integer;
 812              		.loc 1 192 5
 193:src/interruptRoutine.cpp **** 				integer = a1;
 813              		.loc 1 193 5
 814              		.loc 1 193 13 is_stmt 0
 815 0410 833784FB 		ld	a5,-72(s0)
 816 0414 2338F4F6 		sd	a5,-144(s0)
 817              	.LVL97:
 194:src/interruptRoutine.cpp **** 				static char digits[] = "0123456789";
 818              		.loc 1 194 5 is_stmt 1
 195:src/interruptRoutine.cpp **** 				char buf[16];
 819              		.loc 1 195 5
 196:src/interruptRoutine.cpp **** 				int i, neg;
 820              		.loc 1 196 5
 197:src/interruptRoutine.cpp **** 				uint x;
 821              		.loc 1 197 5
 198:src/interruptRoutine.cpp **** 
 199:src/interruptRoutine.cpp **** 				neg = 0;
 822              		.loc 1 199 5
 823              		.loc 1 199 9 is_stmt 0
 824 0418 232604F6 		sw	zero,-148(s0)
 825              	.LVL98:
 200:src/interruptRoutine.cpp **** 				if (integer < 0) {
 826              		.loc 1 200 5 is_stmt 1
 201:src/interruptRoutine.cpp **** 					neg = 1;
 202:src/interruptRoutine.cpp **** 					x = -integer;
 203:src/interruptRoutine.cpp **** 				} else {
 204:src/interruptRoutine.cpp **** 					x = integer;
 827              		.loc 1 204 6
 828              		.loc 1 204 8 is_stmt 0
 829 041c 833704F7 		ld	a5,-144(s0)
 830 0420 2320F4FE 		sw	a5,-32(s0)
 831              	.LVL99:
 205:src/interruptRoutine.cpp **** 				}
 206:src/interruptRoutine.cpp **** 
 207:src/interruptRoutine.cpp **** 				i = 0;
 832              		.loc 1 207 5 is_stmt 1
GAS LISTING /tmp/cc4O7tPZ.s 			page 20


 833              		.loc 1 207 7 is_stmt 0
 834 0424 232204FE 		sw	zero,-28(s0)
 835              	.LVL100:
 836              	.L37:
 208:src/interruptRoutine.cpp **** 				do {
 837              		.loc 1 208 5 is_stmt 1
 209:src/interruptRoutine.cpp **** 					buf[i++] = digits[x % 10];
 838              		.loc 1 209 6
 839              		.loc 1 209 26 is_stmt 0
 840 0428 032704FE 		lw	a4,-32(s0)
 841 042c 9307A000 		li	a5,10
 842 0430 BB77F702 		remuw	a5,a4,a5
 843 0434 1B860700 		sext.w	a2,a5
 844              		.loc 1 209 11
 845 0438 832744FE 		lw	a5,-28(s0)
 846 043c 1B871700 		addiw	a4,a5,1
 847 0440 2322E4FE 		sw	a4,-28(s0)
 848              	.LVL101:
 849              		.loc 1 209 30
 850 0444 97060000 		lla	a3,_ZZ16interruptRoutineE6digits
 850      93860600 
 851 044c 13170602 		slli	a4,a2,32
 852 0450 13570702 		srli	a4,a4,32
 853              	.LVL102:
 854 0454 3387E600 		add	a4,a3,a4
 855 0458 03470700 		lbu	a4,0(a4)
 856              		.loc 1 209 15
 857 045c 930604FF 		addi	a3,s0,-16
 858 0460 B387F600 		add	a5,a3,a5
 859 0464 2388E7EC 		sb	a4,-304(a5)
 210:src/interruptRoutine.cpp **** 				} while ((x /= 10) != 0);
 860              		.loc 1 210 24 is_stmt 1
 861              		.loc 1 210 17 is_stmt 0
 862 0468 032704FE 		lw	a4,-32(s0)
 863 046c 9307A000 		li	a5,10
 864 0470 BB57F702 		divuw	a5,a4,a5
 865 0474 2320F4FE 		sw	a5,-32(s0)
 866              	.LVL103:
 867              		.loc 1 210 24
 868 0478 832704FE 		lw	a5,-32(s0)
 869 047c 9B870700 		sext.w	a5,a5
 870              	.LVL104:
 871 0480 B337F000 		snez	a5,a5
 872 0484 93F7F70F 		andi	a5,a5,0xff
 873 0488 63840700 		beqz	a5,.L36
 208:src/interruptRoutine.cpp **** 				do {
 874              		.loc 1 208 5
 875 048c 6FF0DFF9 		j	.L37
 876              	.L36:
 211:src/interruptRoutine.cpp **** 				if (neg) buf[i++] = '-';
 877              		.loc 1 211 5 is_stmt 1
 878 0490 8327C4F6 		lw	a5,-148(s0)
 879 0494 9B870700 		sext.w	a5,a5
 880 0498 63800702 		beqz	a5,.L40
 881              		.loc 1 211 14 discriminator 1
 882              		.loc 1 211 19 is_stmt 0 discriminator 1
 883 049c 832744FE 		lw	a5,-28(s0)
GAS LISTING /tmp/cc4O7tPZ.s 			page 21


 884 04a0 1B871700 		addiw	a4,a5,1
 885 04a4 2322E4FE 		sw	a4,-28(s0)
 886              	.LVL105:
 887              		.loc 1 211 23 discriminator 1
 888 04a8 130704FF 		addi	a4,s0,-16
 889              	.LVL106:
 890 04ac B307F700 		add	a5,a4,a5
 891 04b0 1307D002 		li	a4,45
 892 04b4 2388E7EC 		sb	a4,-304(a5)
 893              	.LVL107:
 894              	.L40:
 212:src/interruptRoutine.cpp **** 
 213:src/interruptRoutine.cpp **** 				while (--i >= 0) {
 895              		.loc 1 213 5 is_stmt 1
 896              		.loc 1 213 16
 897 04b8 832744FE 		lw	a5,-28(s0)
 898 04bc 9B87F7FF 		addiw	a5,a5,-1
 899 04c0 2322F4FE 		sw	a5,-28(s0)
 900              	.LVL108:
 901 04c4 832744FE 		lw	a5,-28(s0)
 902 04c8 93C7F7FF 		not	a5,a5
 903              	.LVL109:
 904 04cc 9BD7F701 		srliw	a5,a5,31
 905 04d0 93F7F70F 		andi	a5,a5,0xff
 906 04d4 63860708 		beqz	a5,.L50
 214:src/interruptRoutine.cpp **** 					putc(buf[i]);
 907              		.loc 1 214 6
 908              		.loc 1 214 10 is_stmt 0
 909 04d8 832744FE 		lw	a5,-28(s0)
 910 04dc 130704FF 		addi	a4,s0,-16
 911 04e0 B307F700 		add	a5,a4,a5
 912 04e4 83C707ED 		lbu	a5,-304(a5)
 913 04e8 13850700 		mv	a0,a5
 914 04ec 97000000 		call	_Z4putcc@plt
 914      E7800000 
 915              	.LVL110:
 213:src/interruptRoutine.cpp **** 					putc(buf[i]);
 916              		.loc 1 213 5
 917 04f4 6FF05FFC 		j	.L40
 918              	.LVL111:
 919              	.L5:
 215:src/interruptRoutine.cpp **** 				}
 216:src/interruptRoutine.cpp **** 				break;
 217:src/interruptRoutine.cpp **** 			default:
 920              		.loc 1 217 4 is_stmt 1
 218:src/interruptRoutine.cpp **** 				printString("\nNepostojeci op code: ");
 921              		.loc 1 218 5
 922              		.loc 1 218 16 is_stmt 0
 923 04f8 17050000 		lla	a0,.LC0
 923      13050500 
 924 0500 97000000 		call	_Z11printStringPKc@plt
 924      E7800000 
 925              	.LVL112:
 219:src/interruptRoutine.cpp **** 				printInteger(opCode);
 926              		.loc 1 219 5 is_stmt 1
 927              		.loc 1 219 17 is_stmt 0
 928 0508 033584F7 		ld	a0,-136(s0)
GAS LISTING /tmp/cc4O7tPZ.s 			page 22


 929 050c 97000000 		call	_Z12printIntegerm@plt
 929      E7800000 
 930              	.LVL113:
 220:src/interruptRoutine.cpp **** 				printString("\nscause: ");
 931              		.loc 1 220 5 is_stmt 1
 932              		.loc 1 220 16 is_stmt 0
 933 0514 17050000 		lla	a0,.LC1
 933      13050500 
 934 051c 97000000 		call	_Z11printStringPKc@plt
 934      E7800000 
 935              	.LVL114:
 221:src/interruptRoutine.cpp **** 				printInteger(scause);
 936              		.loc 1 221 5 is_stmt 1
 937              		.loc 1 221 17 is_stmt 0
 938 0524 033584FD 		ld	a0,-40(s0)
 939 0528 97000000 		call	_Z12printIntegerm@plt
 939      E7800000 
 940              	.LVL115:
 222:src/interruptRoutine.cpp **** 				printString("\nsepc: ");
 941              		.loc 1 222 5 is_stmt 1
 942              		.loc 1 222 16 is_stmt 0
 943 0530 17050000 		lla	a0,.LC2
 943      13050500 
 944 0538 97000000 		call	_Z11printStringPKc@plt
 944      E7800000 
 945              	.LVL116:
 223:src/interruptRoutine.cpp **** 				printInteger(sepc);
 946              		.loc 1 223 5 is_stmt 1
 947              		.loc 1 223 17 is_stmt 0
 948 0540 033504FD 		ld	a0,-48(s0)
 949 0544 97000000 		call	_Z12printIntegerm@plt
 949      E7800000 
 950              	.LVL117:
 224:src/interruptRoutine.cpp **** 				break;
 951              		.loc 1 224 5 is_stmt 1
 952 054c 6F008001 		j	.L24
 953              	.LVL118:
 954              	.L48:
 144:src/interruptRoutine.cpp **** 			case 0x41:
 955              		.loc 1 144 5 is_stmt 0
 956 0550 13000000 		nop
 957 0554 6F000001 		j	.L24
 958              	.LVL119:
 959              	.L49:
 189:src/interruptRoutine.cpp **** 			case 0x91:
 960              		.loc 1 189 5
 961 0558 13000000 		nop
 962 055c 6F008000 		j	.L24
 963              	.LVL120:
 964              	.L50:
 216:src/interruptRoutine.cpp **** 			default:
 965              		.loc 1 216 5
 966 0560 13000000 		nop
 967              	.LVL121:
 968              	.L24:
 969              	.LBE5:
 970              	.LBE4:
GAS LISTING /tmp/cc4O7tPZ.s 			page 23


 225:src/interruptRoutine.cpp **** 		}
 226:src/interruptRoutine.cpp **** 		//sepc pokazuje na ecall instrukciju, treba preci na sledecu instrukciju
 227:src/interruptRoutine.cpp **** 		//sepc += 4;
 228:src/interruptRoutine.cpp **** 		__asm__ volatile("addi %[dst], %[src], 0x4":[dst]"=r"(sepc):[src]"r"(
 971              		.loc 1 228 3 is_stmt 1 discriminator 1
 229:src/interruptRoutine.cpp **** 				sepc):"a5", "a0", "a1", "a2", "a3", "a4", "a6", "a7");
 972              		.loc 1 229 58 is_stmt 0 discriminator 1
 973 0564 033304FD 		ld	t1,-48(s0)
 974              	#APP
 975              	# 229 "src/interruptRoutine.cpp" 1
 230              			__asm__ volatile("csrw sepc, %[sepc]": :[sepc] "r"(sepc):"a5", "a0", "a1", "a2", "a3", "a4", "a6"
 976              		addi t1, t1, 0x4
 977              	# 0 "" 2
 978              	.LVL122:
 979              	#NO_APP
 980 056c 233864FC 		sd	t1,-48(s0)
 981              	.LVL123:
 982              		.loc 1 230 3 is_stmt 1 discriminator 1
 983              		.loc 1 230 107 is_stmt 0 discriminator 1
 984 0570 033304FD 		ld	t1,-48(s0)
 985              	#APP
 986              	# 230 "src/interruptRoutine.cpp" 1
 231              			__asm__ volatile("csrw sstatus, %[stat]": :[stat]"r"(sstatus):"a5", "a0", "a1", "a2", "a3", "a4",
 987              		csrw sepc, t1
 988              	# 0 "" 2
 989              		.loc 1 231 3 is_stmt 1 discriminator 1
 990              		.loc 1 231 112 is_stmt 0 discriminator 1
 991              	#NO_APP
 992 0578 033384FC 		ld	t1,-56(s0)
 993              	.LVL124:
 994              	#APP
 995              	# 231 "src/interruptRoutine.cpp" 1
 232              			//Riscv::w_sepc(sepc + 4);
 996              		csrw sstatus, t1
 997              	# 0 "" 2
 998              	#NO_APP
 999              	.LBE3:
 1000 0580 13000000 		nop
 1001              	.LBE2:
 233:src/interruptRoutine.cpp **** 	} else if (scause == (1UL << 63 | 9)) {
 234:src/interruptRoutine.cpp **** 		//spoljasnji hardverski prekid (od konzole)
 235:src/interruptRoutine.cpp **** 		uint64 irq = plic_claim();
 236:src/interruptRoutine.cpp **** 		if (irq == CONSOLE_IRQ) {
 237:src/interruptRoutine.cpp **** 			if (*KConsole::sr & CONSOLE_RX_STATUS_BIT) {
 238:src/interruptRoutine.cpp **** 				KConsole::placeInInput(*KConsole::dr);
 239:src/interruptRoutine.cpp **** 			}
 240:src/interruptRoutine.cpp **** 			//printString("\nobradjen prekid konzole\n");
 241:src/interruptRoutine.cpp **** 			plic_complete(irq);
 242:src/interruptRoutine.cpp **** 		} else {
 243:src/interruptRoutine.cpp **** 			printString("Neki drugi prekid\n");
 244:src/interruptRoutine.cpp **** 		}
 245:src/interruptRoutine.cpp **** 		//console_handler();
 246:src/interruptRoutine.cpp **** 		Riscv::w_sepc(sepc);
 247:src/interruptRoutine.cpp **** 		Riscv::w_sstatus(sstatus);
 248:src/interruptRoutine.cpp **** 		Riscv::mc_sip(Riscv::SIP_SEIP);
 249:src/interruptRoutine.cpp **** 	} else if (scause == (1UL << 63 | 1)) {
 250:src/interruptRoutine.cpp **** 		//prekid od tajmera
GAS LISTING /tmp/cc4O7tPZ.s 			page 24


 251:src/interruptRoutine.cpp **** 		//printString("\nPrekid od tajmera\n");
 252:src/interruptRoutine.cpp **** 		Scheduler::wake();
 253:src/interruptRoutine.cpp **** 		TCB::runningTimeSlice++;
 254:src/interruptRoutine.cpp **** 		if (TCB::runningTimeSlice >= TCB::running->getTimeSlice()) {
 255:src/interruptRoutine.cpp **** 			//printString("\nMenjam kontekst\n");
 256:src/interruptRoutine.cpp **** 			TCB::yield();
 257:src/interruptRoutine.cpp **** 			TCB::runningTimeSlice = 0;
 258:src/interruptRoutine.cpp **** 		}
 259:src/interruptRoutine.cpp **** 
 260:src/interruptRoutine.cpp **** 		Riscv::w_sepc(sepc);
 261:src/interruptRoutine.cpp **** 		Riscv::w_sstatus(sstatus);
 262:src/interruptRoutine.cpp **** 		Riscv::mc_sip(Riscv::SIP_SSIP);
 263:src/interruptRoutine.cpp **** 	} else {
 264:src/interruptRoutine.cpp **** 		printString("\nGreska u prekidnoj rutini\n");
 265:src/interruptRoutine.cpp **** 		printString("scause: ");
 266:src/interruptRoutine.cpp **** 		printInteger(scause);
 267:src/interruptRoutine.cpp **** 		printString("\nsepc: ");
 268:src/interruptRoutine.cpp **** 		printInteger(sepc);
 269:src/interruptRoutine.cpp **** 	}
 270:src/interruptRoutine.cpp **** }
 1002              		.loc 1 270 1 discriminator 1
 1003 0584 6F00C01A 		j	.L51
 1004              	.LVL125:
 1005              	.L3:
 1006              	.LBB13:
 1007              	.LBB6:
 233:src/interruptRoutine.cpp **** 	} else if (scause == (1UL << 63 | 9)) {
 1008              		.loc 1 233 9 is_stmt 1
 1009              	.LBB7:
 1010 0588 033784FD 		ld	a4,-40(s0)
 1011              	.LVL126:
 1012 058c 9307F0FF 		li	a5,-1
 1013 0590 9397F703 		slli	a5,a5,63
 1014 0594 93879700 		addi	a5,a5,9
 1015 0598 6312F70A 		bne	a4,a5,.L42
 1016              	.LBB8:
 235:src/interruptRoutine.cpp **** 		if (irq == CONSOLE_IRQ) {
 1017              		.loc 1 235 3
 235:src/interruptRoutine.cpp **** 		if (irq == CONSOLE_IRQ) {
 1018              		.loc 1 235 26 is_stmt 0
 1019 059c 97000000 		call	plic_claim@plt
 1019      E7800000 
 1020              	.LVL127:
 1021 05a4 93070500 		mv	a5,a0
 235:src/interruptRoutine.cpp **** 		if (irq == CONSOLE_IRQ) {
 1022              		.loc 1 235 27
 1023 05a8 2330F4F8 		sd	a5,-128(s0)
 1024              	.LVL128:
 236:src/interruptRoutine.cpp **** 			if (*KConsole::sr & CONSOLE_RX_STATUS_BIT) {
 1025              		.loc 1 236 3 is_stmt 1
 1026 05ac 033704F8 		ld	a4,-128(s0)
 1027 05b0 9307A000 		li	a5,10
 1028 05b4 6318F704 		bne	a4,a5,.L43
 237:src/interruptRoutine.cpp **** 				KConsole::placeInInput(*KConsole::dr);
 1029              		.loc 1 237 4
 237:src/interruptRoutine.cpp **** 				KConsole::placeInInput(*KConsole::dr);
 1030              		.loc 1 237 8 is_stmt 0
GAS LISTING /tmp/cc4O7tPZ.s 			page 25


 1031 05b8 97070000 		la	a5,_ZN8KConsole2srE
 1031      83B70700 
 1032 05c0 83B70700 		ld	a5,0(a5)
 1033 05c4 83C70700 		lbu	a5,0(a5)
 237:src/interruptRoutine.cpp **** 				KConsole::placeInInput(*KConsole::dr);
 1034              		.loc 1 237 22
 1035 05c8 93F71700 		andi	a5,a5,1
 237:src/interruptRoutine.cpp **** 				KConsole::placeInInput(*KConsole::dr);
 1036              		.loc 1 237 4
 1037 05cc 63800702 		beqz	a5,.L44
 238:src/interruptRoutine.cpp **** 			}
 1038              		.loc 1 238 5 is_stmt 1
 238:src/interruptRoutine.cpp **** 			}
 1039              		.loc 1 238 27 is_stmt 0
 1040 05d0 97070000 		la	a5,_ZN8KConsole2drE
 1040      83B70700 
 1041 05d8 83B70700 		ld	a5,0(a5)
 1042 05dc 83C70700 		lbu	a5,0(a5)
 1043 05e0 13850700 		mv	a0,a5
 1044              	.LVL129:
 1045 05e4 97000000 		call	_ZN8KConsole12placeInInputEc@plt
 1045      E7800000 
 1046              	.LVL130:
 1047              	.L44:
 241:src/interruptRoutine.cpp **** 		} else {
 1048              		.loc 1 241 4 is_stmt 1
 241:src/interruptRoutine.cpp **** 		} else {
 1049              		.loc 1 241 17 is_stmt 0
 1050 05ec 833704F8 		ld	a5,-128(s0)
 1051 05f0 9B870700 		sext.w	a5,a5
 1052 05f4 13850700 		mv	a0,a5
 1053 05f8 97000000 		call	plic_complete@plt
 1053      E7800000 
 1054              	.LVL131:
 1055 0600 6F004001 		j	.L45
 1056              	.LVL132:
 1057              	.L43:
 243:src/interruptRoutine.cpp **** 		}
 1058              		.loc 1 243 4 is_stmt 1
 243:src/interruptRoutine.cpp **** 		}
 1059              		.loc 1 243 15 is_stmt 0
 1060 0604 17050000 		lla	a0,.LC3
 1060      13050500 
 1061              	.LVL133:
 1062 060c 97000000 		call	_Z11printStringPKc@plt
 1062      E7800000 
 1063              	.LVL134:
 1064              	.L45:
 246:src/interruptRoutine.cpp **** 		Riscv::w_sstatus(sstatus);
 1065              		.loc 1 246 3 is_stmt 1
 246:src/interruptRoutine.cpp **** 		Riscv::w_sstatus(sstatus);
 1066              		.loc 1 246 16 is_stmt 0
 1067 0614 033504FD 		ld	a0,-48(s0)
 1068 0618 97000000 		call	_ZN5Riscv6w_sepcEm
 1068      E7800000 
 1069              	.LVL135:
 247:src/interruptRoutine.cpp **** 		Riscv::mc_sip(Riscv::SIP_SEIP);
GAS LISTING /tmp/cc4O7tPZ.s 			page 26


 1070              		.loc 1 247 3 is_stmt 1
 247:src/interruptRoutine.cpp **** 		Riscv::mc_sip(Riscv::SIP_SEIP);
 1071              		.loc 1 247 19 is_stmt 0
 1072 0620 033584FC 		ld	a0,-56(s0)
 1073 0624 97000000 		call	_ZN5Riscv9w_sstatusEm
 1073      E7800000 
 1074              	.LVL136:
 248:src/interruptRoutine.cpp **** 	} else if (scause == (1UL << 63 | 1)) {
 1075              		.loc 1 248 3 is_stmt 1
 248:src/interruptRoutine.cpp **** 	} else if (scause == (1UL << 63 | 1)) {
 1076              		.loc 1 248 16 is_stmt 0
 1077 062c 13050020 		li	a0,512
 1078 0630 97000000 		call	_ZN5Riscv6mc_sipEm
 1078      E7800000 
 1079              	.LVL137:
 1080              	.LBE8:
 1081              	.LBE7:
 1082              	.LBE6:
 1083              	.LBE13:
 1084              		.loc 1 270 1
 1085 0638 6F00800F 		j	.L51
 1086              	.LVL138:
 1087              	.L42:
 1088              	.LBB14:
 1089              	.LBB11:
 1090              	.LBB9:
 249:src/interruptRoutine.cpp **** 		//prekid od tajmera
 1091              		.loc 1 249 9 is_stmt 1
 1092 063c 033784FD 		ld	a4,-40(s0)
 1093 0640 9307F0FF 		li	a5,-1
 1094 0644 9397F703 		slli	a5,a5,63
 1095 0648 93871700 		addi	a5,a5,1
 1096 064c 631EF708 		bne	a4,a5,.L46
 252:src/interruptRoutine.cpp **** 		TCB::runningTimeSlice++;
 1097              		.loc 1 252 3
 252:src/interruptRoutine.cpp **** 		TCB::runningTimeSlice++;
 1098              		.loc 1 252 18 is_stmt 0
 1099 0650 97000000 		call	_ZN9Scheduler4wakeEv@plt
 1099      E7800000 
 1100              	.LVL139:
 253:src/interruptRoutine.cpp **** 		if (TCB::runningTimeSlice >= TCB::running->getTimeSlice()) {
 1101              		.loc 1 253 3 is_stmt 1
 253:src/interruptRoutine.cpp **** 		if (TCB::runningTimeSlice >= TCB::running->getTimeSlice()) {
 1102              		.loc 1 253 24 is_stmt 0
 1103 0658 97070000 		la	a5,_ZN3TCB16runningTimeSliceE
 1103      83B70700 
 1104 0660 83B70700 		ld	a5,0(a5)
 1105 0664 13871700 		addi	a4,a5,1
 1106 0668 97070000 		la	a5,_ZN3TCB16runningTimeSliceE
 1106      83B70700 
 1107 0670 23B0E700 		sd	a4,0(a5)
 254:src/interruptRoutine.cpp **** 			//printString("\nMenjam kontekst\n");
 1108              		.loc 1 254 3 is_stmt 1
 254:src/interruptRoutine.cpp **** 			//printString("\nMenjam kontekst\n");
 1109              		.loc 1 254 58 is_stmt 0
 1110 0674 97070000 		la	a5,_ZN3TCB7runningE
 1110      83B70700 
GAS LISTING /tmp/cc4O7tPZ.s 			page 27


 1111 067c 83B70700 		ld	a5,0(a5)
 1112 0680 13850700 		mv	a0,a5
 1113 0684 97000000 		call	_ZN3TCB12getTimeSliceEv
 1113      E7800000 
 1114              	.LVL140:
 1115 068c 13070500 		mv	a4,a0
 254:src/interruptRoutine.cpp **** 			//printString("\nMenjam kontekst\n");
 1116              		.loc 1 254 29
 1117 0690 97070000 		la	a5,_ZN3TCB16runningTimeSliceE
 1117      83B70700 
 1118 0698 83B70700 		ld	a5,0(a5)
 1119 069c B3B7E700 		sgtu	a5,a4,a5
 1120 06a0 93C71700 		xori	a5,a5,1
 1121 06a4 93F7F70F 		andi	a5,a5,0xff
 254:src/interruptRoutine.cpp **** 			//printString("\nMenjam kontekst\n");
 1122              		.loc 1 254 3
 1123 06a8 638C0700 		beqz	a5,.L47
 256:src/interruptRoutine.cpp **** 			TCB::runningTimeSlice = 0;
 1124              		.loc 1 256 4 is_stmt 1
 256:src/interruptRoutine.cpp **** 			TCB::runningTimeSlice = 0;
 1125              		.loc 1 256 14 is_stmt 0
 1126 06ac 97000000 		call	_ZN3TCB5yieldEv@plt
 1126      E7800000 
 1127              	.LVL141:
 257:src/interruptRoutine.cpp **** 		}
 1128              		.loc 1 257 4 is_stmt 1
 257:src/interruptRoutine.cpp **** 		}
 1129              		.loc 1 257 26 is_stmt 0
 1130 06b4 97070000 		la	a5,_ZN3TCB16runningTimeSliceE
 1130      83B70700 
 1131 06bc 23B00700 		sd	zero,0(a5)
 1132              	.L47:
 260:src/interruptRoutine.cpp **** 		Riscv::w_sstatus(sstatus);
 1133              		.loc 1 260 3 is_stmt 1
 260:src/interruptRoutine.cpp **** 		Riscv::w_sstatus(sstatus);
 1134              		.loc 1 260 16 is_stmt 0
 1135 06c0 033504FD 		ld	a0,-48(s0)
 1136 06c4 97000000 		call	_ZN5Riscv6w_sepcEm
 1136      E7800000 
 1137              	.LVL142:
 261:src/interruptRoutine.cpp **** 		Riscv::mc_sip(Riscv::SIP_SSIP);
 1138              		.loc 1 261 3 is_stmt 1
 261:src/interruptRoutine.cpp **** 		Riscv::mc_sip(Riscv::SIP_SSIP);
 1139              		.loc 1 261 19 is_stmt 0
 1140 06cc 033584FC 		ld	a0,-56(s0)
 1141 06d0 97000000 		call	_ZN5Riscv9w_sstatusEm
 1141      E7800000 
 1142              	.LVL143:
 262:src/interruptRoutine.cpp **** 	} else {
 1143              		.loc 1 262 3 is_stmt 1
 262:src/interruptRoutine.cpp **** 	} else {
 1144              		.loc 1 262 16 is_stmt 0
 1145 06d8 13052000 		li	a0,2
 1146 06dc 97000000 		call	_ZN5Riscv6mc_sipEm
 1146      E7800000 
 1147              	.LVL144:
 1148              	.LBE9:
GAS LISTING /tmp/cc4O7tPZ.s 			page 28


 1149              	.LBE11:
 1150              	.LBE14:
 1151              		.loc 1 270 1
 1152 06e4 6F00C004 		j	.L51
 1153              	.LVL145:
 1154              	.L46:
 1155              	.LBB15:
 1156              	.LBB12:
 1157              	.LBB10:
 264:src/interruptRoutine.cpp **** 		printString("scause: ");
 1158              		.loc 1 264 3 is_stmt 1
 264:src/interruptRoutine.cpp **** 		printString("scause: ");
 1159              		.loc 1 264 14 is_stmt 0
 1160 06e8 17050000 		lla	a0,.LC4
 1160      13050500 
 1161 06f0 97000000 		call	_Z11printStringPKc@plt
 1161      E7800000 
 1162              	.LVL146:
 265:src/interruptRoutine.cpp **** 		printInteger(scause);
 1163              		.loc 1 265 3 is_stmt 1
 265:src/interruptRoutine.cpp **** 		printInteger(scause);
 1164              		.loc 1 265 14 is_stmt 0
 1165 06f8 17050000 		lla	a0,.LC5
 1165      13050500 
 1166 0700 97000000 		call	_Z11printStringPKc@plt
 1166      E7800000 
 1167              	.LVL147:
 266:src/interruptRoutine.cpp **** 		printString("\nsepc: ");
 1168              		.loc 1 266 3 is_stmt 1
 266:src/interruptRoutine.cpp **** 		printString("\nsepc: ");
 1169              		.loc 1 266 15 is_stmt 0
 1170 0708 033584FD 		ld	a0,-40(s0)
 1171 070c 97000000 		call	_Z12printIntegerm@plt
 1171      E7800000 
 1172              	.LVL148:
 267:src/interruptRoutine.cpp **** 		printInteger(sepc);
 1173              		.loc 1 267 3 is_stmt 1
 267:src/interruptRoutine.cpp **** 		printInteger(sepc);
 1174              		.loc 1 267 14 is_stmt 0
 1175 0714 17050000 		lla	a0,.LC2
 1175      13050500 
 1176 071c 97000000 		call	_Z11printStringPKc@plt
 1176      E7800000 
 1177              	.LVL149:
 268:src/interruptRoutine.cpp **** 	}
 1178              		.loc 1 268 3 is_stmt 1
 268:src/interruptRoutine.cpp **** 	}
 1179              		.loc 1 268 15 is_stmt 0
 1180 0724 033504FD 		ld	a0,-48(s0)
 1181 0728 97000000 		call	_Z12printIntegerm@plt
 1181      E7800000 
 1182              	.LVL150:
 1183              	.L51:
 1184              	.LBE10:
 1185              	.LBE12:
 1186              	.LBE15:
 1187              		.loc 1 270 1
GAS LISTING /tmp/cc4O7tPZ.s 			page 29


 1188 0730 13000000 		nop
 1189 0734 83308113 		ld	ra,312(sp)
 1190              		.cfi_restore 1
 1191 0738 03340113 		ld	s0,304(sp)
 1192              		.cfi_restore 8
 1193              		.cfi_def_cfa 2, 320
 1194              	.LVL151:
 1195 073c 13010114 		addi	sp,sp,320
 1196              		.cfi_def_cfa_offset 0
 1197              	.LVL152:
 1198 0740 67800000 		jr	ra
 1199              		.cfi_endproc
 1200              	.LFE51:
 1202              		.section	.text._ZN5Riscv6w_sepcEm,"axG",@progbits,_ZN5Riscv6w_sepcEm,comdat
 1203              		.align	2
 1204              		.weak	_ZN5Riscv6w_sepcEm
 1206              	_ZN5Riscv6w_sepcEm:
 1207              	.LFB6:
 1208              		.file 2 "src/../h/Riscv.hpp"
   1:src/../h/Riscv.hpp **** //
   2:src/../h/Riscv.hpp **** // Created by os on 5/17/23.
   3:src/../h/Riscv.hpp **** //
   4:src/../h/Riscv.hpp **** 
   5:src/../h/Riscv.hpp **** #ifndef PROJEKAT2023_RISCV_HPP
   6:src/../h/Riscv.hpp **** #define PROJEKAT2023_RISCV_HPP
   7:src/../h/Riscv.hpp **** 
   8:src/../h/Riscv.hpp **** #include "../lib/hw.h"
   9:src/../h/Riscv.hpp **** 
  10:src/../h/Riscv.hpp **** class Riscv {
  11:src/../h/Riscv.hpp **** public:
  12:src/../h/Riscv.hpp **** 
  13:src/../h/Riscv.hpp **** 	static void popSppSpie();
  14:src/../h/Riscv.hpp **** 
  15:src/../h/Riscv.hpp **** 	//stavljanje registara x3-x31 na stek
  16:src/../h/Riscv.hpp **** 	static void pushRegisters();    //implementacija u asm
  17:src/../h/Riscv.hpp **** 
  18:src/../h/Riscv.hpp **** 	//skidanje registara x3-x31 sa steka
  19:src/../h/Riscv.hpp **** 	static void popRegisters();     //implementacija u asm
  20:src/../h/Riscv.hpp **** 
  21:src/../h/Riscv.hpp **** 	//read scause
  22:src/../h/Riscv.hpp **** 	static uint64 r_scause();
  23:src/../h/Riscv.hpp **** 
  24:src/../h/Riscv.hpp **** 	//write scause
  25:src/../h/Riscv.hpp **** 	static void w_scause(uint64 scause);
  26:src/../h/Riscv.hpp **** 
  27:src/../h/Riscv.hpp **** 	//read sepc
  28:src/../h/Riscv.hpp **** 	static uint64 r_sepc();
  29:src/../h/Riscv.hpp **** 
  30:src/../h/Riscv.hpp **** 	//write sepc
  31:src/../h/Riscv.hpp **** 	static void w_sepc(uint64 sepc);
  32:src/../h/Riscv.hpp **** 
  33:src/../h/Riscv.hpp **** 	//read stvec
  34:src/../h/Riscv.hpp **** 	static uint64 r_stvec();
  35:src/../h/Riscv.hpp **** 
  36:src/../h/Riscv.hpp **** 	//write stvec
  37:src/../h/Riscv.hpp **** 	static void w_stvec(uint64 stvec);
  38:src/../h/Riscv.hpp **** 
GAS LISTING /tmp/cc4O7tPZ.s 			page 30


  39:src/../h/Riscv.hpp **** 	enum BitMaskSip {
  40:src/../h/Riscv.hpp **** 		//postoji zahtev za softverski prekid
  41:src/../h/Riscv.hpp **** 		SIP_SSIP = (1 << 1),
  42:src/../h/Riscv.hpp **** 		//postoji prekid od tajmera
  43:src/../h/Riscv.hpp **** 		SIP_STIP = (1 << 5),
  44:src/../h/Riscv.hpp **** 		//postoji zahtev za spoljasnji hardverski prekid
  45:src/../h/Riscv.hpp **** 		SIP_SEIP = (1 << 9)
  46:src/../h/Riscv.hpp **** 	};
  47:src/../h/Riscv.hpp **** 
  48:src/../h/Riscv.hpp **** 	//mask set sip
  49:src/../h/Riscv.hpp **** 	static void ms_sip(uint64 mask);
  50:src/../h/Riscv.hpp **** 
  51:src/../h/Riscv.hpp **** 	//mask clear sip
  52:src/../h/Riscv.hpp **** 	static void mc_sip(uint64 mask);
  53:src/../h/Riscv.hpp **** 
  54:src/../h/Riscv.hpp **** 	//read sip
  55:src/../h/Riscv.hpp **** 	static uint64 r_sip();
  56:src/../h/Riscv.hpp **** 
  57:src/../h/Riscv.hpp **** 	//write sip
  58:src/../h/Riscv.hpp **** 	static void w_sip(uint64 sip);
  59:src/../h/Riscv.hpp **** 
  60:src/../h/Riscv.hpp **** 	//kada se pozove sret, SIE dobija vrednost SPIE, SPIE se postavlja na 1,
  61:src/../h/Riscv.hpp **** 	//rezim se postavlja na osnovu SPP bita, SPP se postavlja na 0
  62:src/../h/Riscv.hpp **** 	enum BitMaskSstatus {
  63:src/../h/Riscv.hpp **** 		//1 - dozvoljeni prekidi; 0- nedozvoljeni prekidi; igonrise se u korisnickom rezimu
  64:src/../h/Riscv.hpp **** 		SSTATUS_SIE = (1 << 1),
  65:src/../h/Riscv.hpp **** 		//prethodna vrednost bita SIE
  66:src/../h/Riscv.hpp **** 		SSTATUS_SPIE = (1 << 5),
  67:src/../h/Riscv.hpp **** 		//iz kog rezima se desio skok; 0 - iz korisnickog; 1 - iz sistemskog
  68:src/../h/Riscv.hpp **** 		SSTATUS_SPP = (1 << 8)
  69:src/../h/Riscv.hpp **** 	};
  70:src/../h/Riscv.hpp **** 
  71:src/../h/Riscv.hpp **** 	//mask set sstatus
  72:src/../h/Riscv.hpp **** 	static void ms_sstatus(uint64 mask);
  73:src/../h/Riscv.hpp **** 
  74:src/../h/Riscv.hpp **** 	//mask clear sstatus
  75:src/../h/Riscv.hpp **** 	static void mc_sstatus(uint64 mask);
  76:src/../h/Riscv.hpp **** 
  77:src/../h/Riscv.hpp **** 	//read sstatus
  78:src/../h/Riscv.hpp **** 	static uint64 r_sstatus();
  79:src/../h/Riscv.hpp **** 
  80:src/../h/Riscv.hpp **** 	//write sstatus
  81:src/../h/Riscv.hpp **** 	static void w_sstatus(uint64 sstatus);
  82:src/../h/Riscv.hpp **** 
  83:src/../h/Riscv.hpp **** 	//upisuje kod sistemskog poziva u registar a0
  84:src/../h/Riscv.hpp **** 	static void loadOpCode(uint64 opCode);
  85:src/../h/Riscv.hpp **** 
  86:src/../h/Riscv.hpp **** };
  87:src/../h/Riscv.hpp **** 
  88:src/../h/Riscv.hpp **** inline uint64 Riscv::r_scause() {
  89:src/../h/Riscv.hpp **** 	uint64 volatile scause;
  90:src/../h/Riscv.hpp **** 	__asm__ volatile("csrr %[scause], scause": [scause] "=r"(scause));
  91:src/../h/Riscv.hpp **** 	return scause;
  92:src/../h/Riscv.hpp **** }
  93:src/../h/Riscv.hpp **** 
  94:src/../h/Riscv.hpp **** inline void Riscv::w_scause(uint64 scause) {
  95:src/../h/Riscv.hpp **** 	__asm__ volatile("csrw scause, %[scause]": :[scause] "r"(scause));
GAS LISTING /tmp/cc4O7tPZ.s 			page 31


  96:src/../h/Riscv.hpp **** }
  97:src/../h/Riscv.hpp **** 
  98:src/../h/Riscv.hpp **** inline uint64 Riscv::r_sepc() {
  99:src/../h/Riscv.hpp **** 	uint64 volatile sepc;
 100:src/../h/Riscv.hpp **** 	__asm__ volatile("csrr %[sepc], sepc": [sepc] "=r"(sepc));
 101:src/../h/Riscv.hpp **** 	return sepc;
 102:src/../h/Riscv.hpp **** }
 103:src/../h/Riscv.hpp **** 
 104:src/../h/Riscv.hpp **** inline void Riscv::w_sepc(uint64 sepc) {
 1209              		.loc 2 104 40 is_stmt 1
 1210              		.cfi_startproc
 1211              	.LVL153:
 1212 0000 130101FF 		addi	sp,sp,-16
 1213              		.cfi_def_cfa_offset 16
 1214 0004 23348100 		sd	s0,8(sp)
 1215              		.cfi_offset 8, -8
 1216 0008 13040101 		addi	s0,sp,16
 1217              		.cfi_def_cfa 8, 0
 105:src/../h/Riscv.hpp **** 	__asm__ volatile("csrw sepc, %[sepc]": :[sepc] "r"(sepc));
 1218              		.loc 2 105 2
 1219              		.loc 2 105 59 is_stmt 0
 1220              	#APP
 1221              	# 105 "src/../h/Riscv.hpp" 1
 106              	}
 1222              		csrw sepc, a0
 1223              	# 0 "" 2
 1224              		.loc 2 106 1
 1225              	#NO_APP
 1226 0010 03348100 		ld	s0,8(sp)
 1227              		.cfi_restore 8
 1228              		.cfi_def_cfa 2, 16
 1229 0014 13010101 		addi	sp,sp,16
 1230              		.cfi_def_cfa_offset 0
 1231 0018 67800000 		jr	ra
 1232              		.cfi_endproc
 1233              	.LFE6:
 1235              		.section	.text._ZN5Riscv6mc_sipEm,"axG",@progbits,_ZN5Riscv6mc_sipEm,comdat
 1236              		.align	2
 1237              		.weak	_ZN5Riscv6mc_sipEm
 1239              	_ZN5Riscv6mc_sipEm:
 1240              	.LFB10:
 107:src/../h/Riscv.hpp **** 
 108:src/../h/Riscv.hpp **** inline uint64 Riscv::r_stvec() {
 109:src/../h/Riscv.hpp **** 	uint64 volatile stvec;
 110:src/../h/Riscv.hpp **** 	__asm__ volatile("csrr %[stvec], stvec": [stvec] "=r"(stvec));
 111:src/../h/Riscv.hpp **** 	return stvec;
 112:src/../h/Riscv.hpp **** }
 113:src/../h/Riscv.hpp **** 
 114:src/../h/Riscv.hpp **** inline void Riscv::w_stvec(uint64 stvec) {
 115:src/../h/Riscv.hpp **** 	__asm__ volatile("csrw stvec, %[stvec]": :[stvec] "r"(stvec));
 116:src/../h/Riscv.hpp **** }
 117:src/../h/Riscv.hpp **** 
 118:src/../h/Riscv.hpp **** inline void Riscv::ms_sip(uint64 mask) {
 119:src/../h/Riscv.hpp **** 	__asm__ volatile("csrs sip, %[mask]": :[mask] "r"(mask));
 120:src/../h/Riscv.hpp **** }
 121:src/../h/Riscv.hpp **** 
 122:src/../h/Riscv.hpp **** inline void Riscv::mc_sip(uint64 mask) {
GAS LISTING /tmp/cc4O7tPZ.s 			page 32


 1241              		.loc 2 122 40 is_stmt 1
 1242              		.cfi_startproc
 1243              	.LVL154:
 1244 0000 130101FF 		addi	sp,sp,-16
 1245              		.cfi_def_cfa_offset 16
 1246 0004 23348100 		sd	s0,8(sp)
 1247              		.cfi_offset 8, -8
 1248 0008 13040101 		addi	s0,sp,16
 1249              		.cfi_def_cfa 8, 0
 123:src/../h/Riscv.hpp **** 	__asm__ volatile("csrc sip, %[mask]": :[mask] "r"(mask));
 1250              		.loc 2 123 2
 1251              		.loc 2 123 58 is_stmt 0
 1252              	#APP
 1253              	# 123 "src/../h/Riscv.hpp" 1
 124              	}
 1254              		csrc sip, a0
 1255              	# 0 "" 2
 1256              		.loc 2 124 1
 1257              	#NO_APP
 1258 0010 03348100 		ld	s0,8(sp)
 1259              		.cfi_restore 8
 1260              		.cfi_def_cfa 2, 16
 1261 0014 13010101 		addi	sp,sp,16
 1262              		.cfi_def_cfa_offset 0
 1263 0018 67800000 		jr	ra
 1264              		.cfi_endproc
 1265              	.LFE10:
 1267              		.section	.text._ZN5Riscv9w_sstatusEm,"axG",@progbits,_ZN5Riscv9w_sstatusEm,comdat
 1268              		.align	2
 1269              		.weak	_ZN5Riscv9w_sstatusEm
 1271              	_ZN5Riscv9w_sstatusEm:
 1272              	.LFB16:
 125:src/../h/Riscv.hpp **** 
 126:src/../h/Riscv.hpp **** inline uint64 Riscv::r_sip() {
 127:src/../h/Riscv.hpp **** 	uint64 volatile sip;
 128:src/../h/Riscv.hpp **** 	__asm__ volatile("csrr %[sip], sip": [sip] "=r"(sip));
 129:src/../h/Riscv.hpp **** 	return sip;
 130:src/../h/Riscv.hpp **** }
 131:src/../h/Riscv.hpp **** 
 132:src/../h/Riscv.hpp **** inline void Riscv::w_sip(uint64 sip) {
 133:src/../h/Riscv.hpp **** 	__asm__ volatile("csrw sip, %[sip]": :[sip] "r"(sip));
 134:src/../h/Riscv.hpp **** }
 135:src/../h/Riscv.hpp **** 
 136:src/../h/Riscv.hpp **** inline void Riscv::ms_sstatus(uint64 mask) {
 137:src/../h/Riscv.hpp **** 	__asm__ volatile("csrs sstatus, %[mask]": :[mask] "r"(mask));
 138:src/../h/Riscv.hpp **** }
 139:src/../h/Riscv.hpp **** 
 140:src/../h/Riscv.hpp **** inline void Riscv::mc_sstatus(uint64 mask) {
 141:src/../h/Riscv.hpp **** 	__asm__ volatile("csrc sstatus, %[mask]": :[mask] "r"(mask));
 142:src/../h/Riscv.hpp **** }
 143:src/../h/Riscv.hpp **** 
 144:src/../h/Riscv.hpp **** inline uint64 Riscv::r_sstatus() {
 145:src/../h/Riscv.hpp **** 	uint64 volatile sstatus;
 146:src/../h/Riscv.hpp **** 	__asm__ volatile("csrr %[sstatus], sstatus": [sstatus] "=r"(sstatus));
 147:src/../h/Riscv.hpp **** 	return sstatus;
 148:src/../h/Riscv.hpp **** }
 149:src/../h/Riscv.hpp **** 
GAS LISTING /tmp/cc4O7tPZ.s 			page 33


 150:src/../h/Riscv.hpp **** inline void Riscv::w_sstatus(uint64 sstatus) {
 1273              		.loc 2 150 46 is_stmt 1
 1274              		.cfi_startproc
 1275              	.LVL155:
 1276 0000 130101FF 		addi	sp,sp,-16
 1277              		.cfi_def_cfa_offset 16
 1278 0004 23348100 		sd	s0,8(sp)
 1279              		.cfi_offset 8, -8
 1280 0008 13040101 		addi	s0,sp,16
 1281              		.cfi_def_cfa 8, 0
 151:src/../h/Riscv.hpp **** 	__asm__ volatile("csrw sstatus, %[sstatus]": :[sstatus] "r"(sstatus));
 1282              		.loc 2 151 2
 1283              		.loc 2 151 71 is_stmt 0
 1284              	#APP
 1285              	# 151 "src/../h/Riscv.hpp" 1
 152              	}
 1286              		csrw sstatus, a0
 1287              	# 0 "" 2
 1288              		.loc 2 152 1
 1289              	#NO_APP
 1290 0010 03348100 		ld	s0,8(sp)
 1291              		.cfi_restore 8
 1292              		.cfi_def_cfa 2, 16
 1293 0014 13010101 		addi	sp,sp,16
 1294              		.cfi_def_cfa_offset 0
 1295 0018 67800000 		jr	ra
 1296              		.cfi_endproc
 1297              	.LFE16:
 1299              		.section	.text._ZN3TCB11setFinishedEb,"axG",@progbits,_ZN3TCB11setFinishedEb,comdat
 1300              		.align	2
 1301              		.weak	_ZN3TCB11setFinishedEb
 1303              	_ZN3TCB11setFinishedEb:
 1304              	.LFB33:
 1305              		.file 3 "src/../h/TCB.hpp"
   1:src/../h/TCB.hpp **** //
   2:src/../h/TCB.hpp **** // Created by os on 5/23/23.
   3:src/../h/TCB.hpp **** //
   4:src/../h/TCB.hpp **** 
   5:src/../h/TCB.hpp **** #ifndef PROJEKAT2023_TCB_HPP
   6:src/../h/TCB.hpp **** #define PROJEKAT2023_TCB_HPP
   7:src/../h/TCB.hpp **** 
   8:src/../h/TCB.hpp **** #include "../lib/hw.h"
   9:src/../h/TCB.hpp **** #include "../h/ThreadQueue.hpp"
  10:src/../h/TCB.hpp **** 
  11:src/../h/TCB.hpp **** class TCB {
  12:src/../h/TCB.hpp **** public:
  13:src/../h/TCB.hpp **** 	friend class Scheduler;
  14:src/../h/TCB.hpp **** 
  15:src/../h/TCB.hpp **** 	using Body = void (*)(void*);
  16:src/../h/TCB.hpp **** 
  17:src/../h/TCB.hpp **** 	static TCB* createThread(Body function, void* args, uint64* stack);
  18:src/../h/TCB.hpp **** 	static void start(TCB* newTcb);
  19:src/../h/TCB.hpp **** 
  20:src/../h/TCB.hpp **** 	bool isFinished() { return finished; }
  21:src/../h/TCB.hpp **** 
  22:src/../h/TCB.hpp **** 	void setFinished(bool finish) { this->finished = finish; }
 1306              		.loc 3 22 7 is_stmt 1
GAS LISTING /tmp/cc4O7tPZ.s 			page 34


 1307              		.cfi_startproc
 1308              	.LVL156:
 1309 0000 130101FF 		addi	sp,sp,-16
 1310              		.cfi_def_cfa_offset 16
 1311 0004 23348100 		sd	s0,8(sp)
 1312              		.cfi_offset 8, -8
 1313 0008 13040101 		addi	s0,sp,16
 1314              		.cfi_def_cfa 8, 0
 1315              		.loc 3 22 34
 1316              		.loc 3 22 49 is_stmt 0
 1317 000c 2308B502 		sb	a1,48(a0)
 1318              		.loc 3 22 59
 1319 0010 03348100 		ld	s0,8(sp)
 1320              		.cfi_restore 8
 1321              		.cfi_def_cfa 2, 16
 1322 0014 13010101 		addi	sp,sp,16
 1323              		.cfi_def_cfa_offset 0
 1324 0018 67800000 		jr	ra
 1325              		.cfi_endproc
 1326              	.LFE33:
 1328              		.section	.text._ZN3TCB12getTimeSliceEv,"axG",@progbits,_ZN3TCB12getTimeSliceEv,comdat
 1329              		.align	2
 1330              		.weak	_ZN3TCB12getTimeSliceEv
 1332              	_ZN3TCB12getTimeSliceEv:
 1333              	.LFB36:
  23:src/../h/TCB.hpp **** 
  24:src/../h/TCB.hpp **** 	bool isBlocked() { return blocked; }
  25:src/../h/TCB.hpp **** 
  26:src/../h/TCB.hpp **** 	void setBlocked(bool block) { this->blocked = block; }
  27:src/../h/TCB.hpp **** 
  28:src/../h/TCB.hpp **** 	uint64 getTimeSlice() { return timeSlice; }
 1334              		.loc 3 28 9 is_stmt 1
 1335              		.cfi_startproc
 1336              	.LVL157:
 1337 0000 130101FF 		addi	sp,sp,-16
 1338              		.cfi_def_cfa_offset 16
 1339 0004 23348100 		sd	s0,8(sp)
 1340              		.cfi_offset 8, -8
 1341 0008 13040101 		addi	s0,sp,16
 1342              		.cfi_def_cfa 8, 0
 1343              		.loc 3 28 26
 1344              		.loc 3 28 44 is_stmt 0
 1345 000c 03358502 		ld	a0,40(a0)
 1346              	.LVL158:
 1347 0010 03348100 		ld	s0,8(sp)
 1348              		.cfi_restore 8
 1349              		.cfi_def_cfa 2, 16
 1350 0014 13010101 		addi	sp,sp,16
 1351              		.cfi_def_cfa_offset 0
 1352 0018 67800000 		jr	ra
 1353              		.cfi_endproc
 1354              	.LFE36:
 1356              		.data
 1357              		.align	3
 1360              	_ZZ16interruptRoutineE6digits:
 1361 0000 30313233 		.string	"0123456789"
 1361      34353637 
GAS LISTING /tmp/cc4O7tPZ.s 			page 35


 1361      383900
 1362              		.text
 1363              	.Letext0:
 1364              		.file 4 "src/../lib/hw.h"
 1365              		.file 5 "src/../h/MemoryAllocator.hpp"
 1366              		.file 6 "src/../h/syscall_c.hpp"
 1367              		.file 7 "src/../h/KSem.hpp"
 1368              		.file 8 "src/../h/../h/ThreadQueue.hpp"
 1369              		.file 9 "src/../h/Scheduler.hpp"
 1370              		.file 10 "src/../h/KConsole.hpp"
 1371              		.file 11 "src/../h/../test/printing.hpp"
 1372              		.file 12 "src/../h/helper.hpp"
GAS LISTING /tmp/cc4O7tPZ.s 			page 36


DEFINED SYMBOLS
                            *ABS*:0000000000000000 interruptRoutine.cpp
     /tmp/cc4O7tPZ.s:29     .text:0000000000000000 interruptRoutine
     /tmp/cc4O7tPZ.s:33     .text:0000000000000000 .L0 
     /tmp/cc4O7tPZ.s:34     .text:0000000000000000 .L0 
     /tmp/cc4O7tPZ.s:35     .text:0000000000000004 .L0 
     /tmp/cc4O7tPZ.s:38     .text:000000000000000c .L0 
     /tmp/cc4O7tPZ.s:39     .text:000000000000000c .L0 
     /tmp/cc4O7tPZ.s:41     .text:0000000000000010 .L0 
     /tmp/cc4O7tPZ.s:43     .text:0000000000000010 .L0 
     /tmp/cc4O7tPZ.s:44     .text:0000000000000010 .L0 
src/interruptRoutine.cpp:23     .text:0000000000000010 .L0 
     /tmp/cc4O7tPZ.s:53     .text:0000000000000018 .L0 
src/interruptRoutine.cpp:24     .text:0000000000000018 .L0 
     /tmp/cc4O7tPZ.s:63     .text:0000000000000020 .L0 
src/interruptRoutine.cpp:26     .text:0000000000000020 .L0 
     /tmp/cc4O7tPZ.s:73     .text:0000000000000028 .L0 
     /tmp/cc4O7tPZ.s:74     .text:0000000000000028 .L0 
src/interruptRoutine.cpp:28     .text:0000000000000028 .L0 
     /tmp/cc4O7tPZ.s:84     .text:0000000000000030 .L0 
src/interruptRoutine.cpp:29     .text:0000000000000030 .L0 
     /tmp/cc4O7tPZ.s:94     .text:0000000000000038 .L0 
src/interruptRoutine.cpp:30     .text:0000000000000038 .L0 
     /tmp/cc4O7tPZ.s:104    .text:0000000000000040 .L0 
src/interruptRoutine.cpp:31     .text:0000000000000040 .L0 
     /tmp/cc4O7tPZ.s:114    .text:0000000000000048 .L0 
src/interruptRoutine.cpp:32     .text:0000000000000048 .L0 
     /tmp/cc4O7tPZ.s:124    .text:0000000000000050 .L0 
src/interruptRoutine.cpp:33     .text:0000000000000050 .L0 
     /tmp/cc4O7tPZ.s:134    .text:0000000000000058 .L0 
src/interruptRoutine.cpp:34     .text:0000000000000058 .L0 
     /tmp/cc4O7tPZ.s:144    .text:0000000000000060 .L0 
src/interruptRoutine.cpp:35     .text:0000000000000060 .L0 
     /tmp/cc4O7tPZ.s:155    .text:0000000000000068 .L0 
     /tmp/cc4O7tPZ.s:159    .text:0000000000000074 .L0 
     /tmp/cc4O7tPZ.s:165    .text:0000000000000080 .L0 
     /tmp/cc4O7tPZ.s:166    .text:0000000000000080 .L0 
     /tmp/cc4O7tPZ.s:171    .text:0000000000000088 .L0 
     /tmp/cc4O7tPZ.s:291    .text:000000000000012c .L0 
     /tmp/cc4O7tPZ.s:292    .text:000000000000012c .L0 
     /tmp/cc4O7tPZ.s:293    .text:000000000000012c .L0 
     /tmp/cc4O7tPZ.s:294    .text:000000000000012c .L0 
     /tmp/cc4O7tPZ.s:298    .text:0000000000000134 .L0 
     /tmp/cc4O7tPZ.s:299    .text:0000000000000134 .L0 
     /tmp/cc4O7tPZ.s:305    .text:0000000000000140 .L0 
     /tmp/cc4O7tPZ.s:306    .text:0000000000000140 .L0 
     /tmp/cc4O7tPZ.s:311    .text:0000000000000150 .L0 
src/interruptRoutine.cpp:48     .text:0000000000000150 .L0 
     /tmp/cc4O7tPZ.s:318    .text:0000000000000154 .L0 
     /tmp/cc4O7tPZ.s:322    .text:0000000000000158 .L0 
     /tmp/cc4O7tPZ.s:323    .text:0000000000000158 .L0 
     /tmp/cc4O7tPZ.s:324    .text:0000000000000158 .L0 
     /tmp/cc4O7tPZ.s:325    .text:0000000000000158 .L0 
     /tmp/cc4O7tPZ.s:329    .text:0000000000000160 .L0 
     /tmp/cc4O7tPZ.s:330    .text:0000000000000160 .L0 
     /tmp/cc4O7tPZ.s:334    .text:000000000000016c .L0 
src/interruptRoutine.cpp:56     .text:000000000000016c .L0 
GAS LISTING /tmp/cc4O7tPZ.s 			page 37


     /tmp/cc4O7tPZ.s:341    .text:0000000000000170 .L0 
     /tmp/cc4O7tPZ.s:345    .text:0000000000000174 .L0 
     /tmp/cc4O7tPZ.s:346    .text:0000000000000174 .L0 
     /tmp/cc4O7tPZ.s:347    .text:0000000000000174 .L0 
     /tmp/cc4O7tPZ.s:348    .text:0000000000000174 .L0 
     /tmp/cc4O7tPZ.s:352    .text:000000000000017c .L0 
     /tmp/cc4O7tPZ.s:353    .text:000000000000017c .L0 
     /tmp/cc4O7tPZ.s:354    .text:000000000000017c .L0 
     /tmp/cc4O7tPZ.s:359    .text:0000000000000184 .L0 
     /tmp/cc4O7tPZ.s:360    .text:0000000000000184 .L0 
     /tmp/cc4O7tPZ.s:361    .text:0000000000000184 .L0 
     /tmp/cc4O7tPZ.s:366    .text:000000000000018c .L0 
     /tmp/cc4O7tPZ.s:367    .text:000000000000018c .L0 
     /tmp/cc4O7tPZ.s:368    .text:000000000000018c .L0 
     /tmp/cc4O7tPZ.s:373    .text:0000000000000194 .L0 
     /tmp/cc4O7tPZ.s:374    .text:0000000000000194 .L0 
     /tmp/cc4O7tPZ.s:381    .text:00000000000001ac .L0 
     /tmp/cc4O7tPZ.s:384    .text:00000000000001b4 .L0 
     /tmp/cc4O7tPZ.s:385    .text:00000000000001b4 .L0 
     /tmp/cc4O7tPZ.s:391    .text:00000000000001c8 .L0 
     /tmp/cc4O7tPZ.s:392    .text:00000000000001c8 .L0 
     /tmp/cc4O7tPZ.s:395    .text:00000000000001d0 .L0 
     /tmp/cc4O7tPZ.s:397    .text:00000000000001d4 .L0 
src/interruptRoutine.cpp:72     .text:00000000000001d4 .L0 
     /tmp/cc4O7tPZ.s:406    .text:00000000000001dc .L0 
src/interruptRoutine.cpp:74     .text:00000000000001dc .L0 
     /tmp/cc4O7tPZ.s:414    .text:00000000000001e0 .L0 
src/interruptRoutine.cpp:76     .text:00000000000001e0 .L0 
     /tmp/cc4O7tPZ.s:421    .text:00000000000001e4 .L0 
     /tmp/cc4O7tPZ.s:425    .text:00000000000001e8 .L0 
     /tmp/cc4O7tPZ.s:426    .text:00000000000001e8 .L0 
     /tmp/cc4O7tPZ.s:427    .text:00000000000001e8 .L0 
     /tmp/cc4O7tPZ.s:1303   .text._ZN3TCB11setFinishedEb:0000000000000000 _ZN3TCB11setFinishedEb
     /tmp/cc4O7tPZ.s:434    .text:0000000000000204 .L0 
     /tmp/cc4O7tPZ.s:435    .text:0000000000000204 .L0 
     /tmp/cc4O7tPZ.s:438    .text:000000000000020c .L0 
     /tmp/cc4O7tPZ.s:439    .text:000000000000020c .L0 
     /tmp/cc4O7tPZ.s:442    .text:0000000000000214 .L0 
     /tmp/cc4O7tPZ.s:446    .text:0000000000000218 .L0 
     /tmp/cc4O7tPZ.s:447    .text:0000000000000218 .L0 
     /tmp/cc4O7tPZ.s:448    .text:0000000000000218 .L0 
     /tmp/cc4O7tPZ.s:451    .text:0000000000000220 .L0 
     /tmp/cc4O7tPZ.s:455    .text:0000000000000224 .L0 
     /tmp/cc4O7tPZ.s:456    .text:0000000000000224 .L0 
     /tmp/cc4O7tPZ.s:457    .text:0000000000000224 .L0 
     /tmp/cc4O7tPZ.s:458    .text:0000000000000224 .L0 
     /tmp/cc4O7tPZ.s:462    .text:000000000000022c .L0 
     /tmp/cc4O7tPZ.s:463    .text:000000000000022c .L0 
     /tmp/cc4O7tPZ.s:467    .text:0000000000000238 .L0 
     /tmp/cc4O7tPZ.s:468    .text:0000000000000238 .L0 
     /tmp/cc4O7tPZ.s:471    .text:0000000000000240 .L0 
     /tmp/cc4O7tPZ.s:475    .text:0000000000000244 .L0 
     /tmp/cc4O7tPZ.s:476    .text:0000000000000244 .L0 
     /tmp/cc4O7tPZ.s:477    .text:0000000000000244 .L0 
     /tmp/cc4O7tPZ.s:478    .text:0000000000000244 .L0 
     /tmp/cc4O7tPZ.s:482    .text:000000000000024c .L0 
     /tmp/cc4O7tPZ.s:483    .text:000000000000024c .L0 
GAS LISTING /tmp/cc4O7tPZ.s 			page 38


     /tmp/cc4O7tPZ.s:484    .text:000000000000024c .L0 
     /tmp/cc4O7tPZ.s:489    .text:0000000000000254 .L0 
     /tmp/cc4O7tPZ.s:490    .text:0000000000000254 .L0 
     /tmp/cc4O7tPZ.s:497    .text:0000000000000268 .L0 
     /tmp/cc4O7tPZ.s:500    .text:0000000000000270 .L0 
     /tmp/cc4O7tPZ.s:501    .text:0000000000000270 .L0 
     /tmp/cc4O7tPZ.s:504    .text:0000000000000278 .L0 
     /tmp/cc4O7tPZ.s:506    .text:000000000000027c .L0 
src/interruptRoutine.cpp:103    .text:000000000000027c .L0 
     /tmp/cc4O7tPZ.s:515    .text:0000000000000284 .L0 
src/interruptRoutine.cpp:105    .text:0000000000000284 .L0 
     /tmp/cc4O7tPZ.s:523    .text:0000000000000288 .L0 
src/interruptRoutine.cpp:107    .text:0000000000000288 .L0 
     /tmp/cc4O7tPZ.s:530    .text:000000000000028c .L0 
     /tmp/cc4O7tPZ.s:534    .text:0000000000000290 .L0 
     /tmp/cc4O7tPZ.s:535    .text:0000000000000290 .L0 
     /tmp/cc4O7tPZ.s:536    .text:0000000000000290 .L0 
     /tmp/cc4O7tPZ.s:537    .text:0000000000000290 .L0 
     /tmp/cc4O7tPZ.s:541    .text:0000000000000298 .L0 
     /tmp/cc4O7tPZ.s:542    .text:0000000000000298 .L0 
     /tmp/cc4O7tPZ.s:546    .text:00000000000002a4 .L0 
src/interruptRoutine.cpp:114    .text:00000000000002a4 .L0 
     /tmp/cc4O7tPZ.s:553    .text:00000000000002a8 .L0 
     /tmp/cc4O7tPZ.s:557    .text:00000000000002ac .L0 
     /tmp/cc4O7tPZ.s:558    .text:00000000000002ac .L0 
     /tmp/cc4O7tPZ.s:559    .text:00000000000002ac .L0 
     /tmp/cc4O7tPZ.s:560    .text:00000000000002ac .L0 
     /tmp/cc4O7tPZ.s:564    .text:00000000000002b4 .L0 
     /tmp/cc4O7tPZ.s:565    .text:00000000000002b4 .L0 
     /tmp/cc4O7tPZ.s:569    .text:00000000000002c0 .L0 
src/interruptRoutine.cpp:121    .text:00000000000002c0 .L0 
     /tmp/cc4O7tPZ.s:576    .text:00000000000002c4 .L0 
     /tmp/cc4O7tPZ.s:580    .text:00000000000002c8 .L0 
     /tmp/cc4O7tPZ.s:581    .text:00000000000002c8 .L0 
     /tmp/cc4O7tPZ.s:582    .text:00000000000002c8 .L0 
     /tmp/cc4O7tPZ.s:583    .text:00000000000002c8 .L0 
     /tmp/cc4O7tPZ.s:587    .text:00000000000002d0 .L0 
     /tmp/cc4O7tPZ.s:588    .text:00000000000002d0 .L0 
     /tmp/cc4O7tPZ.s:592    .text:00000000000002dc .L0 
src/interruptRoutine.cpp:128    .text:00000000000002dc .L0 
     /tmp/cc4O7tPZ.s:599    .text:00000000000002e0 .L0 
     /tmp/cc4O7tPZ.s:603    .text:00000000000002e4 .L0 
     /tmp/cc4O7tPZ.s:604    .text:00000000000002e4 .L0 
     /tmp/cc4O7tPZ.s:605    .text:00000000000002e4 .L0 
     /tmp/cc4O7tPZ.s:606    .text:00000000000002e4 .L0 
     /tmp/cc4O7tPZ.s:610    .text:00000000000002ec .L0 
     /tmp/cc4O7tPZ.s:613    .text:00000000000002f4 .L0 
src/interruptRoutine.cpp:135    .text:00000000000002f4 .L0 
     /tmp/cc4O7tPZ.s:622    .text:00000000000002fc .L0 
src/interruptRoutine.cpp:137    .text:00000000000002fc .L0 
     /tmp/cc4O7tPZ.s:630    .text:0000000000000300 .L0 
src/interruptRoutine.cpp:139    .text:0000000000000300 .L0 
     /tmp/cc4O7tPZ.s:637    .text:0000000000000304 .L0 
     /tmp/cc4O7tPZ.s:641    .text:000000000000030c .L0 
     /tmp/cc4O7tPZ.s:642    .text:000000000000030c .L0 
     /tmp/cc4O7tPZ.s:649    .text:0000000000000328 .L0 
     /tmp/cc4O7tPZ.s:650    .text:0000000000000328 .L0 
GAS LISTING /tmp/cc4O7tPZ.s 			page 39


     /tmp/cc4O7tPZ.s:653    .text:0000000000000330 .L0 
     /tmp/cc4O7tPZ.s:657    .text:0000000000000334 .L0 
     /tmp/cc4O7tPZ.s:658    .text:0000000000000334 .L0 
     /tmp/cc4O7tPZ.s:659    .text:0000000000000334 .L0 
     /tmp/cc4O7tPZ.s:662    .text:000000000000033c .L0 
src/interruptRoutine.cpp:148    .text:000000000000033c .L0 
     /tmp/cc4O7tPZ.s:669    .text:0000000000000340 .L0 
     /tmp/cc4O7tPZ.s:673    .text:0000000000000344 .L0 
     /tmp/cc4O7tPZ.s:674    .text:0000000000000344 .L0 
     /tmp/cc4O7tPZ.s:675    .text:0000000000000344 .L0 
     /tmp/cc4O7tPZ.s:676    .text:0000000000000344 .L0 
     /tmp/cc4O7tPZ.s:680    .text:000000000000034c .L0 
     /tmp/cc4O7tPZ.s:681    .text:000000000000034c .L0 
     /tmp/cc4O7tPZ.s:687    .text:000000000000035c .L0 
     /tmp/cc4O7tPZ.s:691    .text:0000000000000360 .L0 
     /tmp/cc4O7tPZ.s:692    .text:0000000000000360 .L0 
     /tmp/cc4O7tPZ.s:693    .text:0000000000000360 .L0 
     /tmp/cc4O7tPZ.s:694    .text:0000000000000360 .L0 
     /tmp/cc4O7tPZ.s:698    .text:0000000000000368 .L0 
     /tmp/cc4O7tPZ.s:699    .text:0000000000000368 .L0 
     /tmp/cc4O7tPZ.s:700    .text:0000000000000368 .L0 
     /tmp/cc4O7tPZ.s:705    .text:0000000000000370 .L0 
     /tmp/cc4O7tPZ.s:706    .text:0000000000000370 .L0 
     /tmp/cc4O7tPZ.s:707    .text:0000000000000370 .L0 
     /tmp/cc4O7tPZ.s:712    .text:0000000000000378 .L0 
     /tmp/cc4O7tPZ.s:713    .text:0000000000000378 .L0 
     /tmp/cc4O7tPZ.s:714    .text:0000000000000378 .L0 
     /tmp/cc4O7tPZ.s:719    .text:0000000000000380 .L0 
     /tmp/cc4O7tPZ.s:720    .text:0000000000000380 .L0 
     /tmp/cc4O7tPZ.s:727    .text:0000000000000398 .L0 
     /tmp/cc4O7tPZ.s:730    .text:00000000000003a0 .L0 
     /tmp/cc4O7tPZ.s:731    .text:00000000000003a0 .L0 
     /tmp/cc4O7tPZ.s:734    .text:00000000000003a8 .L0 
     /tmp/cc4O7tPZ.s:736    .text:00000000000003ac .L0 
src/interruptRoutine.cpp:169    .text:00000000000003ac .L0 
     /tmp/cc4O7tPZ.s:745    .text:00000000000003b4 .L0 
src/interruptRoutine.cpp:171    .text:00000000000003b4 .L0 
     /tmp/cc4O7tPZ.s:753    .text:00000000000003b8 .L0 
src/interruptRoutine.cpp:173    .text:00000000000003b8 .L0 
     /tmp/cc4O7tPZ.s:760    .text:00000000000003bc .L0 
     /tmp/cc4O7tPZ.s:764    .text:00000000000003c0 .L0 
     /tmp/cc4O7tPZ.s:765    .text:00000000000003c0 .L0 
     /tmp/cc4O7tPZ.s:766    .text:00000000000003c0 .L0 
     /tmp/cc4O7tPZ.s:767    .text:00000000000003c0 .L0 
     /tmp/cc4O7tPZ.s:771    .text:00000000000003c8 .L0 
     /tmp/cc4O7tPZ.s:772    .text:00000000000003c8 .L0 
     /tmp/cc4O7tPZ.s:776    .text:00000000000003d4 .L0 
     /tmp/cc4O7tPZ.s:780    .text:00000000000003d8 .L0 
     /tmp/cc4O7tPZ.s:781    .text:00000000000003d8 .L0 
     /tmp/cc4O7tPZ.s:782    .text:00000000000003d8 .L0 
     /tmp/cc4O7tPZ.s:783    .text:00000000000003d8 .L0 
     /tmp/cc4O7tPZ.s:788    .text:00000000000003e0 .L0 
     /tmp/cc4O7tPZ.s:789    .text:00000000000003e0 .L0 
     /tmp/cc4O7tPZ.s:790    .text:00000000000003e0 .L0 
     /tmp/cc4O7tPZ.s:793    .text:00000000000003e8 .L0 
     /tmp/cc4O7tPZ.s:795    .text:00000000000003ec .L0 
     /tmp/cc4O7tPZ.s:796    .text:00000000000003ec .L0 
GAS LISTING /tmp/cc4O7tPZ.s 			page 40


     /tmp/cc4O7tPZ.s:802    .text:0000000000000400 .L0 
     /tmp/cc4O7tPZ.s:803    .text:0000000000000400 .L0 
     /tmp/cc4O7tPZ.s:808    .text:000000000000040c .L0 
     /tmp/cc4O7tPZ.s:812    .text:0000000000000410 .L0 
     /tmp/cc4O7tPZ.s:813    .text:0000000000000410 .L0 
     /tmp/cc4O7tPZ.s:814    .text:0000000000000410 .L0 
     /tmp/cc4O7tPZ.s:815    .text:0000000000000410 .L0 
     /tmp/cc4O7tPZ.s:819    .text:0000000000000418 .L0 
     /tmp/cc4O7tPZ.s:820    .text:0000000000000418 .L0 
     /tmp/cc4O7tPZ.s:821    .text:0000000000000418 .L0 
     /tmp/cc4O7tPZ.s:822    .text:0000000000000418 .L0 
     /tmp/cc4O7tPZ.s:823    .text:0000000000000418 .L0 
     /tmp/cc4O7tPZ.s:824    .text:0000000000000418 .L0 
     /tmp/cc4O7tPZ.s:827    .text:000000000000041c .L0 
     /tmp/cc4O7tPZ.s:828    .text:000000000000041c .L0 
     /tmp/cc4O7tPZ.s:829    .text:000000000000041c .L0 
     /tmp/cc4O7tPZ.s:833    .text:0000000000000424 .L0 
     /tmp/cc4O7tPZ.s:834    .text:0000000000000424 .L0 
     /tmp/cc4O7tPZ.s:838    .text:0000000000000428 .L0 
     /tmp/cc4O7tPZ.s:839    .text:0000000000000428 .L0 
     /tmp/cc4O7tPZ.s:840    .text:0000000000000428 .L0 
     /tmp/cc4O7tPZ.s:845    .text:0000000000000438 .L0 
     /tmp/cc4O7tPZ.s:1360   .data:0000000000000000 _ZZ16interruptRoutineE6digits
     /tmp/cc4O7tPZ.s:850    .text:0000000000000444 .L0 
     /tmp/cc4O7tPZ.s:857    .text:000000000000045c .L0 
     /tmp/cc4O7tPZ.s:861    .text:0000000000000468 .L0 
     /tmp/cc4O7tPZ.s:862    .text:0000000000000468 .L0 
     /tmp/cc4O7tPZ.s:868    .text:0000000000000478 .L0 
     /tmp/cc4O7tPZ.s:875    .text:000000000000048c .L0 
     /tmp/cc4O7tPZ.s:878    .text:0000000000000490 .L0 
     /tmp/cc4O7tPZ.s:882    .text:000000000000049c .L0 
     /tmp/cc4O7tPZ.s:883    .text:000000000000049c .L0 
     /tmp/cc4O7tPZ.s:888    .text:00000000000004a8 .L0 
     /tmp/cc4O7tPZ.s:896    .text:00000000000004b8 .L0 
     /tmp/cc4O7tPZ.s:897    .text:00000000000004b8 .L0 
     /tmp/cc4O7tPZ.s:908    .text:00000000000004d8 .L0 
     /tmp/cc4O7tPZ.s:909    .text:00000000000004d8 .L0 
     /tmp/cc4O7tPZ.s:917    .text:00000000000004f4 .L0 
     /tmp/cc4O7tPZ.s:921    .text:00000000000004f8 .L0 
     /tmp/cc4O7tPZ.s:922    .text:00000000000004f8 .L0 
     /tmp/cc4O7tPZ.s:923    .text:00000000000004f8 .L0 
     /tmp/cc4O7tPZ.s:927    .text:0000000000000508 .L0 
     /tmp/cc4O7tPZ.s:928    .text:0000000000000508 .L0 
     /tmp/cc4O7tPZ.s:932    .text:0000000000000514 .L0 
     /tmp/cc4O7tPZ.s:933    .text:0000000000000514 .L0 
     /tmp/cc4O7tPZ.s:937    .text:0000000000000524 .L0 
     /tmp/cc4O7tPZ.s:938    .text:0000000000000524 .L0 
     /tmp/cc4O7tPZ.s:942    .text:0000000000000530 .L0 
     /tmp/cc4O7tPZ.s:943    .text:0000000000000530 .L0 
     /tmp/cc4O7tPZ.s:947    .text:0000000000000540 .L0 
     /tmp/cc4O7tPZ.s:948    .text:0000000000000540 .L0 
     /tmp/cc4O7tPZ.s:952    .text:000000000000054c .L0 
     /tmp/cc4O7tPZ.s:956    .text:0000000000000550 .L0 
     /tmp/cc4O7tPZ.s:961    .text:0000000000000558 .L0 
     /tmp/cc4O7tPZ.s:966    .text:0000000000000560 .L0 
     /tmp/cc4O7tPZ.s:972    .text:0000000000000564 .L0 
     /tmp/cc4O7tPZ.s:973    .text:0000000000000564 .L0 
GAS LISTING /tmp/cc4O7tPZ.s 			page 41


     /tmp/cc4O7tPZ.s:983    .text:0000000000000570 .L0 
     /tmp/cc4O7tPZ.s:984    .text:0000000000000570 .L0 
     /tmp/cc4O7tPZ.s:990    .text:0000000000000578 .L0 
     /tmp/cc4O7tPZ.s:992    .text:0000000000000578 .L0 
     /tmp/cc4O7tPZ.s:1003   .text:0000000000000584 .L0 
     /tmp/cc4O7tPZ.s:1010   .text:0000000000000588 .L0 
     /tmp/cc4O7tPZ.s:1018   .text:000000000000059c .L0 
     /tmp/cc4O7tPZ.s:1019   .text:000000000000059c .L0 
     /tmp/cc4O7tPZ.s:1023   .text:00000000000005a8 .L0 
     /tmp/cc4O7tPZ.s:1026   .text:00000000000005ac .L0 
     /tmp/cc4O7tPZ.s:1030   .text:00000000000005b8 .L0 
     /tmp/cc4O7tPZ.s:1031   .text:00000000000005b8 .L0 
     /tmp/cc4O7tPZ.s:1035   .text:00000000000005c8 .L0 
     /tmp/cc4O7tPZ.s:1037   .text:00000000000005cc .L0 
     /tmp/cc4O7tPZ.s:1039   .text:00000000000005d0 .L0 
     /tmp/cc4O7tPZ.s:1040   .text:00000000000005d0 .L0 
     /tmp/cc4O7tPZ.s:1049   .text:00000000000005ec .L0 
     /tmp/cc4O7tPZ.s:1050   .text:00000000000005ec .L0 
     /tmp/cc4O7tPZ.s:1059   .text:0000000000000604 .L0 
     /tmp/cc4O7tPZ.s:1060   .text:0000000000000604 .L0 
     /tmp/cc4O7tPZ.s:1066   .text:0000000000000614 .L0 
     /tmp/cc4O7tPZ.s:1067   .text:0000000000000614 .L0 
     /tmp/cc4O7tPZ.s:1206   .text._ZN5Riscv6w_sepcEm:0000000000000000 _ZN5Riscv6w_sepcEm
     /tmp/cc4O7tPZ.s:1071   .text:0000000000000620 .L0 
     /tmp/cc4O7tPZ.s:1072   .text:0000000000000620 .L0 
     /tmp/cc4O7tPZ.s:1271   .text._ZN5Riscv9w_sstatusEm:0000000000000000 _ZN5Riscv9w_sstatusEm
     /tmp/cc4O7tPZ.s:1076   .text:000000000000062c .L0 
     /tmp/cc4O7tPZ.s:1077   .text:000000000000062c .L0 
     /tmp/cc4O7tPZ.s:1239   .text._ZN5Riscv6mc_sipEm:0000000000000000 _ZN5Riscv6mc_sipEm
     /tmp/cc4O7tPZ.s:1085   .text:0000000000000638 .L0 
     /tmp/cc4O7tPZ.s:1092   .text:000000000000063c .L0 
     /tmp/cc4O7tPZ.s:1098   .text:0000000000000650 .L0 
     /tmp/cc4O7tPZ.s:1099   .text:0000000000000650 .L0 
     /tmp/cc4O7tPZ.s:1102   .text:0000000000000658 .L0 
     /tmp/cc4O7tPZ.s:1103   .text:0000000000000658 .L0 
     /tmp/cc4O7tPZ.s:1109   .text:0000000000000674 .L0 
     /tmp/cc4O7tPZ.s:1110   .text:0000000000000674 .L0 
     /tmp/cc4O7tPZ.s:1332   .text._ZN3TCB12getTimeSliceEv:0000000000000000 _ZN3TCB12getTimeSliceEv
     /tmp/cc4O7tPZ.s:1117   .text:0000000000000690 .L0 
     /tmp/cc4O7tPZ.s:1123   .text:00000000000006a8 .L0 
     /tmp/cc4O7tPZ.s:1125   .text:00000000000006ac .L0 
     /tmp/cc4O7tPZ.s:1126   .text:00000000000006ac .L0 
     /tmp/cc4O7tPZ.s:1129   .text:00000000000006b4 .L0 
     /tmp/cc4O7tPZ.s:1130   .text:00000000000006b4 .L0 
     /tmp/cc4O7tPZ.s:1134   .text:00000000000006c0 .L0 
     /tmp/cc4O7tPZ.s:1135   .text:00000000000006c0 .L0 
     /tmp/cc4O7tPZ.s:1139   .text:00000000000006cc .L0 
     /tmp/cc4O7tPZ.s:1140   .text:00000000000006cc .L0 
     /tmp/cc4O7tPZ.s:1144   .text:00000000000006d8 .L0 
     /tmp/cc4O7tPZ.s:1145   .text:00000000000006d8 .L0 
     /tmp/cc4O7tPZ.s:1152   .text:00000000000006e4 .L0 
     /tmp/cc4O7tPZ.s:1159   .text:00000000000006e8 .L0 
     /tmp/cc4O7tPZ.s:1160   .text:00000000000006e8 .L0 
     /tmp/cc4O7tPZ.s:1164   .text:00000000000006f8 .L0 
     /tmp/cc4O7tPZ.s:1165   .text:00000000000006f8 .L0 
     /tmp/cc4O7tPZ.s:1169   .text:0000000000000708 .L0 
     /tmp/cc4O7tPZ.s:1170   .text:0000000000000708 .L0 
GAS LISTING /tmp/cc4O7tPZ.s 			page 42


     /tmp/cc4O7tPZ.s:1174   .text:0000000000000714 .L0 
     /tmp/cc4O7tPZ.s:1175   .text:0000000000000714 .L0 
     /tmp/cc4O7tPZ.s:1179   .text:0000000000000724 .L0 
     /tmp/cc4O7tPZ.s:1180   .text:0000000000000724 .L0 
     /tmp/cc4O7tPZ.s:1188   .text:0000000000000730 .L0 
     /tmp/cc4O7tPZ.s:1190   .text:0000000000000738 .L0 
     /tmp/cc4O7tPZ.s:1192   .text:000000000000073c .L0 
     /tmp/cc4O7tPZ.s:1193   .text:000000000000073c .L0 
     /tmp/cc4O7tPZ.s:1196   .text:0000000000000740 .L0 
     /tmp/cc4O7tPZ.s:1199   .text:0000000000000744 .L0 
     /tmp/cc4O7tPZ.s:1210   .text._ZN5Riscv6w_sepcEm:0000000000000000 .L0 
     /tmp/cc4O7tPZ.s:1212   .text._ZN5Riscv6w_sepcEm:0000000000000000 .L0 
     /tmp/cc4O7tPZ.s:1213   .text._ZN5Riscv6w_sepcEm:0000000000000004 .L0 
     /tmp/cc4O7tPZ.s:1215   .text._ZN5Riscv6w_sepcEm:0000000000000008 .L0 
     /tmp/cc4O7tPZ.s:1217   .text._ZN5Riscv6w_sepcEm:000000000000000c .L0 
     /tmp/cc4O7tPZ.s:1219   .text._ZN5Riscv6w_sepcEm:000000000000000c .L0 
  src/../h/Riscv.hpp:105    .text._ZN5Riscv6w_sepcEm:000000000000000c .L0 
     /tmp/cc4O7tPZ.s:1226   .text._ZN5Riscv6w_sepcEm:0000000000000010 .L0 
     /tmp/cc4O7tPZ.s:1227   .text._ZN5Riscv6w_sepcEm:0000000000000014 .L0 
     /tmp/cc4O7tPZ.s:1228   .text._ZN5Riscv6w_sepcEm:0000000000000014 .L0 
     /tmp/cc4O7tPZ.s:1230   .text._ZN5Riscv6w_sepcEm:0000000000000018 .L0 
     /tmp/cc4O7tPZ.s:1232   .text._ZN5Riscv6w_sepcEm:000000000000001c .L0 
     /tmp/cc4O7tPZ.s:1242   .text._ZN5Riscv6mc_sipEm:0000000000000000 .L0 
     /tmp/cc4O7tPZ.s:1244   .text._ZN5Riscv6mc_sipEm:0000000000000000 .L0 
     /tmp/cc4O7tPZ.s:1245   .text._ZN5Riscv6mc_sipEm:0000000000000004 .L0 
     /tmp/cc4O7tPZ.s:1247   .text._ZN5Riscv6mc_sipEm:0000000000000008 .L0 
     /tmp/cc4O7tPZ.s:1249   .text._ZN5Riscv6mc_sipEm:000000000000000c .L0 
     /tmp/cc4O7tPZ.s:1251   .text._ZN5Riscv6mc_sipEm:000000000000000c .L0 
  src/../h/Riscv.hpp:123    .text._ZN5Riscv6mc_sipEm:000000000000000c .L0 
     /tmp/cc4O7tPZ.s:1258   .text._ZN5Riscv6mc_sipEm:0000000000000010 .L0 
     /tmp/cc4O7tPZ.s:1259   .text._ZN5Riscv6mc_sipEm:0000000000000014 .L0 
     /tmp/cc4O7tPZ.s:1260   .text._ZN5Riscv6mc_sipEm:0000000000000014 .L0 
     /tmp/cc4O7tPZ.s:1262   .text._ZN5Riscv6mc_sipEm:0000000000000018 .L0 
     /tmp/cc4O7tPZ.s:1264   .text._ZN5Riscv6mc_sipEm:000000000000001c .L0 
     /tmp/cc4O7tPZ.s:1274   .text._ZN5Riscv9w_sstatusEm:0000000000000000 .L0 
     /tmp/cc4O7tPZ.s:1276   .text._ZN5Riscv9w_sstatusEm:0000000000000000 .L0 
     /tmp/cc4O7tPZ.s:1277   .text._ZN5Riscv9w_sstatusEm:0000000000000004 .L0 
     /tmp/cc4O7tPZ.s:1279   .text._ZN5Riscv9w_sstatusEm:0000000000000008 .L0 
     /tmp/cc4O7tPZ.s:1281   .text._ZN5Riscv9w_sstatusEm:000000000000000c .L0 
     /tmp/cc4O7tPZ.s:1283   .text._ZN5Riscv9w_sstatusEm:000000000000000c .L0 
  src/../h/Riscv.hpp:151    .text._ZN5Riscv9w_sstatusEm:000000000000000c .L0 
     /tmp/cc4O7tPZ.s:1290   .text._ZN5Riscv9w_sstatusEm:0000000000000010 .L0 
     /tmp/cc4O7tPZ.s:1291   .text._ZN5Riscv9w_sstatusEm:0000000000000014 .L0 
     /tmp/cc4O7tPZ.s:1292   .text._ZN5Riscv9w_sstatusEm:0000000000000014 .L0 
     /tmp/cc4O7tPZ.s:1294   .text._ZN5Riscv9w_sstatusEm:0000000000000018 .L0 
     /tmp/cc4O7tPZ.s:1296   .text._ZN5Riscv9w_sstatusEm:000000000000001c .L0 
     /tmp/cc4O7tPZ.s:1307   .text._ZN3TCB11setFinishedEb:0000000000000000 .L0 
     /tmp/cc4O7tPZ.s:1309   .text._ZN3TCB11setFinishedEb:0000000000000000 .L0 
     /tmp/cc4O7tPZ.s:1310   .text._ZN3TCB11setFinishedEb:0000000000000004 .L0 
     /tmp/cc4O7tPZ.s:1312   .text._ZN3TCB11setFinishedEb:0000000000000008 .L0 
     /tmp/cc4O7tPZ.s:1314   .text._ZN3TCB11setFinishedEb:000000000000000c .L0 
     /tmp/cc4O7tPZ.s:1316   .text._ZN3TCB11setFinishedEb:000000000000000c .L0 
     /tmp/cc4O7tPZ.s:1317   .text._ZN3TCB11setFinishedEb:000000000000000c .L0 
     /tmp/cc4O7tPZ.s:1319   .text._ZN3TCB11setFinishedEb:0000000000000010 .L0 
     /tmp/cc4O7tPZ.s:1320   .text._ZN3TCB11setFinishedEb:0000000000000014 .L0 
     /tmp/cc4O7tPZ.s:1321   .text._ZN3TCB11setFinishedEb:0000000000000014 .L0 
     /tmp/cc4O7tPZ.s:1323   .text._ZN3TCB11setFinishedEb:0000000000000018 .L0 
GAS LISTING /tmp/cc4O7tPZ.s 			page 43


     /tmp/cc4O7tPZ.s:1325   .text._ZN3TCB11setFinishedEb:000000000000001c .L0 
     /tmp/cc4O7tPZ.s:1335   .text._ZN3TCB12getTimeSliceEv:0000000000000000 .L0 
     /tmp/cc4O7tPZ.s:1337   .text._ZN3TCB12getTimeSliceEv:0000000000000000 .L0 
     /tmp/cc4O7tPZ.s:1338   .text._ZN3TCB12getTimeSliceEv:0000000000000004 .L0 
     /tmp/cc4O7tPZ.s:1340   .text._ZN3TCB12getTimeSliceEv:0000000000000008 .L0 
     /tmp/cc4O7tPZ.s:1342   .text._ZN3TCB12getTimeSliceEv:000000000000000c .L0 
     /tmp/cc4O7tPZ.s:1344   .text._ZN3TCB12getTimeSliceEv:000000000000000c .L0 
     /tmp/cc4O7tPZ.s:1345   .text._ZN3TCB12getTimeSliceEv:000000000000000c .L0 
     /tmp/cc4O7tPZ.s:1348   .text._ZN3TCB12getTimeSliceEv:0000000000000014 .L0 
     /tmp/cc4O7tPZ.s:1349   .text._ZN3TCB12getTimeSliceEv:0000000000000014 .L0 
     /tmp/cc4O7tPZ.s:1351   .text._ZN3TCB12getTimeSliceEv:0000000000000018 .L0 
     /tmp/cc4O7tPZ.s:1353   .text._ZN3TCB12getTimeSliceEv:000000000000001c .L0 
     /tmp/cc4O7tPZ.s:1373   .text:0000000000000744 .L0 
     /tmp/cc4O7tPZ.s:1235   .text._ZN5Riscv6w_sepcEm:000000000000001c .L0 
     /tmp/cc4O7tPZ.s:1267   .text._ZN5Riscv6mc_sipEm:000000000000001c .L0 
     /tmp/cc4O7tPZ.s:1299   .text._ZN5Riscv9w_sstatusEm:000000000000001c .L0 
     /tmp/cc4O7tPZ.s:1328   .text._ZN3TCB11setFinishedEb:000000000000001c .L0 
     /tmp/cc4O7tPZ.s:1356   .text._ZN3TCB12getTimeSliceEv:000000000000001c .L0 
     /tmp/cc4O7tPZ.s:212    .rodata:0000000000000074 .L10
     /tmp/cc4O7tPZ.s:201    .text:00000000000000f8 .L0 
     /tmp/cc4O7tPZ.s:206    .text:000000000000010c .L0 
     /tmp/cc4O7tPZ.s:427    .text:00000000000001e8 .L0 
     /tmp/cc4O7tPZ.s:642    .text:000000000000030c .L0 
     /tmp/cc4O7tPZ.s:850    .text:0000000000000444 .L0 
     /tmp/cc4O7tPZ.s:8      .rodata:0000000000000000 .LC0
     /tmp/cc4O7tPZ.s:923    .text:00000000000004f8 .L0 
     /tmp/cc4O7tPZ.s:11     .rodata:0000000000000018 .LC1
     /tmp/cc4O7tPZ.s:933    .text:0000000000000514 .L0 
     /tmp/cc4O7tPZ.s:14     .rodata:0000000000000028 .LC2
     /tmp/cc4O7tPZ.s:943    .text:0000000000000530 .L0 
     /tmp/cc4O7tPZ.s:1031   .text:00000000000005b8 .L0 
     /tmp/cc4O7tPZ.s:1040   .text:00000000000005d0 .L0 
     /tmp/cc4O7tPZ.s:17     .rodata:0000000000000030 .LC3
     /tmp/cc4O7tPZ.s:1060   .text:0000000000000604 .L0 
     /tmp/cc4O7tPZ.s:1103   .text:0000000000000658 .L0 
     /tmp/cc4O7tPZ.s:1106   .text:0000000000000668 .L0 
     /tmp/cc4O7tPZ.s:1110   .text:0000000000000674 .L0 
     /tmp/cc4O7tPZ.s:1117   .text:0000000000000690 .L0 
     /tmp/cc4O7tPZ.s:1130   .text:00000000000006b4 .L0 
     /tmp/cc4O7tPZ.s:20     .rodata:0000000000000048 .LC4
     /tmp/cc4O7tPZ.s:1160   .text:00000000000006e8 .L0 
     /tmp/cc4O7tPZ.s:23     .rodata:0000000000000068 .LC5
     /tmp/cc4O7tPZ.s:1165   .text:00000000000006f8 .L0 
     /tmp/cc4O7tPZ.s:1175   .text:0000000000000714 .L0 
     /tmp/cc4O7tPZ.s:162    .text:0000000000000080 .L2
     /tmp/cc4O7tPZ.s:1005   .text:0000000000000588 .L3
     /tmp/cc4O7tPZ.s:810    .text:0000000000000410 .L4
     /tmp/cc4O7tPZ.s:919    .text:00000000000004f8 .L5
     /tmp/cc4O7tPZ.s:778    .text:00000000000003d8 .L6
     /tmp/cc4O7tPZ.s:762    .text:00000000000003c0 .L7
     /tmp/cc4O7tPZ.s:282    .text:000000000000011c .L8
     /tmp/cc4O7tPZ.s:689    .text:0000000000000360 .L23
     /tmp/cc4O7tPZ.s:968    .text:0000000000000564 .L24
     /tmp/cc4O7tPZ.s:404    .text:00000000000001dc .L25
     /tmp/cc4O7tPZ.s:412    .text:00000000000001e0 .L26
     /tmp/cc4O7tPZ.s:513    .text:0000000000000284 .L27
     /tmp/cc4O7tPZ.s:521    .text:0000000000000288 .L28
GAS LISTING /tmp/cc4O7tPZ.s 			page 44


     /tmp/cc4O7tPZ.s:620    .text:00000000000002fc .L29
     /tmp/cc4O7tPZ.s:628    .text:0000000000000300 .L30
     /tmp/cc4O7tPZ.s:954    .text:0000000000000550 .L48
     /tmp/cc4O7tPZ.s:743    .text:00000000000003b4 .L32
     /tmp/cc4O7tPZ.s:751    .text:00000000000003b8 .L33
     /tmp/cc4O7tPZ.s:959    .text:0000000000000558 .L49
     /tmp/cc4O7tPZ.s:786    .text:00000000000003e0 .L35
     /tmp/cc4O7tPZ.s:876    .text:0000000000000490 .L36
     /tmp/cc4O7tPZ.s:836    .text:0000000000000428 .L37
     /tmp/cc4O7tPZ.s:894    .text:00000000000004b8 .L40
     /tmp/cc4O7tPZ.s:964    .text:0000000000000560 .L50
     /tmp/cc4O7tPZ.s:1183   .text:0000000000000730 .L51
     /tmp/cc4O7tPZ.s:1087   .text:000000000000063c .L42
     /tmp/cc4O7tPZ.s:1057   .text:0000000000000604 .L43
     /tmp/cc4O7tPZ.s:1047   .text:00000000000005ec .L44
     /tmp/cc4O7tPZ.s:1064   .text:0000000000000614 .L45
     /tmp/cc4O7tPZ.s:1154   .text:00000000000006e8 .L46
     /tmp/cc4O7tPZ.s:1132   .text:00000000000006c0 .L47
     /tmp/cc4O7tPZ.s:288    .text:000000000000012c .L22
     /tmp/cc4O7tPZ.s:320    .text:0000000000000158 .L21
     /tmp/cc4O7tPZ.s:343    .text:0000000000000174 .L20
     /tmp/cc4O7tPZ.s:423    .text:00000000000001e8 .L19
     /tmp/cc4O7tPZ.s:444    .text:0000000000000218 .L18
     /tmp/cc4O7tPZ.s:453    .text:0000000000000224 .L17
     /tmp/cc4O7tPZ.s:473    .text:0000000000000244 .L16
     /tmp/cc4O7tPZ.s:532    .text:0000000000000290 .L15
     /tmp/cc4O7tPZ.s:555    .text:00000000000002ac .L14
     /tmp/cc4O7tPZ.s:578    .text:00000000000002c8 .L13
     /tmp/cc4O7tPZ.s:601    .text:00000000000002e4 .L12
     /tmp/cc4O7tPZ.s:655    .text:0000000000000334 .L11
     /tmp/cc4O7tPZ.s:671    .text:0000000000000344 .L9
     /tmp/cc4O7tPZ.s:3849   .debug_abbrev:0000000000000000 .Ldebug_abbrev0
     /tmp/cc4O7tPZ.s:6357   .debug_str:0000000000000b4e .LASF248
     /tmp/cc4O7tPZ.s:6231   .debug_str:00000000000007c4 .LASF249
     /tmp/cc4O7tPZ.s:6297   .debug_str:00000000000009b9 .LASF250
     /tmp/cc4O7tPZ.s:5939   .debug_ranges:0000000000000000 .Ldebug_ranges0
     /tmp/cc4O7tPZ.s:5955   .debug_line:0000000000000000 .Ldebug_line0
     /tmp/cc4O7tPZ.s:6261   .debug_str:00000000000008a3 .LASF3
     /tmp/cc4O7tPZ.s:6111   .debug_str:0000000000000497 .LASF0
     /tmp/cc4O7tPZ.s:6147   .debug_str:000000000000058c .LASF1
     /tmp/cc4O7tPZ.s:6277   .debug_str:000000000000091d .LASF2
     /tmp/cc4O7tPZ.s:6059   .debug_str:000000000000031c .LASF4
     /tmp/cc4O7tPZ.s:6287   .debug_str:0000000000000975 .LASF5
     /tmp/cc4O7tPZ.s:6129   .debug_str:0000000000000501 .LASF6
     /tmp/cc4O7tPZ.s:5971   .debug_str:0000000000000074 .LASF7
     /tmp/cc4O7tPZ.s:6241   .debug_str:0000000000000804 .LASF8
     /tmp/cc4O7tPZ.s:6229   .debug_str:00000000000007b1 .LASF9
     /tmp/cc4O7tPZ.s:6137   .debug_str:000000000000054c .LASF10
     /tmp/cc4O7tPZ.s:6081   .debug_str:00000000000003c0 .LASF11
     /tmp/cc4O7tPZ.s:6091   .debug_str:000000000000040f .LASF12
     /tmp/cc4O7tPZ.s:6009   .debug_str:0000000000000183 .LASF13
     /tmp/cc4O7tPZ.s:6069   .debug_str:000000000000037a .LASF14
     /tmp/cc4O7tPZ.s:6023   .debug_str:00000000000001fc .LASF15
     /tmp/cc4O7tPZ.s:6007   .debug_str:0000000000000173 .LASF16
     /tmp/cc4O7tPZ.s:6323   .debug_str:0000000000000a7c .LASF17
     /tmp/cc4O7tPZ.s:6055   .debug_str:00000000000002eb .LASF18
     /tmp/cc4O7tPZ.s:6305   .debug_str:00000000000009f6 .LASF19
GAS LISTING /tmp/cc4O7tPZ.s 			page 45


     /tmp/cc4O7tPZ.s:6225   .debug_str:0000000000000783 .LASF42
     /tmp/cc4O7tPZ.s:6219   .debug_str:0000000000000766 .LASF44
     /tmp/cc4O7tPZ.s:6239   .debug_str:00000000000007fe .LASF20
     /tmp/cc4O7tPZ.s:6439   .debug_str:0000000000000e3e .LASF21
     /tmp/cc4O7tPZ.s:6265   .debug_str:00000000000008c9 .LASF22
     /tmp/cc4O7tPZ.s:6385   .debug_str:0000000000000ce7 .LASF23
     /tmp/cc4O7tPZ.s:6167   .debug_str:00000000000005f6 .LASF24
     /tmp/cc4O7tPZ.s:6247   .debug_str:000000000000081d .LASF28
     /tmp/cc4O7tPZ.s:6011   .debug_str:0000000000000192 .LASF25
     /tmp/cc4O7tPZ.s:5987   .debug_str:00000000000000e9 .LASF26
     /tmp/cc4O7tPZ.s:6145   .debug_str:0000000000000587 .LASF27
     /tmp/cc4O7tPZ.s:6047   .debug_str:00000000000002bc .LASF29
     /tmp/cc4O7tPZ.s:6259   .debug_str:000000000000089b .LASF30
     /tmp/cc4O7tPZ.s:6183   .debug_str:000000000000065b .LASF31
     /tmp/cc4O7tPZ.s:6425   .debug_str:0000000000000dd0 .LASF32
     /tmp/cc4O7tPZ.s:6365   .debug_str:0000000000000c3d .LASF34
     /tmp/cc4O7tPZ.s:6075   .debug_str:00000000000003a6 .LASF33
     /tmp/cc4O7tPZ.s:6213   .debug_str:0000000000000739 .LASF35
     /tmp/cc4O7tPZ.s:5991   .debug_str:00000000000000f9 .LASF36
     /tmp/cc4O7tPZ.s:6253   .debug_str:0000000000000846 .LASF37
     /tmp/cc4O7tPZ.s:5985   .debug_str:00000000000000d0 .LASF56
     /tmp/cc4O7tPZ.s:6267   .debug_str:00000000000008d0 .LASF38
     /tmp/cc4O7tPZ.s:6397   .debug_str:0000000000000d1c .LASF39
     /tmp/cc4O7tPZ.s:6107   .debug_str:0000000000000485 .LASF40
     /tmp/cc4O7tPZ.s:6123   .debug_str:00000000000004e1 .LASF84
     /tmp/cc4O7tPZ.s:6321   .debug_str:0000000000000a47 .LASF86
     /tmp/cc4O7tPZ.s:6169   .debug_str:0000000000000600 .LASF41
     /tmp/cc4O7tPZ.s:6411   .debug_str:0000000000000d63 .LASF43
     /tmp/cc4O7tPZ.s:6257   .debug_str:0000000000000890 .LASF45
     /tmp/cc4O7tPZ.s:6157   .debug_str:00000000000005cc .LASF46
     /tmp/cc4O7tPZ.s:5977   .debug_str:0000000000000099 .LASF47
     /tmp/cc4O7tPZ.s:6427   .debug_str:0000000000000dd8 .LASF48
     /tmp/cc4O7tPZ.s:6097   .debug_str:000000000000043a .LASF49
     /tmp/cc4O7tPZ.s:6195   .debug_str:00000000000006a5 .LASF51
     /tmp/cc4O7tPZ.s:6295   .debug_str:00000000000009ab .LASF50
     /tmp/cc4O7tPZ.s:6057   .debug_str:0000000000000301 .LASF52
     /tmp/cc4O7tPZ.s:6117   .debug_str:00000000000004c6 .LASF53
     /tmp/cc4O7tPZ.s:6421   .debug_str:0000000000000daa .LASF54
     /tmp/cc4O7tPZ.s:6151   .debug_str:00000000000005aa .LASF58
     /tmp/cc4O7tPZ.s:6375   .debug_str:0000000000000c98 .LASF60
     /tmp/cc4O7tPZ.s:6273   .debug_str:0000000000000909 .LASF55
     /tmp/cc4O7tPZ.s:6209   .debug_str:0000000000000719 .LASF57
     /tmp/cc4O7tPZ.s:6249   .debug_str:000000000000082c .LASF59
     /tmp/cc4O7tPZ.s:6251   .debug_str:0000000000000833 .LASF61
     /tmp/cc4O7tPZ.s:6193   .debug_str:000000000000069e .LASF62
     /tmp/cc4O7tPZ.s:6139   .debug_str:000000000000055f .LASF63
     /tmp/cc4O7tPZ.s:6181   .debug_str:0000000000000653 .LASF64
     /tmp/cc4O7tPZ.s:6361   .debug_str:0000000000000c1f .LASF65
     /tmp/cc4O7tPZ.s:6187   .debug_str:000000000000067b .LASF66
     /tmp/cc4O7tPZ.s:6207   .debug_str:0000000000000705 .LASF67
     /tmp/cc4O7tPZ.s:6317   .debug_str:0000000000000a39 .LASF68
     /tmp/cc4O7tPZ.s:6291   .debug_str:0000000000000991 .LASF69
     /tmp/cc4O7tPZ.s:6293   .debug_str:00000000000009a4 .LASF70
     /tmp/cc4O7tPZ.s:6015   .debug_str:00000000000001a3 .LASF71
     /tmp/cc4O7tPZ.s:6051   .debug_str:00000000000002d8 .LASF72
     /tmp/cc4O7tPZ.s:6105   .debug_str:0000000000000473 .LASF73
     /tmp/cc4O7tPZ.s:6119   .debug_str:00000000000004d3 .LASF74
GAS LISTING /tmp/cc4O7tPZ.s 			page 46


     /tmp/cc4O7tPZ.s:6037   .debug_str:0000000000000286 .LASF75
     /tmp/cc4O7tPZ.s:5973   .debug_str:000000000000007b .LASF76
     /tmp/cc4O7tPZ.s:6281   .debug_str:0000000000000935 .LASF77
     /tmp/cc4O7tPZ.s:6275   .debug_str:0000000000000912 .LASF78
     /tmp/cc4O7tPZ.s:6455   .debug_str:0000000000000eb7 .LASF79
     /tmp/cc4O7tPZ.s:6413   .debug_str:0000000000000d69 .LASF80
     /tmp/cc4O7tPZ.s:6431   .debug_str:0000000000000de8 .LASF81
     /tmp/cc4O7tPZ.s:6405   .debug_str:0000000000000d3b .LASF82
     /tmp/cc4O7tPZ.s:6177   .debug_str:000000000000061e .LASF83
     /tmp/cc4O7tPZ.s:6367   .debug_str:0000000000000c68 .LASF85
     /tmp/cc4O7tPZ.s:6029   .debug_str:000000000000023c .LASF87
     /tmp/cc4O7tPZ.s:6403   .debug_str:0000000000000d32 .LASF88
     /tmp/cc4O7tPZ.s:6337   .debug_str:0000000000000ad4 .LASF156
     /tmp/cc4O7tPZ.s:6359   .debug_str:0000000000000c12 .LASF89
     /tmp/cc4O7tPZ.s:6419   .debug_str:0000000000000d88 .LASF90
     /tmp/cc4O7tPZ.s:6215   .debug_str:0000000000000757 .LASF251
     /tmp/cc4O7tPZ.s:6443   .debug_str:0000000000000e5e .LASF91
     /tmp/cc4O7tPZ.s:6131   .debug_str:0000000000000513 .LASF92
     /tmp/cc4O7tPZ.s:6339   .debug_str:0000000000000adc .LASF95
     /tmp/cc4O7tPZ.s:6331   .debug_str:0000000000000ab2 .LASF97
     /tmp/cc4O7tPZ.s:5995   .debug_str:0000000000000118 .LASF93
     /tmp/cc4O7tPZ.s:6377   .debug_str:0000000000000cad .LASF94
     /tmp/cc4O7tPZ.s:6279   .debug_str:000000000000092b .LASF96
     /tmp/cc4O7tPZ.s:6329   .debug_str:0000000000000a9e .LASF98
     /tmp/cc4O7tPZ.s:6343   .debug_str:0000000000000af4 .LASF99
     /tmp/cc4O7tPZ.s:6063   .debug_str:000000000000033e .LASF100
     /tmp/cc4O7tPZ.s:6173   .debug_str:000000000000060c .LASF101
     /tmp/cc4O7tPZ.s:6255   .debug_str:0000000000000878 .LASF102
     /tmp/cc4O7tPZ.s:6041   .debug_str:00000000000002a1 .LASF103
     /tmp/cc4O7tPZ.s:6285   .debug_str:000000000000095d .LASF104
     /tmp/cc4O7tPZ.s:6381   .debug_str:0000000000000cd4 .LASF105
     /tmp/cc4O7tPZ.s:6071   .debug_str:0000000000000389 .LASF106
     /tmp/cc4O7tPZ.s:6459   .debug_str:0000000000000edc .LASF107
     /tmp/cc4O7tPZ.s:6065   .debug_str:0000000000000354 .LASF108
     /tmp/cc4O7tPZ.s:6153   .debug_str:00000000000005b3 .LASF109
     /tmp/cc4O7tPZ.s:6271   .debug_str:00000000000008f9 .LASF110
     /tmp/cc4O7tPZ.s:6043   .debug_str:00000000000002ae .LASF111
     /tmp/cc4O7tPZ.s:6017   .debug_str:00000000000001b6 .LASF112
     /tmp/cc4O7tPZ.s:6159   .debug_str:00000000000005d5 .LASF113
     /tmp/cc4O7tPZ.s:5979   .debug_str:00000000000000a2 .LASF114
     /tmp/cc4O7tPZ.s:6353   .debug_str:0000000000000b36 .LASF115
     /tmp/cc4O7tPZ.s:6003   .debug_str:0000000000000153 .LASF116
     /tmp/cc4O7tPZ.s:6373   .debug_str:0000000000000c90 .LASF117
     /tmp/cc4O7tPZ.s:6005   .debug_str:0000000000000164 .LASF118
     /tmp/cc4O7tPZ.s:6449   .debug_str:0000000000000e85 .LASF119
     /tmp/cc4O7tPZ.s:6387   .debug_str:0000000000000cec .LASF120
     /tmp/cc4O7tPZ.s:6363   .debug_str:0000000000000c33 .LASF121
     /tmp/cc4O7tPZ.s:6303   .debug_str:00000000000009ed .LASF122
     /tmp/cc4O7tPZ.s:6243   .debug_str:000000000000080b .LASF123
     /tmp/cc4O7tPZ.s:6099   .debug_str:0000000000000445 .LASF124
     /tmp/cc4O7tPZ.s:6355   .debug_str:0000000000000b3e .LASF125
     /tmp/cc4O7tPZ.s:6223   .debug_str:0000000000000777 .LASF126
     /tmp/cc4O7tPZ.s:5961   .debug_str:000000000000001b .LASF127
     /tmp/cc4O7tPZ.s:5963   .debug_str:0000000000000028 .LASF128
     /tmp/cc4O7tPZ.s:6441   .debug_str:0000000000000e48 .LASF182
     /tmp/cc4O7tPZ.s:6031   .debug_str:0000000000000254 .LASF129
     /tmp/cc4O7tPZ.s:5967   .debug_str:000000000000003e .LASF130
GAS LISTING /tmp/cc4O7tPZ.s 			page 47


     /tmp/cc4O7tPZ.s:6457   .debug_str:0000000000000ecf .LASF131
     /tmp/cc4O7tPZ.s:6087   .debug_str:00000000000003ee .LASF132
     /tmp/cc4O7tPZ.s:6113   .debug_str:00000000000004a4 .LASF144
     /tmp/cc4O7tPZ.s:6205   .debug_str:00000000000006f8 .LASF161
     /tmp/cc4O7tPZ.s:6083   .debug_str:00000000000003d0 .LASF133
     /tmp/cc4O7tPZ.s:6307   .debug_str:0000000000000a0c .LASF134
     /tmp/cc4O7tPZ.s:6345   .debug_str:0000000000000aff .LASF135
     /tmp/cc4O7tPZ.s:6203   .debug_str:00000000000006e5 .LASF136
     /tmp/cc4O7tPZ.s:6045   .debug_str:00000000000002b7 .LASF137
     /tmp/cc4O7tPZ.s:6283   .debug_str:000000000000094d .LASF138
     /tmp/cc4O7tPZ.s:6335   .debug_str:0000000000000acd .LASF139
     /tmp/cc4O7tPZ.s:5993   .debug_str:0000000000000106 .LASF140
     /tmp/cc4O7tPZ.s:6039   .debug_str:0000000000000298 .LASF141
     /tmp/cc4O7tPZ.s:6191   .debug_str:0000000000000688 .LASF142
     /tmp/cc4O7tPZ.s:6053   .debug_str:00000000000002de .LASF143
     /tmp/cc4O7tPZ.s:5969   .debug_str:0000000000000066 .LASF145
     /tmp/cc4O7tPZ.s:6109   .debug_str:0000000000000491 .LASF146
     /tmp/cc4O7tPZ.s:6347   .debug_str:0000000000000b07 .LASF147
     /tmp/cc4O7tPZ.s:5965   .debug_str:0000000000000036 .LASF148
     /tmp/cc4O7tPZ.s:5975   .debug_str:0000000000000086 .LASF149
     /tmp/cc4O7tPZ.s:6415   .debug_str:0000000000000d73 .LASF150
     /tmp/cc4O7tPZ.s:6379   .debug_str:0000000000000cc4 .LASF151
     /tmp/cc4O7tPZ.s:6035   .debug_str:000000000000027c .LASF152
     /tmp/cc4O7tPZ.s:6141   .debug_str:0000000000000572 .LASF153
     /tmp/cc4O7tPZ.s:6395   .debug_str:0000000000000d14 .LASF154
     /tmp/cc4O7tPZ.s:6197   .debug_str:00000000000006bd .LASF155
     /tmp/cc4O7tPZ.s:6401   .debug_str:0000000000000d2d .LASF157
     /tmp/cc4O7tPZ.s:6369   .debug_str:0000000000000c73 .LASF158
     /tmp/cc4O7tPZ.s:6019   .debug_str:00000000000001c9 .LASF159
     /tmp/cc4O7tPZ.s:6033   .debug_str:0000000000000262 .LASF160
     /tmp/cc4O7tPZ.s:6025   .debug_str:000000000000020c .LASF162
     /tmp/cc4O7tPZ.s:6079   .debug_str:00000000000003ba .LASF163
     /tmp/cc4O7tPZ.s:6143   .debug_str:0000000000000582 .LASF164
     /tmp/cc4O7tPZ.s:5981   .debug_str:00000000000000b4 .LASF165
     /tmp/cc4O7tPZ.s:6085   .debug_str:00000000000003d6 .LASF166
     /tmp/cc4O7tPZ.s:6371   .debug_str:0000000000000c78 .LASF252
     /tmp/cc4O7tPZ.s:6341   .debug_str:0000000000000ae7 .LASF167
     /tmp/cc4O7tPZ.s:6289   .debug_str:000000000000097c .LASF168
     /tmp/cc4O7tPZ.s:6121   .debug_str:00000000000004d9 .LASF169
     /tmp/cc4O7tPZ.s:6061   .debug_str:0000000000000322 .LASF170
     /tmp/cc4O7tPZ.s:6407   .debug_str:0000000000000d45 .LASF171
     /tmp/cc4O7tPZ.s:6179   .debug_str:0000000000000634 .LASF172
     /tmp/cc4O7tPZ.s:5997   .debug_str:0000000000000124 .LASF173
     /tmp/cc4O7tPZ.s:6001   .debug_str:0000000000000137 .LASF174
     /tmp/cc4O7tPZ.s:6027   .debug_str:0000000000000227 .LASF175
     /tmp/cc4O7tPZ.s:6409   .debug_str:0000000000000d4d .LASF176
     /tmp/cc4O7tPZ.s:6135   .debug_str:0000000000000542 .LASF177
     /tmp/cc4O7tPZ.s:6315   .debug_str:0000000000000a34 .LASF178
     /tmp/cc4O7tPZ.s:6189   .debug_str:0000000000000683 .LASF179
     /tmp/cc4O7tPZ.s:6447   .debug_str:0000000000000e78 .LASF180
     /tmp/cc4O7tPZ.s:6437   .debug_str:0000000000000e2c .LASF181
     /tmp/cc4O7tPZ.s:6103   .debug_str:000000000000045b .LASF183
     /tmp/cc4O7tPZ.s:6445   .debug_str:0000000000000e64 .LASF253
     /tmp/cc4O7tPZ.s:6093   .debug_str:000000000000041d .LASF184
     /tmp/cc4O7tPZ.s:6263   .debug_str:00000000000008a8 .LASF185
     /tmp/cc4O7tPZ.s:5989   .debug_str:00000000000000ee .LASF186
     /tmp/cc4O7tPZ.s:6453   .debug_str:0000000000000e96 .LASF187
GAS LISTING /tmp/cc4O7tPZ.s 			page 48


     /tmp/cc4O7tPZ.s:6161   .debug_str:00000000000005dd .LASF188
     /tmp/cc4O7tPZ.s:6021   .debug_str:00000000000001e7 .LASF189
     /tmp/cc4O7tPZ.s:6163   .debug_str:00000000000005e2 .LASF190
     /tmp/cc4O7tPZ.s:6299   .debug_str:00000000000009d7 .LASF191
     /tmp/cc4O7tPZ.s:6201   .debug_str:00000000000006d0 .LASF192
     /tmp/cc4O7tPZ.s:6233   .debug_str:00000000000007dd .LASF193
     /tmp/cc4O7tPZ.s:6465   .debug_str:0000000000000f08 .LASF194
     /tmp/cc4O7tPZ.s:6351   .debug_str:0000000000000b25 .LASF195
     /tmp/cc4O7tPZ.s:6327   .debug_str:0000000000000a91 .LASF196
     /tmp/cc4O7tPZ.s:6133   .debug_str:0000000000000525 .LASF197
     /tmp/cc4O7tPZ.s:6391   .debug_str:0000000000000cfd .LASF198
     /tmp/cc4O7tPZ.s:6433   .debug_str:0000000000000dfe .LASF199
     /tmp/cc4O7tPZ.s:6125   .debug_str:00000000000004eb .LASF200
     /tmp/cc4O7tPZ.s:6227   .debug_str:0000000000000793 .LASF201
     /tmp/cc4O7tPZ.s:6095   .debug_str:000000000000042d .LASF202
     /tmp/cc4O7tPZ.s:6269   .debug_str:00000000000008dc .LASF203
     /tmp/cc4O7tPZ.s:6313   .debug_str:0000000000000a20 .LASF204
     /tmp/cc4O7tPZ.s:6089   .debug_str:00000000000003fa .LASF205
     /tmp/cc4O7tPZ.s:6077   .debug_str:00000000000003ac .LASF206
     /tmp/cc4O7tPZ.s:6067   .debug_str:000000000000036d .LASF207
     /tmp/cc4O7tPZ.s:5957   .debug_str:0000000000000000 .LASF254
     /tmp/cc4O7tPZ.s:6389   .debug_str:0000000000000cf1 .LASF208
     /tmp/cc4O7tPZ.s:6049   .debug_str:00000000000002cb .LASF209
     /tmp/cc4O7tPZ.s:6217   .debug_str:000000000000075c .LASF210
     /tmp/cc4O7tPZ.s:6245   .debug_str:0000000000000813 .LASF211
     /tmp/cc4O7tPZ.s:6149   .debug_str:000000000000059f .LASF212
     /tmp/cc4O7tPZ.s:6211   .debug_str:000000000000072e .LASF213
     /tmp/cc4O7tPZ.s:6301   .debug_str:00000000000009dd .LASF214
     /tmp/cc4O7tPZ.s:6333   .debug_str:0000000000000ac8 .LASF215
     /tmp/cc4O7tPZ.s:6463   .debug_str:0000000000000ef7 .LASF216
     /tmp/cc4O7tPZ.s:30     .text:0000000000000000 .LFB51
     /tmp/cc4O7tPZ.s:1200   .text:0000000000000744 .LFE51
     /tmp/cc4O7tPZ.s:6309   .debug_str:0000000000000a11 .LASF217
     /tmp/cc4O7tPZ.s:5007   .debug_loc:0000000000000000 .LLST0
     /tmp/cc4O7tPZ.s:6393   .debug_str:0000000000000d0f .LASF218
     /tmp/cc4O7tPZ.s:5038   .debug_loc:0000000000000087 .LLST1
     /tmp/cc4O7tPZ.s:6417   .debug_str:0000000000000d80 .LASF219
     /tmp/cc4O7tPZ.s:5069   .debug_loc:000000000000010e .LLST2
     /tmp/cc4O7tPZ.s:5091   .debug_loc:000000000000016e .LLST3
     /tmp/cc4O7tPZ.s:5113   .debug_loc:00000000000001ce .LLST4
     /tmp/cc4O7tPZ.s:5135   .debug_loc:0000000000000230 .LLST5
     /tmp/cc4O7tPZ.s:5157   .debug_loc:0000000000000292 .LLST6
     /tmp/cc4O7tPZ.s:5179   .debug_loc:00000000000002f4 .LLST7
     /tmp/cc4O7tPZ.s:5201   .debug_loc:0000000000000356 .LLST8
     /tmp/cc4O7tPZ.s:5223   .debug_loc:00000000000003b8 .LLST9
     /tmp/cc4O7tPZ.s:5245   .debug_loc:000000000000041a .LLST10
     /tmp/cc4O7tPZ.s:163    .text:0000000000000080 .LBB3
     /tmp/cc4O7tPZ.s:999    .text:0000000000000580 .LBE3
     /tmp/cc4O7tPZ.s:6199   .debug_str:00000000000006c9 .LASF220
     /tmp/cc4O7tPZ.s:5447   .debug_loc:000000000000079c .LLST11
     /tmp/cc4O7tPZ.s:289    .text:000000000000012c .LBB5
     /tmp/cc4O7tPZ.s:969    .text:0000000000000564 .LBE5
     /tmp/cc4O7tPZ.s:5513   .debug_loc:00000000000008c0 .LLST12
     /tmp/cc4O7tPZ.s:5534   .debug_loc:0000000000000920 .LLST13
     /tmp/cc4O7tPZ.s:6429   .debug_str:0000000000000de1 .LASF221
     /tmp/cc4O7tPZ.s:5546   .debug_loc:0000000000000958 .LLST14
     /tmp/cc4O7tPZ.s:6221   .debug_str:000000000000076e .LASF222
GAS LISTING /tmp/cc4O7tPZ.s 			page 49


     /tmp/cc4O7tPZ.s:5558   .debug_loc:0000000000000990 .LLST15
     /tmp/cc4O7tPZ.s:5570   .debug_loc:00000000000009c8 .LLST16
     /tmp/cc4O7tPZ.s:5582   .debug_loc:0000000000000a00 .LLST17
     /tmp/cc4O7tPZ.s:6185   .debug_str:000000000000066e .LASF223
     /tmp/cc4O7tPZ.s:5594   .debug_loc:0000000000000a38 .LLST18
     /tmp/cc4O7tPZ.s:6101   .debug_str:0000000000000450 .LASF224
     /tmp/cc4O7tPZ.s:5606   .debug_loc:0000000000000a70 .LLST19
     /tmp/cc4O7tPZ.s:6311   .debug_str:0000000000000a18 .LASF225
     /tmp/cc4O7tPZ.s:5618   .debug_loc:0000000000000aa8 .LLST20
     /tmp/cc4O7tPZ.s:6013   .debug_str:0000000000000197 .LASF226
     /tmp/cc4O7tPZ.s:5630   .debug_loc:0000000000000ae0 .LLST21
     /tmp/cc4O7tPZ.s:6451   .debug_str:0000000000000e8b .LASF227
     /tmp/cc4O7tPZ.s:5642   .debug_loc:0000000000000b18 .LLST22
     /tmp/cc4O7tPZ.s:6461   .debug_str:0000000000000eea .LASF228
     /tmp/cc4O7tPZ.s:5654   .debug_loc:0000000000000b50 .LLST23
     /tmp/cc4O7tPZ.s:6349   .debug_str:0000000000000b18 .LASF229
     /tmp/cc4O7tPZ.s:5666   .debug_loc:0000000000000b88 .LLST24
     /tmp/cc4O7tPZ.s:5683   .debug_loc:0000000000000bd5 .LLST25
     /tmp/cc4O7tPZ.s:6423   .debug_str:0000000000000dc4 .LASF230
     /tmp/cc4O7tPZ.s:5695   .debug_loc:0000000000000c0d .LLST26
     /tmp/cc4O7tPZ.s:5707   .debug_loc:0000000000000c45 .LLST27
     /tmp/cc4O7tPZ.s:5999   .debug_str:000000000000012d .LASF231
     /tmp/cc4O7tPZ.s:5719   .debug_loc:0000000000000c7d .LLST28
     /tmp/cc4O7tPZ.s:6383   .debug_str:0000000000000cdf .LASF232
     /tmp/cc4O7tPZ.s:5731   .debug_loc:0000000000000cb5 .LLST29
     /tmp/cc4O7tPZ.s:6115   .debug_str:00000000000004b4 .LASF233
     /tmp/cc4O7tPZ.s:5743   .debug_loc:0000000000000ced .LLST30
     /tmp/cc4O7tPZ.s:5983   .debug_str:00000000000000c9 .LASF234
     /tmp/cc4O7tPZ.s:5755   .debug_loc:0000000000000d25 .LLST31
     /tmp/cc4O7tPZ.s:6127   .debug_str:00000000000004f9 .LASF235
     /tmp/cc4O7tPZ.s:5772   .debug_loc:0000000000000d70 .LLST32
     /tmp/cc4O7tPZ.s:6319   .debug_str:0000000000000a40 .LASF236
     /tmp/cc4O7tPZ.s:5794   .debug_loc:0000000000000dd2 .LLST33
     /tmp/cc4O7tPZ.s:5834   .debug_loc:0000000000000e7f .LLST34
     /tmp/cc4O7tPZ.s:5847   .debug_loc:0000000000000eb9 .LLST35
     /tmp/cc4O7tPZ.s:309    .text:0000000000000150 .LVL30
     /tmp/cc4O7tPZ.s:332    .text:000000000000016c .LVL33
     /tmp/cc4O7tPZ.s:378    .text:00000000000001a8 .LVL42
     /tmp/cc4O7tPZ.s:389    .text:00000000000001c8 .LVL43
     /tmp/cc4O7tPZ.s:432    .text:0000000000000204 .LVL45
     /tmp/cc4O7tPZ.s:436    .text:000000000000020c .LVL46
     /tmp/cc4O7tPZ.s:440    .text:0000000000000214 .LVL47
     /tmp/cc4O7tPZ.s:449    .text:0000000000000220 .LVL49
     /tmp/cc4O7tPZ.s:465    .text:0000000000000238 .LVL52
     /tmp/cc4O7tPZ.s:469    .text:0000000000000240 .LVL53
     /tmp/cc4O7tPZ.s:494    .text:0000000000000264 .LVL59
     /tmp/cc4O7tPZ.s:544    .text:00000000000002a4 .LVL62
     /tmp/cc4O7tPZ.s:567    .text:00000000000002c0 .LVL65
     /tmp/cc4O7tPZ.s:590    .text:00000000000002dc .LVL68
     /tmp/cc4O7tPZ.s:647    .text:0000000000000328 .LVL72
     /tmp/cc4O7tPZ.s:651    .text:0000000000000330 .LVL73
     /tmp/cc4O7tPZ.s:660    .text:000000000000033c .LVL75
     /tmp/cc4O7tPZ.s:685    .text:000000000000035c .LVL79
     /tmp/cc4O7tPZ.s:724    .text:0000000000000394 .LVL88
     /tmp/cc4O7tPZ.s:774    .text:00000000000003d4 .LVL91
     /tmp/cc4O7tPZ.s:800    .text:0000000000000400 .LVL94
     /tmp/cc4O7tPZ.s:915    .text:00000000000004f4 .LVL110
GAS LISTING /tmp/cc4O7tPZ.s 			page 50


     /tmp/cc4O7tPZ.s:925    .text:0000000000000508 .LVL112
     /tmp/cc4O7tPZ.s:930    .text:0000000000000514 .LVL113
     /tmp/cc4O7tPZ.s:935    .text:0000000000000524 .LVL114
     /tmp/cc4O7tPZ.s:940    .text:0000000000000530 .LVL115
     /tmp/cc4O7tPZ.s:945    .text:0000000000000540 .LVL116
     /tmp/cc4O7tPZ.s:950    .text:000000000000054c .LVL117
     /tmp/cc4O7tPZ.s:1016   .text:000000000000059c .LBB8
     /tmp/cc4O7tPZ.s:1080   .text:0000000000000638 .LBE8
     /tmp/cc4O7tPZ.s:5873   .debug_loc:0000000000000f2b .LLST36
     /tmp/cc4O7tPZ.s:1020   .text:00000000000005a4 .LVL127
     /tmp/cc4O7tPZ.s:1046   .text:00000000000005ec .LVL130
     /tmp/cc4O7tPZ.s:1054   .text:0000000000000600 .LVL131
     /tmp/cc4O7tPZ.s:1063   .text:0000000000000614 .LVL134
     /tmp/cc4O7tPZ.s:1069   .text:0000000000000620 .LVL135
     /tmp/cc4O7tPZ.s:1074   .text:000000000000062c .LVL136
     /tmp/cc4O7tPZ.s:1079   .text:0000000000000638 .LVL137
     /tmp/cc4O7tPZ.s:1100   .text:0000000000000658 .LVL139
     /tmp/cc4O7tPZ.s:1114   .text:000000000000068c .LVL140
     /tmp/cc4O7tPZ.s:1127   .text:00000000000006b4 .LVL141
     /tmp/cc4O7tPZ.s:1137   .text:00000000000006cc .LVL142
     /tmp/cc4O7tPZ.s:1142   .text:00000000000006d8 .LVL143
     /tmp/cc4O7tPZ.s:1147   .text:00000000000006e4 .LVL144
     /tmp/cc4O7tPZ.s:1162   .text:00000000000006f8 .LVL146
     /tmp/cc4O7tPZ.s:1167   .text:0000000000000708 .LVL147
     /tmp/cc4O7tPZ.s:1172   .text:0000000000000714 .LVL148
     /tmp/cc4O7tPZ.s:1177   .text:0000000000000724 .LVL149
     /tmp/cc4O7tPZ.s:1182   .text:0000000000000730 .LVL150
     /tmp/cc4O7tPZ.s:1333   .text._ZN3TCB12getTimeSliceEv:0000000000000000 .LFB36
     /tmp/cc4O7tPZ.s:1354   .text._ZN3TCB12getTimeSliceEv:000000000000001c .LFE36
     /tmp/cc4O7tPZ.s:6073   .debug_str:00000000000003a1 .LASF237
     /tmp/cc4O7tPZ.s:5902   .debug_loc:0000000000000fb1 .LLST37
     /tmp/cc4O7tPZ.s:1304   .text._ZN3TCB11setFinishedEb:0000000000000000 .LFB33
     /tmp/cc4O7tPZ.s:1326   .text._ZN3TCB11setFinishedEb:000000000000001c .LFE33
     /tmp/cc4O7tPZ.s:6171   .debug_str:0000000000000605 .LASF238
     /tmp/cc4O7tPZ.s:1272   .text._ZN5Riscv9w_sstatusEm:0000000000000000 .LFB16
     /tmp/cc4O7tPZ.s:1297   .text._ZN5Riscv9w_sstatusEm:000000000000001c .LFE16
     /tmp/cc4O7tPZ.s:1240   .text._ZN5Riscv6mc_sipEm:0000000000000000 .LFB10
     /tmp/cc4O7tPZ.s:1265   .text._ZN5Riscv6mc_sipEm:000000000000001c .LFE10
     /tmp/cc4O7tPZ.s:6399   .debug_str:0000000000000d28 .LASF239
     /tmp/cc4O7tPZ.s:1207   .text._ZN5Riscv6w_sepcEm:0000000000000000 .LFB6
     /tmp/cc4O7tPZ.s:1233   .text._ZN5Riscv6w_sepcEm:000000000000001c .LFE6
     /tmp/cc4O7tPZ.s:6325   .debug_str:0000000000000a88 .LASF240
     /tmp/cc4O7tPZ.s:6175   .debug_str:0000000000000619 .LASF242
     /tmp/cc4O7tPZ.s:6155   .debug_str:00000000000005b9 .LASF241
     /tmp/cc4O7tPZ.s:6435   .debug_str:0000000000000e20 .LASF243
     /tmp/cc4O7tPZ.s:5959   .debug_str:0000000000000009 .LASF244
     /tmp/cc4O7tPZ.s:6237   .debug_str:00000000000007f1 .LASF245
     /tmp/cc4O7tPZ.s:6165   .debug_str:00000000000005eb .LASF246
     /tmp/cc4O7tPZ.s:6235   .debug_str:00000000000007e3 .LASF247
     /tmp/cc4O7tPZ.s:51     .text:0000000000000018 .LVL0
     /tmp/cc4O7tPZ.s:58     .text:000000000000001c .LVL1
     /tmp/cc4O7tPZ.s:1004   .text:0000000000000588 .LVL125
     /tmp/cc4O7tPZ.s:1011   .text:000000000000058c .LVL126
     /tmp/cc4O7tPZ.s:1194   .text:000000000000073c .LVL151
     /tmp/cc4O7tPZ.s:1197   .text:0000000000000740 .LVL152
     /tmp/cc4O7tPZ.s:61     .text:0000000000000020 .LVL2
     /tmp/cc4O7tPZ.s:68     .text:0000000000000024 .LVL3
GAS LISTING /tmp/cc4O7tPZ.s 			page 51


     /tmp/cc4O7tPZ.s:978    .text:000000000000056c .LVL122
     /tmp/cc4O7tPZ.s:981    .text:0000000000000570 .LVL123
     /tmp/cc4O7tPZ.s:993    .text:000000000000057c .LVL124
     /tmp/cc4O7tPZ.s:71     .text:0000000000000028 .LVL4
     /tmp/cc4O7tPZ.s:79     .text:000000000000002c .LVL5
     /tmp/cc4O7tPZ.s:82     .text:0000000000000030 .LVL6
     /tmp/cc4O7tPZ.s:89     .text:0000000000000034 .LVL7
     /tmp/cc4O7tPZ.s:92     .text:0000000000000038 .LVL8
     /tmp/cc4O7tPZ.s:99     .text:000000000000003c .LVL9
     /tmp/cc4O7tPZ.s:102    .text:0000000000000040 .LVL10
     /tmp/cc4O7tPZ.s:109    .text:0000000000000044 .LVL11
     /tmp/cc4O7tPZ.s:112    .text:0000000000000048 .LVL12
     /tmp/cc4O7tPZ.s:119    .text:000000000000004c .LVL13
     /tmp/cc4O7tPZ.s:122    .text:0000000000000050 .LVL14
     /tmp/cc4O7tPZ.s:129    .text:0000000000000054 .LVL15
     /tmp/cc4O7tPZ.s:132    .text:0000000000000058 .LVL16
     /tmp/cc4O7tPZ.s:139    .text:000000000000005c .LVL17
     /tmp/cc4O7tPZ.s:142    .text:0000000000000060 .LVL18
     /tmp/cc4O7tPZ.s:149    .text:0000000000000064 .LVL19
     /tmp/cc4O7tPZ.s:152    .text:0000000000000068 .LVL20
     /tmp/cc4O7tPZ.s:319    .text:0000000000000158 .LVL31
     /tmp/cc4O7tPZ.s:342    .text:0000000000000174 .LVL34
     /tmp/cc4O7tPZ.s:422    .text:00000000000001e8 .LVL44
     /tmp/cc4O7tPZ.s:443    .text:0000000000000218 .LVL48
     /tmp/cc4O7tPZ.s:452    .text:0000000000000224 .LVL50
     /tmp/cc4O7tPZ.s:472    .text:0000000000000244 .LVL54
     /tmp/cc4O7tPZ.s:531    .text:0000000000000290 .LVL60
     /tmp/cc4O7tPZ.s:554    .text:00000000000002ac .LVL63
     /tmp/cc4O7tPZ.s:577    .text:00000000000002c8 .LVL66
     /tmp/cc4O7tPZ.s:600    .text:00000000000002e4 .LVL69
     /tmp/cc4O7tPZ.s:654    .text:0000000000000334 .LVL74
     /tmp/cc4O7tPZ.s:670    .text:0000000000000344 .LVL76
     /tmp/cc4O7tPZ.s:688    .text:0000000000000360 .LVL80
     /tmp/cc4O7tPZ.s:761    .text:00000000000003c0 .LVL89
     /tmp/cc4O7tPZ.s:777    .text:00000000000003d8 .LVL92
     /tmp/cc4O7tPZ.s:785    .text:00000000000003e0 .LVL93
     /tmp/cc4O7tPZ.s:809    .text:0000000000000410 .LVL96
     /tmp/cc4O7tPZ.s:893    .text:00000000000004b8 .LVL107
     /tmp/cc4O7tPZ.s:918    .text:00000000000004f8 .LVL111
     /tmp/cc4O7tPZ.s:1086   .text:000000000000063c .LVL138
     /tmp/cc4O7tPZ.s:1153   .text:00000000000006e8 .LVL145
     /tmp/cc4O7tPZ.s:168    .text:0000000000000088 .LVL21
     /tmp/cc4O7tPZ.s:173    .text:0000000000000090 .LVL22
     /tmp/cc4O7tPZ.s:200    .text:00000000000000f8 .LVL23
     /tmp/cc4O7tPZ.s:202    .text:0000000000000100 .LVL24
     /tmp/cc4O7tPZ.s:281    .text:000000000000011c .LVL25
     /tmp/cc4O7tPZ.s:284    .text:0000000000000120 .LVL26
     /tmp/cc4O7tPZ.s:835    .text:0000000000000428 .LVL100
     /tmp/cc4O7tPZ.s:296    .text:0000000000000134 .LVL27
     /tmp/cc4O7tPZ.s:301    .text:000000000000013c .LVL28
     /tmp/cc4O7tPZ.s:303    .text:0000000000000140 .LVL29
     /tmp/cc4O7tPZ.s:327    .text:0000000000000160 .LVL32
     /tmp/cc4O7tPZ.s:350    .text:000000000000017c .LVL35
     /tmp/cc4O7tPZ.s:355    .text:0000000000000180 .LVL36
     /tmp/cc4O7tPZ.s:357    .text:0000000000000184 .LVL37
     /tmp/cc4O7tPZ.s:362    .text:0000000000000188 .LVL38
     /tmp/cc4O7tPZ.s:364    .text:000000000000018c .LVL39
GAS LISTING /tmp/cc4O7tPZ.s 			page 52


     /tmp/cc4O7tPZ.s:369    .text:0000000000000190 .LVL40
     /tmp/cc4O7tPZ.s:371    .text:0000000000000194 .LVL41
     /tmp/cc4O7tPZ.s:460    .text:000000000000022c .LVL51
     /tmp/cc4O7tPZ.s:480    .text:000000000000024c .LVL55
     /tmp/cc4O7tPZ.s:485    .text:0000000000000250 .LVL56
     /tmp/cc4O7tPZ.s:487    .text:0000000000000254 .LVL57
     /tmp/cc4O7tPZ.s:491    .text:0000000000000258 .LVL58
     /tmp/cc4O7tPZ.s:539    .text:0000000000000298 .LVL61
     /tmp/cc4O7tPZ.s:562    .text:00000000000002b4 .LVL64
     /tmp/cc4O7tPZ.s:585    .text:00000000000002d0 .LVL67
     /tmp/cc4O7tPZ.s:608    .text:00000000000002ec .LVL70
     /tmp/cc4O7tPZ.s:638    .text:0000000000000308 .LVL71
     /tmp/cc4O7tPZ.s:953    .text:0000000000000550 .LVL118
     /tmp/cc4O7tPZ.s:958    .text:0000000000000558 .LVL119
     /tmp/cc4O7tPZ.s:678    .text:000000000000034c .LVL77
     /tmp/cc4O7tPZ.s:682    .text:0000000000000350 .LVL78
     /tmp/cc4O7tPZ.s:696    .text:0000000000000368 .LVL81
     /tmp/cc4O7tPZ.s:701    .text:000000000000036c .LVL82
     /tmp/cc4O7tPZ.s:703    .text:0000000000000370 .LVL83
     /tmp/cc4O7tPZ.s:708    .text:0000000000000374 .LVL84
     /tmp/cc4O7tPZ.s:710    .text:0000000000000378 .LVL85
     /tmp/cc4O7tPZ.s:715    .text:000000000000037c .LVL86
     /tmp/cc4O7tPZ.s:717    .text:0000000000000380 .LVL87
     /tmp/cc4O7tPZ.s:769    .text:00000000000003c8 .LVL90
     /tmp/cc4O7tPZ.s:806    .text:000000000000040c .LVL95
     /tmp/cc4O7tPZ.s:963    .text:0000000000000560 .LVL120
     /tmp/cc4O7tPZ.s:817    .text:0000000000000418 .LVL97
     /tmp/cc4O7tPZ.s:967    .text:0000000000000564 .LVL121
     /tmp/cc4O7tPZ.s:848    .text:0000000000000444 .LVL101
     /tmp/cc4O7tPZ.s:853    .text:0000000000000454 .LVL102
     /tmp/cc4O7tPZ.s:886    .text:00000000000004a8 .LVL105
     /tmp/cc4O7tPZ.s:889    .text:00000000000004ac .LVL106
     /tmp/cc4O7tPZ.s:900    .text:00000000000004c4 .LVL108
     /tmp/cc4O7tPZ.s:903    .text:00000000000004cc .LVL109
     /tmp/cc4O7tPZ.s:825    .text:000000000000041c .LVL98
     /tmp/cc4O7tPZ.s:831    .text:0000000000000424 .LVL99
     /tmp/cc4O7tPZ.s:866    .text:0000000000000478 .LVL103
     /tmp/cc4O7tPZ.s:870    .text:0000000000000480 .LVL104
     /tmp/cc4O7tPZ.s:1024   .text:00000000000005ac .LVL128
     /tmp/cc4O7tPZ.s:1044   .text:00000000000005e4 .LVL129
     /tmp/cc4O7tPZ.s:1056   .text:0000000000000604 .LVL132
     /tmp/cc4O7tPZ.s:1061   .text:000000000000060c .LVL133
     /tmp/cc4O7tPZ.s:1336   .text._ZN3TCB12getTimeSliceEv:0000000000000000 .LVL157
     /tmp/cc4O7tPZ.s:1346   .text._ZN3TCB12getTimeSliceEv:0000000000000010 .LVL158
     /tmp/cc4O7tPZ.s:1374   .debug_info:0000000000000000 .Ldebug_info0
     /tmp/cc4O7tPZ.s:5      .text:0000000000000000 .Ltext0
     /tmp/cc4O7tPZ.s:1363   .text:0000000000000744 .Letext0

UNDEFINED SYMBOLS
_ZN15MemoryAllocator7kmallocEmNS_7PurposeE
_ZN15MemoryAllocator5kfreeEPv
_ZN3TCB12createThreadEPFvPvES0_Pm
_ZN3TCB5startEPS_
_ZN3TCB7runningE
_ZN3TCB13releaseJoinedEv
_ZN3TCB5yieldEv
_ZN3TCB10threadJoinEPS_
GAS LISTING /tmp/cc4O7tPZ.s 			page 53


_ZN4KSem7initSemEj
_ZN4KSem8closeSemEPS_
_ZN4KSem4waitEv
_ZN4KSem6signalEv
_ZN9Scheduler10putToSleepEP3TCBm
_ZN8KConsole5kgetcEv
_ZN8KConsole5kputcEc
_ZN9Scheduler3putEP3TCB
_Z4putcc
_Z11printStringPKc
_Z12printIntegerm
plic_claim
_ZN8KConsole2srE
_ZN8KConsole2drE
_ZN8KConsole12placeInInputEc
plic_complete
_ZN9Scheduler4wakeEv
_ZN3TCB16runningTimeSliceE
