GAS LISTING /tmp/ccaKmH7i.s 			page 1


   1              		.file	"KConsole.cpp"
   2              		.option pic
   3              		.option norelax
   4              		.text
   5              	.Ltext0:
   6              		.align	2
   7              		.globl	_ZN8KConsole12initKConsoleEv
   9              	_ZN8KConsole12initKConsoleEv:
  10              	.LFB3:
  11              		.file 1 "src/KConsole.cpp"
   1:src/KConsole.cpp **** //
   2:src/KConsole.cpp **** // Created by os on 6/7/23.
   3:src/KConsole.cpp **** //
   4:src/KConsole.cpp **** 
   5:src/KConsole.cpp **** #include "../h/KConsole.hpp"
   6:src/KConsole.cpp **** 
   7:src/KConsole.cpp **** bool KConsole::initialized = false;
   8:src/KConsole.cpp **** sem_t KConsole::inputSem = nullptr;
   9:src/KConsole.cpp **** sem_t KConsole::outputSem = nullptr;
  10:src/KConsole.cpp **** char* KConsole::dr = nullptr;
  11:src/KConsole.cpp **** uint8* KConsole::sr = nullptr;
  12:src/KConsole.cpp **** 
  13:src/KConsole.cpp **** void KConsole::initKConsole() {
  12              		.loc 1 13 31
  13              		.cfi_startproc
  14:src/KConsole.cpp **** 	if(initialized) return;
  14              		.loc 1 14 2
  15 0000 97070000 		lbu	a5,.LANCHOR0
  15      83C70700 
  16 0008 63840700 		beqz	a5,.L7
  17 000c 67800000 		ret
  18              	.L7:
  13:src/KConsole.cpp **** 	if(initialized) return;
  19              		.loc 1 13 31 is_stmt 0
  20 0010 130101FE 		addi	sp,sp,-32
  21              		.cfi_def_cfa_offset 32
  22 0014 233C1100 		sd	ra,24(sp)
  23 0018 23388100 		sd	s0,16(sp)
  24 001c 23349100 		sd	s1,8(sp)
  25              		.cfi_offset 1, -8
  26              		.cfi_offset 8, -16
  27              		.cfi_offset 9, -24
  28 0020 13040102 		addi	s0,sp,32
  29              		.cfi_def_cfa 8, 0
  15:src/KConsole.cpp **** 	dr = (char*)CONSOLE_RX_DATA;
  30              		.loc 1 15 2 is_stmt 1
  31              		.loc 1 15 5 is_stmt 0
  32 0024 97040000 		lla	s1,.LANCHOR0
  32      93840400 
  33 002c 97070000 		la	a5,CONSOLE_RX_DATA
  33      83B70700 
  34 0034 83B70700 		ld	a5,0(a5)
  35 0038 23B4F400 		sd	a5,8(s1)
  16:src/KConsole.cpp **** 	sr = (uint8*)CONSOLE_STATUS;
  36              		.loc 1 16 2 is_stmt 1
  37              		.loc 1 16 5 is_stmt 0
  38 003c 97070000 		la	a5,CONSOLE_STATUS
GAS LISTING /tmp/ccaKmH7i.s 			page 2


  38      83B70700 
  39 0044 83B70700 		ld	a5,0(a5)
  40 0048 23B8F400 		sd	a5,16(s1)
  17:src/KConsole.cpp **** 	sem_open(&inputSem, 100);
  41              		.loc 1 17 2 is_stmt 1
  42              		.loc 1 17 10 is_stmt 0
  43 004c 93054006 		li	a1,100
  44 0050 17050000 		lla	a0,.LANCHOR0+24
  44      13050500 
  45 0058 97000000 		call	_Z8sem_openPP4KSemj@plt
  45      E7800000 
  46              	.LVL0:
  18:src/KConsole.cpp **** 	sem_open(&outputSem, 0);
  47              		.loc 1 18 2 is_stmt 1
  48              		.loc 1 18 10 is_stmt 0
  49 0060 93050000 		li	a1,0
  50 0064 17050000 		lla	a0,.LANCHOR0+32
  50      13050500 
  51 006c 97000000 		call	_Z8sem_openPP4KSemj@plt
  51      E7800000 
  52              	.LVL1:
  19:src/KConsole.cpp **** 	initialized = true;
  53              		.loc 1 19 2 is_stmt 1
  54              		.loc 1 19 14 is_stmt 0
  55 0074 93071000 		li	a5,1
  56 0078 2380F400 		sb	a5,0(s1)
  20:src/KConsole.cpp **** }
  57              		.loc 1 20 1
  58 007c 83308101 		ld	ra,24(sp)
  59              		.cfi_restore 1
  60 0080 03340101 		ld	s0,16(sp)
  61              		.cfi_restore 8
  62              		.cfi_def_cfa 2, 32
  63 0084 83348100 		ld	s1,8(sp)
  64              		.cfi_restore 9
  65 0088 13010102 		addi	sp,sp,32
  66              		.cfi_def_cfa_offset 0
  67 008c 67800000 		jr	ra
  68              		.cfi_endproc
  69              	.LFE3:
  71              		.section	.rodata.str1.8,"aMS",@progbits,1
  72              		.align	3
  73              	.LC0:
  74 0000 434F4E53 		.string	"CONSOLE_RX = "
  74      4F4C455F 
  74      5258203D 
  74      2000
  75 000e 0000     		.align	3
  76              	.LC1:
  77 0010 0A00     		.string	"\n"
  78 0012 00000000 		.align	3
  78      0000
  79              	.LC2:
  80 0018 434F4E53 		.string	"CONSOLE_STATUS = "
  80      4F4C455F 
  80      53544154 
  80      5553203D 
GAS LISTING /tmp/ccaKmH7i.s 			page 3


  80      2000
  81 002a 00000000 		.align	3
  81      0000
  82              	.LC3:
  83 0030 2A434F4E 		.string	"*CONSOLE_RX = "
  83      534F4C45 
  83      5F525820 
  83      3D2000
  84 003f 00       		.align	3
  85              	.LC4:
  86 0040 2A434F4E 		.string	"*CONSOLE_STATUS = "
  86      534F4C45 
  86      5F535441 
  86      54555320 
  86      3D2000
  87              		.text
  88              		.align	2
  89              		.globl	_ZN8KConsole17printConsoleStateEv
  91              	_ZN8KConsole17printConsoleStateEv:
  92              	.LFB4:
  21:src/KConsole.cpp **** 
  22:src/KConsole.cpp **** void KConsole::printConsoleState() {
  93              		.loc 1 22 36 is_stmt 1
  94              		.cfi_startproc
  95 0090 130101FE 		addi	sp,sp,-32
  96              		.cfi_def_cfa_offset 32
  97 0094 233C1100 		sd	ra,24(sp)
  98 0098 23388100 		sd	s0,16(sp)
  99 009c 23349100 		sd	s1,8(sp)
 100              		.cfi_offset 1, -8
 101              		.cfi_offset 8, -16
 102              		.cfi_offset 9, -24
 103 00a0 13040102 		addi	s0,sp,32
 104              		.cfi_def_cfa 8, 0
  23:src/KConsole.cpp **** 	printString("CONSOLE_RX = ");
 105              		.loc 1 23 2
 106              		.loc 1 23 13 is_stmt 0
 107 00a4 17050000 		lla	a0,.LC0
 107      13050500 
 108 00ac 97000000 		call	_Z11printStringPKc@plt
 108      E7800000 
 109              	.LVL2:
  24:src/KConsole.cpp **** 	printInteger((uint64)dr);
 110              		.loc 1 24 2 is_stmt 1
 111              		.loc 1 24 14 is_stmt 0
 112 00b4 97040000 		lla	s1,.LANCHOR0
 112      93840400 
 113 00bc 03B58400 		ld	a0,8(s1)
 114 00c0 97000000 		call	_Z12printIntegerm@plt
 114      E7800000 
 115              	.LVL3:
  25:src/KConsole.cpp **** 	printString("\n");
 116              		.loc 1 25 2 is_stmt 1
 117              		.loc 1 25 13 is_stmt 0
 118 00c8 17050000 		lla	a0,.LC1
 118      13050500 
 119 00d0 97000000 		call	_Z11printStringPKc@plt
GAS LISTING /tmp/ccaKmH7i.s 			page 4


 119      E7800000 
 120              	.LVL4:
  26:src/KConsole.cpp **** 	printString("CONSOLE_STATUS = ");
 121              		.loc 1 26 2 is_stmt 1
 122              		.loc 1 26 13 is_stmt 0
 123 00d8 17050000 		lla	a0,.LC2
 123      13050500 
 124 00e0 97000000 		call	_Z11printStringPKc@plt
 124      E7800000 
 125              	.LVL5:
  27:src/KConsole.cpp **** 	printInteger((uint64)sr);
 126              		.loc 1 27 2 is_stmt 1
 127              		.loc 1 27 14 is_stmt 0
 128 00e8 03B50401 		ld	a0,16(s1)
 129 00ec 97000000 		call	_Z12printIntegerm@plt
 129      E7800000 
 130              	.LVL6:
  28:src/KConsole.cpp **** 	printString("\n");
 131              		.loc 1 28 2 is_stmt 1
 132              		.loc 1 28 13 is_stmt 0
 133 00f4 17050000 		lla	a0,.LC1
 133      13050500 
 134 00fc 97000000 		call	_Z11printStringPKc@plt
 134      E7800000 
 135              	.LVL7:
  29:src/KConsole.cpp **** 	printString("*CONSOLE_RX = ");
 136              		.loc 1 29 2 is_stmt 1
 137              		.loc 1 29 13 is_stmt 0
 138 0104 17050000 		lla	a0,.LC3
 138      13050500 
 139 010c 97000000 		call	_Z11printStringPKc@plt
 139      E7800000 
 140              	.LVL8:
  30:src/KConsole.cpp **** 	printInteger(*dr);
 141              		.loc 1 30 2 is_stmt 1
 142              		.loc 1 30 15 is_stmt 0
 143 0114 83B78400 		ld	a5,8(s1)
 144              		.loc 1 30 14
 145 0118 03C50700 		lbu	a0,0(a5)
 146 011c 97000000 		call	_Z12printIntegerm@plt
 146      E7800000 
 147              	.LVL9:
  31:src/KConsole.cpp **** 	printString("\n");
 148              		.loc 1 31 2 is_stmt 1
 149              		.loc 1 31 13 is_stmt 0
 150 0124 17050000 		lla	a0,.LC1
 150      13050500 
 151 012c 97000000 		call	_Z11printStringPKc@plt
 151      E7800000 
 152              	.LVL10:
  32:src/KConsole.cpp **** 	printString("*CONSOLE_STATUS = ");
 153              		.loc 1 32 2 is_stmt 1
 154              		.loc 1 32 13 is_stmt 0
 155 0134 17050000 		lla	a0,.LC4
 155      13050500 
 156 013c 97000000 		call	_Z11printStringPKc@plt
 156      E7800000 
GAS LISTING /tmp/ccaKmH7i.s 			page 5


 157              	.LVL11:
  33:src/KConsole.cpp **** 	printInteger(*sr);
 158              		.loc 1 33 2 is_stmt 1
 159              		.loc 1 33 15 is_stmt 0
 160 0144 83B70401 		ld	a5,16(s1)
 161              		.loc 1 33 14
 162 0148 03C50700 		lbu	a0,0(a5)
 163 014c 97000000 		call	_Z12printIntegerm@plt
 163      E7800000 
 164              	.LVL12:
  34:src/KConsole.cpp **** 	printString("\n");
 165              		.loc 1 34 2 is_stmt 1
 166              		.loc 1 34 13 is_stmt 0
 167 0154 17050000 		lla	a0,.LC1
 167      13050500 
 168 015c 97000000 		call	_Z11printStringPKc@plt
 168      E7800000 
 169              	.LVL13:
  35:src/KConsole.cpp **** }
 170              		.loc 1 35 1
 171 0164 83308101 		ld	ra,24(sp)
 172              		.cfi_restore 1
 173 0168 03340101 		ld	s0,16(sp)
 174              		.cfi_restore 8
 175              		.cfi_def_cfa 2, 32
 176 016c 83348100 		ld	s1,8(sp)
 177              		.cfi_restore 9
 178 0170 13010102 		addi	sp,sp,32
 179              		.cfi_def_cfa_offset 0
 180 0174 67800000 		jr	ra
 181              		.cfi_endproc
 182              	.LFE4:
 184              		.globl	_ZN8KConsole2srE
 185              		.globl	_ZN8KConsole2drE
 186              		.globl	_ZN8KConsole9outputSemE
 187              		.globl	_ZN8KConsole8inputSemE
 188              		.globl	_ZN8KConsole11initializedE
 189              		.bss
 190              		.align	3
 191              		.set	.LANCHOR0,. + 0
 194              	_ZN8KConsole11initializedE:
 195 0000 00       		.zero	1
 196 0001 00000000 		.zero	7
 196      000000
 199              	_ZN8KConsole2drE:
 200 0008 00000000 		.zero	8
 200      00000000 
 203              	_ZN8KConsole2srE:
 204 0010 00000000 		.zero	8
 204      00000000 
 207              	_ZN8KConsole8inputSemE:
 208 0018 00000000 		.zero	8
 208      00000000 
 211              	_ZN8KConsole9outputSemE:
 212 0020 00000000 		.zero	8
 212      00000000 
 213              		.text
GAS LISTING /tmp/ccaKmH7i.s 			page 6


 214              	.Letext0:
 215              		.file 2 "src/../h/../lib/hw.h"
 216              		.file 3 "src/../h/../h/syscall_c.hpp"
 217              		.file 4 "src/../h/KConsole.hpp"
 218              		.file 5 "src/../h/../test/printing.hpp"
 219              		.file 6 "src/../h/../h/helper.hpp"
GAS LISTING /tmp/ccaKmH7i.s 			page 7

