GAS LISTING /tmp/ccjWn8Cu.s 			page 1


   1              		.file	"KSem.cpp"
   2              		.option pic
   3              		.option norelax
   4              		.text
   5              	.Ltext0:
   6              		.align	2
   7              		.globl	_ZN4KSemnwEm
   9              	_ZN4KSemnwEm:
  10              	.LFB32:
  11              		.file 1 "src/KSem.cpp"
   1:src/KSem.cpp  **** //
   2:src/KSem.cpp  **** // Created by os on 6/4/23.
   3:src/KSem.cpp  **** //
   4:src/KSem.cpp  **** 
   5:src/KSem.cpp  **** #include "../h/KSem.hpp"
   6:src/KSem.cpp  **** #include "../h/TCB.hpp"
   7:src/KSem.cpp  **** #include "../h/Scheduler.hpp"
   8:src/KSem.cpp  **** 
   9:src/KSem.cpp  **** void* KSem::operator new(size_t size) {
  12              		.loc 1 9 39
  13              		.cfi_startproc
  14              	.LVL0:
  15 0000 130101FF 		addi	sp,sp,-16
  16              		.cfi_def_cfa_offset 16
  17 0004 23341100 		sd	ra,8(sp)
  18 0008 23308100 		sd	s0,0(sp)
  19              		.cfi_offset 1, -8
  20              		.cfi_offset 8, -16
  21 000c 13040101 		addi	s0,sp,16
  22              		.cfi_def_cfa 8, 0
  10:src/KSem.cpp  ****     return mem_alloc(size);
  23              		.loc 1 10 5
  24              		.loc 1 10 21 is_stmt 0
  25 0010 97000000 		call	_Z9mem_allocm@plt
  25      E7800000 
  26              	.LVL1:
  11:src/KSem.cpp  **** 	//return MemoryAllocator::kmalloc(size + sizeof(MemoryAllocator::UsedMemSegment), MemoryAllocator:
  12:src/KSem.cpp  **** }
  27              		.loc 1 12 1
  28 0018 83308100 		ld	ra,8(sp)
  29              		.cfi_restore 1
  30 001c 03340100 		ld	s0,0(sp)
  31              		.cfi_restore 8
  32              		.cfi_def_cfa 2, 16
  33 0020 13010101 		addi	sp,sp,16
  34              		.cfi_def_cfa_offset 0
  35 0024 67800000 		jr	ra
  36              		.cfi_endproc
  37              	.LFE32:
  39              		.align	2
  40              		.globl	_ZN4KSemdlEPv
  42              	_ZN4KSemdlEPv:
  43              	.LFB33:
  13:src/KSem.cpp  **** 
  14:src/KSem.cpp  **** void KSem::operator delete(void* ptr) {
  44              		.loc 1 14 39 is_stmt 1
  45              		.cfi_startproc
GAS LISTING /tmp/ccjWn8Cu.s 			page 2


  46              	.LVL2:
  47 0028 130101FF 		addi	sp,sp,-16
  48              		.cfi_def_cfa_offset 16
  49 002c 23341100 		sd	ra,8(sp)
  50 0030 23308100 		sd	s0,0(sp)
  51              		.cfi_offset 1, -8
  52              		.cfi_offset 8, -16
  53 0034 13040101 		addi	s0,sp,16
  54              		.cfi_def_cfa 8, 0
  15:src/KSem.cpp  ****     mem_free(ptr);
  55              		.loc 1 15 5
  56              		.loc 1 15 13 is_stmt 0
  57 0038 97000000 		call	_Z8mem_freePv@plt
  57      E7800000 
  58              	.LVL3:
  16:src/KSem.cpp  **** 	//MemoryAllocator::kfree(ptr);
  17:src/KSem.cpp  **** }
  59              		.loc 1 17 1
  60 0040 83308100 		ld	ra,8(sp)
  61              		.cfi_restore 1
  62 0044 03340100 		ld	s0,0(sp)
  63              		.cfi_restore 8
  64              		.cfi_def_cfa 2, 16
  65 0048 13010101 		addi	sp,sp,16
  66              		.cfi_def_cfa_offset 0
  67 004c 67800000 		jr	ra
  68              		.cfi_endproc
  69              	.LFE33:
  71              		.align	2
  72              		.globl	_ZN4KSem7initSemEj
  74              	_ZN4KSem7initSemEj:
  75              	.LFB34:
  18:src/KSem.cpp  **** 
  19:src/KSem.cpp  **** KSem* KSem::initSem(uint val) {
  76              		.loc 1 19 31 is_stmt 1
  77              		.cfi_startproc
  78              	.LVL4:
  79 0050 130101FE 		addi	sp,sp,-32
  80              		.cfi_def_cfa_offset 32
  81 0054 233C1100 		sd	ra,24(sp)
  82 0058 23388100 		sd	s0,16(sp)
  83 005c 23349100 		sd	s1,8(sp)
  84              		.cfi_offset 1, -8
  85              		.cfi_offset 8, -16
  86              		.cfi_offset 9, -24
  87 0060 13040102 		addi	s0,sp,32
  88              		.cfi_def_cfa 8, 0
  89 0064 93040500 		mv	s1,a0
  20:src/KSem.cpp  **** 	return new KSem(val);
  90              		.loc 1 20 2
  91              		.loc 1 20 21 is_stmt 0
  92 0068 13050002 		li	a0,32
  93              	.LVL5:
  94 006c 97000000 		call	_ZN4KSemnwEm
  94      E7800000 
  95              	.LVL6:
  96              	.LBB21:
GAS LISTING /tmp/ccjWn8Cu.s 			page 3


  97              	.LBB22:
  98              		.file 2 "src/../h/KSem.hpp"
   1:src/../h/KSem.hpp **** //
   2:src/../h/KSem.hpp **** // Created by os on 6/4/23.
   3:src/../h/KSem.hpp **** //
   4:src/../h/KSem.hpp **** 
   5:src/../h/KSem.hpp **** #ifndef PROJEKAT2023_KSEM_HPP
   6:src/../h/KSem.hpp **** #define PROJEKAT2023_KSEM_HPP
   7:src/../h/KSem.hpp **** 
   8:src/../h/KSem.hpp **** #include "../h/ThreadQueue.hpp"
   9:src/../h/KSem.hpp **** 
  10:src/../h/KSem.hpp **** 
  11:src/../h/KSem.hpp **** class KSem {
  12:src/../h/KSem.hpp **** public:
  13:src/../h/KSem.hpp **** 	static KSem* initSem(uint val);
  14:src/../h/KSem.hpp **** 
  15:src/../h/KSem.hpp **** 	int wait();
  16:src/../h/KSem.hpp **** 
  17:src/../h/KSem.hpp **** 	int signal();
  18:src/../h/KSem.hpp **** 
  19:src/../h/KSem.hpp **** 	static int closeSem(sem_t handle);
  20:src/../h/KSem.hpp **** 
  21:src/../h/KSem.hpp **** 	static void* operator new(size_t size);
  22:src/../h/KSem.hpp **** 
  23:src/../h/KSem.hpp **** 	static void operator delete(void* ptr);
  24:src/../h/KSem.hpp **** 
  25:src/../h/KSem.hpp **** protected:
  26:src/../h/KSem.hpp **** 	void block();
  27:src/../h/KSem.hpp **** 
  28:src/../h/KSem.hpp **** 	void unblock();
  29:src/../h/KSem.hpp **** 
  30:src/../h/KSem.hpp **** private:
  31:src/../h/KSem.hpp **** 	KSem(uint val) : val(val), working(true) {}
  99              		.loc 2 31 41
 100 0074 23209500 		sw	s1,0(a0)
 101              	.LVL7:
 102              	.LBB23:
 103              	.LBB24:
 104              		.file 3 "src/../h/../h/ThreadQueue.hpp"
   1:src/../h/../h/ThreadQueue.hpp **** //
   2:src/../h/../h/ThreadQueue.hpp **** // Created by os on 6/4/23.
   3:src/../h/../h/ThreadQueue.hpp **** //
   4:src/../h/../h/ThreadQueue.hpp **** 
   5:src/../h/../h/ThreadQueue.hpp **** #ifndef PROJEKAT2023_THREADQUEUE_HPP
   6:src/../h/../h/ThreadQueue.hpp **** #define PROJEKAT2023_THREADQUEUE_HPP
   7:src/../h/../h/ThreadQueue.hpp **** 
   8:src/../h/../h/ThreadQueue.hpp **** #include "../h/MemoryAllocator.hpp"
   9:src/../h/../h/ThreadQueue.hpp **** #include "../h/syscall_c.hpp"
  10:src/../h/../h/ThreadQueue.hpp **** 
  11:src/../h/../h/ThreadQueue.hpp **** class TCB;
  12:src/../h/../h/ThreadQueue.hpp **** 
  13:src/../h/../h/ThreadQueue.hpp **** class ThreadQueue {
  14:src/../h/../h/ThreadQueue.hpp **** private:
  15:src/../h/../h/ThreadQueue.hpp ****     struct Node {
  16:src/../h/../h/ThreadQueue.hpp ****         TCB *data;
  17:src/../h/../h/ThreadQueue.hpp ****         Node *next;
  18:src/../h/../h/ThreadQueue.hpp **** 
GAS LISTING /tmp/ccjWn8Cu.s 			page 4


  19:src/../h/../h/ThreadQueue.hpp ****         Node(TCB *d) : data(d), next(nullptr) {}
  20:src/../h/../h/ThreadQueue.hpp **** 
  21:src/../h/../h/ThreadQueue.hpp ****         static void *operator new(size_t size) {
  22:src/../h/../h/ThreadQueue.hpp ****             return mem_alloc(size);
  23:src/../h/../h/ThreadQueue.hpp ****         }
  24:src/../h/../h/ThreadQueue.hpp **** 
  25:src/../h/../h/ThreadQueue.hpp ****         static void operator delete(void *ptr) {
  26:src/../h/../h/ThreadQueue.hpp ****             mem_free(ptr);
  27:src/../h/../h/ThreadQueue.hpp ****         }
  28:src/../h/../h/ThreadQueue.hpp ****     };
  29:src/../h/../h/ThreadQueue.hpp **** 
  30:src/../h/../h/ThreadQueue.hpp ****     Node *front;
  31:src/../h/../h/ThreadQueue.hpp ****     Node *back;
  32:src/../h/../h/ThreadQueue.hpp **** 
  33:src/../h/../h/ThreadQueue.hpp **** public:
  34:src/../h/../h/ThreadQueue.hpp ****     ThreadQueue() : front(nullptr), back(nullptr) {}
 105              		.loc 3 34 49
 106 0078 23340500 		sd	zero,8(a0)
 107 007c 23380500 		sd	zero,16(a0)
 108              	.LVL8:
 109              	.LBE24:
 110              	.LBE23:
 111              		.loc 2 31 41
 112 0080 13071000 		li	a4,1
 113 0084 230CE500 		sb	a4,24(a0)
 114              	.LVL9:
 115              	.LBE22:
 116              	.LBE21:
  21:src/KSem.cpp  **** }
 117              		.loc 1 21 1
 118 0088 83308101 		ld	ra,24(sp)
 119              		.cfi_restore 1
 120 008c 03340101 		ld	s0,16(sp)
 121              		.cfi_restore 8
 122              		.cfi_def_cfa 2, 32
 123 0090 83348100 		ld	s1,8(sp)
 124              		.cfi_restore 9
 125 0094 13010102 		addi	sp,sp,32
 126              		.cfi_def_cfa_offset 0
 127 0098 67800000 		jr	ra
 128              		.cfi_endproc
 129              	.LFE34:
 131              		.align	2
 132              		.globl	_ZN4KSem5blockEv
 134              	_ZN4KSem5blockEv:
 135              	.LFB37:
  22:src/KSem.cpp  **** 
  23:src/KSem.cpp  **** int KSem::wait() {
  24:src/KSem.cpp  **** 	//if (!MemoryAllocator::checkPurpose(this, MemoryAllocator::SEMAPHORE)) return -2;
  25:src/KSem.cpp  **** 	if (!working) return -3;
  26:src/KSem.cpp  **** 	if (--val < 0) {
  27:src/KSem.cpp  **** 		block();
  28:src/KSem.cpp  **** 		return -1;
  29:src/KSem.cpp  **** 	}
  30:src/KSem.cpp  **** 	return 0;
  31:src/KSem.cpp  **** }
  32:src/KSem.cpp  **** 
GAS LISTING /tmp/ccjWn8Cu.s 			page 5


  33:src/KSem.cpp  **** int KSem::signal() {
  34:src/KSem.cpp  **** 	//if (!MemoryAllocator::checkPurpose(this, MemoryAllocator::SEMAPHORE)) return -2;
  35:src/KSem.cpp  **** 	if (!working) return -3;
  36:src/KSem.cpp  **** 	if (val++ < 0) {
  37:src/KSem.cpp  **** 		unblock();
  38:src/KSem.cpp  **** 	}
  39:src/KSem.cpp  **** 	return 0;
  40:src/KSem.cpp  **** }
  41:src/KSem.cpp  **** 
  42:src/KSem.cpp  **** void KSem::block() {
 136              		.loc 1 42 20 is_stmt 1
 137              		.cfi_startproc
 138              	.LVL10:
 139 009c 130101FF 		addi	sp,sp,-16
 140              		.cfi_def_cfa_offset 16
 141 00a0 23341100 		sd	ra,8(sp)
 142 00a4 23308100 		sd	s0,0(sp)
 143              		.cfi_offset 1, -8
 144              		.cfi_offset 8, -16
 145 00a8 13040101 		addi	s0,sp,16
 146              		.cfi_def_cfa 8, 0
  43:src/KSem.cpp  **** 	//TCB::running->setBlocked(true);
  44:src/KSem.cpp  ****     TCB::running->setStatus(TCB::BLOCKED);
 147              		.loc 1 44 5
 148              		.loc 1 44 28 is_stmt 0
 149 00ac 97070000 		la	a5,_ZN3TCB7runningE
 149      83B70700 
 150 00b4 83B50700 		ld	a1,0(a5)
 151              	.LVL11:
 152              	.LBB25:
 153              	.LBB26:
 154              		.file 4 "src/../h/TCB.hpp"
   1:src/../h/TCB.hpp **** //
   2:src/../h/TCB.hpp **** // Created by os on 5/23/23.
   3:src/../h/TCB.hpp **** //
   4:src/../h/TCB.hpp **** 
   5:src/../h/TCB.hpp **** #ifndef PROJEKAT2023_TCB_HPP
   6:src/../h/TCB.hpp **** #define PROJEKAT2023_TCB_HPP
   7:src/../h/TCB.hpp **** 
   8:src/../h/TCB.hpp **** #include "../lib/hw.h"
   9:src/../h/TCB.hpp **** #include "../h/ThreadQueue.hpp"
  10:src/../h/TCB.hpp **** 
  11:src/../h/TCB.hpp **** class TCB {
  12:src/../h/TCB.hpp **** public:
  13:src/../h/TCB.hpp ****     friend class Scheduler;
  14:src/../h/TCB.hpp **** 
  15:src/../h/TCB.hpp ****     using Body = void (*)(void*);
  16:src/../h/TCB.hpp **** 
  17:src/../h/TCB.hpp ****     enum ThreadStatus {
  18:src/../h/TCB.hpp ****         CREATED, ACTIVE, BLOCKED, JOINING, SLEEPING, FINISHED
  19:src/../h/TCB.hpp ****     };
  20:src/../h/TCB.hpp **** 
  21:src/../h/TCB.hpp ****     void setStatus(ThreadStatus stat) { this->status = stat; }
 155              		.loc 4 21 41 is_stmt 1
 156              		.loc 4 21 54 is_stmt 0
 157 00b8 93072000 		li	a5,2
 158 00bc 23ACF504 		sw	a5,88(a1)
GAS LISTING /tmp/ccjWn8Cu.s 			page 6


 159              	.LVL12:
 160              	.LBE26:
 161              	.LBE25:
  45:src/KSem.cpp  **** 	blocked.putLast(TCB::running);
 162              		.loc 1 45 2 is_stmt 1
 163              		.loc 1 45 17 is_stmt 0
 164 00c0 13058500 		addi	a0,a0,8
 165              	.LVL13:
 166 00c4 97000000 		call	_ZN11ThreadQueue7putLastEP3TCB@plt
 166      E7800000 
 167              	.LVL14:
  46:src/KSem.cpp  **** 	TCB::yield();
 168              		.loc 1 46 2 is_stmt 1
 169              		.loc 1 46 12 is_stmt 0
 170 00cc 97000000 		call	_ZN3TCB5yieldEv@plt
 170      E7800000 
 171              	.LVL15:
  47:src/KSem.cpp  **** }
 172              		.loc 1 47 1
 173 00d4 83308100 		ld	ra,8(sp)
 174              		.cfi_restore 1
 175 00d8 03340100 		ld	s0,0(sp)
 176              		.cfi_restore 8
 177              		.cfi_def_cfa 2, 16
 178 00dc 13010101 		addi	sp,sp,16
 179              		.cfi_def_cfa_offset 0
 180 00e0 67800000 		jr	ra
 181              		.cfi_endproc
 182              	.LFE37:
 184              		.align	2
 185              		.globl	_ZN4KSem4waitEv
 187              	_ZN4KSem4waitEv:
 188              	.LFB35:
  23:src/KSem.cpp  **** 	//if (!MemoryAllocator::checkPurpose(this, MemoryAllocator::SEMAPHORE)) return -2;
 189              		.loc 1 23 18 is_stmt 1
 190              		.cfi_startproc
 191              	.LVL16:
  25:src/KSem.cpp  **** 	if (--val < 0) {
 192              		.loc 1 25 2
  25:src/KSem.cpp  **** 	if (--val < 0) {
 193              		.loc 1 25 7 is_stmt 0
 194 00e4 83478501 		lbu	a5,24(a0)
  25:src/KSem.cpp  **** 	if (--val < 0) {
 195              		.loc 1 25 2
 196 00e8 63860704 		beqz	a5,.L11
  26:src/KSem.cpp  **** 		block();
 197              		.loc 1 26 2 is_stmt 1
  26:src/KSem.cpp  **** 		block();
 198              		.loc 1 26 8 is_stmt 0
 199 00ec 83270500 		lw	a5,0(a0)
  26:src/KSem.cpp  **** 		block();
 200              		.loc 1 26 6
 201 00f0 9B87F7FF 		addiw	a5,a5,-1
  26:src/KSem.cpp  **** 		block();
 202              		.loc 1 26 12
 203 00f4 2320F500 		sw	a5,0(a0)
  26:src/KSem.cpp  **** 		block();
GAS LISTING /tmp/ccjWn8Cu.s 			page 7


 204              		.loc 1 26 2
 205 00f8 13970702 		slli	a4,a5,32
 206 00fc 63460700 		bltz	a4,.L17
  30:src/KSem.cpp  **** }
 207              		.loc 1 30 9
 208 0100 13050000 		li	a0,0
 209              	.LVL17:
  31:src/KSem.cpp  **** 
 210              		.loc 1 31 1
 211 0104 67800000 		ret
 212              	.LVL18:
 213              	.L17:
  23:src/KSem.cpp  **** 	//if (!MemoryAllocator::checkPurpose(this, MemoryAllocator::SEMAPHORE)) return -2;
 214              		.loc 1 23 18
 215 0108 130101FF 		addi	sp,sp,-16
 216              		.cfi_def_cfa_offset 16
 217 010c 23341100 		sd	ra,8(sp)
 218 0110 23308100 		sd	s0,0(sp)
 219              		.cfi_offset 1, -8
 220              		.cfi_offset 8, -16
 221 0114 13040101 		addi	s0,sp,16
 222              		.cfi_def_cfa 8, 0
  27:src/KSem.cpp  **** 		return -1;
 223              		.loc 1 27 3 is_stmt 1
  27:src/KSem.cpp  **** 		return -1;
 224              		.loc 1 27 8 is_stmt 0
 225 0118 97000000 		call	_ZN4KSem5blockEv
 225      E7800000 
 226              	.LVL19:
  28:src/KSem.cpp  **** 	}
 227              		.loc 1 28 3 is_stmt 1
  28:src/KSem.cpp  **** 	}
 228              		.loc 1 28 11 is_stmt 0
 229 0120 1305F0FF 		li	a0,-1
  31:src/KSem.cpp  **** 
 230              		.loc 1 31 1
 231 0124 83308100 		ld	ra,8(sp)
 232              		.cfi_restore 1
 233 0128 03340100 		ld	s0,0(sp)
 234              		.cfi_restore 8
 235              		.cfi_def_cfa 2, 16
 236 012c 13010101 		addi	sp,sp,16
 237              		.cfi_def_cfa_offset 0
 238 0130 67800000 		jr	ra
 239              	.LVL20:
 240              	.L11:
  25:src/KSem.cpp  **** 	if (--val < 0) {
 241              		.loc 1 25 24
 242 0134 1305D0FF 		li	a0,-3
 243              	.LVL21:
 244 0138 67800000 		ret
 245              		.cfi_endproc
 246              	.LFE35:
 248              		.align	2
 249              		.globl	_ZN4KSem7unblockEv
 251              	_ZN4KSem7unblockEv:
 252              	.LFB38:
GAS LISTING /tmp/ccjWn8Cu.s 			page 8


  48:src/KSem.cpp  **** 
  49:src/KSem.cpp  **** void KSem::unblock() {
 253              		.loc 1 49 22 is_stmt 1
 254              		.cfi_startproc
 255              	.LVL22:
 256 013c 130101FF 		addi	sp,sp,-16
 257              		.cfi_def_cfa_offset 16
 258 0140 23341100 		sd	ra,8(sp)
 259 0144 23308100 		sd	s0,0(sp)
 260              		.cfi_offset 1, -8
 261              		.cfi_offset 8, -16
 262 0148 13040101 		addi	s0,sp,16
 263              		.cfi_def_cfa 8, 0
  50:src/KSem.cpp  **** 	TCB* tcb = blocked.getFirst();
 264              		.loc 1 50 2
 265              		.loc 1 50 29 is_stmt 0
 266 014c 13058500 		addi	a0,a0,8
 267              	.LVL23:
 268 0150 97000000 		call	_ZN11ThreadQueue8getFirstEv@plt
 268      E7800000 
 269              	.LVL24:
  51:src/KSem.cpp  **** 	//tcb->setBlocked(false);
  52:src/KSem.cpp  ****     tcb->setStatus(TCB::ACTIVE);
 270              		.loc 1 52 5 is_stmt 1
 271              	.LBB27:
 272              	.LBB28:
 273              		.loc 4 21 41
 274              		.loc 4 21 54 is_stmt 0
 275 0158 93071000 		li	a5,1
 276 015c 232CF504 		sw	a5,88(a0)
 277              	.LVL25:
 278              	.LBE28:
 279              	.LBE27:
  53:src/KSem.cpp  **** 	Scheduler::put(tcb);
 280              		.loc 1 53 2 is_stmt 1
 281              		.loc 1 53 16 is_stmt 0
 282 0160 97000000 		call	_ZN9Scheduler3putEP3TCB@plt
 282      E7800000 
 283              	.LVL26:
  54:src/KSem.cpp  **** }
 284              		.loc 1 54 1
 285 0168 83308100 		ld	ra,8(sp)
 286              		.cfi_restore 1
 287 016c 03340100 		ld	s0,0(sp)
 288              		.cfi_restore 8
 289              		.cfi_def_cfa 2, 16
 290 0170 13010101 		addi	sp,sp,16
 291              		.cfi_def_cfa_offset 0
 292 0174 67800000 		jr	ra
 293              		.cfi_endproc
 294              	.LFE38:
 296              		.align	2
 297              		.globl	_ZN4KSem6signalEv
 299              	_ZN4KSem6signalEv:
 300              	.LFB36:
  33:src/KSem.cpp  **** 	//if (!MemoryAllocator::checkPurpose(this, MemoryAllocator::SEMAPHORE)) return -2;
 301              		.loc 1 33 20 is_stmt 1
GAS LISTING /tmp/ccjWn8Cu.s 			page 9


 302              		.cfi_startproc
 303              	.LVL27:
  35:src/KSem.cpp  **** 	if (val++ < 0) {
 304              		.loc 1 35 2
  35:src/KSem.cpp  **** 	if (val++ < 0) {
 305              		.loc 1 35 7 is_stmt 0
 306 0178 83478501 		lbu	a5,24(a0)
  35:src/KSem.cpp  **** 	if (val++ < 0) {
 307              		.loc 1 35 2
 308 017c 63840704 		beqz	a5,.L22
  36:src/KSem.cpp  **** 		unblock();
 309              		.loc 1 36 2 is_stmt 1
  36:src/KSem.cpp  **** 		unblock();
 310              		.loc 1 36 6 is_stmt 0
 311 0180 83270500 		lw	a5,0(a0)
  36:src/KSem.cpp  **** 		unblock();
 312              		.loc 1 36 9
 313 0184 1B871700 		addiw	a4,a5,1
 314 0188 2320E500 		sw	a4,0(a0)
  36:src/KSem.cpp  **** 		unblock();
 315              		.loc 1 36 2
 316 018c 63C60700 		bltz	a5,.L28
  39:src/KSem.cpp  **** }
 317              		.loc 1 39 9
 318 0190 13050000 		li	a0,0
 319              	.LVL28:
  40:src/KSem.cpp  **** 
 320              		.loc 1 40 1
 321 0194 67800000 		ret
 322              	.LVL29:
 323              	.L28:
  33:src/KSem.cpp  **** 	//if (!MemoryAllocator::checkPurpose(this, MemoryAllocator::SEMAPHORE)) return -2;
 324              		.loc 1 33 20
 325 0198 130101FF 		addi	sp,sp,-16
 326              		.cfi_def_cfa_offset 16
 327 019c 23341100 		sd	ra,8(sp)
 328 01a0 23308100 		sd	s0,0(sp)
 329              		.cfi_offset 1, -8
 330              		.cfi_offset 8, -16
 331 01a4 13040101 		addi	s0,sp,16
 332              		.cfi_def_cfa 8, 0
  37:src/KSem.cpp  **** 	}
 333              		.loc 1 37 3 is_stmt 1
  37:src/KSem.cpp  **** 	}
 334              		.loc 1 37 10 is_stmt 0
 335 01a8 97000000 		call	_ZN4KSem7unblockEv
 335      E7800000 
 336              	.LVL30:
  39:src/KSem.cpp  **** }
 337              		.loc 1 39 9
 338 01b0 13050000 		li	a0,0
  40:src/KSem.cpp  **** 
 339              		.loc 1 40 1
 340 01b4 83308100 		ld	ra,8(sp)
 341              		.cfi_restore 1
 342 01b8 03340100 		ld	s0,0(sp)
 343              		.cfi_restore 8
GAS LISTING /tmp/ccjWn8Cu.s 			page 10


 344              		.cfi_def_cfa 2, 16
 345 01bc 13010101 		addi	sp,sp,16
 346              		.cfi_def_cfa_offset 0
 347 01c0 67800000 		jr	ra
 348              	.LVL31:
 349              	.L22:
  35:src/KSem.cpp  **** 	if (val++ < 0) {
 350              		.loc 1 35 24
 351 01c4 1305D0FF 		li	a0,-3
 352              	.LVL32:
 353 01c8 67800000 		ret
 354              		.cfi_endproc
 355              	.LFE36:
 357              		.align	2
 358              		.globl	_ZN4KSem8closeSemEPS_
 360              	_ZN4KSem8closeSemEPS_:
 361              	.LFB39:
  55:src/KSem.cpp  **** 
  56:src/KSem.cpp  **** int KSem::closeSem(sem_t handle) {
 362              		.loc 1 56 34 is_stmt 1
 363              		.cfi_startproc
 364              	.LVL33:
 365 01cc 130101FE 		addi	sp,sp,-32
 366              		.cfi_def_cfa_offset 32
 367 01d0 233C1100 		sd	ra,24(sp)
 368 01d4 23388100 		sd	s0,16(sp)
 369 01d8 23349100 		sd	s1,8(sp)
 370              		.cfi_offset 1, -8
 371              		.cfi_offset 8, -16
 372              		.cfi_offset 9, -24
 373 01dc 13040102 		addi	s0,sp,32
 374              		.cfi_def_cfa 8, 0
 375 01e0 93040500 		mv	s1,a0
  57:src/KSem.cpp  **** 	//if (!MemoryAllocator::checkPurpose(handle, MemoryAllocator::SEMAPHORE)) return -2;
  58:src/KSem.cpp  **** 	handle->working = false;
 376              		.loc 1 58 2
 377              		.loc 1 58 18 is_stmt 0
 378 01e4 230C0500 		sb	zero,24(a0)
 379              	.LVL34:
 380              	.L31:
  59:src/KSem.cpp  **** 	while (!handle->blocked.isEmpty()) {
 381              		.loc 1 59 2 is_stmt 1
 382              		.loc 1 59 9
 383              	.LBB29:
 384              	.LBB30:
  35:src/../h/../h/ThreadQueue.hpp **** 
  36:src/../h/../h/ThreadQueue.hpp ****     ThreadQueue(const ThreadQueue &) = delete;
  37:src/../h/../h/ThreadQueue.hpp **** 
  38:src/../h/../h/ThreadQueue.hpp ****     ThreadQueue &operator=(const ThreadQueue &) = delete;
  39:src/../h/../h/ThreadQueue.hpp **** 
  40:src/../h/../h/ThreadQueue.hpp ****     ~ThreadQueue() {
  41:src/../h/../h/ThreadQueue.hpp ****         while (!isEmpty()) {
  42:src/../h/../h/ThreadQueue.hpp ****             Node *node = front;
  43:src/../h/../h/ThreadQueue.hpp ****             front = front->next;
  44:src/../h/../h/ThreadQueue.hpp ****             delete node;
  45:src/../h/../h/ThreadQueue.hpp ****         }
  46:src/../h/../h/ThreadQueue.hpp ****     }
GAS LISTING /tmp/ccjWn8Cu.s 			page 11


  47:src/../h/../h/ThreadQueue.hpp **** 
  48:src/../h/../h/ThreadQueue.hpp ****     bool isEmpty() const {
  49:src/../h/../h/ThreadQueue.hpp ****         bool ret = front == nullptr;
 385              		.loc 3 49 9
 386              		.loc 3 49 20 is_stmt 0
 387 01e8 83B78400 		ld	a5,8(s1)
 388              	.LVL35:
  50:src/../h/../h/ThreadQueue.hpp ****         return ret;
 389              		.loc 3 50 9 is_stmt 1
 390              	.LBE30:
 391              	.LBE29:
 392              		.loc 1 59 9 is_stmt 0
 393 01ec 63820702 		beqz	a5,.L30
 394              	.LBB31:
  60:src/KSem.cpp  **** 		TCB* tcb = handle->blocked.getFirst();
 395              		.loc 1 60 3 is_stmt 1
 396              		.loc 1 60 38 is_stmt 0
 397 01f0 13858400 		addi	a0,s1,8
 398 01f4 97000000 		call	_ZN11ThreadQueue8getFirstEv@plt
 398      E7800000 
 399              	.LVL36:
  61:src/KSem.cpp  **** 		//tcb->setBlocked(false);
  62:src/KSem.cpp  ****         tcb->setStatus(TCB::ACTIVE);
 400              		.loc 1 62 9 is_stmt 1
 401              	.LBB32:
 402              	.LBB33:
 403              		.loc 4 21 41
 404              		.loc 4 21 54 is_stmt 0
 405 01fc 93071000 		li	a5,1
 406 0200 232CF504 		sw	a5,88(a0)
 407              	.LVL37:
 408              	.LBE33:
 409              	.LBE32:
  63:src/KSem.cpp  **** 		Scheduler::put(tcb);
 410              		.loc 1 63 3 is_stmt 1
 411              		.loc 1 63 17 is_stmt 0
 412 0204 97000000 		call	_ZN9Scheduler3putEP3TCB@plt
 412      E7800000 
 413              	.LVL38:
 414              	.LBE31:
  59:src/KSem.cpp  **** 		TCB* tcb = handle->blocked.getFirst();
 415              		.loc 1 59 2
 416 020c 6FF0DFFD 		j	.L31
 417              	.L30:
  64:src/KSem.cpp  **** 	}
  65:src/KSem.cpp  **** 	return 0;
 418              		.loc 1 65 2 is_stmt 1
  66:src/KSem.cpp  **** }
 419              		.loc 1 66 1 is_stmt 0
 420 0210 13050000 		li	a0,0
 421 0214 83308101 		ld	ra,24(sp)
 422              		.cfi_restore 1
 423 0218 03340101 		ld	s0,16(sp)
 424              		.cfi_restore 8
 425              		.cfi_def_cfa 2, 32
 426 021c 83348100 		ld	s1,8(sp)
 427              		.cfi_restore 9
GAS LISTING /tmp/ccjWn8Cu.s 			page 12


 428              	.LVL39:
 429 0220 13010102 		addi	sp,sp,32
 430              		.cfi_def_cfa_offset 0
 431 0224 67800000 		jr	ra
 432              		.cfi_endproc
 433              	.LFE39:
 435              	.Letext0:
 436              		.file 5 "src/../h/../h/../h/../lib/hw.h"
 437              		.file 6 "src/../h/../h/../h/syscall_c.hpp"
 438              		.file 7 "src/../h/Scheduler.hpp"
GAS LISTING /tmp/ccjWn8Cu.s 			page 13


DEFINED SYMBOLS
                            *ABS*:0000000000000000 KSem.cpp
     /tmp/ccjWn8Cu.s:9      .text:0000000000000000 _ZN4KSemnwEm
     /tmp/ccjWn8Cu.s:13     .text:0000000000000000 .L0 
     /tmp/ccjWn8Cu.s:15     .text:0000000000000000 .L0 
     /tmp/ccjWn8Cu.s:16     .text:0000000000000004 .L0 
     /tmp/ccjWn8Cu.s:19     .text:000000000000000c .L0 
     /tmp/ccjWn8Cu.s:20     .text:000000000000000c .L0 
     /tmp/ccjWn8Cu.s:22     .text:0000000000000010 .L0 
     /tmp/ccjWn8Cu.s:24     .text:0000000000000010 .L0 
     /tmp/ccjWn8Cu.s:25     .text:0000000000000010 .L0 
     /tmp/ccjWn8Cu.s:28     .text:0000000000000018 .L0 
     /tmp/ccjWn8Cu.s:29     .text:000000000000001c .L0 
     /tmp/ccjWn8Cu.s:31     .text:0000000000000020 .L0 
     /tmp/ccjWn8Cu.s:32     .text:0000000000000020 .L0 
     /tmp/ccjWn8Cu.s:34     .text:0000000000000024 .L0 
     /tmp/ccjWn8Cu.s:36     .text:0000000000000028 .L0 
     /tmp/ccjWn8Cu.s:42     .text:0000000000000028 _ZN4KSemdlEPv
     /tmp/ccjWn8Cu.s:45     .text:0000000000000028 .L0 
     /tmp/ccjWn8Cu.s:47     .text:0000000000000028 .L0 
     /tmp/ccjWn8Cu.s:48     .text:000000000000002c .L0 
     /tmp/ccjWn8Cu.s:51     .text:0000000000000034 .L0 
     /tmp/ccjWn8Cu.s:52     .text:0000000000000034 .L0 
     /tmp/ccjWn8Cu.s:54     .text:0000000000000038 .L0 
     /tmp/ccjWn8Cu.s:56     .text:0000000000000038 .L0 
     /tmp/ccjWn8Cu.s:57     .text:0000000000000038 .L0 
     /tmp/ccjWn8Cu.s:60     .text:0000000000000040 .L0 
     /tmp/ccjWn8Cu.s:61     .text:0000000000000044 .L0 
     /tmp/ccjWn8Cu.s:63     .text:0000000000000048 .L0 
     /tmp/ccjWn8Cu.s:64     .text:0000000000000048 .L0 
     /tmp/ccjWn8Cu.s:66     .text:000000000000004c .L0 
     /tmp/ccjWn8Cu.s:68     .text:0000000000000050 .L0 
     /tmp/ccjWn8Cu.s:74     .text:0000000000000050 _ZN4KSem7initSemEj
     /tmp/ccjWn8Cu.s:77     .text:0000000000000050 .L0 
     /tmp/ccjWn8Cu.s:79     .text:0000000000000050 .L0 
     /tmp/ccjWn8Cu.s:80     .text:0000000000000054 .L0 
     /tmp/ccjWn8Cu.s:84     .text:0000000000000060 .L0 
     /tmp/ccjWn8Cu.s:85     .text:0000000000000060 .L0 
     /tmp/ccjWn8Cu.s:86     .text:0000000000000060 .L0 
     /tmp/ccjWn8Cu.s:88     .text:0000000000000064 .L0 
     /tmp/ccjWn8Cu.s:91     .text:0000000000000068 .L0 
     /tmp/ccjWn8Cu.s:92     .text:0000000000000068 .L0 
     /tmp/ccjWn8Cu.s:100    .text:0000000000000074 .L0 
     /tmp/ccjWn8Cu.s:106    .text:0000000000000078 .L0 
     /tmp/ccjWn8Cu.s:112    .text:0000000000000080 .L0 
     /tmp/ccjWn8Cu.s:118    .text:0000000000000088 .L0 
     /tmp/ccjWn8Cu.s:119    .text:000000000000008c .L0 
     /tmp/ccjWn8Cu.s:121    .text:0000000000000090 .L0 
     /tmp/ccjWn8Cu.s:122    .text:0000000000000090 .L0 
     /tmp/ccjWn8Cu.s:124    .text:0000000000000094 .L0 
     /tmp/ccjWn8Cu.s:126    .text:0000000000000098 .L0 
     /tmp/ccjWn8Cu.s:128    .text:000000000000009c .L0 
     /tmp/ccjWn8Cu.s:134    .text:000000000000009c _ZN4KSem5blockEv
     /tmp/ccjWn8Cu.s:137    .text:000000000000009c .L0 
     /tmp/ccjWn8Cu.s:139    .text:000000000000009c .L0 
     /tmp/ccjWn8Cu.s:140    .text:00000000000000a0 .L0 
     /tmp/ccjWn8Cu.s:143    .text:00000000000000a8 .L0 
GAS LISTING /tmp/ccjWn8Cu.s 			page 14


     /tmp/ccjWn8Cu.s:144    .text:00000000000000a8 .L0 
     /tmp/ccjWn8Cu.s:146    .text:00000000000000ac .L0 
     /tmp/ccjWn8Cu.s:148    .text:00000000000000ac .L0 
     /tmp/ccjWn8Cu.s:149    .text:00000000000000ac .L0 
     /tmp/ccjWn8Cu.s:156    .text:00000000000000b8 .L0 
     /tmp/ccjWn8Cu.s:157    .text:00000000000000b8 .L0 
     /tmp/ccjWn8Cu.s:163    .text:00000000000000c0 .L0 
     /tmp/ccjWn8Cu.s:164    .text:00000000000000c0 .L0 
     /tmp/ccjWn8Cu.s:169    .text:00000000000000cc .L0 
     /tmp/ccjWn8Cu.s:170    .text:00000000000000cc .L0 
     /tmp/ccjWn8Cu.s:173    .text:00000000000000d4 .L0 
     /tmp/ccjWn8Cu.s:174    .text:00000000000000d8 .L0 
     /tmp/ccjWn8Cu.s:176    .text:00000000000000dc .L0 
     /tmp/ccjWn8Cu.s:177    .text:00000000000000dc .L0 
     /tmp/ccjWn8Cu.s:179    .text:00000000000000e0 .L0 
     /tmp/ccjWn8Cu.s:181    .text:00000000000000e4 .L0 
     /tmp/ccjWn8Cu.s:187    .text:00000000000000e4 _ZN4KSem4waitEv
     /tmp/ccjWn8Cu.s:190    .text:00000000000000e4 .L0 
     /tmp/ccjWn8Cu.s:192    .text:00000000000000e4 .L0 
     /tmp/ccjWn8Cu.s:193    .text:00000000000000e4 .L0 
     /tmp/ccjWn8Cu.s:194    .text:00000000000000e4 .L0 
     /tmp/ccjWn8Cu.s:196    .text:00000000000000e8 .L0 
     /tmp/ccjWn8Cu.s:198    .text:00000000000000ec .L0 
     /tmp/ccjWn8Cu.s:199    .text:00000000000000ec .L0 
     /tmp/ccjWn8Cu.s:201    .text:00000000000000f0 .L0 
     /tmp/ccjWn8Cu.s:203    .text:00000000000000f4 .L0 
     /tmp/ccjWn8Cu.s:205    .text:00000000000000f8 .L0 
     /tmp/ccjWn8Cu.s:208    .text:0000000000000100 .L0 
     /tmp/ccjWn8Cu.s:211    .text:0000000000000104 .L0 
     /tmp/ccjWn8Cu.s:215    .text:0000000000000108 .L0 
     /tmp/ccjWn8Cu.s:216    .text:000000000000010c .L0 
     /tmp/ccjWn8Cu.s:219    .text:0000000000000114 .L0 
     /tmp/ccjWn8Cu.s:220    .text:0000000000000114 .L0 
     /tmp/ccjWn8Cu.s:222    .text:0000000000000118 .L0 
     /tmp/ccjWn8Cu.s:224    .text:0000000000000118 .L0 
     /tmp/ccjWn8Cu.s:225    .text:0000000000000118 .L0 
     /tmp/ccjWn8Cu.s:228    .text:0000000000000120 .L0 
     /tmp/ccjWn8Cu.s:229    .text:0000000000000120 .L0 
     /tmp/ccjWn8Cu.s:231    .text:0000000000000124 .L0 
     /tmp/ccjWn8Cu.s:232    .text:0000000000000128 .L0 
     /tmp/ccjWn8Cu.s:234    .text:000000000000012c .L0 
     /tmp/ccjWn8Cu.s:235    .text:000000000000012c .L0 
     /tmp/ccjWn8Cu.s:237    .text:0000000000000130 .L0 
     /tmp/ccjWn8Cu.s:242    .text:0000000000000134 .L0 
     /tmp/ccjWn8Cu.s:245    .text:000000000000013c .L0 
     /tmp/ccjWn8Cu.s:251    .text:000000000000013c _ZN4KSem7unblockEv
     /tmp/ccjWn8Cu.s:254    .text:000000000000013c .L0 
     /tmp/ccjWn8Cu.s:256    .text:000000000000013c .L0 
     /tmp/ccjWn8Cu.s:257    .text:0000000000000140 .L0 
     /tmp/ccjWn8Cu.s:260    .text:0000000000000148 .L0 
     /tmp/ccjWn8Cu.s:261    .text:0000000000000148 .L0 
     /tmp/ccjWn8Cu.s:263    .text:000000000000014c .L0 
     /tmp/ccjWn8Cu.s:265    .text:000000000000014c .L0 
     /tmp/ccjWn8Cu.s:266    .text:000000000000014c .L0 
     /tmp/ccjWn8Cu.s:273    .text:0000000000000158 .L0 
     /tmp/ccjWn8Cu.s:274    .text:0000000000000158 .L0 
     /tmp/ccjWn8Cu.s:275    .text:0000000000000158 .L0 
GAS LISTING /tmp/ccjWn8Cu.s 			page 15


     /tmp/ccjWn8Cu.s:281    .text:0000000000000160 .L0 
     /tmp/ccjWn8Cu.s:282    .text:0000000000000160 .L0 
     /tmp/ccjWn8Cu.s:285    .text:0000000000000168 .L0 
     /tmp/ccjWn8Cu.s:286    .text:000000000000016c .L0 
     /tmp/ccjWn8Cu.s:288    .text:0000000000000170 .L0 
     /tmp/ccjWn8Cu.s:289    .text:0000000000000170 .L0 
     /tmp/ccjWn8Cu.s:291    .text:0000000000000174 .L0 
     /tmp/ccjWn8Cu.s:293    .text:0000000000000178 .L0 
     /tmp/ccjWn8Cu.s:299    .text:0000000000000178 _ZN4KSem6signalEv
     /tmp/ccjWn8Cu.s:302    .text:0000000000000178 .L0 
     /tmp/ccjWn8Cu.s:304    .text:0000000000000178 .L0 
     /tmp/ccjWn8Cu.s:305    .text:0000000000000178 .L0 
     /tmp/ccjWn8Cu.s:306    .text:0000000000000178 .L0 
     /tmp/ccjWn8Cu.s:308    .text:000000000000017c .L0 
     /tmp/ccjWn8Cu.s:310    .text:0000000000000180 .L0 
     /tmp/ccjWn8Cu.s:311    .text:0000000000000180 .L0 
     /tmp/ccjWn8Cu.s:313    .text:0000000000000184 .L0 
     /tmp/ccjWn8Cu.s:316    .text:000000000000018c .L0 
     /tmp/ccjWn8Cu.s:318    .text:0000000000000190 .L0 
     /tmp/ccjWn8Cu.s:321    .text:0000000000000194 .L0 
     /tmp/ccjWn8Cu.s:325    .text:0000000000000198 .L0 
     /tmp/ccjWn8Cu.s:326    .text:000000000000019c .L0 
     /tmp/ccjWn8Cu.s:329    .text:00000000000001a4 .L0 
     /tmp/ccjWn8Cu.s:330    .text:00000000000001a4 .L0 
     /tmp/ccjWn8Cu.s:332    .text:00000000000001a8 .L0 
     /tmp/ccjWn8Cu.s:334    .text:00000000000001a8 .L0 
     /tmp/ccjWn8Cu.s:335    .text:00000000000001a8 .L0 
     /tmp/ccjWn8Cu.s:338    .text:00000000000001b0 .L0 
     /tmp/ccjWn8Cu.s:340    .text:00000000000001b4 .L0 
     /tmp/ccjWn8Cu.s:341    .text:00000000000001b8 .L0 
     /tmp/ccjWn8Cu.s:343    .text:00000000000001bc .L0 
     /tmp/ccjWn8Cu.s:344    .text:00000000000001bc .L0 
     /tmp/ccjWn8Cu.s:346    .text:00000000000001c0 .L0 
     /tmp/ccjWn8Cu.s:351    .text:00000000000001c4 .L0 
     /tmp/ccjWn8Cu.s:354    .text:00000000000001cc .L0 
     /tmp/ccjWn8Cu.s:360    .text:00000000000001cc _ZN4KSem8closeSemEPS_
     /tmp/ccjWn8Cu.s:363    .text:00000000000001cc .L0 
     /tmp/ccjWn8Cu.s:365    .text:00000000000001cc .L0 
     /tmp/ccjWn8Cu.s:366    .text:00000000000001d0 .L0 
     /tmp/ccjWn8Cu.s:370    .text:00000000000001dc .L0 
     /tmp/ccjWn8Cu.s:371    .text:00000000000001dc .L0 
     /tmp/ccjWn8Cu.s:372    .text:00000000000001dc .L0 
     /tmp/ccjWn8Cu.s:374    .text:00000000000001e0 .L0 
     /tmp/ccjWn8Cu.s:377    .text:00000000000001e4 .L0 
     /tmp/ccjWn8Cu.s:378    .text:00000000000001e4 .L0 
     /tmp/ccjWn8Cu.s:382    .text:00000000000001e8 .L0 
     /tmp/ccjWn8Cu.s:385    .text:00000000000001e8 .L0 
     /tmp/ccjWn8Cu.s:386    .text:00000000000001e8 .L0 
     /tmp/ccjWn8Cu.s:387    .text:00000000000001e8 .L0 
     /tmp/ccjWn8Cu.s:392    .text:00000000000001ec .L0 
     /tmp/ccjWn8Cu.s:393    .text:00000000000001ec .L0 
     /tmp/ccjWn8Cu.s:396    .text:00000000000001f0 .L0 
     /tmp/ccjWn8Cu.s:397    .text:00000000000001f0 .L0 
     /tmp/ccjWn8Cu.s:403    .text:00000000000001fc .L0 
     /tmp/ccjWn8Cu.s:404    .text:00000000000001fc .L0 
     /tmp/ccjWn8Cu.s:405    .text:00000000000001fc .L0 
     /tmp/ccjWn8Cu.s:411    .text:0000000000000204 .L0 
GAS LISTING /tmp/ccjWn8Cu.s 			page 16


     /tmp/ccjWn8Cu.s:412    .text:0000000000000204 .L0 
     /tmp/ccjWn8Cu.s:416    .text:000000000000020c .L0 
     /tmp/ccjWn8Cu.s:419    .text:0000000000000210 .L0 
     /tmp/ccjWn8Cu.s:420    .text:0000000000000210 .L0 
     /tmp/ccjWn8Cu.s:422    .text:0000000000000218 .L0 
     /tmp/ccjWn8Cu.s:424    .text:000000000000021c .L0 
     /tmp/ccjWn8Cu.s:425    .text:000000000000021c .L0 
     /tmp/ccjWn8Cu.s:427    .text:0000000000000220 .L0 
     /tmp/ccjWn8Cu.s:430    .text:0000000000000224 .L0 
     /tmp/ccjWn8Cu.s:432    .text:0000000000000228 .L0 
     /tmp/ccjWn8Cu.s:439    .text:0000000000000228 .L0 
     /tmp/ccjWn8Cu.s:149    .text:00000000000000ac .L0 
     /tmp/ccjWn8Cu.s:240    .text:0000000000000134 .L11
     /tmp/ccjWn8Cu.s:213    .text:0000000000000108 .L17
     /tmp/ccjWn8Cu.s:349    .text:00000000000001c4 .L22
     /tmp/ccjWn8Cu.s:323    .text:0000000000000198 .L28
     /tmp/ccjWn8Cu.s:417    .text:0000000000000210 .L30
     /tmp/ccjWn8Cu.s:380    .text:00000000000001e8 .L31
     /tmp/ccjWn8Cu.s:1844   .debug_abbrev:0000000000000000 .Ldebug_abbrev0
     /tmp/ccjWn8Cu.s:3477   .debug_str:0000000000000663 .LASF133
     /tmp/ccjWn8Cu.s:3319   .debug_str:000000000000020b .LASF134
     /tmp/ccjWn8Cu.s:3325   .debug_str:000000000000022c .LASF135
     /tmp/ccjWn8Cu.s:5      .text:0000000000000000 .Ltext0
     /tmp/ccjWn8Cu.s:435    .text:0000000000000228 .Letext0
     /tmp/ccjWn8Cu.s:3237   .debug_line:0000000000000000 .Ldebug_line0
     /tmp/ccjWn8Cu.s:3281   .debug_str:000000000000011a .LASF3
     /tmp/ccjWn8Cu.s:3391   .debug_str:0000000000000403 .LASF0
     /tmp/ccjWn8Cu.s:3407   .debug_str:0000000000000456 .LASF1
     /tmp/ccjWn8Cu.s:3369   .debug_str:0000000000000381 .LASF2
     /tmp/ccjWn8Cu.s:3335   .debug_str:0000000000000297 .LASF4
     /tmp/ccjWn8Cu.s:3455   .debug_str:00000000000005d4 .LASF5
     /tmp/ccjWn8Cu.s:3263   .debug_str:00000000000000b3 .LASF6
     /tmp/ccjWn8Cu.s:3297   .debug_str:0000000000000184 .LASF7
     /tmp/ccjWn8Cu.s:3413   .debug_str:000000000000048a .LASF8
     /tmp/ccjWn8Cu.s:3389   .debug_str:00000000000003f0 .LASF9
     /tmp/ccjWn8Cu.s:3491   .debug_str:0000000000000797 .LASF10
     /tmp/ccjWn8Cu.s:3321   .debug_str:0000000000000218 .LASF11
     /tmp/ccjWn8Cu.s:3427   .debug_str:0000000000000509 .LASF12
     /tmp/ccjWn8Cu.s:3483   .debug_str:0000000000000744 .LASF13
     /tmp/ccjWn8Cu.s:3267   .debug_str:00000000000000c2 .LASF14
     /tmp/ccjWn8Cu.s:3243   .debug_str:0000000000000012 .LASF15
     /tmp/ccjWn8Cu.s:3277   .debug_str:0000000000000109 .LASF16
     /tmp/ccjWn8Cu.s:3449   .debug_str:000000000000059d .LASF17
     /tmp/ccjWn8Cu.s:3289   .debug_str:000000000000014a .LASF18
     /tmp/ccjWn8Cu.s:3313   .debug_str:00000000000001e0 .LASF19
     /tmp/ccjWn8Cu.s:3271   .debug_str:00000000000000df .LASF136
     /tmp/ccjWn8Cu.s:3479   .debug_str:0000000000000727 .LASF20
     /tmp/ccjWn8Cu.s:3507   .debug_str:0000000000000817 .LASF21
     /tmp/ccjWn8Cu.s:3337   .debug_str:000000000000029e .LASF22
     /tmp/ccjWn8Cu.s:3261   .debug_str:00000000000000ab .LASF23
     /tmp/ccjWn8Cu.s:3251   .debug_str:000000000000004a .LASF24
     /tmp/ccjWn8Cu.s:3463   .debug_str:0000000000000616 .LASF25
     /tmp/ccjWn8Cu.s:3249   .debug_str:0000000000000042 .LASF89
     /tmp/ccjWn8Cu.s:3505   .debug_str:000000000000080d .LASF26
     /tmp/ccjWn8Cu.s:3521   .debug_str:0000000000000880 .LASF28
     /tmp/ccjWn8Cu.s:3367   .debug_str:0000000000000377 .LASF30
     /tmp/ccjWn8Cu.s:3291   .debug_str:0000000000000160 .LASF32
GAS LISTING /tmp/ccjWn8Cu.s 			page 17


     /tmp/ccjWn8Cu.s:3349   .debug_str:00000000000002dc .LASF27
     /tmp/ccjWn8Cu.s:3509   .debug_str:000000000000081e .LASF29
     /tmp/ccjWn8Cu.s:3441   .debug_str:0000000000000571 .LASF137
     /tmp/ccjWn8Cu.s:3405   .debug_str:0000000000000450 .LASF38
     /tmp/ccjWn8Cu.s:3429   .debug_str:0000000000000518 .LASF40
     /tmp/ccjWn8Cu.s:3359   .debug_str:0000000000000336 .LASF31
     /tmp/ccjWn8Cu.s:3425   .debug_str:00000000000004f1 .LASF33
     /tmp/ccjWn8Cu.s:3489   .debug_str:000000000000078a .LASF34
     /tmp/ccjWn8Cu.s:3495   .debug_str:00000000000007c8 .LASF35
     /tmp/ccjWn8Cu.s:3385   .debug_str:00000000000003e3 .LASF36
     /tmp/ccjWn8Cu.s:3351   .debug_str:00000000000002e9 .LASF37
     /tmp/ccjWn8Cu.s:3299   .debug_str:000000000000018b .LASF39
     /tmp/ccjWn8Cu.s:3317   .debug_str:00000000000001f3 .LASF41
     /tmp/ccjWn8Cu.s:3443   .debug_str:0000000000000576 .LASF42
     /tmp/ccjWn8Cu.s:3377   .debug_str:00000000000003ab .LASF44
     /tmp/ccjWn8Cu.s:3451   .debug_str:00000000000005b3 .LASF43
     /tmp/ccjWn8Cu.s:3379   .debug_str:00000000000003c4 .LASF45
     /tmp/ccjWn8Cu.s:3393   .debug_str:0000000000000410 .LASF46
     /tmp/ccjWn8Cu.s:3311   .debug_str:00000000000001cd .LASF47
     /tmp/ccjWn8Cu.s:3467   .debug_str:0000000000000631 .LASF48
     /tmp/ccjWn8Cu.s:3459   .debug_str:00000000000005f6 .LASF49
     /tmp/ccjWn8Cu.s:3307   .debug_str:00000000000001b7 .LASF50
     /tmp/ccjWn8Cu.s:3437   .debug_str:0000000000000544 .LASF51
     /tmp/ccjWn8Cu.s:3269   .debug_str:00000000000000d2 .LASF52
     /tmp/ccjWn8Cu.s:3471   .debug_str:0000000000000641 .LASF53
     /tmp/ccjWn8Cu.s:3431   .debug_str:000000000000052a .LASF54
     /tmp/ccjWn8Cu.s:3445   .debug_str:0000000000000584 .LASF55
     /tmp/ccjWn8Cu.s:3345   .debug_str:00000000000002c4 .LASF56
     /tmp/ccjWn8Cu.s:3365   .debug_str:0000000000000368 .LASF57
     /tmp/ccjWn8Cu.s:3395   .debug_str:0000000000000419 .LASF58
     /tmp/ccjWn8Cu.s:3397   .debug_str:000000000000041f .LASF59
     /tmp/ccjWn8Cu.s:3401   .debug_str:0000000000000431 .LASF60
     /tmp/ccjWn8Cu.s:3457   .debug_str:00000000000005e6 .LASF61
     /tmp/ccjWn8Cu.s:3331   .debug_str:0000000000000286 .LASF62
     /tmp/ccjWn8Cu.s:3417   .debug_str:00000000000004af .LASF63
     /tmp/ccjWn8Cu.s:3309   .debug_str:00000000000001bf .LASF64
     /tmp/ccjWn8Cu.s:3411   .debug_str:0000000000000483 .LASF65
     /tmp/ccjWn8Cu.s:3511   .debug_str:0000000000000840 .LASF116
     /tmp/ccjWn8Cu.s:3503   .debug_str:00000000000007ff .LASF95
     /tmp/ccjWn8Cu.s:3327   .debug_str:000000000000024a .LASF96
     /tmp/ccjWn8Cu.s:3305   .debug_str:00000000000001b1 .LASF66
     /tmp/ccjWn8Cu.s:3497   .debug_str:00000000000007e0 .LASF67
     /tmp/ccjWn8Cu.s:3341   .debug_str:00000000000002af .LASF68
     /tmp/ccjWn8Cu.s:3253   .debug_str:0000000000000053 .LASF69
     /tmp/ccjWn8Cu.s:3519   .debug_str:000000000000087b .LASF70
     /tmp/ccjWn8Cu.s:3257   .debug_str:000000000000007c .LASF71
     /tmp/ccjWn8Cu.s:3287   .debug_str:0000000000000143 .LASF72
     /tmp/ccjWn8Cu.s:3465   .debug_str:000000000000061f .LASF73
     /tmp/ccjWn8Cu.s:3499   .debug_str:00000000000007e5 .LASF74
     /tmp/ccjWn8Cu.s:3255   .debug_str:0000000000000066 .LASF75
     /tmp/ccjWn8Cu.s:3515   .debug_str:0000000000000869 .LASF76
     /tmp/ccjWn8Cu.s:3355   .debug_str:0000000000000313 .LASF77
     /tmp/ccjWn8Cu.s:3303   .debug_str:00000000000001ab .LASF78
     /tmp/ccjWn8Cu.s:3501   .debug_str:00000000000007ee .LASF79
     /tmp/ccjWn8Cu.s:3265   .debug_str:00000000000000ba .LASF80
     /tmp/ccjWn8Cu.s:3513   .debug_str:0000000000000856 .LASF81
     /tmp/ccjWn8Cu.s:3343   .debug_str:00000000000002b7 .LASF82
GAS LISTING /tmp/ccjWn8Cu.s 			page 18


     /tmp/ccjWn8Cu.s:3371   .debug_str:000000000000038f .LASF83
     /tmp/ccjWn8Cu.s:3383   .debug_str:00000000000003d9 .LASF84
     /tmp/ccjWn8Cu.s:3347   .debug_str:00000000000002cc .LASF85
     /tmp/ccjWn8Cu.s:3239   .debug_str:0000000000000000 .LASF86
     /tmp/ccjWn8Cu.s:3247   .debug_str:000000000000003a .LASF87
     /tmp/ccjWn8Cu.s:3447   .debug_str:0000000000000591 .LASF88
     /tmp/ccjWn8Cu.s:3333   .debug_str:0000000000000292 .LASF90
     /tmp/ccjWn8Cu.s:3279   .debug_str:0000000000000115 .LASF91
     /tmp/ccjWn8Cu.s:3517   .debug_str:0000000000000876 .LASF92
     /tmp/ccjWn8Cu.s:3419   .debug_str:00000000000004bc .LASF93
     /tmp/ccjWn8Cu.s:3409   .debug_str:0000000000000469 .LASF94
     /tmp/ccjWn8Cu.s:3453   .debug_str:00000000000005b9 .LASF97
     /tmp/ccjWn8Cu.s:3323   .debug_str:0000000000000226 .LASF98
     /tmp/ccjWn8Cu.s:3435   .debug_str:000000000000053f .LASF99
     /tmp/ccjWn8Cu.s:3361   .debug_str:0000000000000343 .LASF100
     /tmp/ccjWn8Cu.s:3245   .debug_str:0000000000000022 .LASF101
     /tmp/ccjWn8Cu.s:3353   .debug_str:00000000000002fb .LASF138
     /tmp/ccjWn8Cu.s:3423   .debug_str:00000000000004e4 .LASF102
     /tmp/ccjWn8Cu.s:3357   .debug_str:0000000000000321 .LASF103
     /tmp/ccjWn8Cu.s:3283   .debug_str:000000000000011f .LASF104
     /tmp/ccjWn8Cu.s:3285   .debug_str:0000000000000127 .LASF105
     /tmp/ccjWn8Cu.s:3469   .debug_str:0000000000000639 .LASF106
     /tmp/ccjWn8Cu.s:3259   .debug_str:000000000000008c .LASF107
     /tmp/ccjWn8Cu.s:3475   .debug_str:000000000000065a .LASF108
     /tmp/ccjWn8Cu.s:3439   .debug_str:0000000000000555 .LASF109
     /tmp/ccjWn8Cu.s:3481   .debug_str:000000000000072f .LASF110
     /tmp/ccjWn8Cu.s:3487   .debug_str:0000000000000774 .LASF139
     /tmp/ccjWn8Cu.s:3421   .debug_str:00000000000004da .LASF111
     /tmp/ccjWn8Cu.s:3295   .debug_str:000000000000017f .LASF112
     /tmp/ccjWn8Cu.s:3375   .debug_str:00000000000003a6 .LASF113
     /tmp/ccjWn8Cu.s:3399   .debug_str:0000000000000424 .LASF114
     /tmp/ccjWn8Cu.s:3415   .debug_str:000000000000049d .LASF115
     /tmp/ccjWn8Cu.s:3275   .debug_str:00000000000000f1 .LASF117
     /tmp/ccjWn8Cu.s:3329   .debug_str:0000000000000272 .LASF140
     /tmp/ccjWn8Cu.s:3363   .debug_str:0000000000000358 .LASF118
     /tmp/ccjWn8Cu.s:3493   .debug_str:00000000000007a7 .LASF141
     /tmp/ccjWn8Cu.s:3293   .debug_str:0000000000000174 .LASF119
     /tmp/ccjWn8Cu.s:3485   .debug_str:0000000000000753 .LASF120
     /tmp/ccjWn8Cu.s:3381   .debug_str:00000000000003d4 .LASF121
     /tmp/ccjWn8Cu.s:3403   .debug_str:000000000000043b .LASF122
     /tmp/ccjWn8Cu.s:361    .text:00000000000001cc .LFB39
     /tmp/ccjWn8Cu.s:433    .text:0000000000000228 .LFE39
     /tmp/ccjWn8Cu.s:3373   .debug_str:000000000000039f .LASF124
     /tmp/ccjWn8Cu.s:2961   .debug_loc:0000000000000000 .LLST15
     /tmp/ccjWn8Cu.s:394    .text:00000000000001f0 .LBB31
     /tmp/ccjWn8Cu.s:414    .text:000000000000020c .LBE31
     /tmp/ccjWn8Cu.s:2979   .debug_loc:000000000000004c .LLST17
     /tmp/ccjWn8Cu.s:401    .text:00000000000001fc .LBB32
     /tmp/ccjWn8Cu.s:409    .text:0000000000000204 .LBE32
     /tmp/ccjWn8Cu.s:2986   .debug_loc:000000000000006f .LLST18
     /tmp/ccjWn8Cu.s:2994   .debug_loc:0000000000000093 .LLST19
     /tmp/ccjWn8Cu.s:399    .text:00000000000001fc .LVL36
     /tmp/ccjWn8Cu.s:413    .text:000000000000020c .LVL38
     /tmp/ccjWn8Cu.s:383    .text:00000000000001e8 .LBB29
     /tmp/ccjWn8Cu.s:391    .text:00000000000001ec .LBE29
     /tmp/ccjWn8Cu.s:3001   .debug_loc:00000000000000b6 .LLST16
     /tmp/ccjWn8Cu.s:252    .text:000000000000013c .LFB38
GAS LISTING /tmp/ccjWn8Cu.s 			page 19


     /tmp/ccjWn8Cu.s:294    .text:0000000000000178 .LFE38
     /tmp/ccjWn8Cu.s:3433   .debug_str:000000000000053a .LASF123
     /tmp/ccjWn8Cu.s:3010   .debug_loc:00000000000000db .LLST10
     /tmp/ccjWn8Cu.s:3030   .debug_loc:0000000000000129 .LLST11
     /tmp/ccjWn8Cu.s:271    .text:0000000000000158 .LBB27
     /tmp/ccjWn8Cu.s:279    .text:0000000000000160 .LBE27
     /tmp/ccjWn8Cu.s:3037   .debug_loc:000000000000014c .LLST12
     /tmp/ccjWn8Cu.s:3045   .debug_loc:0000000000000170 .LLST13
     /tmp/ccjWn8Cu.s:269    .text:0000000000000158 .LVL24
     /tmp/ccjWn8Cu.s:283    .text:0000000000000168 .LVL26
     /tmp/ccjWn8Cu.s:135    .text:000000000000009c .LFB37
     /tmp/ccjWn8Cu.s:182    .text:00000000000000e4 .LFE37
     /tmp/ccjWn8Cu.s:3052   .debug_loc:0000000000000193 .LLST6
     /tmp/ccjWn8Cu.s:152    .text:00000000000000b8 .LBB25
     /tmp/ccjWn8Cu.s:161    .text:00000000000000c0 .LBE25
     /tmp/ccjWn8Cu.s:3072   .debug_loc:00000000000001e1 .LLST7
     /tmp/ccjWn8Cu.s:3080   .debug_loc:0000000000000205 .LLST8
     /tmp/ccjWn8Cu.s:167    .text:00000000000000cc .LVL14
     /tmp/ccjWn8Cu.s:171    .text:00000000000000d4 .LVL15
     /tmp/ccjWn8Cu.s:300    .text:0000000000000178 .LFB36
     /tmp/ccjWn8Cu.s:355    .text:00000000000001cc .LFE36
     /tmp/ccjWn8Cu.s:3087   .debug_loc:0000000000000228 .LLST14
     /tmp/ccjWn8Cu.s:336    .text:00000000000001b0 .LVL30
     /tmp/ccjWn8Cu.s:188    .text:00000000000000e4 .LFB35
     /tmp/ccjWn8Cu.s:246    .text:000000000000013c .LFE35
     /tmp/ccjWn8Cu.s:3123   .debug_loc:00000000000002b3 .LLST9
     /tmp/ccjWn8Cu.s:226    .text:0000000000000120 .LVL19
     /tmp/ccjWn8Cu.s:75     .text:0000000000000050 .LFB34
     /tmp/ccjWn8Cu.s:129    .text:000000000000009c .LFE34
     /tmp/ccjWn8Cu.s:3159   .debug_loc:000000000000033e .LLST2
     /tmp/ccjWn8Cu.s:96     .text:0000000000000074 .LBB21
     /tmp/ccjWn8Cu.s:116    .text:0000000000000088 .LBE21
     /tmp/ccjWn8Cu.s:3173   .debug_loc:0000000000000377 .LLST3
     /tmp/ccjWn8Cu.s:3180   .debug_loc:000000000000039a .LLST4
     /tmp/ccjWn8Cu.s:102    .text:0000000000000078 .LBB23
     /tmp/ccjWn8Cu.s:110    .text:0000000000000080 .LBE23
     /tmp/ccjWn8Cu.s:3187   .debug_loc:00000000000003bd .LLST5
     /tmp/ccjWn8Cu.s:95     .text:0000000000000074 .LVL6
     /tmp/ccjWn8Cu.s:43     .text:0000000000000028 .LFB33
     /tmp/ccjWn8Cu.s:69     .text:0000000000000050 .LFE33
     /tmp/ccjWn8Cu.s:3196   .debug_loc:00000000000003e2 .LLST1
     /tmp/ccjWn8Cu.s:58     .text:0000000000000040 .LVL3
     /tmp/ccjWn8Cu.s:10     .text:0000000000000000 .LFB32
     /tmp/ccjWn8Cu.s:37     .text:0000000000000028 .LFE32
     /tmp/ccjWn8Cu.s:3387   .debug_str:00000000000003eb .LASF125
     /tmp/ccjWn8Cu.s:3210   .debug_loc:000000000000041b .LLST0
     /tmp/ccjWn8Cu.s:26     .text:0000000000000018 .LVL1
     /tmp/ccjWn8Cu.s:3273   .debug_str:00000000000000ec .LASF126
     /tmp/ccjWn8Cu.s:3473   .debug_str:000000000000064d .LASF127
     /tmp/ccjWn8Cu.s:3301   .debug_str:0000000000000196 .LASF128
     /tmp/ccjWn8Cu.s:3315   .debug_str:00000000000001e5 .LASF129
     /tmp/ccjWn8Cu.s:3339   .debug_str:00000000000002a6 .LASF131
     /tmp/ccjWn8Cu.s:3461   .debug_str:0000000000000608 .LASF130
     /tmp/ccjWn8Cu.s:3241   .debug_str:0000000000000008 .LASF132
     /tmp/ccjWn8Cu.s:364    .text:00000000000001cc .LVL33
     /tmp/ccjWn8Cu.s:379    .text:00000000000001e8 .LVL34
     /tmp/ccjWn8Cu.s:428    .text:0000000000000220 .LVL39
GAS LISTING /tmp/ccjWn8Cu.s 			page 20


     /tmp/ccjWn8Cu.s:407    .text:0000000000000204 .LVL37
     /tmp/ccjWn8Cu.s:388    .text:00000000000001ec .LVL35
     /tmp/ccjWn8Cu.s:255    .text:000000000000013c .LVL22
     /tmp/ccjWn8Cu.s:267    .text:0000000000000150 .LVL23
     /tmp/ccjWn8Cu.s:277    .text:0000000000000160 .LVL25
     /tmp/ccjWn8Cu.s:138    .text:000000000000009c .LVL10
     /tmp/ccjWn8Cu.s:165    .text:00000000000000c4 .LVL13
     /tmp/ccjWn8Cu.s:151    .text:00000000000000b8 .LVL11
     /tmp/ccjWn8Cu.s:159    .text:00000000000000c0 .LVL12
     /tmp/ccjWn8Cu.s:303    .text:0000000000000178 .LVL27
     /tmp/ccjWn8Cu.s:319    .text:0000000000000194 .LVL28
     /tmp/ccjWn8Cu.s:322    .text:0000000000000198 .LVL29
     /tmp/ccjWn8Cu.s:348    .text:00000000000001c4 .LVL31
     /tmp/ccjWn8Cu.s:352    .text:00000000000001c8 .LVL32
     /tmp/ccjWn8Cu.s:191    .text:00000000000000e4 .LVL16
     /tmp/ccjWn8Cu.s:209    .text:0000000000000104 .LVL17
     /tmp/ccjWn8Cu.s:212    .text:0000000000000108 .LVL18
     /tmp/ccjWn8Cu.s:239    .text:0000000000000134 .LVL20
     /tmp/ccjWn8Cu.s:243    .text:0000000000000138 .LVL21
     /tmp/ccjWn8Cu.s:78     .text:0000000000000050 .LVL4
     /tmp/ccjWn8Cu.s:93     .text:000000000000006c .LVL5
     /tmp/ccjWn8Cu.s:114    .text:0000000000000088 .LVL9
     /tmp/ccjWn8Cu.s:101    .text:0000000000000078 .LVL7
     /tmp/ccjWn8Cu.s:108    .text:0000000000000080 .LVL8
     /tmp/ccjWn8Cu.s:46     .text:0000000000000028 .LVL2
     /tmp/ccjWn8Cu.s:14     .text:0000000000000000 .LVL0
     /tmp/ccjWn8Cu.s:440    .debug_info:0000000000000000 .Ldebug_info0

UNDEFINED SYMBOLS
_Z9mem_allocm
_Z8mem_freePv
_ZN3TCB7runningE
_ZN11ThreadQueue7putLastEP3TCB
_ZN3TCB5yieldEv
_ZN11ThreadQueue8getFirstEv
_ZN9Scheduler3putEP3TCB
