GAS LISTING /tmp/ccocIRts.s 			page 1


   1              		.file	"KSem.cpp"
   2              		.option pic
   3              		.option norelax
   4              		.text
   5              	.Ltext0:
   6              		.align	2
   7              		.globl	_ZN4KSemnwEm
   9              	_ZN4KSemnwEm:
  10              	.LFB32:
  11              		.file 1 "src/KSem.cpp"
   1:src/KSem.cpp  **** //
   2:src/KSem.cpp  **** // Created by os on 6/4/23.
   3:src/KSem.cpp  **** //
   4:src/KSem.cpp  **** 
   5:src/KSem.cpp  **** #include "../h/KSem.hpp"
   6:src/KSem.cpp  **** #include "../h/TCB.hpp"
   7:src/KSem.cpp  **** #include "../h/Scheduler.hpp"
   8:src/KSem.cpp  **** 
   9:src/KSem.cpp  **** void* KSem::operator new(size_t size) {
  12              		.loc 1 9 39
  13              		.cfi_startproc
  14              	.LVL0:
  15 0000 130101FF 		addi	sp,sp,-16
  16              		.cfi_def_cfa_offset 16
  17 0004 23341100 		sd	ra,8(sp)
  18 0008 23308100 		sd	s0,0(sp)
  19              		.cfi_offset 1, -8
  20              		.cfi_offset 8, -16
  21 000c 13040101 		addi	s0,sp,16
  22              		.cfi_def_cfa 8, 0
  10:src/KSem.cpp  ****     return mem_alloc(size);
  23              		.loc 1 10 5
  24              		.loc 1 10 21 is_stmt 0
  25 0010 97000000 		call	_Z9mem_allocm@plt
  25      E7800000 
  26              	.LVL1:
  11:src/KSem.cpp  **** }
  27              		.loc 1 11 1
  28 0018 83308100 		ld	ra,8(sp)
  29              		.cfi_restore 1
  30 001c 03340100 		ld	s0,0(sp)
  31              		.cfi_restore 8
  32              		.cfi_def_cfa 2, 16
  33 0020 13010101 		addi	sp,sp,16
  34              		.cfi_def_cfa_offset 0
  35 0024 67800000 		jr	ra
  36              		.cfi_endproc
  37              	.LFE32:
  39              		.align	2
  40              		.globl	_ZN4KSemdlEPv
  42              	_ZN4KSemdlEPv:
  43              	.LFB33:
  12:src/KSem.cpp  **** 
  13:src/KSem.cpp  **** void KSem::operator delete(void* ptr) {
  44              		.loc 1 13 39 is_stmt 1
  45              		.cfi_startproc
  46              	.LVL2:
GAS LISTING /tmp/ccocIRts.s 			page 2


  47 0028 130101FF 		addi	sp,sp,-16
  48              		.cfi_def_cfa_offset 16
  49 002c 23341100 		sd	ra,8(sp)
  50 0030 23308100 		sd	s0,0(sp)
  51              		.cfi_offset 1, -8
  52              		.cfi_offset 8, -16
  53 0034 13040101 		addi	s0,sp,16
  54              		.cfi_def_cfa 8, 0
  14:src/KSem.cpp  ****     mem_free(ptr);
  55              		.loc 1 14 5
  56              		.loc 1 14 13 is_stmt 0
  57 0038 97000000 		call	_Z8mem_freePv@plt
  57      E7800000 
  58              	.LVL3:
  15:src/KSem.cpp  **** }
  59              		.loc 1 15 1
  60 0040 83308100 		ld	ra,8(sp)
  61              		.cfi_restore 1
  62 0044 03340100 		ld	s0,0(sp)
  63              		.cfi_restore 8
  64              		.cfi_def_cfa 2, 16
  65 0048 13010101 		addi	sp,sp,16
  66              		.cfi_def_cfa_offset 0
  67 004c 67800000 		jr	ra
  68              		.cfi_endproc
  69              	.LFE33:
  71              		.align	2
  72              		.globl	_ZN4KSem7initSemEj
  74              	_ZN4KSem7initSemEj:
  75              	.LFB34:
  16:src/KSem.cpp  **** 
  17:src/KSem.cpp  **** KSem* KSem::initSem(uint val) {
  76              		.loc 1 17 31 is_stmt 1
  77              		.cfi_startproc
  78              	.LVL4:
  79 0050 130101FE 		addi	sp,sp,-32
  80              		.cfi_def_cfa_offset 32
  81 0054 233C1100 		sd	ra,24(sp)
  82 0058 23388100 		sd	s0,16(sp)
  83 005c 23349100 		sd	s1,8(sp)
  84              		.cfi_offset 1, -8
  85              		.cfi_offset 8, -16
  86              		.cfi_offset 9, -24
  87 0060 13040102 		addi	s0,sp,32
  88              		.cfi_def_cfa 8, 0
  89 0064 93040500 		mv	s1,a0
  18:src/KSem.cpp  **** 	return new KSem(val);
  90              		.loc 1 18 2
  91              		.loc 1 18 21 is_stmt 0
  92 0068 13050002 		li	a0,32
  93              	.LVL5:
  94 006c 97000000 		call	_ZN4KSemnwEm
  94      E7800000 
  95              	.LVL6:
  96              	.LBB21:
  97              	.LBB22:
  98              		.file 2 "src/../h/KSem.hpp"
GAS LISTING /tmp/ccocIRts.s 			page 3


   1:src/../h/KSem.hpp **** //
   2:src/../h/KSem.hpp **** // Created by os on 6/4/23.
   3:src/../h/KSem.hpp **** //
   4:src/../h/KSem.hpp **** 
   5:src/../h/KSem.hpp **** #ifndef PROJEKAT2023_KSEM_HPP
   6:src/../h/KSem.hpp **** #define PROJEKAT2023_KSEM_HPP
   7:src/../h/KSem.hpp **** 
   8:src/../h/KSem.hpp **** #include "../h/ThreadQueue.hpp"
   9:src/../h/KSem.hpp **** 
  10:src/../h/KSem.hpp **** //klasa napravljena po uzoru na semafor u skolskom jezgru
  11:src/../h/KSem.hpp **** class KSem {
  12:src/../h/KSem.hpp **** public:
  13:src/../h/KSem.hpp **** 	static KSem* initSem(uint val);
  14:src/../h/KSem.hpp **** 
  15:src/../h/KSem.hpp **** 	int wait();
  16:src/../h/KSem.hpp **** 
  17:src/../h/KSem.hpp **** 	int signal();
  18:src/../h/KSem.hpp **** 
  19:src/../h/KSem.hpp ****     //deaktiviranje semafora i oslobadjanje svih niti koje cekaju na njemu
  20:src/../h/KSem.hpp **** 	static int closeSem(sem_t handle);
  21:src/../h/KSem.hpp **** 
  22:src/../h/KSem.hpp **** 	static void* operator new(size_t size);
  23:src/../h/KSem.hpp **** 
  24:src/../h/KSem.hpp **** 	static void operator delete(void* ptr);
  25:src/../h/KSem.hpp **** 
  26:src/../h/KSem.hpp **** protected:
  27:src/../h/KSem.hpp **** 	void block();
  28:src/../h/KSem.hpp **** 
  29:src/../h/KSem.hpp **** 	void unblock();
  30:src/../h/KSem.hpp **** 
  31:src/../h/KSem.hpp **** private:
  32:src/../h/KSem.hpp **** 	KSem(uint val) : val(val), working(true) {}
  99              		.loc 2 32 41
 100 0074 23209500 		sw	s1,0(a0)
 101              	.LVL7:
 102              	.LBB23:
 103              	.LBB24:
 104              		.file 3 "src/../h/../h/ThreadQueue.hpp"
   1:src/../h/../h/ThreadQueue.hpp **** //
   2:src/../h/../h/ThreadQueue.hpp **** // Created by os on 6/4/23.
   3:src/../h/../h/ThreadQueue.hpp **** //
   4:src/../h/../h/ThreadQueue.hpp **** 
   5:src/../h/../h/ThreadQueue.hpp **** #ifndef PROJEKAT2023_THREADQUEUE_HPP
   6:src/../h/../h/ThreadQueue.hpp **** #define PROJEKAT2023_THREADQUEUE_HPP
   7:src/../h/../h/ThreadQueue.hpp **** 
   8:src/../h/../h/ThreadQueue.hpp **** #include "../h/syscall_c.hpp"
   9:src/../h/../h/ThreadQueue.hpp **** 
  10:src/../h/../h/ThreadQueue.hpp **** class TCB;
  11:src/../h/../h/ThreadQueue.hpp **** 
  12:src/../h/../h/ThreadQueue.hpp **** class ThreadQueue {
  13:src/../h/../h/ThreadQueue.hpp **** private:
  14:src/../h/../h/ThreadQueue.hpp ****     struct Node {
  15:src/../h/../h/ThreadQueue.hpp ****         TCB* data;
  16:src/../h/../h/ThreadQueue.hpp ****         Node* next;
  17:src/../h/../h/ThreadQueue.hpp **** 
  18:src/../h/../h/ThreadQueue.hpp ****         Node(TCB* d) : data(d), next(nullptr) {}
  19:src/../h/../h/ThreadQueue.hpp **** 
GAS LISTING /tmp/ccocIRts.s 			page 4


  20:src/../h/../h/ThreadQueue.hpp ****         static void* operator new(size_t size) {
  21:src/../h/../h/ThreadQueue.hpp ****             return mem_alloc(size);
  22:src/../h/../h/ThreadQueue.hpp ****         }
  23:src/../h/../h/ThreadQueue.hpp **** 
  24:src/../h/../h/ThreadQueue.hpp ****         static void operator delete(void* ptr) {
  25:src/../h/../h/ThreadQueue.hpp ****             mem_free(ptr);
  26:src/../h/../h/ThreadQueue.hpp ****         }
  27:src/../h/../h/ThreadQueue.hpp ****     };
  28:src/../h/../h/ThreadQueue.hpp **** 
  29:src/../h/../h/ThreadQueue.hpp ****     Node* front;
  30:src/../h/../h/ThreadQueue.hpp ****     Node* back;
  31:src/../h/../h/ThreadQueue.hpp **** 
  32:src/../h/../h/ThreadQueue.hpp **** public:
  33:src/../h/../h/ThreadQueue.hpp ****     ThreadQueue() : front(nullptr), back(nullptr) {}
 105              		.loc 3 33 49
 106 0078 23340500 		sd	zero,8(a0)
 107 007c 23380500 		sd	zero,16(a0)
 108              	.LVL8:
 109              	.LBE24:
 110              	.LBE23:
 111              		.loc 2 32 41
 112 0080 13071000 		li	a4,1
 113 0084 230CE500 		sb	a4,24(a0)
 114              	.LVL9:
 115              	.LBE22:
 116              	.LBE21:
  19:src/KSem.cpp  **** }
 117              		.loc 1 19 1
 118 0088 83308101 		ld	ra,24(sp)
 119              		.cfi_restore 1
 120 008c 03340101 		ld	s0,16(sp)
 121              		.cfi_restore 8
 122              		.cfi_def_cfa 2, 32
 123 0090 83348100 		ld	s1,8(sp)
 124              		.cfi_restore 9
 125 0094 13010102 		addi	sp,sp,32
 126              		.cfi_def_cfa_offset 0
 127 0098 67800000 		jr	ra
 128              		.cfi_endproc
 129              	.LFE34:
 131              		.align	2
 132              		.globl	_ZN4KSem5blockEv
 134              	_ZN4KSem5blockEv:
 135              	.LFB37:
  20:src/KSem.cpp  **** 
  21:src/KSem.cpp  **** int KSem::wait() {
  22:src/KSem.cpp  **** 	if (!working) return -3;
  23:src/KSem.cpp  **** 	if (--val < 0) {
  24:src/KSem.cpp  **** 		block();
  25:src/KSem.cpp  **** 		return -1;
  26:src/KSem.cpp  **** 	}
  27:src/KSem.cpp  **** 	return 0;
  28:src/KSem.cpp  **** }
  29:src/KSem.cpp  **** 
  30:src/KSem.cpp  **** int KSem::signal() {
  31:src/KSem.cpp  **** 	if (!working) return -3;
  32:src/KSem.cpp  **** 	if (val++ < 0) {
GAS LISTING /tmp/ccocIRts.s 			page 5


  33:src/KSem.cpp  **** 		unblock();
  34:src/KSem.cpp  **** 	}
  35:src/KSem.cpp  **** 	return 0;
  36:src/KSem.cpp  **** }
  37:src/KSem.cpp  **** 
  38:src/KSem.cpp  **** void KSem::block() {
 136              		.loc 1 38 20 is_stmt 1
 137              		.cfi_startproc
 138              	.LVL10:
 139 009c 130101FF 		addi	sp,sp,-16
 140              		.cfi_def_cfa_offset 16
 141 00a0 23341100 		sd	ra,8(sp)
 142 00a4 23308100 		sd	s0,0(sp)
 143              		.cfi_offset 1, -8
 144              		.cfi_offset 8, -16
 145 00a8 13040101 		addi	s0,sp,16
 146              		.cfi_def_cfa 8, 0
  39:src/KSem.cpp  ****     TCB::getRunning()->setStatus(TCB::BLOCKED);
 147              		.loc 1 39 5
 148              	.LBB25:
 149              	.LBB26:
 150              		.file 4 "src/../h/TCB.hpp"
   1:src/../h/TCB.hpp **** //
   2:src/../h/TCB.hpp **** // Created by os on 5/23/23.
   3:src/../h/TCB.hpp **** //
   4:src/../h/TCB.hpp **** 
   5:src/../h/TCB.hpp **** #ifndef PROJEKAT2023_TCB_HPP
   6:src/../h/TCB.hpp **** #define PROJEKAT2023_TCB_HPP
   7:src/../h/TCB.hpp **** 
   8:src/../h/TCB.hpp **** #include "../lib/hw.h"
   9:src/../h/TCB.hpp **** #include "../h/ThreadQueue.hpp"
  10:src/../h/TCB.hpp **** 
  11:src/../h/TCB.hpp **** class TCB {
  12:src/../h/TCB.hpp **** public:
  13:src/../h/TCB.hpp ****     friend class Scheduler;
  14:src/../h/TCB.hpp **** 
  15:src/../h/TCB.hpp ****     using Body = void (*)(void*);
  16:src/../h/TCB.hpp **** 
  17:src/../h/TCB.hpp ****     enum ThreadStatus {
  18:src/../h/TCB.hpp ****         CREATED, ACTIVE, BLOCKED, JOINING, SLEEPING, FINISHED
  19:src/../h/TCB.hpp ****     };
  20:src/../h/TCB.hpp **** 
  21:src/../h/TCB.hpp ****     void setStatus(ThreadStatus stat) { this->status = stat; }
  22:src/../h/TCB.hpp **** 
  23:src/../h/TCB.hpp ****     ThreadStatus getStatus() { return this->status; }
  24:src/../h/TCB.hpp **** 
  25:src/../h/TCB.hpp ****     static TCB* createThread(Body function, void* args, uint64* stack);
  26:src/../h/TCB.hpp **** 
  27:src/../h/TCB.hpp ****     static void start(TCB* newTcb);
  28:src/../h/TCB.hpp **** 
  29:src/../h/TCB.hpp ****     uint64 getTimeSlice() { return timeSlice; }
  30:src/../h/TCB.hpp **** 
  31:src/../h/TCB.hpp ****     void setTimeSlice(uint64 value) { timeSlice = value; }
  32:src/../h/TCB.hpp **** 
  33:src/../h/TCB.hpp ****     Body getBody() { return threadFunction; }
  34:src/../h/TCB.hpp **** 
  35:src/../h/TCB.hpp ****     static TCB* getRunning() { return running; }
GAS LISTING /tmp/ccocIRts.s 			page 6


 151              		.loc 4 35 32
 152              		.loc 4 35 39 is_stmt 0
 153 00ac 97070000 		la	a5,_ZN3TCB7runningE
 153      83B70700 
 154 00b4 83B50700 		ld	a1,0(a5)
 155              	.LVL11:
 156              	.LBE26:
 157              	.LBE25:
 158              	.LBB27:
 159              	.LBB28:
  21:src/../h/TCB.hpp **** 
 160              		.loc 4 21 41 is_stmt 1
  21:src/../h/TCB.hpp **** 
 161              		.loc 4 21 54 is_stmt 0
 162 00b8 93072000 		li	a5,2
 163 00bc 23ACF504 		sw	a5,88(a1)
 164              	.LVL12:
 165              	.LBE28:
 166              	.LBE27:
  40:src/KSem.cpp  **** 	blocked.putLast(TCB::getRunning());
 167              		.loc 1 40 2 is_stmt 1
 168              		.loc 4 35 32
 169              		.loc 1 40 17 is_stmt 0
 170 00c0 13058500 		addi	a0,a0,8
 171              	.LVL13:
 172 00c4 97000000 		call	_ZN11ThreadQueue7putLastEP3TCB@plt
 172      E7800000 
 173              	.LVL14:
  41:src/KSem.cpp  **** 	TCB::dispatch();
 174              		.loc 1 41 2 is_stmt 1
 175              		.loc 1 41 15 is_stmt 0
 176 00cc 97000000 		call	_ZN3TCB8dispatchEv@plt
 176      E7800000 
 177              	.LVL15:
  42:src/KSem.cpp  **** }
 178              		.loc 1 42 1
 179 00d4 83308100 		ld	ra,8(sp)
 180              		.cfi_restore 1
 181 00d8 03340100 		ld	s0,0(sp)
 182              		.cfi_restore 8
 183              		.cfi_def_cfa 2, 16
 184 00dc 13010101 		addi	sp,sp,16
 185              		.cfi_def_cfa_offset 0
 186 00e0 67800000 		jr	ra
 187              		.cfi_endproc
 188              	.LFE37:
 190              		.align	2
 191              		.globl	_ZN4KSem4waitEv
 193              	_ZN4KSem4waitEv:
 194              	.LFB35:
  21:src/KSem.cpp  **** 	if (!working) return -3;
 195              		.loc 1 21 18 is_stmt 1
 196              		.cfi_startproc
 197              	.LVL16:
  22:src/KSem.cpp  **** 	if (--val < 0) {
 198              		.loc 1 22 2
  22:src/KSem.cpp  **** 	if (--val < 0) {
GAS LISTING /tmp/ccocIRts.s 			page 7


 199              		.loc 1 22 7 is_stmt 0
 200 00e4 83478501 		lbu	a5,24(a0)
  22:src/KSem.cpp  **** 	if (--val < 0) {
 201              		.loc 1 22 2
 202 00e8 63860704 		beqz	a5,.L11
  23:src/KSem.cpp  **** 		block();
 203              		.loc 1 23 2 is_stmt 1
  23:src/KSem.cpp  **** 		block();
 204              		.loc 1 23 8 is_stmt 0
 205 00ec 83270500 		lw	a5,0(a0)
  23:src/KSem.cpp  **** 		block();
 206              		.loc 1 23 6
 207 00f0 9B87F7FF 		addiw	a5,a5,-1
  23:src/KSem.cpp  **** 		block();
 208              		.loc 1 23 12
 209 00f4 2320F500 		sw	a5,0(a0)
  23:src/KSem.cpp  **** 		block();
 210              		.loc 1 23 2
 211 00f8 13970702 		slli	a4,a5,32
 212 00fc 63460700 		bltz	a4,.L17
  27:src/KSem.cpp  **** }
 213              		.loc 1 27 9
 214 0100 13050000 		li	a0,0
 215              	.LVL17:
  28:src/KSem.cpp  **** 
 216              		.loc 1 28 1
 217 0104 67800000 		ret
 218              	.LVL18:
 219              	.L17:
  21:src/KSem.cpp  **** 	if (!working) return -3;
 220              		.loc 1 21 18
 221 0108 130101FF 		addi	sp,sp,-16
 222              		.cfi_def_cfa_offset 16
 223 010c 23341100 		sd	ra,8(sp)
 224 0110 23308100 		sd	s0,0(sp)
 225              		.cfi_offset 1, -8
 226              		.cfi_offset 8, -16
 227 0114 13040101 		addi	s0,sp,16
 228              		.cfi_def_cfa 8, 0
  24:src/KSem.cpp  **** 		return -1;
 229              		.loc 1 24 3 is_stmt 1
  24:src/KSem.cpp  **** 		return -1;
 230              		.loc 1 24 8 is_stmt 0
 231 0118 97000000 		call	_ZN4KSem5blockEv
 231      E7800000 
 232              	.LVL19:
  25:src/KSem.cpp  **** 	}
 233              		.loc 1 25 3 is_stmt 1
  25:src/KSem.cpp  **** 	}
 234              		.loc 1 25 11 is_stmt 0
 235 0120 1305F0FF 		li	a0,-1
  28:src/KSem.cpp  **** 
 236              		.loc 1 28 1
 237 0124 83308100 		ld	ra,8(sp)
 238              		.cfi_restore 1
 239 0128 03340100 		ld	s0,0(sp)
 240              		.cfi_restore 8
GAS LISTING /tmp/ccocIRts.s 			page 8


 241              		.cfi_def_cfa 2, 16
 242 012c 13010101 		addi	sp,sp,16
 243              		.cfi_def_cfa_offset 0
 244 0130 67800000 		jr	ra
 245              	.LVL20:
 246              	.L11:
  22:src/KSem.cpp  **** 	if (--val < 0) {
 247              		.loc 1 22 24
 248 0134 1305D0FF 		li	a0,-3
 249              	.LVL21:
 250 0138 67800000 		ret
 251              		.cfi_endproc
 252              	.LFE35:
 254              		.align	2
 255              		.globl	_ZN4KSem7unblockEv
 257              	_ZN4KSem7unblockEv:
 258              	.LFB38:
  43:src/KSem.cpp  **** 
  44:src/KSem.cpp  **** void KSem::unblock() {
 259              		.loc 1 44 22 is_stmt 1
 260              		.cfi_startproc
 261              	.LVL22:
 262 013c 130101FF 		addi	sp,sp,-16
 263              		.cfi_def_cfa_offset 16
 264 0140 23341100 		sd	ra,8(sp)
 265 0144 23308100 		sd	s0,0(sp)
 266              		.cfi_offset 1, -8
 267              		.cfi_offset 8, -16
 268 0148 13040101 		addi	s0,sp,16
 269              		.cfi_def_cfa 8, 0
  45:src/KSem.cpp  **** 	TCB* tcb = blocked.getFirst();
 270              		.loc 1 45 2
 271              		.loc 1 45 29 is_stmt 0
 272 014c 13058500 		addi	a0,a0,8
 273              	.LVL23:
 274 0150 97000000 		call	_ZN11ThreadQueue8getFirstEv@plt
 274      E7800000 
 275              	.LVL24:
  46:src/KSem.cpp  **** 	Scheduler::put(tcb);
 276              		.loc 1 46 2 is_stmt 1
 277              		.loc 1 46 16 is_stmt 0
 278 0158 97000000 		call	_ZN9Scheduler3putEP3TCB@plt
 278      E7800000 
 279              	.LVL25:
  47:src/KSem.cpp  **** }
 280              		.loc 1 47 1
 281 0160 83308100 		ld	ra,8(sp)
 282              		.cfi_restore 1
 283 0164 03340100 		ld	s0,0(sp)
 284              		.cfi_restore 8
 285              		.cfi_def_cfa 2, 16
 286 0168 13010101 		addi	sp,sp,16
 287              		.cfi_def_cfa_offset 0
 288 016c 67800000 		jr	ra
 289              		.cfi_endproc
 290              	.LFE38:
 292              		.align	2
GAS LISTING /tmp/ccocIRts.s 			page 9


 293              		.globl	_ZN4KSem6signalEv
 295              	_ZN4KSem6signalEv:
 296              	.LFB36:
  30:src/KSem.cpp  **** 	if (!working) return -3;
 297              		.loc 1 30 20 is_stmt 1
 298              		.cfi_startproc
 299              	.LVL26:
  31:src/KSem.cpp  **** 	if (val++ < 0) {
 300              		.loc 1 31 2
  31:src/KSem.cpp  **** 	if (val++ < 0) {
 301              		.loc 1 31 7 is_stmt 0
 302 0170 83478501 		lbu	a5,24(a0)
  31:src/KSem.cpp  **** 	if (val++ < 0) {
 303              		.loc 1 31 2
 304 0174 63840704 		beqz	a5,.L22
  32:src/KSem.cpp  **** 		unblock();
 305              		.loc 1 32 2 is_stmt 1
  32:src/KSem.cpp  **** 		unblock();
 306              		.loc 1 32 6 is_stmt 0
 307 0178 83270500 		lw	a5,0(a0)
  32:src/KSem.cpp  **** 		unblock();
 308              		.loc 1 32 9
 309 017c 1B871700 		addiw	a4,a5,1
 310 0180 2320E500 		sw	a4,0(a0)
  32:src/KSem.cpp  **** 		unblock();
 311              		.loc 1 32 2
 312 0184 63C60700 		bltz	a5,.L28
  35:src/KSem.cpp  **** }
 313              		.loc 1 35 9
 314 0188 13050000 		li	a0,0
 315              	.LVL27:
  36:src/KSem.cpp  **** 
 316              		.loc 1 36 1
 317 018c 67800000 		ret
 318              	.LVL28:
 319              	.L28:
  30:src/KSem.cpp  **** 	if (!working) return -3;
 320              		.loc 1 30 20
 321 0190 130101FF 		addi	sp,sp,-16
 322              		.cfi_def_cfa_offset 16
 323 0194 23341100 		sd	ra,8(sp)
 324 0198 23308100 		sd	s0,0(sp)
 325              		.cfi_offset 1, -8
 326              		.cfi_offset 8, -16
 327 019c 13040101 		addi	s0,sp,16
 328              		.cfi_def_cfa 8, 0
  33:src/KSem.cpp  **** 	}
 329              		.loc 1 33 3 is_stmt 1
  33:src/KSem.cpp  **** 	}
 330              		.loc 1 33 10 is_stmt 0
 331 01a0 97000000 		call	_ZN4KSem7unblockEv
 331      E7800000 
 332              	.LVL29:
  35:src/KSem.cpp  **** }
 333              		.loc 1 35 9
 334 01a8 13050000 		li	a0,0
  36:src/KSem.cpp  **** 
GAS LISTING /tmp/ccocIRts.s 			page 10


 335              		.loc 1 36 1
 336 01ac 83308100 		ld	ra,8(sp)
 337              		.cfi_restore 1
 338 01b0 03340100 		ld	s0,0(sp)
 339              		.cfi_restore 8
 340              		.cfi_def_cfa 2, 16
 341 01b4 13010101 		addi	sp,sp,16
 342              		.cfi_def_cfa_offset 0
 343 01b8 67800000 		jr	ra
 344              	.LVL30:
 345              	.L22:
  31:src/KSem.cpp  **** 	if (val++ < 0) {
 346              		.loc 1 31 24
 347 01bc 1305D0FF 		li	a0,-3
 348              	.LVL31:
 349 01c0 67800000 		ret
 350              		.cfi_endproc
 351              	.LFE36:
 353              		.align	2
 354              		.globl	_ZN4KSem8closeSemEPS_
 356              	_ZN4KSem8closeSemEPS_:
 357              	.LFB39:
  48:src/KSem.cpp  **** 
  49:src/KSem.cpp  **** int KSem::closeSem(sem_t handle) {
 358              		.loc 1 49 34 is_stmt 1
 359              		.cfi_startproc
 360              	.LVL32:
 361 01c4 130101FE 		addi	sp,sp,-32
 362              		.cfi_def_cfa_offset 32
 363 01c8 233C1100 		sd	ra,24(sp)
 364 01cc 23388100 		sd	s0,16(sp)
 365 01d0 23349100 		sd	s1,8(sp)
 366              		.cfi_offset 1, -8
 367              		.cfi_offset 8, -16
 368              		.cfi_offset 9, -24
 369 01d4 13040102 		addi	s0,sp,32
 370              		.cfi_def_cfa 8, 0
 371 01d8 93040500 		mv	s1,a0
  50:src/KSem.cpp  **** 	handle->working = false;
 372              		.loc 1 50 2
 373              		.loc 1 50 18 is_stmt 0
 374 01dc 230C0500 		sb	zero,24(a0)
 375              	.LVL33:
 376              	.L31:
  51:src/KSem.cpp  **** 	while (!handle->blocked.isEmpty()) {
 377              		.loc 1 51 2 is_stmt 1
 378              		.loc 1 51 9
 379              	.LBB29:
 380              	.LBB30:
  34:src/../h/../h/ThreadQueue.hpp **** 
  35:src/../h/../h/ThreadQueue.hpp ****     ThreadQueue(const ThreadQueue &) = delete;
  36:src/../h/../h/ThreadQueue.hpp **** 
  37:src/../h/../h/ThreadQueue.hpp ****     ThreadQueue &operator=(const ThreadQueue &) = delete;
  38:src/../h/../h/ThreadQueue.hpp **** 
  39:src/../h/../h/ThreadQueue.hpp ****     ~ThreadQueue() {
  40:src/../h/../h/ThreadQueue.hpp ****         while (!isEmpty()) {
  41:src/../h/../h/ThreadQueue.hpp ****             Node* node = front;
GAS LISTING /tmp/ccocIRts.s 			page 11


  42:src/../h/../h/ThreadQueue.hpp ****             front = front->next;
  43:src/../h/../h/ThreadQueue.hpp ****             delete node;
  44:src/../h/../h/ThreadQueue.hpp ****         }
  45:src/../h/../h/ThreadQueue.hpp ****     }
  46:src/../h/../h/ThreadQueue.hpp **** 
  47:src/../h/../h/ThreadQueue.hpp ****     bool isEmpty() const {
  48:src/../h/../h/ThreadQueue.hpp ****         return front == nullptr;
 381              		.loc 3 48 9
 382              		.loc 3 48 16 is_stmt 0
 383 01e0 83B78400 		ld	a5,8(s1)
 384              	.LVL34:
 385              	.LBE30:
 386              	.LBE29:
 387              		.loc 1 51 9
 388 01e4 638E0700 		beqz	a5,.L30
 389              	.LBB31:
  52:src/KSem.cpp  **** 		TCB* tcb = handle->blocked.getFirst();
 390              		.loc 1 52 3 is_stmt 1
 391              		.loc 1 52 38 is_stmt 0
 392 01e8 13858400 		addi	a0,s1,8
 393 01ec 97000000 		call	_ZN11ThreadQueue8getFirstEv@plt
 393      E7800000 
 394              	.LVL35:
  53:src/KSem.cpp  **** 		Scheduler::put(tcb);
 395              		.loc 1 53 3 is_stmt 1
 396              		.loc 1 53 17 is_stmt 0
 397 01f4 97000000 		call	_ZN9Scheduler3putEP3TCB@plt
 397      E7800000 
 398              	.LVL36:
 399              	.LBE31:
  51:src/KSem.cpp  **** 		TCB* tcb = handle->blocked.getFirst();
 400              		.loc 1 51 2
 401 01fc 6FF05FFE 		j	.L31
 402              	.L30:
  54:src/KSem.cpp  **** 	}
  55:src/KSem.cpp  **** 	return 0;
 403              		.loc 1 55 2 is_stmt 1
  56:src/KSem.cpp  **** }
 404              		.loc 1 56 1 is_stmt 0
 405 0200 13050000 		li	a0,0
 406 0204 83308101 		ld	ra,24(sp)
 407              		.cfi_restore 1
 408 0208 03340101 		ld	s0,16(sp)
 409              		.cfi_restore 8
 410              		.cfi_def_cfa 2, 32
 411 020c 83348100 		ld	s1,8(sp)
 412              		.cfi_restore 9
 413              	.LVL37:
 414 0210 13010102 		addi	sp,sp,32
 415              		.cfi_def_cfa_offset 0
 416 0214 67800000 		jr	ra
 417              		.cfi_endproc
 418              	.LFE39:
 420              	.Letext0:
 421              		.file 5 "src/../h/../h/../h/../lib/hw.h"
 422              		.file 6 "src/../h/../h/../h/syscall_c.hpp"
 423              		.file 7 "src/../h/Scheduler.hpp"
GAS LISTING /tmp/ccocIRts.s 			page 12


GAS LISTING /tmp/ccocIRts.s 			page 13


DEFINED SYMBOLS
                            *ABS*:0000000000000000 KSem.cpp
     /tmp/ccocIRts.s:9      .text:0000000000000000 _ZN4KSemnwEm
     /tmp/ccocIRts.s:13     .text:0000000000000000 .L0 
     /tmp/ccocIRts.s:15     .text:0000000000000000 .L0 
     /tmp/ccocIRts.s:16     .text:0000000000000004 .L0 
     /tmp/ccocIRts.s:19     .text:000000000000000c .L0 
     /tmp/ccocIRts.s:20     .text:000000000000000c .L0 
     /tmp/ccocIRts.s:22     .text:0000000000000010 .L0 
     /tmp/ccocIRts.s:24     .text:0000000000000010 .L0 
     /tmp/ccocIRts.s:25     .text:0000000000000010 .L0 
     /tmp/ccocIRts.s:28     .text:0000000000000018 .L0 
     /tmp/ccocIRts.s:29     .text:000000000000001c .L0 
     /tmp/ccocIRts.s:31     .text:0000000000000020 .L0 
     /tmp/ccocIRts.s:32     .text:0000000000000020 .L0 
     /tmp/ccocIRts.s:34     .text:0000000000000024 .L0 
     /tmp/ccocIRts.s:36     .text:0000000000000028 .L0 
     /tmp/ccocIRts.s:42     .text:0000000000000028 _ZN4KSemdlEPv
     /tmp/ccocIRts.s:45     .text:0000000000000028 .L0 
     /tmp/ccocIRts.s:47     .text:0000000000000028 .L0 
     /tmp/ccocIRts.s:48     .text:000000000000002c .L0 
     /tmp/ccocIRts.s:51     .text:0000000000000034 .L0 
     /tmp/ccocIRts.s:52     .text:0000000000000034 .L0 
     /tmp/ccocIRts.s:54     .text:0000000000000038 .L0 
     /tmp/ccocIRts.s:56     .text:0000000000000038 .L0 
     /tmp/ccocIRts.s:57     .text:0000000000000038 .L0 
     /tmp/ccocIRts.s:60     .text:0000000000000040 .L0 
     /tmp/ccocIRts.s:61     .text:0000000000000044 .L0 
     /tmp/ccocIRts.s:63     .text:0000000000000048 .L0 
     /tmp/ccocIRts.s:64     .text:0000000000000048 .L0 
     /tmp/ccocIRts.s:66     .text:000000000000004c .L0 
     /tmp/ccocIRts.s:68     .text:0000000000000050 .L0 
     /tmp/ccocIRts.s:74     .text:0000000000000050 _ZN4KSem7initSemEj
     /tmp/ccocIRts.s:77     .text:0000000000000050 .L0 
     /tmp/ccocIRts.s:79     .text:0000000000000050 .L0 
     /tmp/ccocIRts.s:80     .text:0000000000000054 .L0 
     /tmp/ccocIRts.s:84     .text:0000000000000060 .L0 
     /tmp/ccocIRts.s:85     .text:0000000000000060 .L0 
     /tmp/ccocIRts.s:86     .text:0000000000000060 .L0 
     /tmp/ccocIRts.s:88     .text:0000000000000064 .L0 
     /tmp/ccocIRts.s:91     .text:0000000000000068 .L0 
     /tmp/ccocIRts.s:92     .text:0000000000000068 .L0 
     /tmp/ccocIRts.s:100    .text:0000000000000074 .L0 
     /tmp/ccocIRts.s:106    .text:0000000000000078 .L0 
     /tmp/ccocIRts.s:112    .text:0000000000000080 .L0 
     /tmp/ccocIRts.s:118    .text:0000000000000088 .L0 
     /tmp/ccocIRts.s:119    .text:000000000000008c .L0 
     /tmp/ccocIRts.s:121    .text:0000000000000090 .L0 
     /tmp/ccocIRts.s:122    .text:0000000000000090 .L0 
     /tmp/ccocIRts.s:124    .text:0000000000000094 .L0 
     /tmp/ccocIRts.s:126    .text:0000000000000098 .L0 
     /tmp/ccocIRts.s:128    .text:000000000000009c .L0 
     /tmp/ccocIRts.s:134    .text:000000000000009c _ZN4KSem5blockEv
     /tmp/ccocIRts.s:137    .text:000000000000009c .L0 
     /tmp/ccocIRts.s:139    .text:000000000000009c .L0 
     /tmp/ccocIRts.s:140    .text:00000000000000a0 .L0 
     /tmp/ccocIRts.s:143    .text:00000000000000a8 .L0 
GAS LISTING /tmp/ccocIRts.s 			page 14


     /tmp/ccocIRts.s:144    .text:00000000000000a8 .L0 
     /tmp/ccocIRts.s:146    .text:00000000000000ac .L0 
     /tmp/ccocIRts.s:151    .text:00000000000000ac .L0 
     /tmp/ccocIRts.s:152    .text:00000000000000ac .L0 
     /tmp/ccocIRts.s:153    .text:00000000000000ac .L0 
     /tmp/ccocIRts.s:161    .text:00000000000000b8 .L0 
     /tmp/ccocIRts.s:162    .text:00000000000000b8 .L0 
     /tmp/ccocIRts.s:168    .text:00000000000000c0 .L0 
     /tmp/ccocIRts.s:169    .text:00000000000000c0 .L0 
     /tmp/ccocIRts.s:170    .text:00000000000000c0 .L0 
     /tmp/ccocIRts.s:175    .text:00000000000000cc .L0 
     /tmp/ccocIRts.s:176    .text:00000000000000cc .L0 
     /tmp/ccocIRts.s:179    .text:00000000000000d4 .L0 
     /tmp/ccocIRts.s:180    .text:00000000000000d8 .L0 
     /tmp/ccocIRts.s:182    .text:00000000000000dc .L0 
     /tmp/ccocIRts.s:183    .text:00000000000000dc .L0 
     /tmp/ccocIRts.s:185    .text:00000000000000e0 .L0 
     /tmp/ccocIRts.s:187    .text:00000000000000e4 .L0 
     /tmp/ccocIRts.s:193    .text:00000000000000e4 _ZN4KSem4waitEv
     /tmp/ccocIRts.s:196    .text:00000000000000e4 .L0 
     /tmp/ccocIRts.s:198    .text:00000000000000e4 .L0 
     /tmp/ccocIRts.s:199    .text:00000000000000e4 .L0 
     /tmp/ccocIRts.s:200    .text:00000000000000e4 .L0 
     /tmp/ccocIRts.s:202    .text:00000000000000e8 .L0 
     /tmp/ccocIRts.s:204    .text:00000000000000ec .L0 
     /tmp/ccocIRts.s:205    .text:00000000000000ec .L0 
     /tmp/ccocIRts.s:207    .text:00000000000000f0 .L0 
     /tmp/ccocIRts.s:209    .text:00000000000000f4 .L0 
     /tmp/ccocIRts.s:211    .text:00000000000000f8 .L0 
     /tmp/ccocIRts.s:214    .text:0000000000000100 .L0 
     /tmp/ccocIRts.s:217    .text:0000000000000104 .L0 
     /tmp/ccocIRts.s:221    .text:0000000000000108 .L0 
     /tmp/ccocIRts.s:222    .text:000000000000010c .L0 
     /tmp/ccocIRts.s:225    .text:0000000000000114 .L0 
     /tmp/ccocIRts.s:226    .text:0000000000000114 .L0 
     /tmp/ccocIRts.s:228    .text:0000000000000118 .L0 
     /tmp/ccocIRts.s:230    .text:0000000000000118 .L0 
     /tmp/ccocIRts.s:231    .text:0000000000000118 .L0 
     /tmp/ccocIRts.s:234    .text:0000000000000120 .L0 
     /tmp/ccocIRts.s:235    .text:0000000000000120 .L0 
     /tmp/ccocIRts.s:237    .text:0000000000000124 .L0 
     /tmp/ccocIRts.s:238    .text:0000000000000128 .L0 
     /tmp/ccocIRts.s:240    .text:000000000000012c .L0 
     /tmp/ccocIRts.s:241    .text:000000000000012c .L0 
     /tmp/ccocIRts.s:243    .text:0000000000000130 .L0 
     /tmp/ccocIRts.s:248    .text:0000000000000134 .L0 
     /tmp/ccocIRts.s:251    .text:000000000000013c .L0 
     /tmp/ccocIRts.s:257    .text:000000000000013c _ZN4KSem7unblockEv
     /tmp/ccocIRts.s:260    .text:000000000000013c .L0 
     /tmp/ccocIRts.s:262    .text:000000000000013c .L0 
     /tmp/ccocIRts.s:263    .text:0000000000000140 .L0 
     /tmp/ccocIRts.s:266    .text:0000000000000148 .L0 
     /tmp/ccocIRts.s:267    .text:0000000000000148 .L0 
     /tmp/ccocIRts.s:269    .text:000000000000014c .L0 
     /tmp/ccocIRts.s:271    .text:000000000000014c .L0 
     /tmp/ccocIRts.s:272    .text:000000000000014c .L0 
     /tmp/ccocIRts.s:277    .text:0000000000000158 .L0 
GAS LISTING /tmp/ccocIRts.s 			page 15


     /tmp/ccocIRts.s:278    .text:0000000000000158 .L0 
     /tmp/ccocIRts.s:281    .text:0000000000000160 .L0 
     /tmp/ccocIRts.s:282    .text:0000000000000164 .L0 
     /tmp/ccocIRts.s:284    .text:0000000000000168 .L0 
     /tmp/ccocIRts.s:285    .text:0000000000000168 .L0 
     /tmp/ccocIRts.s:287    .text:000000000000016c .L0 
     /tmp/ccocIRts.s:289    .text:0000000000000170 .L0 
     /tmp/ccocIRts.s:295    .text:0000000000000170 _ZN4KSem6signalEv
     /tmp/ccocIRts.s:298    .text:0000000000000170 .L0 
     /tmp/ccocIRts.s:300    .text:0000000000000170 .L0 
     /tmp/ccocIRts.s:301    .text:0000000000000170 .L0 
     /tmp/ccocIRts.s:302    .text:0000000000000170 .L0 
     /tmp/ccocIRts.s:304    .text:0000000000000174 .L0 
     /tmp/ccocIRts.s:306    .text:0000000000000178 .L0 
     /tmp/ccocIRts.s:307    .text:0000000000000178 .L0 
     /tmp/ccocIRts.s:309    .text:000000000000017c .L0 
     /tmp/ccocIRts.s:312    .text:0000000000000184 .L0 
     /tmp/ccocIRts.s:314    .text:0000000000000188 .L0 
     /tmp/ccocIRts.s:317    .text:000000000000018c .L0 
     /tmp/ccocIRts.s:321    .text:0000000000000190 .L0 
     /tmp/ccocIRts.s:322    .text:0000000000000194 .L0 
     /tmp/ccocIRts.s:325    .text:000000000000019c .L0 
     /tmp/ccocIRts.s:326    .text:000000000000019c .L0 
     /tmp/ccocIRts.s:328    .text:00000000000001a0 .L0 
     /tmp/ccocIRts.s:330    .text:00000000000001a0 .L0 
     /tmp/ccocIRts.s:331    .text:00000000000001a0 .L0 
     /tmp/ccocIRts.s:334    .text:00000000000001a8 .L0 
     /tmp/ccocIRts.s:336    .text:00000000000001ac .L0 
     /tmp/ccocIRts.s:337    .text:00000000000001b0 .L0 
     /tmp/ccocIRts.s:339    .text:00000000000001b4 .L0 
     /tmp/ccocIRts.s:340    .text:00000000000001b4 .L0 
     /tmp/ccocIRts.s:342    .text:00000000000001b8 .L0 
     /tmp/ccocIRts.s:347    .text:00000000000001bc .L0 
     /tmp/ccocIRts.s:350    .text:00000000000001c4 .L0 
     /tmp/ccocIRts.s:356    .text:00000000000001c4 _ZN4KSem8closeSemEPS_
     /tmp/ccocIRts.s:359    .text:00000000000001c4 .L0 
     /tmp/ccocIRts.s:361    .text:00000000000001c4 .L0 
     /tmp/ccocIRts.s:362    .text:00000000000001c8 .L0 
     /tmp/ccocIRts.s:366    .text:00000000000001d4 .L0 
     /tmp/ccocIRts.s:367    .text:00000000000001d4 .L0 
     /tmp/ccocIRts.s:368    .text:00000000000001d4 .L0 
     /tmp/ccocIRts.s:370    .text:00000000000001d8 .L0 
     /tmp/ccocIRts.s:373    .text:00000000000001dc .L0 
     /tmp/ccocIRts.s:374    .text:00000000000001dc .L0 
     /tmp/ccocIRts.s:378    .text:00000000000001e0 .L0 
     /tmp/ccocIRts.s:381    .text:00000000000001e0 .L0 
     /tmp/ccocIRts.s:382    .text:00000000000001e0 .L0 
     /tmp/ccocIRts.s:383    .text:00000000000001e0 .L0 
     /tmp/ccocIRts.s:388    .text:00000000000001e4 .L0 
     /tmp/ccocIRts.s:391    .text:00000000000001e8 .L0 
     /tmp/ccocIRts.s:392    .text:00000000000001e8 .L0 
     /tmp/ccocIRts.s:396    .text:00000000000001f4 .L0 
     /tmp/ccocIRts.s:397    .text:00000000000001f4 .L0 
     /tmp/ccocIRts.s:401    .text:00000000000001fc .L0 
     /tmp/ccocIRts.s:404    .text:0000000000000200 .L0 
     /tmp/ccocIRts.s:405    .text:0000000000000200 .L0 
     /tmp/ccocIRts.s:407    .text:0000000000000208 .L0 
GAS LISTING /tmp/ccocIRts.s 			page 16


     /tmp/ccocIRts.s:409    .text:000000000000020c .L0 
     /tmp/ccocIRts.s:410    .text:000000000000020c .L0 
     /tmp/ccocIRts.s:412    .text:0000000000000210 .L0 
     /tmp/ccocIRts.s:415    .text:0000000000000214 .L0 
     /tmp/ccocIRts.s:417    .text:0000000000000218 .L0 
     /tmp/ccocIRts.s:424    .text:0000000000000218 .L0 
     /tmp/ccocIRts.s:153    .text:00000000000000ac .L0 
     /tmp/ccocIRts.s:246    .text:0000000000000134 .L11
     /tmp/ccocIRts.s:219    .text:0000000000000108 .L17
     /tmp/ccocIRts.s:345    .text:00000000000001bc .L22
     /tmp/ccocIRts.s:319    .text:0000000000000190 .L28
     /tmp/ccocIRts.s:402    .text:0000000000000200 .L30
     /tmp/ccocIRts.s:376    .text:00000000000001e0 .L31
     /tmp/ccocIRts.s:1822   .debug_abbrev:0000000000000000 .Ldebug_abbrev0
     /tmp/ccocIRts.s:3412   .debug_str:00000000000006bc .LASF138
     /tmp/ccocIRts.s:3250   .debug_str:000000000000023b .LASF139
     /tmp/ccocIRts.s:3256   .debug_str:000000000000025c .LASF140
     /tmp/ccocIRts.s:5      .text:0000000000000000 .Ltext0
     /tmp/ccocIRts.s:420    .text:0000000000000218 .Letext0
     /tmp/ccocIRts.s:3168   .debug_line:0000000000000000 .Ldebug_line0
     /tmp/ccocIRts.s:3214   .debug_str:0000000000000144 .LASF3
     /tmp/ccocIRts.s:3324   .debug_str:000000000000043f .LASF0
     /tmp/ccocIRts.s:3342   .debug_str:00000000000004aa .LASF1
     /tmp/ccocIRts.s:3302   .debug_str:00000000000003c5 .LASF2
     /tmp/ccocIRts.s:3266   .debug_str:00000000000002c7 .LASF4
     /tmp/ccocIRts.s:3388   .debug_str:0000000000000622 .LASF5
     /tmp/ccocIRts.s:3196   .debug_str:00000000000000dd .LASF6
     /tmp/ccocIRts.s:3230   .debug_str:00000000000001ae .LASF7
     /tmp/ccocIRts.s:3348   .debug_str:00000000000004de .LASF8
     /tmp/ccocIRts.s:3322   .debug_str:000000000000042c .LASF9
     /tmp/ccocIRts.s:3426   .debug_str:00000000000007e5 .LASF10
     /tmp/ccocIRts.s:3252   .debug_str:0000000000000248 .LASF11
     /tmp/ccocIRts.s:3360   .debug_str:000000000000053f .LASF12
     /tmp/ccocIRts.s:3418   .debug_str:000000000000079d .LASF13
     /tmp/ccocIRts.s:3200   .debug_str:00000000000000ec .LASF14
     /tmp/ccocIRts.s:3174   .debug_str:0000000000000029 .LASF15
     /tmp/ccocIRts.s:3210   .debug_str:0000000000000133 .LASF16
     /tmp/ccocIRts.s:3382   .debug_str:00000000000005d3 .LASF17
     /tmp/ccocIRts.s:3222   .debug_str:0000000000000174 .LASF18
     /tmp/ccocIRts.s:3204   .debug_str:0000000000000109 .LASF141
     /tmp/ccocIRts.s:3414   .debug_str:0000000000000780 .LASF19
     /tmp/ccocIRts.s:3442   .debug_str:0000000000000865 .LASF20
     /tmp/ccocIRts.s:3268   .debug_str:00000000000002ce .LASF21
     /tmp/ccocIRts.s:3194   .debug_str:00000000000000d5 .LASF22
     /tmp/ccocIRts.s:3182   .debug_str:0000000000000061 .LASF23
     /tmp/ccocIRts.s:3396   .debug_str:0000000000000664 .LASF24
     /tmp/ccocIRts.s:3180   .debug_str:0000000000000059 .LASF92
     /tmp/ccocIRts.s:3440   .debug_str:000000000000085b .LASF25
     /tmp/ccocIRts.s:3460   .debug_str:00000000000008e1 .LASF27
     /tmp/ccocIRts.s:3300   .debug_str:00000000000003bb .LASF29
     /tmp/ccocIRts.s:3224   .debug_str:000000000000018a .LASF31
     /tmp/ccocIRts.s:3280   .debug_str:000000000000030c .LASF26
     /tmp/ccocIRts.s:3446   .debug_str:0000000000000874 .LASF28
     /tmp/ccocIRts.s:3374   .debug_str:00000000000005a7 .LASF142
     /tmp/ccocIRts.s:3340   .debug_str:00000000000004a4 .LASF37
     /tmp/ccocIRts.s:3362   .debug_str:000000000000054e .LASF39
     /tmp/ccocIRts.s:3292   .debug_str:000000000000037a .LASF30
GAS LISTING /tmp/ccocIRts.s 			page 17


     /tmp/ccocIRts.s:3358   .debug_str:0000000000000527 .LASF32
     /tmp/ccocIRts.s:3424   .debug_str:00000000000007d8 .LASF33
     /tmp/ccocIRts.s:3430   .debug_str:0000000000000816 .LASF34
     /tmp/ccocIRts.s:3316   .debug_str:0000000000000417 .LASF35
     /tmp/ccocIRts.s:3282   .debug_str:0000000000000319 .LASF36
     /tmp/ccocIRts.s:3458   .debug_str:00000000000008d6 .LASF41
     /tmp/ccocIRts.s:3420   .debug_str:00000000000007ac .LASF43
     /tmp/ccocIRts.s:3398   .debug_str:000000000000066d .LASF38
     /tmp/ccocIRts.s:3334   .debug_str:000000000000046d .LASF40
     /tmp/ccocIRts.s:3286   .debug_str:0000000000000343 .LASF42
     /tmp/ccocIRts.s:3170   .debug_str:0000000000000000 .LASF44
     /tmp/ccocIRts.s:3232   .debug_str:00000000000001b5 .LASF45
     /tmp/ccocIRts.s:3248   .debug_str:0000000000000223 .LASF46
     /tmp/ccocIRts.s:3376   .debug_str:00000000000005ac .LASF47
     /tmp/ccocIRts.s:3310   .debug_str:00000000000003ef .LASF49
     /tmp/ccocIRts.s:3326   .debug_str:000000000000044c .LASF48
     /tmp/ccocIRts.s:3242   .debug_str:00000000000001ef .LASF50
     /tmp/ccocIRts.s:3402   .debug_str:000000000000068a .LASF51
     /tmp/ccocIRts.s:3392   .debug_str:0000000000000644 .LASF52
     /tmp/ccocIRts.s:3202   .debug_str:00000000000000fc .LASF53
     /tmp/ccocIRts.s:3406   .debug_str:000000000000069a .LASF54
     /tmp/ccocIRts.s:3364   .debug_str:0000000000000560 .LASF55
     /tmp/ccocIRts.s:3378   .debug_str:00000000000005ba .LASF56
     /tmp/ccocIRts.s:3448   .debug_str:0000000000000896 .LASF120
     /tmp/ccocIRts.s:3276   .debug_str:00000000000002f4 .LASF57
     /tmp/ccocIRts.s:3298   .debug_str:00000000000003ac .LASF58
     /tmp/ccocIRts.s:3328   .debug_str:0000000000000455 .LASF59
     /tmp/ccocIRts.s:3330   .debug_str:000000000000045b .LASF60
     /tmp/ccocIRts.s:3336   .debug_str:0000000000000485 .LASF61
     /tmp/ccocIRts.s:3390   .debug_str:0000000000000634 .LASF62
     /tmp/ccocIRts.s:3262   .debug_str:00000000000002b6 .LASF63
     /tmp/ccocIRts.s:3352   .debug_str:0000000000000503 .LASF64
     /tmp/ccocIRts.s:3240   .debug_str:00000000000001e1 .LASF65
     /tmp/ccocIRts.s:3346   .debug_str:00000000000004d7 .LASF66
     /tmp/ccocIRts.s:3444   .debug_str:000000000000086c .LASF67
     /tmp/ccocIRts.s:3370   .debug_str:000000000000057a .LASF68
     /tmp/ccocIRts.s:3438   .debug_str:000000000000084d .LASF98
     /tmp/ccocIRts.s:3258   .debug_str:000000000000027a .LASF99
     /tmp/ccocIRts.s:3238   .debug_str:00000000000001db .LASF69
     /tmp/ccocIRts.s:3432   .debug_str:000000000000082e .LASF70
     /tmp/ccocIRts.s:3272   .debug_str:00000000000002df .LASF71
     /tmp/ccocIRts.s:3244   .debug_str:0000000000000202 .LASF72
     /tmp/ccocIRts.s:3456   .debug_str:00000000000008d1 .LASF73
     /tmp/ccocIRts.s:3190   .debug_str:00000000000000a6 .LASF74
     /tmp/ccocIRts.s:3220   .debug_str:000000000000016d .LASF75
     /tmp/ccocIRts.s:3400   .debug_str:0000000000000678 .LASF76
     /tmp/ccocIRts.s:3434   .debug_str:0000000000000833 .LASF77
     /tmp/ccocIRts.s:3188   .debug_str:0000000000000090 .LASF78
     /tmp/ccocIRts.s:3452   .debug_str:00000000000008bf .LASF79
     /tmp/ccocIRts.s:3288   .debug_str:0000000000000357 .LASF80
     /tmp/ccocIRts.s:3236   .debug_str:00000000000001d5 .LASF81
     /tmp/ccocIRts.s:3436   .debug_str:000000000000083c .LASF82
     /tmp/ccocIRts.s:3198   .debug_str:00000000000000e4 .LASF83
     /tmp/ccocIRts.s:3450   .debug_str:00000000000008ac .LASF84
     /tmp/ccocIRts.s:3274   .debug_str:00000000000002e7 .LASF85
     /tmp/ccocIRts.s:3304   .debug_str:00000000000003d3 .LASF86
     /tmp/ccocIRts.s:3314   .debug_str:000000000000040d .LASF87
GAS LISTING /tmp/ccocIRts.s 			page 18


     /tmp/ccocIRts.s:3278   .debug_str:00000000000002fc .LASF88
     /tmp/ccocIRts.s:3320   .debug_str:0000000000000424 .LASF89
     /tmp/ccocIRts.s:3178   .debug_str:0000000000000051 .LASF90
     /tmp/ccocIRts.s:3380   .debug_str:00000000000005c7 .LASF91
     /tmp/ccocIRts.s:3264   .debug_str:00000000000002c2 .LASF93
     /tmp/ccocIRts.s:3212   .debug_str:000000000000013f .LASF94
     /tmp/ccocIRts.s:3454   .debug_str:00000000000008cc .LASF95
     /tmp/ccocIRts.s:3384   .debug_str:00000000000005e9 .LASF96
     /tmp/ccocIRts.s:3344   .debug_str:00000000000004bd .LASF97
     /tmp/ccocIRts.s:3386   .debug_str:0000000000000607 .LASF100
     /tmp/ccocIRts.s:3254   .debug_str:0000000000000256 .LASF101
     /tmp/ccocIRts.s:3368   .debug_str:0000000000000575 .LASF102
     /tmp/ccocIRts.s:3294   .debug_str:0000000000000387 .LASF103
     /tmp/ccocIRts.s:3176   .debug_str:0000000000000039 .LASF104
     /tmp/ccocIRts.s:3284   .debug_str:000000000000032b .LASF143
     /tmp/ccocIRts.s:3356   .debug_str:000000000000051a .LASF105
     /tmp/ccocIRts.s:3290   .debug_str:0000000000000365 .LASF106
     /tmp/ccocIRts.s:3216   .debug_str:0000000000000149 .LASF107
     /tmp/ccocIRts.s:3218   .debug_str:0000000000000151 .LASF108
     /tmp/ccocIRts.s:3404   .debug_str:0000000000000692 .LASF109
     /tmp/ccocIRts.s:3192   .debug_str:00000000000000b6 .LASF110
     /tmp/ccocIRts.s:3410   .debug_str:00000000000006b3 .LASF111
     /tmp/ccocIRts.s:3372   .debug_str:000000000000058b .LASF112
     /tmp/ccocIRts.s:3416   .debug_str:0000000000000788 .LASF113
     /tmp/ccocIRts.s:3422   .debug_str:00000000000007c2 .LASF144
     /tmp/ccocIRts.s:3184   .debug_str:000000000000006a .LASF114
     /tmp/ccocIRts.s:3354   .debug_str:0000000000000510 .LASF115
     /tmp/ccocIRts.s:3228   .debug_str:00000000000001a9 .LASF116
     /tmp/ccocIRts.s:3308   .debug_str:00000000000003ea .LASF117
     /tmp/ccocIRts.s:3332   .debug_str:0000000000000460 .LASF118
     /tmp/ccocIRts.s:3350   .debug_str:00000000000004f1 .LASF119
     /tmp/ccocIRts.s:3208   .debug_str:000000000000011b .LASF121
     /tmp/ccocIRts.s:3260   .debug_str:00000000000002a2 .LASF145
     /tmp/ccocIRts.s:3296   .debug_str:000000000000039c .LASF122
     /tmp/ccocIRts.s:3428   .debug_str:00000000000007f5 .LASF123
     /tmp/ccocIRts.s:3226   .debug_str:000000000000019e .LASF124
     /tmp/ccocIRts.s:3186   .debug_str:000000000000006f .LASF125
     /tmp/ccocIRts.s:3312   .debug_str:0000000000000408 .LASF126
     /tmp/ccocIRts.s:3338   .debug_str:000000000000048f .LASF127
     /tmp/ccocIRts.s:357    .text:00000000000001c4 .LFB39
     /tmp/ccocIRts.s:418    .text:0000000000000218 .LFE39
     /tmp/ccocIRts.s:3306   .debug_str:00000000000003e3 .LASF129
     /tmp/ccocIRts.s:2922   .debug_loc:0000000000000000 .LLST13
     /tmp/ccocIRts.s:389    .text:00000000000001e8 .LBB31
     /tmp/ccocIRts.s:399    .text:00000000000001fc .LBE31
     /tmp/ccocIRts.s:2940   .debug_loc:000000000000004c .LLST15
     /tmp/ccocIRts.s:394    .text:00000000000001f4 .LVL35
     /tmp/ccocIRts.s:398    .text:00000000000001fc .LVL36
     /tmp/ccocIRts.s:379    .text:00000000000001e0 .LBB29
     /tmp/ccocIRts.s:386    .text:00000000000001e4 .LBE29
     /tmp/ccocIRts.s:2947   .debug_loc:000000000000006f .LLST14
     /tmp/ccocIRts.s:258    .text:000000000000013c .LFB38
     /tmp/ccocIRts.s:290    .text:0000000000000170 .LFE38
     /tmp/ccocIRts.s:3366   .debug_str:0000000000000570 .LASF128
     /tmp/ccocIRts.s:2956   .debug_loc:0000000000000094 .LLST10
     /tmp/ccocIRts.s:2976   .debug_loc:00000000000000e2 .LLST11
     /tmp/ccocIRts.s:275    .text:0000000000000158 .LVL24
GAS LISTING /tmp/ccocIRts.s 			page 19


     /tmp/ccocIRts.s:279    .text:0000000000000160 .LVL25
     /tmp/ccocIRts.s:135    .text:000000000000009c .LFB37
     /tmp/ccocIRts.s:188    .text:00000000000000e4 .LFE37
     /tmp/ccocIRts.s:2983   .debug_loc:0000000000000105 .LLST6
     /tmp/ccocIRts.s:148    .text:00000000000000ac .LBB25
     /tmp/ccocIRts.s:157    .text:00000000000000b8 .LBE25
     /tmp/ccocIRts.s:158    .text:00000000000000b8 .LBB27
     /tmp/ccocIRts.s:166    .text:00000000000000c0 .LBE27
     /tmp/ccocIRts.s:3003   .debug_loc:0000000000000153 .LLST7
     /tmp/ccocIRts.s:3011   .debug_loc:0000000000000177 .LLST8
     /tmp/ccocIRts.s:173    .text:00000000000000cc .LVL14
     /tmp/ccocIRts.s:177    .text:00000000000000d4 .LVL15
     /tmp/ccocIRts.s:296    .text:0000000000000170 .LFB36
     /tmp/ccocIRts.s:351    .text:00000000000001c4 .LFE36
     /tmp/ccocIRts.s:3018   .debug_loc:000000000000019a .LLST12
     /tmp/ccocIRts.s:332    .text:00000000000001a8 .LVL29
     /tmp/ccocIRts.s:194    .text:00000000000000e4 .LFB35
     /tmp/ccocIRts.s:252    .text:000000000000013c .LFE35
     /tmp/ccocIRts.s:3054   .debug_loc:0000000000000225 .LLST9
     /tmp/ccocIRts.s:232    .text:0000000000000120 .LVL19
     /tmp/ccocIRts.s:75     .text:0000000000000050 .LFB34
     /tmp/ccocIRts.s:129    .text:000000000000009c .LFE34
     /tmp/ccocIRts.s:3090   .debug_loc:00000000000002b0 .LLST2
     /tmp/ccocIRts.s:96     .text:0000000000000074 .LBB21
     /tmp/ccocIRts.s:116    .text:0000000000000088 .LBE21
     /tmp/ccocIRts.s:3104   .debug_loc:00000000000002e9 .LLST3
     /tmp/ccocIRts.s:3111   .debug_loc:000000000000030c .LLST4
     /tmp/ccocIRts.s:102    .text:0000000000000078 .LBB23
     /tmp/ccocIRts.s:110    .text:0000000000000080 .LBE23
     /tmp/ccocIRts.s:3118   .debug_loc:000000000000032f .LLST5
     /tmp/ccocIRts.s:95     .text:0000000000000074 .LVL6
     /tmp/ccocIRts.s:43     .text:0000000000000028 .LFB33
     /tmp/ccocIRts.s:69     .text:0000000000000050 .LFE33
     /tmp/ccocIRts.s:3127   .debug_loc:0000000000000354 .LLST1
     /tmp/ccocIRts.s:58     .text:0000000000000040 .LVL3
     /tmp/ccocIRts.s:10     .text:0000000000000000 .LFB32
     /tmp/ccocIRts.s:37     .text:0000000000000028 .LFE32
     /tmp/ccocIRts.s:3318   .debug_str:000000000000041f .LASF130
     /tmp/ccocIRts.s:3141   .debug_loc:000000000000038d .LLST0
     /tmp/ccocIRts.s:26     .text:0000000000000018 .LVL1
     /tmp/ccocIRts.s:3206   .debug_str:0000000000000116 .LASF131
     /tmp/ccocIRts.s:3408   .debug_str:00000000000006a6 .LASF132
     /tmp/ccocIRts.s:3234   .debug_str:00000000000001c0 .LASF133
     /tmp/ccocIRts.s:3246   .debug_str:0000000000000215 .LASF134
     /tmp/ccocIRts.s:3270   .debug_str:00000000000002d6 .LASF136
     /tmp/ccocIRts.s:3394   .debug_str:0000000000000656 .LASF135
     /tmp/ccocIRts.s:3172   .debug_str:000000000000001f .LASF137
     /tmp/ccocIRts.s:360    .text:00000000000001c4 .LVL32
     /tmp/ccocIRts.s:375    .text:00000000000001e0 .LVL33
     /tmp/ccocIRts.s:413    .text:0000000000000210 .LVL37
     /tmp/ccocIRts.s:384    .text:00000000000001e4 .LVL34
     /tmp/ccocIRts.s:261    .text:000000000000013c .LVL22
     /tmp/ccocIRts.s:273    .text:0000000000000150 .LVL23
     /tmp/ccocIRts.s:138    .text:000000000000009c .LVL10
     /tmp/ccocIRts.s:171    .text:00000000000000c4 .LVL13
     /tmp/ccocIRts.s:155    .text:00000000000000b8 .LVL11
     /tmp/ccocIRts.s:164    .text:00000000000000c0 .LVL12
GAS LISTING /tmp/ccocIRts.s 			page 20


     /tmp/ccocIRts.s:299    .text:0000000000000170 .LVL26
     /tmp/ccocIRts.s:315    .text:000000000000018c .LVL27
     /tmp/ccocIRts.s:318    .text:0000000000000190 .LVL28
     /tmp/ccocIRts.s:344    .text:00000000000001bc .LVL30
     /tmp/ccocIRts.s:348    .text:00000000000001c0 .LVL31
     /tmp/ccocIRts.s:197    .text:00000000000000e4 .LVL16
     /tmp/ccocIRts.s:215    .text:0000000000000104 .LVL17
     /tmp/ccocIRts.s:218    .text:0000000000000108 .LVL18
     /tmp/ccocIRts.s:245    .text:0000000000000134 .LVL20
     /tmp/ccocIRts.s:249    .text:0000000000000138 .LVL21
     /tmp/ccocIRts.s:78     .text:0000000000000050 .LVL4
     /tmp/ccocIRts.s:93     .text:000000000000006c .LVL5
     /tmp/ccocIRts.s:114    .text:0000000000000088 .LVL9
     /tmp/ccocIRts.s:101    .text:0000000000000078 .LVL7
     /tmp/ccocIRts.s:108    .text:0000000000000080 .LVL8
     /tmp/ccocIRts.s:46     .text:0000000000000028 .LVL2
     /tmp/ccocIRts.s:14     .text:0000000000000000 .LVL0
     /tmp/ccocIRts.s:425    .debug_info:0000000000000000 .Ldebug_info0

UNDEFINED SYMBOLS
_Z9mem_allocm
_Z8mem_freePv
_ZN3TCB7runningE
_ZN11ThreadQueue7putLastEP3TCB
_ZN3TCB8dispatchEv
_ZN11ThreadQueue8getFirstEv
_ZN9Scheduler3putEP3TCB
