GAS LISTING /tmp/ccee24fD.s 			page 1


   1              		.file	"KSem.cpp"
   2              		.option pic
   3              		.option norelax
   4              		.text
   5              	.Ltext0:
   6              		.align	2
   7              		.globl	_ZN4KSemnwEm
   9              	_ZN4KSemnwEm:
  10              	.LFB31:
  11              		.file 1 "src/KSem.cpp"
   1:src/KSem.cpp  **** //
   2:src/KSem.cpp  **** // Created by os on 6/4/23.
   3:src/KSem.cpp  **** //
   4:src/KSem.cpp  **** 
   5:src/KSem.cpp  **** #include "../h/KSem.hpp"
   6:src/KSem.cpp  **** #include "../h/TCB.hpp"
   7:src/KSem.cpp  **** #include "../h/Scheduler.hpp"
   8:src/KSem.cpp  **** 
   9:src/KSem.cpp  **** void* KSem::operator new(size_t size) {
  12              		.loc 1 9 39
  13              		.cfi_startproc
  14              	.LVL0:
  15 0000 130101FF 		addi	sp,sp,-16
  16              		.cfi_def_cfa_offset 16
  17 0004 23341100 		sd	ra,8(sp)
  18 0008 23308100 		sd	s0,0(sp)
  19              		.cfi_offset 1, -8
  20              		.cfi_offset 8, -16
  21 000c 13040101 		addi	s0,sp,16
  22              		.cfi_def_cfa 8, 0
  10:src/KSem.cpp  ****     return mem_alloc(size);
  23              		.loc 1 10 5
  24              		.loc 1 10 21 is_stmt 0
  25 0010 97000000 		call	_Z9mem_allocm@plt
  25      E7800000 
  26              	.LVL1:
  11:src/KSem.cpp  **** }
  27              		.loc 1 11 1
  28 0018 83308100 		ld	ra,8(sp)
  29              		.cfi_restore 1
  30 001c 03340100 		ld	s0,0(sp)
  31              		.cfi_restore 8
  32              		.cfi_def_cfa 2, 16
  33 0020 13010101 		addi	sp,sp,16
  34              		.cfi_def_cfa_offset 0
  35 0024 67800000 		jr	ra
  36              		.cfi_endproc
  37              	.LFE31:
  39              		.align	2
  40              		.globl	_ZN4KSemdlEPv
  42              	_ZN4KSemdlEPv:
  43              	.LFB32:
  12:src/KSem.cpp  **** 
  13:src/KSem.cpp  **** void KSem::operator delete(void* ptr) {
  44              		.loc 1 13 39 is_stmt 1
  45              		.cfi_startproc
  46              	.LVL2:
GAS LISTING /tmp/ccee24fD.s 			page 2


  47 0028 130101FF 		addi	sp,sp,-16
  48              		.cfi_def_cfa_offset 16
  49 002c 23341100 		sd	ra,8(sp)
  50 0030 23308100 		sd	s0,0(sp)
  51              		.cfi_offset 1, -8
  52              		.cfi_offset 8, -16
  53 0034 13040101 		addi	s0,sp,16
  54              		.cfi_def_cfa 8, 0
  14:src/KSem.cpp  ****     mem_free(ptr);
  55              		.loc 1 14 5
  56              		.loc 1 14 13 is_stmt 0
  57 0038 97000000 		call	_Z8mem_freePv@plt
  57      E7800000 
  58              	.LVL3:
  15:src/KSem.cpp  **** }
  59              		.loc 1 15 1
  60 0040 83308100 		ld	ra,8(sp)
  61              		.cfi_restore 1
  62 0044 03340100 		ld	s0,0(sp)
  63              		.cfi_restore 8
  64              		.cfi_def_cfa 2, 16
  65 0048 13010101 		addi	sp,sp,16
  66              		.cfi_def_cfa_offset 0
  67 004c 67800000 		jr	ra
  68              		.cfi_endproc
  69              	.LFE32:
  71              		.align	2
  72              		.globl	_ZN4KSem7initSemEj
  74              	_ZN4KSem7initSemEj:
  75              	.LFB33:
  16:src/KSem.cpp  **** 
  17:src/KSem.cpp  **** KSem* KSem::initSem(uint val) {
  76              		.loc 1 17 31 is_stmt 1
  77              		.cfi_startproc
  78              	.LVL4:
  79 0050 130101FE 		addi	sp,sp,-32
  80              		.cfi_def_cfa_offset 32
  81 0054 233C1100 		sd	ra,24(sp)
  82 0058 23388100 		sd	s0,16(sp)
  83 005c 23349100 		sd	s1,8(sp)
  84              		.cfi_offset 1, -8
  85              		.cfi_offset 8, -16
  86              		.cfi_offset 9, -24
  87 0060 13040102 		addi	s0,sp,32
  88              		.cfi_def_cfa 8, 0
  89 0064 93040500 		mv	s1,a0
  18:src/KSem.cpp  **** 	return new KSem(val);
  90              		.loc 1 18 2
  91              		.loc 1 18 21 is_stmt 0
  92 0068 13058001 		li	a0,24
  93              	.LVL5:
  94 006c 97000000 		call	_ZN4KSemnwEm
  94      E7800000 
  95              	.LVL6:
  96              	.LBB21:
  97              	.LBB22:
  98              		.file 2 "src/../h/KSem.hpp"
GAS LISTING /tmp/ccee24fD.s 			page 3


   1:src/../h/KSem.hpp **** //
   2:src/../h/KSem.hpp **** // Created by os on 6/4/23.
   3:src/../h/KSem.hpp **** //
   4:src/../h/KSem.hpp **** 
   5:src/../h/KSem.hpp **** #ifndef PROJEKAT2023_KSEM_HPP
   6:src/../h/KSem.hpp **** #define PROJEKAT2023_KSEM_HPP
   7:src/../h/KSem.hpp **** 
   8:src/../h/KSem.hpp **** #include "../h/ThreadQueue.hpp"
   9:src/../h/KSem.hpp **** 
  10:src/../h/KSem.hpp **** //klasa napravljena po uzoru na semafor u skolskom jezgru
  11:src/../h/KSem.hpp **** class KSem {
  12:src/../h/KSem.hpp **** public:
  13:src/../h/KSem.hpp **** 	static KSem* initSem(uint val);
  14:src/../h/KSem.hpp **** 
  15:src/../h/KSem.hpp **** 	int wait();
  16:src/../h/KSem.hpp **** 
  17:src/../h/KSem.hpp **** 	int signal();
  18:src/../h/KSem.hpp **** 
  19:src/../h/KSem.hpp ****     //deaktiviranje semafora i oslobadjanje svih niti koje cekaju na njemu
  20:src/../h/KSem.hpp **** 	static int closeSem(sem_t handle);
  21:src/../h/KSem.hpp **** 
  22:src/../h/KSem.hpp **** 	static void* operator new(size_t size);
  23:src/../h/KSem.hpp **** 
  24:src/../h/KSem.hpp **** 	static void operator delete(void* ptr);
  25:src/../h/KSem.hpp **** 
  26:src/../h/KSem.hpp **** protected:
  27:src/../h/KSem.hpp **** 	void block();
  28:src/../h/KSem.hpp **** 
  29:src/../h/KSem.hpp **** 	void unblock();
  30:src/../h/KSem.hpp **** 
  31:src/../h/KSem.hpp **** private:
  32:src/../h/KSem.hpp **** 	KSem(uint val) : val(val) {}
  99              		.loc 2 32 26
 100 0074 23209500 		sw	s1,0(a0)
 101              	.LVL7:
 102              	.LBB23:
 103              	.LBB24:
 104              		.file 3 "src/../h/../h/ThreadQueue.hpp"
   1:src/../h/../h/ThreadQueue.hpp **** //
   2:src/../h/../h/ThreadQueue.hpp **** // Created by os on 6/4/23.
   3:src/../h/../h/ThreadQueue.hpp **** //
   4:src/../h/../h/ThreadQueue.hpp **** 
   5:src/../h/../h/ThreadQueue.hpp **** #ifndef PROJEKAT2023_THREADQUEUE_HPP
   6:src/../h/../h/ThreadQueue.hpp **** #define PROJEKAT2023_THREADQUEUE_HPP
   7:src/../h/../h/ThreadQueue.hpp **** 
   8:src/../h/../h/ThreadQueue.hpp **** #include "../h/syscall_c.hpp"
   9:src/../h/../h/ThreadQueue.hpp **** 
  10:src/../h/../h/ThreadQueue.hpp **** class TCB;
  11:src/../h/../h/ThreadQueue.hpp **** 
  12:src/../h/../h/ThreadQueue.hpp **** class ThreadQueue {
  13:src/../h/../h/ThreadQueue.hpp **** private:
  14:src/../h/../h/ThreadQueue.hpp ****     struct Node {
  15:src/../h/../h/ThreadQueue.hpp ****         TCB* data;
  16:src/../h/../h/ThreadQueue.hpp ****         Node* next;
  17:src/../h/../h/ThreadQueue.hpp **** 
  18:src/../h/../h/ThreadQueue.hpp ****         Node(TCB* d) : data(d), next(nullptr) {}
  19:src/../h/../h/ThreadQueue.hpp **** 
GAS LISTING /tmp/ccee24fD.s 			page 4


  20:src/../h/../h/ThreadQueue.hpp ****         static void* operator new(size_t size) {
  21:src/../h/../h/ThreadQueue.hpp ****             return mem_alloc(size);
  22:src/../h/../h/ThreadQueue.hpp ****         }
  23:src/../h/../h/ThreadQueue.hpp **** 
  24:src/../h/../h/ThreadQueue.hpp ****         static void operator delete(void* ptr) {
  25:src/../h/../h/ThreadQueue.hpp ****             mem_free(ptr);
  26:src/../h/../h/ThreadQueue.hpp ****         }
  27:src/../h/../h/ThreadQueue.hpp ****     };
  28:src/../h/../h/ThreadQueue.hpp **** 
  29:src/../h/../h/ThreadQueue.hpp ****     Node* front;
  30:src/../h/../h/ThreadQueue.hpp ****     Node* back;
  31:src/../h/../h/ThreadQueue.hpp **** 
  32:src/../h/../h/ThreadQueue.hpp **** public:
  33:src/../h/../h/ThreadQueue.hpp ****     ThreadQueue() : front(nullptr), back(nullptr) {}
 105              		.loc 3 33 49
 106 0078 23340500 		sd	zero,8(a0)
 107 007c 23380500 		sd	zero,16(a0)
 108              	.LVL8:
 109              	.LBE24:
 110              	.LBE23:
 111              	.LBE22:
 112              	.LBE21:
  19:src/KSem.cpp  **** }
 113              		.loc 1 19 1
 114 0080 83308101 		ld	ra,24(sp)
 115              		.cfi_restore 1
 116 0084 03340101 		ld	s0,16(sp)
 117              		.cfi_restore 8
 118              		.cfi_def_cfa 2, 32
 119 0088 83348100 		ld	s1,8(sp)
 120              		.cfi_restore 9
 121 008c 13010102 		addi	sp,sp,32
 122              		.cfi_def_cfa_offset 0
 123 0090 67800000 		jr	ra
 124              		.cfi_endproc
 125              	.LFE33:
 127              		.align	2
 128              		.globl	_ZN4KSem5blockEv
 130              	_ZN4KSem5blockEv:
 131              	.LFB36:
  20:src/KSem.cpp  **** 
  21:src/KSem.cpp  **** int KSem::wait() {
  22:src/KSem.cpp  **** 	if (--val < 0) {
  23:src/KSem.cpp  **** 		block();
  24:src/KSem.cpp  **** 		return -1;
  25:src/KSem.cpp  **** 	}
  26:src/KSem.cpp  **** 	return 0;
  27:src/KSem.cpp  **** }
  28:src/KSem.cpp  **** 
  29:src/KSem.cpp  **** int KSem::signal() {
  30:src/KSem.cpp  **** 	if (val++ < 0) {
  31:src/KSem.cpp  **** 		unblock();
  32:src/KSem.cpp  **** 	}
  33:src/KSem.cpp  **** 	return 0;
  34:src/KSem.cpp  **** }
  35:src/KSem.cpp  **** 
  36:src/KSem.cpp  **** void KSem::block() {
GAS LISTING /tmp/ccee24fD.s 			page 5


 132              		.loc 1 36 20 is_stmt 1
 133              		.cfi_startproc
 134              	.LVL9:
 135 0094 130101FF 		addi	sp,sp,-16
 136              		.cfi_def_cfa_offset 16
 137 0098 23341100 		sd	ra,8(sp)
 138 009c 23308100 		sd	s0,0(sp)
 139              		.cfi_offset 1, -8
 140              		.cfi_offset 8, -16
 141 00a0 13040101 		addi	s0,sp,16
 142              		.cfi_def_cfa 8, 0
  37:src/KSem.cpp  ****     TCB::getRunning()->setStatus(TCB::BLOCKED);
 143              		.loc 1 37 5
 144              	.LBB25:
 145              	.LBB26:
 146              		.file 4 "src/../h/TCB.hpp"
   1:src/../h/TCB.hpp **** //
   2:src/../h/TCB.hpp **** // Created by os on 5/23/23.
   3:src/../h/TCB.hpp **** //
   4:src/../h/TCB.hpp **** 
   5:src/../h/TCB.hpp **** #ifndef PROJEKAT2023_TCB_HPP
   6:src/../h/TCB.hpp **** #define PROJEKAT2023_TCB_HPP
   7:src/../h/TCB.hpp **** 
   8:src/../h/TCB.hpp **** #include "../lib/hw.h"
   9:src/../h/TCB.hpp **** #include "../h/ThreadQueue.hpp"
  10:src/../h/TCB.hpp **** 
  11:src/../h/TCB.hpp **** int main();
  12:src/../h/TCB.hpp **** 
  13:src/../h/TCB.hpp **** class TCB {
  14:src/../h/TCB.hpp **** public:
  15:src/../h/TCB.hpp ****     friend class Scheduler;
  16:src/../h/TCB.hpp **** 
  17:src/../h/TCB.hpp ****     using Body = void (*)(void*);
  18:src/../h/TCB.hpp **** 
  19:src/../h/TCB.hpp ****     enum ThreadStatus {
  20:src/../h/TCB.hpp ****         CREATED, ACTIVE, BLOCKED, JOINING, SLEEPING, FINISHED
  21:src/../h/TCB.hpp ****     };
  22:src/../h/TCB.hpp **** 
  23:src/../h/TCB.hpp ****     void setStatus(ThreadStatus stat) { this->status = stat; }
  24:src/../h/TCB.hpp **** 
  25:src/../h/TCB.hpp ****     ThreadStatus getStatus() { return this->status; }
  26:src/../h/TCB.hpp **** 
  27:src/../h/TCB.hpp ****     static TCB* createThread(Body function, void* args, uint64* stack);
  28:src/../h/TCB.hpp **** 
  29:src/../h/TCB.hpp ****     uint64 getTimeSlice() { return timeSlice; }
  30:src/../h/TCB.hpp **** 
  31:src/../h/TCB.hpp ****     void setTimeSlice(uint64 value) { timeSlice = value; }
  32:src/../h/TCB.hpp **** 
  33:src/../h/TCB.hpp ****     Body getBody() { return threadFunction; }
  34:src/../h/TCB.hpp **** 
  35:src/../h/TCB.hpp ****     static TCB* getRunning() { return running; }
 147              		.loc 4 35 32
 148              		.loc 4 35 39 is_stmt 0
 149 00a4 97070000 		la	a5,_ZN3TCB7runningE
 149      83B70700 
 150 00ac 83B50700 		ld	a1,0(a5)
 151              	.LVL10:
GAS LISTING /tmp/ccee24fD.s 			page 6


 152              	.LBE26:
 153              	.LBE25:
 154              	.LBB27:
 155              	.LBB28:
  23:src/../h/TCB.hpp **** 
 156              		.loc 4 23 41 is_stmt 1
  23:src/../h/TCB.hpp **** 
 157              		.loc 4 23 54 is_stmt 0
 158 00b0 93072000 		li	a5,2
 159 00b4 23ACF504 		sw	a5,88(a1)
 160              	.LVL11:
 161              	.LBE28:
 162              	.LBE27:
  38:src/KSem.cpp  **** 	blocked.putLast(TCB::getRunning());
 163              		.loc 1 38 2 is_stmt 1
 164              		.loc 4 35 32
 165              		.loc 1 38 17 is_stmt 0
 166 00b8 13058500 		addi	a0,a0,8
 167              	.LVL12:
 168 00bc 97000000 		call	_ZN11ThreadQueue7putLastEP3TCB@plt
 168      E7800000 
 169              	.LVL13:
  39:src/KSem.cpp  **** 	TCB::dispatch();
 170              		.loc 1 39 2 is_stmt 1
 171              		.loc 1 39 15 is_stmt 0
 172 00c4 97000000 		call	_ZN3TCB8dispatchEv@plt
 172      E7800000 
 173              	.LVL14:
  40:src/KSem.cpp  **** }
 174              		.loc 1 40 1
 175 00cc 83308100 		ld	ra,8(sp)
 176              		.cfi_restore 1
 177 00d0 03340100 		ld	s0,0(sp)
 178              		.cfi_restore 8
 179              		.cfi_def_cfa 2, 16
 180 00d4 13010101 		addi	sp,sp,16
 181              		.cfi_def_cfa_offset 0
 182 00d8 67800000 		jr	ra
 183              		.cfi_endproc
 184              	.LFE36:
 186              		.align	2
 187              		.globl	_ZN4KSem4waitEv
 189              	_ZN4KSem4waitEv:
 190              	.LFB34:
  21:src/KSem.cpp  **** 	if (--val < 0) {
 191              		.loc 1 21 18 is_stmt 1
 192              		.cfi_startproc
 193              	.LVL15:
  22:src/KSem.cpp  **** 		block();
 194              		.loc 1 22 2
  22:src/KSem.cpp  **** 		block();
 195              		.loc 1 22 8 is_stmt 0
 196 00dc 83270500 		lw	a5,0(a0)
  22:src/KSem.cpp  **** 		block();
 197              		.loc 1 22 6
 198 00e0 9B87F7FF 		addiw	a5,a5,-1
  22:src/KSem.cpp  **** 		block();
GAS LISTING /tmp/ccee24fD.s 			page 7


 199              		.loc 1 22 12
 200 00e4 2320F500 		sw	a5,0(a0)
  22:src/KSem.cpp  **** 		block();
 201              		.loc 1 22 2
 202 00e8 13970702 		slli	a4,a5,32
 203 00ec 63460700 		bltz	a4,.L16
  26:src/KSem.cpp  **** }
 204              		.loc 1 26 9
 205 00f0 13050000 		li	a0,0
 206              	.LVL16:
  27:src/KSem.cpp  **** 
 207              		.loc 1 27 1
 208 00f4 67800000 		ret
 209              	.LVL17:
 210              	.L16:
  21:src/KSem.cpp  **** 	if (--val < 0) {
 211              		.loc 1 21 18
 212 00f8 130101FF 		addi	sp,sp,-16
 213              		.cfi_def_cfa_offset 16
 214 00fc 23341100 		sd	ra,8(sp)
 215 0100 23308100 		sd	s0,0(sp)
 216              		.cfi_offset 1, -8
 217              		.cfi_offset 8, -16
 218 0104 13040101 		addi	s0,sp,16
 219              		.cfi_def_cfa 8, 0
  23:src/KSem.cpp  **** 		return -1;
 220              		.loc 1 23 3 is_stmt 1
  23:src/KSem.cpp  **** 		return -1;
 221              		.loc 1 23 8 is_stmt 0
 222 0108 97000000 		call	_ZN4KSem5blockEv
 222      E7800000 
 223              	.LVL18:
  24:src/KSem.cpp  **** 	}
 224              		.loc 1 24 3 is_stmt 1
  24:src/KSem.cpp  **** 	}
 225              		.loc 1 24 11 is_stmt 0
 226 0110 1305F0FF 		li	a0,-1
  27:src/KSem.cpp  **** 
 227              		.loc 1 27 1
 228 0114 83308100 		ld	ra,8(sp)
 229              		.cfi_restore 1
 230 0118 03340100 		ld	s0,0(sp)
 231              		.cfi_restore 8
 232              		.cfi_def_cfa 2, 16
 233 011c 13010101 		addi	sp,sp,16
 234              		.cfi_def_cfa_offset 0
 235 0120 67800000 		jr	ra
 236              		.cfi_endproc
 237              	.LFE34:
 239              		.align	2
 240              		.globl	_ZN4KSem7unblockEv
 242              	_ZN4KSem7unblockEv:
 243              	.LFB37:
  41:src/KSem.cpp  **** 
  42:src/KSem.cpp  **** void KSem::unblock() {
 244              		.loc 1 42 22 is_stmt 1
 245              		.cfi_startproc
GAS LISTING /tmp/ccee24fD.s 			page 8


 246              	.LVL19:
 247 0124 130101FF 		addi	sp,sp,-16
 248              		.cfi_def_cfa_offset 16
 249 0128 23341100 		sd	ra,8(sp)
 250 012c 23308100 		sd	s0,0(sp)
 251              		.cfi_offset 1, -8
 252              		.cfi_offset 8, -16
 253 0130 13040101 		addi	s0,sp,16
 254              		.cfi_def_cfa 8, 0
  43:src/KSem.cpp  **** 	TCB* tcb = blocked.getFirst();
 255              		.loc 1 43 2
 256              		.loc 1 43 29 is_stmt 0
 257 0134 13058500 		addi	a0,a0,8
 258              	.LVL20:
 259 0138 97000000 		call	_ZN11ThreadQueue8getFirstEv@plt
 259      E7800000 
 260              	.LVL21:
  44:src/KSem.cpp  **** 	Scheduler::put(tcb);
 261              		.loc 1 44 2 is_stmt 1
 262              		.loc 1 44 16 is_stmt 0
 263 0140 97000000 		call	_ZN9Scheduler3putEP3TCB@plt
 263      E7800000 
 264              	.LVL22:
  45:src/KSem.cpp  **** }
 265              		.loc 1 45 1
 266 0148 83308100 		ld	ra,8(sp)
 267              		.cfi_restore 1
 268 014c 03340100 		ld	s0,0(sp)
 269              		.cfi_restore 8
 270              		.cfi_def_cfa 2, 16
 271 0150 13010101 		addi	sp,sp,16
 272              		.cfi_def_cfa_offset 0
 273 0154 67800000 		jr	ra
 274              		.cfi_endproc
 275              	.LFE37:
 277              		.align	2
 278              		.globl	_ZN4KSem6signalEv
 280              	_ZN4KSem6signalEv:
 281              	.LFB35:
  29:src/KSem.cpp  **** 	if (val++ < 0) {
 282              		.loc 1 29 20 is_stmt 1
 283              		.cfi_startproc
 284              	.LVL23:
  30:src/KSem.cpp  **** 		unblock();
 285              		.loc 1 30 2
  30:src/KSem.cpp  **** 		unblock();
 286              		.loc 1 30 6 is_stmt 0
 287 0158 83270500 		lw	a5,0(a0)
  30:src/KSem.cpp  **** 		unblock();
 288              		.loc 1 30 9
 289 015c 1B871700 		addiw	a4,a5,1
 290 0160 2320E500 		sw	a4,0(a0)
  30:src/KSem.cpp  **** 		unblock();
 291              		.loc 1 30 2
 292 0164 63C60700 		bltz	a5,.L25
  33:src/KSem.cpp  **** }
 293              		.loc 1 33 2 is_stmt 1
GAS LISTING /tmp/ccee24fD.s 			page 9


  34:src/KSem.cpp  **** 
 294              		.loc 1 34 1 is_stmt 0
 295 0168 13050000 		li	a0,0
 296              	.LVL24:
 297 016c 67800000 		ret
 298              	.LVL25:
 299              	.L25:
  29:src/KSem.cpp  **** 	if (val++ < 0) {
 300              		.loc 1 29 20
 301 0170 130101FF 		addi	sp,sp,-16
 302              		.cfi_def_cfa_offset 16
 303 0174 23341100 		sd	ra,8(sp)
 304 0178 23308100 		sd	s0,0(sp)
 305              		.cfi_offset 1, -8
 306              		.cfi_offset 8, -16
 307 017c 13040101 		addi	s0,sp,16
 308              		.cfi_def_cfa 8, 0
  31:src/KSem.cpp  **** 	}
 309              		.loc 1 31 3 is_stmt 1
  31:src/KSem.cpp  **** 	}
 310              		.loc 1 31 10 is_stmt 0
 311 0180 97000000 		call	_ZN4KSem7unblockEv
 311      E7800000 
 312              	.LVL26:
  33:src/KSem.cpp  **** }
 313              		.loc 1 33 2 is_stmt 1
  34:src/KSem.cpp  **** 
 314              		.loc 1 34 1 is_stmt 0
 315 0188 13050000 		li	a0,0
 316 018c 83308100 		ld	ra,8(sp)
 317              		.cfi_restore 1
 318 0190 03340100 		ld	s0,0(sp)
 319              		.cfi_restore 8
 320              		.cfi_def_cfa 2, 16
 321 0194 13010101 		addi	sp,sp,16
 322              		.cfi_def_cfa_offset 0
 323 0198 67800000 		jr	ra
 324              		.cfi_endproc
 325              	.LFE35:
 327              		.align	2
 328              		.globl	_ZN4KSem8closeSemEPS_
 330              	_ZN4KSem8closeSemEPS_:
 331              	.LFB38:
  46:src/KSem.cpp  **** 
  47:src/KSem.cpp  **** int KSem::closeSem(sem_t handle) {
 332              		.loc 1 47 34 is_stmt 1
 333              		.cfi_startproc
 334              	.LVL27:
 335 019c 130101FE 		addi	sp,sp,-32
 336              		.cfi_def_cfa_offset 32
 337 01a0 233C1100 		sd	ra,24(sp)
 338 01a4 23388100 		sd	s0,16(sp)
 339 01a8 23349100 		sd	s1,8(sp)
 340              		.cfi_offset 1, -8
 341              		.cfi_offset 8, -16
 342              		.cfi_offset 9, -24
 343 01ac 13040102 		addi	s0,sp,32
GAS LISTING /tmp/ccee24fD.s 			page 10


 344              		.cfi_def_cfa 8, 0
 345 01b0 93040500 		mv	s1,a0
 346              	.LVL28:
 347              	.L28:
  48:src/KSem.cpp  **** 	while (!handle->blocked.isEmpty()) {
 348              		.loc 1 48 2
 349              		.loc 1 48 9
 350              	.LBB29:
 351              	.LBB30:
  34:src/../h/../h/ThreadQueue.hpp **** 
  35:src/../h/../h/ThreadQueue.hpp ****     ThreadQueue(const ThreadQueue &) = delete;
  36:src/../h/../h/ThreadQueue.hpp **** 
  37:src/../h/../h/ThreadQueue.hpp ****     ThreadQueue &operator=(const ThreadQueue &) = delete;
  38:src/../h/../h/ThreadQueue.hpp **** 
  39:src/../h/../h/ThreadQueue.hpp ****     ~ThreadQueue() {
  40:src/../h/../h/ThreadQueue.hpp ****         while (!isEmpty()) {
  41:src/../h/../h/ThreadQueue.hpp ****             Node* node = front;
  42:src/../h/../h/ThreadQueue.hpp ****             front = front->next;
  43:src/../h/../h/ThreadQueue.hpp ****             delete node;
  44:src/../h/../h/ThreadQueue.hpp ****         }
  45:src/../h/../h/ThreadQueue.hpp ****     }
  46:src/../h/../h/ThreadQueue.hpp **** 
  47:src/../h/../h/ThreadQueue.hpp ****     bool isEmpty() const {
  48:src/../h/../h/ThreadQueue.hpp ****         return front == nullptr;
 352              		.loc 3 48 9
 353              		.loc 3 48 16 is_stmt 0
 354 01b4 83B78400 		ld	a5,8(s1)
 355              	.LVL29:
 356              	.LBE30:
 357              	.LBE29:
 358              		.loc 1 48 9
 359 01b8 638E0700 		beqz	a5,.L27
 360              	.LBB31:
  49:src/KSem.cpp  **** 		TCB* tcb = handle->blocked.getFirst();
 361              		.loc 1 49 3 is_stmt 1
 362              		.loc 1 49 38 is_stmt 0
 363 01bc 13858400 		addi	a0,s1,8
 364 01c0 97000000 		call	_ZN11ThreadQueue8getFirstEv@plt
 364      E7800000 
 365              	.LVL30:
  50:src/KSem.cpp  **** 		Scheduler::put(tcb);
 366              		.loc 1 50 3 is_stmt 1
 367              		.loc 1 50 17 is_stmt 0
 368 01c8 97000000 		call	_ZN9Scheduler3putEP3TCB@plt
 368      E7800000 
 369              	.LVL31:
 370              	.LBE31:
  48:src/KSem.cpp  **** 		TCB* tcb = handle->blocked.getFirst();
 371              		.loc 1 48 2
 372 01d0 6FF05FFE 		j	.L28
 373              	.L27:
  51:src/KSem.cpp  **** 	}
  52:src/KSem.cpp  **** 	return 0;
 374              		.loc 1 52 2 is_stmt 1
  53:src/KSem.cpp  **** }
 375              		.loc 1 53 1 is_stmt 0
 376 01d4 13050000 		li	a0,0
GAS LISTING /tmp/ccee24fD.s 			page 11


 377 01d8 83308101 		ld	ra,24(sp)
 378              		.cfi_restore 1
 379 01dc 03340101 		ld	s0,16(sp)
 380              		.cfi_restore 8
 381              		.cfi_def_cfa 2, 32
 382 01e0 83348100 		ld	s1,8(sp)
 383              		.cfi_restore 9
 384              	.LVL32:
 385 01e4 13010102 		addi	sp,sp,32
 386              		.cfi_def_cfa_offset 0
 387 01e8 67800000 		jr	ra
 388              		.cfi_endproc
 389              	.LFE38:
 391              	.Letext0:
 392              		.file 5 "src/../h/../h/../h/../lib/hw.h"
 393              		.file 6 "src/../h/../h/../h/syscall_c.hpp"
 394              		.file 7 "src/../h/Scheduler.hpp"
GAS LISTING /tmp/ccee24fD.s 			page 12

