GAS LISTING /tmp/ccBHHkTD.s 			page 1


   1              		.file	"KSem.cpp"
   2              		.option pic
   3              		.option norelax
   4              		.text
   5              	.Ltext0:
   6              		.align	2
   7              		.globl	_ZN4KSemnwEm
   9              	_ZN4KSemnwEm:
  10              	.LFB41:
  11              		.file 1 "src/KSem.cpp"
   1:src/KSem.cpp  **** //
   2:src/KSem.cpp  **** // Created by os on 6/4/23.
   3:src/KSem.cpp  **** //
   4:src/KSem.cpp  **** 
   5:src/KSem.cpp  **** #include "../h/KSem.hpp"
   6:src/KSem.cpp  **** #include "../h/TCB.hpp"
   7:src/KSem.cpp  **** #include "../h/Scheduler.hpp"
   8:src/KSem.cpp  **** 
   9:src/KSem.cpp  **** void* KSem::operator new(size_t size) {
  12              		.loc 1 9 39
  13              		.cfi_startproc
  14              	.LVL0:
  15 0000 130101FF 		addi	sp,sp,-16
  16              		.cfi_def_cfa_offset 16
  17 0004 23341100 		sd	ra,8(sp)
  18 0008 23308100 		sd	s0,0(sp)
  19              		.cfi_offset 1, -8
  20              		.cfi_offset 8, -16
  21 000c 13040101 		addi	s0,sp,16
  22              		.cfi_def_cfa 8, 0
  10:src/KSem.cpp  ****     return mem_alloc(size);
  23              		.loc 1 10 5
  24              		.loc 1 10 21 is_stmt 0
  25 0010 97000000 		call	_Z9mem_allocm@plt
  25      E7800000 
  26              	.LVL1:
  11:src/KSem.cpp  **** }
  27              		.loc 1 11 1
  28 0018 83308100 		ld	ra,8(sp)
  29              		.cfi_restore 1
  30 001c 03340100 		ld	s0,0(sp)
  31              		.cfi_restore 8
  32              		.cfi_def_cfa 2, 16
  33 0020 13010101 		addi	sp,sp,16
  34              		.cfi_def_cfa_offset 0
  35 0024 67800000 		jr	ra
  36              		.cfi_endproc
  37              	.LFE41:
  39              		.align	2
  40              		.globl	_ZN4KSemdlEPv
  42              	_ZN4KSemdlEPv:
  43              	.LFB42:
  12:src/KSem.cpp  **** 
  13:src/KSem.cpp  **** void KSem::operator delete(void* ptr) {
  44              		.loc 1 13 39 is_stmt 1
  45              		.cfi_startproc
  46              	.LVL2:
GAS LISTING /tmp/ccBHHkTD.s 			page 2


  47 0028 130101FF 		addi	sp,sp,-16
  48              		.cfi_def_cfa_offset 16
  49 002c 23341100 		sd	ra,8(sp)
  50 0030 23308100 		sd	s0,0(sp)
  51              		.cfi_offset 1, -8
  52              		.cfi_offset 8, -16
  53 0034 13040101 		addi	s0,sp,16
  54              		.cfi_def_cfa 8, 0
  14:src/KSem.cpp  ****     mem_free(ptr);
  55              		.loc 1 14 5
  56              		.loc 1 14 13 is_stmt 0
  57 0038 97000000 		call	_Z8mem_freePv@plt
  57      E7800000 
  58              	.LVL3:
  15:src/KSem.cpp  **** }
  59              		.loc 1 15 1
  60 0040 83308100 		ld	ra,8(sp)
  61              		.cfi_restore 1
  62 0044 03340100 		ld	s0,0(sp)
  63              		.cfi_restore 8
  64              		.cfi_def_cfa 2, 16
  65 0048 13010101 		addi	sp,sp,16
  66              		.cfi_def_cfa_offset 0
  67 004c 67800000 		jr	ra
  68              		.cfi_endproc
  69              	.LFE42:
  71              		.align	2
  72              		.globl	_ZN4KSem7initSemEj
  74              	_ZN4KSem7initSemEj:
  75              	.LFB43:
  16:src/KSem.cpp  **** 
  17:src/KSem.cpp  **** KSem* KSem::initSem(uint val) {
  76              		.loc 1 17 31 is_stmt 1
  77              		.cfi_startproc
  78              	.LVL4:
  79 0050 130101FE 		addi	sp,sp,-32
  80              		.cfi_def_cfa_offset 32
  81 0054 233C1100 		sd	ra,24(sp)
  82 0058 23388100 		sd	s0,16(sp)
  83 005c 23349100 		sd	s1,8(sp)
  84              		.cfi_offset 1, -8
  85              		.cfi_offset 8, -16
  86              		.cfi_offset 9, -24
  87 0060 13040102 		addi	s0,sp,32
  88              		.cfi_def_cfa 8, 0
  89 0064 93040500 		mv	s1,a0
  18:src/KSem.cpp  **** 	return new KSem(val);
  90              		.loc 1 18 2
  91              		.loc 1 18 21 is_stmt 0
  92 0068 13058001 		li	a0,24
  93              	.LVL5:
  94 006c 97000000 		call	_ZN4KSemnwEm
  94      E7800000 
  95              	.LVL6:
  96              	.LBB26:
  97              	.LBB27:
  98              		.file 2 "src/../h/KSem.hpp"
GAS LISTING /tmp/ccBHHkTD.s 			page 3


   1:src/../h/KSem.hpp **** //
   2:src/../h/KSem.hpp **** // Created by os on 6/4/23.
   3:src/../h/KSem.hpp **** //
   4:src/../h/KSem.hpp **** 
   5:src/../h/KSem.hpp **** #ifndef PROJEKAT2023_KSEM_HPP
   6:src/../h/KSem.hpp **** #define PROJEKAT2023_KSEM_HPP
   7:src/../h/KSem.hpp **** 
   8:src/../h/KSem.hpp **** #include "../h/ThreadQueue.hpp"
   9:src/../h/KSem.hpp **** 
  10:src/../h/KSem.hpp **** //klasa napravljena po uzoru na semafor u skolskom jezgru
  11:src/../h/KSem.hpp **** class KSem {
  12:src/../h/KSem.hpp **** public:
  13:src/../h/KSem.hpp ****     static KSem* initSem(uint val);
  14:src/../h/KSem.hpp **** 
  15:src/../h/KSem.hpp ****     int wait();
  16:src/../h/KSem.hpp **** 
  17:src/../h/KSem.hpp ****     int signal();
  18:src/../h/KSem.hpp **** 
  19:src/../h/KSem.hpp ****     //deaktiviranje semafora i oslobadjanje svih niti koje cekaju na njemu
  20:src/../h/KSem.hpp ****     static int closeSem(sem_t handle);
  21:src/../h/KSem.hpp **** 
  22:src/../h/KSem.hpp ****     static void* operator new(size_t size);
  23:src/../h/KSem.hpp **** 
  24:src/../h/KSem.hpp ****     static void operator delete(void* ptr);
  25:src/../h/KSem.hpp **** 
  26:src/../h/KSem.hpp ****     ThreadQueue* getBlocked() { return &blocked; }
  27:src/../h/KSem.hpp **** 
  28:src/../h/KSem.hpp ****     void increaseVal(int add) { val += add; }
  29:src/../h/KSem.hpp **** 
  30:src/../h/KSem.hpp **** protected:
  31:src/../h/KSem.hpp ****     void block();
  32:src/../h/KSem.hpp **** 
  33:src/../h/KSem.hpp ****     void unblock();
  34:src/../h/KSem.hpp **** 
  35:src/../h/KSem.hpp **** private:
  36:src/../h/KSem.hpp ****     KSem(uint val) : val(val) {}
  99              		.loc 2 36 29
 100 0074 23209500 		sw	s1,0(a0)
 101              	.LVL7:
 102              	.LBB28:
 103              	.LBB29:
 104              		.file 3 "src/../h/../h/ThreadQueue.hpp"
   1:src/../h/../h/ThreadQueue.hpp **** //
   2:src/../h/../h/ThreadQueue.hpp **** // Created by os on 6/4/23.
   3:src/../h/../h/ThreadQueue.hpp **** //
   4:src/../h/../h/ThreadQueue.hpp **** 
   5:src/../h/../h/ThreadQueue.hpp **** #ifndef PROJEKAT2023_THREADQUEUE_HPP
   6:src/../h/../h/ThreadQueue.hpp **** #define PROJEKAT2023_THREADQUEUE_HPP
   7:src/../h/../h/ThreadQueue.hpp **** 
   8:src/../h/../h/ThreadQueue.hpp **** #include "../h/syscall_c.hpp"
   9:src/../h/../h/ThreadQueue.hpp **** 
  10:src/../h/../h/ThreadQueue.hpp **** class TCB;
  11:src/../h/../h/ThreadQueue.hpp **** 
  12:src/../h/../h/ThreadQueue.hpp **** class ThreadQueue {
  13:src/../h/../h/ThreadQueue.hpp **** private:
  14:src/../h/../h/ThreadQueue.hpp ****     struct Node {
  15:src/../h/../h/ThreadQueue.hpp ****         TCB* data;
GAS LISTING /tmp/ccBHHkTD.s 			page 4


  16:src/../h/../h/ThreadQueue.hpp ****         Node* next;
  17:src/../h/../h/ThreadQueue.hpp **** 
  18:src/../h/../h/ThreadQueue.hpp ****         Node(TCB* d) : data(d), next(nullptr) {}
  19:src/../h/../h/ThreadQueue.hpp **** 
  20:src/../h/../h/ThreadQueue.hpp ****         static void* operator new(size_t size) {
  21:src/../h/../h/ThreadQueue.hpp ****             return mem_alloc(size);
  22:src/../h/../h/ThreadQueue.hpp ****         }
  23:src/../h/../h/ThreadQueue.hpp **** 
  24:src/../h/../h/ThreadQueue.hpp ****         static void operator delete(void* ptr) {
  25:src/../h/../h/ThreadQueue.hpp ****             mem_free(ptr);
  26:src/../h/../h/ThreadQueue.hpp ****         }
  27:src/../h/../h/ThreadQueue.hpp ****     };
  28:src/../h/../h/ThreadQueue.hpp **** 
  29:src/../h/../h/ThreadQueue.hpp ****     Node* front;
  30:src/../h/../h/ThreadQueue.hpp ****     Node* back;
  31:src/../h/../h/ThreadQueue.hpp **** 
  32:src/../h/../h/ThreadQueue.hpp **** public:
  33:src/../h/../h/ThreadQueue.hpp ****     ThreadQueue() : front(nullptr), back(nullptr) {}
 105              		.loc 3 33 49
 106 0078 23340500 		sd	zero,8(a0)
 107 007c 23380500 		sd	zero,16(a0)
 108              	.LVL8:
 109              	.LBE29:
 110              	.LBE28:
 111              	.LBE27:
 112              	.LBE26:
  19:src/KSem.cpp  **** }
 113              		.loc 1 19 1
 114 0080 83308101 		ld	ra,24(sp)
 115              		.cfi_restore 1
 116 0084 03340101 		ld	s0,16(sp)
 117              		.cfi_restore 8
 118              		.cfi_def_cfa 2, 32
 119 0088 83348100 		ld	s1,8(sp)
 120              		.cfi_restore 9
 121 008c 13010102 		addi	sp,sp,32
 122              		.cfi_def_cfa_offset 0
 123 0090 67800000 		jr	ra
 124              		.cfi_endproc
 125              	.LFE43:
 127              		.align	2
 128              		.globl	_ZN4KSem5blockEv
 130              	_ZN4KSem5blockEv:
 131              	.LFB46:
  20:src/KSem.cpp  **** 
  21:src/KSem.cpp  **** int KSem::wait() {
  22:src/KSem.cpp  **** 	if (--val < 0) {
  23:src/KSem.cpp  **** 		block();
  24:src/KSem.cpp  **** 		return -1;
  25:src/KSem.cpp  **** 	}
  26:src/KSem.cpp  **** 	return 0;
  27:src/KSem.cpp  **** }
  28:src/KSem.cpp  **** 
  29:src/KSem.cpp  **** int KSem::signal() {
  30:src/KSem.cpp  **** 	if (val++ < 0) {
  31:src/KSem.cpp  **** 		unblock();
  32:src/KSem.cpp  **** 	}
GAS LISTING /tmp/ccBHHkTD.s 			page 5


  33:src/KSem.cpp  **** 	return 0;
  34:src/KSem.cpp  **** }
  35:src/KSem.cpp  **** 
  36:src/KSem.cpp  **** void KSem::block() {
 132              		.loc 1 36 20 is_stmt 1
 133              		.cfi_startproc
 134              	.LVL9:
 135 0094 130101FF 		addi	sp,sp,-16
 136              		.cfi_def_cfa_offset 16
 137 0098 23341100 		sd	ra,8(sp)
 138 009c 23308100 		sd	s0,0(sp)
 139              		.cfi_offset 1, -8
 140              		.cfi_offset 8, -16
 141 00a0 13040101 		addi	s0,sp,16
 142              		.cfi_def_cfa 8, 0
  37:src/KSem.cpp  ****     TCB::getRunning()->setStatus(TCB::BLOCKED);
 143              		.loc 1 37 5
 144              	.LBB30:
 145              	.LBB31:
 146              		.file 4 "src/../h/TCB.hpp"
   1:src/../h/TCB.hpp **** //
   2:src/../h/TCB.hpp **** // Created by os on 5/23/23.
   3:src/../h/TCB.hpp **** //
   4:src/../h/TCB.hpp **** 
   5:src/../h/TCB.hpp **** #ifndef PROJEKAT2023_TCB_HPP
   6:src/../h/TCB.hpp **** #define PROJEKAT2023_TCB_HPP
   7:src/../h/TCB.hpp **** 
   8:src/../h/TCB.hpp **** #include "../lib/hw.h"
   9:src/../h/TCB.hpp **** #include "../h/ThreadQueue.hpp"
  10:src/../h/TCB.hpp **** 
  11:src/../h/TCB.hpp **** int main();
  12:src/../h/TCB.hpp **** 
  13:src/../h/TCB.hpp **** class TCB {
  14:src/../h/TCB.hpp **** public:
  15:src/../h/TCB.hpp ****     friend class Scheduler;
  16:src/../h/TCB.hpp **** 
  17:src/../h/TCB.hpp ****     using Body = void (*)(void*);
  18:src/../h/TCB.hpp **** 
  19:src/../h/TCB.hpp ****     enum ThreadStatus {
  20:src/../h/TCB.hpp ****         CREATED, ACTIVE, BLOCKED, JOINING, SLEEPING, FINISHED
  21:src/../h/TCB.hpp ****     };
  22:src/../h/TCB.hpp **** 
  23:src/../h/TCB.hpp ****     static TCB* createThread(Body function, void* args, uint64* stack);
  24:src/../h/TCB.hpp **** 
  25:src/../h/TCB.hpp ****     void setStatus(ThreadStatus stat) { this->status = stat; }
  26:src/../h/TCB.hpp **** 
  27:src/../h/TCB.hpp ****     ThreadStatus getStatus() { return this->status; }
  28:src/../h/TCB.hpp **** 
  29:src/../h/TCB.hpp ****     uint64 getTimeSlice() { return timeSlice; }
  30:src/../h/TCB.hpp **** 
  31:src/../h/TCB.hpp ****     Body getBody() { return threadFunction; }
  32:src/../h/TCB.hpp **** 
  33:src/../h/TCB.hpp ****     ThreadQueue* getListOfJoiningThreads() { return &waitingToJoin; }
  34:src/../h/TCB.hpp **** 
  35:src/../h/TCB.hpp ****     void setMySemaphore(KSem* sem) { mySemaphore = sem; }
  36:src/../h/TCB.hpp **** 
  37:src/../h/TCB.hpp ****     void setJoiningWithTCB(TCB* tcb) { joiningWithTCB = tcb; }
GAS LISTING /tmp/ccBHHkTD.s 			page 6


  38:src/../h/TCB.hpp **** 
  39:src/../h/TCB.hpp ****     static TCB* getRunning() { return running; }
 147              		.loc 4 39 32
 148              		.loc 4 39 39 is_stmt 0
 149 00a4 97070000 		la	a5,_ZN3TCB7runningE
 149      83B70700 
 150 00ac 83B50700 		ld	a1,0(a5)
 151              	.LVL10:
 152              	.LBE31:
 153              	.LBE30:
 154              	.LBB32:
 155              	.LBB33:
  25:src/../h/TCB.hpp **** 
 156              		.loc 4 25 41 is_stmt 1
  25:src/../h/TCB.hpp **** 
 157              		.loc 4 25 54 is_stmt 0
 158 00b0 93072000 		li	a5,2
 159 00b4 23ACF504 		sw	a5,88(a1)
 160              	.LVL11:
 161              	.LBE33:
 162              	.LBE32:
  38:src/KSem.cpp  ****     TCB::getRunning()->setMySemaphore(this);
 163              		.loc 1 38 5 is_stmt 1
 164              		.loc 4 39 32
 165              	.LBB34:
 166              	.LBB35:
  35:src/../h/TCB.hpp **** 
 167              		.loc 4 35 38
  35:src/../h/TCB.hpp **** 
 168              		.loc 4 35 50 is_stmt 0
 169 00b8 23B0A506 		sd	a0,96(a1)
 170              	.LVL12:
 171              	.LBE35:
 172              	.LBE34:
  39:src/KSem.cpp  **** 	blocked.putLast(TCB::getRunning());
 173              		.loc 1 39 2 is_stmt 1
 174              		.loc 4 39 32
 175              		.loc 1 39 17 is_stmt 0
 176 00bc 13058500 		addi	a0,a0,8
 177              	.LVL13:
 178 00c0 97000000 		call	_ZN11ThreadQueue7putLastEP3TCB@plt
 178      E7800000 
 179              	.LVL14:
  40:src/KSem.cpp  **** 	TCB::dispatch();
 180              		.loc 1 40 2 is_stmt 1
 181              		.loc 1 40 15 is_stmt 0
 182 00c8 97000000 		call	_ZN3TCB8dispatchEv@plt
 182      E7800000 
 183              	.LVL15:
  41:src/KSem.cpp  **** }
 184              		.loc 1 41 1
 185 00d0 83308100 		ld	ra,8(sp)
 186              		.cfi_restore 1
 187 00d4 03340100 		ld	s0,0(sp)
 188              		.cfi_restore 8
 189              		.cfi_def_cfa 2, 16
 190 00d8 13010101 		addi	sp,sp,16
GAS LISTING /tmp/ccBHHkTD.s 			page 7


 191              		.cfi_def_cfa_offset 0
 192 00dc 67800000 		jr	ra
 193              		.cfi_endproc
 194              	.LFE46:
 196              		.align	2
 197              		.globl	_ZN4KSem4waitEv
 199              	_ZN4KSem4waitEv:
 200              	.LFB44:
  21:src/KSem.cpp  **** 	if (--val < 0) {
 201              		.loc 1 21 18 is_stmt 1
 202              		.cfi_startproc
 203              	.LVL16:
  22:src/KSem.cpp  **** 		block();
 204              		.loc 1 22 2
  22:src/KSem.cpp  **** 		block();
 205              		.loc 1 22 8 is_stmt 0
 206 00e0 83270500 		lw	a5,0(a0)
  22:src/KSem.cpp  **** 		block();
 207              		.loc 1 22 6
 208 00e4 9B87F7FF 		addiw	a5,a5,-1
  22:src/KSem.cpp  **** 		block();
 209              		.loc 1 22 12
 210 00e8 2320F500 		sw	a5,0(a0)
  22:src/KSem.cpp  **** 		block();
 211              		.loc 1 22 2
 212 00ec 13970702 		slli	a4,a5,32
 213 00f0 63460700 		bltz	a4,.L16
  26:src/KSem.cpp  **** }
 214              		.loc 1 26 9
 215 00f4 13050000 		li	a0,0
 216              	.LVL17:
  27:src/KSem.cpp  **** 
 217              		.loc 1 27 1
 218 00f8 67800000 		ret
 219              	.LVL18:
 220              	.L16:
  21:src/KSem.cpp  **** 	if (--val < 0) {
 221              		.loc 1 21 18
 222 00fc 130101FF 		addi	sp,sp,-16
 223              		.cfi_def_cfa_offset 16
 224 0100 23341100 		sd	ra,8(sp)
 225 0104 23308100 		sd	s0,0(sp)
 226              		.cfi_offset 1, -8
 227              		.cfi_offset 8, -16
 228 0108 13040101 		addi	s0,sp,16
 229              		.cfi_def_cfa 8, 0
  23:src/KSem.cpp  **** 		return -1;
 230              		.loc 1 23 3 is_stmt 1
  23:src/KSem.cpp  **** 		return -1;
 231              		.loc 1 23 8 is_stmt 0
 232 010c 97000000 		call	_ZN4KSem5blockEv
 232      E7800000 
 233              	.LVL19:
  24:src/KSem.cpp  **** 	}
 234              		.loc 1 24 3 is_stmt 1
  24:src/KSem.cpp  **** 	}
 235              		.loc 1 24 11 is_stmt 0
GAS LISTING /tmp/ccBHHkTD.s 			page 8


 236 0114 1305F0FF 		li	a0,-1
  27:src/KSem.cpp  **** 
 237              		.loc 1 27 1
 238 0118 83308100 		ld	ra,8(sp)
 239              		.cfi_restore 1
 240 011c 03340100 		ld	s0,0(sp)
 241              		.cfi_restore 8
 242              		.cfi_def_cfa 2, 16
 243 0120 13010101 		addi	sp,sp,16
 244              		.cfi_def_cfa_offset 0
 245 0124 67800000 		jr	ra
 246              		.cfi_endproc
 247              	.LFE44:
 249              		.align	2
 250              		.globl	_ZN4KSem7unblockEv
 252              	_ZN4KSem7unblockEv:
 253              	.LFB47:
  42:src/KSem.cpp  **** 
  43:src/KSem.cpp  **** void KSem::unblock() {
 254              		.loc 1 43 22 is_stmt 1
 255              		.cfi_startproc
 256              	.LVL20:
 257 0128 130101FF 		addi	sp,sp,-16
 258              		.cfi_def_cfa_offset 16
 259 012c 23341100 		sd	ra,8(sp)
 260 0130 23308100 		sd	s0,0(sp)
 261              		.cfi_offset 1, -8
 262              		.cfi_offset 8, -16
 263 0134 13040101 		addi	s0,sp,16
 264              		.cfi_def_cfa 8, 0
  44:src/KSem.cpp  **** 	TCB* tcb = blocked.getFirst();
 265              		.loc 1 44 2
 266              		.loc 1 44 29 is_stmt 0
 267 0138 13058500 		addi	a0,a0,8
 268              	.LVL21:
 269 013c 97000000 		call	_ZN11ThreadQueue8getFirstEv@plt
 269      E7800000 
 270              	.LVL22:
  45:src/KSem.cpp  ****     tcb->setMySemaphore(nullptr);
 271              		.loc 1 45 5 is_stmt 1
 272              	.LBB36:
 273              	.LBB37:
  35:src/../h/TCB.hpp **** 
 274              		.loc 4 35 38
  35:src/../h/TCB.hpp **** 
 275              		.loc 4 35 50 is_stmt 0
 276 0144 23300506 		sd	zero,96(a0)
 277              	.LVL23:
 278              	.LBE37:
 279              	.LBE36:
  46:src/KSem.cpp  **** 	Scheduler::put(tcb);
 280              		.loc 1 46 2 is_stmt 1
 281              		.loc 1 46 16 is_stmt 0
 282 0148 97000000 		call	_ZN9Scheduler3putEP3TCB@plt
 282      E7800000 
 283              	.LVL24:
  47:src/KSem.cpp  **** }
GAS LISTING /tmp/ccBHHkTD.s 			page 9


 284              		.loc 1 47 1
 285 0150 83308100 		ld	ra,8(sp)
 286              		.cfi_restore 1
 287 0154 03340100 		ld	s0,0(sp)
 288              		.cfi_restore 8
 289              		.cfi_def_cfa 2, 16
 290 0158 13010101 		addi	sp,sp,16
 291              		.cfi_def_cfa_offset 0
 292 015c 67800000 		jr	ra
 293              		.cfi_endproc
 294              	.LFE47:
 296              		.align	2
 297              		.globl	_ZN4KSem6signalEv
 299              	_ZN4KSem6signalEv:
 300              	.LFB45:
  29:src/KSem.cpp  **** 	if (val++ < 0) {
 301              		.loc 1 29 20 is_stmt 1
 302              		.cfi_startproc
 303              	.LVL25:
  30:src/KSem.cpp  **** 		unblock();
 304              		.loc 1 30 2
  30:src/KSem.cpp  **** 		unblock();
 305              		.loc 1 30 6 is_stmt 0
 306 0160 83270500 		lw	a5,0(a0)
  30:src/KSem.cpp  **** 		unblock();
 307              		.loc 1 30 9
 308 0164 1B871700 		addiw	a4,a5,1
 309 0168 2320E500 		sw	a4,0(a0)
  30:src/KSem.cpp  **** 		unblock();
 310              		.loc 1 30 2
 311 016c 63C60700 		bltz	a5,.L25
  33:src/KSem.cpp  **** }
 312              		.loc 1 33 2 is_stmt 1
  34:src/KSem.cpp  **** 
 313              		.loc 1 34 1 is_stmt 0
 314 0170 13050000 		li	a0,0
 315              	.LVL26:
 316 0174 67800000 		ret
 317              	.LVL27:
 318              	.L25:
  29:src/KSem.cpp  **** 	if (val++ < 0) {
 319              		.loc 1 29 20
 320 0178 130101FF 		addi	sp,sp,-16
 321              		.cfi_def_cfa_offset 16
 322 017c 23341100 		sd	ra,8(sp)
 323 0180 23308100 		sd	s0,0(sp)
 324              		.cfi_offset 1, -8
 325              		.cfi_offset 8, -16
 326 0184 13040101 		addi	s0,sp,16
 327              		.cfi_def_cfa 8, 0
  31:src/KSem.cpp  **** 	}
 328              		.loc 1 31 3 is_stmt 1
  31:src/KSem.cpp  **** 	}
 329              		.loc 1 31 10 is_stmt 0
 330 0188 97000000 		call	_ZN4KSem7unblockEv
 330      E7800000 
 331              	.LVL28:
GAS LISTING /tmp/ccBHHkTD.s 			page 10


  33:src/KSem.cpp  **** }
 332              		.loc 1 33 2 is_stmt 1
  34:src/KSem.cpp  **** 
 333              		.loc 1 34 1 is_stmt 0
 334 0190 13050000 		li	a0,0
 335 0194 83308100 		ld	ra,8(sp)
 336              		.cfi_restore 1
 337 0198 03340100 		ld	s0,0(sp)
 338              		.cfi_restore 8
 339              		.cfi_def_cfa 2, 16
 340 019c 13010101 		addi	sp,sp,16
 341              		.cfi_def_cfa_offset 0
 342 01a0 67800000 		jr	ra
 343              		.cfi_endproc
 344              	.LFE45:
 346              		.align	2
 347              		.globl	_ZN4KSem8closeSemEPS_
 349              	_ZN4KSem8closeSemEPS_:
 350              	.LFB48:
  48:src/KSem.cpp  **** 
  49:src/KSem.cpp  **** int KSem::closeSem(sem_t handle) {
 351              		.loc 1 49 34 is_stmt 1
 352              		.cfi_startproc
 353              	.LVL29:
 354 01a4 130101FE 		addi	sp,sp,-32
 355              		.cfi_def_cfa_offset 32
 356 01a8 233C1100 		sd	ra,24(sp)
 357 01ac 23388100 		sd	s0,16(sp)
 358 01b0 23349100 		sd	s1,8(sp)
 359              		.cfi_offset 1, -8
 360              		.cfi_offset 8, -16
 361              		.cfi_offset 9, -24
 362 01b4 13040102 		addi	s0,sp,32
 363              		.cfi_def_cfa 8, 0
 364 01b8 93040500 		mv	s1,a0
 365              	.LVL30:
 366              	.L28:
  50:src/KSem.cpp  **** 	while (!handle->blocked.isEmpty()) {
 367              		.loc 1 50 2
 368              		.loc 1 50 9
 369              	.LBB38:
 370              	.LBB39:
  34:src/../h/../h/ThreadQueue.hpp **** 
  35:src/../h/../h/ThreadQueue.hpp ****     ThreadQueue(const ThreadQueue &) = delete;
  36:src/../h/../h/ThreadQueue.hpp **** 
  37:src/../h/../h/ThreadQueue.hpp ****     ThreadQueue &operator=(const ThreadQueue &) = delete;
  38:src/../h/../h/ThreadQueue.hpp **** 
  39:src/../h/../h/ThreadQueue.hpp ****     ~ThreadQueue() {
  40:src/../h/../h/ThreadQueue.hpp ****         while (!isEmpty()) {
  41:src/../h/../h/ThreadQueue.hpp ****             Node* node = front;
  42:src/../h/../h/ThreadQueue.hpp ****             front = front->next;
  43:src/../h/../h/ThreadQueue.hpp ****             delete node;
  44:src/../h/../h/ThreadQueue.hpp ****         }
  45:src/../h/../h/ThreadQueue.hpp ****     }
  46:src/../h/../h/ThreadQueue.hpp **** 
  47:src/../h/../h/ThreadQueue.hpp ****     bool isEmpty() const {
  48:src/../h/../h/ThreadQueue.hpp ****         return front == nullptr;
GAS LISTING /tmp/ccBHHkTD.s 			page 11


 371              		.loc 3 48 9
 372              		.loc 3 48 16 is_stmt 0
 373 01bc 83B78400 		ld	a5,8(s1)
 374              	.LVL31:
 375              	.LBE39:
 376              	.LBE38:
 377              		.loc 1 50 9
 378 01c0 638A0700 		beqz	a5,.L27
  51:src/KSem.cpp  **** 		handle->unblock();
 379              		.loc 1 51 3 is_stmt 1
 380              		.loc 1 51 18 is_stmt 0
 381 01c4 13850400 		mv	a0,s1
 382 01c8 97000000 		call	_ZN4KSem7unblockEv
 382      E7800000 
 383              	.LVL32:
  50:src/KSem.cpp  **** 	while (!handle->blocked.isEmpty()) {
 384              		.loc 1 50 2
 385 01d0 6FF0DFFE 		j	.L28
 386              	.L27:
  52:src/KSem.cpp  **** 	}
  53:src/KSem.cpp  **** 	return 0;
 387              		.loc 1 53 2 is_stmt 1
  54:src/KSem.cpp  **** }
 388              		.loc 1 54 1 is_stmt 0
 389 01d4 13050000 		li	a0,0
 390 01d8 83308101 		ld	ra,24(sp)
 391              		.cfi_restore 1
 392 01dc 03340101 		ld	s0,16(sp)
 393              		.cfi_restore 8
 394              		.cfi_def_cfa 2, 32
 395 01e0 83348100 		ld	s1,8(sp)
 396              		.cfi_restore 9
 397              	.LVL33:
 398 01e4 13010102 		addi	sp,sp,32
 399              		.cfi_def_cfa_offset 0
 400 01e8 67800000 		jr	ra
 401              		.cfi_endproc
 402              	.LFE48:
 404              	.Letext0:
 405              		.file 5 "src/../h/../h/../h/../lib/hw.h"
 406              		.file 6 "src/../h/../h/../h/syscall_c.hpp"
 407              		.file 7 "src/../h/Scheduler.hpp"
GAS LISTING /tmp/ccBHHkTD.s 			page 12


DEFINED SYMBOLS
                            *ABS*:0000000000000000 KSem.cpp
     /tmp/ccBHHkTD.s:9      .text:0000000000000000 _ZN4KSemnwEm
     /tmp/ccBHHkTD.s:13     .text:0000000000000000 .L0 
     /tmp/ccBHHkTD.s:15     .text:0000000000000000 .L0 
     /tmp/ccBHHkTD.s:16     .text:0000000000000004 .L0 
     /tmp/ccBHHkTD.s:19     .text:000000000000000c .L0 
     /tmp/ccBHHkTD.s:20     .text:000000000000000c .L0 
     /tmp/ccBHHkTD.s:22     .text:0000000000000010 .L0 
     /tmp/ccBHHkTD.s:24     .text:0000000000000010 .L0 
     /tmp/ccBHHkTD.s:25     .text:0000000000000010 .L0 
     /tmp/ccBHHkTD.s:28     .text:0000000000000018 .L0 
     /tmp/ccBHHkTD.s:29     .text:000000000000001c .L0 
     /tmp/ccBHHkTD.s:31     .text:0000000000000020 .L0 
     /tmp/ccBHHkTD.s:32     .text:0000000000000020 .L0 
     /tmp/ccBHHkTD.s:34     .text:0000000000000024 .L0 
     /tmp/ccBHHkTD.s:36     .text:0000000000000028 .L0 
     /tmp/ccBHHkTD.s:42     .text:0000000000000028 _ZN4KSemdlEPv
     /tmp/ccBHHkTD.s:45     .text:0000000000000028 .L0 
     /tmp/ccBHHkTD.s:47     .text:0000000000000028 .L0 
     /tmp/ccBHHkTD.s:48     .text:000000000000002c .L0 
     /tmp/ccBHHkTD.s:51     .text:0000000000000034 .L0 
     /tmp/ccBHHkTD.s:52     .text:0000000000000034 .L0 
     /tmp/ccBHHkTD.s:54     .text:0000000000000038 .L0 
     /tmp/ccBHHkTD.s:56     .text:0000000000000038 .L0 
     /tmp/ccBHHkTD.s:57     .text:0000000000000038 .L0 
     /tmp/ccBHHkTD.s:60     .text:0000000000000040 .L0 
     /tmp/ccBHHkTD.s:61     .text:0000000000000044 .L0 
     /tmp/ccBHHkTD.s:63     .text:0000000000000048 .L0 
     /tmp/ccBHHkTD.s:64     .text:0000000000000048 .L0 
     /tmp/ccBHHkTD.s:66     .text:000000000000004c .L0 
     /tmp/ccBHHkTD.s:68     .text:0000000000000050 .L0 
     /tmp/ccBHHkTD.s:74     .text:0000000000000050 _ZN4KSem7initSemEj
     /tmp/ccBHHkTD.s:77     .text:0000000000000050 .L0 
     /tmp/ccBHHkTD.s:79     .text:0000000000000050 .L0 
     /tmp/ccBHHkTD.s:80     .text:0000000000000054 .L0 
     /tmp/ccBHHkTD.s:84     .text:0000000000000060 .L0 
     /tmp/ccBHHkTD.s:85     .text:0000000000000060 .L0 
     /tmp/ccBHHkTD.s:86     .text:0000000000000060 .L0 
     /tmp/ccBHHkTD.s:88     .text:0000000000000064 .L0 
     /tmp/ccBHHkTD.s:91     .text:0000000000000068 .L0 
     /tmp/ccBHHkTD.s:92     .text:0000000000000068 .L0 
     /tmp/ccBHHkTD.s:100    .text:0000000000000074 .L0 
     /tmp/ccBHHkTD.s:106    .text:0000000000000078 .L0 
     /tmp/ccBHHkTD.s:114    .text:0000000000000080 .L0 
     /tmp/ccBHHkTD.s:115    .text:0000000000000084 .L0 
     /tmp/ccBHHkTD.s:117    .text:0000000000000088 .L0 
     /tmp/ccBHHkTD.s:118    .text:0000000000000088 .L0 
     /tmp/ccBHHkTD.s:120    .text:000000000000008c .L0 
     /tmp/ccBHHkTD.s:122    .text:0000000000000090 .L0 
     /tmp/ccBHHkTD.s:124    .text:0000000000000094 .L0 
     /tmp/ccBHHkTD.s:130    .text:0000000000000094 _ZN4KSem5blockEv
     /tmp/ccBHHkTD.s:133    .text:0000000000000094 .L0 
     /tmp/ccBHHkTD.s:135    .text:0000000000000094 .L0 
     /tmp/ccBHHkTD.s:136    .text:0000000000000098 .L0 
     /tmp/ccBHHkTD.s:139    .text:00000000000000a0 .L0 
     /tmp/ccBHHkTD.s:140    .text:00000000000000a0 .L0 
GAS LISTING /tmp/ccBHHkTD.s 			page 13


     /tmp/ccBHHkTD.s:142    .text:00000000000000a4 .L0 
     /tmp/ccBHHkTD.s:147    .text:00000000000000a4 .L0 
     /tmp/ccBHHkTD.s:148    .text:00000000000000a4 .L0 
     /tmp/ccBHHkTD.s:149    .text:00000000000000a4 .L0 
     /tmp/ccBHHkTD.s:157    .text:00000000000000b0 .L0 
     /tmp/ccBHHkTD.s:158    .text:00000000000000b0 .L0 
     /tmp/ccBHHkTD.s:164    .text:00000000000000b8 .L0 
     /tmp/ccBHHkTD.s:167    .text:00000000000000b8 .L0 
     /tmp/ccBHHkTD.s:168    .text:00000000000000b8 .L0 
     /tmp/ccBHHkTD.s:169    .text:00000000000000b8 .L0 
     /tmp/ccBHHkTD.s:174    .text:00000000000000bc .L0 
     /tmp/ccBHHkTD.s:175    .text:00000000000000bc .L0 
     /tmp/ccBHHkTD.s:176    .text:00000000000000bc .L0 
     /tmp/ccBHHkTD.s:181    .text:00000000000000c8 .L0 
     /tmp/ccBHHkTD.s:182    .text:00000000000000c8 .L0 
     /tmp/ccBHHkTD.s:185    .text:00000000000000d0 .L0 
     /tmp/ccBHHkTD.s:186    .text:00000000000000d4 .L0 
     /tmp/ccBHHkTD.s:188    .text:00000000000000d8 .L0 
     /tmp/ccBHHkTD.s:189    .text:00000000000000d8 .L0 
     /tmp/ccBHHkTD.s:191    .text:00000000000000dc .L0 
     /tmp/ccBHHkTD.s:193    .text:00000000000000e0 .L0 
     /tmp/ccBHHkTD.s:199    .text:00000000000000e0 _ZN4KSem4waitEv
     /tmp/ccBHHkTD.s:202    .text:00000000000000e0 .L0 
     /tmp/ccBHHkTD.s:204    .text:00000000000000e0 .L0 
     /tmp/ccBHHkTD.s:205    .text:00000000000000e0 .L0 
     /tmp/ccBHHkTD.s:206    .text:00000000000000e0 .L0 
     /tmp/ccBHHkTD.s:208    .text:00000000000000e4 .L0 
     /tmp/ccBHHkTD.s:210    .text:00000000000000e8 .L0 
     /tmp/ccBHHkTD.s:212    .text:00000000000000ec .L0 
     /tmp/ccBHHkTD.s:215    .text:00000000000000f4 .L0 
     /tmp/ccBHHkTD.s:218    .text:00000000000000f8 .L0 
     /tmp/ccBHHkTD.s:222    .text:00000000000000fc .L0 
     /tmp/ccBHHkTD.s:223    .text:0000000000000100 .L0 
     /tmp/ccBHHkTD.s:226    .text:0000000000000108 .L0 
     /tmp/ccBHHkTD.s:227    .text:0000000000000108 .L0 
     /tmp/ccBHHkTD.s:229    .text:000000000000010c .L0 
     /tmp/ccBHHkTD.s:231    .text:000000000000010c .L0 
     /tmp/ccBHHkTD.s:232    .text:000000000000010c .L0 
     /tmp/ccBHHkTD.s:235    .text:0000000000000114 .L0 
     /tmp/ccBHHkTD.s:236    .text:0000000000000114 .L0 
     /tmp/ccBHHkTD.s:238    .text:0000000000000118 .L0 
     /tmp/ccBHHkTD.s:239    .text:000000000000011c .L0 
     /tmp/ccBHHkTD.s:241    .text:0000000000000120 .L0 
     /tmp/ccBHHkTD.s:242    .text:0000000000000120 .L0 
     /tmp/ccBHHkTD.s:244    .text:0000000000000124 .L0 
     /tmp/ccBHHkTD.s:246    .text:0000000000000128 .L0 
     /tmp/ccBHHkTD.s:252    .text:0000000000000128 _ZN4KSem7unblockEv
     /tmp/ccBHHkTD.s:255    .text:0000000000000128 .L0 
     /tmp/ccBHHkTD.s:257    .text:0000000000000128 .L0 
     /tmp/ccBHHkTD.s:258    .text:000000000000012c .L0 
     /tmp/ccBHHkTD.s:261    .text:0000000000000134 .L0 
     /tmp/ccBHHkTD.s:262    .text:0000000000000134 .L0 
     /tmp/ccBHHkTD.s:264    .text:0000000000000138 .L0 
     /tmp/ccBHHkTD.s:266    .text:0000000000000138 .L0 
     /tmp/ccBHHkTD.s:267    .text:0000000000000138 .L0 
     /tmp/ccBHHkTD.s:274    .text:0000000000000144 .L0 
     /tmp/ccBHHkTD.s:275    .text:0000000000000144 .L0 
GAS LISTING /tmp/ccBHHkTD.s 			page 14


     /tmp/ccBHHkTD.s:276    .text:0000000000000144 .L0 
     /tmp/ccBHHkTD.s:281    .text:0000000000000148 .L0 
     /tmp/ccBHHkTD.s:282    .text:0000000000000148 .L0 
     /tmp/ccBHHkTD.s:285    .text:0000000000000150 .L0 
     /tmp/ccBHHkTD.s:286    .text:0000000000000154 .L0 
     /tmp/ccBHHkTD.s:288    .text:0000000000000158 .L0 
     /tmp/ccBHHkTD.s:289    .text:0000000000000158 .L0 
     /tmp/ccBHHkTD.s:291    .text:000000000000015c .L0 
     /tmp/ccBHHkTD.s:293    .text:0000000000000160 .L0 
     /tmp/ccBHHkTD.s:299    .text:0000000000000160 _ZN4KSem6signalEv
     /tmp/ccBHHkTD.s:302    .text:0000000000000160 .L0 
     /tmp/ccBHHkTD.s:304    .text:0000000000000160 .L0 
     /tmp/ccBHHkTD.s:305    .text:0000000000000160 .L0 
     /tmp/ccBHHkTD.s:306    .text:0000000000000160 .L0 
     /tmp/ccBHHkTD.s:308    .text:0000000000000164 .L0 
     /tmp/ccBHHkTD.s:311    .text:000000000000016c .L0 
     /tmp/ccBHHkTD.s:313    .text:0000000000000170 .L0 
     /tmp/ccBHHkTD.s:314    .text:0000000000000170 .L0 
     /tmp/ccBHHkTD.s:320    .text:0000000000000178 .L0 
     /tmp/ccBHHkTD.s:321    .text:000000000000017c .L0 
     /tmp/ccBHHkTD.s:324    .text:0000000000000184 .L0 
     /tmp/ccBHHkTD.s:325    .text:0000000000000184 .L0 
     /tmp/ccBHHkTD.s:327    .text:0000000000000188 .L0 
     /tmp/ccBHHkTD.s:329    .text:0000000000000188 .L0 
     /tmp/ccBHHkTD.s:330    .text:0000000000000188 .L0 
     /tmp/ccBHHkTD.s:333    .text:0000000000000190 .L0 
     /tmp/ccBHHkTD.s:334    .text:0000000000000190 .L0 
     /tmp/ccBHHkTD.s:336    .text:0000000000000198 .L0 
     /tmp/ccBHHkTD.s:338    .text:000000000000019c .L0 
     /tmp/ccBHHkTD.s:339    .text:000000000000019c .L0 
     /tmp/ccBHHkTD.s:341    .text:00000000000001a0 .L0 
     /tmp/ccBHHkTD.s:343    .text:00000000000001a4 .L0 
     /tmp/ccBHHkTD.s:349    .text:00000000000001a4 _ZN4KSem8closeSemEPS_
     /tmp/ccBHHkTD.s:352    .text:00000000000001a4 .L0 
     /tmp/ccBHHkTD.s:354    .text:00000000000001a4 .L0 
     /tmp/ccBHHkTD.s:355    .text:00000000000001a8 .L0 
     /tmp/ccBHHkTD.s:359    .text:00000000000001b4 .L0 
     /tmp/ccBHHkTD.s:360    .text:00000000000001b4 .L0 
     /tmp/ccBHHkTD.s:361    .text:00000000000001b4 .L0 
     /tmp/ccBHHkTD.s:363    .text:00000000000001b8 .L0 
     /tmp/ccBHHkTD.s:368    .text:00000000000001bc .L0 
     /tmp/ccBHHkTD.s:371    .text:00000000000001bc .L0 
     /tmp/ccBHHkTD.s:372    .text:00000000000001bc .L0 
     /tmp/ccBHHkTD.s:373    .text:00000000000001bc .L0 
     /tmp/ccBHHkTD.s:378    .text:00000000000001c0 .L0 
     /tmp/ccBHHkTD.s:380    .text:00000000000001c4 .L0 
     /tmp/ccBHHkTD.s:381    .text:00000000000001c4 .L0 
     /tmp/ccBHHkTD.s:385    .text:00000000000001d0 .L0 
     /tmp/ccBHHkTD.s:388    .text:00000000000001d4 .L0 
     /tmp/ccBHHkTD.s:389    .text:00000000000001d4 .L0 
     /tmp/ccBHHkTD.s:391    .text:00000000000001dc .L0 
     /tmp/ccBHHkTD.s:393    .text:00000000000001e0 .L0 
     /tmp/ccBHHkTD.s:394    .text:00000000000001e0 .L0 
     /tmp/ccBHHkTD.s:396    .text:00000000000001e4 .L0 
     /tmp/ccBHHkTD.s:399    .text:00000000000001e8 .L0 
     /tmp/ccBHHkTD.s:401    .text:00000000000001ec .L0 
     /tmp/ccBHHkTD.s:408    .text:00000000000001ec .L0 
GAS LISTING /tmp/ccBHHkTD.s 			page 15


     /tmp/ccBHHkTD.s:149    .text:00000000000000a4 .L0 
     /tmp/ccBHHkTD.s:220    .text:00000000000000fc .L16
     /tmp/ccBHHkTD.s:318    .text:0000000000000178 .L25
     /tmp/ccBHHkTD.s:386    .text:00000000000001d4 .L27
     /tmp/ccBHHkTD.s:366    .text:00000000000001bc .L28
     /tmp/ccBHHkTD.s:1963   .debug_abbrev:0000000000000000 .Ldebug_abbrev0
     /tmp/ccBHHkTD.s:3573   .debug_str:000000000000082c .LASF160
     /tmp/ccBHHkTD.s:3391   .debug_str:000000000000029f .LASF161
     /tmp/ccBHHkTD.s:3397   .debug_str:00000000000002c0 .LASF162
     /tmp/ccBHHkTD.s:5      .text:0000000000000000 .Ltext0
     /tmp/ccBHHkTD.s:404    .text:00000000000001ec .Letext0
     /tmp/ccBHHkTD.s:3297   .debug_line:0000000000000000 .Ldebug_line0
     /tmp/ccBHHkTD.s:3347   .debug_str:0000000000000166 .LASF3
     /tmp/ccBHHkTD.s:3473   .debug_str:00000000000004ff .LASF0
     /tmp/ccBHHkTD.s:3495   .debug_str:00000000000005b1 .LASF1
     /tmp/ccBHHkTD.s:3451   .debug_str:0000000000000469 .LASF2
     /tmp/ccBHHkTD.s:3415   .debug_str:000000000000035c .LASF4
     /tmp/ccBHHkTD.s:3545   .debug_str:0000000000000764 .LASF5
     /tmp/ccBHHkTD.s:3325   .debug_str:00000000000000e7 .LASF6
     /tmp/ccBHHkTD.s:3367   .debug_str:00000000000001f4 .LASF7
     /tmp/ccBHHkTD.s:3501   .debug_str:00000000000005e5 .LASF8
     /tmp/ccBHHkTD.s:3471   .debug_str:00000000000004ec .LASF9
     /tmp/ccBHHkTD.s:3591   .debug_str:000000000000096f .LASF10
     /tmp/ccBHHkTD.s:3393   .debug_str:00000000000002ac .LASF11
     /tmp/ccBHHkTD.s:3515   .debug_str:000000000000064e .LASF12
     /tmp/ccBHHkTD.s:3579   .debug_str:0000000000000901 .LASF13
     /tmp/ccBHHkTD.s:3329   .debug_str:00000000000000f6 .LASF14
     /tmp/ccBHHkTD.s:3303   .debug_str:0000000000000037 .LASF15
     /tmp/ccBHHkTD.s:3343   .debug_str:0000000000000155 .LASF16
     /tmp/ccBHHkTD.s:3537   .debug_str:00000000000006fd .LASF17
     /tmp/ccBHHkTD.s:3359   .debug_str:00000000000001ba .LASF18
     /tmp/ccBHHkTD.s:3337   .debug_str:000000000000012b .LASF163
     /tmp/ccBHHkTD.s:3575   .debug_str:00000000000008f0 .LASF19
     /tmp/ccBHHkTD.s:3609   .debug_str:00000000000009e4 .LASF20
     /tmp/ccBHHkTD.s:3417   .debug_str:0000000000000363 .LASF21
     /tmp/ccBHHkTD.s:3323   .debug_str:00000000000000df .LASF22
     /tmp/ccBHHkTD.s:3311   .debug_str:0000000000000085 .LASF23
     /tmp/ccBHHkTD.s:3553   .debug_str:00000000000007a6 .LASF24
     /tmp/ccBHHkTD.s:3309   .debug_str:000000000000007d .LASF101
     /tmp/ccBHHkTD.s:3427   .debug_str:00000000000003aa .LASF25
     /tmp/ccBHHkTD.s:3613   .debug_str:00000000000009f3 .LASF27
     /tmp/ccBHHkTD.s:3529   .debug_str:00000000000006cb .LASF164
     /tmp/ccBHHkTD.s:3607   .debug_str:00000000000009da .LASF26
     /tmp/ccBHHkTD.s:3631   .debug_str:0000000000000a9e .LASF28
     /tmp/ccBHHkTD.s:3449   .debug_str:000000000000045f .LASF29
     /tmp/ccBHHkTD.s:3361   .debug_str:00000000000001d0 .LASF31
     /tmp/ccBHHkTD.s:3441   .debug_str:000000000000041e .LASF30
     /tmp/ccBHHkTD.s:3513   .debug_str:0000000000000636 .LASF32
     /tmp/ccBHHkTD.s:3465   .debug_str:00000000000004d7 .LASF33
     /tmp/ccBHHkTD.s:3429   .debug_str:00000000000003b7 .LASF34
     /tmp/ccBHHkTD.s:3435   .debug_str:00000000000003e9 .LASF35
     /tmp/ccBHHkTD.s:3523   .debug_str:000000000000067b .LASF36
     /tmp/ccBHHkTD.s:3567   .debug_str:00000000000007fd .LASF37
     /tmp/ccBHHkTD.s:3615   .debug_str:0000000000000a15 .LASF38
     /tmp/ccBHHkTD.s:3535   .debug_str:00000000000006eb .LASF39
     /tmp/ccBHHkTD.s:3421   .debug_str:0000000000000373 .LASF40
     /tmp/ccBHHkTD.s:3629   .debug_str:0000000000000a93 .LASF41
GAS LISTING /tmp/ccBHHkTD.s 			page 16


     /tmp/ccBHHkTD.s:3583   .debug_str:0000000000000915 .LASF43
     /tmp/ccBHHkTD.s:3555   .debug_str:00000000000007af .LASF45
     /tmp/ccBHHkTD.s:3485   .debug_str:0000000000000548 .LASF47
     /tmp/ccBHHkTD.s:3433   .debug_str:00000000000003d5 .LASF42
     /tmp/ccBHHkTD.s:3299   .debug_str:0000000000000000 .LASF44
     /tmp/ccBHHkTD.s:3371   .debug_str:0000000000000208 .LASF46
     /tmp/ccBHHkTD.s:3389   .debug_str:0000000000000287 .LASF48
     /tmp/ccBHHkTD.s:3531   .debug_str:00000000000006d0 .LASF49
     /tmp/ccBHHkTD.s:3593   .debug_str:000000000000097f .LASF50
     /tmp/ccBHHkTD.s:3475   .debug_str:000000000000050c .LASF51
     /tmp/ccBHHkTD.s:3381   .debug_str:0000000000000244 .LASF53
     /tmp/ccBHHkTD.s:3559   .debug_str:00000000000007cc .LASF52
     /tmp/ccBHHkTD.s:3549   .debug_str:0000000000000786 .LASF54
     /tmp/ccBHHkTD.s:3595   .debug_str:000000000000099a .LASF55
     /tmp/ccBHHkTD.s:3407   .debug_str:000000000000031f .LASF56
     /tmp/ccBHHkTD.s:3335   .debug_str:000000000000011e .LASF57
     /tmp/ccBHHkTD.s:3563   .debug_str:00000000000007dc .LASF58
     /tmp/ccBHHkTD.s:3519   .debug_str:0000000000000666 .LASF59
     /tmp/ccBHHkTD.s:3533   .debug_str:00000000000006de .LASF60
     /tmp/ccBHHkTD.s:3617   .debug_str:0000000000000a34 .LASF131
     /tmp/ccBHHkTD.s:3423   .debug_str:0000000000000392 .LASF61
     /tmp/ccBHHkTD.s:3447   .debug_str:0000000000000450 .LASF62
     /tmp/ccBHHkTD.s:3479   .debug_str:0000000000000525 .LASF63
     /tmp/ccBHHkTD.s:3481   .debug_str:000000000000052b .LASF64
     /tmp/ccBHHkTD.s:3487   .debug_str:0000000000000560 .LASF65
     /tmp/ccBHHkTD.s:3547   .debug_str:0000000000000776 .LASF66
     /tmp/ccBHHkTD.s:3411   .debug_str:000000000000034b .LASF67
     /tmp/ccBHHkTD.s:3505   .debug_str:000000000000060a .LASF68
     /tmp/ccBHHkTD.s:3379   .debug_str:0000000000000236 .LASF69
     /tmp/ccBHHkTD.s:3499   .debug_str:00000000000005de .LASF70
     /tmp/ccBHHkTD.s:3493   .debug_str:00000000000005a5 .LASF71
     /tmp/ccBHHkTD.s:3385   .debug_str:000000000000026a .LASF72
     /tmp/ccBHHkTD.s:3611   .debug_str:00000000000009eb .LASF73
     /tmp/ccBHHkTD.s:3525   .debug_str:000000000000069e .LASF74
     /tmp/ccBHHkTD.s:3605   .debug_str:00000000000009cc .LASF107
     /tmp/ccBHHkTD.s:3399   .debug_str:00000000000002de .LASF108
     /tmp/ccBHHkTD.s:3377   .debug_str:0000000000000230 .LASF75
     /tmp/ccBHHkTD.s:3599   .debug_str:00000000000009ad .LASF76
     /tmp/ccBHHkTD.s:3419   .debug_str:000000000000036b .LASF77
     /tmp/ccBHHkTD.s:3383   .debug_str:0000000000000257 .LASF78
     /tmp/ccBHHkTD.s:3627   .debug_str:0000000000000a8e .LASF79
     /tmp/ccBHHkTD.s:3319   .debug_str:00000000000000ca .LASF80
     /tmp/ccBHHkTD.s:3353   .debug_str:000000000000018f .LASF81
     /tmp/ccBHHkTD.s:3557   .debug_str:00000000000007ba .LASF82
     /tmp/ccBHHkTD.s:3601   .debug_str:00000000000009b2 .LASF83
     /tmp/ccBHHkTD.s:3317   .debug_str:00000000000000b4 .LASF84
     /tmp/ccBHHkTD.s:3623   .debug_str:0000000000000a75 .LASF85
     /tmp/ccBHHkTD.s:3333   .debug_str:0000000000000110 .LASF86
     /tmp/ccBHHkTD.s:3571   .debug_str:0000000000000821 .LASF87
     /tmp/ccBHHkTD.s:3373   .debug_str:0000000000000213 .LASF88
     /tmp/ccBHHkTD.s:3431   .debug_str:00000000000003c9 .LASF89
     /tmp/ccBHHkTD.s:3483   .debug_str:0000000000000530 .LASF90
     /tmp/ccBHHkTD.s:3375   .debug_str:000000000000022a .LASF91
     /tmp/ccBHHkTD.s:3603   .debug_str:00000000000009bb .LASF92
     /tmp/ccBHHkTD.s:3327   .debug_str:00000000000000ee .LASF93
     /tmp/ccBHHkTD.s:3619   .debug_str:0000000000000a4a .LASF94
     /tmp/ccBHHkTD.s:3369   .debug_str:00000000000001fb .LASF95
GAS LISTING /tmp/ccBHHkTD.s 			page 17


     /tmp/ccBHHkTD.s:3455   .debug_str:000000000000049c .LASF96
     /tmp/ccBHHkTD.s:3463   .debug_str:00000000000004cd .LASF97
     /tmp/ccBHHkTD.s:3425   .debug_str:000000000000039a .LASF98
     /tmp/ccBHHkTD.s:3469   .debug_str:00000000000004e4 .LASF99
     /tmp/ccBHHkTD.s:3625   .debug_str:0000000000000a82 .LASF100
     /tmp/ccBHHkTD.s:3413   .debug_str:0000000000000357 .LASF102
     /tmp/ccBHHkTD.s:3345   .debug_str:0000000000000161 .LASF103
     /tmp/ccBHHkTD.s:3321   .debug_str:00000000000000da .LASF104
     /tmp/ccBHHkTD.s:3539   .debug_str:0000000000000713 .LASF105
     /tmp/ccBHHkTD.s:3497   .debug_str:00000000000005c4 .LASF106
     /tmp/ccBHHkTD.s:3543   .debug_str:0000000000000749 .LASF109
     /tmp/ccBHHkTD.s:3395   .debug_str:00000000000002ba .LASF110
     /tmp/ccBHHkTD.s:3581   .debug_str:0000000000000910 .LASF111
     /tmp/ccBHHkTD.s:3443   .debug_str:000000000000042b .LASF112
     /tmp/ccBHHkTD.s:3305   .debug_str:0000000000000047 .LASF113
     /tmp/ccBHHkTD.s:3301   .debug_str:000000000000001f .LASF165
     /tmp/ccBHHkTD.s:3511   .debug_str:0000000000000629 .LASF114
     /tmp/ccBHHkTD.s:3437   .debug_str:0000000000000401 .LASF115
     /tmp/ccBHHkTD.s:3349   .debug_str:000000000000016b .LASF116
     /tmp/ccBHHkTD.s:3351   .debug_str:0000000000000173 .LASF117
     /tmp/ccBHHkTD.s:3561   .debug_str:00000000000007d4 .LASF118
     /tmp/ccBHHkTD.s:3491   .debug_str:0000000000000586 .LASF119
     /tmp/ccBHHkTD.s:3577   .debug_str:00000000000008f8 .LASF120
     /tmp/ccBHHkTD.s:3527   .debug_str:00000000000006af .LASF121
     /tmp/ccBHHkTD.s:3403   .debug_str:0000000000000313 .LASF122
     /tmp/ccBHHkTD.s:3307   .debug_str:000000000000005f .LASF123
     /tmp/ccBHHkTD.s:3459   .debug_str:00000000000004b3 .LASF124
     /tmp/ccBHHkTD.s:3585   .debug_str:000000000000092b .LASF148
     /tmp/ccBHHkTD.s:3313   .debug_str:000000000000008e .LASF125
     /tmp/ccBHHkTD.s:3509   .debug_str:000000000000061f .LASF126
     /tmp/ccBHHkTD.s:3365   .debug_str:00000000000001ef .LASF127
     /tmp/ccBHHkTD.s:3467   .debug_str:00000000000004df .LASF128
     /tmp/ccBHHkTD.s:3589   .debug_str:0000000000000962 .LASF129
     /tmp/ccBHHkTD.s:3503   .debug_str:00000000000005f8 .LASF130
     /tmp/ccBHHkTD.s:3341   .debug_str:000000000000013d .LASF132
     /tmp/ccBHHkTD.s:3409   .debug_str:0000000000000337 .LASF166
     /tmp/ccBHHkTD.s:3363   .debug_str:00000000000001e4 .LASF133
     /tmp/ccBHHkTD.s:3315   .debug_str:0000000000000093 .LASF134
     /tmp/ccBHHkTD.s:3461   .debug_str:00000000000004c8 .LASF135
     /tmp/ccBHHkTD.s:3565   .debug_str:00000000000007e8 .LASF136
     /tmp/ccBHHkTD.s:3507   .debug_str:0000000000000617 .LASF137
     /tmp/ccBHHkTD.s:3621   .debug_str:0000000000000a5d .LASF138
     /tmp/ccBHHkTD.s:3439   .debug_str:0000000000000416 .LASF139
     /tmp/ccBHHkTD.s:3489   .debug_str:000000000000056a .LASF140
     /tmp/ccBHHkTD.s:3597   .debug_str:00000000000009a5 .LASF141
     /tmp/ccBHHkTD.s:3541   .debug_str:0000000000000731 .LASF142
     /tmp/ccBHHkTD.s:3355   .debug_str:0000000000000196 .LASF143
     /tmp/ccBHHkTD.s:3357   .debug_str:000000000000019e .LASF144
     /tmp/ccBHHkTD.s:3445   .debug_str:0000000000000440 .LASF145
     /tmp/ccBHHkTD.s:3587   .debug_str:0000000000000941 .LASF146
     /tmp/ccBHHkTD.s:3477   .debug_str:0000000000000515 .LASF147
     /tmp/ccBHHkTD.s:3453   .debug_str:0000000000000477 .LASF149
     /tmp/ccBHHkTD.s:350    .text:00000000000001a4 .LFB48
     /tmp/ccBHHkTD.s:402    .text:00000000000001ec .LFE48
     /tmp/ccBHHkTD.s:3457   .debug_str:00000000000004ac .LASF151
     /tmp/ccBHHkTD.s:3052   .debug_loc:0000000000000000 .LLST17
     /tmp/ccBHHkTD.s:369    .text:00000000000001bc .LBB38
GAS LISTING /tmp/ccBHHkTD.s 			page 18


     /tmp/ccBHHkTD.s:376    .text:00000000000001c0 .LBE38
     /tmp/ccBHHkTD.s:3070   .debug_loc:000000000000004c .LLST18
     /tmp/ccBHHkTD.s:383    .text:00000000000001d0 .LVL32
     /tmp/ccBHHkTD.s:253    .text:0000000000000128 .LFB47
     /tmp/ccBHHkTD.s:294    .text:0000000000000160 .LFE47
     /tmp/ccBHHkTD.s:3521   .debug_str:0000000000000676 .LASF150
     /tmp/ccBHHkTD.s:3079   .debug_loc:0000000000000071 .LLST12
     /tmp/ccBHHkTD.s:3099   .debug_loc:00000000000000bf .LLST13
     /tmp/ccBHHkTD.s:272    .text:0000000000000144 .LBB36
     /tmp/ccBHHkTD.s:279    .text:0000000000000148 .LBE36
     /tmp/ccBHHkTD.s:3106   .debug_loc:00000000000000e2 .LLST14
     /tmp/ccBHHkTD.s:3114   .debug_loc:0000000000000106 .LLST15
     /tmp/ccBHHkTD.s:270    .text:0000000000000144 .LVL22
     /tmp/ccBHHkTD.s:283    .text:0000000000000150 .LVL24
     /tmp/ccBHHkTD.s:131    .text:0000000000000094 .LFB46
     /tmp/ccBHHkTD.s:194    .text:00000000000000e0 .LFE46
     /tmp/ccBHHkTD.s:3121   .debug_loc:0000000000000129 .LLST6
     /tmp/ccBHHkTD.s:144    .text:00000000000000a4 .LBB30
     /tmp/ccBHHkTD.s:153    .text:00000000000000b0 .LBE30
     /tmp/ccBHHkTD.s:154    .text:00000000000000b0 .LBB32
     /tmp/ccBHHkTD.s:162    .text:00000000000000b8 .LBE32
     /tmp/ccBHHkTD.s:3140   .debug_loc:0000000000000177 .LLST7
     /tmp/ccBHHkTD.s:3148   .debug_loc:000000000000019b .LLST8
     /tmp/ccBHHkTD.s:165    .text:00000000000000b8 .LBB34
     /tmp/ccBHHkTD.s:172    .text:00000000000000bc .LBE34
     /tmp/ccBHHkTD.s:3155   .debug_loc:00000000000001be .LLST9
     /tmp/ccBHHkTD.s:3162   .debug_loc:00000000000001e1 .LLST10
     /tmp/ccBHHkTD.s:179    .text:00000000000000c8 .LVL14
     /tmp/ccBHHkTD.s:183    .text:00000000000000d0 .LVL15
     /tmp/ccBHHkTD.s:300    .text:0000000000000160 .LFB45
     /tmp/ccBHHkTD.s:344    .text:00000000000001a4 .LFE45
     /tmp/ccBHHkTD.s:3169   .debug_loc:0000000000000204 .LLST16
     /tmp/ccBHHkTD.s:331    .text:0000000000000190 .LVL28
     /tmp/ccBHHkTD.s:200    .text:00000000000000e0 .LFB44
     /tmp/ccBHHkTD.s:247    .text:0000000000000128 .LFE44
     /tmp/ccBHHkTD.s:3194   .debug_loc:0000000000000266 .LLST11
     /tmp/ccBHHkTD.s:233    .text:0000000000000114 .LVL19
     /tmp/ccBHHkTD.s:75     .text:0000000000000050 .LFB43
     /tmp/ccBHHkTD.s:125    .text:0000000000000094 .LFE43
     /tmp/ccBHHkTD.s:3219   .debug_loc:00000000000002c8 .LLST2
     /tmp/ccBHHkTD.s:96     .text:0000000000000074 .LBB26
     /tmp/ccBHHkTD.s:112    .text:0000000000000080 .LBE26
     /tmp/ccBHHkTD.s:3233   .debug_loc:0000000000000301 .LLST3
     /tmp/ccBHHkTD.s:3240   .debug_loc:0000000000000324 .LLST4
     /tmp/ccBHHkTD.s:102    .text:0000000000000078 .LBB28
     /tmp/ccBHHkTD.s:110    .text:0000000000000080 .LBE28
     /tmp/ccBHHkTD.s:3247   .debug_loc:0000000000000347 .LLST5
     /tmp/ccBHHkTD.s:95     .text:0000000000000074 .LVL6
     /tmp/ccBHHkTD.s:43     .text:0000000000000028 .LFB42
     /tmp/ccBHHkTD.s:69     .text:0000000000000050 .LFE42
     /tmp/ccBHHkTD.s:3256   .debug_loc:000000000000036c .LLST1
     /tmp/ccBHHkTD.s:58     .text:0000000000000040 .LVL3
     /tmp/ccBHHkTD.s:10     .text:0000000000000000 .LFB41
     /tmp/ccBHHkTD.s:37     .text:0000000000000028 .LFE41
     /tmp/ccBHHkTD.s:3405   .debug_str:000000000000031a .LASF152
     /tmp/ccBHHkTD.s:3270   .debug_loc:00000000000003a5 .LLST0
     /tmp/ccBHHkTD.s:26     .text:0000000000000018 .LVL1
GAS LISTING /tmp/ccBHHkTD.s 			page 19


     /tmp/ccBHHkTD.s:3339   .debug_str:0000000000000138 .LASF153
     /tmp/ccBHHkTD.s:3401   .debug_str:0000000000000306 .LASF154
     /tmp/ccBHHkTD.s:3569   .debug_str:000000000000080c .LASF155
     /tmp/ccBHHkTD.s:3387   .debug_str:0000000000000279 .LASF156
     /tmp/ccBHHkTD.s:3517   .debug_str:000000000000065d .LASF158
     /tmp/ccBHHkTD.s:3551   .debug_str:0000000000000798 .LASF157
     /tmp/ccBHHkTD.s:3331   .debug_str:0000000000000106 .LASF159
     /tmp/ccBHHkTD.s:353    .text:00000000000001a4 .LVL29
     /tmp/ccBHHkTD.s:365    .text:00000000000001bc .LVL30
     /tmp/ccBHHkTD.s:397    .text:00000000000001e4 .LVL33
     /tmp/ccBHHkTD.s:374    .text:00000000000001c0 .LVL31
     /tmp/ccBHHkTD.s:256    .text:0000000000000128 .LVL20
     /tmp/ccBHHkTD.s:268    .text:000000000000013c .LVL21
     /tmp/ccBHHkTD.s:277    .text:0000000000000148 .LVL23
     /tmp/ccBHHkTD.s:134    .text:0000000000000094 .LVL9
     /tmp/ccBHHkTD.s:177    .text:00000000000000c0 .LVL13
     /tmp/ccBHHkTD.s:151    .text:00000000000000b0 .LVL10
     /tmp/ccBHHkTD.s:160    .text:00000000000000b8 .LVL11
     /tmp/ccBHHkTD.s:170    .text:00000000000000bc .LVL12
     /tmp/ccBHHkTD.s:303    .text:0000000000000160 .LVL25
     /tmp/ccBHHkTD.s:315    .text:0000000000000174 .LVL26
     /tmp/ccBHHkTD.s:317    .text:0000000000000178 .LVL27
     /tmp/ccBHHkTD.s:203    .text:00000000000000e0 .LVL16
     /tmp/ccBHHkTD.s:216    .text:00000000000000f8 .LVL17
     /tmp/ccBHHkTD.s:219    .text:00000000000000fc .LVL18
     /tmp/ccBHHkTD.s:78     .text:0000000000000050 .LVL4
     /tmp/ccBHHkTD.s:93     .text:000000000000006c .LVL5
     /tmp/ccBHHkTD.s:108    .text:0000000000000080 .LVL8
     /tmp/ccBHHkTD.s:101    .text:0000000000000078 .LVL7
     /tmp/ccBHHkTD.s:46     .text:0000000000000028 .LVL2
     /tmp/ccBHHkTD.s:14     .text:0000000000000000 .LVL0
     /tmp/ccBHHkTD.s:409    .debug_info:0000000000000000 .Ldebug_info0

UNDEFINED SYMBOLS
_Z9mem_allocm
_Z8mem_freePv
_ZN3TCB7runningE
_ZN11ThreadQueue7putLastEP3TCB
_ZN3TCB8dispatchEv
_ZN11ThreadQueue8getFirstEv
_ZN9Scheduler3putEP3TCB
