GAS LISTING /tmp/ccSjKndB.s 			page 1


   1              		.file	"KSem.cpp"
   2              		.option pic
   3              		.option norelax
   4              		.text
   5              	.Ltext0:
   6              		.align	2
   7              		.globl	_ZN4KSemnwEm
   9              	_ZN4KSemnwEm:
  10              	.LFB35:
  11              		.file 1 "src/KSem.cpp"
   1:src/KSem.cpp  **** //
   2:src/KSem.cpp  **** // Created by os on 6/4/23.
   3:src/KSem.cpp  **** //
   4:src/KSem.cpp  **** 
   5:src/KSem.cpp  **** #include "../h/KSem.hpp"
   6:src/KSem.cpp  **** #include "../h/TCB.hpp"
   7:src/KSem.cpp  **** #include "../h/Scheduler.hpp"
   8:src/KSem.cpp  **** 
   9:src/KSem.cpp  **** void* KSem::operator new(size_t size) {
  12              		.loc 1 9 39
  13              		.cfi_startproc
  14              	.LVL0:
  15 0000 130101FF 		addi	sp,sp,-16
  16              		.cfi_def_cfa_offset 16
  17 0004 23341100 		sd	ra,8(sp)
  18 0008 23308100 		sd	s0,0(sp)
  19              		.cfi_offset 1, -8
  20              		.cfi_offset 8, -16
  21 000c 13040101 		addi	s0,sp,16
  22              		.cfi_def_cfa 8, 0
  10:src/KSem.cpp  ****     return mem_alloc(size);
  23              		.loc 1 10 5
  24              		.loc 1 10 21 is_stmt 0
  25 0010 97000000 		call	_Z9mem_allocm@plt
  25      E7800000 
  26              	.LVL1:
  11:src/KSem.cpp  **** 	//return MemoryAllocator::kmalloc(size + sizeof(MemoryAllocator::UsedMemSegment), MemoryAllocator:
  12:src/KSem.cpp  **** }
  27              		.loc 1 12 1
  28 0018 83308100 		ld	ra,8(sp)
  29              		.cfi_restore 1
  30 001c 03340100 		ld	s0,0(sp)
  31              		.cfi_restore 8
  32              		.cfi_def_cfa 2, 16
  33 0020 13010101 		addi	sp,sp,16
  34              		.cfi_def_cfa_offset 0
  35 0024 67800000 		jr	ra
  36              		.cfi_endproc
  37              	.LFE35:
  39              		.align	2
  40              		.globl	_ZN4KSemdlEPv
  42              	_ZN4KSemdlEPv:
  43              	.LFB36:
  13:src/KSem.cpp  **** 
  14:src/KSem.cpp  **** void KSem::operator delete(void* ptr) {
  44              		.loc 1 14 39 is_stmt 1
  45              		.cfi_startproc
GAS LISTING /tmp/ccSjKndB.s 			page 2


  46              	.LVL2:
  47 0028 130101FF 		addi	sp,sp,-16
  48              		.cfi_def_cfa_offset 16
  49 002c 23341100 		sd	ra,8(sp)
  50 0030 23308100 		sd	s0,0(sp)
  51              		.cfi_offset 1, -8
  52              		.cfi_offset 8, -16
  53 0034 13040101 		addi	s0,sp,16
  54              		.cfi_def_cfa 8, 0
  15:src/KSem.cpp  ****     mem_free(ptr);
  55              		.loc 1 15 5
  56              		.loc 1 15 13 is_stmt 0
  57 0038 97000000 		call	_Z8mem_freePv@plt
  57      E7800000 
  58              	.LVL3:
  16:src/KSem.cpp  **** 	//MemoryAllocator::kfree(ptr);
  17:src/KSem.cpp  **** }
  59              		.loc 1 17 1
  60 0040 83308100 		ld	ra,8(sp)
  61              		.cfi_restore 1
  62 0044 03340100 		ld	s0,0(sp)
  63              		.cfi_restore 8
  64              		.cfi_def_cfa 2, 16
  65 0048 13010101 		addi	sp,sp,16
  66              		.cfi_def_cfa_offset 0
  67 004c 67800000 		jr	ra
  68              		.cfi_endproc
  69              	.LFE36:
  71              		.align	2
  72              		.globl	_ZN4KSem7initSemEj
  74              	_ZN4KSem7initSemEj:
  75              	.LFB37:
  18:src/KSem.cpp  **** 
  19:src/KSem.cpp  **** KSem* KSem::initSem(uint val) {
  76              		.loc 1 19 31 is_stmt 1
  77              		.cfi_startproc
  78              	.LVL4:
  79 0050 130101FE 		addi	sp,sp,-32
  80              		.cfi_def_cfa_offset 32
  81 0054 233C1100 		sd	ra,24(sp)
  82 0058 23388100 		sd	s0,16(sp)
  83 005c 23349100 		sd	s1,8(sp)
  84              		.cfi_offset 1, -8
  85              		.cfi_offset 8, -16
  86              		.cfi_offset 9, -24
  87 0060 13040102 		addi	s0,sp,32
  88              		.cfi_def_cfa 8, 0
  89 0064 93040500 		mv	s1,a0
  20:src/KSem.cpp  **** 	return new KSem(val);
  90              		.loc 1 20 2
  91              		.loc 1 20 21 is_stmt 0
  92 0068 13050002 		li	a0,32
  93              	.LVL5:
  94 006c 97000000 		call	_ZN4KSemnwEm
  94      E7800000 
  95              	.LVL6:
  96              	.LBB25:
GAS LISTING /tmp/ccSjKndB.s 			page 3


  97              	.LBB26:
  98              		.file 2 "src/../h/KSem.hpp"
   1:src/../h/KSem.hpp **** //
   2:src/../h/KSem.hpp **** // Created by os on 6/4/23.
   3:src/../h/KSem.hpp **** //
   4:src/../h/KSem.hpp **** 
   5:src/../h/KSem.hpp **** #ifndef PROJEKAT2023_KSEM_HPP
   6:src/../h/KSem.hpp **** #define PROJEKAT2023_KSEM_HPP
   7:src/../h/KSem.hpp **** 
   8:src/../h/KSem.hpp **** #include "../h/ThreadQueue.hpp"
   9:src/../h/KSem.hpp **** 
  10:src/../h/KSem.hpp **** 
  11:src/../h/KSem.hpp **** class KSem {
  12:src/../h/KSem.hpp **** public:
  13:src/../h/KSem.hpp **** 	static KSem* initSem(uint val);
  14:src/../h/KSem.hpp **** 
  15:src/../h/KSem.hpp **** 	int wait();
  16:src/../h/KSem.hpp **** 
  17:src/../h/KSem.hpp **** 	int signal();
  18:src/../h/KSem.hpp **** 
  19:src/../h/KSem.hpp **** 	static int closeSem(sem_t handle);
  20:src/../h/KSem.hpp **** 
  21:src/../h/KSem.hpp **** 	static void* operator new(size_t size);
  22:src/../h/KSem.hpp **** 
  23:src/../h/KSem.hpp **** 	static void operator delete(void* ptr);
  24:src/../h/KSem.hpp **** 
  25:src/../h/KSem.hpp **** protected:
  26:src/../h/KSem.hpp **** 	void block();
  27:src/../h/KSem.hpp **** 
  28:src/../h/KSem.hpp **** 	void unblock();
  29:src/../h/KSem.hpp **** 
  30:src/../h/KSem.hpp **** private:
  31:src/../h/KSem.hpp **** 	KSem(uint val) : val(val), working(true) {}
  99              		.loc 2 31 41
 100 0074 23209500 		sw	s1,0(a0)
 101              	.LVL7:
 102              	.LBB27:
 103              	.LBB28:
 104              		.file 3 "src/../h/../h/ThreadQueue.hpp"
   1:src/../h/../h/ThreadQueue.hpp **** //
   2:src/../h/../h/ThreadQueue.hpp **** // Created by os on 6/4/23.
   3:src/../h/../h/ThreadQueue.hpp **** //
   4:src/../h/../h/ThreadQueue.hpp **** 
   5:src/../h/../h/ThreadQueue.hpp **** #ifndef PROJEKAT2023_THREADQUEUE_HPP
   6:src/../h/../h/ThreadQueue.hpp **** #define PROJEKAT2023_THREADQUEUE_HPP
   7:src/../h/../h/ThreadQueue.hpp **** 
   8:src/../h/../h/ThreadQueue.hpp **** #include "../visak/MemoryAllocator.hpp"
   9:src/../h/../h/ThreadQueue.hpp **** #include "../h/syscall_c.hpp"
  10:src/../h/../h/ThreadQueue.hpp **** 
  11:src/../h/../h/ThreadQueue.hpp **** class TCB;
  12:src/../h/../h/ThreadQueue.hpp **** 
  13:src/../h/../h/ThreadQueue.hpp **** class ThreadQueue {
  14:src/../h/../h/ThreadQueue.hpp **** private:
  15:src/../h/../h/ThreadQueue.hpp ****     struct Node {
  16:src/../h/../h/ThreadQueue.hpp ****         TCB *data;
  17:src/../h/../h/ThreadQueue.hpp ****         Node *next;
  18:src/../h/../h/ThreadQueue.hpp **** 
GAS LISTING /tmp/ccSjKndB.s 			page 4


  19:src/../h/../h/ThreadQueue.hpp ****         Node(TCB *d) : data(d), next(nullptr) {}
  20:src/../h/../h/ThreadQueue.hpp **** 
  21:src/../h/../h/ThreadQueue.hpp ****         static void *operator new(size_t size) {
  22:src/../h/../h/ThreadQueue.hpp ****             return mem_alloc(size);
  23:src/../h/../h/ThreadQueue.hpp ****         }
  24:src/../h/../h/ThreadQueue.hpp **** 
  25:src/../h/../h/ThreadQueue.hpp ****         static void operator delete(void *ptr) {
  26:src/../h/../h/ThreadQueue.hpp ****             mem_free(ptr);
  27:src/../h/../h/ThreadQueue.hpp ****         }
  28:src/../h/../h/ThreadQueue.hpp ****     };
  29:src/../h/../h/ThreadQueue.hpp **** 
  30:src/../h/../h/ThreadQueue.hpp ****     Node *front;
  31:src/../h/../h/ThreadQueue.hpp ****     Node *back;
  32:src/../h/../h/ThreadQueue.hpp **** 
  33:src/../h/../h/ThreadQueue.hpp **** public:
  34:src/../h/../h/ThreadQueue.hpp ****     ThreadQueue() : front(nullptr), back(nullptr) {}
 105              		.loc 3 34 49
 106 0078 23340500 		sd	zero,8(a0)
 107 007c 23380500 		sd	zero,16(a0)
 108              	.LVL8:
 109              	.LBE28:
 110              	.LBE27:
 111              		.loc 2 31 41
 112 0080 13071000 		li	a4,1
 113 0084 230CE500 		sb	a4,24(a0)
 114              	.LVL9:
 115              	.LBE26:
 116              	.LBE25:
  21:src/KSem.cpp  **** }
 117              		.loc 1 21 1
 118 0088 83308101 		ld	ra,24(sp)
 119              		.cfi_restore 1
 120 008c 03340101 		ld	s0,16(sp)
 121              		.cfi_restore 8
 122              		.cfi_def_cfa 2, 32
 123 0090 83348100 		ld	s1,8(sp)
 124              		.cfi_restore 9
 125 0094 13010102 		addi	sp,sp,32
 126              		.cfi_def_cfa_offset 0
 127 0098 67800000 		jr	ra
 128              		.cfi_endproc
 129              	.LFE37:
 131              		.align	2
 132              		.globl	_ZN4KSem5blockEv
 134              	_ZN4KSem5blockEv:
 135              	.LFB40:
  22:src/KSem.cpp  **** 
  23:src/KSem.cpp  **** int KSem::wait() {
  24:src/KSem.cpp  **** 	//if (!MemoryAllocator::checkPurpose(this, MemoryAllocator::SEMAPHORE)) return -2;
  25:src/KSem.cpp  **** 	if (!working) return -3;
  26:src/KSem.cpp  **** 	if (--val < 0) {
  27:src/KSem.cpp  **** 		block();
  28:src/KSem.cpp  **** 		return -1;
  29:src/KSem.cpp  **** 	}
  30:src/KSem.cpp  **** 	return 0;
  31:src/KSem.cpp  **** }
  32:src/KSem.cpp  **** 
GAS LISTING /tmp/ccSjKndB.s 			page 5


  33:src/KSem.cpp  **** int KSem::signal() {
  34:src/KSem.cpp  **** 	//if (!MemoryAllocator::checkPurpose(this, MemoryAllocator::SEMAPHORE)) return -2;
  35:src/KSem.cpp  **** 	if (!working) return -3;
  36:src/KSem.cpp  **** 	if (val++ < 0) {
  37:src/KSem.cpp  **** 		unblock();
  38:src/KSem.cpp  **** 	}
  39:src/KSem.cpp  **** 	return 0;
  40:src/KSem.cpp  **** }
  41:src/KSem.cpp  **** 
  42:src/KSem.cpp  **** void KSem::block() {
 136              		.loc 1 42 20 is_stmt 1
 137              		.cfi_startproc
 138              	.LVL10:
 139 009c 130101FF 		addi	sp,sp,-16
 140              		.cfi_def_cfa_offset 16
 141 00a0 23341100 		sd	ra,8(sp)
 142 00a4 23308100 		sd	s0,0(sp)
 143              		.cfi_offset 1, -8
 144              		.cfi_offset 8, -16
 145 00a8 13040101 		addi	s0,sp,16
 146              		.cfi_def_cfa 8, 0
  43:src/KSem.cpp  **** 	//TCB::running->setBlocked(true);
  44:src/KSem.cpp  ****     TCB::getRunning()->setStatus(TCB::BLOCKED);
 147              		.loc 1 44 5
 148              	.LBB29:
 149              	.LBB30:
 150              		.file 4 "src/../h/TCB.hpp"
   1:src/../h/TCB.hpp **** //
   2:src/../h/TCB.hpp **** // Created by os on 5/23/23.
   3:src/../h/TCB.hpp **** //
   4:src/../h/TCB.hpp **** 
   5:src/../h/TCB.hpp **** #ifndef PROJEKAT2023_TCB_HPP
   6:src/../h/TCB.hpp **** #define PROJEKAT2023_TCB_HPP
   7:src/../h/TCB.hpp **** 
   8:src/../h/TCB.hpp **** #include "../lib/hw.h"
   9:src/../h/TCB.hpp **** #include "../h/ThreadQueue.hpp"
  10:src/../h/TCB.hpp **** 
  11:src/../h/TCB.hpp **** class TCB {
  12:src/../h/TCB.hpp **** public:
  13:src/../h/TCB.hpp ****     friend class Scheduler;
  14:src/../h/TCB.hpp **** 
  15:src/../h/TCB.hpp ****     using Body = void (*)(void*);
  16:src/../h/TCB.hpp **** 
  17:src/../h/TCB.hpp ****     enum ThreadStatus {
  18:src/../h/TCB.hpp ****         CREATED, ACTIVE, BLOCKED, JOINING, SLEEPING, FINISHED
  19:src/../h/TCB.hpp ****     };
  20:src/../h/TCB.hpp **** 
  21:src/../h/TCB.hpp ****     void setStatus(ThreadStatus stat) { this->status = stat; }
  22:src/../h/TCB.hpp **** 
  23:src/../h/TCB.hpp ****     ThreadStatus getStatus() { return this->status; }
  24:src/../h/TCB.hpp **** 
  25:src/../h/TCB.hpp ****     static TCB* createThread(Body function, void* args, uint64* stack);
  26:src/../h/TCB.hpp **** 
  27:src/../h/TCB.hpp ****     static void start(TCB* newTcb);
  28:src/../h/TCB.hpp **** 
  29:src/../h/TCB.hpp ****     uint64 getTimeSlice() { return timeSlice; }
  30:src/../h/TCB.hpp **** 
GAS LISTING /tmp/ccSjKndB.s 			page 6


  31:src/../h/TCB.hpp ****     void setTimeSlice(uint64 value) { timeSlice = value; }
  32:src/../h/TCB.hpp **** 
  33:src/../h/TCB.hpp ****     Body getBody() { return threadFunction; }
  34:src/../h/TCB.hpp **** 
  35:src/../h/TCB.hpp ****     //static void threadSleep(time_t sleepTime);
  36:src/../h/TCB.hpp **** 
  37:src/../h/TCB.hpp ****     static TCB* getRunning() { return running; }
 151              		.loc 4 37 32
 152              		.loc 4 37 39 is_stmt 0
 153 00ac 97070000 		la	a5,_ZN3TCB7runningE
 153      83B70700 
 154 00b4 83B50700 		ld	a1,0(a5)
 155              	.LVL11:
 156              	.LBE30:
 157              	.LBE29:
 158              	.LBB31:
 159              	.LBB32:
  21:src/../h/TCB.hpp **** 
 160              		.loc 4 21 41 is_stmt 1
  21:src/../h/TCB.hpp **** 
 161              		.loc 4 21 54 is_stmt 0
 162 00b8 93072000 		li	a5,2
 163 00bc 23ACF504 		sw	a5,88(a1)
 164              	.LVL12:
 165              	.LBE32:
 166              	.LBE31:
  45:src/KSem.cpp  **** 	blocked.putLast(TCB::getRunning());
 167              		.loc 1 45 2 is_stmt 1
 168              		.loc 4 37 32
 169              		.loc 1 45 17 is_stmt 0
 170 00c0 13058500 		addi	a0,a0,8
 171              	.LVL13:
 172 00c4 97000000 		call	_ZN11ThreadQueue7putLastEP3TCB@plt
 172      E7800000 
 173              	.LVL14:
  46:src/KSem.cpp  **** 	TCB::dispatch();
 174              		.loc 1 46 2 is_stmt 1
 175              		.loc 1 46 15 is_stmt 0
 176 00cc 97000000 		call	_ZN3TCB8dispatchEv@plt
 176      E7800000 
 177              	.LVL15:
  47:src/KSem.cpp  **** }
 178              		.loc 1 47 1
 179 00d4 83308100 		ld	ra,8(sp)
 180              		.cfi_restore 1
 181 00d8 03340100 		ld	s0,0(sp)
 182              		.cfi_restore 8
 183              		.cfi_def_cfa 2, 16
 184 00dc 13010101 		addi	sp,sp,16
 185              		.cfi_def_cfa_offset 0
 186 00e0 67800000 		jr	ra
 187              		.cfi_endproc
 188              	.LFE40:
 190              		.align	2
 191              		.globl	_ZN4KSem4waitEv
 193              	_ZN4KSem4waitEv:
 194              	.LFB38:
GAS LISTING /tmp/ccSjKndB.s 			page 7


  23:src/KSem.cpp  **** 	//if (!MemoryAllocator::checkPurpose(this, MemoryAllocator::SEMAPHORE)) return -2;
 195              		.loc 1 23 18 is_stmt 1
 196              		.cfi_startproc
 197              	.LVL16:
  25:src/KSem.cpp  **** 	if (--val < 0) {
 198              		.loc 1 25 2
  25:src/KSem.cpp  **** 	if (--val < 0) {
 199              		.loc 1 25 7 is_stmt 0
 200 00e4 83478501 		lbu	a5,24(a0)
  25:src/KSem.cpp  **** 	if (--val < 0) {
 201              		.loc 1 25 2
 202 00e8 63860704 		beqz	a5,.L11
  26:src/KSem.cpp  **** 		block();
 203              		.loc 1 26 2 is_stmt 1
  26:src/KSem.cpp  **** 		block();
 204              		.loc 1 26 8 is_stmt 0
 205 00ec 83270500 		lw	a5,0(a0)
  26:src/KSem.cpp  **** 		block();
 206              		.loc 1 26 6
 207 00f0 9B87F7FF 		addiw	a5,a5,-1
  26:src/KSem.cpp  **** 		block();
 208              		.loc 1 26 12
 209 00f4 2320F500 		sw	a5,0(a0)
  26:src/KSem.cpp  **** 		block();
 210              		.loc 1 26 2
 211 00f8 13970702 		slli	a4,a5,32
 212 00fc 63460700 		bltz	a4,.L17
  30:src/KSem.cpp  **** }
 213              		.loc 1 30 9
 214 0100 13050000 		li	a0,0
 215              	.LVL17:
  31:src/KSem.cpp  **** 
 216              		.loc 1 31 1
 217 0104 67800000 		ret
 218              	.LVL18:
 219              	.L17:
  23:src/KSem.cpp  **** 	//if (!MemoryAllocator::checkPurpose(this, MemoryAllocator::SEMAPHORE)) return -2;
 220              		.loc 1 23 18
 221 0108 130101FF 		addi	sp,sp,-16
 222              		.cfi_def_cfa_offset 16
 223 010c 23341100 		sd	ra,8(sp)
 224 0110 23308100 		sd	s0,0(sp)
 225              		.cfi_offset 1, -8
 226              		.cfi_offset 8, -16
 227 0114 13040101 		addi	s0,sp,16
 228              		.cfi_def_cfa 8, 0
  27:src/KSem.cpp  **** 		return -1;
 229              		.loc 1 27 3 is_stmt 1
  27:src/KSem.cpp  **** 		return -1;
 230              		.loc 1 27 8 is_stmt 0
 231 0118 97000000 		call	_ZN4KSem5blockEv
 231      E7800000 
 232              	.LVL19:
  28:src/KSem.cpp  **** 	}
 233              		.loc 1 28 3 is_stmt 1
  28:src/KSem.cpp  **** 	}
 234              		.loc 1 28 11 is_stmt 0
GAS LISTING /tmp/ccSjKndB.s 			page 8


 235 0120 1305F0FF 		li	a0,-1
  31:src/KSem.cpp  **** 
 236              		.loc 1 31 1
 237 0124 83308100 		ld	ra,8(sp)
 238              		.cfi_restore 1
 239 0128 03340100 		ld	s0,0(sp)
 240              		.cfi_restore 8
 241              		.cfi_def_cfa 2, 16
 242 012c 13010101 		addi	sp,sp,16
 243              		.cfi_def_cfa_offset 0
 244 0130 67800000 		jr	ra
 245              	.LVL20:
 246              	.L11:
  25:src/KSem.cpp  **** 	if (--val < 0) {
 247              		.loc 1 25 24
 248 0134 1305D0FF 		li	a0,-3
 249              	.LVL21:
 250 0138 67800000 		ret
 251              		.cfi_endproc
 252              	.LFE38:
 254              		.align	2
 255              		.globl	_ZN4KSem7unblockEv
 257              	_ZN4KSem7unblockEv:
 258              	.LFB41:
  48:src/KSem.cpp  **** 
  49:src/KSem.cpp  **** void KSem::unblock() {
 259              		.loc 1 49 22 is_stmt 1
 260              		.cfi_startproc
 261              	.LVL22:
 262 013c 130101FF 		addi	sp,sp,-16
 263              		.cfi_def_cfa_offset 16
 264 0140 23341100 		sd	ra,8(sp)
 265 0144 23308100 		sd	s0,0(sp)
 266              		.cfi_offset 1, -8
 267              		.cfi_offset 8, -16
 268 0148 13040101 		addi	s0,sp,16
 269              		.cfi_def_cfa 8, 0
  50:src/KSem.cpp  **** 	TCB* tcb = blocked.getFirst();
 270              		.loc 1 50 2
 271              		.loc 1 50 29 is_stmt 0
 272 014c 13058500 		addi	a0,a0,8
 273              	.LVL23:
 274 0150 97000000 		call	_ZN11ThreadQueue8getFirstEv@plt
 274      E7800000 
 275              	.LVL24:
  51:src/KSem.cpp  **** 	//tcb->setBlocked(false);
  52:src/KSem.cpp  ****     tcb->setStatus(TCB::ACTIVE);
 276              		.loc 1 52 5 is_stmt 1
 277              	.LBB33:
 278              	.LBB34:
  21:src/../h/TCB.hpp **** 
 279              		.loc 4 21 41
  21:src/../h/TCB.hpp **** 
 280              		.loc 4 21 54 is_stmt 0
 281 0158 93071000 		li	a5,1
 282 015c 232CF504 		sw	a5,88(a0)
 283              	.LVL25:
GAS LISTING /tmp/ccSjKndB.s 			page 9


 284              	.LBE34:
 285              	.LBE33:
  53:src/KSem.cpp  **** 	Scheduler::put(tcb);
 286              		.loc 1 53 2 is_stmt 1
 287              		.loc 1 53 16 is_stmt 0
 288 0160 97000000 		call	_ZN9Scheduler3putEP3TCB@plt
 288      E7800000 
 289              	.LVL26:
  54:src/KSem.cpp  **** }
 290              		.loc 1 54 1
 291 0168 83308100 		ld	ra,8(sp)
 292              		.cfi_restore 1
 293 016c 03340100 		ld	s0,0(sp)
 294              		.cfi_restore 8
 295              		.cfi_def_cfa 2, 16
 296 0170 13010101 		addi	sp,sp,16
 297              		.cfi_def_cfa_offset 0
 298 0174 67800000 		jr	ra
 299              		.cfi_endproc
 300              	.LFE41:
 302              		.align	2
 303              		.globl	_ZN4KSem6signalEv
 305              	_ZN4KSem6signalEv:
 306              	.LFB39:
  33:src/KSem.cpp  **** 	//if (!MemoryAllocator::checkPurpose(this, MemoryAllocator::SEMAPHORE)) return -2;
 307              		.loc 1 33 20 is_stmt 1
 308              		.cfi_startproc
 309              	.LVL27:
  35:src/KSem.cpp  **** 	if (val++ < 0) {
 310              		.loc 1 35 2
  35:src/KSem.cpp  **** 	if (val++ < 0) {
 311              		.loc 1 35 7 is_stmt 0
 312 0178 83478501 		lbu	a5,24(a0)
  35:src/KSem.cpp  **** 	if (val++ < 0) {
 313              		.loc 1 35 2
 314 017c 63840704 		beqz	a5,.L22
  36:src/KSem.cpp  **** 		unblock();
 315              		.loc 1 36 2 is_stmt 1
  36:src/KSem.cpp  **** 		unblock();
 316              		.loc 1 36 6 is_stmt 0
 317 0180 83270500 		lw	a5,0(a0)
  36:src/KSem.cpp  **** 		unblock();
 318              		.loc 1 36 9
 319 0184 1B871700 		addiw	a4,a5,1
 320 0188 2320E500 		sw	a4,0(a0)
  36:src/KSem.cpp  **** 		unblock();
 321              		.loc 1 36 2
 322 018c 63C60700 		bltz	a5,.L28
  39:src/KSem.cpp  **** }
 323              		.loc 1 39 9
 324 0190 13050000 		li	a0,0
 325              	.LVL28:
  40:src/KSem.cpp  **** 
 326              		.loc 1 40 1
 327 0194 67800000 		ret
 328              	.LVL29:
 329              	.L28:
GAS LISTING /tmp/ccSjKndB.s 			page 10


  33:src/KSem.cpp  **** 	//if (!MemoryAllocator::checkPurpose(this, MemoryAllocator::SEMAPHORE)) return -2;
 330              		.loc 1 33 20
 331 0198 130101FF 		addi	sp,sp,-16
 332              		.cfi_def_cfa_offset 16
 333 019c 23341100 		sd	ra,8(sp)
 334 01a0 23308100 		sd	s0,0(sp)
 335              		.cfi_offset 1, -8
 336              		.cfi_offset 8, -16
 337 01a4 13040101 		addi	s0,sp,16
 338              		.cfi_def_cfa 8, 0
  37:src/KSem.cpp  **** 	}
 339              		.loc 1 37 3 is_stmt 1
  37:src/KSem.cpp  **** 	}
 340              		.loc 1 37 10 is_stmt 0
 341 01a8 97000000 		call	_ZN4KSem7unblockEv
 341      E7800000 
 342              	.LVL30:
  39:src/KSem.cpp  **** }
 343              		.loc 1 39 9
 344 01b0 13050000 		li	a0,0
  40:src/KSem.cpp  **** 
 345              		.loc 1 40 1
 346 01b4 83308100 		ld	ra,8(sp)
 347              		.cfi_restore 1
 348 01b8 03340100 		ld	s0,0(sp)
 349              		.cfi_restore 8
 350              		.cfi_def_cfa 2, 16
 351 01bc 13010101 		addi	sp,sp,16
 352              		.cfi_def_cfa_offset 0
 353 01c0 67800000 		jr	ra
 354              	.LVL31:
 355              	.L22:
  35:src/KSem.cpp  **** 	if (val++ < 0) {
 356              		.loc 1 35 24
 357 01c4 1305D0FF 		li	a0,-3
 358              	.LVL32:
 359 01c8 67800000 		ret
 360              		.cfi_endproc
 361              	.LFE39:
 363              		.align	2
 364              		.globl	_ZN4KSem8closeSemEPS_
 366              	_ZN4KSem8closeSemEPS_:
 367              	.LFB42:
  55:src/KSem.cpp  **** 
  56:src/KSem.cpp  **** int KSem::closeSem(sem_t handle) {
 368              		.loc 1 56 34 is_stmt 1
 369              		.cfi_startproc
 370              	.LVL33:
 371 01cc 130101FE 		addi	sp,sp,-32
 372              		.cfi_def_cfa_offset 32
 373 01d0 233C1100 		sd	ra,24(sp)
 374 01d4 23388100 		sd	s0,16(sp)
 375 01d8 23349100 		sd	s1,8(sp)
 376              		.cfi_offset 1, -8
 377              		.cfi_offset 8, -16
 378              		.cfi_offset 9, -24
 379 01dc 13040102 		addi	s0,sp,32
GAS LISTING /tmp/ccSjKndB.s 			page 11


 380              		.cfi_def_cfa 8, 0
 381 01e0 93040500 		mv	s1,a0
  57:src/KSem.cpp  **** 	//if (!MemoryAllocator::checkPurpose(handle, MemoryAllocator::SEMAPHORE)) return -2;
  58:src/KSem.cpp  **** 	handle->working = false;
 382              		.loc 1 58 2
 383              		.loc 1 58 18 is_stmt 0
 384 01e4 230C0500 		sb	zero,24(a0)
 385              	.LVL34:
 386              	.L31:
  59:src/KSem.cpp  **** 	while (!handle->blocked.isEmpty()) {
 387              		.loc 1 59 2 is_stmt 1
 388              		.loc 1 59 9
 389              	.LBB35:
 390              	.LBB36:
  35:src/../h/../h/ThreadQueue.hpp **** 
  36:src/../h/../h/ThreadQueue.hpp ****     ThreadQueue(const ThreadQueue &) = delete;
  37:src/../h/../h/ThreadQueue.hpp **** 
  38:src/../h/../h/ThreadQueue.hpp ****     ThreadQueue &operator=(const ThreadQueue &) = delete;
  39:src/../h/../h/ThreadQueue.hpp **** 
  40:src/../h/../h/ThreadQueue.hpp ****     ~ThreadQueue() {
  41:src/../h/../h/ThreadQueue.hpp ****         while (!isEmpty()) {
  42:src/../h/../h/ThreadQueue.hpp ****             Node *node = front;
  43:src/../h/../h/ThreadQueue.hpp ****             front = front->next;
  44:src/../h/../h/ThreadQueue.hpp ****             delete node;
  45:src/../h/../h/ThreadQueue.hpp ****         }
  46:src/../h/../h/ThreadQueue.hpp ****     }
  47:src/../h/../h/ThreadQueue.hpp **** 
  48:src/../h/../h/ThreadQueue.hpp ****     bool isEmpty() const {
  49:src/../h/../h/ThreadQueue.hpp ****         bool ret = front == nullptr;
 391              		.loc 3 49 9
 392              		.loc 3 49 20 is_stmt 0
 393 01e8 83B78400 		ld	a5,8(s1)
 394              	.LVL35:
  50:src/../h/../h/ThreadQueue.hpp ****         return ret;
 395              		.loc 3 50 9 is_stmt 1
 396              	.LBE36:
 397              	.LBE35:
 398              		.loc 1 59 9 is_stmt 0
 399 01ec 63820702 		beqz	a5,.L30
 400              	.LBB37:
  60:src/KSem.cpp  **** 		TCB* tcb = handle->blocked.getFirst();
 401              		.loc 1 60 3 is_stmt 1
 402              		.loc 1 60 38 is_stmt 0
 403 01f0 13858400 		addi	a0,s1,8
 404 01f4 97000000 		call	_ZN11ThreadQueue8getFirstEv@plt
 404      E7800000 
 405              	.LVL36:
  61:src/KSem.cpp  **** 		//tcb->setBlocked(false);
  62:src/KSem.cpp  ****         tcb->setStatus(TCB::ACTIVE);
 406              		.loc 1 62 9 is_stmt 1
 407              	.LBB38:
 408              	.LBB39:
  21:src/../h/TCB.hpp **** 
 409              		.loc 4 21 41
  21:src/../h/TCB.hpp **** 
 410              		.loc 4 21 54 is_stmt 0
 411 01fc 93071000 		li	a5,1
GAS LISTING /tmp/ccSjKndB.s 			page 12


 412 0200 232CF504 		sw	a5,88(a0)
 413              	.LVL37:
 414              	.LBE39:
 415              	.LBE38:
  63:src/KSem.cpp  **** 		Scheduler::put(tcb);
 416              		.loc 1 63 3 is_stmt 1
 417              		.loc 1 63 17 is_stmt 0
 418 0204 97000000 		call	_ZN9Scheduler3putEP3TCB@plt
 418      E7800000 
 419              	.LVL38:
 420              	.LBE37:
  59:src/KSem.cpp  **** 		TCB* tcb = handle->blocked.getFirst();
 421              		.loc 1 59 2
 422 020c 6FF0DFFD 		j	.L31
 423              	.L30:
  64:src/KSem.cpp  **** 	}
  65:src/KSem.cpp  **** 	return 0;
 424              		.loc 1 65 2 is_stmt 1
  66:src/KSem.cpp  **** }
 425              		.loc 1 66 1 is_stmt 0
 426 0210 13050000 		li	a0,0
 427 0214 83308101 		ld	ra,24(sp)
 428              		.cfi_restore 1
 429 0218 03340101 		ld	s0,16(sp)
 430              		.cfi_restore 8
 431              		.cfi_def_cfa 2, 32
 432 021c 83348100 		ld	s1,8(sp)
 433              		.cfi_restore 9
 434              	.LVL39:
 435 0220 13010102 		addi	sp,sp,32
 436              		.cfi_def_cfa_offset 0
 437 0224 67800000 		jr	ra
 438              		.cfi_endproc
 439              	.LFE42:
 441              	.Letext0:
 442              		.file 5 "src/../h/../h/../visak/../lib/hw.h"
 443              		.file 6 "src/../h/../h/../h/syscall_c.hpp"
 444              		.file 7 "src/../h/Scheduler.hpp"
GAS LISTING /tmp/ccSjKndB.s 			page 13


DEFINED SYMBOLS
                            *ABS*:0000000000000000 KSem.cpp
     /tmp/ccSjKndB.s:9      .text:0000000000000000 _ZN4KSemnwEm
     /tmp/ccSjKndB.s:13     .text:0000000000000000 .L0 
     /tmp/ccSjKndB.s:15     .text:0000000000000000 .L0 
     /tmp/ccSjKndB.s:16     .text:0000000000000004 .L0 
     /tmp/ccSjKndB.s:19     .text:000000000000000c .L0 
     /tmp/ccSjKndB.s:20     .text:000000000000000c .L0 
     /tmp/ccSjKndB.s:22     .text:0000000000000010 .L0 
     /tmp/ccSjKndB.s:24     .text:0000000000000010 .L0 
     /tmp/ccSjKndB.s:25     .text:0000000000000010 .L0 
     /tmp/ccSjKndB.s:28     .text:0000000000000018 .L0 
     /tmp/ccSjKndB.s:29     .text:000000000000001c .L0 
     /tmp/ccSjKndB.s:31     .text:0000000000000020 .L0 
     /tmp/ccSjKndB.s:32     .text:0000000000000020 .L0 
     /tmp/ccSjKndB.s:34     .text:0000000000000024 .L0 
     /tmp/ccSjKndB.s:36     .text:0000000000000028 .L0 
     /tmp/ccSjKndB.s:42     .text:0000000000000028 _ZN4KSemdlEPv
     /tmp/ccSjKndB.s:45     .text:0000000000000028 .L0 
     /tmp/ccSjKndB.s:47     .text:0000000000000028 .L0 
     /tmp/ccSjKndB.s:48     .text:000000000000002c .L0 
     /tmp/ccSjKndB.s:51     .text:0000000000000034 .L0 
     /tmp/ccSjKndB.s:52     .text:0000000000000034 .L0 
     /tmp/ccSjKndB.s:54     .text:0000000000000038 .L0 
     /tmp/ccSjKndB.s:56     .text:0000000000000038 .L0 
     /tmp/ccSjKndB.s:57     .text:0000000000000038 .L0 
     /tmp/ccSjKndB.s:60     .text:0000000000000040 .L0 
     /tmp/ccSjKndB.s:61     .text:0000000000000044 .L0 
     /tmp/ccSjKndB.s:63     .text:0000000000000048 .L0 
     /tmp/ccSjKndB.s:64     .text:0000000000000048 .L0 
     /tmp/ccSjKndB.s:66     .text:000000000000004c .L0 
     /tmp/ccSjKndB.s:68     .text:0000000000000050 .L0 
     /tmp/ccSjKndB.s:74     .text:0000000000000050 _ZN4KSem7initSemEj
     /tmp/ccSjKndB.s:77     .text:0000000000000050 .L0 
     /tmp/ccSjKndB.s:79     .text:0000000000000050 .L0 
     /tmp/ccSjKndB.s:80     .text:0000000000000054 .L0 
     /tmp/ccSjKndB.s:84     .text:0000000000000060 .L0 
     /tmp/ccSjKndB.s:85     .text:0000000000000060 .L0 
     /tmp/ccSjKndB.s:86     .text:0000000000000060 .L0 
     /tmp/ccSjKndB.s:88     .text:0000000000000064 .L0 
     /tmp/ccSjKndB.s:91     .text:0000000000000068 .L0 
     /tmp/ccSjKndB.s:92     .text:0000000000000068 .L0 
     /tmp/ccSjKndB.s:100    .text:0000000000000074 .L0 
     /tmp/ccSjKndB.s:106    .text:0000000000000078 .L0 
     /tmp/ccSjKndB.s:112    .text:0000000000000080 .L0 
     /tmp/ccSjKndB.s:118    .text:0000000000000088 .L0 
     /tmp/ccSjKndB.s:119    .text:000000000000008c .L0 
     /tmp/ccSjKndB.s:121    .text:0000000000000090 .L0 
     /tmp/ccSjKndB.s:122    .text:0000000000000090 .L0 
     /tmp/ccSjKndB.s:124    .text:0000000000000094 .L0 
     /tmp/ccSjKndB.s:126    .text:0000000000000098 .L0 
     /tmp/ccSjKndB.s:128    .text:000000000000009c .L0 
     /tmp/ccSjKndB.s:134    .text:000000000000009c _ZN4KSem5blockEv
     /tmp/ccSjKndB.s:137    .text:000000000000009c .L0 
     /tmp/ccSjKndB.s:139    .text:000000000000009c .L0 
     /tmp/ccSjKndB.s:140    .text:00000000000000a0 .L0 
     /tmp/ccSjKndB.s:143    .text:00000000000000a8 .L0 
GAS LISTING /tmp/ccSjKndB.s 			page 14


     /tmp/ccSjKndB.s:144    .text:00000000000000a8 .L0 
     /tmp/ccSjKndB.s:146    .text:00000000000000ac .L0 
     /tmp/ccSjKndB.s:151    .text:00000000000000ac .L0 
     /tmp/ccSjKndB.s:152    .text:00000000000000ac .L0 
     /tmp/ccSjKndB.s:153    .text:00000000000000ac .L0 
     /tmp/ccSjKndB.s:161    .text:00000000000000b8 .L0 
     /tmp/ccSjKndB.s:162    .text:00000000000000b8 .L0 
     /tmp/ccSjKndB.s:168    .text:00000000000000c0 .L0 
     /tmp/ccSjKndB.s:169    .text:00000000000000c0 .L0 
     /tmp/ccSjKndB.s:170    .text:00000000000000c0 .L0 
     /tmp/ccSjKndB.s:175    .text:00000000000000cc .L0 
     /tmp/ccSjKndB.s:176    .text:00000000000000cc .L0 
     /tmp/ccSjKndB.s:179    .text:00000000000000d4 .L0 
     /tmp/ccSjKndB.s:180    .text:00000000000000d8 .L0 
     /tmp/ccSjKndB.s:182    .text:00000000000000dc .L0 
     /tmp/ccSjKndB.s:183    .text:00000000000000dc .L0 
     /tmp/ccSjKndB.s:185    .text:00000000000000e0 .L0 
     /tmp/ccSjKndB.s:187    .text:00000000000000e4 .L0 
     /tmp/ccSjKndB.s:193    .text:00000000000000e4 _ZN4KSem4waitEv
     /tmp/ccSjKndB.s:196    .text:00000000000000e4 .L0 
     /tmp/ccSjKndB.s:198    .text:00000000000000e4 .L0 
     /tmp/ccSjKndB.s:199    .text:00000000000000e4 .L0 
     /tmp/ccSjKndB.s:200    .text:00000000000000e4 .L0 
     /tmp/ccSjKndB.s:202    .text:00000000000000e8 .L0 
     /tmp/ccSjKndB.s:204    .text:00000000000000ec .L0 
     /tmp/ccSjKndB.s:205    .text:00000000000000ec .L0 
     /tmp/ccSjKndB.s:207    .text:00000000000000f0 .L0 
     /tmp/ccSjKndB.s:209    .text:00000000000000f4 .L0 
     /tmp/ccSjKndB.s:211    .text:00000000000000f8 .L0 
     /tmp/ccSjKndB.s:214    .text:0000000000000100 .L0 
     /tmp/ccSjKndB.s:217    .text:0000000000000104 .L0 
     /tmp/ccSjKndB.s:221    .text:0000000000000108 .L0 
     /tmp/ccSjKndB.s:222    .text:000000000000010c .L0 
     /tmp/ccSjKndB.s:225    .text:0000000000000114 .L0 
     /tmp/ccSjKndB.s:226    .text:0000000000000114 .L0 
     /tmp/ccSjKndB.s:228    .text:0000000000000118 .L0 
     /tmp/ccSjKndB.s:230    .text:0000000000000118 .L0 
     /tmp/ccSjKndB.s:231    .text:0000000000000118 .L0 
     /tmp/ccSjKndB.s:234    .text:0000000000000120 .L0 
     /tmp/ccSjKndB.s:235    .text:0000000000000120 .L0 
     /tmp/ccSjKndB.s:237    .text:0000000000000124 .L0 
     /tmp/ccSjKndB.s:238    .text:0000000000000128 .L0 
     /tmp/ccSjKndB.s:240    .text:000000000000012c .L0 
     /tmp/ccSjKndB.s:241    .text:000000000000012c .L0 
     /tmp/ccSjKndB.s:243    .text:0000000000000130 .L0 
     /tmp/ccSjKndB.s:248    .text:0000000000000134 .L0 
     /tmp/ccSjKndB.s:251    .text:000000000000013c .L0 
     /tmp/ccSjKndB.s:257    .text:000000000000013c _ZN4KSem7unblockEv
     /tmp/ccSjKndB.s:260    .text:000000000000013c .L0 
     /tmp/ccSjKndB.s:262    .text:000000000000013c .L0 
     /tmp/ccSjKndB.s:263    .text:0000000000000140 .L0 
     /tmp/ccSjKndB.s:266    .text:0000000000000148 .L0 
     /tmp/ccSjKndB.s:267    .text:0000000000000148 .L0 
     /tmp/ccSjKndB.s:269    .text:000000000000014c .L0 
     /tmp/ccSjKndB.s:271    .text:000000000000014c .L0 
     /tmp/ccSjKndB.s:272    .text:000000000000014c .L0 
     /tmp/ccSjKndB.s:279    .text:0000000000000158 .L0 
GAS LISTING /tmp/ccSjKndB.s 			page 15


     /tmp/ccSjKndB.s:280    .text:0000000000000158 .L0 
     /tmp/ccSjKndB.s:281    .text:0000000000000158 .L0 
     /tmp/ccSjKndB.s:287    .text:0000000000000160 .L0 
     /tmp/ccSjKndB.s:288    .text:0000000000000160 .L0 
     /tmp/ccSjKndB.s:291    .text:0000000000000168 .L0 
     /tmp/ccSjKndB.s:292    .text:000000000000016c .L0 
     /tmp/ccSjKndB.s:294    .text:0000000000000170 .L0 
     /tmp/ccSjKndB.s:295    .text:0000000000000170 .L0 
     /tmp/ccSjKndB.s:297    .text:0000000000000174 .L0 
     /tmp/ccSjKndB.s:299    .text:0000000000000178 .L0 
     /tmp/ccSjKndB.s:305    .text:0000000000000178 _ZN4KSem6signalEv
     /tmp/ccSjKndB.s:308    .text:0000000000000178 .L0 
     /tmp/ccSjKndB.s:310    .text:0000000000000178 .L0 
     /tmp/ccSjKndB.s:311    .text:0000000000000178 .L0 
     /tmp/ccSjKndB.s:312    .text:0000000000000178 .L0 
     /tmp/ccSjKndB.s:314    .text:000000000000017c .L0 
     /tmp/ccSjKndB.s:316    .text:0000000000000180 .L0 
     /tmp/ccSjKndB.s:317    .text:0000000000000180 .L0 
     /tmp/ccSjKndB.s:319    .text:0000000000000184 .L0 
     /tmp/ccSjKndB.s:322    .text:000000000000018c .L0 
     /tmp/ccSjKndB.s:324    .text:0000000000000190 .L0 
     /tmp/ccSjKndB.s:327    .text:0000000000000194 .L0 
     /tmp/ccSjKndB.s:331    .text:0000000000000198 .L0 
     /tmp/ccSjKndB.s:332    .text:000000000000019c .L0 
     /tmp/ccSjKndB.s:335    .text:00000000000001a4 .L0 
     /tmp/ccSjKndB.s:336    .text:00000000000001a4 .L0 
     /tmp/ccSjKndB.s:338    .text:00000000000001a8 .L0 
     /tmp/ccSjKndB.s:340    .text:00000000000001a8 .L0 
     /tmp/ccSjKndB.s:341    .text:00000000000001a8 .L0 
     /tmp/ccSjKndB.s:344    .text:00000000000001b0 .L0 
     /tmp/ccSjKndB.s:346    .text:00000000000001b4 .L0 
     /tmp/ccSjKndB.s:347    .text:00000000000001b8 .L0 
     /tmp/ccSjKndB.s:349    .text:00000000000001bc .L0 
     /tmp/ccSjKndB.s:350    .text:00000000000001bc .L0 
     /tmp/ccSjKndB.s:352    .text:00000000000001c0 .L0 
     /tmp/ccSjKndB.s:357    .text:00000000000001c4 .L0 
     /tmp/ccSjKndB.s:360    .text:00000000000001cc .L0 
     /tmp/ccSjKndB.s:366    .text:00000000000001cc _ZN4KSem8closeSemEPS_
     /tmp/ccSjKndB.s:369    .text:00000000000001cc .L0 
     /tmp/ccSjKndB.s:371    .text:00000000000001cc .L0 
     /tmp/ccSjKndB.s:372    .text:00000000000001d0 .L0 
     /tmp/ccSjKndB.s:376    .text:00000000000001dc .L0 
     /tmp/ccSjKndB.s:377    .text:00000000000001dc .L0 
     /tmp/ccSjKndB.s:378    .text:00000000000001dc .L0 
     /tmp/ccSjKndB.s:380    .text:00000000000001e0 .L0 
     /tmp/ccSjKndB.s:383    .text:00000000000001e4 .L0 
     /tmp/ccSjKndB.s:384    .text:00000000000001e4 .L0 
     /tmp/ccSjKndB.s:388    .text:00000000000001e8 .L0 
     /tmp/ccSjKndB.s:391    .text:00000000000001e8 .L0 
     /tmp/ccSjKndB.s:392    .text:00000000000001e8 .L0 
     /tmp/ccSjKndB.s:393    .text:00000000000001e8 .L0 
     /tmp/ccSjKndB.s:398    .text:00000000000001ec .L0 
     /tmp/ccSjKndB.s:399    .text:00000000000001ec .L0 
     /tmp/ccSjKndB.s:402    .text:00000000000001f0 .L0 
     /tmp/ccSjKndB.s:403    .text:00000000000001f0 .L0 
     /tmp/ccSjKndB.s:409    .text:00000000000001fc .L0 
     /tmp/ccSjKndB.s:410    .text:00000000000001fc .L0 
GAS LISTING /tmp/ccSjKndB.s 			page 16


     /tmp/ccSjKndB.s:411    .text:00000000000001fc .L0 
     /tmp/ccSjKndB.s:417    .text:0000000000000204 .L0 
     /tmp/ccSjKndB.s:418    .text:0000000000000204 .L0 
     /tmp/ccSjKndB.s:422    .text:000000000000020c .L0 
     /tmp/ccSjKndB.s:425    .text:0000000000000210 .L0 
     /tmp/ccSjKndB.s:426    .text:0000000000000210 .L0 
     /tmp/ccSjKndB.s:428    .text:0000000000000218 .L0 
     /tmp/ccSjKndB.s:430    .text:000000000000021c .L0 
     /tmp/ccSjKndB.s:431    .text:000000000000021c .L0 
     /tmp/ccSjKndB.s:433    .text:0000000000000220 .L0 
     /tmp/ccSjKndB.s:436    .text:0000000000000224 .L0 
     /tmp/ccSjKndB.s:438    .text:0000000000000228 .L0 
     /tmp/ccSjKndB.s:445    .text:0000000000000228 .L0 
     /tmp/ccSjKndB.s:153    .text:00000000000000ac .L0 
     /tmp/ccSjKndB.s:246    .text:0000000000000134 .L11
     /tmp/ccSjKndB.s:219    .text:0000000000000108 .L17
     /tmp/ccSjKndB.s:355    .text:00000000000001c4 .L22
     /tmp/ccSjKndB.s:329    .text:0000000000000198 .L28
     /tmp/ccSjKndB.s:423    .text:0000000000000210 .L30
     /tmp/ccSjKndB.s:386    .text:00000000000001e8 .L31
     /tmp/ccSjKndB.s:1881   .debug_abbrev:0000000000000000 .Ldebug_abbrev0
     /tmp/ccSjKndB.s:3521   .debug_str:000000000000069b .LASF138
     /tmp/ccSjKndB.s:3359   .debug_str:000000000000021a .LASF139
     /tmp/ccSjKndB.s:3365   .debug_str:000000000000023b .LASF140
     /tmp/ccSjKndB.s:5      .text:0000000000000000 .Ltext0
     /tmp/ccSjKndB.s:441    .text:0000000000000228 .Letext0
     /tmp/ccSjKndB.s:3279   .debug_line:0000000000000000 .Ldebug_line0
     /tmp/ccSjKndB.s:3323   .debug_str:0000000000000131 .LASF3
     /tmp/ccSjKndB.s:3433   .debug_str:000000000000041e .LASF0
     /tmp/ccSjKndB.s:3451   .debug_str:0000000000000489 .LASF1
     /tmp/ccSjKndB.s:3411   .debug_str:00000000000003a4 .LASF2
     /tmp/ccSjKndB.s:3375   .debug_str:00000000000002a6 .LASF4
     /tmp/ccSjKndB.s:3497   .debug_str:0000000000000601 .LASF5
     /tmp/ccSjKndB.s:3305   .debug_str:00000000000000ca .LASF6
     /tmp/ccSjKndB.s:3339   .debug_str:000000000000019b .LASF7
     /tmp/ccSjKndB.s:3457   .debug_str:00000000000004bd .LASF8
     /tmp/ccSjKndB.s:3431   .debug_str:000000000000040b .LASF9
     /tmp/ccSjKndB.s:3537   .debug_str:00000000000007e5 .LASF10
     /tmp/ccSjKndB.s:3361   .debug_str:0000000000000227 .LASF11
     /tmp/ccSjKndB.s:3469   .debug_str:000000000000051e .LASF12
     /tmp/ccSjKndB.s:3527   .debug_str:000000000000077c .LASF13
     /tmp/ccSjKndB.s:3309   .debug_str:00000000000000d9 .LASF14
     /tmp/ccSjKndB.s:3285   .debug_str:0000000000000029 .LASF15
     /tmp/ccSjKndB.s:3319   .debug_str:0000000000000120 .LASF16
     /tmp/ccSjKndB.s:3491   .debug_str:00000000000005b2 .LASF17
     /tmp/ccSjKndB.s:3331   .debug_str:0000000000000161 .LASF18
     /tmp/ccSjKndB.s:3353   .debug_str:00000000000001ef .LASF19
     /tmp/ccSjKndB.s:3313   .debug_str:00000000000000f6 .LASF141
     /tmp/ccSjKndB.s:3523   .debug_str:000000000000075f .LASF20
     /tmp/ccSjKndB.s:3553   .debug_str:0000000000000865 .LASF21
     /tmp/ccSjKndB.s:3377   .debug_str:00000000000002ad .LASF22
     /tmp/ccSjKndB.s:3303   .debug_str:00000000000000c2 .LASF23
     /tmp/ccSjKndB.s:3293   .debug_str:0000000000000061 .LASF24
     /tmp/ccSjKndB.s:3505   .debug_str:0000000000000643 .LASF25
     /tmp/ccSjKndB.s:3291   .debug_str:0000000000000059 .LASF93
     /tmp/ccSjKndB.s:3551   .debug_str:000000000000085b .LASF26
     /tmp/ccSjKndB.s:3571   .debug_str:00000000000008e1 .LASF28
GAS LISTING /tmp/ccSjKndB.s 			page 17


     /tmp/ccSjKndB.s:3409   .debug_str:000000000000039a .LASF30
     /tmp/ccSjKndB.s:3333   .debug_str:0000000000000177 .LASF32
     /tmp/ccSjKndB.s:3389   .debug_str:00000000000002eb .LASF27
     /tmp/ccSjKndB.s:3557   .debug_str:0000000000000874 .LASF29
     /tmp/ccSjKndB.s:3483   .debug_str:0000000000000586 .LASF142
     /tmp/ccSjKndB.s:3449   .debug_str:0000000000000483 .LASF38
     /tmp/ccSjKndB.s:3471   .debug_str:000000000000052d .LASF40
     /tmp/ccSjKndB.s:3401   .debug_str:0000000000000359 .LASF31
     /tmp/ccSjKndB.s:3467   .debug_str:0000000000000506 .LASF33
     /tmp/ccSjKndB.s:3535   .debug_str:00000000000007d8 .LASF34
     /tmp/ccSjKndB.s:3541   .debug_str:0000000000000816 .LASF35
     /tmp/ccSjKndB.s:3425   .debug_str:00000000000003f6 .LASF36
     /tmp/ccSjKndB.s:3391   .debug_str:00000000000002f8 .LASF37
     /tmp/ccSjKndB.s:3569   .debug_str:00000000000008d6 .LASF42
     /tmp/ccSjKndB.s:3531   .debug_str:00000000000007ac .LASF44
     /tmp/ccSjKndB.s:3507   .debug_str:000000000000064c .LASF39
     /tmp/ccSjKndB.s:3443   .debug_str:000000000000044c .LASF41
     /tmp/ccSjKndB.s:3395   .debug_str:0000000000000322 .LASF43
     /tmp/ccSjKndB.s:3281   .debug_str:0000000000000000 .LASF45
     /tmp/ccSjKndB.s:3341   .debug_str:00000000000001a2 .LASF46
     /tmp/ccSjKndB.s:3357   .debug_str:0000000000000202 .LASF47
     /tmp/ccSjKndB.s:3485   .debug_str:000000000000058b .LASF48
     /tmp/ccSjKndB.s:3419   .debug_str:00000000000003ce .LASF50
     /tmp/ccSjKndB.s:3435   .debug_str:000000000000042b .LASF49
     /tmp/ccSjKndB.s:3351   .debug_str:00000000000001dc .LASF51
     /tmp/ccSjKndB.s:3511   .debug_str:0000000000000669 .LASF52
     /tmp/ccSjKndB.s:3501   .debug_str:0000000000000623 .LASF53
     /tmp/ccSjKndB.s:3311   .debug_str:00000000000000e9 .LASF54
     /tmp/ccSjKndB.s:3515   .debug_str:0000000000000679 .LASF55
     /tmp/ccSjKndB.s:3473   .debug_str:000000000000053f .LASF56
     /tmp/ccSjKndB.s:3487   .debug_str:0000000000000599 .LASF57
     /tmp/ccSjKndB.s:3385   .debug_str:00000000000002d3 .LASF58
     /tmp/ccSjKndB.s:3407   .debug_str:000000000000038b .LASF59
     /tmp/ccSjKndB.s:3437   .debug_str:0000000000000434 .LASF60
     /tmp/ccSjKndB.s:3439   .debug_str:000000000000043a .LASF61
     /tmp/ccSjKndB.s:3445   .debug_str:0000000000000464 .LASF62
     /tmp/ccSjKndB.s:3499   .debug_str:0000000000000613 .LASF63
     /tmp/ccSjKndB.s:3371   .debug_str:0000000000000295 .LASF64
     /tmp/ccSjKndB.s:3461   .debug_str:00000000000004e2 .LASF65
     /tmp/ccSjKndB.s:3349   .debug_str:00000000000001ce .LASF66
     /tmp/ccSjKndB.s:3455   .debug_str:00000000000004b6 .LASF67
     /tmp/ccSjKndB.s:3559   .debug_str:0000000000000896 .LASF120
     /tmp/ccSjKndB.s:3555   .debug_str:000000000000086c .LASF68
     /tmp/ccSjKndB.s:3479   .debug_str:0000000000000559 .LASF69
     /tmp/ccSjKndB.s:3549   .debug_str:000000000000084d .LASF99
     /tmp/ccSjKndB.s:3367   .debug_str:0000000000000259 .LASF100
     /tmp/ccSjKndB.s:3347   .debug_str:00000000000001c8 .LASF70
     /tmp/ccSjKndB.s:3543   .debug_str:000000000000082e .LASF71
     /tmp/ccSjKndB.s:3381   .debug_str:00000000000002be .LASF72
     /tmp/ccSjKndB.s:3295   .debug_str:000000000000006a .LASF73
     /tmp/ccSjKndB.s:3567   .debug_str:00000000000008d1 .LASF74
     /tmp/ccSjKndB.s:3299   .debug_str:0000000000000093 .LASF75
     /tmp/ccSjKndB.s:3329   .debug_str:000000000000015a .LASF76
     /tmp/ccSjKndB.s:3509   .debug_str:0000000000000657 .LASF77
     /tmp/ccSjKndB.s:3545   .debug_str:0000000000000833 .LASF78
     /tmp/ccSjKndB.s:3297   .debug_str:000000000000007d .LASF79
     /tmp/ccSjKndB.s:3563   .debug_str:00000000000008bf .LASF80
GAS LISTING /tmp/ccSjKndB.s 			page 18


     /tmp/ccSjKndB.s:3397   .debug_str:0000000000000336 .LASF81
     /tmp/ccSjKndB.s:3345   .debug_str:00000000000001c2 .LASF82
     /tmp/ccSjKndB.s:3547   .debug_str:000000000000083c .LASF83
     /tmp/ccSjKndB.s:3307   .debug_str:00000000000000d1 .LASF84
     /tmp/ccSjKndB.s:3561   .debug_str:00000000000008ac .LASF85
     /tmp/ccSjKndB.s:3383   .debug_str:00000000000002c6 .LASF86
     /tmp/ccSjKndB.s:3413   .debug_str:00000000000003b2 .LASF87
     /tmp/ccSjKndB.s:3423   .debug_str:00000000000003ec .LASF88
     /tmp/ccSjKndB.s:3387   .debug_str:00000000000002db .LASF89
     /tmp/ccSjKndB.s:3429   .debug_str:0000000000000403 .LASF90
     /tmp/ccSjKndB.s:3289   .debug_str:0000000000000051 .LASF91
     /tmp/ccSjKndB.s:3489   .debug_str:00000000000005a6 .LASF92
     /tmp/ccSjKndB.s:3373   .debug_str:00000000000002a1 .LASF94
     /tmp/ccSjKndB.s:3321   .debug_str:000000000000012c .LASF95
     /tmp/ccSjKndB.s:3565   .debug_str:00000000000008cc .LASF96
     /tmp/ccSjKndB.s:3493   .debug_str:00000000000005c8 .LASF97
     /tmp/ccSjKndB.s:3453   .debug_str:000000000000049c .LASF98
     /tmp/ccSjKndB.s:3495   .debug_str:00000000000005e6 .LASF101
     /tmp/ccSjKndB.s:3363   .debug_str:0000000000000235 .LASF102
     /tmp/ccSjKndB.s:3477   .debug_str:0000000000000554 .LASF103
     /tmp/ccSjKndB.s:3403   .debug_str:0000000000000366 .LASF104
     /tmp/ccSjKndB.s:3287   .debug_str:0000000000000039 .LASF105
     /tmp/ccSjKndB.s:3393   .debug_str:000000000000030a .LASF143
     /tmp/ccSjKndB.s:3465   .debug_str:00000000000004f9 .LASF106
     /tmp/ccSjKndB.s:3399   .debug_str:0000000000000344 .LASF107
     /tmp/ccSjKndB.s:3325   .debug_str:0000000000000136 .LASF108
     /tmp/ccSjKndB.s:3327   .debug_str:000000000000013e .LASF109
     /tmp/ccSjKndB.s:3513   .debug_str:0000000000000671 .LASF110
     /tmp/ccSjKndB.s:3301   .debug_str:00000000000000a3 .LASF111
     /tmp/ccSjKndB.s:3519   .debug_str:0000000000000692 .LASF112
     /tmp/ccSjKndB.s:3481   .debug_str:000000000000056a .LASF113
     /tmp/ccSjKndB.s:3525   .debug_str:0000000000000767 .LASF114
     /tmp/ccSjKndB.s:3533   .debug_str:00000000000007c2 .LASF144
     /tmp/ccSjKndB.s:3463   .debug_str:00000000000004ef .LASF115
     /tmp/ccSjKndB.s:3337   .debug_str:0000000000000196 .LASF116
     /tmp/ccSjKndB.s:3417   .debug_str:00000000000003c9 .LASF117
     /tmp/ccSjKndB.s:3441   .debug_str:000000000000043f .LASF118
     /tmp/ccSjKndB.s:3459   .debug_str:00000000000004d0 .LASF119
     /tmp/ccSjKndB.s:3317   .debug_str:0000000000000108 .LASF121
     /tmp/ccSjKndB.s:3369   .debug_str:0000000000000281 .LASF145
     /tmp/ccSjKndB.s:3405   .debug_str:000000000000037b .LASF122
     /tmp/ccSjKndB.s:3539   .debug_str:00000000000007f5 .LASF123
     /tmp/ccSjKndB.s:3335   .debug_str:000000000000018b .LASF124
     /tmp/ccSjKndB.s:3529   .debug_str:000000000000078b .LASF125
     /tmp/ccSjKndB.s:3421   .debug_str:00000000000003e7 .LASF126
     /tmp/ccSjKndB.s:3447   .debug_str:000000000000046e .LASF127
     /tmp/ccSjKndB.s:367    .text:00000000000001cc .LFB42
     /tmp/ccSjKndB.s:439    .text:0000000000000228 .LFE42
     /tmp/ccSjKndB.s:3415   .debug_str:00000000000003c2 .LASF129
     /tmp/ccSjKndB.s:3003   .debug_loc:0000000000000000 .LLST15
     /tmp/ccSjKndB.s:400    .text:00000000000001f0 .LBB37
     /tmp/ccSjKndB.s:420    .text:000000000000020c .LBE37
     /tmp/ccSjKndB.s:3021   .debug_loc:000000000000004c .LLST17
     /tmp/ccSjKndB.s:407    .text:00000000000001fc .LBB38
     /tmp/ccSjKndB.s:415    .text:0000000000000204 .LBE38
     /tmp/ccSjKndB.s:3028   .debug_loc:000000000000006f .LLST18
     /tmp/ccSjKndB.s:3036   .debug_loc:0000000000000093 .LLST19
GAS LISTING /tmp/ccSjKndB.s 			page 19


     /tmp/ccSjKndB.s:405    .text:00000000000001fc .LVL36
     /tmp/ccSjKndB.s:419    .text:000000000000020c .LVL38
     /tmp/ccSjKndB.s:389    .text:00000000000001e8 .LBB35
     /tmp/ccSjKndB.s:397    .text:00000000000001ec .LBE35
     /tmp/ccSjKndB.s:3043   .debug_loc:00000000000000b6 .LLST16
     /tmp/ccSjKndB.s:258    .text:000000000000013c .LFB41
     /tmp/ccSjKndB.s:300    .text:0000000000000178 .LFE41
     /tmp/ccSjKndB.s:3475   .debug_str:000000000000054f .LASF128
     /tmp/ccSjKndB.s:3052   .debug_loc:00000000000000db .LLST10
     /tmp/ccSjKndB.s:3072   .debug_loc:0000000000000129 .LLST11
     /tmp/ccSjKndB.s:277    .text:0000000000000158 .LBB33
     /tmp/ccSjKndB.s:285    .text:0000000000000160 .LBE33
     /tmp/ccSjKndB.s:3079   .debug_loc:000000000000014c .LLST12
     /tmp/ccSjKndB.s:3087   .debug_loc:0000000000000170 .LLST13
     /tmp/ccSjKndB.s:275    .text:0000000000000158 .LVL24
     /tmp/ccSjKndB.s:289    .text:0000000000000168 .LVL26
     /tmp/ccSjKndB.s:135    .text:000000000000009c .LFB40
     /tmp/ccSjKndB.s:188    .text:00000000000000e4 .LFE40
     /tmp/ccSjKndB.s:3094   .debug_loc:0000000000000193 .LLST6
     /tmp/ccSjKndB.s:148    .text:00000000000000ac .LBB29
     /tmp/ccSjKndB.s:157    .text:00000000000000b8 .LBE29
     /tmp/ccSjKndB.s:158    .text:00000000000000b8 .LBB31
     /tmp/ccSjKndB.s:166    .text:00000000000000c0 .LBE31
     /tmp/ccSjKndB.s:3114   .debug_loc:00000000000001e1 .LLST7
     /tmp/ccSjKndB.s:3122   .debug_loc:0000000000000205 .LLST8
     /tmp/ccSjKndB.s:173    .text:00000000000000cc .LVL14
     /tmp/ccSjKndB.s:177    .text:00000000000000d4 .LVL15
     /tmp/ccSjKndB.s:306    .text:0000000000000178 .LFB39
     /tmp/ccSjKndB.s:361    .text:00000000000001cc .LFE39
     /tmp/ccSjKndB.s:3129   .debug_loc:0000000000000228 .LLST14
     /tmp/ccSjKndB.s:342    .text:00000000000001b0 .LVL30
     /tmp/ccSjKndB.s:194    .text:00000000000000e4 .LFB38
     /tmp/ccSjKndB.s:252    .text:000000000000013c .LFE38
     /tmp/ccSjKndB.s:3165   .debug_loc:00000000000002b3 .LLST9
     /tmp/ccSjKndB.s:232    .text:0000000000000120 .LVL19
     /tmp/ccSjKndB.s:75     .text:0000000000000050 .LFB37
     /tmp/ccSjKndB.s:129    .text:000000000000009c .LFE37
     /tmp/ccSjKndB.s:3201   .debug_loc:000000000000033e .LLST2
     /tmp/ccSjKndB.s:96     .text:0000000000000074 .LBB25
     /tmp/ccSjKndB.s:116    .text:0000000000000088 .LBE25
     /tmp/ccSjKndB.s:3215   .debug_loc:0000000000000377 .LLST3
     /tmp/ccSjKndB.s:3222   .debug_loc:000000000000039a .LLST4
     /tmp/ccSjKndB.s:102    .text:0000000000000078 .LBB27
     /tmp/ccSjKndB.s:110    .text:0000000000000080 .LBE27
     /tmp/ccSjKndB.s:3229   .debug_loc:00000000000003bd .LLST5
     /tmp/ccSjKndB.s:95     .text:0000000000000074 .LVL6
     /tmp/ccSjKndB.s:43     .text:0000000000000028 .LFB36
     /tmp/ccSjKndB.s:69     .text:0000000000000050 .LFE36
     /tmp/ccSjKndB.s:3238   .debug_loc:00000000000003e2 .LLST1
     /tmp/ccSjKndB.s:58     .text:0000000000000040 .LVL3
     /tmp/ccSjKndB.s:10     .text:0000000000000000 .LFB35
     /tmp/ccSjKndB.s:37     .text:0000000000000028 .LFE35
     /tmp/ccSjKndB.s:3427   .debug_str:00000000000003fe .LASF130
     /tmp/ccSjKndB.s:3252   .debug_loc:000000000000041b .LLST0
     /tmp/ccSjKndB.s:26     .text:0000000000000018 .LVL1
     /tmp/ccSjKndB.s:3315   .debug_str:0000000000000103 .LASF131
     /tmp/ccSjKndB.s:3517   .debug_str:0000000000000685 .LASF132
GAS LISTING /tmp/ccSjKndB.s 			page 20


     /tmp/ccSjKndB.s:3343   .debug_str:00000000000001ad .LASF133
     /tmp/ccSjKndB.s:3355   .debug_str:00000000000001f4 .LASF134
     /tmp/ccSjKndB.s:3379   .debug_str:00000000000002b5 .LASF136
     /tmp/ccSjKndB.s:3503   .debug_str:0000000000000635 .LASF135
     /tmp/ccSjKndB.s:3283   .debug_str:000000000000001f .LASF137
     /tmp/ccSjKndB.s:370    .text:00000000000001cc .LVL33
     /tmp/ccSjKndB.s:385    .text:00000000000001e8 .LVL34
     /tmp/ccSjKndB.s:434    .text:0000000000000220 .LVL39
     /tmp/ccSjKndB.s:413    .text:0000000000000204 .LVL37
     /tmp/ccSjKndB.s:394    .text:00000000000001ec .LVL35
     /tmp/ccSjKndB.s:261    .text:000000000000013c .LVL22
     /tmp/ccSjKndB.s:273    .text:0000000000000150 .LVL23
     /tmp/ccSjKndB.s:283    .text:0000000000000160 .LVL25
     /tmp/ccSjKndB.s:138    .text:000000000000009c .LVL10
     /tmp/ccSjKndB.s:171    .text:00000000000000c4 .LVL13
     /tmp/ccSjKndB.s:155    .text:00000000000000b8 .LVL11
     /tmp/ccSjKndB.s:164    .text:00000000000000c0 .LVL12
     /tmp/ccSjKndB.s:309    .text:0000000000000178 .LVL27
     /tmp/ccSjKndB.s:325    .text:0000000000000194 .LVL28
     /tmp/ccSjKndB.s:328    .text:0000000000000198 .LVL29
     /tmp/ccSjKndB.s:354    .text:00000000000001c4 .LVL31
     /tmp/ccSjKndB.s:358    .text:00000000000001c8 .LVL32
     /tmp/ccSjKndB.s:197    .text:00000000000000e4 .LVL16
     /tmp/ccSjKndB.s:215    .text:0000000000000104 .LVL17
     /tmp/ccSjKndB.s:218    .text:0000000000000108 .LVL18
     /tmp/ccSjKndB.s:245    .text:0000000000000134 .LVL20
     /tmp/ccSjKndB.s:249    .text:0000000000000138 .LVL21
     /tmp/ccSjKndB.s:78     .text:0000000000000050 .LVL4
     /tmp/ccSjKndB.s:93     .text:000000000000006c .LVL5
     /tmp/ccSjKndB.s:114    .text:0000000000000088 .LVL9
     /tmp/ccSjKndB.s:101    .text:0000000000000078 .LVL7
     /tmp/ccSjKndB.s:108    .text:0000000000000080 .LVL8
     /tmp/ccSjKndB.s:46     .text:0000000000000028 .LVL2
     /tmp/ccSjKndB.s:14     .text:0000000000000000 .LVL0
     /tmp/ccSjKndB.s:446    .debug_info:0000000000000000 .Ldebug_info0

UNDEFINED SYMBOLS
_Z9mem_allocm
_Z8mem_freePv
_ZN3TCB7runningE
_ZN11ThreadQueue7putLastEP3TCB
_ZN3TCB8dispatchEv
_ZN11ThreadQueue8getFirstEv
_ZN9Scheduler3putEP3TCB
