GAS LISTING /tmp/ccee24fD.s 			page 1


   1              		.file	"KSem.cpp"
   2              		.option pic
   3              		.option norelax
   4              		.text
   5              	.Ltext0:
   6              		.align	2
   7              		.globl	_ZN4KSemnwEm
   9              	_ZN4KSemnwEm:
  10              	.LFB31:
  11              		.file 1 "src/KSem.cpp"
   1:src/KSem.cpp  **** //
   2:src/KSem.cpp  **** // Created by os on 6/4/23.
   3:src/KSem.cpp  **** //
   4:src/KSem.cpp  **** 
   5:src/KSem.cpp  **** #include "../h/KSem.hpp"
   6:src/KSem.cpp  **** #include "../h/TCB.hpp"
   7:src/KSem.cpp  **** #include "../h/Scheduler.hpp"
   8:src/KSem.cpp  **** 
   9:src/KSem.cpp  **** void* KSem::operator new(size_t size) {
  12              		.loc 1 9 39
  13              		.cfi_startproc
  14              	.LVL0:
  15 0000 130101FF 		addi	sp,sp,-16
  16              		.cfi_def_cfa_offset 16
  17 0004 23341100 		sd	ra,8(sp)
  18 0008 23308100 		sd	s0,0(sp)
  19              		.cfi_offset 1, -8
  20              		.cfi_offset 8, -16
  21 000c 13040101 		addi	s0,sp,16
  22              		.cfi_def_cfa 8, 0
  10:src/KSem.cpp  ****     return mem_alloc(size);
  23              		.loc 1 10 5
  24              		.loc 1 10 21 is_stmt 0
  25 0010 97000000 		call	_Z9mem_allocm@plt
  25      E7800000 
  26              	.LVL1:
  11:src/KSem.cpp  **** }
  27              		.loc 1 11 1
  28 0018 83308100 		ld	ra,8(sp)
  29              		.cfi_restore 1
  30 001c 03340100 		ld	s0,0(sp)
  31              		.cfi_restore 8
  32              		.cfi_def_cfa 2, 16
  33 0020 13010101 		addi	sp,sp,16
  34              		.cfi_def_cfa_offset 0
  35 0024 67800000 		jr	ra
  36              		.cfi_endproc
  37              	.LFE31:
  39              		.align	2
  40              		.globl	_ZN4KSemdlEPv
  42              	_ZN4KSemdlEPv:
  43              	.LFB32:
  12:src/KSem.cpp  **** 
  13:src/KSem.cpp  **** void KSem::operator delete(void* ptr) {
  44              		.loc 1 13 39 is_stmt 1
  45              		.cfi_startproc
  46              	.LVL2:
GAS LISTING /tmp/ccee24fD.s 			page 2


  47 0028 130101FF 		addi	sp,sp,-16
  48              		.cfi_def_cfa_offset 16
  49 002c 23341100 		sd	ra,8(sp)
  50 0030 23308100 		sd	s0,0(sp)
  51              		.cfi_offset 1, -8
  52              		.cfi_offset 8, -16
  53 0034 13040101 		addi	s0,sp,16
  54              		.cfi_def_cfa 8, 0
  14:src/KSem.cpp  ****     mem_free(ptr);
  55              		.loc 1 14 5
  56              		.loc 1 14 13 is_stmt 0
  57 0038 97000000 		call	_Z8mem_freePv@plt
  57      E7800000 
  58              	.LVL3:
  15:src/KSem.cpp  **** }
  59              		.loc 1 15 1
  60 0040 83308100 		ld	ra,8(sp)
  61              		.cfi_restore 1
  62 0044 03340100 		ld	s0,0(sp)
  63              		.cfi_restore 8
  64              		.cfi_def_cfa 2, 16
  65 0048 13010101 		addi	sp,sp,16
  66              		.cfi_def_cfa_offset 0
  67 004c 67800000 		jr	ra
  68              		.cfi_endproc
  69              	.LFE32:
  71              		.align	2
  72              		.globl	_ZN4KSem7initSemEj
  74              	_ZN4KSem7initSemEj:
  75              	.LFB33:
  16:src/KSem.cpp  **** 
  17:src/KSem.cpp  **** KSem* KSem::initSem(uint val) {
  76              		.loc 1 17 31 is_stmt 1
  77              		.cfi_startproc
  78              	.LVL4:
  79 0050 130101FE 		addi	sp,sp,-32
  80              		.cfi_def_cfa_offset 32
  81 0054 233C1100 		sd	ra,24(sp)
  82 0058 23388100 		sd	s0,16(sp)
  83 005c 23349100 		sd	s1,8(sp)
  84              		.cfi_offset 1, -8
  85              		.cfi_offset 8, -16
  86              		.cfi_offset 9, -24
  87 0060 13040102 		addi	s0,sp,32
  88              		.cfi_def_cfa 8, 0
  89 0064 93040500 		mv	s1,a0
  18:src/KSem.cpp  **** 	return new KSem(val);
  90              		.loc 1 18 2
  91              		.loc 1 18 21 is_stmt 0
  92 0068 13058001 		li	a0,24
  93              	.LVL5:
  94 006c 97000000 		call	_ZN4KSemnwEm
  94      E7800000 
  95              	.LVL6:
  96              	.LBB21:
  97              	.LBB22:
  98              		.file 2 "src/../h/KSem.hpp"
GAS LISTING /tmp/ccee24fD.s 			page 3


   1:src/../h/KSem.hpp **** //
   2:src/../h/KSem.hpp **** // Created by os on 6/4/23.
   3:src/../h/KSem.hpp **** //
   4:src/../h/KSem.hpp **** 
   5:src/../h/KSem.hpp **** #ifndef PROJEKAT2023_KSEM_HPP
   6:src/../h/KSem.hpp **** #define PROJEKAT2023_KSEM_HPP
   7:src/../h/KSem.hpp **** 
   8:src/../h/KSem.hpp **** #include "../h/ThreadQueue.hpp"
   9:src/../h/KSem.hpp **** 
  10:src/../h/KSem.hpp **** //klasa napravljena po uzoru na semafor u skolskom jezgru
  11:src/../h/KSem.hpp **** class KSem {
  12:src/../h/KSem.hpp **** public:
  13:src/../h/KSem.hpp **** 	static KSem* initSem(uint val);
  14:src/../h/KSem.hpp **** 
  15:src/../h/KSem.hpp **** 	int wait();
  16:src/../h/KSem.hpp **** 
  17:src/../h/KSem.hpp **** 	int signal();
  18:src/../h/KSem.hpp **** 
  19:src/../h/KSem.hpp ****     //deaktiviranje semafora i oslobadjanje svih niti koje cekaju na njemu
  20:src/../h/KSem.hpp **** 	static int closeSem(sem_t handle);
  21:src/../h/KSem.hpp **** 
  22:src/../h/KSem.hpp **** 	static void* operator new(size_t size);
  23:src/../h/KSem.hpp **** 
  24:src/../h/KSem.hpp **** 	static void operator delete(void* ptr);
  25:src/../h/KSem.hpp **** 
  26:src/../h/KSem.hpp **** protected:
  27:src/../h/KSem.hpp **** 	void block();
  28:src/../h/KSem.hpp **** 
  29:src/../h/KSem.hpp **** 	void unblock();
  30:src/../h/KSem.hpp **** 
  31:src/../h/KSem.hpp **** private:
  32:src/../h/KSem.hpp **** 	KSem(uint val) : val(val) {}
  99              		.loc 2 32 26
 100 0074 23209500 		sw	s1,0(a0)
 101              	.LVL7:
 102              	.LBB23:
 103              	.LBB24:
 104              		.file 3 "src/../h/../h/ThreadQueue.hpp"
   1:src/../h/../h/ThreadQueue.hpp **** //
   2:src/../h/../h/ThreadQueue.hpp **** // Created by os on 6/4/23.
   3:src/../h/../h/ThreadQueue.hpp **** //
   4:src/../h/../h/ThreadQueue.hpp **** 
   5:src/../h/../h/ThreadQueue.hpp **** #ifndef PROJEKAT2023_THREADQUEUE_HPP
   6:src/../h/../h/ThreadQueue.hpp **** #define PROJEKAT2023_THREADQUEUE_HPP
   7:src/../h/../h/ThreadQueue.hpp **** 
   8:src/../h/../h/ThreadQueue.hpp **** #include "../h/syscall_c.hpp"
   9:src/../h/../h/ThreadQueue.hpp **** 
  10:src/../h/../h/ThreadQueue.hpp **** class TCB;
  11:src/../h/../h/ThreadQueue.hpp **** 
  12:src/../h/../h/ThreadQueue.hpp **** class ThreadQueue {
  13:src/../h/../h/ThreadQueue.hpp **** private:
  14:src/../h/../h/ThreadQueue.hpp ****     struct Node {
  15:src/../h/../h/ThreadQueue.hpp ****         TCB* data;
  16:src/../h/../h/ThreadQueue.hpp ****         Node* next;
  17:src/../h/../h/ThreadQueue.hpp **** 
  18:src/../h/../h/ThreadQueue.hpp ****         Node(TCB* d) : data(d), next(nullptr) {}
  19:src/../h/../h/ThreadQueue.hpp **** 
GAS LISTING /tmp/ccee24fD.s 			page 4


  20:src/../h/../h/ThreadQueue.hpp ****         static void* operator new(size_t size) {
  21:src/../h/../h/ThreadQueue.hpp ****             return mem_alloc(size);
  22:src/../h/../h/ThreadQueue.hpp ****         }
  23:src/../h/../h/ThreadQueue.hpp **** 
  24:src/../h/../h/ThreadQueue.hpp ****         static void operator delete(void* ptr) {
  25:src/../h/../h/ThreadQueue.hpp ****             mem_free(ptr);
  26:src/../h/../h/ThreadQueue.hpp ****         }
  27:src/../h/../h/ThreadQueue.hpp ****     };
  28:src/../h/../h/ThreadQueue.hpp **** 
  29:src/../h/../h/ThreadQueue.hpp ****     Node* front;
  30:src/../h/../h/ThreadQueue.hpp ****     Node* back;
  31:src/../h/../h/ThreadQueue.hpp **** 
  32:src/../h/../h/ThreadQueue.hpp **** public:
  33:src/../h/../h/ThreadQueue.hpp ****     ThreadQueue() : front(nullptr), back(nullptr) {}
 105              		.loc 3 33 49
 106 0078 23340500 		sd	zero,8(a0)
 107 007c 23380500 		sd	zero,16(a0)
 108              	.LVL8:
 109              	.LBE24:
 110              	.LBE23:
 111              	.LBE22:
 112              	.LBE21:
  19:src/KSem.cpp  **** }
 113              		.loc 1 19 1
 114 0080 83308101 		ld	ra,24(sp)
 115              		.cfi_restore 1
 116 0084 03340101 		ld	s0,16(sp)
 117              		.cfi_restore 8
 118              		.cfi_def_cfa 2, 32
 119 0088 83348100 		ld	s1,8(sp)
 120              		.cfi_restore 9
 121 008c 13010102 		addi	sp,sp,32
 122              		.cfi_def_cfa_offset 0
 123 0090 67800000 		jr	ra
 124              		.cfi_endproc
 125              	.LFE33:
 127              		.align	2
 128              		.globl	_ZN4KSem5blockEv
 130              	_ZN4KSem5blockEv:
 131              	.LFB36:
  20:src/KSem.cpp  **** 
  21:src/KSem.cpp  **** int KSem::wait() {
  22:src/KSem.cpp  **** 	if (--val < 0) {
  23:src/KSem.cpp  **** 		block();
  24:src/KSem.cpp  **** 		return -1;
  25:src/KSem.cpp  **** 	}
  26:src/KSem.cpp  **** 	return 0;
  27:src/KSem.cpp  **** }
  28:src/KSem.cpp  **** 
  29:src/KSem.cpp  **** int KSem::signal() {
  30:src/KSem.cpp  **** 	if (val++ < 0) {
  31:src/KSem.cpp  **** 		unblock();
  32:src/KSem.cpp  **** 	}
  33:src/KSem.cpp  **** 	return 0;
  34:src/KSem.cpp  **** }
  35:src/KSem.cpp  **** 
  36:src/KSem.cpp  **** void KSem::block() {
GAS LISTING /tmp/ccee24fD.s 			page 5


 132              		.loc 1 36 20 is_stmt 1
 133              		.cfi_startproc
 134              	.LVL9:
 135 0094 130101FF 		addi	sp,sp,-16
 136              		.cfi_def_cfa_offset 16
 137 0098 23341100 		sd	ra,8(sp)
 138 009c 23308100 		sd	s0,0(sp)
 139              		.cfi_offset 1, -8
 140              		.cfi_offset 8, -16
 141 00a0 13040101 		addi	s0,sp,16
 142              		.cfi_def_cfa 8, 0
  37:src/KSem.cpp  ****     TCB::getRunning()->setStatus(TCB::BLOCKED);
 143              		.loc 1 37 5
 144              	.LBB25:
 145              	.LBB26:
 146              		.file 4 "src/../h/TCB.hpp"
   1:src/../h/TCB.hpp **** //
   2:src/../h/TCB.hpp **** // Created by os on 5/23/23.
   3:src/../h/TCB.hpp **** //
   4:src/../h/TCB.hpp **** 
   5:src/../h/TCB.hpp **** #ifndef PROJEKAT2023_TCB_HPP
   6:src/../h/TCB.hpp **** #define PROJEKAT2023_TCB_HPP
   7:src/../h/TCB.hpp **** 
   8:src/../h/TCB.hpp **** #include "../lib/hw.h"
   9:src/../h/TCB.hpp **** #include "../h/ThreadQueue.hpp"
  10:src/../h/TCB.hpp **** 
  11:src/../h/TCB.hpp **** int main();
  12:src/../h/TCB.hpp **** 
  13:src/../h/TCB.hpp **** class TCB {
  14:src/../h/TCB.hpp **** public:
  15:src/../h/TCB.hpp ****     friend class Scheduler;
  16:src/../h/TCB.hpp **** 
  17:src/../h/TCB.hpp ****     using Body = void (*)(void*);
  18:src/../h/TCB.hpp **** 
  19:src/../h/TCB.hpp ****     enum ThreadStatus {
  20:src/../h/TCB.hpp ****         CREATED, ACTIVE, BLOCKED, JOINING, SLEEPING, FINISHED
  21:src/../h/TCB.hpp ****     };
  22:src/../h/TCB.hpp **** 
  23:src/../h/TCB.hpp ****     void setStatus(ThreadStatus stat) { this->status = stat; }
  24:src/../h/TCB.hpp **** 
  25:src/../h/TCB.hpp ****     ThreadStatus getStatus() { return this->status; }
  26:src/../h/TCB.hpp **** 
  27:src/../h/TCB.hpp ****     static TCB* createThread(Body function, void* args, uint64* stack);
  28:src/../h/TCB.hpp **** 
  29:src/../h/TCB.hpp ****     uint64 getTimeSlice() { return timeSlice; }
  30:src/../h/TCB.hpp **** 
  31:src/../h/TCB.hpp ****     void setTimeSlice(uint64 value) { timeSlice = value; }
  32:src/../h/TCB.hpp **** 
  33:src/../h/TCB.hpp ****     Body getBody() { return threadFunction; }
  34:src/../h/TCB.hpp **** 
  35:src/../h/TCB.hpp ****     static TCB* getRunning() { return running; }
 147              		.loc 4 35 32
 148              		.loc 4 35 39 is_stmt 0
 149 00a4 97070000 		la	a5,_ZN3TCB7runningE
 149      83B70700 
 150 00ac 83B50700 		ld	a1,0(a5)
 151              	.LVL10:
GAS LISTING /tmp/ccee24fD.s 			page 6


 152              	.LBE26:
 153              	.LBE25:
 154              	.LBB27:
 155              	.LBB28:
  23:src/../h/TCB.hpp **** 
 156              		.loc 4 23 41 is_stmt 1
  23:src/../h/TCB.hpp **** 
 157              		.loc 4 23 54 is_stmt 0
 158 00b0 93072000 		li	a5,2
 159 00b4 23ACF504 		sw	a5,88(a1)
 160              	.LVL11:
 161              	.LBE28:
 162              	.LBE27:
  38:src/KSem.cpp  **** 	blocked.putLast(TCB::getRunning());
 163              		.loc 1 38 2 is_stmt 1
 164              		.loc 4 35 32
 165              		.loc 1 38 17 is_stmt 0
 166 00b8 13058500 		addi	a0,a0,8
 167              	.LVL12:
 168 00bc 97000000 		call	_ZN11ThreadQueue7putLastEP3TCB@plt
 168      E7800000 
 169              	.LVL13:
  39:src/KSem.cpp  **** 	TCB::dispatch();
 170              		.loc 1 39 2 is_stmt 1
 171              		.loc 1 39 15 is_stmt 0
 172 00c4 97000000 		call	_ZN3TCB8dispatchEv@plt
 172      E7800000 
 173              	.LVL14:
  40:src/KSem.cpp  **** }
 174              		.loc 1 40 1
 175 00cc 83308100 		ld	ra,8(sp)
 176              		.cfi_restore 1
 177 00d0 03340100 		ld	s0,0(sp)
 178              		.cfi_restore 8
 179              		.cfi_def_cfa 2, 16
 180 00d4 13010101 		addi	sp,sp,16
 181              		.cfi_def_cfa_offset 0
 182 00d8 67800000 		jr	ra
 183              		.cfi_endproc
 184              	.LFE36:
 186              		.align	2
 187              		.globl	_ZN4KSem4waitEv
 189              	_ZN4KSem4waitEv:
 190              	.LFB34:
  21:src/KSem.cpp  **** 	if (--val < 0) {
 191              		.loc 1 21 18 is_stmt 1
 192              		.cfi_startproc
 193              	.LVL15:
  22:src/KSem.cpp  **** 		block();
 194              		.loc 1 22 2
  22:src/KSem.cpp  **** 		block();
 195              		.loc 1 22 8 is_stmt 0
 196 00dc 83270500 		lw	a5,0(a0)
  22:src/KSem.cpp  **** 		block();
 197              		.loc 1 22 6
 198 00e0 9B87F7FF 		addiw	a5,a5,-1
  22:src/KSem.cpp  **** 		block();
GAS LISTING /tmp/ccee24fD.s 			page 7


 199              		.loc 1 22 12
 200 00e4 2320F500 		sw	a5,0(a0)
  22:src/KSem.cpp  **** 		block();
 201              		.loc 1 22 2
 202 00e8 13970702 		slli	a4,a5,32
 203 00ec 63460700 		bltz	a4,.L16
  26:src/KSem.cpp  **** }
 204              		.loc 1 26 9
 205 00f0 13050000 		li	a0,0
 206              	.LVL16:
  27:src/KSem.cpp  **** 
 207              		.loc 1 27 1
 208 00f4 67800000 		ret
 209              	.LVL17:
 210              	.L16:
  21:src/KSem.cpp  **** 	if (--val < 0) {
 211              		.loc 1 21 18
 212 00f8 130101FF 		addi	sp,sp,-16
 213              		.cfi_def_cfa_offset 16
 214 00fc 23341100 		sd	ra,8(sp)
 215 0100 23308100 		sd	s0,0(sp)
 216              		.cfi_offset 1, -8
 217              		.cfi_offset 8, -16
 218 0104 13040101 		addi	s0,sp,16
 219              		.cfi_def_cfa 8, 0
  23:src/KSem.cpp  **** 		return -1;
 220              		.loc 1 23 3 is_stmt 1
  23:src/KSem.cpp  **** 		return -1;
 221              		.loc 1 23 8 is_stmt 0
 222 0108 97000000 		call	_ZN4KSem5blockEv
 222      E7800000 
 223              	.LVL18:
  24:src/KSem.cpp  **** 	}
 224              		.loc 1 24 3 is_stmt 1
  24:src/KSem.cpp  **** 	}
 225              		.loc 1 24 11 is_stmt 0
 226 0110 1305F0FF 		li	a0,-1
  27:src/KSem.cpp  **** 
 227              		.loc 1 27 1
 228 0114 83308100 		ld	ra,8(sp)
 229              		.cfi_restore 1
 230 0118 03340100 		ld	s0,0(sp)
 231              		.cfi_restore 8
 232              		.cfi_def_cfa 2, 16
 233 011c 13010101 		addi	sp,sp,16
 234              		.cfi_def_cfa_offset 0
 235 0120 67800000 		jr	ra
 236              		.cfi_endproc
 237              	.LFE34:
 239              		.align	2
 240              		.globl	_ZN4KSem7unblockEv
 242              	_ZN4KSem7unblockEv:
 243              	.LFB37:
  41:src/KSem.cpp  **** 
  42:src/KSem.cpp  **** void KSem::unblock() {
 244              		.loc 1 42 22 is_stmt 1
 245              		.cfi_startproc
GAS LISTING /tmp/ccee24fD.s 			page 8


 246              	.LVL19:
 247 0124 130101FF 		addi	sp,sp,-16
 248              		.cfi_def_cfa_offset 16
 249 0128 23341100 		sd	ra,8(sp)
 250 012c 23308100 		sd	s0,0(sp)
 251              		.cfi_offset 1, -8
 252              		.cfi_offset 8, -16
 253 0130 13040101 		addi	s0,sp,16
 254              		.cfi_def_cfa 8, 0
  43:src/KSem.cpp  **** 	TCB* tcb = blocked.getFirst();
 255              		.loc 1 43 2
 256              		.loc 1 43 29 is_stmt 0
 257 0134 13058500 		addi	a0,a0,8
 258              	.LVL20:
 259 0138 97000000 		call	_ZN11ThreadQueue8getFirstEv@plt
 259      E7800000 
 260              	.LVL21:
  44:src/KSem.cpp  **** 	Scheduler::put(tcb);
 261              		.loc 1 44 2 is_stmt 1
 262              		.loc 1 44 16 is_stmt 0
 263 0140 97000000 		call	_ZN9Scheduler3putEP3TCB@plt
 263      E7800000 
 264              	.LVL22:
  45:src/KSem.cpp  **** }
 265              		.loc 1 45 1
 266 0148 83308100 		ld	ra,8(sp)
 267              		.cfi_restore 1
 268 014c 03340100 		ld	s0,0(sp)
 269              		.cfi_restore 8
 270              		.cfi_def_cfa 2, 16
 271 0150 13010101 		addi	sp,sp,16
 272              		.cfi_def_cfa_offset 0
 273 0154 67800000 		jr	ra
 274              		.cfi_endproc
 275              	.LFE37:
 277              		.align	2
 278              		.globl	_ZN4KSem6signalEv
 280              	_ZN4KSem6signalEv:
 281              	.LFB35:
  29:src/KSem.cpp  **** 	if (val++ < 0) {
 282              		.loc 1 29 20 is_stmt 1
 283              		.cfi_startproc
 284              	.LVL23:
  30:src/KSem.cpp  **** 		unblock();
 285              		.loc 1 30 2
  30:src/KSem.cpp  **** 		unblock();
 286              		.loc 1 30 6 is_stmt 0
 287 0158 83270500 		lw	a5,0(a0)
  30:src/KSem.cpp  **** 		unblock();
 288              		.loc 1 30 9
 289 015c 1B871700 		addiw	a4,a5,1
 290 0160 2320E500 		sw	a4,0(a0)
  30:src/KSem.cpp  **** 		unblock();
 291              		.loc 1 30 2
 292 0164 63C60700 		bltz	a5,.L25
  33:src/KSem.cpp  **** }
 293              		.loc 1 33 2 is_stmt 1
GAS LISTING /tmp/ccee24fD.s 			page 9


  34:src/KSem.cpp  **** 
 294              		.loc 1 34 1 is_stmt 0
 295 0168 13050000 		li	a0,0
 296              	.LVL24:
 297 016c 67800000 		ret
 298              	.LVL25:
 299              	.L25:
  29:src/KSem.cpp  **** 	if (val++ < 0) {
 300              		.loc 1 29 20
 301 0170 130101FF 		addi	sp,sp,-16
 302              		.cfi_def_cfa_offset 16
 303 0174 23341100 		sd	ra,8(sp)
 304 0178 23308100 		sd	s0,0(sp)
 305              		.cfi_offset 1, -8
 306              		.cfi_offset 8, -16
 307 017c 13040101 		addi	s0,sp,16
 308              		.cfi_def_cfa 8, 0
  31:src/KSem.cpp  **** 	}
 309              		.loc 1 31 3 is_stmt 1
  31:src/KSem.cpp  **** 	}
 310              		.loc 1 31 10 is_stmt 0
 311 0180 97000000 		call	_ZN4KSem7unblockEv
 311      E7800000 
 312              	.LVL26:
  33:src/KSem.cpp  **** }
 313              		.loc 1 33 2 is_stmt 1
  34:src/KSem.cpp  **** 
 314              		.loc 1 34 1 is_stmt 0
 315 0188 13050000 		li	a0,0
 316 018c 83308100 		ld	ra,8(sp)
 317              		.cfi_restore 1
 318 0190 03340100 		ld	s0,0(sp)
 319              		.cfi_restore 8
 320              		.cfi_def_cfa 2, 16
 321 0194 13010101 		addi	sp,sp,16
 322              		.cfi_def_cfa_offset 0
 323 0198 67800000 		jr	ra
 324              		.cfi_endproc
 325              	.LFE35:
 327              		.align	2
 328              		.globl	_ZN4KSem8closeSemEPS_
 330              	_ZN4KSem8closeSemEPS_:
 331              	.LFB38:
  46:src/KSem.cpp  **** 
  47:src/KSem.cpp  **** int KSem::closeSem(sem_t handle) {
 332              		.loc 1 47 34 is_stmt 1
 333              		.cfi_startproc
 334              	.LVL27:
 335 019c 130101FE 		addi	sp,sp,-32
 336              		.cfi_def_cfa_offset 32
 337 01a0 233C1100 		sd	ra,24(sp)
 338 01a4 23388100 		sd	s0,16(sp)
 339 01a8 23349100 		sd	s1,8(sp)
 340              		.cfi_offset 1, -8
 341              		.cfi_offset 8, -16
 342              		.cfi_offset 9, -24
 343 01ac 13040102 		addi	s0,sp,32
GAS LISTING /tmp/ccee24fD.s 			page 10


 344              		.cfi_def_cfa 8, 0
 345 01b0 93040500 		mv	s1,a0
 346              	.LVL28:
 347              	.L28:
  48:src/KSem.cpp  **** 	while (!handle->blocked.isEmpty()) {
 348              		.loc 1 48 2
 349              		.loc 1 48 9
 350              	.LBB29:
 351              	.LBB30:
  34:src/../h/../h/ThreadQueue.hpp **** 
  35:src/../h/../h/ThreadQueue.hpp ****     ThreadQueue(const ThreadQueue &) = delete;
  36:src/../h/../h/ThreadQueue.hpp **** 
  37:src/../h/../h/ThreadQueue.hpp ****     ThreadQueue &operator=(const ThreadQueue &) = delete;
  38:src/../h/../h/ThreadQueue.hpp **** 
  39:src/../h/../h/ThreadQueue.hpp ****     ~ThreadQueue() {
  40:src/../h/../h/ThreadQueue.hpp ****         while (!isEmpty()) {
  41:src/../h/../h/ThreadQueue.hpp ****             Node* node = front;
  42:src/../h/../h/ThreadQueue.hpp ****             front = front->next;
  43:src/../h/../h/ThreadQueue.hpp ****             delete node;
  44:src/../h/../h/ThreadQueue.hpp ****         }
  45:src/../h/../h/ThreadQueue.hpp ****     }
  46:src/../h/../h/ThreadQueue.hpp **** 
  47:src/../h/../h/ThreadQueue.hpp ****     bool isEmpty() const {
  48:src/../h/../h/ThreadQueue.hpp ****         return front == nullptr;
 352              		.loc 3 48 9
 353              		.loc 3 48 16 is_stmt 0
 354 01b4 83B78400 		ld	a5,8(s1)
 355              	.LVL29:
 356              	.LBE30:
 357              	.LBE29:
 358              		.loc 1 48 9
 359 01b8 638E0700 		beqz	a5,.L27
 360              	.LBB31:
  49:src/KSem.cpp  **** 		TCB* tcb = handle->blocked.getFirst();
 361              		.loc 1 49 3 is_stmt 1
 362              		.loc 1 49 38 is_stmt 0
 363 01bc 13858400 		addi	a0,s1,8
 364 01c0 97000000 		call	_ZN11ThreadQueue8getFirstEv@plt
 364      E7800000 
 365              	.LVL30:
  50:src/KSem.cpp  **** 		Scheduler::put(tcb);
 366              		.loc 1 50 3 is_stmt 1
 367              		.loc 1 50 17 is_stmt 0
 368 01c8 97000000 		call	_ZN9Scheduler3putEP3TCB@plt
 368      E7800000 
 369              	.LVL31:
 370              	.LBE31:
  48:src/KSem.cpp  **** 		TCB* tcb = handle->blocked.getFirst();
 371              		.loc 1 48 2
 372 01d0 6FF05FFE 		j	.L28
 373              	.L27:
  51:src/KSem.cpp  **** 	}
  52:src/KSem.cpp  **** 	return 0;
 374              		.loc 1 52 2 is_stmt 1
  53:src/KSem.cpp  **** }
 375              		.loc 1 53 1 is_stmt 0
 376 01d4 13050000 		li	a0,0
GAS LISTING /tmp/ccee24fD.s 			page 11


 377 01d8 83308101 		ld	ra,24(sp)
 378              		.cfi_restore 1
 379 01dc 03340101 		ld	s0,16(sp)
 380              		.cfi_restore 8
 381              		.cfi_def_cfa 2, 32
 382 01e0 83348100 		ld	s1,8(sp)
 383              		.cfi_restore 9
 384              	.LVL32:
 385 01e4 13010102 		addi	sp,sp,32
 386              		.cfi_def_cfa_offset 0
 387 01e8 67800000 		jr	ra
 388              		.cfi_endproc
 389              	.LFE38:
 391              	.Letext0:
 392              		.file 5 "src/../h/../h/../h/../lib/hw.h"
 393              		.file 6 "src/../h/../h/../h/syscall_c.hpp"
 394              		.file 7 "src/../h/Scheduler.hpp"
GAS LISTING /tmp/ccee24fD.s 			page 12


DEFINED SYMBOLS
                            *ABS*:0000000000000000 KSem.cpp
     /tmp/ccee24fD.s:9      .text:0000000000000000 _ZN4KSemnwEm
     /tmp/ccee24fD.s:13     .text:0000000000000000 .L0 
     /tmp/ccee24fD.s:15     .text:0000000000000000 .L0 
     /tmp/ccee24fD.s:16     .text:0000000000000004 .L0 
     /tmp/ccee24fD.s:19     .text:000000000000000c .L0 
     /tmp/ccee24fD.s:20     .text:000000000000000c .L0 
     /tmp/ccee24fD.s:22     .text:0000000000000010 .L0 
     /tmp/ccee24fD.s:24     .text:0000000000000010 .L0 
     /tmp/ccee24fD.s:25     .text:0000000000000010 .L0 
     /tmp/ccee24fD.s:28     .text:0000000000000018 .L0 
     /tmp/ccee24fD.s:29     .text:000000000000001c .L0 
     /tmp/ccee24fD.s:31     .text:0000000000000020 .L0 
     /tmp/ccee24fD.s:32     .text:0000000000000020 .L0 
     /tmp/ccee24fD.s:34     .text:0000000000000024 .L0 
     /tmp/ccee24fD.s:36     .text:0000000000000028 .L0 
     /tmp/ccee24fD.s:42     .text:0000000000000028 _ZN4KSemdlEPv
     /tmp/ccee24fD.s:45     .text:0000000000000028 .L0 
     /tmp/ccee24fD.s:47     .text:0000000000000028 .L0 
     /tmp/ccee24fD.s:48     .text:000000000000002c .L0 
     /tmp/ccee24fD.s:51     .text:0000000000000034 .L0 
     /tmp/ccee24fD.s:52     .text:0000000000000034 .L0 
     /tmp/ccee24fD.s:54     .text:0000000000000038 .L0 
     /tmp/ccee24fD.s:56     .text:0000000000000038 .L0 
     /tmp/ccee24fD.s:57     .text:0000000000000038 .L0 
     /tmp/ccee24fD.s:60     .text:0000000000000040 .L0 
     /tmp/ccee24fD.s:61     .text:0000000000000044 .L0 
     /tmp/ccee24fD.s:63     .text:0000000000000048 .L0 
     /tmp/ccee24fD.s:64     .text:0000000000000048 .L0 
     /tmp/ccee24fD.s:66     .text:000000000000004c .L0 
     /tmp/ccee24fD.s:68     .text:0000000000000050 .L0 
     /tmp/ccee24fD.s:74     .text:0000000000000050 _ZN4KSem7initSemEj
     /tmp/ccee24fD.s:77     .text:0000000000000050 .L0 
     /tmp/ccee24fD.s:79     .text:0000000000000050 .L0 
     /tmp/ccee24fD.s:80     .text:0000000000000054 .L0 
     /tmp/ccee24fD.s:84     .text:0000000000000060 .L0 
     /tmp/ccee24fD.s:85     .text:0000000000000060 .L0 
     /tmp/ccee24fD.s:86     .text:0000000000000060 .L0 
     /tmp/ccee24fD.s:88     .text:0000000000000064 .L0 
     /tmp/ccee24fD.s:91     .text:0000000000000068 .L0 
     /tmp/ccee24fD.s:92     .text:0000000000000068 .L0 
     /tmp/ccee24fD.s:100    .text:0000000000000074 .L0 
     /tmp/ccee24fD.s:106    .text:0000000000000078 .L0 
     /tmp/ccee24fD.s:114    .text:0000000000000080 .L0 
     /tmp/ccee24fD.s:115    .text:0000000000000084 .L0 
     /tmp/ccee24fD.s:117    .text:0000000000000088 .L0 
     /tmp/ccee24fD.s:118    .text:0000000000000088 .L0 
     /tmp/ccee24fD.s:120    .text:000000000000008c .L0 
     /tmp/ccee24fD.s:122    .text:0000000000000090 .L0 
     /tmp/ccee24fD.s:124    .text:0000000000000094 .L0 
     /tmp/ccee24fD.s:130    .text:0000000000000094 _ZN4KSem5blockEv
     /tmp/ccee24fD.s:133    .text:0000000000000094 .L0 
     /tmp/ccee24fD.s:135    .text:0000000000000094 .L0 
     /tmp/ccee24fD.s:136    .text:0000000000000098 .L0 
     /tmp/ccee24fD.s:139    .text:00000000000000a0 .L0 
     /tmp/ccee24fD.s:140    .text:00000000000000a0 .L0 
GAS LISTING /tmp/ccee24fD.s 			page 13


     /tmp/ccee24fD.s:142    .text:00000000000000a4 .L0 
     /tmp/ccee24fD.s:147    .text:00000000000000a4 .L0 
     /tmp/ccee24fD.s:148    .text:00000000000000a4 .L0 
     /tmp/ccee24fD.s:149    .text:00000000000000a4 .L0 
     /tmp/ccee24fD.s:157    .text:00000000000000b0 .L0 
     /tmp/ccee24fD.s:158    .text:00000000000000b0 .L0 
     /tmp/ccee24fD.s:164    .text:00000000000000b8 .L0 
     /tmp/ccee24fD.s:165    .text:00000000000000b8 .L0 
     /tmp/ccee24fD.s:166    .text:00000000000000b8 .L0 
     /tmp/ccee24fD.s:171    .text:00000000000000c4 .L0 
     /tmp/ccee24fD.s:172    .text:00000000000000c4 .L0 
     /tmp/ccee24fD.s:175    .text:00000000000000cc .L0 
     /tmp/ccee24fD.s:176    .text:00000000000000d0 .L0 
     /tmp/ccee24fD.s:178    .text:00000000000000d4 .L0 
     /tmp/ccee24fD.s:179    .text:00000000000000d4 .L0 
     /tmp/ccee24fD.s:181    .text:00000000000000d8 .L0 
     /tmp/ccee24fD.s:183    .text:00000000000000dc .L0 
     /tmp/ccee24fD.s:189    .text:00000000000000dc _ZN4KSem4waitEv
     /tmp/ccee24fD.s:192    .text:00000000000000dc .L0 
     /tmp/ccee24fD.s:194    .text:00000000000000dc .L0 
     /tmp/ccee24fD.s:195    .text:00000000000000dc .L0 
     /tmp/ccee24fD.s:196    .text:00000000000000dc .L0 
     /tmp/ccee24fD.s:198    .text:00000000000000e0 .L0 
     /tmp/ccee24fD.s:200    .text:00000000000000e4 .L0 
     /tmp/ccee24fD.s:202    .text:00000000000000e8 .L0 
     /tmp/ccee24fD.s:205    .text:00000000000000f0 .L0 
     /tmp/ccee24fD.s:208    .text:00000000000000f4 .L0 
     /tmp/ccee24fD.s:212    .text:00000000000000f8 .L0 
     /tmp/ccee24fD.s:213    .text:00000000000000fc .L0 
     /tmp/ccee24fD.s:216    .text:0000000000000104 .L0 
     /tmp/ccee24fD.s:217    .text:0000000000000104 .L0 
     /tmp/ccee24fD.s:219    .text:0000000000000108 .L0 
     /tmp/ccee24fD.s:221    .text:0000000000000108 .L0 
     /tmp/ccee24fD.s:222    .text:0000000000000108 .L0 
     /tmp/ccee24fD.s:225    .text:0000000000000110 .L0 
     /tmp/ccee24fD.s:226    .text:0000000000000110 .L0 
     /tmp/ccee24fD.s:228    .text:0000000000000114 .L0 
     /tmp/ccee24fD.s:229    .text:0000000000000118 .L0 
     /tmp/ccee24fD.s:231    .text:000000000000011c .L0 
     /tmp/ccee24fD.s:232    .text:000000000000011c .L0 
     /tmp/ccee24fD.s:234    .text:0000000000000120 .L0 
     /tmp/ccee24fD.s:236    .text:0000000000000124 .L0 
     /tmp/ccee24fD.s:242    .text:0000000000000124 _ZN4KSem7unblockEv
     /tmp/ccee24fD.s:245    .text:0000000000000124 .L0 
     /tmp/ccee24fD.s:247    .text:0000000000000124 .L0 
     /tmp/ccee24fD.s:248    .text:0000000000000128 .L0 
     /tmp/ccee24fD.s:251    .text:0000000000000130 .L0 
     /tmp/ccee24fD.s:252    .text:0000000000000130 .L0 
     /tmp/ccee24fD.s:254    .text:0000000000000134 .L0 
     /tmp/ccee24fD.s:256    .text:0000000000000134 .L0 
     /tmp/ccee24fD.s:257    .text:0000000000000134 .L0 
     /tmp/ccee24fD.s:262    .text:0000000000000140 .L0 
     /tmp/ccee24fD.s:263    .text:0000000000000140 .L0 
     /tmp/ccee24fD.s:266    .text:0000000000000148 .L0 
     /tmp/ccee24fD.s:267    .text:000000000000014c .L0 
     /tmp/ccee24fD.s:269    .text:0000000000000150 .L0 
     /tmp/ccee24fD.s:270    .text:0000000000000150 .L0 
GAS LISTING /tmp/ccee24fD.s 			page 14


     /tmp/ccee24fD.s:272    .text:0000000000000154 .L0 
     /tmp/ccee24fD.s:274    .text:0000000000000158 .L0 
     /tmp/ccee24fD.s:280    .text:0000000000000158 _ZN4KSem6signalEv
     /tmp/ccee24fD.s:283    .text:0000000000000158 .L0 
     /tmp/ccee24fD.s:285    .text:0000000000000158 .L0 
     /tmp/ccee24fD.s:286    .text:0000000000000158 .L0 
     /tmp/ccee24fD.s:287    .text:0000000000000158 .L0 
     /tmp/ccee24fD.s:289    .text:000000000000015c .L0 
     /tmp/ccee24fD.s:292    .text:0000000000000164 .L0 
     /tmp/ccee24fD.s:294    .text:0000000000000168 .L0 
     /tmp/ccee24fD.s:295    .text:0000000000000168 .L0 
     /tmp/ccee24fD.s:301    .text:0000000000000170 .L0 
     /tmp/ccee24fD.s:302    .text:0000000000000174 .L0 
     /tmp/ccee24fD.s:305    .text:000000000000017c .L0 
     /tmp/ccee24fD.s:306    .text:000000000000017c .L0 
     /tmp/ccee24fD.s:308    .text:0000000000000180 .L0 
     /tmp/ccee24fD.s:310    .text:0000000000000180 .L0 
     /tmp/ccee24fD.s:311    .text:0000000000000180 .L0 
     /tmp/ccee24fD.s:314    .text:0000000000000188 .L0 
     /tmp/ccee24fD.s:315    .text:0000000000000188 .L0 
     /tmp/ccee24fD.s:317    .text:0000000000000190 .L0 
     /tmp/ccee24fD.s:319    .text:0000000000000194 .L0 
     /tmp/ccee24fD.s:320    .text:0000000000000194 .L0 
     /tmp/ccee24fD.s:322    .text:0000000000000198 .L0 
     /tmp/ccee24fD.s:324    .text:000000000000019c .L0 
     /tmp/ccee24fD.s:330    .text:000000000000019c _ZN4KSem8closeSemEPS_
     /tmp/ccee24fD.s:333    .text:000000000000019c .L0 
     /tmp/ccee24fD.s:335    .text:000000000000019c .L0 
     /tmp/ccee24fD.s:336    .text:00000000000001a0 .L0 
     /tmp/ccee24fD.s:340    .text:00000000000001ac .L0 
     /tmp/ccee24fD.s:341    .text:00000000000001ac .L0 
     /tmp/ccee24fD.s:342    .text:00000000000001ac .L0 
     /tmp/ccee24fD.s:344    .text:00000000000001b0 .L0 
     /tmp/ccee24fD.s:349    .text:00000000000001b4 .L0 
     /tmp/ccee24fD.s:352    .text:00000000000001b4 .L0 
     /tmp/ccee24fD.s:353    .text:00000000000001b4 .L0 
     /tmp/ccee24fD.s:354    .text:00000000000001b4 .L0 
     /tmp/ccee24fD.s:359    .text:00000000000001b8 .L0 
     /tmp/ccee24fD.s:362    .text:00000000000001bc .L0 
     /tmp/ccee24fD.s:363    .text:00000000000001bc .L0 
     /tmp/ccee24fD.s:367    .text:00000000000001c8 .L0 
     /tmp/ccee24fD.s:368    .text:00000000000001c8 .L0 
     /tmp/ccee24fD.s:372    .text:00000000000001d0 .L0 
     /tmp/ccee24fD.s:375    .text:00000000000001d4 .L0 
     /tmp/ccee24fD.s:376    .text:00000000000001d4 .L0 
     /tmp/ccee24fD.s:378    .text:00000000000001dc .L0 
     /tmp/ccee24fD.s:380    .text:00000000000001e0 .L0 
     /tmp/ccee24fD.s:381    .text:00000000000001e0 .L0 
     /tmp/ccee24fD.s:383    .text:00000000000001e4 .L0 
     /tmp/ccee24fD.s:386    .text:00000000000001e8 .L0 
     /tmp/ccee24fD.s:388    .text:00000000000001ec .L0 
     /tmp/ccee24fD.s:395    .text:00000000000001ec .L0 
     /tmp/ccee24fD.s:149    .text:00000000000000a4 .L0 
     /tmp/ccee24fD.s:210    .text:00000000000000f8 .L16
     /tmp/ccee24fD.s:299    .text:0000000000000170 .L25
     /tmp/ccee24fD.s:373    .text:00000000000001d4 .L27
     /tmp/ccee24fD.s:347    .text:00000000000001b4 .L28
GAS LISTING /tmp/ccee24fD.s 			page 15


     /tmp/ccee24fD.s:1766   .debug_abbrev:0000000000000000 .Ldebug_abbrev0
     /tmp/ccee24fD.s:3324   .debug_str:0000000000000682 .LASF133
     /tmp/ccee24fD.s:3168   .debug_str:0000000000000229 .LASF134
     /tmp/ccee24fD.s:3174   .debug_str:000000000000024a .LASF135
     /tmp/ccee24fD.s:5      .text:0000000000000000 .Ltext0
     /tmp/ccee24fD.s:391    .text:00000000000001ec .Letext0
     /tmp/ccee24fD.s:3090   .debug_line:0000000000000000 .Ldebug_line0
     /tmp/ccee24fD.s:3132   .debug_str:0000000000000132 .LASF3
     /tmp/ccee24fD.s:3238   .debug_str:0000000000000414 .LASF0
     /tmp/ccee24fD.s:3254   .debug_str:0000000000000479 .LASF1
     /tmp/ccee24fD.s:3216   .debug_str:000000000000039a .LASF2
     /tmp/ccee24fD.s:3184   .debug_str:00000000000002b5 .LASF4
     /tmp/ccee24fD.s:3300   .debug_str:00000000000005e8 .LASF5
     /tmp/ccee24fD.s:3114   .debug_str:00000000000000cb .LASF6
     /tmp/ccee24fD.s:3148   .debug_str:000000000000019c .LASF7
     /tmp/ccee24fD.s:3260   .debug_str:00000000000004ad .LASF8
     /tmp/ccee24fD.s:3236   .debug_str:0000000000000401 .LASF9
     /tmp/ccee24fD.s:3338   .debug_str:00000000000007ab .LASF10
     /tmp/ccee24fD.s:3170   .debug_str:0000000000000236 .LASF11
     /tmp/ccee24fD.s:3272   .debug_str:000000000000050e .LASF12
     /tmp/ccee24fD.s:3330   .debug_str:0000000000000763 .LASF13
     /tmp/ccee24fD.s:3118   .debug_str:00000000000000da .LASF14
     /tmp/ccee24fD.s:3094   .debug_str:000000000000001f .LASF15
     /tmp/ccee24fD.s:3128   .debug_str:0000000000000121 .LASF16
     /tmp/ccee24fD.s:3294   .debug_str:0000000000000599 .LASF17
     /tmp/ccee24fD.s:3140   .debug_str:0000000000000162 .LASF18
     /tmp/ccee24fD.s:3122   .debug_str:00000000000000f7 .LASF136
     /tmp/ccee24fD.s:3326   .debug_str:0000000000000746 .LASF19
     /tmp/ccee24fD.s:3354   .debug_str:0000000000000814 .LASF20
     /tmp/ccee24fD.s:3186   .debug_str:00000000000002bc .LASF21
     /tmp/ccee24fD.s:3112   .debug_str:00000000000000c3 .LASF22
     /tmp/ccee24fD.s:3100   .debug_str:000000000000004f .LASF23
     /tmp/ccee24fD.s:3308   .debug_str:000000000000062a .LASF24
     /tmp/ccee24fD.s:3098   .debug_str:0000000000000047 .LASF89
     /tmp/ccee24fD.s:3352   .debug_str:000000000000080a .LASF25
     /tmp/ccee24fD.s:3372   .debug_str:0000000000000890 .LASF27
     /tmp/ccee24fD.s:3214   .debug_str:0000000000000390 .LASF29
     /tmp/ccee24fD.s:3142   .debug_str:0000000000000178 .LASF31
     /tmp/ccee24fD.s:3196   .debug_str:00000000000002f1 .LASF26
     /tmp/ccee24fD.s:3358   .debug_str:0000000000000823 .LASF28
     /tmp/ccee24fD.s:3286   .debug_str:000000000000056d .LASF137
     /tmp/ccee24fD.s:3208   .debug_str:000000000000035f .LASF30
     /tmp/ccee24fD.s:3270   .debug_str:00000000000004f6 .LASF32
     /tmp/ccee24fD.s:3336   .debug_str:000000000000079e .LASF33
     /tmp/ccee24fD.s:3342   .debug_str:00000000000007c5 .LASF34
     /tmp/ccee24fD.s:3230   .debug_str:00000000000003ec .LASF35
     /tmp/ccee24fD.s:3198   .debug_str:00000000000002fe .LASF36
     /tmp/ccee24fD.s:3370   .debug_str:0000000000000885 .LASF37
     /tmp/ccee24fD.s:3332   .debug_str:0000000000000772 .LASF39
     /tmp/ccee24fD.s:3310   .debug_str:0000000000000633 .LASF41
     /tmp/ccee24fD.s:3248   .debug_str:0000000000000442 .LASF43
     /tmp/ccee24fD.s:3202   .debug_str:0000000000000328 .LASF38
     /tmp/ccee24fD.s:3092   .debug_str:0000000000000000 .LASF40
     /tmp/ccee24fD.s:3150   .debug_str:00000000000001a3 .LASF42
     /tmp/ccee24fD.s:3166   .debug_str:0000000000000211 .LASF44
     /tmp/ccee24fD.s:3288   .debug_str:0000000000000572 .LASF45
     /tmp/ccee24fD.s:3224   .debug_str:00000000000003c4 .LASF47
GAS LISTING /tmp/ccee24fD.s 			page 16


     /tmp/ccee24fD.s:3240   .debug_str:0000000000000421 .LASF46
     /tmp/ccee24fD.s:3160   .debug_str:00000000000001dd .LASF48
     /tmp/ccee24fD.s:3314   .debug_str:0000000000000650 .LASF49
     /tmp/ccee24fD.s:3304   .debug_str:000000000000060a .LASF50
     /tmp/ccee24fD.s:3120   .debug_str:00000000000000ea .LASF51
     /tmp/ccee24fD.s:3318   .debug_str:0000000000000660 .LASF52
     /tmp/ccee24fD.s:3276   .debug_str:0000000000000526 .LASF53
     /tmp/ccee24fD.s:3290   .debug_str:0000000000000580 .LASF54
     /tmp/ccee24fD.s:3360   .debug_str:0000000000000845 .LASF117
     /tmp/ccee24fD.s:3192   .debug_str:00000000000002d9 .LASF55
     /tmp/ccee24fD.s:3212   .debug_str:0000000000000381 .LASF56
     /tmp/ccee24fD.s:3242   .debug_str:000000000000042a .LASF57
     /tmp/ccee24fD.s:3244   .debug_str:0000000000000430 .LASF58
     /tmp/ccee24fD.s:3250   .debug_str:000000000000045a .LASF59
     /tmp/ccee24fD.s:3302   .debug_str:00000000000005fa .LASF60
     /tmp/ccee24fD.s:3180   .debug_str:00000000000002a4 .LASF61
     /tmp/ccee24fD.s:3264   .debug_str:00000000000004d2 .LASF62
     /tmp/ccee24fD.s:3158   .debug_str:00000000000001cf .LASF63
     /tmp/ccee24fD.s:3258   .debug_str:00000000000004a6 .LASF64
     /tmp/ccee24fD.s:3356   .debug_str:000000000000081b .LASF65
     /tmp/ccee24fD.s:3282   .debug_str:0000000000000540 .LASF66
     /tmp/ccee24fD.s:3350   .debug_str:00000000000007fc .LASF95
     /tmp/ccee24fD.s:3176   .debug_str:0000000000000268 .LASF96
     /tmp/ccee24fD.s:3156   .debug_str:00000000000001c9 .LASF67
     /tmp/ccee24fD.s:3344   .debug_str:00000000000007dd .LASF68
     /tmp/ccee24fD.s:3188   .debug_str:00000000000002c4 .LASF69
     /tmp/ccee24fD.s:3162   .debug_str:00000000000001f0 .LASF70
     /tmp/ccee24fD.s:3368   .debug_str:0000000000000880 .LASF71
     /tmp/ccee24fD.s:3108   .debug_str:0000000000000094 .LASF72
     /tmp/ccee24fD.s:3138   .debug_str:000000000000015b .LASF73
     /tmp/ccee24fD.s:3312   .debug_str:000000000000063e .LASF74
     /tmp/ccee24fD.s:3346   .debug_str:00000000000007e2 .LASF75
     /tmp/ccee24fD.s:3106   .debug_str:000000000000007e .LASF76
     /tmp/ccee24fD.s:3364   .debug_str:000000000000086e .LASF77
     /tmp/ccee24fD.s:3204   .debug_str:000000000000033c .LASF78
     /tmp/ccee24fD.s:3154   .debug_str:00000000000001c3 .LASF79
     /tmp/ccee24fD.s:3348   .debug_str:00000000000007eb .LASF80
     /tmp/ccee24fD.s:3116   .debug_str:00000000000000d2 .LASF81
     /tmp/ccee24fD.s:3362   .debug_str:000000000000085b .LASF82
     /tmp/ccee24fD.s:3190   .debug_str:00000000000002cc .LASF83
     /tmp/ccee24fD.s:3218   .debug_str:00000000000003a8 .LASF84
     /tmp/ccee24fD.s:3228   .debug_str:00000000000003e2 .LASF85
     /tmp/ccee24fD.s:3194   .debug_str:00000000000002e1 .LASF86
     /tmp/ccee24fD.s:3234   .debug_str:00000000000003f9 .LASF87
     /tmp/ccee24fD.s:3292   .debug_str:000000000000058d .LASF88
     /tmp/ccee24fD.s:3182   .debug_str:00000000000002b0 .LASF90
     /tmp/ccee24fD.s:3130   .debug_str:000000000000012d .LASF91
     /tmp/ccee24fD.s:3366   .debug_str:000000000000087b .LASF92
     /tmp/ccee24fD.s:3296   .debug_str:00000000000005af .LASF93
     /tmp/ccee24fD.s:3256   .debug_str:000000000000048c .LASF94
     /tmp/ccee24fD.s:3298   .debug_str:00000000000005cd .LASF97
     /tmp/ccee24fD.s:3172   .debug_str:0000000000000244 .LASF98
     /tmp/ccee24fD.s:3280   .debug_str:000000000000053b .LASF99
     /tmp/ccee24fD.s:3210   .debug_str:000000000000036c .LASF100
     /tmp/ccee24fD.s:3096   .debug_str:000000000000002f .LASF101
     /tmp/ccee24fD.s:3200   .debug_str:0000000000000310 .LASF138
     /tmp/ccee24fD.s:3268   .debug_str:00000000000004e9 .LASF102
GAS LISTING /tmp/ccee24fD.s 			page 17


     /tmp/ccee24fD.s:3206   .debug_str:000000000000034a .LASF103
     /tmp/ccee24fD.s:3134   .debug_str:0000000000000137 .LASF104
     /tmp/ccee24fD.s:3136   .debug_str:000000000000013f .LASF105
     /tmp/ccee24fD.s:3316   .debug_str:0000000000000658 .LASF106
     /tmp/ccee24fD.s:3110   .debug_str:00000000000000a4 .LASF107
     /tmp/ccee24fD.s:3322   .debug_str:0000000000000679 .LASF108
     /tmp/ccee24fD.s:3284   .debug_str:0000000000000551 .LASF109
     /tmp/ccee24fD.s:3328   .debug_str:000000000000074e .LASF110
     /tmp/ccee24fD.s:3334   .debug_str:0000000000000788 .LASF139
     /tmp/ccee24fD.s:3102   .debug_str:0000000000000058 .LASF111
     /tmp/ccee24fD.s:3266   .debug_str:00000000000004df .LASF112
     /tmp/ccee24fD.s:3146   .debug_str:0000000000000197 .LASF113
     /tmp/ccee24fD.s:3222   .debug_str:00000000000003bf .LASF114
     /tmp/ccee24fD.s:3246   .debug_str:0000000000000435 .LASF115
     /tmp/ccee24fD.s:3262   .debug_str:00000000000004c0 .LASF116
     /tmp/ccee24fD.s:3126   .debug_str:0000000000000109 .LASF118
     /tmp/ccee24fD.s:3178   .debug_str:0000000000000290 .LASF140
     /tmp/ccee24fD.s:3144   .debug_str:000000000000018c .LASF119
     /tmp/ccee24fD.s:3104   .debug_str:000000000000005d .LASF120
     /tmp/ccee24fD.s:3226   .debug_str:00000000000003dd .LASF121
     /tmp/ccee24fD.s:3252   .debug_str:0000000000000464 .LASF122
     /tmp/ccee24fD.s:331    .text:000000000000019c .LFB38
     /tmp/ccee24fD.s:389    .text:00000000000001ec .LFE38
     /tmp/ccee24fD.s:3220   .debug_str:00000000000003b8 .LASF124
     /tmp/ccee24fD.s:2866   .debug_loc:0000000000000000 .LLST13
     /tmp/ccee24fD.s:360    .text:00000000000001bc .LBB31
     /tmp/ccee24fD.s:370    .text:00000000000001d0 .LBE31
     /tmp/ccee24fD.s:2884   .debug_loc:000000000000004c .LLST15
     /tmp/ccee24fD.s:365    .text:00000000000001c8 .LVL30
     /tmp/ccee24fD.s:369    .text:00000000000001d0 .LVL31
     /tmp/ccee24fD.s:350    .text:00000000000001b4 .LBB29
     /tmp/ccee24fD.s:357    .text:00000000000001b8 .LBE29
     /tmp/ccee24fD.s:2891   .debug_loc:000000000000006f .LLST14
     /tmp/ccee24fD.s:243    .text:0000000000000124 .LFB37
     /tmp/ccee24fD.s:275    .text:0000000000000158 .LFE37
     /tmp/ccee24fD.s:3278   .debug_str:0000000000000536 .LASF123
     /tmp/ccee24fD.s:2900   .debug_loc:0000000000000094 .LLST10
     /tmp/ccee24fD.s:2920   .debug_loc:00000000000000e2 .LLST11
     /tmp/ccee24fD.s:260    .text:0000000000000140 .LVL21
     /tmp/ccee24fD.s:264    .text:0000000000000148 .LVL22
     /tmp/ccee24fD.s:131    .text:0000000000000094 .LFB36
     /tmp/ccee24fD.s:184    .text:00000000000000dc .LFE36
     /tmp/ccee24fD.s:2927   .debug_loc:0000000000000105 .LLST6
     /tmp/ccee24fD.s:144    .text:00000000000000a4 .LBB25
     /tmp/ccee24fD.s:153    .text:00000000000000b0 .LBE25
     /tmp/ccee24fD.s:154    .text:00000000000000b0 .LBB27
     /tmp/ccee24fD.s:162    .text:00000000000000b8 .LBE27
     /tmp/ccee24fD.s:2947   .debug_loc:0000000000000153 .LLST7
     /tmp/ccee24fD.s:2955   .debug_loc:0000000000000177 .LLST8
     /tmp/ccee24fD.s:169    .text:00000000000000c4 .LVL13
     /tmp/ccee24fD.s:173    .text:00000000000000cc .LVL14
     /tmp/ccee24fD.s:281    .text:0000000000000158 .LFB35
     /tmp/ccee24fD.s:325    .text:000000000000019c .LFE35
     /tmp/ccee24fD.s:2962   .debug_loc:000000000000019a .LLST12
     /tmp/ccee24fD.s:312    .text:0000000000000188 .LVL26
     /tmp/ccee24fD.s:190    .text:00000000000000dc .LFB34
     /tmp/ccee24fD.s:237    .text:0000000000000124 .LFE34
GAS LISTING /tmp/ccee24fD.s 			page 18


     /tmp/ccee24fD.s:2987   .debug_loc:00000000000001fc .LLST9
     /tmp/ccee24fD.s:223    .text:0000000000000110 .LVL18
     /tmp/ccee24fD.s:75     .text:0000000000000050 .LFB33
     /tmp/ccee24fD.s:125    .text:0000000000000094 .LFE33
     /tmp/ccee24fD.s:3012   .debug_loc:000000000000025e .LLST2
     /tmp/ccee24fD.s:96     .text:0000000000000074 .LBB21
     /tmp/ccee24fD.s:112    .text:0000000000000080 .LBE21
     /tmp/ccee24fD.s:3026   .debug_loc:0000000000000297 .LLST3
     /tmp/ccee24fD.s:3033   .debug_loc:00000000000002ba .LLST4
     /tmp/ccee24fD.s:102    .text:0000000000000078 .LBB23
     /tmp/ccee24fD.s:110    .text:0000000000000080 .LBE23
     /tmp/ccee24fD.s:3040   .debug_loc:00000000000002dd .LLST5
     /tmp/ccee24fD.s:95     .text:0000000000000074 .LVL6
     /tmp/ccee24fD.s:43     .text:0000000000000028 .LFB32
     /tmp/ccee24fD.s:69     .text:0000000000000050 .LFE32
     /tmp/ccee24fD.s:3049   .debug_loc:0000000000000302 .LLST1
     /tmp/ccee24fD.s:58     .text:0000000000000040 .LVL3
     /tmp/ccee24fD.s:10     .text:0000000000000000 .LFB31
     /tmp/ccee24fD.s:37     .text:0000000000000028 .LFE31
     /tmp/ccee24fD.s:3232   .debug_str:00000000000003f4 .LASF125
     /tmp/ccee24fD.s:3063   .debug_loc:000000000000033b .LLST0
     /tmp/ccee24fD.s:26     .text:0000000000000018 .LVL1
     /tmp/ccee24fD.s:3124   .debug_str:0000000000000104 .LASF126
     /tmp/ccee24fD.s:3320   .debug_str:000000000000066c .LASF127
     /tmp/ccee24fD.s:3152   .debug_str:00000000000001ae .LASF128
     /tmp/ccee24fD.s:3164   .debug_str:0000000000000203 .LASF129
     /tmp/ccee24fD.s:3274   .debug_str:000000000000051d .LASF131
     /tmp/ccee24fD.s:3306   .debug_str:000000000000061c .LASF130
     /tmp/ccee24fD.s:3340   .debug_str:00000000000007bb .LASF132
     /tmp/ccee24fD.s:334    .text:000000000000019c .LVL27
     /tmp/ccee24fD.s:346    .text:00000000000001b4 .LVL28
     /tmp/ccee24fD.s:384    .text:00000000000001e4 .LVL32
     /tmp/ccee24fD.s:355    .text:00000000000001b8 .LVL29
     /tmp/ccee24fD.s:246    .text:0000000000000124 .LVL19
     /tmp/ccee24fD.s:258    .text:0000000000000138 .LVL20
     /tmp/ccee24fD.s:134    .text:0000000000000094 .LVL9
     /tmp/ccee24fD.s:167    .text:00000000000000bc .LVL12
     /tmp/ccee24fD.s:151    .text:00000000000000b0 .LVL10
     /tmp/ccee24fD.s:160    .text:00000000000000b8 .LVL11
     /tmp/ccee24fD.s:284    .text:0000000000000158 .LVL23
     /tmp/ccee24fD.s:296    .text:000000000000016c .LVL24
     /tmp/ccee24fD.s:298    .text:0000000000000170 .LVL25
     /tmp/ccee24fD.s:193    .text:00000000000000dc .LVL15
     /tmp/ccee24fD.s:206    .text:00000000000000f4 .LVL16
     /tmp/ccee24fD.s:209    .text:00000000000000f8 .LVL17
     /tmp/ccee24fD.s:78     .text:0000000000000050 .LVL4
     /tmp/ccee24fD.s:93     .text:000000000000006c .LVL5
     /tmp/ccee24fD.s:108    .text:0000000000000080 .LVL8
     /tmp/ccee24fD.s:101    .text:0000000000000078 .LVL7
     /tmp/ccee24fD.s:46     .text:0000000000000028 .LVL2
     /tmp/ccee24fD.s:14     .text:0000000000000000 .LVL0
     /tmp/ccee24fD.s:396    .debug_info:0000000000000000 .Ldebug_info0

UNDEFINED SYMBOLS
_Z9mem_allocm
_Z8mem_freePv
_ZN3TCB7runningE
GAS LISTING /tmp/ccee24fD.s 			page 19


_ZN11ThreadQueue7putLastEP3TCB
_ZN3TCB8dispatchEv
_ZN11ThreadQueue8getFirstEv
_ZN9Scheduler3putEP3TCB
