GAS LISTING /tmp/ccnJgEx6.s 			page 1


   1              		.file	"KSem.cpp"
   2              		.option pic
   3              		.option norelax
   4              		.text
   5              	.Ltext0:
   6              		.align	2
   7              		.globl	_ZN4KSemnwEm
   9              	_ZN4KSemnwEm:
  10              	.LFB33:
  11              		.file 1 "src/KSem.cpp"
   1:src/KSem.cpp  **** //
   2:src/KSem.cpp  **** // Created by os on 6/4/23.
   3:src/KSem.cpp  **** //
   4:src/KSem.cpp  **** 
   5:src/KSem.cpp  **** #include "../h/KSem.hpp"
   6:src/KSem.cpp  **** #include "../h/TCB.hpp"
   7:src/KSem.cpp  **** #include "../h/Scheduler.hpp"
   8:src/KSem.cpp  **** 
   9:src/KSem.cpp  **** void* KSem::operator new(size_t size) {
  12              		.loc 1 9 39
  13              		.cfi_startproc
  14              	.LVL0:
  15 0000 130101FF 		addi	sp,sp,-16
  16              		.cfi_def_cfa_offset 16
  17 0004 23341100 		sd	ra,8(sp)
  18 0008 23308100 		sd	s0,0(sp)
  19              		.cfi_offset 1, -8
  20              		.cfi_offset 8, -16
  21 000c 13040101 		addi	s0,sp,16
  22              		.cfi_def_cfa 8, 0
  10:src/KSem.cpp  **** 	return MemoryAllocator::kmalloc(size + sizeof(MemoryAllocator::UsedMemSegment));
  23              		.loc 1 10 2
  24              		.loc 1 10 33 is_stmt 0
  25 0010 13050501 		addi	a0,a0,16
  26              	.LVL1:
  27 0014 97000000 		call	_ZN15MemoryAllocator7kmallocEm@plt
  27      E7800000 
  28              	.LVL2:
  11:src/KSem.cpp  **** }
  29              		.loc 1 11 1
  30 001c 83308100 		ld	ra,8(sp)
  31              		.cfi_restore 1
  32 0020 03340100 		ld	s0,0(sp)
  33              		.cfi_restore 8
  34              		.cfi_def_cfa 2, 16
  35 0024 13010101 		addi	sp,sp,16
  36              		.cfi_def_cfa_offset 0
  37 0028 67800000 		jr	ra
  38              		.cfi_endproc
  39              	.LFE33:
  41              		.align	2
  42              		.globl	_ZN4KSemdlEPv
  44              	_ZN4KSemdlEPv:
  45              	.LFB34:
  12:src/KSem.cpp  **** 
  13:src/KSem.cpp  **** void KSem::operator delete(void* ptr) {
  46              		.loc 1 13 39 is_stmt 1
GAS LISTING /tmp/ccnJgEx6.s 			page 2


  47              		.cfi_startproc
  48              	.LVL3:
  49 002c 130101FF 		addi	sp,sp,-16
  50              		.cfi_def_cfa_offset 16
  51 0030 23341100 		sd	ra,8(sp)
  52 0034 23308100 		sd	s0,0(sp)
  53              		.cfi_offset 1, -8
  54              		.cfi_offset 8, -16
  55 0038 13040101 		addi	s0,sp,16
  56              		.cfi_def_cfa 8, 0
  14:src/KSem.cpp  **** 	MemoryAllocator::kfree(ptr);
  57              		.loc 1 14 2
  58              		.loc 1 14 24 is_stmt 0
  59 003c 97000000 		call	_ZN15MemoryAllocator5kfreeEPv@plt
  59      E7800000 
  60              	.LVL4:
  15:src/KSem.cpp  **** }
  61              		.loc 1 15 1
  62 0044 83308100 		ld	ra,8(sp)
  63              		.cfi_restore 1
  64 0048 03340100 		ld	s0,0(sp)
  65              		.cfi_restore 8
  66              		.cfi_def_cfa 2, 16
  67 004c 13010101 		addi	sp,sp,16
  68              		.cfi_def_cfa_offset 0
  69 0050 67800000 		jr	ra
  70              		.cfi_endproc
  71              	.LFE34:
  73              		.align	2
  74              		.globl	_ZN4KSem7initSemEj
  76              	_ZN4KSem7initSemEj:
  77              	.LFB35:
  16:src/KSem.cpp  **** 
  17:src/KSem.cpp  **** KSem* KSem::initSem(uint val) {
  78              		.loc 1 17 31 is_stmt 1
  79              		.cfi_startproc
  80              	.LVL5:
  81 0054 130101FE 		addi	sp,sp,-32
  82              		.cfi_def_cfa_offset 32
  83 0058 233C1100 		sd	ra,24(sp)
  84 005c 23388100 		sd	s0,16(sp)
  85 0060 23349100 		sd	s1,8(sp)
  86              		.cfi_offset 1, -8
  87              		.cfi_offset 8, -16
  88              		.cfi_offset 9, -24
  89 0064 13040102 		addi	s0,sp,32
  90              		.cfi_def_cfa 8, 0
  91 0068 93040500 		mv	s1,a0
  18:src/KSem.cpp  **** 	return new KSem(val);
  92              		.loc 1 18 2
  93              		.loc 1 18 21 is_stmt 0
  94 006c 13050002 		li	a0,32
  95              	.LVL6:
  96 0070 97000000 		call	_ZN4KSemnwEm
  96      E7800000 
  97              	.LVL7:
  98              	.LBB21:
GAS LISTING /tmp/ccnJgEx6.s 			page 3


  99              	.LBB22:
 100              		.file 2 "src/../h/KSem.hpp"
   1:src/../h/KSem.hpp **** //
   2:src/../h/KSem.hpp **** // Created by os on 6/4/23.
   3:src/../h/KSem.hpp **** //
   4:src/../h/KSem.hpp **** 
   5:src/../h/KSem.hpp **** #ifndef PROJEKAT2023_KSEM_HPP
   6:src/../h/KSem.hpp **** #define PROJEKAT2023_KSEM_HPP
   7:src/../h/KSem.hpp **** 
   8:src/../h/KSem.hpp **** #include "../h/ThreadQueue.hpp"
   9:src/../h/KSem.hpp **** 
  10:src/../h/KSem.hpp **** 
  11:src/../h/KSem.hpp **** class KSem {
  12:src/../h/KSem.hpp **** public:
  13:src/../h/KSem.hpp **** 	static KSem* initSem(uint val);
  14:src/../h/KSem.hpp **** 	void wait();
  15:src/../h/KSem.hpp **** 	void signal();
  16:src/../h/KSem.hpp **** 	static int closeSem(sem_t handle);
  17:src/../h/KSem.hpp **** 
  18:src/../h/KSem.hpp **** protected:
  19:src/../h/KSem.hpp **** 	void block();
  20:src/../h/KSem.hpp **** 	void unblock();
  21:src/../h/KSem.hpp **** 
  22:src/../h/KSem.hpp **** private:
  23:src/../h/KSem.hpp **** 	KSem(uint val):val(val),working(true){}
 101              		.loc 2 23 38
 102 0078 23209500 		sw	s1,0(a0)
 103              	.LVL8:
 104              	.LBB23:
 105              	.LBB24:
 106              		.file 3 "src/../h/../h/ThreadQueue.hpp"
   1:src/../h/../h/ThreadQueue.hpp **** //
   2:src/../h/../h/ThreadQueue.hpp **** // Created by os on 6/4/23.
   3:src/../h/../h/ThreadQueue.hpp **** //
   4:src/../h/../h/ThreadQueue.hpp **** 
   5:src/../h/../h/ThreadQueue.hpp **** #ifndef PROJEKAT2023_THREADQUEUE_HPP
   6:src/../h/../h/ThreadQueue.hpp **** #define PROJEKAT2023_THREADQUEUE_HPP
   7:src/../h/../h/ThreadQueue.hpp **** 
   8:src/../h/../h/ThreadQueue.hpp **** #include "../h/MemoryAllocator.hpp"
   9:src/../h/../h/ThreadQueue.hpp **** #include "../h/syscall_c.hpp"
  10:src/../h/../h/ThreadQueue.hpp **** 
  11:src/../h/../h/ThreadQueue.hpp **** class TCB;
  12:src/../h/../h/ThreadQueue.hpp **** 
  13:src/../h/../h/ThreadQueue.hpp **** class ThreadQueue {
  14:src/../h/../h/ThreadQueue.hpp **** private:
  15:src/../h/../h/ThreadQueue.hpp **** 	struct Node {
  16:src/../h/../h/ThreadQueue.hpp **** 		TCB* data;
  17:src/../h/../h/ThreadQueue.hpp **** 		Node* next;
  18:src/../h/../h/ThreadQueue.hpp **** 
  19:src/../h/../h/ThreadQueue.hpp **** 		Node(TCB* d) : data(d), next(nullptr) {}
  20:src/../h/../h/ThreadQueue.hpp **** 
  21:src/../h/../h/ThreadQueue.hpp **** 		static void* operator new(size_t size) {
  22:src/../h/../h/ThreadQueue.hpp **** 			return mem_alloc(size);
  23:src/../h/../h/ThreadQueue.hpp **** 		}
  24:src/../h/../h/ThreadQueue.hpp **** 
  25:src/../h/../h/ThreadQueue.hpp **** 		static void operator delete(void* ptr) {
  26:src/../h/../h/ThreadQueue.hpp **** 			mem_free(ptr);
GAS LISTING /tmp/ccnJgEx6.s 			page 4


  27:src/../h/../h/ThreadQueue.hpp **** 		}
  28:src/../h/../h/ThreadQueue.hpp **** 	};
  29:src/../h/../h/ThreadQueue.hpp **** 
  30:src/../h/../h/ThreadQueue.hpp **** 	Node* front;
  31:src/../h/../h/ThreadQueue.hpp **** 	Node* back;
  32:src/../h/../h/ThreadQueue.hpp **** 
  33:src/../h/../h/ThreadQueue.hpp **** public:
  34:src/../h/../h/ThreadQueue.hpp **** 	ThreadQueue() : front(nullptr), back(nullptr) {}
 107              		.loc 3 34 46
 108 007c 23340500 		sd	zero,8(a0)
 109 0080 23380500 		sd	zero,16(a0)
 110              	.LVL9:
 111              	.LBE24:
 112              	.LBE23:
 113              		.loc 2 23 38
 114 0084 13071000 		li	a4,1
 115 0088 230CE500 		sb	a4,24(a0)
 116              	.LVL10:
 117              	.LBE22:
 118              	.LBE21:
  19:src/KSem.cpp  **** }
 119              		.loc 1 19 1
 120 008c 83308101 		ld	ra,24(sp)
 121              		.cfi_restore 1
 122 0090 03340101 		ld	s0,16(sp)
 123              		.cfi_restore 8
 124              		.cfi_def_cfa 2, 32
 125 0094 83348100 		ld	s1,8(sp)
 126              		.cfi_restore 9
 127 0098 13010102 		addi	sp,sp,32
 128              		.cfi_def_cfa_offset 0
 129 009c 67800000 		jr	ra
 130              		.cfi_endproc
 131              	.LFE35:
 133              		.align	2
 134              		.globl	_ZN4KSem5blockEv
 136              	_ZN4KSem5blockEv:
 137              	.LFB38:
  20:src/KSem.cpp  **** 
  21:src/KSem.cpp  **** void KSem::wait() {
  22:src/KSem.cpp  **** 	if(!working) return;
  23:src/KSem.cpp  **** 	if (--val < 0) block();
  24:src/KSem.cpp  **** }
  25:src/KSem.cpp  **** 
  26:src/KSem.cpp  **** void KSem::signal() {
  27:src/KSem.cpp  **** 	if(!working) return;
  28:src/KSem.cpp  **** 	if (val++ < 0) unblock();
  29:src/KSem.cpp  **** }
  30:src/KSem.cpp  **** 
  31:src/KSem.cpp  **** void KSem::block() {
 138              		.loc 1 31 20 is_stmt 1
 139              		.cfi_startproc
 140              	.LVL11:
 141 00a0 130101FF 		addi	sp,sp,-16
 142              		.cfi_def_cfa_offset 16
 143 00a4 23341100 		sd	ra,8(sp)
 144 00a8 23308100 		sd	s0,0(sp)
GAS LISTING /tmp/ccnJgEx6.s 			page 5


 145              		.cfi_offset 1, -8
 146              		.cfi_offset 8, -16
 147 00ac 13040101 		addi	s0,sp,16
 148              		.cfi_def_cfa 8, 0
  32:src/KSem.cpp  **** 	TCB::running->setBlocked(true);
 149              		.loc 1 32 2
 150              		.loc 1 32 26 is_stmt 0
 151 00b0 97070000 		la	a5,_ZN3TCB7runningE
 151      83B70700 
 152 00b8 83B50700 		ld	a1,0(a5)
 153              	.LVL12:
 154              	.LBB25:
 155              	.LBB26:
 156              		.file 4 "src/../h/TCB.hpp"
   1:src/../h/TCB.hpp **** //
   2:src/../h/TCB.hpp **** // Created by os on 5/23/23.
   3:src/../h/TCB.hpp **** //
   4:src/../h/TCB.hpp **** 
   5:src/../h/TCB.hpp **** #ifndef PROJEKAT2023_TCB_HPP
   6:src/../h/TCB.hpp **** #define PROJEKAT2023_TCB_HPP
   7:src/../h/TCB.hpp **** 
   8:src/../h/TCB.hpp **** #include "../lib/hw.h"
   9:src/../h/TCB.hpp **** #include "../h/ThreadQueue.hpp"
  10:src/../h/TCB.hpp **** 
  11:src/../h/TCB.hpp **** class TCB {
  12:src/../h/TCB.hpp **** public:
  13:src/../h/TCB.hpp **** 	friend class Scheduler;
  14:src/../h/TCB.hpp **** 
  15:src/../h/TCB.hpp **** 	using Body = void (*)(void*);
  16:src/../h/TCB.hpp **** 
  17:src/../h/TCB.hpp **** 	static TCB* createThread(Body function, void* args, uint64* stack);
  18:src/../h/TCB.hpp **** 
  19:src/../h/TCB.hpp **** 	bool isFinished() { return finished; }
  20:src/../h/TCB.hpp **** 
  21:src/../h/TCB.hpp **** 	void setFinished(bool finish) { this->finished = finish; }
  22:src/../h/TCB.hpp **** 
  23:src/../h/TCB.hpp **** 	bool isBlocked() { return blocked; }
  24:src/../h/TCB.hpp **** 
  25:src/../h/TCB.hpp **** 	void setBlocked(bool block) { this->blocked = block; }
 157              		.loc 4 25 32 is_stmt 1
 158              		.loc 4 25 46 is_stmt 0
 159 00bc 93071000 		li	a5,1
 160 00c0 A388F502 		sb	a5,49(a1)
 161              	.LVL13:
 162              	.LBE26:
 163              	.LBE25:
  33:src/KSem.cpp  **** 	blocked.putLast(TCB::running);
 164              		.loc 1 33 2 is_stmt 1
 165              		.loc 1 33 17 is_stmt 0
 166 00c4 13058500 		addi	a0,a0,8
 167              	.LVL14:
 168 00c8 97000000 		call	_ZN11ThreadQueue7putLastEP3TCB@plt
 168      E7800000 
 169              	.LVL15:
  34:src/KSem.cpp  **** 	TCB::yield();
 170              		.loc 1 34 2 is_stmt 1
 171              		.loc 1 34 12 is_stmt 0
GAS LISTING /tmp/ccnJgEx6.s 			page 6


 172 00d0 97000000 		call	_ZN3TCB5yieldEv@plt
 172      E7800000 
 173              	.LVL16:
  35:src/KSem.cpp  **** }
 174              		.loc 1 35 1
 175 00d8 83308100 		ld	ra,8(sp)
 176              		.cfi_restore 1
 177 00dc 03340100 		ld	s0,0(sp)
 178              		.cfi_restore 8
 179              		.cfi_def_cfa 2, 16
 180 00e0 13010101 		addi	sp,sp,16
 181              		.cfi_def_cfa_offset 0
 182 00e4 67800000 		jr	ra
 183              		.cfi_endproc
 184              	.LFE38:
 186              		.align	2
 187              		.globl	_ZN4KSem4waitEv
 189              	_ZN4KSem4waitEv:
 190              	.LFB36:
  21:src/KSem.cpp  **** 	if(!working) return;
 191              		.loc 1 21 19 is_stmt 1
 192              		.cfi_startproc
 193              	.LVL17:
  22:src/KSem.cpp  **** 	if (--val < 0) block();
 194              		.loc 1 22 2
  22:src/KSem.cpp  **** 	if (--val < 0) block();
 195              		.loc 1 22 6 is_stmt 0
 196 00e8 83478501 		lbu	a5,24(a0)
  22:src/KSem.cpp  **** 	if (--val < 0) block();
 197              		.loc 1 22 2
 198 00ec 638C0700 		beqz	a5,.L12
  23:src/KSem.cpp  **** }
 199              		.loc 1 23 2 is_stmt 1
  23:src/KSem.cpp  **** }
 200              		.loc 1 23 8 is_stmt 0
 201 00f0 83270500 		lw	a5,0(a0)
  23:src/KSem.cpp  **** }
 202              		.loc 1 23 6
 203 00f4 9B87F7FF 		addiw	a5,a5,-1
  23:src/KSem.cpp  **** }
 204              		.loc 1 23 12
 205 00f8 2320F500 		sw	a5,0(a0)
  23:src/KSem.cpp  **** }
 206              		.loc 1 23 2
 207 00fc 13970702 		slli	a4,a5,32
 208 0100 63440700 		bltz	a4,.L15
 209              	.L12:
 210 0104 67800000 		ret
 211              	.L15:
  21:src/KSem.cpp  **** 	if(!working) return;
 212              		.loc 1 21 19 discriminator 1
 213 0108 130101FF 		addi	sp,sp,-16
 214              		.cfi_def_cfa_offset 16
 215 010c 23341100 		sd	ra,8(sp)
 216 0110 23308100 		sd	s0,0(sp)
 217              		.cfi_offset 1, -8
 218              		.cfi_offset 8, -16
GAS LISTING /tmp/ccnJgEx6.s 			page 7


 219 0114 13040101 		addi	s0,sp,16
 220              		.cfi_def_cfa 8, 0
  23:src/KSem.cpp  **** }
 221              		.loc 1 23 17 is_stmt 1 discriminator 1
  23:src/KSem.cpp  **** }
 222              		.loc 1 23 22 is_stmt 0 discriminator 1
 223 0118 97000000 		call	_ZN4KSem5blockEv
 223      E7800000 
 224              	.LVL18:
  24:src/KSem.cpp  **** 
 225              		.loc 1 24 1 discriminator 1
 226 0120 83308100 		ld	ra,8(sp)
 227              		.cfi_restore 1
 228 0124 03340100 		ld	s0,0(sp)
 229              		.cfi_restore 8
 230              		.cfi_def_cfa 2, 16
 231 0128 13010101 		addi	sp,sp,16
 232              		.cfi_def_cfa_offset 0
 233 012c 67800000 		jr	ra
 234              		.cfi_endproc
 235              	.LFE36:
 237              		.align	2
 238              		.globl	_ZN4KSem7unblockEv
 240              	_ZN4KSem7unblockEv:
 241              	.LFB39:
  36:src/KSem.cpp  **** 
  37:src/KSem.cpp  **** void KSem::unblock() {
 242              		.loc 1 37 22 is_stmt 1
 243              		.cfi_startproc
 244              	.LVL19:
 245 0130 130101FF 		addi	sp,sp,-16
 246              		.cfi_def_cfa_offset 16
 247 0134 23341100 		sd	ra,8(sp)
 248 0138 23308100 		sd	s0,0(sp)
 249              		.cfi_offset 1, -8
 250              		.cfi_offset 8, -16
 251 013c 13040101 		addi	s0,sp,16
 252              		.cfi_def_cfa 8, 0
  38:src/KSem.cpp  **** 	TCB* tcb = blocked.getFirst();
 253              		.loc 1 38 2
 254              		.loc 1 38 29 is_stmt 0
 255 0140 13058500 		addi	a0,a0,8
 256              	.LVL20:
 257 0144 97000000 		call	_ZN11ThreadQueue8getFirstEv@plt
 257      E7800000 
 258              	.LVL21:
  39:src/KSem.cpp  **** 	tcb->setBlocked(false);
 259              		.loc 1 39 2 is_stmt 1
 260              	.LBB27:
 261              	.LBB28:
 262              		.loc 4 25 32
 263              		.loc 4 25 46 is_stmt 0
 264 014c A3080502 		sb	zero,49(a0)
 265              	.LVL22:
 266              	.LBE28:
 267              	.LBE27:
  40:src/KSem.cpp  **** 	Scheduler::put(tcb);
GAS LISTING /tmp/ccnJgEx6.s 			page 8


 268              		.loc 1 40 2 is_stmt 1
 269              		.loc 1 40 16 is_stmt 0
 270 0150 97000000 		call	_ZN9Scheduler3putEP3TCB@plt
 270      E7800000 
 271              	.LVL23:
  41:src/KSem.cpp  **** }
 272              		.loc 1 41 1
 273 0158 83308100 		ld	ra,8(sp)
 274              		.cfi_restore 1
 275 015c 03340100 		ld	s0,0(sp)
 276              		.cfi_restore 8
 277              		.cfi_def_cfa 2, 16
 278 0160 13010101 		addi	sp,sp,16
 279              		.cfi_def_cfa_offset 0
 280 0164 67800000 		jr	ra
 281              		.cfi_endproc
 282              	.LFE39:
 284              		.align	2
 285              		.globl	_ZN4KSem6signalEv
 287              	_ZN4KSem6signalEv:
 288              	.LFB37:
  26:src/KSem.cpp  **** 	if(!working) return;
 289              		.loc 1 26 21 is_stmt 1
 290              		.cfi_startproc
 291              	.LVL24:
  27:src/KSem.cpp  **** 	if (val++ < 0) unblock();
 292              		.loc 1 27 2
  27:src/KSem.cpp  **** 	if (val++ < 0) unblock();
 293              		.loc 1 27 6 is_stmt 0
 294 0168 83478501 		lbu	a5,24(a0)
  27:src/KSem.cpp  **** 	if (val++ < 0) unblock();
 295              		.loc 1 27 2
 296 016c 638A0700 		beqz	a5,.L21
  28:src/KSem.cpp  **** }
 297              		.loc 1 28 2 is_stmt 1
  28:src/KSem.cpp  **** }
 298              		.loc 1 28 6 is_stmt 0
 299 0170 83270500 		lw	a5,0(a0)
  28:src/KSem.cpp  **** }
 300              		.loc 1 28 9
 301 0174 1B871700 		addiw	a4,a5,1
 302 0178 2320E500 		sw	a4,0(a0)
  28:src/KSem.cpp  **** }
 303              		.loc 1 28 2
 304 017c 63C40700 		bltz	a5,.L24
 305              	.L21:
 306 0180 67800000 		ret
 307              	.L24:
  26:src/KSem.cpp  **** 	if(!working) return;
 308              		.loc 1 26 21 discriminator 1
 309 0184 130101FF 		addi	sp,sp,-16
 310              		.cfi_def_cfa_offset 16
 311 0188 23341100 		sd	ra,8(sp)
 312 018c 23308100 		sd	s0,0(sp)
 313              		.cfi_offset 1, -8
 314              		.cfi_offset 8, -16
 315 0190 13040101 		addi	s0,sp,16
GAS LISTING /tmp/ccnJgEx6.s 			page 9


 316              		.cfi_def_cfa 8, 0
  28:src/KSem.cpp  **** }
 317              		.loc 1 28 17 is_stmt 1 discriminator 1
  28:src/KSem.cpp  **** }
 318              		.loc 1 28 24 is_stmt 0 discriminator 1
 319 0194 97000000 		call	_ZN4KSem7unblockEv
 319      E7800000 
 320              	.LVL25:
  29:src/KSem.cpp  **** 
 321              		.loc 1 29 1 discriminator 1
 322 019c 83308100 		ld	ra,8(sp)
 323              		.cfi_restore 1
 324 01a0 03340100 		ld	s0,0(sp)
 325              		.cfi_restore 8
 326              		.cfi_def_cfa 2, 16
 327 01a4 13010101 		addi	sp,sp,16
 328              		.cfi_def_cfa_offset 0
 329 01a8 67800000 		jr	ra
 330              		.cfi_endproc
 331              	.LFE37:
 333              		.align	2
 334              		.globl	_ZN4KSem8closeSemEPS_
 336              	_ZN4KSem8closeSemEPS_:
 337              	.LFB40:
  42:src/KSem.cpp  **** 
  43:src/KSem.cpp  **** int KSem::closeSem(sem_t handle) {
 338              		.loc 1 43 34 is_stmt 1
 339              		.cfi_startproc
 340              	.LVL26:
 341 01ac 130101FE 		addi	sp,sp,-32
 342              		.cfi_def_cfa_offset 32
 343 01b0 233C1100 		sd	ra,24(sp)
 344 01b4 23388100 		sd	s0,16(sp)
 345 01b8 23349100 		sd	s1,8(sp)
 346              		.cfi_offset 1, -8
 347              		.cfi_offset 8, -16
 348              		.cfi_offset 9, -24
 349 01bc 13040102 		addi	s0,sp,32
 350              		.cfi_def_cfa 8, 0
 351 01c0 93040500 		mv	s1,a0
  44:src/KSem.cpp  **** 	handle->working=false;
 352              		.loc 1 44 2
 353              		.loc 1 44 17 is_stmt 0
 354 01c4 230C0500 		sb	zero,24(a0)
 355              	.LVL27:
 356              	.L27:
  45:src/KSem.cpp  **** 	while(!handle->blocked.isEmpty()){
 357              		.loc 1 45 2 is_stmt 1
 358              		.loc 1 45 8
 359              	.LBB29:
 360              	.LBB30:
  35:src/../h/../h/ThreadQueue.hpp **** 
  36:src/../h/../h/ThreadQueue.hpp **** 	ThreadQueue(const ThreadQueue&) = delete;
  37:src/../h/../h/ThreadQueue.hpp **** 
  38:src/../h/../h/ThreadQueue.hpp **** 	ThreadQueue& operator=(const ThreadQueue&) = delete;
  39:src/../h/../h/ThreadQueue.hpp **** 
  40:src/../h/../h/ThreadQueue.hpp **** 	~ThreadQueue() {
GAS LISTING /tmp/ccnJgEx6.s 			page 10


  41:src/../h/../h/ThreadQueue.hpp **** 		while (!isEmpty()) {
  42:src/../h/../h/ThreadQueue.hpp **** 			Node* node = front;
  43:src/../h/../h/ThreadQueue.hpp **** 			front = front->next;
  44:src/../h/../h/ThreadQueue.hpp **** 			delete node;
  45:src/../h/../h/ThreadQueue.hpp **** 		}
  46:src/../h/../h/ThreadQueue.hpp **** 	}
  47:src/../h/../h/ThreadQueue.hpp **** 
  48:src/../h/../h/ThreadQueue.hpp **** 	bool isEmpty() const {
  49:src/../h/../h/ThreadQueue.hpp **** 		return front == nullptr;
 361              		.loc 3 49 3
 362              		.loc 3 49 10 is_stmt 0
 363 01c8 83B78400 		ld	a5,8(s1)
 364              	.LVL28:
 365              	.LBE30:
 366              	.LBE29:
 367              		.loc 1 45 8
 368 01cc 63800702 		beqz	a5,.L26
 369              	.LBB31:
  46:src/KSem.cpp  **** 		TCB* tcb = handle->blocked.getFirst();
 370              		.loc 1 46 3 is_stmt 1
 371              		.loc 1 46 38 is_stmt 0
 372 01d0 13858400 		addi	a0,s1,8
 373 01d4 97000000 		call	_ZN11ThreadQueue8getFirstEv@plt
 373      E7800000 
 374              	.LVL29:
  47:src/KSem.cpp  **** 		tcb->setBlocked(false);
 375              		.loc 1 47 3 is_stmt 1
 376              	.LBB32:
 377              	.LBB33:
 378              		.loc 4 25 32
 379              		.loc 4 25 46 is_stmt 0
 380 01dc A3080502 		sb	zero,49(a0)
 381              	.LVL30:
 382              	.LBE33:
 383              	.LBE32:
  48:src/KSem.cpp  **** 		Scheduler::put(tcb);
 384              		.loc 1 48 3 is_stmt 1
 385              		.loc 1 48 17 is_stmt 0
 386 01e0 97000000 		call	_ZN9Scheduler3putEP3TCB@plt
 386      E7800000 
 387              	.LVL31:
 388              	.LBE31:
  45:src/KSem.cpp  **** 		TCB* tcb = handle->blocked.getFirst();
 389              		.loc 1 45 2
 390 01e8 6FF01FFE 		j	.L27
 391              	.L26:
  49:src/KSem.cpp  **** 	}
  50:src/KSem.cpp  **** 	return 0;
 392              		.loc 1 50 2 is_stmt 1
  51:src/KSem.cpp  **** }
 393              		.loc 1 51 1 is_stmt 0
 394 01ec 13050000 		li	a0,0
 395 01f0 83308101 		ld	ra,24(sp)
 396              		.cfi_restore 1
 397 01f4 03340101 		ld	s0,16(sp)
 398              		.cfi_restore 8
 399              		.cfi_def_cfa 2, 32
GAS LISTING /tmp/ccnJgEx6.s 			page 11


 400 01f8 83348100 		ld	s1,8(sp)
 401              		.cfi_restore 9
 402              	.LVL32:
 403 01fc 13010102 		addi	sp,sp,32
 404              		.cfi_def_cfa_offset 0
 405 0200 67800000 		jr	ra
 406              		.cfi_endproc
 407              	.LFE40:
 409              	.Letext0:
 410              		.file 5 "src/../h/../h/../h/../lib/hw.h"
 411              		.file 6 "src/../h/../h/../h/MemoryAllocator.hpp"
 412              		.file 7 "src/../h/../h/../h/syscall_c.hpp"
 413              		.file 8 "src/../h/Scheduler.hpp"
GAS LISTING /tmp/ccnJgEx6.s 			page 12


DEFINED SYMBOLS
                            *ABS*:0000000000000000 KSem.cpp
     /tmp/ccnJgEx6.s:9      .text:0000000000000000 _ZN4KSemnwEm
     /tmp/ccnJgEx6.s:13     .text:0000000000000000 .L0 
     /tmp/ccnJgEx6.s:15     .text:0000000000000000 .L0 
     /tmp/ccnJgEx6.s:16     .text:0000000000000004 .L0 
     /tmp/ccnJgEx6.s:19     .text:000000000000000c .L0 
     /tmp/ccnJgEx6.s:20     .text:000000000000000c .L0 
     /tmp/ccnJgEx6.s:22     .text:0000000000000010 .L0 
     /tmp/ccnJgEx6.s:24     .text:0000000000000010 .L0 
     /tmp/ccnJgEx6.s:25     .text:0000000000000010 .L0 
     /tmp/ccnJgEx6.s:30     .text:000000000000001c .L0 
     /tmp/ccnJgEx6.s:31     .text:0000000000000020 .L0 
     /tmp/ccnJgEx6.s:33     .text:0000000000000024 .L0 
     /tmp/ccnJgEx6.s:34     .text:0000000000000024 .L0 
     /tmp/ccnJgEx6.s:36     .text:0000000000000028 .L0 
     /tmp/ccnJgEx6.s:38     .text:000000000000002c .L0 
     /tmp/ccnJgEx6.s:44     .text:000000000000002c _ZN4KSemdlEPv
     /tmp/ccnJgEx6.s:47     .text:000000000000002c .L0 
     /tmp/ccnJgEx6.s:49     .text:000000000000002c .L0 
     /tmp/ccnJgEx6.s:50     .text:0000000000000030 .L0 
     /tmp/ccnJgEx6.s:53     .text:0000000000000038 .L0 
     /tmp/ccnJgEx6.s:54     .text:0000000000000038 .L0 
     /tmp/ccnJgEx6.s:56     .text:000000000000003c .L0 
     /tmp/ccnJgEx6.s:58     .text:000000000000003c .L0 
     /tmp/ccnJgEx6.s:59     .text:000000000000003c .L0 
     /tmp/ccnJgEx6.s:62     .text:0000000000000044 .L0 
     /tmp/ccnJgEx6.s:63     .text:0000000000000048 .L0 
     /tmp/ccnJgEx6.s:65     .text:000000000000004c .L0 
     /tmp/ccnJgEx6.s:66     .text:000000000000004c .L0 
     /tmp/ccnJgEx6.s:68     .text:0000000000000050 .L0 
     /tmp/ccnJgEx6.s:70     .text:0000000000000054 .L0 
     /tmp/ccnJgEx6.s:76     .text:0000000000000054 _ZN4KSem7initSemEj
     /tmp/ccnJgEx6.s:79     .text:0000000000000054 .L0 
     /tmp/ccnJgEx6.s:81     .text:0000000000000054 .L0 
     /tmp/ccnJgEx6.s:82     .text:0000000000000058 .L0 
     /tmp/ccnJgEx6.s:86     .text:0000000000000064 .L0 
     /tmp/ccnJgEx6.s:87     .text:0000000000000064 .L0 
     /tmp/ccnJgEx6.s:88     .text:0000000000000064 .L0 
     /tmp/ccnJgEx6.s:90     .text:0000000000000068 .L0 
     /tmp/ccnJgEx6.s:93     .text:000000000000006c .L0 
     /tmp/ccnJgEx6.s:94     .text:000000000000006c .L0 
     /tmp/ccnJgEx6.s:102    .text:0000000000000078 .L0 
     /tmp/ccnJgEx6.s:108    .text:000000000000007c .L0 
     /tmp/ccnJgEx6.s:114    .text:0000000000000084 .L0 
     /tmp/ccnJgEx6.s:120    .text:000000000000008c .L0 
     /tmp/ccnJgEx6.s:121    .text:0000000000000090 .L0 
     /tmp/ccnJgEx6.s:123    .text:0000000000000094 .L0 
     /tmp/ccnJgEx6.s:124    .text:0000000000000094 .L0 
     /tmp/ccnJgEx6.s:126    .text:0000000000000098 .L0 
     /tmp/ccnJgEx6.s:128    .text:000000000000009c .L0 
     /tmp/ccnJgEx6.s:130    .text:00000000000000a0 .L0 
     /tmp/ccnJgEx6.s:136    .text:00000000000000a0 _ZN4KSem5blockEv
     /tmp/ccnJgEx6.s:139    .text:00000000000000a0 .L0 
     /tmp/ccnJgEx6.s:141    .text:00000000000000a0 .L0 
     /tmp/ccnJgEx6.s:142    .text:00000000000000a4 .L0 
     /tmp/ccnJgEx6.s:145    .text:00000000000000ac .L0 
GAS LISTING /tmp/ccnJgEx6.s 			page 13


     /tmp/ccnJgEx6.s:146    .text:00000000000000ac .L0 
     /tmp/ccnJgEx6.s:148    .text:00000000000000b0 .L0 
     /tmp/ccnJgEx6.s:150    .text:00000000000000b0 .L0 
     /tmp/ccnJgEx6.s:151    .text:00000000000000b0 .L0 
     /tmp/ccnJgEx6.s:158    .text:00000000000000bc .L0 
     /tmp/ccnJgEx6.s:159    .text:00000000000000bc .L0 
     /tmp/ccnJgEx6.s:165    .text:00000000000000c4 .L0 
     /tmp/ccnJgEx6.s:166    .text:00000000000000c4 .L0 
     /tmp/ccnJgEx6.s:171    .text:00000000000000d0 .L0 
     /tmp/ccnJgEx6.s:172    .text:00000000000000d0 .L0 
     /tmp/ccnJgEx6.s:175    .text:00000000000000d8 .L0 
     /tmp/ccnJgEx6.s:176    .text:00000000000000dc .L0 
     /tmp/ccnJgEx6.s:178    .text:00000000000000e0 .L0 
     /tmp/ccnJgEx6.s:179    .text:00000000000000e0 .L0 
     /tmp/ccnJgEx6.s:181    .text:00000000000000e4 .L0 
     /tmp/ccnJgEx6.s:183    .text:00000000000000e8 .L0 
     /tmp/ccnJgEx6.s:189    .text:00000000000000e8 _ZN4KSem4waitEv
     /tmp/ccnJgEx6.s:192    .text:00000000000000e8 .L0 
     /tmp/ccnJgEx6.s:194    .text:00000000000000e8 .L0 
     /tmp/ccnJgEx6.s:195    .text:00000000000000e8 .L0 
     /tmp/ccnJgEx6.s:196    .text:00000000000000e8 .L0 
     /tmp/ccnJgEx6.s:198    .text:00000000000000ec .L0 
     /tmp/ccnJgEx6.s:200    .text:00000000000000f0 .L0 
     /tmp/ccnJgEx6.s:201    .text:00000000000000f0 .L0 
     /tmp/ccnJgEx6.s:203    .text:00000000000000f4 .L0 
     /tmp/ccnJgEx6.s:205    .text:00000000000000f8 .L0 
     /tmp/ccnJgEx6.s:207    .text:00000000000000fc .L0 
     /tmp/ccnJgEx6.s:213    .text:0000000000000108 .L0 
     /tmp/ccnJgEx6.s:214    .text:000000000000010c .L0 
     /tmp/ccnJgEx6.s:217    .text:0000000000000114 .L0 
     /tmp/ccnJgEx6.s:218    .text:0000000000000114 .L0 
     /tmp/ccnJgEx6.s:220    .text:0000000000000118 .L0 
     /tmp/ccnJgEx6.s:222    .text:0000000000000118 .L0 
     /tmp/ccnJgEx6.s:223    .text:0000000000000118 .L0 
     /tmp/ccnJgEx6.s:226    .text:0000000000000120 .L0 
     /tmp/ccnJgEx6.s:227    .text:0000000000000124 .L0 
     /tmp/ccnJgEx6.s:229    .text:0000000000000128 .L0 
     /tmp/ccnJgEx6.s:230    .text:0000000000000128 .L0 
     /tmp/ccnJgEx6.s:232    .text:000000000000012c .L0 
     /tmp/ccnJgEx6.s:234    .text:0000000000000130 .L0 
     /tmp/ccnJgEx6.s:240    .text:0000000000000130 _ZN4KSem7unblockEv
     /tmp/ccnJgEx6.s:243    .text:0000000000000130 .L0 
     /tmp/ccnJgEx6.s:245    .text:0000000000000130 .L0 
     /tmp/ccnJgEx6.s:246    .text:0000000000000134 .L0 
     /tmp/ccnJgEx6.s:249    .text:000000000000013c .L0 
     /tmp/ccnJgEx6.s:250    .text:000000000000013c .L0 
     /tmp/ccnJgEx6.s:252    .text:0000000000000140 .L0 
     /tmp/ccnJgEx6.s:254    .text:0000000000000140 .L0 
     /tmp/ccnJgEx6.s:255    .text:0000000000000140 .L0 
     /tmp/ccnJgEx6.s:262    .text:000000000000014c .L0 
     /tmp/ccnJgEx6.s:263    .text:000000000000014c .L0 
     /tmp/ccnJgEx6.s:264    .text:000000000000014c .L0 
     /tmp/ccnJgEx6.s:269    .text:0000000000000150 .L0 
     /tmp/ccnJgEx6.s:270    .text:0000000000000150 .L0 
     /tmp/ccnJgEx6.s:273    .text:0000000000000158 .L0 
     /tmp/ccnJgEx6.s:274    .text:000000000000015c .L0 
     /tmp/ccnJgEx6.s:276    .text:0000000000000160 .L0 
GAS LISTING /tmp/ccnJgEx6.s 			page 14


     /tmp/ccnJgEx6.s:277    .text:0000000000000160 .L0 
     /tmp/ccnJgEx6.s:279    .text:0000000000000164 .L0 
     /tmp/ccnJgEx6.s:281    .text:0000000000000168 .L0 
     /tmp/ccnJgEx6.s:287    .text:0000000000000168 _ZN4KSem6signalEv
     /tmp/ccnJgEx6.s:290    .text:0000000000000168 .L0 
     /tmp/ccnJgEx6.s:292    .text:0000000000000168 .L0 
     /tmp/ccnJgEx6.s:293    .text:0000000000000168 .L0 
     /tmp/ccnJgEx6.s:294    .text:0000000000000168 .L0 
     /tmp/ccnJgEx6.s:296    .text:000000000000016c .L0 
     /tmp/ccnJgEx6.s:298    .text:0000000000000170 .L0 
     /tmp/ccnJgEx6.s:299    .text:0000000000000170 .L0 
     /tmp/ccnJgEx6.s:301    .text:0000000000000174 .L0 
     /tmp/ccnJgEx6.s:304    .text:000000000000017c .L0 
     /tmp/ccnJgEx6.s:309    .text:0000000000000184 .L0 
     /tmp/ccnJgEx6.s:310    .text:0000000000000188 .L0 
     /tmp/ccnJgEx6.s:313    .text:0000000000000190 .L0 
     /tmp/ccnJgEx6.s:314    .text:0000000000000190 .L0 
     /tmp/ccnJgEx6.s:316    .text:0000000000000194 .L0 
     /tmp/ccnJgEx6.s:318    .text:0000000000000194 .L0 
     /tmp/ccnJgEx6.s:319    .text:0000000000000194 .L0 
     /tmp/ccnJgEx6.s:322    .text:000000000000019c .L0 
     /tmp/ccnJgEx6.s:323    .text:00000000000001a0 .L0 
     /tmp/ccnJgEx6.s:325    .text:00000000000001a4 .L0 
     /tmp/ccnJgEx6.s:326    .text:00000000000001a4 .L0 
     /tmp/ccnJgEx6.s:328    .text:00000000000001a8 .L0 
     /tmp/ccnJgEx6.s:330    .text:00000000000001ac .L0 
     /tmp/ccnJgEx6.s:336    .text:00000000000001ac _ZN4KSem8closeSemEPS_
     /tmp/ccnJgEx6.s:339    .text:00000000000001ac .L0 
     /tmp/ccnJgEx6.s:341    .text:00000000000001ac .L0 
     /tmp/ccnJgEx6.s:342    .text:00000000000001b0 .L0 
     /tmp/ccnJgEx6.s:346    .text:00000000000001bc .L0 
     /tmp/ccnJgEx6.s:347    .text:00000000000001bc .L0 
     /tmp/ccnJgEx6.s:348    .text:00000000000001bc .L0 
     /tmp/ccnJgEx6.s:350    .text:00000000000001c0 .L0 
     /tmp/ccnJgEx6.s:353    .text:00000000000001c4 .L0 
     /tmp/ccnJgEx6.s:354    .text:00000000000001c4 .L0 
     /tmp/ccnJgEx6.s:358    .text:00000000000001c8 .L0 
     /tmp/ccnJgEx6.s:361    .text:00000000000001c8 .L0 
     /tmp/ccnJgEx6.s:362    .text:00000000000001c8 .L0 
     /tmp/ccnJgEx6.s:363    .text:00000000000001c8 .L0 
     /tmp/ccnJgEx6.s:368    .text:00000000000001cc .L0 
     /tmp/ccnJgEx6.s:371    .text:00000000000001d0 .L0 
     /tmp/ccnJgEx6.s:372    .text:00000000000001d0 .L0 
     /tmp/ccnJgEx6.s:378    .text:00000000000001dc .L0 
     /tmp/ccnJgEx6.s:379    .text:00000000000001dc .L0 
     /tmp/ccnJgEx6.s:380    .text:00000000000001dc .L0 
     /tmp/ccnJgEx6.s:385    .text:00000000000001e0 .L0 
     /tmp/ccnJgEx6.s:386    .text:00000000000001e0 .L0 
     /tmp/ccnJgEx6.s:390    .text:00000000000001e8 .L0 
     /tmp/ccnJgEx6.s:393    .text:00000000000001ec .L0 
     /tmp/ccnJgEx6.s:394    .text:00000000000001ec .L0 
     /tmp/ccnJgEx6.s:396    .text:00000000000001f4 .L0 
     /tmp/ccnJgEx6.s:398    .text:00000000000001f8 .L0 
     /tmp/ccnJgEx6.s:399    .text:00000000000001f8 .L0 
     /tmp/ccnJgEx6.s:401    .text:00000000000001fc .L0 
     /tmp/ccnJgEx6.s:404    .text:0000000000000200 .L0 
     /tmp/ccnJgEx6.s:406    .text:0000000000000204 .L0 
GAS LISTING /tmp/ccnJgEx6.s 			page 15


     /tmp/ccnJgEx6.s:414    .text:0000000000000204 .L0 
     /tmp/ccnJgEx6.s:151    .text:00000000000000b0 .L0 
     /tmp/ccnJgEx6.s:209    .text:0000000000000104 .L12
     /tmp/ccnJgEx6.s:211    .text:0000000000000108 .L15
     /tmp/ccnJgEx6.s:305    .text:0000000000000180 .L21
     /tmp/ccnJgEx6.s:307    .text:0000000000000184 .L24
     /tmp/ccnJgEx6.s:391    .text:00000000000001ec .L26
     /tmp/ccnJgEx6.s:356    .text:00000000000001c8 .L27
     /tmp/ccnJgEx6.s:1879   .debug_abbrev:0000000000000000 .Ldebug_abbrev0
     /tmp/ccnJgEx6.s:3419   .debug_str:0000000000000707 .LASF133
     /tmp/ccnJgEx6.s:3267   .debug_str:000000000000025a .LASF134
     /tmp/ccnJgEx6.s:3273   .debug_str:000000000000027b .LASF135
     /tmp/ccnJgEx6.s:5      .text:0000000000000000 .Ltext0
     /tmp/ccnJgEx6.s:409    .text:0000000000000204 .Letext0
     /tmp/ccnJgEx6.s:3181   .debug_line:0000000000000000 .Ldebug_line0
     /tmp/ccnJgEx6.s:3227   .debug_str:0000000000000141 .LASF3
     /tmp/ccnJgEx6.s:3335   .debug_str:00000000000004ac .LASF0
     /tmp/ccnJgEx6.s:3351   .debug_str:0000000000000501 .LASF1
     /tmp/ccnJgEx6.s:3317   .debug_str:0000000000000413 .LASF2
     /tmp/ccnJgEx6.s:3281   .debug_str:00000000000002e4 .LASF4
     /tmp/ccnJgEx6.s:3399   .debug_str:0000000000000686 .LASF5
     /tmp/ccnJgEx6.s:3209   .debug_str:00000000000000d1 .LASF6
     /tmp/ccnJgEx6.s:3239   .debug_str:0000000000000191 .LASF7
     /tmp/ccnJgEx6.s:3357   .debug_str:0000000000000546 .LASF8
     /tmp/ccnJgEx6.s:3333   .debug_str:0000000000000499 .LASF9
     /tmp/ccnJgEx6.s:3439   .debug_str:000000000000083c .LASF10
     /tmp/ccnJgEx6.s:3269   .debug_str:0000000000000267 .LASF11
     /tmp/ccnJgEx6.s:3373   .debug_str:00000000000005bf .LASF12
     /tmp/ccnJgEx6.s:3425   .debug_str:00000000000007e9 .LASF13
     /tmp/ccnJgEx6.s:3213   .debug_str:00000000000000e0 .LASF14
     /tmp/ccnJgEx6.s:3187   .debug_str:000000000000002a .LASF15
     /tmp/ccnJgEx6.s:3223   .debug_str:000000000000012a .LASF16
     /tmp/ccnJgEx6.s:3391   .debug_str:0000000000000647 .LASF17
     /tmp/ccnJgEx6.s:3235   .debug_str:0000000000000176 .LASF18
     /tmp/ccnJgEx6.s:3311   .debug_str:00000000000003e4 .LASF32
     /tmp/ccnJgEx6.s:3435   .debug_str:0000000000000820 .LASF22
     /tmp/ccnJgEx6.s:3465   .debug_str:0000000000000914 .LASF19
     /tmp/ccnJgEx6.s:3455   .debug_str:00000000000008c1 .LASF20
     /tmp/ccnJgEx6.s:3413   .debug_str:00000000000006ec .LASF21
     /tmp/ccnJgEx6.s:3283   .debug_str:00000000000002eb .LASF23
     /tmp/ccnJgEx6.s:3429   .debug_str:00000000000007fd .LASF24
     /tmp/ccnJgEx6.s:3389   .debug_str:0000000000000628 .LASF26
     /tmp/ccnJgEx6.s:3371   .debug_str:00000000000005b9 .LASF25
     /tmp/ccnJgEx6.s:3185   .debug_str:000000000000000c .LASF27
     /tmp/ccnJgEx6.s:3243   .debug_str:00000000000001a4 .LASF48
     /tmp/ccnJgEx6.s:3183   .debug_str:0000000000000000 .LASF28
     /tmp/ccnJgEx6.s:3459   .debug_str:00000000000008e8 .LASF29
     /tmp/ccnJgEx6.s:3369   .debug_str:00000000000005ad .LASF30
     /tmp/ccnJgEx6.s:3255   .debug_str:00000000000001fd .LASF72
     /tmp/ccnJgEx6.s:3327   .debug_str:0000000000000452 .LASF74
     /tmp/ccnJgEx6.s:3261   .debug_str:0000000000000228 .LASF31
     /tmp/ccnJgEx6.s:3193   .debug_str:000000000000004c .LASF99
     /tmp/ccnJgEx6.s:3295   .debug_str:0000000000000344 .LASF33
     /tmp/ccnJgEx6.s:3457   .debug_str:00000000000008c6 .LASF34
     /tmp/ccnJgEx6.s:3383   .debug_str:0000000000000608 .LASF136
     /tmp/ccnJgEx6.s:3359   .debug_str:0000000000000559 .LASF37
     /tmp/ccnJgEx6.s:3305   .debug_str:00000000000003ab .LASF39
GAS LISTING /tmp/ccnJgEx6.s 			page 16


     /tmp/ccnJgEx6.s:3319   .debug_str:0000000000000421 .LASF35
     /tmp/ccnJgEx6.s:3277   .debug_str:00000000000002c1 .LASF36
     /tmp/ccnJgEx6.s:3191   .debug_str:0000000000000042 .LASF38
     /tmp/ccnJgEx6.s:3365   .debug_str:000000000000058f .LASF40
     /tmp/ccnJgEx6.s:3285   .debug_str:00000000000002fa .LASF41
     /tmp/ccnJgEx6.s:3307   .debug_str:00000000000003c1 .LASF42
     /tmp/ccnJgEx6.s:3309   .debug_str:00000000000003d7 .LASF43
     /tmp/ccnJgEx6.s:3219   .debug_str:00000000000000fa .LASF44
     /tmp/ccnJgEx6.s:3437   .debug_str:000000000000082f .LASF45
     /tmp/ccnJgEx6.s:3443   .debug_str:000000000000086d .LASF46
     /tmp/ccnJgEx6.s:3247   .debug_str:00000000000001d1 .LASF47
     /tmp/ccnJgEx6.s:3265   .debug_str:0000000000000242 .LASF49
     /tmp/ccnJgEx6.s:3385   .debug_str:000000000000060d .LASF50
     /tmp/ccnJgEx6.s:3325   .debug_str:0000000000000439 .LASF52
     /tmp/ccnJgEx6.s:3393   .debug_str:000000000000065d .LASF51
     /tmp/ccnJgEx6.s:3203   .debug_str:000000000000009f .LASF53
     /tmp/ccnJgEx6.s:3337   .debug_str:00000000000004b9 .LASF54
     /tmp/ccnJgEx6.s:3259   .debug_str:0000000000000215 .LASF55
     /tmp/ccnJgEx6.s:3409   .debug_str:00000000000006dc .LASF56
     /tmp/ccnJgEx6.s:3403   .debug_str:00000000000006a8 .LASF57
     /tmp/ccnJgEx6.s:3349   .debug_str:00000000000004f9 .LASF58
     /tmp/ccnJgEx6.s:3379   .debug_str:00000000000005db .LASF59
     /tmp/ccnJgEx6.s:3291   .debug_str:000000000000031b .LASF60
     /tmp/ccnJgEx6.s:3315   .debug_str:0000000000000404 .LASF61
     /tmp/ccnJgEx6.s:3339   .debug_str:00000000000004c2 .LASF62
     /tmp/ccnJgEx6.s:3341   .debug_str:00000000000004c8 .LASF63
     /tmp/ccnJgEx6.s:3345   .debug_str:00000000000004da .LASF64
     /tmp/ccnJgEx6.s:3287   .debug_str:0000000000000305 .LASF65
     /tmp/ccnJgEx6.s:3331   .debug_str:0000000000000491 .LASF66
     /tmp/ccnJgEx6.s:3225   .debug_str:0000000000000136 .LASF67
     /tmp/ccnJgEx6.s:3401   .debug_str:0000000000000698 .LASF68
     /tmp/ccnJgEx6.s:3279   .debug_str:00000000000002d8 .LASF69
     /tmp/ccnJgEx6.s:3361   .debug_str:0000000000000564 .LASF70
     /tmp/ccnJgEx6.s:3257   .debug_str:0000000000000207 .LASF71
     /tmp/ccnJgEx6.s:3205   .debug_str:00000000000000af .LASF124
     /tmp/ccnJgEx6.s:3449   .debug_str:000000000000089b .LASF73
     /tmp/ccnJgEx6.s:3275   .debug_str:0000000000000299 .LASF75
     /tmp/ccnJgEx6.s:3453   .debug_str:00000000000008b4 .LASF76
     /tmp/ccnJgEx6.s:3207   .debug_str:00000000000000c5 .LASF77
     /tmp/ccnJgEx6.s:3405   .debug_str:00000000000006ba .LASF95
     /tmp/ccnJgEx6.s:3387   .debug_str:000000000000061b .LASF96
     /tmp/ccnJgEx6.s:3253   .debug_str:00000000000001f7 .LASF78
     /tmp/ccnJgEx6.s:3445   .debug_str:0000000000000885 .LASF79
     /tmp/ccnJgEx6.s:3377   .debug_str:00000000000005d3 .LASF80
     /tmp/ccnJgEx6.s:3197   .debug_str:0000000000000066 .LASF81
     /tmp/ccnJgEx6.s:3467   .debug_str:0000000000000919 .LASF82
     /tmp/ccnJgEx6.s:3201   .debug_str:000000000000008f .LASF83
     /tmp/ccnJgEx6.s:3233   .debug_str:000000000000016f .LASF84
     /tmp/ccnJgEx6.s:3407   .debug_str:00000000000006ca .LASF85
     /tmp/ccnJgEx6.s:3421   .debug_str:00000000000007cb .LASF86
     /tmp/ccnJgEx6.s:3199   .debug_str:0000000000000079 .LASF87
     /tmp/ccnJgEx6.s:3251   .debug_str:00000000000001f1 .LASF88
     /tmp/ccnJgEx6.s:3447   .debug_str:000000000000088a .LASF89
     /tmp/ccnJgEx6.s:3211   .debug_str:00000000000000d8 .LASF90
     /tmp/ccnJgEx6.s:3461   .debug_str:00000000000008f4 .LASF91
     /tmp/ccnJgEx6.s:3289   .debug_str:000000000000030e .LASF92
     /tmp/ccnJgEx6.s:3189   .debug_str:000000000000003a .LASF93
GAS LISTING /tmp/ccnJgEx6.s 			page 17


     /tmp/ccnJgEx6.s:3463   .debug_str:0000000000000907 .LASF94
     /tmp/ccnJgEx6.s:3301   .debug_str:0000000000000388 .LASF97
     /tmp/ccnJgEx6.s:3241   .debug_str:0000000000000198 .LASF98
     /tmp/ccnJgEx6.s:3217   .debug_str:00000000000000f5 .LASF100
     /tmp/ccnJgEx6.s:3431   .debug_str:0000000000000805 .LASF101
     /tmp/ccnJgEx6.s:3363   .debug_str:0000000000000571 .LASF102
     /tmp/ccnJgEx6.s:3353   .debug_str:0000000000000514 .LASF103
     /tmp/ccnJgEx6.s:3397   .debug_str:000000000000066b .LASF104
     /tmp/ccnJgEx6.s:3271   .debug_str:0000000000000275 .LASF105
     /tmp/ccnJgEx6.s:3427   .debug_str:00000000000007f8 .LASF106
     /tmp/ccnJgEx6.s:3263   .debug_str:000000000000022d .LASF107
     /tmp/ccnJgEx6.s:3355   .debug_str:000000000000052e .LASF108
     /tmp/ccnJgEx6.s:3329   .debug_str:0000000000000487 .LASF137
     /tmp/ccnJgEx6.s:3299   .debug_str:0000000000000370 .LASF138
     /tmp/ccnJgEx6.s:3229   .debug_str:0000000000000146 .LASF109
     /tmp/ccnJgEx6.s:3303   .debug_str:0000000000000396 .LASF110
     /tmp/ccnJgEx6.s:3395   .debug_str:0000000000000663 .LASF111
     /tmp/ccnJgEx6.s:3231   .debug_str:0000000000000153 .LASF112
     /tmp/ccnJgEx6.s:3411   .debug_str:00000000000006e4 .LASF113
     /tmp/ccnJgEx6.s:3297   .debug_str:0000000000000351 .LASF114
     /tmp/ccnJgEx6.s:3417   .debug_str:00000000000006fe .LASF115
     /tmp/ccnJgEx6.s:3381   .debug_str:00000000000005ec .LASF116
     /tmp/ccnJgEx6.s:3423   .debug_str:00000000000007d4 .LASF117
     /tmp/ccnJgEx6.s:3433   .debug_str:000000000000080a .LASF118
     /tmp/ccnJgEx6.s:3367   .debug_str:00000000000005a3 .LASF119
     /tmp/ccnJgEx6.s:3237   .debug_str:000000000000018c .LASF120
     /tmp/ccnJgEx6.s:3323   .debug_str:0000000000000434 .LASF121
     /tmp/ccnJgEx6.s:3343   .debug_str:00000000000004cd .LASF122
     /tmp/ccnJgEx6.s:3195   .debug_str:0000000000000054 .LASF123
     /tmp/ccnJgEx6.s:3221   .debug_str:0000000000000112 .LASF125
     /tmp/ccnJgEx6.s:3245   .debug_str:00000000000001bd .LASF139
     /tmp/ccnJgEx6.s:3313   .debug_str:00000000000003f4 .LASF126
     /tmp/ccnJgEx6.s:3441   .debug_str:000000000000084c .LASF140
     /tmp/ccnJgEx6.s:3451   .debug_str:00000000000008a9 .LASF127
     /tmp/ccnJgEx6.s:3293   .debug_str:0000000000000323 .LASF128
     /tmp/ccnJgEx6.s:3215   .debug_str:00000000000000f0 .LASF129
     /tmp/ccnJgEx6.s:3347   .debug_str:00000000000004e4 .LASF130
     /tmp/ccnJgEx6.s:337    .text:00000000000001ac .LFB40
     /tmp/ccnJgEx6.s:407    .text:0000000000000204 .LFE40
     /tmp/ccnJgEx6.s:3321   .debug_str:000000000000042d .LASF132
     /tmp/ccnJgEx6.s:2943   .debug_loc:0000000000000000 .LLST15
     /tmp/ccnJgEx6.s:369    .text:00000000000001d0 .LBB31
     /tmp/ccnJgEx6.s:388    .text:00000000000001e8 .LBE31
     /tmp/ccnJgEx6.s:2961   .debug_loc:000000000000004c .LLST17
     /tmp/ccnJgEx6.s:376    .text:00000000000001dc .LBB32
     /tmp/ccnJgEx6.s:383    .text:00000000000001e0 .LBE32
     /tmp/ccnJgEx6.s:2968   .debug_loc:000000000000006f .LLST18
     /tmp/ccnJgEx6.s:2976   .debug_loc:0000000000000093 .LLST19
     /tmp/ccnJgEx6.s:374    .text:00000000000001dc .LVL29
     /tmp/ccnJgEx6.s:387    .text:00000000000001e8 .LVL31
     /tmp/ccnJgEx6.s:359    .text:00000000000001c8 .LBB29
     /tmp/ccnJgEx6.s:366    .text:00000000000001cc .LBE29
     /tmp/ccnJgEx6.s:2983   .debug_loc:00000000000000b6 .LLST16
     /tmp/ccnJgEx6.s:241    .text:0000000000000130 .LFB39
     /tmp/ccnJgEx6.s:282    .text:0000000000000168 .LFE39
     /tmp/ccnJgEx6.s:3375   .debug_str:00000000000005ce .LASF131
     /tmp/ccnJgEx6.s:2992   .debug_loc:00000000000000db .LLST10
GAS LISTING /tmp/ccnJgEx6.s 			page 18


     /tmp/ccnJgEx6.s:3012   .debug_loc:0000000000000129 .LLST11
     /tmp/ccnJgEx6.s:260    .text:000000000000014c .LBB27
     /tmp/ccnJgEx6.s:267    .text:0000000000000150 .LBE27
     /tmp/ccnJgEx6.s:3019   .debug_loc:000000000000014c .LLST12
     /tmp/ccnJgEx6.s:3027   .debug_loc:0000000000000170 .LLST13
     /tmp/ccnJgEx6.s:258    .text:000000000000014c .LVL21
     /tmp/ccnJgEx6.s:271    .text:0000000000000158 .LVL23
     /tmp/ccnJgEx6.s:137    .text:00000000000000a0 .LFB38
     /tmp/ccnJgEx6.s:184    .text:00000000000000e8 .LFE38
     /tmp/ccnJgEx6.s:3034   .debug_loc:0000000000000193 .LLST6
     /tmp/ccnJgEx6.s:154    .text:00000000000000bc .LBB25
     /tmp/ccnJgEx6.s:163    .text:00000000000000c4 .LBE25
     /tmp/ccnJgEx6.s:3054   .debug_loc:00000000000001e1 .LLST7
     /tmp/ccnJgEx6.s:3062   .debug_loc:0000000000000205 .LLST8
     /tmp/ccnJgEx6.s:169    .text:00000000000000d0 .LVL15
     /tmp/ccnJgEx6.s:173    .text:00000000000000d8 .LVL16
     /tmp/ccnJgEx6.s:288    .text:0000000000000168 .LFB37
     /tmp/ccnJgEx6.s:331    .text:00000000000001ac .LFE37
     /tmp/ccnJgEx6.s:3069   .debug_loc:0000000000000228 .LLST14
     /tmp/ccnJgEx6.s:320    .text:000000000000019c .LVL25
     /tmp/ccnJgEx6.s:190    .text:00000000000000e8 .LFB36
     /tmp/ccnJgEx6.s:235    .text:0000000000000130 .LFE36
     /tmp/ccnJgEx6.s:3083   .debug_loc:0000000000000261 .LLST9
     /tmp/ccnJgEx6.s:224    .text:0000000000000120 .LVL18
     /tmp/ccnJgEx6.s:77     .text:0000000000000054 .LFB35
     /tmp/ccnJgEx6.s:131    .text:00000000000000a0 .LFE35
     /tmp/ccnJgEx6.s:3097   .debug_loc:000000000000029a .LLST2
     /tmp/ccnJgEx6.s:98     .text:0000000000000078 .LBB21
     /tmp/ccnJgEx6.s:118    .text:000000000000008c .LBE21
     /tmp/ccnJgEx6.s:3111   .debug_loc:00000000000002d3 .LLST3
     /tmp/ccnJgEx6.s:3118   .debug_loc:00000000000002f6 .LLST4
     /tmp/ccnJgEx6.s:104    .text:000000000000007c .LBB23
     /tmp/ccnJgEx6.s:112    .text:0000000000000084 .LBE23
     /tmp/ccnJgEx6.s:3125   .debug_loc:0000000000000319 .LLST5
     /tmp/ccnJgEx6.s:97     .text:0000000000000078 .LVL7
     /tmp/ccnJgEx6.s:45     .text:000000000000002c .LFB34
     /tmp/ccnJgEx6.s:71     .text:0000000000000054 .LFE34
     /tmp/ccnJgEx6.s:3134   .debug_loc:000000000000033e .LLST1
     /tmp/ccnJgEx6.s:60     .text:0000000000000044 .LVL4
     /tmp/ccnJgEx6.s:10     .text:0000000000000000 .LFB33
     /tmp/ccnJgEx6.s:39     .text:000000000000002c .LFE33
     /tmp/ccnJgEx6.s:3148   .debug_loc:0000000000000377 .LLST0
     /tmp/ccnJgEx6.s:28     .text:000000000000001c .LVL2
     /tmp/ccnJgEx6.s:3415   .debug_str:00000000000006f1 .LASF141
     /tmp/ccnJgEx6.s:3249   .debug_str:00000000000001dc .LASF142
     /tmp/ccnJgEx6.s:340    .text:00000000000001ac .LVL26
     /tmp/ccnJgEx6.s:355    .text:00000000000001c8 .LVL27
     /tmp/ccnJgEx6.s:402    .text:00000000000001fc .LVL32
     /tmp/ccnJgEx6.s:381    .text:00000000000001e0 .LVL30
     /tmp/ccnJgEx6.s:364    .text:00000000000001cc .LVL28
     /tmp/ccnJgEx6.s:244    .text:0000000000000130 .LVL19
     /tmp/ccnJgEx6.s:256    .text:0000000000000144 .LVL20
     /tmp/ccnJgEx6.s:265    .text:0000000000000150 .LVL22
     /tmp/ccnJgEx6.s:140    .text:00000000000000a0 .LVL11
     /tmp/ccnJgEx6.s:167    .text:00000000000000c8 .LVL14
     /tmp/ccnJgEx6.s:153    .text:00000000000000bc .LVL12
     /tmp/ccnJgEx6.s:161    .text:00000000000000c4 .LVL13
GAS LISTING /tmp/ccnJgEx6.s 			page 19


     /tmp/ccnJgEx6.s:291    .text:0000000000000168 .LVL24
     /tmp/ccnJgEx6.s:193    .text:00000000000000e8 .LVL17
     /tmp/ccnJgEx6.s:80     .text:0000000000000054 .LVL5
     /tmp/ccnJgEx6.s:95     .text:0000000000000070 .LVL6
     /tmp/ccnJgEx6.s:116    .text:000000000000008c .LVL10
     /tmp/ccnJgEx6.s:103    .text:000000000000007c .LVL8
     /tmp/ccnJgEx6.s:110    .text:0000000000000084 .LVL9
     /tmp/ccnJgEx6.s:48     .text:000000000000002c .LVL3
     /tmp/ccnJgEx6.s:14     .text:0000000000000000 .LVL0
     /tmp/ccnJgEx6.s:26     .text:0000000000000014 .LVL1
     /tmp/ccnJgEx6.s:415    .debug_info:0000000000000000 .Ldebug_info0

UNDEFINED SYMBOLS
_ZN15MemoryAllocator7kmallocEm
_ZN15MemoryAllocator5kfreeEPv
_ZN3TCB7runningE
_ZN11ThreadQueue7putLastEP3TCB
_ZN3TCB5yieldEv
_ZN11ThreadQueue8getFirstEv
_ZN9Scheduler3putEP3TCB
