GAS LISTING /tmp/cc88CzHN.s 			page 1


   1              		.file	"KSem.cpp"
   2              		.option pic
   3              		.option norelax
   4              		.text
   5              	.Ltext0:
   6              		.align	2
   7              		.globl	_ZN4KSemnwEm
   9              	_ZN4KSemnwEm:
  10              	.LFB33:
  11              		.file 1 "src/KSem.cpp"
   1:src/KSem.cpp  **** //
   2:src/KSem.cpp  **** // Created by os on 6/4/23.
   3:src/KSem.cpp  **** //
   4:src/KSem.cpp  **** 
   5:src/KSem.cpp  **** #include "../h/KSem.hpp"
   6:src/KSem.cpp  **** #include "../h/TCB.hpp"
   7:src/KSem.cpp  **** #include "../h/Scheduler.hpp"
   8:src/KSem.cpp  **** 
   9:src/KSem.cpp  **** void* KSem::operator new(size_t size) {
  12              		.loc 1 9 39
  13              		.cfi_startproc
  14              	.LVL0:
  15 0000 130101FF 		addi	sp,sp,-16
  16              		.cfi_def_cfa_offset 16
  17 0004 23341100 		sd	ra,8(sp)
  18 0008 23308100 		sd	s0,0(sp)
  19              		.cfi_offset 1, -8
  20              		.cfi_offset 8, -16
  21 000c 13040101 		addi	s0,sp,16
  22              		.cfi_def_cfa 8, 0
  10:src/KSem.cpp  **** 	return MemoryAllocator::kmalloc(size + sizeof(MemoryAllocator::UsedMemSegment), MemoryAllocator::S
  23              		.loc 1 10 2
  24              		.loc 1 10 33 is_stmt 0
  25 0010 93051000 		li	a1,1
  26 0014 13050502 		addi	a0,a0,32
  27              	.LVL1:
  28 0018 97000000 		call	_ZN15MemoryAllocator7kmallocEmNS_7PurposeE@plt
  28      E7800000 
  29              	.LVL2:
  11:src/KSem.cpp  **** }
  30              		.loc 1 11 1
  31 0020 83308100 		ld	ra,8(sp)
  32              		.cfi_restore 1
  33 0024 03340100 		ld	s0,0(sp)
  34              		.cfi_restore 8
  35              		.cfi_def_cfa 2, 16
  36 0028 13010101 		addi	sp,sp,16
  37              		.cfi_def_cfa_offset 0
  38 002c 67800000 		jr	ra
  39              		.cfi_endproc
  40              	.LFE33:
  42              		.align	2
  43              		.globl	_ZN4KSemdlEPv
  45              	_ZN4KSemdlEPv:
  46              	.LFB34:
  12:src/KSem.cpp  **** 
  13:src/KSem.cpp  **** void KSem::operator delete(void* ptr) {
GAS LISTING /tmp/cc88CzHN.s 			page 2


  47              		.loc 1 13 39 is_stmt 1
  48              		.cfi_startproc
  49              	.LVL3:
  50 0030 130101FF 		addi	sp,sp,-16
  51              		.cfi_def_cfa_offset 16
  52 0034 23341100 		sd	ra,8(sp)
  53 0038 23308100 		sd	s0,0(sp)
  54              		.cfi_offset 1, -8
  55              		.cfi_offset 8, -16
  56 003c 13040101 		addi	s0,sp,16
  57              		.cfi_def_cfa 8, 0
  14:src/KSem.cpp  **** 	MemoryAllocator::kfree(ptr);
  58              		.loc 1 14 2
  59              		.loc 1 14 24 is_stmt 0
  60 0040 97000000 		call	_ZN15MemoryAllocator5kfreeEPv@plt
  60      E7800000 
  61              	.LVL4:
  15:src/KSem.cpp  **** }
  62              		.loc 1 15 1
  63 0048 83308100 		ld	ra,8(sp)
  64              		.cfi_restore 1
  65 004c 03340100 		ld	s0,0(sp)
  66              		.cfi_restore 8
  67              		.cfi_def_cfa 2, 16
  68 0050 13010101 		addi	sp,sp,16
  69              		.cfi_def_cfa_offset 0
  70 0054 67800000 		jr	ra
  71              		.cfi_endproc
  72              	.LFE34:
  74              		.align	2
  75              		.globl	_ZN4KSem7initSemEj
  77              	_ZN4KSem7initSemEj:
  78              	.LFB35:
  16:src/KSem.cpp  **** 
  17:src/KSem.cpp  **** KSem* KSem::initSem(uint val) {
  79              		.loc 1 17 31 is_stmt 1
  80              		.cfi_startproc
  81              	.LVL5:
  82 0058 130101FE 		addi	sp,sp,-32
  83              		.cfi_def_cfa_offset 32
  84 005c 233C1100 		sd	ra,24(sp)
  85 0060 23388100 		sd	s0,16(sp)
  86 0064 23349100 		sd	s1,8(sp)
  87              		.cfi_offset 1, -8
  88              		.cfi_offset 8, -16
  89              		.cfi_offset 9, -24
  90 0068 13040102 		addi	s0,sp,32
  91              		.cfi_def_cfa 8, 0
  92 006c 93040500 		mv	s1,a0
  18:src/KSem.cpp  **** 	return new KSem(val);
  93              		.loc 1 18 2
  94              		.loc 1 18 21 is_stmt 0
  95 0070 13050002 		li	a0,32
  96              	.LVL6:
  97 0074 97000000 		call	_ZN4KSemnwEm
  97      E7800000 
  98              	.LVL7:
GAS LISTING /tmp/cc88CzHN.s 			page 3


  99              	.LBB21:
 100              	.LBB22:
 101              		.file 2 "src/../h/KSem.hpp"
   1:src/../h/KSem.hpp **** //
   2:src/../h/KSem.hpp **** // Created by os on 6/4/23.
   3:src/../h/KSem.hpp **** //
   4:src/../h/KSem.hpp **** 
   5:src/../h/KSem.hpp **** #ifndef PROJEKAT2023_KSEM_HPP
   6:src/../h/KSem.hpp **** #define PROJEKAT2023_KSEM_HPP
   7:src/../h/KSem.hpp **** 
   8:src/../h/KSem.hpp **** #include "../h/ThreadQueue.hpp"
   9:src/../h/KSem.hpp **** 
  10:src/../h/KSem.hpp **** 
  11:src/../h/KSem.hpp **** class KSem {
  12:src/../h/KSem.hpp **** public:
  13:src/../h/KSem.hpp **** 	static KSem* initSem(uint val);
  14:src/../h/KSem.hpp **** 
  15:src/../h/KSem.hpp **** 	int wait();
  16:src/../h/KSem.hpp **** 
  17:src/../h/KSem.hpp **** 	int signal();
  18:src/../h/KSem.hpp **** 
  19:src/../h/KSem.hpp **** 	static int closeSem(sem_t handle);
  20:src/../h/KSem.hpp **** 
  21:src/../h/KSem.hpp **** 	static void* operator new(size_t size);
  22:src/../h/KSem.hpp **** 
  23:src/../h/KSem.hpp **** 	static void operator delete(void* ptr);
  24:src/../h/KSem.hpp **** 
  25:src/../h/KSem.hpp **** protected:
  26:src/../h/KSem.hpp **** 	void block();
  27:src/../h/KSem.hpp **** 
  28:src/../h/KSem.hpp **** 	void unblock();
  29:src/../h/KSem.hpp **** 
  30:src/../h/KSem.hpp **** private:
  31:src/../h/KSem.hpp **** 	KSem(uint val) : val(val), working(true) {}
 102              		.loc 2 31 41
 103 007c 23209500 		sw	s1,0(a0)
 104              	.LVL8:
 105              	.LBB23:
 106              	.LBB24:
 107              		.file 3 "src/../h/../h/ThreadQueue.hpp"
   1:src/../h/../h/ThreadQueue.hpp **** //
   2:src/../h/../h/ThreadQueue.hpp **** // Created by os on 6/4/23.
   3:src/../h/../h/ThreadQueue.hpp **** //
   4:src/../h/../h/ThreadQueue.hpp **** 
   5:src/../h/../h/ThreadQueue.hpp **** #ifndef PROJEKAT2023_THREADQUEUE_HPP
   6:src/../h/../h/ThreadQueue.hpp **** #define PROJEKAT2023_THREADQUEUE_HPP
   7:src/../h/../h/ThreadQueue.hpp **** 
   8:src/../h/../h/ThreadQueue.hpp **** #include "../h/MemoryAllocator.hpp"
   9:src/../h/../h/ThreadQueue.hpp **** #include "../h/syscall_c.hpp"
  10:src/../h/../h/ThreadQueue.hpp **** 
  11:src/../h/../h/ThreadQueue.hpp **** class TCB;
  12:src/../h/../h/ThreadQueue.hpp **** 
  13:src/../h/../h/ThreadQueue.hpp **** class ThreadQueue {
  14:src/../h/../h/ThreadQueue.hpp **** private:
  15:src/../h/../h/ThreadQueue.hpp **** 	struct Node {
  16:src/../h/../h/ThreadQueue.hpp **** 		TCB* data;
  17:src/../h/../h/ThreadQueue.hpp **** 		Node* next;
GAS LISTING /tmp/cc88CzHN.s 			page 4


  18:src/../h/../h/ThreadQueue.hpp **** 
  19:src/../h/../h/ThreadQueue.hpp **** 		Node(TCB* d) : data(d), next(nullptr) {}
  20:src/../h/../h/ThreadQueue.hpp **** 
  21:src/../h/../h/ThreadQueue.hpp **** 		static void* operator new(size_t size) {
  22:src/../h/../h/ThreadQueue.hpp **** 			return mem_alloc(size);
  23:src/../h/../h/ThreadQueue.hpp **** 		}
  24:src/../h/../h/ThreadQueue.hpp **** 
  25:src/../h/../h/ThreadQueue.hpp **** 		static void operator delete(void* ptr) {
  26:src/../h/../h/ThreadQueue.hpp **** 			mem_free(ptr);
  27:src/../h/../h/ThreadQueue.hpp **** 		}
  28:src/../h/../h/ThreadQueue.hpp **** 	};
  29:src/../h/../h/ThreadQueue.hpp **** 
  30:src/../h/../h/ThreadQueue.hpp **** 	Node* front;
  31:src/../h/../h/ThreadQueue.hpp **** 	Node* back;
  32:src/../h/../h/ThreadQueue.hpp **** 
  33:src/../h/../h/ThreadQueue.hpp **** public:
  34:src/../h/../h/ThreadQueue.hpp **** 	ThreadQueue() : front(nullptr), back(nullptr) {}
 108              		.loc 3 34 46
 109 0080 23340500 		sd	zero,8(a0)
 110 0084 23380500 		sd	zero,16(a0)
 111              	.LVL9:
 112              	.LBE24:
 113              	.LBE23:
 114              		.loc 2 31 41
 115 0088 13071000 		li	a4,1
 116 008c 230CE500 		sb	a4,24(a0)
 117              	.LVL10:
 118              	.LBE22:
 119              	.LBE21:
  19:src/KSem.cpp  **** }
 120              		.loc 1 19 1
 121 0090 83308101 		ld	ra,24(sp)
 122              		.cfi_restore 1
 123 0094 03340101 		ld	s0,16(sp)
 124              		.cfi_restore 8
 125              		.cfi_def_cfa 2, 32
 126 0098 83348100 		ld	s1,8(sp)
 127              		.cfi_restore 9
 128 009c 13010102 		addi	sp,sp,32
 129              		.cfi_def_cfa_offset 0
 130 00a0 67800000 		jr	ra
 131              		.cfi_endproc
 132              	.LFE35:
 134              		.align	2
 135              		.globl	_ZN4KSem5blockEv
 137              	_ZN4KSem5blockEv:
 138              	.LFB38:
  20:src/KSem.cpp  **** 
  21:src/KSem.cpp  **** int KSem::wait() {
  22:src/KSem.cpp  **** 	if (!MemoryAllocator::checkPurpose(this, MemoryAllocator::SEMAPHORE)) return -2;
  23:src/KSem.cpp  **** 	if (!working) return -3;
  24:src/KSem.cpp  **** 	if (--val < 0) {
  25:src/KSem.cpp  **** 		block();
  26:src/KSem.cpp  **** 		return -1;
  27:src/KSem.cpp  **** 	}
  28:src/KSem.cpp  **** 	return 0;
  29:src/KSem.cpp  **** }
GAS LISTING /tmp/cc88CzHN.s 			page 5


  30:src/KSem.cpp  **** 
  31:src/KSem.cpp  **** int KSem::signal() {
  32:src/KSem.cpp  **** 	if (!MemoryAllocator::checkPurpose(this, MemoryAllocator::SEMAPHORE)) return -2;
  33:src/KSem.cpp  **** 	if (!working) return -3;
  34:src/KSem.cpp  **** 	if (val++ < 0) unblock();
  35:src/KSem.cpp  **** 	return 0;
  36:src/KSem.cpp  **** }
  37:src/KSem.cpp  **** 
  38:src/KSem.cpp  **** void KSem::block() {
 139              		.loc 1 38 20 is_stmt 1
 140              		.cfi_startproc
 141              	.LVL11:
 142 00a4 130101FF 		addi	sp,sp,-16
 143              		.cfi_def_cfa_offset 16
 144 00a8 23341100 		sd	ra,8(sp)
 145 00ac 23308100 		sd	s0,0(sp)
 146              		.cfi_offset 1, -8
 147              		.cfi_offset 8, -16
 148 00b0 13040101 		addi	s0,sp,16
 149              		.cfi_def_cfa 8, 0
  39:src/KSem.cpp  **** 	TCB::running->setBlocked(true);
 150              		.loc 1 39 2
 151              		.loc 1 39 26 is_stmt 0
 152 00b4 97070000 		la	a5,_ZN3TCB7runningE
 152      83B70700 
 153 00bc 83B50700 		ld	a1,0(a5)
 154              	.LVL12:
 155              	.LBB25:
 156              	.LBB26:
 157              		.file 4 "src/../h/TCB.hpp"
   1:src/../h/TCB.hpp **** //
   2:src/../h/TCB.hpp **** // Created by os on 5/23/23.
   3:src/../h/TCB.hpp **** //
   4:src/../h/TCB.hpp **** 
   5:src/../h/TCB.hpp **** #ifndef PROJEKAT2023_TCB_HPP
   6:src/../h/TCB.hpp **** #define PROJEKAT2023_TCB_HPP
   7:src/../h/TCB.hpp **** 
   8:src/../h/TCB.hpp **** #include "../lib/hw.h"
   9:src/../h/TCB.hpp **** #include "../h/ThreadQueue.hpp"
  10:src/../h/TCB.hpp **** 
  11:src/../h/TCB.hpp **** class TCB {
  12:src/../h/TCB.hpp **** public:
  13:src/../h/TCB.hpp **** 	friend class Scheduler;
  14:src/../h/TCB.hpp **** 
  15:src/../h/TCB.hpp **** 	using Body = void (*)(void*);
  16:src/../h/TCB.hpp **** 
  17:src/../h/TCB.hpp **** 	static TCB* createThread(Body function, void* args, uint64* stack);
  18:src/../h/TCB.hpp **** 	static void start(TCB* newTcb);
  19:src/../h/TCB.hpp **** 
  20:src/../h/TCB.hpp **** 	bool isFinished() { return finished; }
  21:src/../h/TCB.hpp **** 
  22:src/../h/TCB.hpp **** 	void setFinished(bool finish) { this->finished = finish; }
  23:src/../h/TCB.hpp **** 
  24:src/../h/TCB.hpp **** 	bool isBlocked() { return blocked; }
  25:src/../h/TCB.hpp **** 
  26:src/../h/TCB.hpp **** 	void setBlocked(bool block) { this->blocked = block; }
 158              		.loc 4 26 32 is_stmt 1
GAS LISTING /tmp/cc88CzHN.s 			page 6


 159              		.loc 4 26 46 is_stmt 0
 160 00c0 93071000 		li	a5,1
 161 00c4 A388F502 		sb	a5,49(a1)
 162              	.LVL13:
 163              	.LBE26:
 164              	.LBE25:
  40:src/KSem.cpp  **** 	blocked.putLast(TCB::running);
 165              		.loc 1 40 2 is_stmt 1
 166              		.loc 1 40 17 is_stmt 0
 167 00c8 13058500 		addi	a0,a0,8
 168              	.LVL14:
 169 00cc 97000000 		call	_ZN11ThreadQueue7putLastEP3TCB@plt
 169      E7800000 
 170              	.LVL15:
  41:src/KSem.cpp  **** 	TCB::yield();
 171              		.loc 1 41 2 is_stmt 1
 172              		.loc 1 41 12 is_stmt 0
 173 00d4 97000000 		call	_ZN3TCB5yieldEv@plt
 173      E7800000 
 174              	.LVL16:
  42:src/KSem.cpp  **** }
 175              		.loc 1 42 1
 176 00dc 83308100 		ld	ra,8(sp)
 177              		.cfi_restore 1
 178 00e0 03340100 		ld	s0,0(sp)
 179              		.cfi_restore 8
 180              		.cfi_def_cfa 2, 16
 181 00e4 13010101 		addi	sp,sp,16
 182              		.cfi_def_cfa_offset 0
 183 00e8 67800000 		jr	ra
 184              		.cfi_endproc
 185              	.LFE38:
 187              		.align	2
 188              		.globl	_ZN4KSem4waitEv
 190              	_ZN4KSem4waitEv:
 191              	.LFB36:
  21:src/KSem.cpp  **** 	if (!MemoryAllocator::checkPurpose(this, MemoryAllocator::SEMAPHORE)) return -2;
 192              		.loc 1 21 18 is_stmt 1
 193              		.cfi_startproc
 194              	.LVL17:
 195 00ec 130101FE 		addi	sp,sp,-32
 196              		.cfi_def_cfa_offset 32
 197 00f0 233C1100 		sd	ra,24(sp)
 198 00f4 23388100 		sd	s0,16(sp)
 199 00f8 23349100 		sd	s1,8(sp)
 200              		.cfi_offset 1, -8
 201              		.cfi_offset 8, -16
 202              		.cfi_offset 9, -24
 203 00fc 13040102 		addi	s0,sp,32
 204              		.cfi_def_cfa 8, 0
 205 0100 93040500 		mv	s1,a0
  22:src/KSem.cpp  **** 	if (!working) return -3;
 206              		.loc 1 22 2
  22:src/KSem.cpp  **** 	if (!working) return -3;
 207              		.loc 1 22 36 is_stmt 0
 208 0104 93051000 		li	a1,1
 209 0108 97000000 		call	_ZN15MemoryAllocator12checkPurposeEPvNS_7PurposeE@plt
GAS LISTING /tmp/cc88CzHN.s 			page 7


 209      E7800000 
 210              	.LVL18:
  22:src/KSem.cpp  **** 	if (!working) return -3;
 211              		.loc 1 22 2
 212 0110 63060504 		beqz	a0,.L11
  23:src/KSem.cpp  **** 	if (--val < 0) {
 213              		.loc 1 23 2 is_stmt 1
  23:src/KSem.cpp  **** 	if (--val < 0) {
 214              		.loc 1 23 7 is_stmt 0
 215 0114 83C78401 		lbu	a5,24(s1)
  23:src/KSem.cpp  **** 	if (--val < 0) {
 216              		.loc 1 23 2
 217 0118 63860704 		beqz	a5,.L12
  24:src/KSem.cpp  **** 		block();
 218              		.loc 1 24 2 is_stmt 1
  24:src/KSem.cpp  **** 		block();
 219              		.loc 1 24 8 is_stmt 0
 220 011c 83A70400 		lw	a5,0(s1)
  24:src/KSem.cpp  **** 		block();
 221              		.loc 1 24 6
 222 0120 9B87F7FF 		addiw	a5,a5,-1
  24:src/KSem.cpp  **** 		block();
 223              		.loc 1 24 12
 224 0124 23A0F400 		sw	a5,0(s1)
  24:src/KSem.cpp  **** 		block();
 225              		.loc 1 24 2
 226 0128 13970702 		slli	a4,a5,32
 227 012c 634E0700 		bltz	a4,.L15
  28:src/KSem.cpp  **** }
 228              		.loc 1 28 9
 229 0130 13050000 		li	a0,0
 230              	.L10:
  29:src/KSem.cpp  **** 
 231              		.loc 1 29 1
 232 0134 83308101 		ld	ra,24(sp)
 233              		.cfi_remember_state
 234              		.cfi_restore 1
 235 0138 03340101 		ld	s0,16(sp)
 236              		.cfi_restore 8
 237              		.cfi_def_cfa 2, 32
 238 013c 83348100 		ld	s1,8(sp)
 239              		.cfi_restore 9
 240              	.LVL19:
 241 0140 13010102 		addi	sp,sp,32
 242              		.cfi_def_cfa_offset 0
 243 0144 67800000 		jr	ra
 244              	.LVL20:
 245              	.L15:
 246              		.cfi_restore_state
  25:src/KSem.cpp  **** 		return -1;
 247              		.loc 1 25 3 is_stmt 1
  25:src/KSem.cpp  **** 		return -1;
 248              		.loc 1 25 8 is_stmt 0
 249 0148 13850400 		mv	a0,s1
 250 014c 97000000 		call	_ZN4KSem5blockEv
 250      E7800000 
 251              	.LVL21:
GAS LISTING /tmp/cc88CzHN.s 			page 8


  26:src/KSem.cpp  **** 	}
 252              		.loc 1 26 3 is_stmt 1
  26:src/KSem.cpp  **** 	}
 253              		.loc 1 26 11 is_stmt 0
 254 0154 1305F0FF 		li	a0,-1
 255 0158 6FF0DFFD 		j	.L10
 256              	.L11:
  22:src/KSem.cpp  **** 	if (!working) return -3;
 257              		.loc 1 22 80
 258 015c 1305E0FF 		li	a0,-2
 259 0160 6FF05FFD 		j	.L10
 260              	.L12:
  23:src/KSem.cpp  **** 	if (--val < 0) {
 261              		.loc 1 23 24
 262 0164 1305D0FF 		li	a0,-3
 263 0168 6FF0DFFC 		j	.L10
 264              		.cfi_endproc
 265              	.LFE36:
 267              		.align	2
 268              		.globl	_ZN4KSem7unblockEv
 270              	_ZN4KSem7unblockEv:
 271              	.LFB39:
  43:src/KSem.cpp  **** 
  44:src/KSem.cpp  **** void KSem::unblock() {
 272              		.loc 1 44 22 is_stmt 1
 273              		.cfi_startproc
 274              	.LVL22:
 275 016c 130101FF 		addi	sp,sp,-16
 276              		.cfi_def_cfa_offset 16
 277 0170 23341100 		sd	ra,8(sp)
 278 0174 23308100 		sd	s0,0(sp)
 279              		.cfi_offset 1, -8
 280              		.cfi_offset 8, -16
 281 0178 13040101 		addi	s0,sp,16
 282              		.cfi_def_cfa 8, 0
  45:src/KSem.cpp  **** 	TCB* tcb = blocked.getFirst();
 283              		.loc 1 45 2
 284              		.loc 1 45 29 is_stmt 0
 285 017c 13058500 		addi	a0,a0,8
 286              	.LVL23:
 287 0180 97000000 		call	_ZN11ThreadQueue8getFirstEv@plt
 287      E7800000 
 288              	.LVL24:
  46:src/KSem.cpp  **** 	tcb->setBlocked(false);
 289              		.loc 1 46 2 is_stmt 1
 290              	.LBB27:
 291              	.LBB28:
 292              		.loc 4 26 32
 293              		.loc 4 26 46 is_stmt 0
 294 0188 A3080502 		sb	zero,49(a0)
 295              	.LVL25:
 296              	.LBE28:
 297              	.LBE27:
  47:src/KSem.cpp  **** 	Scheduler::put(tcb);
 298              		.loc 1 47 2 is_stmt 1
 299              		.loc 1 47 16 is_stmt 0
 300 018c 97000000 		call	_ZN9Scheduler3putEP3TCB@plt
GAS LISTING /tmp/cc88CzHN.s 			page 9


 300      E7800000 
 301              	.LVL26:
  48:src/KSem.cpp  **** }
 302              		.loc 1 48 1
 303 0194 83308100 		ld	ra,8(sp)
 304              		.cfi_restore 1
 305 0198 03340100 		ld	s0,0(sp)
 306              		.cfi_restore 8
 307              		.cfi_def_cfa 2, 16
 308 019c 13010101 		addi	sp,sp,16
 309              		.cfi_def_cfa_offset 0
 310 01a0 67800000 		jr	ra
 311              		.cfi_endproc
 312              	.LFE39:
 314              		.align	2
 315              		.globl	_ZN4KSem6signalEv
 317              	_ZN4KSem6signalEv:
 318              	.LFB37:
  31:src/KSem.cpp  **** 	if (!MemoryAllocator::checkPurpose(this, MemoryAllocator::SEMAPHORE)) return -2;
 319              		.loc 1 31 20 is_stmt 1
 320              		.cfi_startproc
 321              	.LVL27:
 322 01a4 130101FE 		addi	sp,sp,-32
 323              		.cfi_def_cfa_offset 32
 324 01a8 233C1100 		sd	ra,24(sp)
 325 01ac 23388100 		sd	s0,16(sp)
 326 01b0 23349100 		sd	s1,8(sp)
 327              		.cfi_offset 1, -8
 328              		.cfi_offset 8, -16
 329              		.cfi_offset 9, -24
 330 01b4 13040102 		addi	s0,sp,32
 331              		.cfi_def_cfa 8, 0
 332 01b8 93040500 		mv	s1,a0
  32:src/KSem.cpp  **** 	if (!working) return -3;
 333              		.loc 1 32 2
  32:src/KSem.cpp  **** 	if (!working) return -3;
 334              		.loc 1 32 36 is_stmt 0
 335 01bc 93051000 		li	a1,1
 336 01c0 97000000 		call	_ZN15MemoryAllocator12checkPurposeEPvNS_7PurposeE@plt
 336      E7800000 
 337              	.LVL28:
  32:src/KSem.cpp  **** 	if (!working) return -3;
 338              		.loc 1 32 2
 339 01c8 63040504 		beqz	a0,.L20
  33:src/KSem.cpp  **** 	if (val++ < 0) unblock();
 340              		.loc 1 33 2 is_stmt 1
  33:src/KSem.cpp  **** 	if (val++ < 0) unblock();
 341              		.loc 1 33 7 is_stmt 0
 342 01cc 83C78401 		lbu	a5,24(s1)
  33:src/KSem.cpp  **** 	if (val++ < 0) unblock();
 343              		.loc 1 33 2
 344 01d0 63840704 		beqz	a5,.L21
  34:src/KSem.cpp  **** 	return 0;
 345              		.loc 1 34 2 is_stmt 1
  34:src/KSem.cpp  **** 	return 0;
 346              		.loc 1 34 6 is_stmt 0
 347 01d4 83A70400 		lw	a5,0(s1)
GAS LISTING /tmp/cc88CzHN.s 			page 10


  34:src/KSem.cpp  **** 	return 0;
 348              		.loc 1 34 9
 349 01d8 1B871700 		addiw	a4,a5,1
 350 01dc 23A0E400 		sw	a4,0(s1)
  34:src/KSem.cpp  **** 	return 0;
 351              		.loc 1 34 2
 352 01e0 63CE0700 		bltz	a5,.L24
  35:src/KSem.cpp  **** }
 353              		.loc 1 35 9
 354 01e4 13050000 		li	a0,0
 355              	.L19:
  36:src/KSem.cpp  **** 
 356              		.loc 1 36 1
 357 01e8 83308101 		ld	ra,24(sp)
 358              		.cfi_remember_state
 359              		.cfi_restore 1
 360 01ec 03340101 		ld	s0,16(sp)
 361              		.cfi_restore 8
 362              		.cfi_def_cfa 2, 32
 363 01f0 83348100 		ld	s1,8(sp)
 364              		.cfi_restore 9
 365              	.LVL29:
 366 01f4 13010102 		addi	sp,sp,32
 367              		.cfi_def_cfa_offset 0
 368 01f8 67800000 		jr	ra
 369              	.LVL30:
 370              	.L24:
 371              		.cfi_restore_state
  34:src/KSem.cpp  **** 	return 0;
 372              		.loc 1 34 17 is_stmt 1 discriminator 1
  34:src/KSem.cpp  **** 	return 0;
 373              		.loc 1 34 24 is_stmt 0 discriminator 1
 374 01fc 13850400 		mv	a0,s1
 375 0200 97000000 		call	_ZN4KSem7unblockEv
 375      E7800000 
 376              	.LVL31:
  35:src/KSem.cpp  **** }
 377              		.loc 1 35 9 discriminator 1
 378 0208 13050000 		li	a0,0
 379 020c 6FF0DFFD 		j	.L19
 380              	.L20:
  32:src/KSem.cpp  **** 	if (!working) return -3;
 381              		.loc 1 32 80
 382 0210 1305E0FF 		li	a0,-2
 383 0214 6FF05FFD 		j	.L19
 384              	.L21:
  33:src/KSem.cpp  **** 	if (val++ < 0) unblock();
 385              		.loc 1 33 24
 386 0218 1305D0FF 		li	a0,-3
 387 021c 6FF0DFFC 		j	.L19
 388              		.cfi_endproc
 389              	.LFE37:
 391              		.align	2
 392              		.globl	_ZN4KSem8closeSemEPS_
 394              	_ZN4KSem8closeSemEPS_:
 395              	.LFB40:
  49:src/KSem.cpp  **** 
GAS LISTING /tmp/cc88CzHN.s 			page 11


  50:src/KSem.cpp  **** int KSem::closeSem(sem_t handle) {
 396              		.loc 1 50 34 is_stmt 1
 397              		.cfi_startproc
 398              	.LVL32:
 399 0220 130101FE 		addi	sp,sp,-32
 400              		.cfi_def_cfa_offset 32
 401 0224 233C1100 		sd	ra,24(sp)
 402 0228 23388100 		sd	s0,16(sp)
 403 022c 23349100 		sd	s1,8(sp)
 404              		.cfi_offset 1, -8
 405              		.cfi_offset 8, -16
 406              		.cfi_offset 9, -24
 407 0230 13040102 		addi	s0,sp,32
 408              		.cfi_def_cfa 8, 0
 409 0234 93040500 		mv	s1,a0
  51:src/KSem.cpp  **** 	if (!MemoryAllocator::checkPurpose(handle, MemoryAllocator::SEMAPHORE)) return -2;
 410              		.loc 1 51 2
 411              		.loc 1 51 36 is_stmt 0
 412 0238 93051000 		li	a1,1
 413 023c 97000000 		call	_ZN15MemoryAllocator12checkPurposeEPvNS_7PurposeE@plt
 413      E7800000 
 414              	.LVL33:
 415              		.loc 1 51 2
 416 0244 63020504 		beqz	a0,.L28
  52:src/KSem.cpp  **** 	handle->working = false;
 417              		.loc 1 52 2 is_stmt 1
 418              		.loc 1 52 18 is_stmt 0
 419 0248 238C0400 		sb	zero,24(s1)
 420 024c 6F00C001 		j	.L27
 421              	.L31:
 422              	.LBB29:
  53:src/KSem.cpp  **** 	while (!handle->blocked.isEmpty()) {
  54:src/KSem.cpp  **** 		TCB* tcb = handle->blocked.getFirst();
 423              		.loc 1 54 3 is_stmt 1
 424              		.loc 1 54 38 is_stmt 0
 425 0250 13858400 		addi	a0,s1,8
 426 0254 97000000 		call	_ZN11ThreadQueue8getFirstEv@plt
 426      E7800000 
 427              	.LVL34:
  55:src/KSem.cpp  **** 		tcb->setBlocked(false);
 428              		.loc 1 55 3 is_stmt 1
 429              	.LBB30:
 430              	.LBB31:
 431              		.loc 4 26 32
 432              		.loc 4 26 46 is_stmt 0
 433 025c A3080502 		sb	zero,49(a0)
 434              	.LVL35:
 435              	.LBE31:
 436              	.LBE30:
  56:src/KSem.cpp  **** 		Scheduler::put(tcb);
 437              		.loc 1 56 3 is_stmt 1
 438              		.loc 1 56 17 is_stmt 0
 439 0260 97000000 		call	_ZN9Scheduler3putEP3TCB@plt
 439      E7800000 
 440              	.LVL36:
 441              	.L27:
 442              	.LBE29:
GAS LISTING /tmp/cc88CzHN.s 			page 12


  53:src/KSem.cpp  **** 	while (!handle->blocked.isEmpty()) {
 443              		.loc 1 53 2 is_stmt 1
  53:src/KSem.cpp  **** 	while (!handle->blocked.isEmpty()) {
 444              		.loc 1 53 9
 445              	.LBB32:
 446              	.LBB33:
  35:src/../h/../h/ThreadQueue.hpp **** 
  36:src/../h/../h/ThreadQueue.hpp **** 	ThreadQueue(const ThreadQueue&) = delete;
  37:src/../h/../h/ThreadQueue.hpp **** 
  38:src/../h/../h/ThreadQueue.hpp **** 	ThreadQueue& operator=(const ThreadQueue&) = delete;
  39:src/../h/../h/ThreadQueue.hpp **** 
  40:src/../h/../h/ThreadQueue.hpp **** 	~ThreadQueue() {
  41:src/../h/../h/ThreadQueue.hpp **** 		while (!isEmpty()) {
  42:src/../h/../h/ThreadQueue.hpp **** 			Node* node = front;
  43:src/../h/../h/ThreadQueue.hpp **** 			front = front->next;
  44:src/../h/../h/ThreadQueue.hpp **** 			delete node;
  45:src/../h/../h/ThreadQueue.hpp **** 		}
  46:src/../h/../h/ThreadQueue.hpp **** 	}
  47:src/../h/../h/ThreadQueue.hpp **** 
  48:src/../h/../h/ThreadQueue.hpp **** 	bool isEmpty() const {
  49:src/../h/../h/ThreadQueue.hpp **** 		return front == nullptr;
 447              		.loc 3 49 3
 448              		.loc 3 49 10 is_stmt 0
 449 0268 83B78400 		ld	a5,8(s1)
 450              	.LVL37:
 451              	.LBE33:
 452              	.LBE32:
  53:src/KSem.cpp  **** 		TCB* tcb = handle->blocked.getFirst();
 453              		.loc 1 53 9
 454 026c E39207FE 		bnez	a5,.L31
  57:src/KSem.cpp  **** 	}
  58:src/KSem.cpp  **** 	return 0;
 455              		.loc 1 58 9
 456 0270 13050000 		li	a0,0
 457              	.L26:
  59:src/KSem.cpp  **** }
 458              		.loc 1 59 1
 459 0274 83308101 		ld	ra,24(sp)
 460              		.cfi_remember_state
 461              		.cfi_restore 1
 462 0278 03340101 		ld	s0,16(sp)
 463              		.cfi_restore 8
 464              		.cfi_def_cfa 2, 32
 465 027c 83348100 		ld	s1,8(sp)
 466              		.cfi_restore 9
 467              	.LVL38:
 468 0280 13010102 		addi	sp,sp,32
 469              		.cfi_def_cfa_offset 0
 470 0284 67800000 		jr	ra
 471              	.LVL39:
 472              	.L28:
 473              		.cfi_restore_state
  51:src/KSem.cpp  **** 	handle->working = false;
 474              		.loc 1 51 82
 475 0288 1305E0FF 		li	a0,-2
 476 028c 6FF09FFE 		j	.L26
 477              		.cfi_endproc
GAS LISTING /tmp/cc88CzHN.s 			page 13


 478              	.LFE40:
 480              	.Letext0:
 481              		.file 5 "src/../h/../h/../h/../lib/hw.h"
 482              		.file 6 "src/../h/../h/../h/MemoryAllocator.hpp"
 483              		.file 7 "src/../h/../h/../h/syscall_c.hpp"
 484              		.file 8 "src/../h/Scheduler.hpp"
GAS LISTING /tmp/cc88CzHN.s 			page 14


DEFINED SYMBOLS
                            *ABS*:0000000000000000 KSem.cpp
     /tmp/cc88CzHN.s:9      .text:0000000000000000 _ZN4KSemnwEm
     /tmp/cc88CzHN.s:13     .text:0000000000000000 .L0 
     /tmp/cc88CzHN.s:15     .text:0000000000000000 .L0 
     /tmp/cc88CzHN.s:16     .text:0000000000000004 .L0 
     /tmp/cc88CzHN.s:19     .text:000000000000000c .L0 
     /tmp/cc88CzHN.s:20     .text:000000000000000c .L0 
     /tmp/cc88CzHN.s:22     .text:0000000000000010 .L0 
     /tmp/cc88CzHN.s:24     .text:0000000000000010 .L0 
     /tmp/cc88CzHN.s:25     .text:0000000000000010 .L0 
     /tmp/cc88CzHN.s:31     .text:0000000000000020 .L0 
     /tmp/cc88CzHN.s:32     .text:0000000000000024 .L0 
     /tmp/cc88CzHN.s:34     .text:0000000000000028 .L0 
     /tmp/cc88CzHN.s:35     .text:0000000000000028 .L0 
     /tmp/cc88CzHN.s:37     .text:000000000000002c .L0 
     /tmp/cc88CzHN.s:39     .text:0000000000000030 .L0 
     /tmp/cc88CzHN.s:45     .text:0000000000000030 _ZN4KSemdlEPv
     /tmp/cc88CzHN.s:48     .text:0000000000000030 .L0 
     /tmp/cc88CzHN.s:50     .text:0000000000000030 .L0 
     /tmp/cc88CzHN.s:51     .text:0000000000000034 .L0 
     /tmp/cc88CzHN.s:54     .text:000000000000003c .L0 
     /tmp/cc88CzHN.s:55     .text:000000000000003c .L0 
     /tmp/cc88CzHN.s:57     .text:0000000000000040 .L0 
     /tmp/cc88CzHN.s:59     .text:0000000000000040 .L0 
     /tmp/cc88CzHN.s:60     .text:0000000000000040 .L0 
     /tmp/cc88CzHN.s:63     .text:0000000000000048 .L0 
     /tmp/cc88CzHN.s:64     .text:000000000000004c .L0 
     /tmp/cc88CzHN.s:66     .text:0000000000000050 .L0 
     /tmp/cc88CzHN.s:67     .text:0000000000000050 .L0 
     /tmp/cc88CzHN.s:69     .text:0000000000000054 .L0 
     /tmp/cc88CzHN.s:71     .text:0000000000000058 .L0 
     /tmp/cc88CzHN.s:77     .text:0000000000000058 _ZN4KSem7initSemEj
     /tmp/cc88CzHN.s:80     .text:0000000000000058 .L0 
     /tmp/cc88CzHN.s:82     .text:0000000000000058 .L0 
     /tmp/cc88CzHN.s:83     .text:000000000000005c .L0 
     /tmp/cc88CzHN.s:87     .text:0000000000000068 .L0 
     /tmp/cc88CzHN.s:88     .text:0000000000000068 .L0 
     /tmp/cc88CzHN.s:89     .text:0000000000000068 .L0 
     /tmp/cc88CzHN.s:91     .text:000000000000006c .L0 
     /tmp/cc88CzHN.s:94     .text:0000000000000070 .L0 
     /tmp/cc88CzHN.s:95     .text:0000000000000070 .L0 
     /tmp/cc88CzHN.s:103    .text:000000000000007c .L0 
     /tmp/cc88CzHN.s:109    .text:0000000000000080 .L0 
     /tmp/cc88CzHN.s:115    .text:0000000000000088 .L0 
     /tmp/cc88CzHN.s:121    .text:0000000000000090 .L0 
     /tmp/cc88CzHN.s:122    .text:0000000000000094 .L0 
     /tmp/cc88CzHN.s:124    .text:0000000000000098 .L0 
     /tmp/cc88CzHN.s:125    .text:0000000000000098 .L0 
     /tmp/cc88CzHN.s:127    .text:000000000000009c .L0 
     /tmp/cc88CzHN.s:129    .text:00000000000000a0 .L0 
     /tmp/cc88CzHN.s:131    .text:00000000000000a4 .L0 
     /tmp/cc88CzHN.s:137    .text:00000000000000a4 _ZN4KSem5blockEv
     /tmp/cc88CzHN.s:140    .text:00000000000000a4 .L0 
     /tmp/cc88CzHN.s:142    .text:00000000000000a4 .L0 
     /tmp/cc88CzHN.s:143    .text:00000000000000a8 .L0 
     /tmp/cc88CzHN.s:146    .text:00000000000000b0 .L0 
GAS LISTING /tmp/cc88CzHN.s 			page 15


     /tmp/cc88CzHN.s:147    .text:00000000000000b0 .L0 
     /tmp/cc88CzHN.s:149    .text:00000000000000b4 .L0 
     /tmp/cc88CzHN.s:151    .text:00000000000000b4 .L0 
     /tmp/cc88CzHN.s:152    .text:00000000000000b4 .L0 
     /tmp/cc88CzHN.s:159    .text:00000000000000c0 .L0 
     /tmp/cc88CzHN.s:160    .text:00000000000000c0 .L0 
     /tmp/cc88CzHN.s:166    .text:00000000000000c8 .L0 
     /tmp/cc88CzHN.s:167    .text:00000000000000c8 .L0 
     /tmp/cc88CzHN.s:172    .text:00000000000000d4 .L0 
     /tmp/cc88CzHN.s:173    .text:00000000000000d4 .L0 
     /tmp/cc88CzHN.s:176    .text:00000000000000dc .L0 
     /tmp/cc88CzHN.s:177    .text:00000000000000e0 .L0 
     /tmp/cc88CzHN.s:179    .text:00000000000000e4 .L0 
     /tmp/cc88CzHN.s:180    .text:00000000000000e4 .L0 
     /tmp/cc88CzHN.s:182    .text:00000000000000e8 .L0 
     /tmp/cc88CzHN.s:184    .text:00000000000000ec .L0 
     /tmp/cc88CzHN.s:190    .text:00000000000000ec _ZN4KSem4waitEv
     /tmp/cc88CzHN.s:193    .text:00000000000000ec .L0 
     /tmp/cc88CzHN.s:195    .text:00000000000000ec .L0 
     /tmp/cc88CzHN.s:196    .text:00000000000000f0 .L0 
     /tmp/cc88CzHN.s:200    .text:00000000000000fc .L0 
     /tmp/cc88CzHN.s:201    .text:00000000000000fc .L0 
     /tmp/cc88CzHN.s:202    .text:00000000000000fc .L0 
     /tmp/cc88CzHN.s:204    .text:0000000000000100 .L0 
     /tmp/cc88CzHN.s:207    .text:0000000000000104 .L0 
     /tmp/cc88CzHN.s:208    .text:0000000000000104 .L0 
     /tmp/cc88CzHN.s:212    .text:0000000000000110 .L0 
     /tmp/cc88CzHN.s:214    .text:0000000000000114 .L0 
     /tmp/cc88CzHN.s:215    .text:0000000000000114 .L0 
     /tmp/cc88CzHN.s:217    .text:0000000000000118 .L0 
     /tmp/cc88CzHN.s:219    .text:000000000000011c .L0 
     /tmp/cc88CzHN.s:220    .text:000000000000011c .L0 
     /tmp/cc88CzHN.s:222    .text:0000000000000120 .L0 
     /tmp/cc88CzHN.s:224    .text:0000000000000124 .L0 
     /tmp/cc88CzHN.s:226    .text:0000000000000128 .L0 
     /tmp/cc88CzHN.s:229    .text:0000000000000130 .L0 
     /tmp/cc88CzHN.s:232    .text:0000000000000134 .L0 
     /tmp/cc88CzHN.s:233    .text:0000000000000138 .L0 
     /tmp/cc88CzHN.s:234    .text:0000000000000138 .L0 
     /tmp/cc88CzHN.s:236    .text:000000000000013c .L0 
     /tmp/cc88CzHN.s:237    .text:000000000000013c .L0 
     /tmp/cc88CzHN.s:239    .text:0000000000000140 .L0 
     /tmp/cc88CzHN.s:242    .text:0000000000000144 .L0 
     /tmp/cc88CzHN.s:246    .text:0000000000000148 .L0 
     /tmp/cc88CzHN.s:248    .text:0000000000000148 .L0 
     /tmp/cc88CzHN.s:249    .text:0000000000000148 .L0 
     /tmp/cc88CzHN.s:253    .text:0000000000000154 .L0 
     /tmp/cc88CzHN.s:254    .text:0000000000000154 .L0 
     /tmp/cc88CzHN.s:258    .text:000000000000015c .L0 
     /tmp/cc88CzHN.s:262    .text:0000000000000164 .L0 
     /tmp/cc88CzHN.s:264    .text:000000000000016c .L0 
     /tmp/cc88CzHN.s:270    .text:000000000000016c _ZN4KSem7unblockEv
     /tmp/cc88CzHN.s:273    .text:000000000000016c .L0 
     /tmp/cc88CzHN.s:275    .text:000000000000016c .L0 
     /tmp/cc88CzHN.s:276    .text:0000000000000170 .L0 
     /tmp/cc88CzHN.s:279    .text:0000000000000178 .L0 
     /tmp/cc88CzHN.s:280    .text:0000000000000178 .L0 
GAS LISTING /tmp/cc88CzHN.s 			page 16


     /tmp/cc88CzHN.s:282    .text:000000000000017c .L0 
     /tmp/cc88CzHN.s:284    .text:000000000000017c .L0 
     /tmp/cc88CzHN.s:285    .text:000000000000017c .L0 
     /tmp/cc88CzHN.s:292    .text:0000000000000188 .L0 
     /tmp/cc88CzHN.s:293    .text:0000000000000188 .L0 
     /tmp/cc88CzHN.s:294    .text:0000000000000188 .L0 
     /tmp/cc88CzHN.s:299    .text:000000000000018c .L0 
     /tmp/cc88CzHN.s:300    .text:000000000000018c .L0 
     /tmp/cc88CzHN.s:303    .text:0000000000000194 .L0 
     /tmp/cc88CzHN.s:304    .text:0000000000000198 .L0 
     /tmp/cc88CzHN.s:306    .text:000000000000019c .L0 
     /tmp/cc88CzHN.s:307    .text:000000000000019c .L0 
     /tmp/cc88CzHN.s:309    .text:00000000000001a0 .L0 
     /tmp/cc88CzHN.s:311    .text:00000000000001a4 .L0 
     /tmp/cc88CzHN.s:317    .text:00000000000001a4 _ZN4KSem6signalEv
     /tmp/cc88CzHN.s:320    .text:00000000000001a4 .L0 
     /tmp/cc88CzHN.s:322    .text:00000000000001a4 .L0 
     /tmp/cc88CzHN.s:323    .text:00000000000001a8 .L0 
     /tmp/cc88CzHN.s:327    .text:00000000000001b4 .L0 
     /tmp/cc88CzHN.s:328    .text:00000000000001b4 .L0 
     /tmp/cc88CzHN.s:329    .text:00000000000001b4 .L0 
     /tmp/cc88CzHN.s:331    .text:00000000000001b8 .L0 
     /tmp/cc88CzHN.s:334    .text:00000000000001bc .L0 
     /tmp/cc88CzHN.s:335    .text:00000000000001bc .L0 
     /tmp/cc88CzHN.s:339    .text:00000000000001c8 .L0 
     /tmp/cc88CzHN.s:341    .text:00000000000001cc .L0 
     /tmp/cc88CzHN.s:342    .text:00000000000001cc .L0 
     /tmp/cc88CzHN.s:344    .text:00000000000001d0 .L0 
     /tmp/cc88CzHN.s:346    .text:00000000000001d4 .L0 
     /tmp/cc88CzHN.s:347    .text:00000000000001d4 .L0 
     /tmp/cc88CzHN.s:349    .text:00000000000001d8 .L0 
     /tmp/cc88CzHN.s:352    .text:00000000000001e0 .L0 
     /tmp/cc88CzHN.s:354    .text:00000000000001e4 .L0 
     /tmp/cc88CzHN.s:357    .text:00000000000001e8 .L0 
     /tmp/cc88CzHN.s:358    .text:00000000000001ec .L0 
     /tmp/cc88CzHN.s:359    .text:00000000000001ec .L0 
     /tmp/cc88CzHN.s:361    .text:00000000000001f0 .L0 
     /tmp/cc88CzHN.s:362    .text:00000000000001f0 .L0 
     /tmp/cc88CzHN.s:364    .text:00000000000001f4 .L0 
     /tmp/cc88CzHN.s:367    .text:00000000000001f8 .L0 
     /tmp/cc88CzHN.s:371    .text:00000000000001fc .L0 
     /tmp/cc88CzHN.s:373    .text:00000000000001fc .L0 
     /tmp/cc88CzHN.s:374    .text:00000000000001fc .L0 
     /tmp/cc88CzHN.s:378    .text:0000000000000208 .L0 
     /tmp/cc88CzHN.s:382    .text:0000000000000210 .L0 
     /tmp/cc88CzHN.s:386    .text:0000000000000218 .L0 
     /tmp/cc88CzHN.s:388    .text:0000000000000220 .L0 
     /tmp/cc88CzHN.s:394    .text:0000000000000220 _ZN4KSem8closeSemEPS_
     /tmp/cc88CzHN.s:397    .text:0000000000000220 .L0 
     /tmp/cc88CzHN.s:399    .text:0000000000000220 .L0 
     /tmp/cc88CzHN.s:400    .text:0000000000000224 .L0 
     /tmp/cc88CzHN.s:404    .text:0000000000000230 .L0 
     /tmp/cc88CzHN.s:405    .text:0000000000000230 .L0 
     /tmp/cc88CzHN.s:406    .text:0000000000000230 .L0 
     /tmp/cc88CzHN.s:408    .text:0000000000000234 .L0 
     /tmp/cc88CzHN.s:411    .text:0000000000000238 .L0 
     /tmp/cc88CzHN.s:412    .text:0000000000000238 .L0 
GAS LISTING /tmp/cc88CzHN.s 			page 17


     /tmp/cc88CzHN.s:416    .text:0000000000000244 .L0 
     /tmp/cc88CzHN.s:418    .text:0000000000000248 .L0 
     /tmp/cc88CzHN.s:419    .text:0000000000000248 .L0 
     /tmp/cc88CzHN.s:424    .text:0000000000000250 .L0 
     /tmp/cc88CzHN.s:425    .text:0000000000000250 .L0 
     /tmp/cc88CzHN.s:431    .text:000000000000025c .L0 
     /tmp/cc88CzHN.s:432    .text:000000000000025c .L0 
     /tmp/cc88CzHN.s:433    .text:000000000000025c .L0 
     /tmp/cc88CzHN.s:438    .text:0000000000000260 .L0 
     /tmp/cc88CzHN.s:439    .text:0000000000000260 .L0 
     /tmp/cc88CzHN.s:444    .text:0000000000000268 .L0 
     /tmp/cc88CzHN.s:447    .text:0000000000000268 .L0 
     /tmp/cc88CzHN.s:448    .text:0000000000000268 .L0 
     /tmp/cc88CzHN.s:449    .text:0000000000000268 .L0 
     /tmp/cc88CzHN.s:454    .text:000000000000026c .L0 
     /tmp/cc88CzHN.s:456    .text:0000000000000270 .L0 
     /tmp/cc88CzHN.s:459    .text:0000000000000274 .L0 
     /tmp/cc88CzHN.s:460    .text:0000000000000278 .L0 
     /tmp/cc88CzHN.s:461    .text:0000000000000278 .L0 
     /tmp/cc88CzHN.s:463    .text:000000000000027c .L0 
     /tmp/cc88CzHN.s:464    .text:000000000000027c .L0 
     /tmp/cc88CzHN.s:466    .text:0000000000000280 .L0 
     /tmp/cc88CzHN.s:469    .text:0000000000000284 .L0 
     /tmp/cc88CzHN.s:473    .text:0000000000000288 .L0 
     /tmp/cc88CzHN.s:475    .text:0000000000000288 .L0 
     /tmp/cc88CzHN.s:477    .text:0000000000000290 .L0 
     /tmp/cc88CzHN.s:485    .text:0000000000000290 .L0 
     /tmp/cc88CzHN.s:152    .text:00000000000000b4 .L0 
     /tmp/cc88CzHN.s:256    .text:000000000000015c .L11
     /tmp/cc88CzHN.s:260    .text:0000000000000164 .L12
     /tmp/cc88CzHN.s:245    .text:0000000000000148 .L15
     /tmp/cc88CzHN.s:230    .text:0000000000000134 .L10
     /tmp/cc88CzHN.s:380    .text:0000000000000210 .L20
     /tmp/cc88CzHN.s:384    .text:0000000000000218 .L21
     /tmp/cc88CzHN.s:370    .text:00000000000001fc .L24
     /tmp/cc88CzHN.s:355    .text:00000000000001e8 .L19
     /tmp/cc88CzHN.s:472    .text:0000000000000288 .L28
     /tmp/cc88CzHN.s:441    .text:0000000000000268 .L27
     /tmp/cc88CzHN.s:421    .text:0000000000000250 .L31
     /tmp/cc88CzHN.s:457    .text:0000000000000274 .L26
     /tmp/cc88CzHN.s:2124   .debug_abbrev:0000000000000000 .Ldebug_abbrev0
     /tmp/cc88CzHN.s:3792   .debug_str:00000000000007aa .LASF147
     /tmp/cc88CzHN.s:3622   .debug_str:00000000000002b9 .LASF148
     /tmp/cc88CzHN.s:3630   .debug_str:0000000000000302 .LASF149
     /tmp/cc88CzHN.s:5      .text:0000000000000000 .Ltext0
     /tmp/cc88CzHN.s:480    .text:0000000000000290 .Letext0
     /tmp/cc88CzHN.s:3530   .debug_line:0000000000000000 .Ldebug_line0
     /tmp/cc88CzHN.s:3580   .debug_str:000000000000016a .LASF3
     /tmp/cc88CzHN.s:3698   .debug_str:0000000000000549 .LASF0
     /tmp/cc88CzHN.s:3718   .debug_str:00000000000005ab .LASF1
     /tmp/cc88CzHN.s:3676   .debug_str:000000000000049b .LASF2
     /tmp/cc88CzHN.s:3640   .debug_str:000000000000037d .LASF4
     /tmp/cc88CzHN.s:3770   .debug_str:000000000000071f .LASF5
     /tmp/cc88CzHN.s:3560   .debug_str:00000000000000e9 .LASF6
     /tmp/cc88CzHN.s:3594   .debug_str:00000000000001e5 .LASF7
     /tmp/cc88CzHN.s:3724   .debug_str:00000000000005f0 .LASF8
     /tmp/cc88CzHN.s:3696   .debug_str:0000000000000536 .LASF9
GAS LISTING /tmp/cc88CzHN.s 			page 18


     /tmp/cc88CzHN.s:3812   .debug_str:00000000000008e0 .LASF10
     /tmp/cc88CzHN.s:3626   .debug_str:00000000000002ee .LASF11
     /tmp/cc88CzHN.s:3740   .debug_str:0000000000000655 .LASF12
     /tmp/cc88CzHN.s:3798   .debug_str:000000000000088d .LASF13
     /tmp/cc88CzHN.s:3566   .debug_str:00000000000000fe .LASF14
     /tmp/cc88CzHN.s:3536   .debug_str:000000000000002a .LASF15
     /tmp/cc88CzHN.s:3576   .debug_str:0000000000000153 .LASF16
     /tmp/cc88CzHN.s:3760   .debug_str:00000000000006d8 .LASF17
     /tmp/cc88CzHN.s:3590   .debug_str:00000000000001ca .LASF18
     /tmp/cc88CzHN.s:3670   .debug_str:000000000000046c .LASF41
     /tmp/cc88CzHN.s:3638   .debug_str:0000000000000375 .LASF150
     /tmp/cc88CzHN.s:3708   .debug_str:0000000000000577 .LASF19
     /tmp/cc88CzHN.s:3834   .debug_str:0000000000000995 .LASF20
     /tmp/cc88CzHN.s:3734   .debug_str:000000000000063c .LASF21
     /tmp/cc88CzHN.s:3714   .debug_str:00000000000005a0 .LASF22
     /tmp/cc88CzHN.s:3754   .debug_str:00000000000006b5 .LASF23
     /tmp/cc88CzHN.s:3808   .debug_str:00000000000008c4 .LASF27
     /tmp/cc88CzHN.s:3840   .debug_str:00000000000009bf .LASF24
     /tmp/cc88CzHN.s:3830   .debug_str:000000000000096e .LASF25
     /tmp/cc88CzHN.s:3786   .debug_str:000000000000078f .LASF26
     /tmp/cc88CzHN.s:3642   .debug_str:0000000000000384 .LASF28
     /tmp/cc88CzHN.s:3764   .debug_str:00000000000006f4 .LASF29
     /tmp/cc88CzHN.s:3574   .debug_str:0000000000000140 .LASF30
     /tmp/cc88CzHN.s:3802   .debug_str:00000000000008a1 .LASF31
     /tmp/cc88CzHN.s:3588   .debug_str:000000000000019f .LASF33
     /tmp/cc88CzHN.s:3738   .debug_str:000000000000064f .LASF32
     /tmp/cc88CzHN.s:3534   .debug_str:000000000000000c .LASF34
     /tmp/cc88CzHN.s:3730   .debug_str:000000000000061b .LASF35
     /tmp/cc88CzHN.s:3632   .debug_str:0000000000000320 .LASF36
     /tmp/cc88CzHN.s:3596   .debug_str:00000000000001ec .LASF45
     /tmp/cc88CzHN.s:3532   .debug_str:0000000000000000 .LASF37
     /tmp/cc88CzHN.s:3618   .debug_str:0000000000000295 .LASF38
     /tmp/cc88CzHN.s:3736   .debug_str:0000000000000643 .LASF39
     /tmp/cc88CzHN.s:3608   .debug_str:0000000000000247 .LASF83
     /tmp/cc88CzHN.s:3688   .debug_str:00000000000004ea .LASF85
     /tmp/cc88CzHN.s:3614   .debug_str:0000000000000272 .LASF40
     /tmp/cc88CzHN.s:3544   .debug_str:0000000000000064 .LASF112
     /tmp/cc88CzHN.s:3654   .debug_str:00000000000003cc .LASF42
     /tmp/cc88CzHN.s:3832   .debug_str:0000000000000973 .LASF43
     /tmp/cc88CzHN.s:3752   .debug_str:00000000000006b0 .LASF151
     /tmp/cc88CzHN.s:3716   .debug_str:00000000000005a5 .LASF44
     /tmp/cc88CzHN.s:3742   .debug_str:0000000000000664 .LASF46
     /tmp/cc88CzHN.s:3726   .debug_str:0000000000000603 .LASF49
     /tmp/cc88CzHN.s:3664   .debug_str:0000000000000433 .LASF51
     /tmp/cc88CzHN.s:3678   .debug_str:00000000000004a9 .LASF47
     /tmp/cc88CzHN.s:3634   .debug_str:0000000000000352 .LASF48
     /tmp/cc88CzHN.s:3542   .debug_str:000000000000005a .LASF50
     /tmp/cc88CzHN.s:3732   .debug_str:0000000000000628 .LASF52
     /tmp/cc88CzHN.s:3644   .debug_str:0000000000000393 .LASF53
     /tmp/cc88CzHN.s:3666   .debug_str:0000000000000449 .LASF54
     /tmp/cc88CzHN.s:3668   .debug_str:000000000000045f .LASF55
     /tmp/cc88CzHN.s:3572   .debug_str:0000000000000128 .LASF56
     /tmp/cc88CzHN.s:3810   .debug_str:00000000000008d3 .LASF57
     /tmp/cc88CzHN.s:3816   .debug_str:0000000000000911 .LASF58
     /tmp/cc88CzHN.s:3600   .debug_str:0000000000000219 .LASF59
     /tmp/cc88CzHN.s:3620   .debug_str:00000000000002a1 .LASF60
     /tmp/cc88CzHN.s:3710   .debug_str:000000000000057d .LASF61
GAS LISTING /tmp/cc88CzHN.s 			page 19


     /tmp/cc88CzHN.s:3686   .debug_str:00000000000004d1 .LASF63
     /tmp/cc88CzHN.s:3762   .debug_str:00000000000006ee .LASF62
     /tmp/cc88CzHN.s:3554   .debug_str:00000000000000b7 .LASF64
     /tmp/cc88CzHN.s:3700   .debug_str:0000000000000556 .LASF65
     /tmp/cc88CzHN.s:3612   .debug_str:000000000000025f .LASF66
     /tmp/cc88CzHN.s:3782   .debug_str:000000000000077f .LASF67
     /tmp/cc88CzHN.s:3774   .debug_str:0000000000000741 .LASF68
     /tmp/cc88CzHN.s:3606   .debug_str:000000000000023f .LASF69
     /tmp/cc88CzHN.s:3748   .debug_str:0000000000000683 .LASF70
     /tmp/cc88CzHN.s:3650   .debug_str:00000000000003b4 .LASF71
     /tmp/cc88CzHN.s:3674   .debug_str:000000000000048c .LASF72
     /tmp/cc88CzHN.s:3702   .debug_str:000000000000055f .LASF73
     /tmp/cc88CzHN.s:3704   .debug_str:0000000000000565 .LASF74
     /tmp/cc88CzHN.s:3794   .debug_str:000000000000086e .LASF75
     /tmp/cc88CzHN.s:3646   .debug_str:000000000000039e .LASF76
     /tmp/cc88CzHN.s:3694   .debug_str:000000000000052e .LASF77
     /tmp/cc88CzHN.s:3578   .debug_str:000000000000015f .LASF78
     /tmp/cc88CzHN.s:3772   .debug_str:0000000000000731 .LASF79
     /tmp/cc88CzHN.s:3636   .debug_str:0000000000000369 .LASF80
     /tmp/cc88CzHN.s:3728   .debug_str:000000000000060e .LASF81
     /tmp/cc88CzHN.s:3610   .debug_str:0000000000000251 .LASF82
     /tmp/cc88CzHN.s:3556   .debug_str:00000000000000c7 .LASF138
     /tmp/cc88CzHN.s:3824   .debug_str:0000000000000948 .LASF84
     /tmp/cc88CzHN.s:3624   .debug_str:00000000000002c6 .LASF86
     /tmp/cc88CzHN.s:3828   .debug_str:0000000000000961 .LASF87
     /tmp/cc88CzHN.s:3558   .debug_str:00000000000000dd .LASF88
     /tmp/cc88CzHN.s:3778   .debug_str:000000000000075d .LASF100
     /tmp/cc88CzHN.s:3756   .debug_str:00000000000006bf .LASF117
     /tmp/cc88CzHN.s:3564   .debug_str:00000000000000f8 .LASF89
     /tmp/cc88CzHN.s:3818   .debug_str:0000000000000929 .LASF90
     /tmp/cc88CzHN.s:3746   .debug_str:000000000000067b .LASF91
     /tmp/cc88CzHN.s:3548   .debug_str:000000000000007e .LASF92
     /tmp/cc88CzHN.s:3844   .debug_str:00000000000009e5 .LASF93
     /tmp/cc88CzHN.s:3552   .debug_str:00000000000000a7 .LASF94
     /tmp/cc88CzHN.s:3586   .debug_str:0000000000000198 .LASF95
     /tmp/cc88CzHN.s:3780   .debug_str:000000000000076d .LASF96
     /tmp/cc88CzHN.s:3820   .debug_str:000000000000092e .LASF97
     /tmp/cc88CzHN.s:3550   .debug_str:0000000000000091 .LASF98
     /tmp/cc88CzHN.s:3838   .debug_str:00000000000009b2 .LASF99
     /tmp/cc88CzHN.s:3660   .debug_str:0000000000000410 .LASF101
     /tmp/cc88CzHN.s:3604   .debug_str:0000000000000239 .LASF102
     /tmp/cc88CzHN.s:3822   .debug_str:0000000000000937 .LASF103
     /tmp/cc88CzHN.s:3562   .debug_str:00000000000000f0 .LASF104
     /tmp/cc88CzHN.s:3836   .debug_str:000000000000099f .LASF105
     /tmp/cc88CzHN.s:3648   .debug_str:00000000000003a7 .LASF106
     /tmp/cc88CzHN.s:3680   .debug_str:00000000000004b5 .LASF107
     /tmp/cc88CzHN.s:3692   .debug_str:0000000000000524 .LASF108
     /tmp/cc88CzHN.s:3652   .debug_str:00000000000003bc .LASF109
     /tmp/cc88CzHN.s:3540   .debug_str:0000000000000052 .LASF110
     /tmp/cc88CzHN.s:3758   .debug_str:00000000000006cc .LASF111
     /tmp/cc88CzHN.s:3570   .debug_str:0000000000000123 .LASF113
     /tmp/cc88CzHN.s:3804   .debug_str:00000000000008a9 .LASF114
     /tmp/cc88CzHN.s:3616   .debug_str:0000000000000277 .LASF115
     /tmp/cc88CzHN.s:3720   .debug_str:00000000000005be .LASF116
     /tmp/cc88CzHN.s:3768   .debug_str:0000000000000704 .LASF118
     /tmp/cc88CzHN.s:3628   .debug_str:00000000000002fc .LASF119
     /tmp/cc88CzHN.s:3800   .debug_str:000000000000089c .LASF120
GAS LISTING /tmp/cc88CzHN.s 			page 20


     /tmp/cc88CzHN.s:3568   .debug_str:000000000000010e .LASF121
     /tmp/cc88CzHN.s:3722   .debug_str:00000000000005d8 .LASF122
     /tmp/cc88CzHN.s:3658   .debug_str:00000000000003f8 .LASF152
     /tmp/cc88CzHN.s:3582   .debug_str:000000000000016f .LASF123
     /tmp/cc88CzHN.s:3662   .debug_str:000000000000041e .LASF124
     /tmp/cc88CzHN.s:3766   .debug_str:00000000000006fc .LASF125
     /tmp/cc88CzHN.s:3584   .debug_str:000000000000017c .LASF126
     /tmp/cc88CzHN.s:3784   .debug_str:0000000000000787 .LASF127
     /tmp/cc88CzHN.s:3656   .debug_str:00000000000003d9 .LASF128
     /tmp/cc88CzHN.s:3790   .debug_str:00000000000007a1 .LASF129
     /tmp/cc88CzHN.s:3750   .debug_str:0000000000000694 .LASF130
     /tmp/cc88CzHN.s:3796   .debug_str:0000000000000878 .LASF131
     /tmp/cc88CzHN.s:3806   .debug_str:00000000000008ae .LASF132
     /tmp/cc88CzHN.s:3776   .debug_str:0000000000000753 .LASF133
     /tmp/cc88CzHN.s:3592   .debug_str:00000000000001e0 .LASF134
     /tmp/cc88CzHN.s:3684   .debug_str:00000000000004cc .LASF135
     /tmp/cc88CzHN.s:3706   .debug_str:000000000000056a .LASF136
     /tmp/cc88CzHN.s:3546   .debug_str:000000000000006c .LASF137
     /tmp/cc88CzHN.s:3538   .debug_str:000000000000003a .LASF139
     /tmp/cc88CzHN.s:3598   .debug_str:0000000000000205 .LASF153
     /tmp/cc88CzHN.s:3672   .debug_str:000000000000047c .LASF140
     /tmp/cc88CzHN.s:3814   .debug_str:00000000000008f0 .LASF154
     /tmp/cc88CzHN.s:3826   .debug_str:0000000000000956 .LASF141
     /tmp/cc88CzHN.s:3842   .debug_str:00000000000009c4 .LASF142
     /tmp/cc88CzHN.s:3690   .debug_str:000000000000051f .LASF143
     /tmp/cc88CzHN.s:3712   .debug_str:000000000000058b .LASF144
     /tmp/cc88CzHN.s:395    .text:0000000000000220 .LFB40
     /tmp/cc88CzHN.s:478    .text:0000000000000290 .LFE40
     /tmp/cc88CzHN.s:3682   .debug_str:00000000000004c5 .LASF146
     /tmp/cc88CzHN.s:3272   .debug_loc:0000000000000000 .LLST15
     /tmp/cc88CzHN.s:422    .text:0000000000000250 .LBB29
     /tmp/cc88CzHN.s:442    .text:0000000000000268 .LBE29
     /tmp/cc88CzHN.s:3294   .debug_loc:000000000000005f .LLST16
     /tmp/cc88CzHN.s:429    .text:000000000000025c .LBB30
     /tmp/cc88CzHN.s:436    .text:0000000000000260 .LBE30
     /tmp/cc88CzHN.s:3301   .debug_loc:0000000000000082 .LLST17
     /tmp/cc88CzHN.s:3309   .debug_loc:00000000000000a6 .LLST18
     /tmp/cc88CzHN.s:427    .text:000000000000025c .LVL34
     /tmp/cc88CzHN.s:440    .text:0000000000000268 .LVL36
     /tmp/cc88CzHN.s:445    .text:0000000000000268 .LBB32
     /tmp/cc88CzHN.s:452    .text:000000000000026c .LBE32
     /tmp/cc88CzHN.s:3316   .debug_loc:00000000000000c9 .LLST19
     /tmp/cc88CzHN.s:414    .text:0000000000000244 .LVL33
     /tmp/cc88CzHN.s:271    .text:000000000000016c .LFB39
     /tmp/cc88CzHN.s:312    .text:00000000000001a4 .LFE39
     /tmp/cc88CzHN.s:3744   .debug_str:0000000000000676 .LASF145
     /tmp/cc88CzHN.s:3325   .debug_loc:00000000000000ee .LLST10
     /tmp/cc88CzHN.s:3345   .debug_loc:000000000000013c .LLST11
     /tmp/cc88CzHN.s:290    .text:0000000000000188 .LBB27
     /tmp/cc88CzHN.s:297    .text:000000000000018c .LBE27
     /tmp/cc88CzHN.s:3352   .debug_loc:000000000000015f .LLST12
     /tmp/cc88CzHN.s:3360   .debug_loc:0000000000000183 .LLST13
     /tmp/cc88CzHN.s:288    .text:0000000000000188 .LVL24
     /tmp/cc88CzHN.s:301    .text:0000000000000194 .LVL26
     /tmp/cc88CzHN.s:138    .text:00000000000000a4 .LFB38
     /tmp/cc88CzHN.s:185    .text:00000000000000ec .LFE38
     /tmp/cc88CzHN.s:3367   .debug_loc:00000000000001a6 .LLST6
GAS LISTING /tmp/cc88CzHN.s 			page 21


     /tmp/cc88CzHN.s:155    .text:00000000000000c0 .LBB25
     /tmp/cc88CzHN.s:164    .text:00000000000000c8 .LBE25
     /tmp/cc88CzHN.s:3387   .debug_loc:00000000000001f4 .LLST7
     /tmp/cc88CzHN.s:3395   .debug_loc:0000000000000218 .LLST8
     /tmp/cc88CzHN.s:170    .text:00000000000000d4 .LVL15
     /tmp/cc88CzHN.s:174    .text:00000000000000dc .LVL16
     /tmp/cc88CzHN.s:318    .text:00000000000001a4 .LFB37
     /tmp/cc88CzHN.s:389    .text:0000000000000220 .LFE37
     /tmp/cc88CzHN.s:3402   .debug_loc:000000000000023b .LLST14
     /tmp/cc88CzHN.s:337    .text:00000000000001c8 .LVL28
     /tmp/cc88CzHN.s:376    .text:0000000000000208 .LVL31
     /tmp/cc88CzHN.s:191    .text:00000000000000ec .LFB36
     /tmp/cc88CzHN.s:265    .text:000000000000016c .LFE36
     /tmp/cc88CzHN.s:3424   .debug_loc:000000000000029a .LLST9
     /tmp/cc88CzHN.s:210    .text:0000000000000110 .LVL18
     /tmp/cc88CzHN.s:251    .text:0000000000000154 .LVL21
     /tmp/cc88CzHN.s:78     .text:0000000000000058 .LFB35
     /tmp/cc88CzHN.s:132    .text:00000000000000a4 .LFE35
     /tmp/cc88CzHN.s:3446   .debug_loc:00000000000002f9 .LLST2
     /tmp/cc88CzHN.s:99     .text:000000000000007c .LBB21
     /tmp/cc88CzHN.s:119    .text:0000000000000090 .LBE21
     /tmp/cc88CzHN.s:3460   .debug_loc:0000000000000332 .LLST3
     /tmp/cc88CzHN.s:3467   .debug_loc:0000000000000355 .LLST4
     /tmp/cc88CzHN.s:105    .text:0000000000000080 .LBB23
     /tmp/cc88CzHN.s:113    .text:0000000000000088 .LBE23
     /tmp/cc88CzHN.s:3474   .debug_loc:0000000000000378 .LLST5
     /tmp/cc88CzHN.s:98     .text:000000000000007c .LVL7
     /tmp/cc88CzHN.s:46     .text:0000000000000030 .LFB34
     /tmp/cc88CzHN.s:72     .text:0000000000000058 .LFE34
     /tmp/cc88CzHN.s:3483   .debug_loc:000000000000039d .LLST1
     /tmp/cc88CzHN.s:61     .text:0000000000000048 .LVL4
     /tmp/cc88CzHN.s:10     .text:0000000000000000 .LFB33
     /tmp/cc88CzHN.s:40     .text:0000000000000030 .LFE33
     /tmp/cc88CzHN.s:3497   .debug_loc:00000000000003d6 .LLST0
     /tmp/cc88CzHN.s:29     .text:0000000000000020 .LVL2
     /tmp/cc88CzHN.s:3788   .debug_str:0000000000000794 .LASF155
     /tmp/cc88CzHN.s:3602   .debug_str:0000000000000224 .LASF156
     /tmp/cc88CzHN.s:398    .text:0000000000000220 .LVL32
     /tmp/cc88CzHN.s:467    .text:0000000000000280 .LVL38
     /tmp/cc88CzHN.s:471    .text:0000000000000288 .LVL39
     /tmp/cc88CzHN.s:434    .text:0000000000000260 .LVL35
     /tmp/cc88CzHN.s:450    .text:000000000000026c .LVL37
     /tmp/cc88CzHN.s:274    .text:000000000000016c .LVL22
     /tmp/cc88CzHN.s:286    .text:0000000000000180 .LVL23
     /tmp/cc88CzHN.s:295    .text:000000000000018c .LVL25
     /tmp/cc88CzHN.s:141    .text:00000000000000a4 .LVL11
     /tmp/cc88CzHN.s:168    .text:00000000000000cc .LVL14
     /tmp/cc88CzHN.s:154    .text:00000000000000c0 .LVL12
     /tmp/cc88CzHN.s:162    .text:00000000000000c8 .LVL13
     /tmp/cc88CzHN.s:321    .text:00000000000001a4 .LVL27
     /tmp/cc88CzHN.s:365    .text:00000000000001f4 .LVL29
     /tmp/cc88CzHN.s:369    .text:00000000000001fc .LVL30
     /tmp/cc88CzHN.s:194    .text:00000000000000ec .LVL17
     /tmp/cc88CzHN.s:240    .text:0000000000000140 .LVL19
     /tmp/cc88CzHN.s:244    .text:0000000000000148 .LVL20
     /tmp/cc88CzHN.s:81     .text:0000000000000058 .LVL5
     /tmp/cc88CzHN.s:96     .text:0000000000000074 .LVL6
GAS LISTING /tmp/cc88CzHN.s 			page 22


     /tmp/cc88CzHN.s:117    .text:0000000000000090 .LVL10
     /tmp/cc88CzHN.s:104    .text:0000000000000080 .LVL8
     /tmp/cc88CzHN.s:111    .text:0000000000000088 .LVL9
     /tmp/cc88CzHN.s:49     .text:0000000000000030 .LVL3
     /tmp/cc88CzHN.s:14     .text:0000000000000000 .LVL0
     /tmp/cc88CzHN.s:27     .text:0000000000000018 .LVL1
     /tmp/cc88CzHN.s:486    .debug_info:0000000000000000 .Ldebug_info0

UNDEFINED SYMBOLS
_ZN15MemoryAllocator7kmallocEmNS_7PurposeE
_ZN15MemoryAllocator5kfreeEPv
_ZN3TCB7runningE
_ZN11ThreadQueue7putLastEP3TCB
_ZN3TCB5yieldEv
_ZN15MemoryAllocator12checkPurposeEPvNS_7PurposeE
_ZN11ThreadQueue8getFirstEv
_ZN9Scheduler3putEP3TCB
