GAS LISTING /tmp/ccmDFpnF.s 			page 1


   1              		.file	"main.cpp"
   2              		.option pic
   3              		.option norelax
   4              		.text
   5              	.Ltext0:
   6              		.align	2
   7              		.globl	_Z4idlePv
   9              	_Z4idlePv:
  10              	.LFB53:
  11              		.file 1 "src/main.cpp"
   1:src/main.cpp  **** #include "../lib/hw.h"
   2:src/main.cpp  **** #include "../h/Riscv.hpp"
   3:src/main.cpp  **** #include "../h/KMemory.hpp"
   4:src/main.cpp  **** #include "../h/KConsole.hpp"
   5:src/main.cpp  **** #include "../h/TCB.hpp"
   6:src/main.cpp  **** #include "../h/syscall_c.hpp"
   7:src/main.cpp  **** #include "../h/syscall_cpp.hpp"
   8:src/main.cpp  **** 
   9:src/main.cpp  **** extern "C" void interruptHandler();
  10:src/main.cpp  **** 
  11:src/main.cpp  **** void userMain();
  12:src/main.cpp  **** 
  13:src/main.cpp  **** void idle(void*) {
  12              		.loc 1 13 18
  13              		.cfi_startproc
  14 0000 130101FF 		addi	sp,sp,-16
  15              		.cfi_def_cfa_offset 16
  16 0004 23341100 		sd	ra,8(sp)
  17 0008 23308100 		sd	s0,0(sp)
  18              		.cfi_offset 1, -8
  19              		.cfi_offset 8, -16
  20 000c 13040101 		addi	s0,sp,16
  21              		.cfi_def_cfa 8, 0
  22              	.L2:
  14:src/main.cpp  ****     while (1) { thread_dispatch(); }
  23              		.loc 1 14 5 discriminator 1
  24              		.loc 1 14 17 discriminator 1
  25              		.loc 1 14 32 is_stmt 0 discriminator 1
  26 0010 97000000 		call	_Z15thread_dispatchv@plt
  26      E7800000 
  27              	.LVL0:
  28              		.loc 1 14 5 is_stmt 1 discriminator 1
  29 0018 6FF09FFF 		j	.L2
  30              		.cfi_endproc
  31              	.LFE53:
  33              		.align	2
  34              		.globl	_Z22kernelConsumerFunctionPv
  36              	_Z22kernelConsumerFunctionPv:
  37              	.LFB54:
  15:src/main.cpp  **** }
  16:src/main.cpp  **** 
  17:src/main.cpp  **** //salje na izlaz karakter iz izlaznog bafera KConsole
  18:src/main.cpp  **** void kernelConsumerFunction(void*) {
  38              		.loc 1 18 36
  39              		.cfi_startproc
  40 001c 130101FF 		addi	sp,sp,-16
  41              		.cfi_def_cfa_offset 16
GAS LISTING /tmp/ccmDFpnF.s 			page 2


  42 0020 23341100 		sd	ra,8(sp)
  43 0024 23308100 		sd	s0,0(sp)
  44              		.cfi_offset 1, -8
  45              		.cfi_offset 8, -16
  46 0028 13040101 		addi	s0,sp,16
  47              		.cfi_def_cfa 8, 0
  48 002c 6F008002 		j	.L6
  49              	.LVL1:
  50              	.L8:
  51              	.LBB19:
  19:src/main.cpp  ****     while (1) {
  20:src/main.cpp  ****         char c = KConsole::getFromOutput();
  21:src/main.cpp  ****         while (!(KConsole::getSRvalue() & CONSOLE_TX_STATUS_BIT)) {}
  22:src/main.cpp  ****         KConsole::setDRvalue(c);
  52              		.loc 1 22 9
  53              	.LBB20:
  54              	.LBB21:
  55              		.file 2 "src/../h/KConsole.hpp"
   1:src/../h/KConsole.hpp **** //
   2:src/../h/KConsole.hpp **** // Created by os on 6/7/23.
   3:src/../h/KConsole.hpp **** //
   4:src/../h/KConsole.hpp **** 
   5:src/../h/KConsole.hpp **** #ifndef PROJEKAT2023_KCONSOLE_HPP
   6:src/../h/KConsole.hpp **** #define PROJEKAT2023_KCONSOLE_HPP
   7:src/../h/KConsole.hpp **** 
   8:src/../h/KConsole.hpp **** #include "../lib/hw.h"
   9:src/../h/KConsole.hpp **** #include "../h/syscall_c.hpp"
  10:src/../h/KConsole.hpp **** #include "../test/printing.hpp"
  11:src/../h/KConsole.hpp **** #include "../visak/helper.hpp"
  12:src/../h/KConsole.hpp **** 
  13:src/../h/KConsole.hpp **** class KConsole {
  14:src/../h/KConsole.hpp **** public:
  15:src/../h/KConsole.hpp ****     static void initKConsole();
  16:src/../h/KConsole.hpp **** 
  17:src/../h/KConsole.hpp ****     //stavlja karakter u izlazni bafer konzole
  18:src/../h/KConsole.hpp ****     static void kputc(char c);
  19:src/../h/KConsole.hpp **** 
  20:src/../h/KConsole.hpp ****     //uzima karakter iz ulaznog bafera konzole
  21:src/../h/KConsole.hpp ****     static char kgetc();
  22:src/../h/KConsole.hpp **** 
  23:src/../h/KConsole.hpp ****     //vraca karakter iz izlaznog bafera; ako je bafer prazan, blokira se dok se ne napuni
  24:src/../h/KConsole.hpp ****     static char getFromOutput();
  25:src/../h/KConsole.hpp **** 
  26:src/../h/KConsole.hpp ****     //stavlja karakter u ulazni bafer; ako je bafer pun, ignorise se
  27:src/../h/KConsole.hpp ****     static void placeInInput(char c);
  28:src/../h/KConsole.hpp **** 
  29:src/../h/KConsole.hpp ****     //ispis svih preostalih karaktera u izlaznom baferu
  30:src/../h/KConsole.hpp ****     static void flush(){
  31:src/../h/KConsole.hpp ****         __asm__ volatile("li a0, 0x43");
  32:src/../h/KConsole.hpp ****         __asm__ volatile("ecall");
  33:src/../h/KConsole.hpp ****     }
  34:src/../h/KConsole.hpp **** 
  35:src/../h/KConsole.hpp ****     static uint8 getSRvalue() { return *sr; }
  36:src/../h/KConsole.hpp **** 
  37:src/../h/KConsole.hpp ****     static uint8 getDRvalue() { return *dr; }
  38:src/../h/KConsole.hpp **** 
  39:src/../h/KConsole.hpp ****     static void setDRvalue(char c) { *dr = c; }
GAS LISTING /tmp/ccmDFpnF.s 			page 3


  56              		.loc 2 39 38
  57 0030 97070000 		la	a5,_ZN8KConsole2drE
  57      83B70700 
  58 0038 83B70700 		ld	a5,0(a5)
  59              		.loc 2 39 42 is_stmt 0
  60 003c 2380A700 		sb	a0,0(a5)
  61              	.LVL2:
  62              	.LBE21:
  63              	.LBE20:
  23:src/main.cpp  ****         sem_signal(KConsole::getOutputBufferHasSpace());
  64              		.loc 1 23 9 is_stmt 1
  65              	.LBB22:
  66              	.LBB23:
  40:src/../h/KConsole.hpp **** 
  41:src/../h/KConsole.hpp ****     static sem_t getOutputBufferHasSpace() { return outputBufferHasSpace; }
  67              		.loc 2 41 46
  68              	.LBE23:
  69              	.LBE22:
  70              		.loc 1 23 19 is_stmt 0
  71 0040 97070000 		la	a5,_ZN8KConsole20outputBufferHasSpaceE
  71      83B70700 
  72 0048 03B50700 		ld	a0,0(a5)
  73              	.LVL3:
  74 004c 97000000 		call	_Z10sem_signalP4KSem@plt
  74      E7800000 
  75              	.LVL4:
  76              	.LBE19:
  19:src/main.cpp  ****         char c = KConsole::getFromOutput();
  77              		.loc 1 19 5 is_stmt 1
  78              	.L6:
  19:src/main.cpp  ****         char c = KConsole::getFromOutput();
  79              		.loc 1 19 5
  80              	.LBB26:
  20:src/main.cpp  ****         while (!(KConsole::getSRvalue() & CONSOLE_TX_STATUS_BIT)) {}
  81              		.loc 1 20 9
  20:src/main.cpp  ****         while (!(KConsole::getSRvalue() & CONSOLE_TX_STATUS_BIT)) {}
  82              		.loc 1 20 41 is_stmt 0
  83 0054 97000000 		call	_ZN8KConsole13getFromOutputEv@plt
  83      E7800000 
  84              	.LVL5:
  85              	.L5:
  21:src/main.cpp  ****         KConsole::setDRvalue(c);
  86              		.loc 1 21 9 is_stmt 1
  21:src/main.cpp  ****         KConsole::setDRvalue(c);
  87              		.loc 1 21 16
  88              	.LBB24:
  89              	.LBB25:
  35:src/../h/KConsole.hpp **** 
  90              		.loc 2 35 33
  35:src/../h/KConsole.hpp **** 
  91              		.loc 2 35 40 is_stmt 0
  92 005c 97070000 		la	a5,_ZN8KConsole2srE
  92      83B70700 
  93 0064 83B70700 		ld	a5,0(a5)
  35:src/../h/KConsole.hpp **** 
  94              		.loc 2 35 41
  95 0068 83C70700 		lbu	a5,0(a5)
GAS LISTING /tmp/ccmDFpnF.s 			page 4


  96              	.LBE25:
  97              	.LBE24:
  21:src/main.cpp  ****         KConsole::setDRvalue(c);
  98              		.loc 1 21 16
  99 006c 93F70702 		andi	a5,a5,32
 100 0070 E38607FE 		beqz	a5,.L5
 101 0074 6FF0DFFB 		j	.L8
 102              	.LBE26:
 103              		.cfi_endproc
 104              	.LFE54:
 106              		.align	2
 107              		.globl	main
 109              	main:
 110              	.LFB55:
  24:src/main.cpp  ****     }
  25:src/main.cpp  **** }
  26:src/main.cpp  **** 
  27:src/main.cpp  **** int main() {
 111              		.loc 1 27 12 is_stmt 1
 112              		.cfi_startproc
 113 0078 130101FC 		addi	sp,sp,-64
 114              		.cfi_def_cfa_offset 64
 115 007c 233C1102 		sd	ra,56(sp)
 116 0080 23388102 		sd	s0,48(sp)
 117 0084 23349102 		sd	s1,40(sp)
 118              		.cfi_offset 1, -8
 119              		.cfi_offset 8, -16
 120              		.cfi_offset 9, -24
 121 0088 13040104 		addi	s0,sp,64
 122              		.cfi_def_cfa 8, 0
  28:src/main.cpp  ****     //postavljanje adrese prekidne rutine u stvec
  29:src/main.cpp  ****     __asm__ volatile("csrw stvec, %[handler]": :[handler] "r"(&interruptHandler));
 123              		.loc 1 29 5
 124              		.loc 1 29 82 is_stmt 0
 125 008c 97070000 		la	a5,interruptHandler
 125      83B70700 
 126              	#APP
 127              	# 29 "src/main.cpp" 1
  30              	
  31:src/main.cpp  ****     //inicijalizacija alokatora memorije
  32:src/main.cpp  ****     KMemory::initializeMemory();
 128              		csrw stvec, a5
 129              	# 0 "" 2
 130              		.loc 1 32 5 is_stmt 1
 131              		.loc 1 32 30 is_stmt 0
 132              	#NO_APP
 133 0098 97000000 		call	_ZN7KMemory16initializeMemoryEv@plt
 133      E7800000 
 134              	.LVL6:
  33:src/main.cpp  **** 
  34:src/main.cpp  ****     //inicijalizacija komunikacije sa konzolom
  35:src/main.cpp  ****     KConsole::initKConsole();
 135              		.loc 1 35 5 is_stmt 1
 136              		.loc 1 35 27 is_stmt 0
 137 00a0 97000000 		call	_ZN8KConsole12initKConsoleEv@plt
 137      E7800000 
 138              	.LVL7:
GAS LISTING /tmp/ccmDFpnF.s 			page 5


  36:src/main.cpp  **** 
  37:src/main.cpp  ****     //pravljenje niti
  38:src/main.cpp  ****     thread_t mainHandle;
 139              		.loc 1 38 5 is_stmt 1
  39:src/main.cpp  ****     thread_t userHandle;
 140              		.loc 1 39 5
  40:src/main.cpp  ****     thread_t idleHandle;
 141              		.loc 1 40 5
  41:src/main.cpp  ****     thread_t consoleOutputHandle;
 142              		.loc 1 41 5
  42:src/main.cpp  ****     thread_create(&mainHandle, (TCB::Body)main, nullptr);
 143              		.loc 1 42 5
 144              		.loc 1 42 18 is_stmt 0
 145 00a8 13060000 		li	a2,0
 146 00ac 97050000 		lla	a1,main
 146      93850500 
 147 00b4 130584FD 		addi	a0,s0,-40
 148 00b8 97000000 		call	_Z13thread_createPP3TCBPFvPvES2_@plt
 148      E7800000 
 149              	.LVL8:
  43:src/main.cpp  ****     TCB::setRunning(mainHandle);
 150              		.loc 1 43 5 is_stmt 1
 151              		.loc 1 43 20 is_stmt 0
 152 00c0 833784FD 		ld	a5,-40(s0)
 153              	.LVL9:
 154              	.LBB27:
 155              	.LBB28:
 156              		.file 3 "src/../h/TCB.hpp"
   1:src/../h/TCB.hpp **** //
   2:src/../h/TCB.hpp **** // Created by os on 5/23/23.
   3:src/../h/TCB.hpp **** //
   4:src/../h/TCB.hpp **** 
   5:src/../h/TCB.hpp **** #ifndef PROJEKAT2023_TCB_HPP
   6:src/../h/TCB.hpp **** #define PROJEKAT2023_TCB_HPP
   7:src/../h/TCB.hpp **** 
   8:src/../h/TCB.hpp **** #include "../lib/hw.h"
   9:src/../h/TCB.hpp **** #include "../h/ThreadQueue.hpp"
  10:src/../h/TCB.hpp **** 
  11:src/../h/TCB.hpp **** int main();
  12:src/../h/TCB.hpp **** class TCB {
  13:src/../h/TCB.hpp **** public:
  14:src/../h/TCB.hpp ****     friend class Scheduler;
  15:src/../h/TCB.hpp **** 
  16:src/../h/TCB.hpp ****     using Body = void (*)(void*);
  17:src/../h/TCB.hpp **** 
  18:src/../h/TCB.hpp ****     enum ThreadStatus {
  19:src/../h/TCB.hpp ****         CREATED, ACTIVE, BLOCKED, JOINING, SLEEPING, FINISHED
  20:src/../h/TCB.hpp ****     };
  21:src/../h/TCB.hpp **** 
  22:src/../h/TCB.hpp ****     void setStatus(ThreadStatus stat) { this->status = stat; }
  23:src/../h/TCB.hpp **** 
  24:src/../h/TCB.hpp ****     ThreadStatus getStatus() { return this->status; }
  25:src/../h/TCB.hpp **** 
  26:src/../h/TCB.hpp ****     static TCB* createThread(Body function, void* args, uint64* stack);
  27:src/../h/TCB.hpp **** 
  28:src/../h/TCB.hpp ****     static void start(TCB* newTcb);
  29:src/../h/TCB.hpp **** 
GAS LISTING /tmp/ccmDFpnF.s 			page 6


  30:src/../h/TCB.hpp ****     uint64 getTimeSlice() { return timeSlice; }
  31:src/../h/TCB.hpp **** 
  32:src/../h/TCB.hpp ****     void setTimeSlice(uint64 value) { timeSlice = value; }
  33:src/../h/TCB.hpp **** 
  34:src/../h/TCB.hpp ****     Body getBody() { return threadFunction; }
  35:src/../h/TCB.hpp **** 
  36:src/../h/TCB.hpp ****     static TCB* getRunning() { return running; }
  37:src/../h/TCB.hpp **** 
  38:src/../h/TCB.hpp ****     static void setRunning(TCB* newRunning) { running = newRunning; }
 157              		.loc 3 38 47 is_stmt 1
 158              		.loc 3 38 55 is_stmt 0
 159 00c4 17070000 		la	a4,_ZN3TCB7runningE
 159      03370700 
 160 00cc 2330F700 		sd	a5,0(a4)
 161              	.LVL10:
 162              	.LBE28:
 163              	.LBE27:
  44:src/main.cpp  ****     mainHandle->setStatus(TCB::ACTIVE);
 164              		.loc 1 44 5 is_stmt 1
 165              	.LBB29:
 166              	.LBB30:
  22:src/../h/TCB.hpp **** 
 167              		.loc 3 22 41
  22:src/../h/TCB.hpp **** 
 168              		.loc 3 22 54 is_stmt 0
 169 00d0 13071000 		li	a4,1
 170 00d4 23ACE704 		sw	a4,88(a5)
 171              	.LVL11:
 172              	.LBE30:
 173              	.LBE29:
  45:src/main.cpp  ****     thread_create(&userHandle, (TCB::Body)userMain, nullptr);
 174              		.loc 1 45 5 is_stmt 1
 175              		.loc 1 45 18 is_stmt 0
 176 00d8 13060000 		li	a2,0
 177 00dc 97050000 		la	a1,_Z8userMainv
 177      83B50500 
 178 00e4 130504FD 		addi	a0,s0,-48
 179 00e8 97000000 		call	_Z13thread_createPP3TCBPFvPvES2_@plt
 179      E7800000 
 180              	.LVL12:
  46:src/main.cpp  ****     thread_create(&consoleOutputHandle, kernelConsumerFunction, nullptr);
 181              		.loc 1 46 5 is_stmt 1
 182              		.loc 1 46 18 is_stmt 0
 183 00f0 13060000 		li	a2,0
 184 00f4 97050000 		lla	a1,_Z22kernelConsumerFunctionPv
 184      93850500 
 185 00fc 130504FC 		addi	a0,s0,-64
 186 0100 97000000 		call	_Z13thread_createPP3TCBPFvPvES2_@plt
 186      E7800000 
 187              	.LVL13:
  47:src/main.cpp  ****     thread_create(&idleHandle, idle, nullptr);
 188              		.loc 1 47 5 is_stmt 1
 189              		.loc 1 47 18 is_stmt 0
 190 0108 13060000 		li	a2,0
 191 010c 97050000 		lla	a1,_Z4idlePv
 191      93850500 
 192 0114 130584FC 		addi	a0,s0,-56
GAS LISTING /tmp/ccmDFpnF.s 			page 7


 193 0118 97000000 		call	_Z13thread_createPP3TCBPFvPvES2_@plt
 193      E7800000 
 194              	.LVL14:
  48:src/main.cpp  **** 
  49:src/main.cpp  ****     //omogucavanje prekida
  50:src/main.cpp  ****     Riscv::ms_sstatus(Riscv::SSTATUS_SIE);
 195              		.loc 1 50 5 is_stmt 1
 196              	.LBB31:
 197              	.LBB32:
 198              		.file 4 "src/../h/Riscv.hpp"
   1:src/../h/Riscv.hpp **** //
   2:src/../h/Riscv.hpp **** // Created by os on 5/17/23.
   3:src/../h/Riscv.hpp **** //
   4:src/../h/Riscv.hpp **** 
   5:src/../h/Riscv.hpp **** #ifndef PROJEKAT2023_RISCV_HPP
   6:src/../h/Riscv.hpp **** #define PROJEKAT2023_RISCV_HPP
   7:src/../h/Riscv.hpp **** 
   8:src/../h/Riscv.hpp **** #include "../lib/hw.h"
   9:src/../h/Riscv.hpp **** 
  10:src/../h/Riscv.hpp **** class Riscv {
  11:src/../h/Riscv.hpp **** public:
  12:src/../h/Riscv.hpp **** 
  13:src/../h/Riscv.hpp **** 	static void returnFromInterrupt();
  14:src/../h/Riscv.hpp **** 
  15:src/../h/Riscv.hpp **** 	//read scause
  16:src/../h/Riscv.hpp **** 	static uint64 r_scause();
  17:src/../h/Riscv.hpp **** 
  18:src/../h/Riscv.hpp **** 	//write scause
  19:src/../h/Riscv.hpp **** 	static void w_scause(uint64 scause);
  20:src/../h/Riscv.hpp **** 
  21:src/../h/Riscv.hpp **** 	//read sepc
  22:src/../h/Riscv.hpp **** 	static uint64 r_sepc();
  23:src/../h/Riscv.hpp **** 
  24:src/../h/Riscv.hpp **** 	//write sepc
  25:src/../h/Riscv.hpp **** 	static void w_sepc(uint64 sepc);
  26:src/../h/Riscv.hpp **** 
  27:src/../h/Riscv.hpp **** 	//read stvec
  28:src/../h/Riscv.hpp **** 	static uint64 r_stvec();
  29:src/../h/Riscv.hpp **** 
  30:src/../h/Riscv.hpp **** 	//write stvec
  31:src/../h/Riscv.hpp **** 	static void w_stvec(uint64 stvec);
  32:src/../h/Riscv.hpp **** 
  33:src/../h/Riscv.hpp **** 	enum BitMaskSip {
  34:src/../h/Riscv.hpp **** 		//postoji zahtev za softverski prekid
  35:src/../h/Riscv.hpp **** 		SIP_SSIP = (1 << 1),
  36:src/../h/Riscv.hpp **** 		//postoji prekid od tajmera
  37:src/../h/Riscv.hpp **** 		SIP_STIP = (1 << 5),
  38:src/../h/Riscv.hpp **** 		//postoji zahtev za spoljasnji hardverski prekid
  39:src/../h/Riscv.hpp **** 		SIP_SEIP = (1 << 9)
  40:src/../h/Riscv.hpp **** 	};
  41:src/../h/Riscv.hpp **** 
  42:src/../h/Riscv.hpp **** 	//mask set sip
  43:src/../h/Riscv.hpp **** 	static void ms_sip(uint64 mask);
  44:src/../h/Riscv.hpp **** 
  45:src/../h/Riscv.hpp **** 	//mask clear sip
  46:src/../h/Riscv.hpp **** 	static void mc_sip(uint64 mask);
  47:src/../h/Riscv.hpp **** 
GAS LISTING /tmp/ccmDFpnF.s 			page 8


  48:src/../h/Riscv.hpp **** 	//read sip
  49:src/../h/Riscv.hpp **** 	static uint64 r_sip();
  50:src/../h/Riscv.hpp **** 
  51:src/../h/Riscv.hpp **** 	//write sip
  52:src/../h/Riscv.hpp **** 	static void w_sip(uint64 sip);
  53:src/../h/Riscv.hpp **** 
  54:src/../h/Riscv.hpp **** 	//kada se pozove sret, SIE dobija vrednost SPIE, SPIE se postavlja na 1,
  55:src/../h/Riscv.hpp **** 	//rezim se postavlja na osnovu SPP bita, SPP se postavlja na 0
  56:src/../h/Riscv.hpp **** 	enum BitMaskSstatus {
  57:src/../h/Riscv.hpp **** 		//1 - dozvoljeni prekidi; 0- nedozvoljeni prekidi; igonrise se u korisnickom rezimu
  58:src/../h/Riscv.hpp **** 		SSTATUS_SIE = (1 << 1),
  59:src/../h/Riscv.hpp **** 		//prethodna vrednost bita SIE
  60:src/../h/Riscv.hpp **** 		SSTATUS_SPIE = (1 << 5),
  61:src/../h/Riscv.hpp **** 		//iz kog rezima se desio skok; 0 - iz korisnickog; 1 - iz sistemskog
  62:src/../h/Riscv.hpp **** 		SSTATUS_SPP = (1 << 8)
  63:src/../h/Riscv.hpp **** 	};
  64:src/../h/Riscv.hpp **** 
  65:src/../h/Riscv.hpp **** 	//mask set sstatus
  66:src/../h/Riscv.hpp **** 	static void ms_sstatus(uint64 mask);
  67:src/../h/Riscv.hpp **** 
  68:src/../h/Riscv.hpp **** 	//mask clear sstatus
  69:src/../h/Riscv.hpp **** 	static void mc_sstatus(uint64 mask);
  70:src/../h/Riscv.hpp **** 
  71:src/../h/Riscv.hpp **** 	//read sstatus
  72:src/../h/Riscv.hpp **** 	static uint64 r_sstatus();
  73:src/../h/Riscv.hpp **** 
  74:src/../h/Riscv.hpp **** 	//write sstatus
  75:src/../h/Riscv.hpp **** 	static void w_sstatus(uint64 sstatus);
  76:src/../h/Riscv.hpp **** 
  77:src/../h/Riscv.hpp **** 	//upisuje kod sistemskog poziva u registar a0
  78:src/../h/Riscv.hpp **** 	static void loadOpCode(uint64 opCode);
  79:src/../h/Riscv.hpp **** 
  80:src/../h/Riscv.hpp **** };
  81:src/../h/Riscv.hpp **** 
  82:src/../h/Riscv.hpp **** inline uint64 Riscv::r_scause() {
  83:src/../h/Riscv.hpp **** 	uint64 volatile scause;
  84:src/../h/Riscv.hpp **** 	__asm__ volatile("csrr %[scause], scause": [scause] "=r"(scause));
  85:src/../h/Riscv.hpp **** 	return scause;
  86:src/../h/Riscv.hpp **** }
  87:src/../h/Riscv.hpp **** 
  88:src/../h/Riscv.hpp **** inline void Riscv::w_scause(uint64 scause) {
  89:src/../h/Riscv.hpp **** 	__asm__ volatile("csrw scause, %[scause]": :[scause] "r"(scause));
  90:src/../h/Riscv.hpp **** }
  91:src/../h/Riscv.hpp **** 
  92:src/../h/Riscv.hpp **** inline uint64 Riscv::r_sepc() {
  93:src/../h/Riscv.hpp **** 	uint64 volatile sepc;
  94:src/../h/Riscv.hpp **** 	__asm__ volatile("csrr %[sepc], sepc": [sepc] "=r"(sepc));
  95:src/../h/Riscv.hpp **** 	return sepc;
  96:src/../h/Riscv.hpp **** }
  97:src/../h/Riscv.hpp **** 
  98:src/../h/Riscv.hpp **** inline void Riscv::w_sepc(uint64 sepc) {
  99:src/../h/Riscv.hpp **** 	__asm__ volatile("csrw sepc, %[sepc]": :[sepc] "r"(sepc));
 100:src/../h/Riscv.hpp **** }
 101:src/../h/Riscv.hpp **** 
 102:src/../h/Riscv.hpp **** inline uint64 Riscv::r_stvec() {
 103:src/../h/Riscv.hpp **** 	uint64 volatile stvec;
 104:src/../h/Riscv.hpp **** 	__asm__ volatile("csrr %[stvec], stvec": [stvec] "=r"(stvec));
GAS LISTING /tmp/ccmDFpnF.s 			page 9


 105:src/../h/Riscv.hpp **** 	return stvec;
 106:src/../h/Riscv.hpp **** }
 107:src/../h/Riscv.hpp **** 
 108:src/../h/Riscv.hpp **** inline void Riscv::w_stvec(uint64 stvec) {
 109:src/../h/Riscv.hpp **** 	__asm__ volatile("csrw stvec, %[stvec]": :[stvec] "r"(stvec));
 110:src/../h/Riscv.hpp **** }
 111:src/../h/Riscv.hpp **** 
 112:src/../h/Riscv.hpp **** inline void Riscv::ms_sip(uint64 mask) {
 113:src/../h/Riscv.hpp **** 	__asm__ volatile("csrs sip, %[mask]": :[mask] "r"(mask));
 114:src/../h/Riscv.hpp **** }
 115:src/../h/Riscv.hpp **** 
 116:src/../h/Riscv.hpp **** inline void Riscv::mc_sip(uint64 mask) {
 117:src/../h/Riscv.hpp **** 	__asm__ volatile("csrc sip, %[mask]": :[mask] "r"(mask));
 118:src/../h/Riscv.hpp **** }
 119:src/../h/Riscv.hpp **** 
 120:src/../h/Riscv.hpp **** inline uint64 Riscv::r_sip() {
 121:src/../h/Riscv.hpp **** 	uint64 volatile sip;
 122:src/../h/Riscv.hpp **** 	__asm__ volatile("csrr %[sip], sip": [sip] "=r"(sip));
 123:src/../h/Riscv.hpp **** 	return sip;
 124:src/../h/Riscv.hpp **** }
 125:src/../h/Riscv.hpp **** 
 126:src/../h/Riscv.hpp **** inline void Riscv::w_sip(uint64 sip) {
 127:src/../h/Riscv.hpp **** 	__asm__ volatile("csrw sip, %[sip]": :[sip] "r"(sip));
 128:src/../h/Riscv.hpp **** }
 129:src/../h/Riscv.hpp **** 
 130:src/../h/Riscv.hpp **** inline void Riscv::ms_sstatus(uint64 mask) {
 131:src/../h/Riscv.hpp **** 	__asm__ volatile("csrs sstatus, %[mask]": :[mask] "r"(mask));
 199              		.loc 4 131 2
 200              		.loc 4 131 62 is_stmt 0
 201 0120 93042000 		li	s1,2
 202              	#APP
 203              	# 131 "src/../h/Riscv.hpp" 1
 132              	}
 204              		csrs sstatus, s1
 205              	# 0 "" 2
 206              	.LVL15:
 207              	#NO_APP
 208              	.LBE32:
 209              	.LBE31:
  51:src/main.cpp  **** 
  52:src/main.cpp  ****     //cekanje da se userMain zavrsi
  53:src/main.cpp  ****     thread_join(userHandle);
 210              		.loc 1 53 5 is_stmt 1
 211              		.loc 1 53 16 is_stmt 0
 212 0128 033504FD 		ld	a0,-48(s0)
 213 012c 97000000 		call	_Z11thread_joinP3TCB@plt
 213      E7800000 
 214              	.LVL16:
  54:src/main.cpp  **** 
  55:src/main.cpp  ****     //flush output bafera za konzolu
  56:src/main.cpp  ****     KConsole::flush();
 215              		.loc 1 56 5 is_stmt 1
 216              	.LBB33:
 217              	.LBB34:
  31:src/../h/KConsole.hpp ****         __asm__ volatile("ecall");
 218              		.loc 2 31 9
  31:src/../h/KConsole.hpp ****         __asm__ volatile("ecall");
GAS LISTING /tmp/ccmDFpnF.s 			page 10


 219              		.loc 2 31 40 is_stmt 0
 220              	#APP
 221              	# 31 "src/../h/KConsole.hpp" 1
  32:src/../h/KConsole.hpp ****     }
 222              		li a0, 0x43
 223              	# 0 "" 2
 224              		.loc 2 32 9 is_stmt 1
  32:src/../h/KConsole.hpp ****     }
 225              		.loc 2 32 34 is_stmt 0
 226              	# 32 "src/../h/KConsole.hpp" 1
 227              		ecall
 228              	# 0 "" 2
 229              	#NO_APP
 230              	.LBE34:
 231              	.LBE33:
  57:src/main.cpp  **** 
  58:src/main.cpp  ****     //maskiranje svih prekida
  59:src/main.cpp  ****     Riscv::mc_sstatus(Riscv::SSTATUS_SIE);
 232              		.loc 1 59 5 is_stmt 1
 233              	.LVL17:
 234              	.LBB35:
 235              	.LBB36:
 133:src/../h/Riscv.hpp **** 
 134:src/../h/Riscv.hpp **** inline void Riscv::mc_sstatus(uint64 mask) {
 135:src/../h/Riscv.hpp **** 	__asm__ volatile("csrc sstatus, %[mask]": :[mask] "r"(mask));
 236              		.loc 4 135 2
 237              		.loc 4 135 62 is_stmt 0
 238              	#APP
 239              	# 135 "src/../h/Riscv.hpp" 1
 136              	}
 240              		csrc sstatus, s1
 241              	# 0 "" 2
 242              	.LVL18:
 243              	#NO_APP
 244              	.LBE36:
 245              	.LBE35:
  60:src/main.cpp  **** 
  61:src/main.cpp  ****     return 0;
 246              		.loc 1 61 5 is_stmt 1
  62:src/main.cpp  **** }...
 247              		.loc 1 62 1 is_stmt 0
 248 0140 13050000 		li	a0,0
 249 0144 83308103 		ld	ra,56(sp)
 250              		.cfi_restore 1
 251 0148 03340103 		ld	s0,48(sp)
 252              		.cfi_restore 8
 253              		.cfi_def_cfa 2, 64
 254 014c 83348102 		ld	s1,40(sp)
 255              		.cfi_restore 9
 256 0150 13010104 		addi	sp,sp,64
 257              		.cfi_def_cfa_offset 0
 258 0154 67800000 		jr	ra
 259              		.cfi_endproc
 260              	.LFE55:
 262              	.Letext0:
 263              		.file 5 "src/../lib/hw.h"
 264              		.file 6 "src/../h/KMemory.hpp"
GAS LISTING /tmp/ccmDFpnF.s 			page 11


 265              		.file 7 "src/../h/../h/syscall_c.hpp"
 266              		.file 8 "src/../h/../h/ThreadQueue.hpp"
GAS LISTING /tmp/ccmDFpnF.s 			page 12


DEFINED SYMBOLS
                            *ABS*:0000000000000000 main.cpp
     /tmp/ccmDFpnF.s:9      .text:0000000000000000 _Z4idlePv
     /tmp/ccmDFpnF.s:13     .text:0000000000000000 .L0 
     /tmp/ccmDFpnF.s:14     .text:0000000000000000 .L0 
     /tmp/ccmDFpnF.s:15     .text:0000000000000004 .L0 
     /tmp/ccmDFpnF.s:18     .text:000000000000000c .L0 
     /tmp/ccmDFpnF.s:19     .text:000000000000000c .L0 
     /tmp/ccmDFpnF.s:21     .text:0000000000000010 .L0 
     /tmp/ccmDFpnF.s:24     .text:0000000000000010 .L0 
     /tmp/ccmDFpnF.s:25     .text:0000000000000010 .L0 
     /tmp/ccmDFpnF.s:26     .text:0000000000000010 .L0 
     /tmp/ccmDFpnF.s:29     .text:0000000000000018 .L0 
     /tmp/ccmDFpnF.s:30     .text:000000000000001c .L0 
     /tmp/ccmDFpnF.s:36     .text:000000000000001c _Z22kernelConsumerFunctionPv
     /tmp/ccmDFpnF.s:39     .text:000000000000001c .L0 
     /tmp/ccmDFpnF.s:40     .text:000000000000001c .L0 
     /tmp/ccmDFpnF.s:41     .text:0000000000000020 .L0 
     /tmp/ccmDFpnF.s:44     .text:0000000000000028 .L0 
     /tmp/ccmDFpnF.s:45     .text:0000000000000028 .L0 
     /tmp/ccmDFpnF.s:47     .text:000000000000002c .L0 
     /tmp/ccmDFpnF.s:56     .text:0000000000000030 .L0 
     /tmp/ccmDFpnF.s:57     .text:0000000000000030 .L0 
     /tmp/ccmDFpnF.s:60     .text:000000000000003c .L0 
     /tmp/ccmDFpnF.s:67     .text:0000000000000040 .L0 
     /tmp/ccmDFpnF.s:70     .text:0000000000000040 .L0 
     /tmp/ccmDFpnF.s:71     .text:0000000000000040 .L0 
     /tmp/ccmDFpnF.s:79     .text:0000000000000054 .L0 
     /tmp/ccmDFpnF.s:81     .text:0000000000000054 .L0 
     /tmp/ccmDFpnF.s:82     .text:0000000000000054 .L0 
     /tmp/ccmDFpnF.s:83     .text:0000000000000054 .L0 
     /tmp/ccmDFpnF.s:87     .text:000000000000005c .L0 
     /tmp/ccmDFpnF.s:90     .text:000000000000005c .L0 
     /tmp/ccmDFpnF.s:91     .text:000000000000005c .L0 
     /tmp/ccmDFpnF.s:92     .text:000000000000005c .L0 
     /tmp/ccmDFpnF.s:95     .text:0000000000000068 .L0 
     /tmp/ccmDFpnF.s:99     .text:000000000000006c .L0 
     /tmp/ccmDFpnF.s:103    .text:0000000000000078 .L0 
     /tmp/ccmDFpnF.s:109    .text:0000000000000078 main
     /tmp/ccmDFpnF.s:112    .text:0000000000000078 .L0 
     /tmp/ccmDFpnF.s:113    .text:0000000000000078 .L0 
     /tmp/ccmDFpnF.s:114    .text:000000000000007c .L0 
     /tmp/ccmDFpnF.s:118    .text:0000000000000088 .L0 
     /tmp/ccmDFpnF.s:119    .text:0000000000000088 .L0 
     /tmp/ccmDFpnF.s:120    .text:0000000000000088 .L0 
     /tmp/ccmDFpnF.s:122    .text:000000000000008c .L0 
     /tmp/ccmDFpnF.s:124    .text:000000000000008c .L0 
     /tmp/ccmDFpnF.s:125    .text:000000000000008c .L0 
     /tmp/ccmDFpnF.s:131    .text:0000000000000098 .L0 
     /tmp/ccmDFpnF.s:133    .text:0000000000000098 .L0 
     /tmp/ccmDFpnF.s:136    .text:00000000000000a0 .L0 
     /tmp/ccmDFpnF.s:137    .text:00000000000000a0 .L0 
     /tmp/ccmDFpnF.s:140    .text:00000000000000a8 .L0 
     /tmp/ccmDFpnF.s:141    .text:00000000000000a8 .L0 
     /tmp/ccmDFpnF.s:142    .text:00000000000000a8 .L0 
     /tmp/ccmDFpnF.s:143    .text:00000000000000a8 .L0 
     /tmp/ccmDFpnF.s:144    .text:00000000000000a8 .L0 
GAS LISTING /tmp/ccmDFpnF.s 			page 13


     /tmp/ccmDFpnF.s:145    .text:00000000000000a8 .L0 
     /tmp/ccmDFpnF.s:151    .text:00000000000000c0 .L0 
     /tmp/ccmDFpnF.s:152    .text:00000000000000c0 .L0 
     /tmp/ccmDFpnF.s:158    .text:00000000000000c4 .L0 
     /tmp/ccmDFpnF.s:159    .text:00000000000000c4 .L0 
     /tmp/ccmDFpnF.s:167    .text:00000000000000d0 .L0 
     /tmp/ccmDFpnF.s:168    .text:00000000000000d0 .L0 
     /tmp/ccmDFpnF.s:169    .text:00000000000000d0 .L0 
     /tmp/ccmDFpnF.s:175    .text:00000000000000d8 .L0 
     /tmp/ccmDFpnF.s:176    .text:00000000000000d8 .L0 
     /tmp/ccmDFpnF.s:182    .text:00000000000000f0 .L0 
     /tmp/ccmDFpnF.s:183    .text:00000000000000f0 .L0 
     /tmp/ccmDFpnF.s:189    .text:0000000000000108 .L0 
     /tmp/ccmDFpnF.s:190    .text:0000000000000108 .L0 
     /tmp/ccmDFpnF.s:199    .text:0000000000000120 .L0 
     /tmp/ccmDFpnF.s:200    .text:0000000000000120 .L0 
     /tmp/ccmDFpnF.s:201    .text:0000000000000120 .L0 
     /tmp/ccmDFpnF.s:211    .text:0000000000000128 .L0 
     /tmp/ccmDFpnF.s:212    .text:0000000000000128 .L0 
     /tmp/ccmDFpnF.s:218    .text:0000000000000134 .L0 
     /tmp/ccmDFpnF.s:219    .text:0000000000000134 .L0 
src/../h/KConsole.hpp:31     .text:0000000000000134 .L0 
     /tmp/ccmDFpnF.s:225    .text:0000000000000138 .L0 
src/../h/KConsole.hpp:32     .text:0000000000000138 .L0 
     /tmp/ccmDFpnF.s:236    .text:000000000000013c .L0 
     /tmp/ccmDFpnF.s:237    .text:000000000000013c .L0 
  src/../h/Riscv.hpp:135    .text:000000000000013c .L0 
     /tmp/ccmDFpnF.s:247    .text:0000000000000140 .L0 
     /tmp/ccmDFpnF.s:248    .text:0000000000000140 .L0 
     /tmp/ccmDFpnF.s:250    .text:0000000000000148 .L0 
     /tmp/ccmDFpnF.s:252    .text:000000000000014c .L0 
     /tmp/ccmDFpnF.s:253    .text:000000000000014c .L0 
     /tmp/ccmDFpnF.s:255    .text:0000000000000150 .L0 
     /tmp/ccmDFpnF.s:257    .text:0000000000000154 .L0 
     /tmp/ccmDFpnF.s:259    .text:0000000000000158 .L0 
     /tmp/ccmDFpnF.s:267    .text:0000000000000158 .L0 
     /tmp/ccmDFpnF.s:57     .text:0000000000000030 .L0 
     /tmp/ccmDFpnF.s:71     .text:0000000000000040 .L0 
     /tmp/ccmDFpnF.s:92     .text:000000000000005c .L0 
     /tmp/ccmDFpnF.s:125    .text:000000000000008c .L0 
     /tmp/ccmDFpnF.s:146    .text:00000000000000ac .L0 
     /tmp/ccmDFpnF.s:159    .text:00000000000000c4 .L0 
     /tmp/ccmDFpnF.s:177    .text:00000000000000dc .L0 
     /tmp/ccmDFpnF.s:184    .text:00000000000000f4 .L0 
     /tmp/ccmDFpnF.s:191    .text:000000000000010c .L0 
     /tmp/ccmDFpnF.s:22     .text:0000000000000010 .L2
     /tmp/ccmDFpnF.s:78     .text:0000000000000054 .L6
     /tmp/ccmDFpnF.s:85     .text:000000000000005c .L5
     /tmp/ccmDFpnF.s:50     .text:0000000000000030 .L8
     /tmp/ccmDFpnF.s:1890   .debug_abbrev:0000000000000000 .Ldebug_abbrev0
     /tmp/ccmDFpnF.s:3358   .debug_str:0000000000000aab .LASF206
     /tmp/ccmDFpnF.s:3118   .debug_str:000000000000036f .LASF207
     /tmp/ccmDFpnF.s:3316   .debug_str:000000000000097f .LASF208
     /tmp/ccmDFpnF.s:5      .text:0000000000000000 .Ltext0
     /tmp/ccmDFpnF.s:262    .text:0000000000000158 .Letext0
     /tmp/ccmDFpnF.s:3004   .debug_line:0000000000000000 .Ldebug_line0
     /tmp/ccmDFpnF.s:3158   .debug_str:0000000000000499 .LASF0
GAS LISTING /tmp/ccmDFpnF.s 			page 14


     /tmp/ccmDFpnF.s:3184   .debug_str:0000000000000544 .LASF1
     /tmp/ccmDFpnF.s:3296   .debug_str:00000000000008e2 .LASF2
     /tmp/ccmDFpnF.s:3102   .debug_str:00000000000002dc .LASF3
     /tmp/ccmDFpnF.s:3310   .debug_str:000000000000095e .LASF4
     /tmp/ccmDFpnF.s:3170   .debug_str:00000000000004e1 .LASF5
     /tmp/ccmDFpnF.s:3022   .debug_str:0000000000000085 .LASF6
     /tmp/ccmDFpnF.s:3260   .debug_str:00000000000007c6 .LASF7
     /tmp/ccmDFpnF.s:3252   .debug_str:0000000000000780 .LASF8
     /tmp/ccmDFpnF.s:3174   .debug_str:0000000000000505 .LASF9
     /tmp/ccmDFpnF.s:3130   .debug_str:00000000000003b8 .LASF10
     /tmp/ccmDFpnF.s:3144   .debug_str:0000000000000425 .LASF11
     /tmp/ccmDFpnF.s:3052   .debug_str:000000000000015a .LASF12
     /tmp/ccmDFpnF.s:3116   .debug_str:0000000000000360 .LASF13
     /tmp/ccmDFpnF.s:3068   .debug_str:00000000000001b7 .LASF14
     /tmp/ccmDFpnF.s:3050   .debug_str:000000000000014a .LASF15
     /tmp/ccmDFpnF.s:3336   .debug_str:0000000000000a22 .LASF16
     /tmp/ccmDFpnF.s:3098   .debug_str:00000000000002a8 .LASF17
     /tmp/ccmDFpnF.s:3328   .debug_str:00000000000009f3 .LASF18
     /tmp/ccmDFpnF.s:3408   .debug_str:0000000000000cb6 .LASF50
     /tmp/ccmDFpnF.s:3392   .debug_str:0000000000000c62 .LASF71
     /tmp/ccmDFpnF.s:3108   .debug_str:0000000000000306 .LASF19
     /tmp/ccmDFpnF.s:3356   .debug_str:0000000000000a9e .LASF20
     /tmp/ccmDFpnF.s:3080   .debug_str:0000000000000237 .LASF21
     /tmp/ccmDFpnF.s:3210   .debug_str:0000000000000604 .LASF52
     /tmp/ccmDFpnF.s:3382   .debug_str:0000000000000c17 .LASF54
     /tmp/ccmDFpnF.s:3380   .debug_str:0000000000000c0e .LASF22
     /tmp/ccmDFpnF.s:3372   .debug_str:0000000000000bbd .LASF24
     /tmp/ccmDFpnF.s:3292   .debug_str:00000000000008ce .LASF26
     /tmp/ccmDFpnF.s:3238   .debug_str:00000000000006f4 .LASF28
     /tmp/ccmDFpnF.s:3268   .debug_str:00000000000007fd .LASF23
     /tmp/ccmDFpnF.s:3276   .debug_str:0000000000000836 .LASF25
     /tmp/ccmDFpnF.s:3224   .debug_str:000000000000068a .LASF27
     /tmp/ccmDFpnF.s:3176   .debug_str:0000000000000518 .LASF29
     /tmp/ccmDFpnF.s:3420   .debug_str:0000000000000d1d .LASF30
     /tmp/ccmDFpnF.s:3360   .debug_str:0000000000000b6f .LASF31
     /tmp/ccmDFpnF.s:3222   .debug_str:0000000000000682 .LASF32
     /tmp/ccmDFpnF.s:3236   .debug_str:00000000000006e0 .LASF33
     /tmp/ccmDFpnF.s:3332   .debug_str:0000000000000a0e .LASF34
     /tmp/ccmDFpnF.s:3312   .debug_str:0000000000000965 .LASF35
     /tmp/ccmDFpnF.s:3314   .debug_str:0000000000000978 .LASF36
     /tmp/ccmDFpnF.s:3060   .debug_str:0000000000000186 .LASF37
     /tmp/ccmDFpnF.s:3096   .debug_str:00000000000002a2 .LASF38
     /tmp/ccmDFpnF.s:3152   .debug_str:0000000000000470 .LASF39
     /tmp/ccmDFpnF.s:3164   .debug_str:00000000000004c5 .LASF40
     /tmp/ccmDFpnF.s:3084   .debug_str:000000000000024a .LASF41
     /tmp/ccmDFpnF.s:3024   .debug_str:000000000000008c .LASF42
     /tmp/ccmDFpnF.s:3300   .debug_str:00000000000008fa .LASF43
     /tmp/ccmDFpnF.s:3294   .debug_str:00000000000008d7 .LASF44
     /tmp/ccmDFpnF.s:3430   .debug_str:0000000000000d5d .LASF45
     /tmp/ccmDFpnF.s:3410   .debug_str:0000000000000cbc .LASF46
     /tmp/ccmDFpnF.s:3422   .debug_str:0000000000000d25 .LASF47
     /tmp/ccmDFpnF.s:3404   .debug_str:0000000000000c96 .LASF48
     /tmp/ccmDFpnF.s:3208   .debug_str:00000000000005ee .LASF49
     /tmp/ccmDFpnF.s:3366   .debug_str:0000000000000b92 .LASF65
     /tmp/ccmDFpnF.s:3074   .debug_str:00000000000001f7 .LASF67
     /tmp/ccmDFpnF.s:3106   .debug_str:00000000000002fe .LASF51
     /tmp/ccmDFpnF.s:3046   .debug_str:000000000000012a .LASF53
GAS LISTING /tmp/ccmDFpnF.s 			page 15


     /tmp/ccmDFpnF.s:3270   .debug_str:0000000000000804 .LASF55
     /tmp/ccmDFpnF.s:3120   .debug_str:000000000000037c .LASF56
     /tmp/ccmDFpnF.s:3134   .debug_str:00000000000003ce .LASF58
     /tmp/ccmDFpnF.s:3124   .debug_str:0000000000000389 .LASF57
     /tmp/ccmDFpnF.s:3162   .debug_str:00000000000004b0 .LASF59
     /tmp/ccmDFpnF.s:3156   .debug_str:000000000000048d .LASF60
     /tmp/ccmDFpnF.s:3206   .debug_str:00000000000005e2 .LASF61
     /tmp/ccmDFpnF.s:3302   .debug_str:0000000000000912 .LASF62
     /tmp/ccmDFpnF.s:3274   .debug_str:000000000000082c .LASF63
     /tmp/ccmDFpnF.s:3256   .debug_str:0000000000000799 .LASF64
     /tmp/ccmDFpnF.s:3246   .debug_str:000000000000074e .LASF66
     /tmp/ccmDFpnF.s:3026   .debug_str:0000000000000097 .LASF68
     /tmp/ccmDFpnF.s:3200   .debug_str:00000000000005b4 .LASF69
     /tmp/ccmDFpnF.s:3402   .debug_str:0000000000000c8d .LASF70
     /tmp/ccmDFpnF.s:3322   .debug_str:00000000000009b3 .LASF72
     /tmp/ccmDFpnF.s:3266   .debug_str:00000000000007f5 .LASF73
     /tmp/ccmDFpnF.s:3082   .debug_str:0000000000000243 .LASF74
     /tmp/ccmDFpnF.s:3010   .debug_str:0000000000000026 .LASF75
     /tmp/ccmDFpnF.s:3136   .debug_str:00000000000003e4 .LASF76
     /tmp/ccmDFpnF.s:3180   .debug_str:0000000000000530 .LASF77
     /tmp/ccmDFpnF.s:3042   .debug_str:000000000000010c .LASF78
     /tmp/ccmDFpnF.s:3342   .debug_str:0000000000000a46 .LASF163
     /tmp/ccmDFpnF.s:3056   .debug_str:000000000000016e .LASF79
     /tmp/ccmDFpnF.s:3146   .debug_str:0000000000000433 .LASF80
     /tmp/ccmDFpnF.s:3282   .debug_str:0000000000000872 .LASF85
     /tmp/ccmDFpnF.s:3198   .debug_str:00000000000005a0 .LASF87
     /tmp/ccmDFpnF.s:3334   .debug_str:0000000000000a15 .LASF81
     /tmp/ccmDFpnF.s:3416   .debug_str:0000000000000cf6 .LASF82
     /tmp/ccmDFpnF.s:3244   .debug_str:0000000000000749 .LASF209
     /tmp/ccmDFpnF.s:3426   .debug_str:0000000000000d51 .LASF83
     /tmp/ccmDFpnF.s:3172   .debug_str:00000000000004f3 .LASF84
     /tmp/ccmDFpnF.s:3190   .debug_str:000000000000056a .LASF86
     /tmp/ccmDFpnF.s:3280   .debug_str:000000000000085a .LASF88
     /tmp/ccmDFpnF.s:3088   .debug_str:0000000000000274 .LASF89
     /tmp/ccmDFpnF.s:3306   .debug_str:0000000000000938 .LASF90
     /tmp/ccmDFpnF.s:3272   .debug_str:0000000000000824 .LASF91
     /tmp/ccmDFpnF.s:3202   .debug_str:00000000000005b9 .LASF92
     /tmp/ccmDFpnF.s:3092   .debug_str:000000000000028a .LASF93
     /tmp/ccmDFpnF.s:3326   .debug_str:00000000000009dd .LASF94
     /tmp/ccmDFpnF.s:3014   .debug_str:0000000000000037 .LASF95
     /tmp/ccmDFpnF.s:3350   .debug_str:0000000000000a6d .LASF96
     /tmp/ccmDFpnF.s:3378   .debug_str:0000000000000bfa .LASF97
     /tmp/ccmDFpnF.s:3240   .debug_str:0000000000000709 .LASF98
     /tmp/ccmDFpnF.s:3376   .debug_str:0000000000000bef .LASF99
     /tmp/ccmDFpnF.s:3086   .debug_str:000000000000025c .LASF100
     /tmp/ccmDFpnF.s:3434   .debug_str:0000000000000d82 .LASF101
     /tmp/ccmDFpnF.s:3112   .debug_str:000000000000031f .LASF102
     /tmp/ccmDFpnF.s:3090   .debug_str:0000000000000281 .LASF103
     /tmp/ccmDFpnF.s:3064   .debug_str:000000000000019f .LASF104
     /tmp/ccmDFpnF.s:3192   .debug_str:0000000000000577 .LASF105
     /tmp/ccmDFpnF.s:3028   .debug_str:00000000000000ad .LASF106
     /tmp/ccmDFpnF.s:3432   .debug_str:0000000000000d75 .LASF107
     /tmp/ccmDFpnF.s:3140   .debug_str:0000000000000404 .LASF108
     /tmp/ccmDFpnF.s:3016   .debug_str:0000000000000042 .LASF109
     /tmp/ccmDFpnF.s:3234   .debug_str:00000000000006d3 .LASF110
     /tmp/ccmDFpnF.s:3424   .debug_str:0000000000000d3b .LASF210
     /tmp/ccmDFpnF.s:3370   .debug_str:0000000000000bb5 .LASF111
GAS LISTING /tmp/ccmDFpnF.s 			page 16


     /tmp/ccmDFpnF.s:3048   .debug_str:000000000000013b .LASF112
     /tmp/ccmDFpnF.s:3428   .debug_str:0000000000000d57 .LASF113
     /tmp/ccmDFpnF.s:3384   .debug_str:0000000000000c38 .LASF114
     /tmp/ccmDFpnF.s:3362   .debug_str:0000000000000b83 .LASF115
     /tmp/ccmDFpnF.s:3290   .debug_str:00000000000008be .LASF116
     /tmp/ccmDFpnF.s:3248   .debug_str:0000000000000756 .LASF117
     /tmp/ccmDFpnF.s:3110   .debug_str:0000000000000312 .LASF118
     /tmp/ccmDFpnF.s:3308   .debug_str:0000000000000950 .LASF119
     /tmp/ccmDFpnF.s:3398   .debug_str:0000000000000c81 .LASF120
     /tmp/ccmDFpnF.s:3354   .debug_str:0000000000000a96 .LASF121
     /tmp/ccmDFpnF.s:3278   .debug_str:0000000000000849 .LASF122
     /tmp/ccmDFpnF.s:3076   .debug_str:000000000000020f .LASF169
     /tmp/ccmDFpnF.s:3018   .debug_str:0000000000000052 .LASF170
     /tmp/ccmDFpnF.s:3132   .debug_str:00000000000003c8 .LASF123
     /tmp/ccmDFpnF.s:3330   .debug_str:0000000000000a09 .LASF211
     /tmp/ccmDFpnF.s:3196   .debug_str:0000000000000597 .LASF124
     /tmp/ccmDFpnF.s:3338   .debug_str:0000000000000a2e .LASF125
     /tmp/ccmDFpnF.s:3374   .debug_str:0000000000000bd2 .LASF126
     /tmp/ccmDFpnF.s:3318   .debug_str:000000000000099d .LASF127
     /tmp/ccmDFpnF.s:3230   .debug_str:00000000000006a9 .LASF128
     /tmp/ccmDFpnF.s:3254   .debug_str:0000000000000793 .LASF129
     /tmp/ccmDFpnF.s:3220   .debug_str:000000000000066d .LASF130
     /tmp/ccmDFpnF.s:3168   .debug_str:00000000000004d3 .LASF131
     /tmp/ccmDFpnF.s:3250   .debug_str:0000000000000762 .LASF132
     /tmp/ccmDFpnF.s:3150   .debug_str:0000000000000463 .LASF133
     /tmp/ccmDFpnF.s:3288   .debug_str:00000000000008a1 .LASF134
     /tmp/ccmDFpnF.s:3062   .debug_str:0000000000000199 .LASF135
     /tmp/ccmDFpnF.s:3044   .debug_str:0000000000000115 .LASF136
     /tmp/ccmDFpnF.s:3020   .debug_str:000000000000007a .LASF137
     /tmp/ccmDFpnF.s:3412   .debug_str:0000000000000cc6 .LASF138
     /tmp/ccmDFpnF.s:3008   .debug_str:000000000000001b .LASF139
     /tmp/ccmDFpnF.s:3128   .debug_str:000000000000039d .LASF140
     /tmp/ccmDFpnF.s:3340   .debug_str:0000000000000a3b .LASF141
     /tmp/ccmDFpnF.s:3006   .debug_str:0000000000000000 .LASF142
     /tmp/ccmDFpnF.s:3194   .debug_str:000000000000057f .LASF143
     /tmp/ccmDFpnF.s:3114   .debug_str:0000000000000338 .LASF144
     /tmp/ccmDFpnF.s:3304   .debug_str:000000000000092a .LASF145
     /tmp/ccmDFpnF.s:3258   .debug_str:00000000000007a8 .LASF146
     /tmp/ccmDFpnF.s:3058   .debug_str:0000000000000178 .LASF147
     /tmp/ccmDFpnF.s:3262   .debug_str:00000000000007cd .LASF148
     /tmp/ccmDFpnF.s:3352   .debug_str:0000000000000a85 .LASF149
     /tmp/ccmDFpnF.s:3034   .debug_str:00000000000000da .LASF150
     /tmp/ccmDFpnF.s:3142   .debug_str:0000000000000410 .LASF151
     /tmp/ccmDFpnF.s:3346   .debug_str:0000000000000a5b .LASF152
     /tmp/ccmDFpnF.s:3126   .debug_str:000000000000038f .LASF153
     /tmp/ccmDFpnF.s:3012   .debug_str:000000000000002e .LASF212
     /tmp/ccmDFpnF.s:3386   .debug_str:0000000000000c3d .LASF154
     /tmp/ccmDFpnF.s:3094   .debug_str:0000000000000295 .LASF155
     /tmp/ccmDFpnF.s:3160   .debug_str:00000000000004a6 .LASF156
     /tmp/ccmDFpnF.s:3264   .debug_str:00000000000007eb .LASF157
     /tmp/ccmDFpnF.s:3186   .debug_str:0000000000000557 .LASF158
     /tmp/ccmDFpnF.s:3390   .debug_str:0000000000000c57 .LASF159
     /tmp/ccmDFpnF.s:3320   .debug_str:00000000000009a3 .LASF160
     /tmp/ccmDFpnF.s:3348   .debug_str:0000000000000a68 .LASF161
     /tmp/ccmDFpnF.s:3226   .debug_str:0000000000000691 .LASF162
     /tmp/ccmDFpnF.s:3400   .debug_str:0000000000000c88 .LASF164
     /tmp/ccmDFpnF.s:3178   .debug_str:000000000000052b .LASF165
GAS LISTING /tmp/ccmDFpnF.s 			page 17


     /tmp/ccmDFpnF.s:3054   .debug_str:0000000000000169 .LASF166
     /tmp/ccmDFpnF.s:3100   .debug_str:00000000000002be .LASF167
     /tmp/ccmDFpnF.s:3078   .debug_str:000000000000021d .LASF168
     /tmp/ccmDFpnF.s:3070   .debug_str:00000000000001c7 .LASF171
     /tmp/ccmDFpnF.s:3032   .debug_str:00000000000000d4 .LASF172
     /tmp/ccmDFpnF.s:3216   .debug_str:0000000000000649 .LASF173
     /tmp/ccmDFpnF.s:3030   .debug_str:00000000000000bf .LASF174
     /tmp/ccmDFpnF.s:3138   .debug_str:00000000000003ec .LASF175
     /tmp/ccmDFpnF.s:3298   .debug_str:00000000000008f0 .LASF213
     /tmp/ccmDFpnF.s:3368   .debug_str:0000000000000b9d .LASF214
     /tmp/ccmDFpnF.s:3344   .debug_str:0000000000000a4e .LASF176
     /tmp/ccmDFpnF.s:3414   .debug_str:0000000000000ce1 .LASF177
     /tmp/ccmDFpnF.s:3166   .debug_str:00000000000004cb .LASF178
     /tmp/ccmDFpnF.s:3104   .debug_str:00000000000002e2 .LASF179
     /tmp/ccmDFpnF.s:3188   .debug_str:0000000000000562 .LASF180
     /tmp/ccmDFpnF.s:3218   .debug_str:000000000000064e .LASF181
     /tmp/ccmDFpnF.s:3040   .debug_str:0000000000000103 .LASF182
     /tmp/ccmDFpnF.s:3214   .debug_str:000000000000062d .LASF183
     /tmp/ccmDFpnF.s:3072   .debug_str:00000000000001e2 .LASF184
     /tmp/ccmDFpnF.s:3406   .debug_str:0000000000000ca0 .LASF185
     /tmp/ccmDFpnF.s:3364   .debug_str:0000000000000b8d .LASF186
     /tmp/ccmDFpnF.s:110    .text:0000000000000078 .LFB55
     /tmp/ccmDFpnF.s:260    .text:0000000000000158 .LFE55
     /tmp/ccmDFpnF.s:3154   .debug_str:0000000000000482 .LASF187
     /tmp/ccmDFpnF.s:3394   .debug_str:0000000000000c71 .LASF188
     /tmp/ccmDFpnF.s:3036   .debug_str:00000000000000ee .LASF189
     /tmp/ccmDFpnF.s:3436   .debug_str:0000000000000d90 .LASF190
     /tmp/ccmDFpnF.s:154    .text:00000000000000c4 .LBB27
     /tmp/ccmDFpnF.s:163    .text:00000000000000d0 .LBE27
     /tmp/ccmDFpnF.s:2927   .debug_loc:0000000000000000 .LLST2
     /tmp/ccmDFpnF.s:165    .text:00000000000000d0 .LBB29
     /tmp/ccmDFpnF.s:173    .text:00000000000000d8 .LBE29
     /tmp/ccmDFpnF.s:2934   .debug_loc:0000000000000023 .LLST3
     /tmp/ccmDFpnF.s:2942   .debug_loc:0000000000000047 .LLST4
     /tmp/ccmDFpnF.s:196    .text:0000000000000120 .LBB31
     /tmp/ccmDFpnF.s:209    .text:0000000000000128 .LBE31
     /tmp/ccmDFpnF.s:2949   .debug_loc:000000000000006a .LLST5
     /tmp/ccmDFpnF.s:216    .text:0000000000000134 .LBB33
     /tmp/ccmDFpnF.s:231    .text:000000000000013c .LBE33
     /tmp/ccmDFpnF.s:234    .text:000000000000013c .LBB35
     /tmp/ccmDFpnF.s:245    .text:0000000000000140 .LBE35
     /tmp/ccmDFpnF.s:2957   .debug_loc:000000000000008e .LLST6
     /tmp/ccmDFpnF.s:134    .text:00000000000000a0 .LVL6
     /tmp/ccmDFpnF.s:138    .text:00000000000000a8 .LVL7
     /tmp/ccmDFpnF.s:149    .text:00000000000000c0 .LVL8
     /tmp/ccmDFpnF.s:180    .text:00000000000000f0 .LVL12
     /tmp/ccmDFpnF.s:187    .text:0000000000000108 .LVL13
     /tmp/ccmDFpnF.s:194    .text:0000000000000120 .LVL14
     /tmp/ccmDFpnF.s:214    .text:0000000000000134 .LVL16
     /tmp/ccmDFpnF.s:3204   .debug_str:00000000000005cb .LASF191
     /tmp/ccmDFpnF.s:3324   .debug_str:00000000000009c0 .LASF192
     /tmp/ccmDFpnF.s:37     .text:000000000000001c .LFB54
     /tmp/ccmDFpnF.s:104    .text:0000000000000078 .LFE54
     /tmp/ccmDFpnF.s:2996   .debug_ranges:0000000000000000 .Ldebug_ranges0
     /tmp/ccmDFpnF.s:2965   .debug_loc:00000000000000b2 .LLST0
     /tmp/ccmDFpnF.s:53     .text:0000000000000030 .LBB20
     /tmp/ccmDFpnF.s:63     .text:0000000000000040 .LBE20
GAS LISTING /tmp/ccmDFpnF.s 			page 18


     /tmp/ccmDFpnF.s:2976   .debug_loc:00000000000000e8 .LLST1
     /tmp/ccmDFpnF.s:65     .text:0000000000000040 .LBB22
     /tmp/ccmDFpnF.s:69     .text:0000000000000040 .LBE22
     /tmp/ccmDFpnF.s:88     .text:000000000000005c .LBB24
     /tmp/ccmDFpnF.s:97     .text:000000000000006c .LBE24
     /tmp/ccmDFpnF.s:75     .text:0000000000000054 .LVL4
     /tmp/ccmDFpnF.s:84     .text:000000000000005c .LVL5
     /tmp/ccmDFpnF.s:3418   .debug_str:0000000000000d18 .LASF193
     /tmp/ccmDFpnF.s:3038   .debug_str:00000000000000f9 .LASF194
     /tmp/ccmDFpnF.s:10     .text:0000000000000000 .LFB53
     /tmp/ccmDFpnF.s:31     .text:000000000000001c .LFE53
     /tmp/ccmDFpnF.s:27     .text:0000000000000018 .LVL0
     /tmp/ccmDFpnF.s:3182   .debug_str:0000000000000539 .LASF195
     /tmp/ccmDFpnF.s:3122   .debug_str:0000000000000384 .LASF215
     /tmp/ccmDFpnF.s:3066   .debug_str:00000000000001b2 .LASF196
     /tmp/ccmDFpnF.s:3396   .debug_str:0000000000000c7c .LASF197
     /tmp/ccmDFpnF.s:3242   .debug_str:0000000000000728 .LASF198
     /tmp/ccmDFpnF.s:3388   .debug_str:0000000000000c49 .LASF200
     /tmp/ccmDFpnF.s:3232   .debug_str:00000000000006be .LASF199
     /tmp/ccmDFpnF.s:3228   .debug_str:000000000000069d .LASF201
     /tmp/ccmDFpnF.s:3286   .debug_str:000000000000088c .LASF202
     /tmp/ccmDFpnF.s:3148   .debug_str:0000000000000458 .LASF203
     /tmp/ccmDFpnF.s:3212   .debug_str:0000000000000618 .LASF204
     /tmp/ccmDFpnF.s:3284   .debug_str:000000000000087c .LASF205
     /tmp/ccmDFpnF.s:153    .text:00000000000000c4 .LVL9
     /tmp/ccmDFpnF.s:161    .text:00000000000000d0 .LVL10
     /tmp/ccmDFpnF.s:171    .text:00000000000000d8 .LVL11
     /tmp/ccmDFpnF.s:206    .text:0000000000000128 .LVL15
     /tmp/ccmDFpnF.s:233    .text:000000000000013c .LVL17
     /tmp/ccmDFpnF.s:242    .text:0000000000000140 .LVL18
     /tmp/ccmDFpnF.s:49     .text:0000000000000030 .LVL1
     /tmp/ccmDFpnF.s:73     .text:000000000000004c .LVL3
     /tmp/ccmDFpnF.s:61     .text:0000000000000040 .LVL2
     /tmp/ccmDFpnF.s:268    .debug_info:0000000000000000 .Ldebug_info0
     /tmp/ccmDFpnF.s:51     .text:0000000000000030 .LBB19
     /tmp/ccmDFpnF.s:76     .text:0000000000000054 .LBE19
     /tmp/ccmDFpnF.s:80     .text:0000000000000054 .LBB26
     /tmp/ccmDFpnF.s:102    .text:0000000000000078 .LBE26

UNDEFINED SYMBOLS
_Z15thread_dispatchv
_ZN8KConsole2drE
_ZN8KConsole20outputBufferHasSpaceE
_Z10sem_signalP4KSem
_ZN8KConsole13getFromOutputEv
_ZN8KConsole2srE
interruptHandler
_ZN7KMemory16initializeMemoryEv
_ZN8KConsole12initKConsoleEv
_Z13thread_createPP3TCBPFvPvES2_
_ZN3TCB7runningE
_Z8userMainv
_Z11thread_joinP3TCB
