GAS LISTING /tmp/ccyBlhzN.s 			page 1


   1              		.file	"main.cpp"
   2              		.option pic
   3              		.option norelax
   4              		.text
   5              	.Ltext0:
   6              		.align	2
   7              		.globl	_Z4idlePv
   9              	_Z4idlePv:
  10              	.LFB46:
  11              		.file 1 "src/main.cpp"
   1:src/main.cpp  **** #include "../lib/hw.h"
   2:src/main.cpp  **** #include "../h/helper.hpp"
   3:src/main.cpp  **** #include "../h/Riscv.hpp"
   4:src/main.cpp  **** #include "../h/syscall_c.hpp"
   5:src/main.cpp  **** #include "../h/syscall_cpp.hpp"
   6:src/main.cpp  **** //#include "../h/MemoryAllocator.hpp"
   7:src/main.cpp  **** #include "../h/TCB.hpp"
   8:src/main.cpp  **** #include "../h/ThreadQueue.hpp"
   9:src/main.cpp  **** //#include "../h/KSem.hpp"
  10:src/main.cpp  **** #include "../h/KConsole.hpp"
  11:src/main.cpp  **** 
  12:src/main.cpp  **** #include "../test/printing.hpp"
  13:src/main.cpp  **** #include "../h/KMemory.hpp"
  14:src/main.cpp  **** 
  15:src/main.cpp  **** 
  16:src/main.cpp  **** extern "C" void interruptHandler();
  17:src/main.cpp  **** 
  18:src/main.cpp  **** void userMain();
  19:src/main.cpp  **** 
  20:src/main.cpp  **** void idle(void*) {
  12              		.loc 1 20 18
  13              		.cfi_startproc
  14 0000 130101FF 		addi	sp,sp,-16
  15              		.cfi_def_cfa_offset 16
  16 0004 23341100 		sd	ra,8(sp)
  17 0008 23308100 		sd	s0,0(sp)
  18              		.cfi_offset 1, -8
  19              		.cfi_offset 8, -16
  20 000c 13040101 		addi	s0,sp,16
  21              		.cfi_def_cfa 8, 0
  22              	.L2:
  21:src/main.cpp  ****     while (1) { thread_dispatch(); }
  23              		.loc 1 21 5 discriminator 1
  24              		.loc 1 21 17 discriminator 1
  25              		.loc 1 21 32 is_stmt 0 discriminator 1
  26 0010 97000000 		call	_Z15thread_dispatchv@plt
  26      E7800000 
  27              	.LVL0:
  28              		.loc 1 21 5 is_stmt 1 discriminator 1
  29 0018 6FF09FFF 		j	.L2
  30              		.cfi_endproc
  31              	.LFE46:
  33              		.align	2
  34              		.globl	_Z22kernelConsumerFunctionPv
  36              	_Z22kernelConsumerFunctionPv:
  37              	.LFB47:
  22:src/main.cpp  **** }
GAS LISTING /tmp/ccyBlhzN.s 			page 2


  23:src/main.cpp  **** 
  24:src/main.cpp  **** void kernelConsumerFunction(void*) {
  38              		.loc 1 24 36
  39              		.cfi_startproc
  40 001c 130101FF 		addi	sp,sp,-16
  41              		.cfi_def_cfa_offset 16
  42 0020 23341100 		sd	ra,8(sp)
  43 0024 23308100 		sd	s0,0(sp)
  44              		.cfi_offset 1, -8
  45              		.cfi_offset 8, -16
  46 0028 13040101 		addi	s0,sp,16
  47              		.cfi_def_cfa 8, 0
  48 002c 6F008002 		j	.L6
  49              	.LVL1:
  50              	.L8:
  51              	.LBB8:
  25:src/main.cpp  ****     while (1) {
  26:src/main.cpp  ****         char c = KConsole::getFromOutput();
  27:src/main.cpp  ****         while (!(*KConsole::sr & CONSOLE_TX_STATUS_BIT)) {}
  28:src/main.cpp  ****         *KConsole::dr = c;
  52              		.loc 1 28 9
  53 0030 97070000 		la	a5,_ZN8KConsole2drE
  53      83B70700 
  54 0038 83B70700 		ld	a5,0(a5)
  55              		.loc 1 28 23 is_stmt 0
  56 003c 2380A700 		sb	a0,0(a5)
  29:src/main.cpp  ****         sem_signal(KConsole::outputBufferHasSpace);
  57              		.loc 1 29 9 is_stmt 1
  58              		.loc 1 29 19 is_stmt 0
  59 0040 97070000 		la	a5,_ZN8KConsole20outputBufferHasSpaceE
  59      83B70700 
  60 0048 03B50700 		ld	a0,0(a5)
  61              	.LVL2:
  62 004c 97000000 		call	_Z10sem_signalP4KSem@plt
  62      E7800000 
  63              	.LVL3:
  64              	.LBE8:
  25:src/main.cpp  ****     while (1) {
  65              		.loc 1 25 5 is_stmt 1
  66              	.L6:
  25:src/main.cpp  ****     while (1) {
  67              		.loc 1 25 5
  68              	.LBB9:
  26:src/main.cpp  ****         while (!(*KConsole::sr & CONSOLE_TX_STATUS_BIT)) {}
  69              		.loc 1 26 9
  26:src/main.cpp  ****         while (!(*KConsole::sr & CONSOLE_TX_STATUS_BIT)) {}
  70              		.loc 1 26 41 is_stmt 0
  71 0054 97000000 		call	_ZN8KConsole13getFromOutputEv@plt
  71      E7800000 
  72              	.LVL4:
  73              	.L5:
  27:src/main.cpp  ****         *KConsole::dr = c;
  74              		.loc 1 27 9 is_stmt 1
  27:src/main.cpp  ****         *KConsole::dr = c;
  75              		.loc 1 27 16
  27:src/main.cpp  ****         *KConsole::dr = c;
  76              		.loc 1 27 18 is_stmt 0
GAS LISTING /tmp/ccyBlhzN.s 			page 3


  77 005c 97070000 		la	a5,_ZN8KConsole2srE
  77      83B70700 
  78 0064 83B70700 		ld	a5,0(a5)
  79 0068 83C70700 		lbu	a5,0(a5)
  27:src/main.cpp  ****         *KConsole::dr = c;
  80              		.loc 1 27 16
  81 006c 93F70702 		andi	a5,a5,32
  82 0070 E38607FE 		beqz	a5,.L5
  83 0074 6FF0DFFB 		j	.L8
  84              	.LBE9:
  85              		.cfi_endproc
  86              	.LFE47:
  88              		.align	2
  89              		.globl	main
  91              	main:
  92              	.LFB48:
  30:src/main.cpp  ****     }
  31:src/main.cpp  **** 
  32:src/main.cpp  **** }
  33:src/main.cpp  **** 
  34:src/main.cpp  **** int main() {
  93              		.loc 1 34 12 is_stmt 1
  94              		.cfi_startproc
  95 0078 130101FD 		addi	sp,sp,-48
  96              		.cfi_def_cfa_offset 48
  97 007c 23341102 		sd	ra,40(sp)
  98 0080 23308102 		sd	s0,32(sp)
  99              		.cfi_offset 1, -8
 100              		.cfi_offset 8, -16
 101 0084 13040103 		addi	s0,sp,48
 102              		.cfi_def_cfa 8, 0
  35:src/main.cpp  ****     //postavi adresu prekidne rutine u stvec
  36:src/main.cpp  ****     __asm__ volatile("csrw stvec, %[handler]": :[handler] "r"(&interruptHandler));
 103              		.loc 1 36 5
 104              		.loc 1 36 82 is_stmt 0
 105 0088 97070000 		la	a5,interruptHandler
 105      83B70700 
 106              	#APP
 107              	# 36 "src/main.cpp" 1
  37              	
  38:src/main.cpp  ****     KMemory::initializeMemory();
 108              		csrw stvec, a5
 109              	# 0 "" 2
 110              		.loc 1 38 5 is_stmt 1
 111              		.loc 1 38 30 is_stmt 0
 112              	#NO_APP
 113 0094 97000000 		call	_ZN7KMemory16initializeMemoryEv@plt
 113      E7800000 
 114              	.LVL5:
  39:src/main.cpp  **** 
  40:src/main.cpp  ****     //inicijalizacija alokatora memorije
  41:src/main.cpp  ****     //MemoryAllocator::initMemoryAllocator();
  42:src/main.cpp  **** 
  43:src/main.cpp  ****     //inicijalizacija komunikacije sa konzolom
  44:src/main.cpp  ****     KConsole::initKConsole();
 115              		.loc 1 44 5 is_stmt 1
 116              		.loc 1 44 27 is_stmt 0
GAS LISTING /tmp/ccyBlhzN.s 			page 4


 117 009c 97000000 		call	_ZN8KConsole12initKConsoleEv@plt
 117      E7800000 
 118              	.LVL6:
  45:src/main.cpp  **** 
  46:src/main.cpp  ****     //pravljenje niti
  47:src/main.cpp  ****     thread_t mainHandle;
 119              		.loc 1 47 5 is_stmt 1
  48:src/main.cpp  ****     thread_t userHandle;
 120              		.loc 1 48 5
  49:src/main.cpp  ****     thread_t idleHandle;
 121              		.loc 1 49 5
  50:src/main.cpp  ****     thread_t consoleOutputHandle;
 122              		.loc 1 50 5
  51:src/main.cpp  ****     thread_create(&mainHandle, nullptr, nullptr);
 123              		.loc 1 51 5
 124              		.loc 1 51 18 is_stmt 0
 125 00a4 13060000 		li	a2,0
 126 00a8 93050000 		li	a1,0
 127 00ac 130584FE 		addi	a0,s0,-24
 128 00b0 97000000 		call	_Z13thread_createPP3TCBPFvPvES2_@plt
 128      E7800000 
 129              	.LVL7:
  52:src/main.cpp  ****     TCB::running = mainHandle;
 130              		.loc 1 52 5 is_stmt 1
 131              		.loc 1 52 18 is_stmt 0
 132 00b8 833784FE 		ld	a5,-24(s0)
 133 00bc 17070000 		la	a4,_ZN3TCB7runningE
 133      03370700 
 134 00c4 2330F700 		sd	a5,0(a4)
  53:src/main.cpp  ****     TCB::running->setStatus(TCB::ACTIVE);
 135              		.loc 1 53 5 is_stmt 1
 136              	.LVL8:
 137              	.LBB10:
 138              	.LBB11:
 139              		.file 2 "src/../h/TCB.hpp"
   1:src/../h/TCB.hpp **** //
   2:src/../h/TCB.hpp **** // Created by os on 5/23/23.
   3:src/../h/TCB.hpp **** //
   4:src/../h/TCB.hpp **** 
   5:src/../h/TCB.hpp **** #ifndef PROJEKAT2023_TCB_HPP
   6:src/../h/TCB.hpp **** #define PROJEKAT2023_TCB_HPP
   7:src/../h/TCB.hpp **** 
   8:src/../h/TCB.hpp **** #include "../lib/hw.h"
   9:src/../h/TCB.hpp **** #include "../h/ThreadQueue.hpp"
  10:src/../h/TCB.hpp **** 
  11:src/../h/TCB.hpp **** class TCB {
  12:src/../h/TCB.hpp **** public:
  13:src/../h/TCB.hpp ****     friend class Scheduler;
  14:src/../h/TCB.hpp **** 
  15:src/../h/TCB.hpp ****     using Body = void (*)(void*);
  16:src/../h/TCB.hpp **** 
  17:src/../h/TCB.hpp ****     enum ThreadStatus {
  18:src/../h/TCB.hpp ****         CREATED, ACTIVE, BLOCKED, JOINING, SLEEPING, FINISHED
  19:src/../h/TCB.hpp ****     };
  20:src/../h/TCB.hpp **** 
  21:src/../h/TCB.hpp ****     void setStatus(ThreadStatus stat) { this->status = stat; }
 140              		.loc 2 21 41
GAS LISTING /tmp/ccyBlhzN.s 			page 5


 141              		.loc 2 21 54 is_stmt 0
 142 00c8 13071000 		li	a4,1
 143 00cc 23ACE704 		sw	a4,88(a5)
 144              	.LVL9:
 145              	.LBE11:
 146              	.LBE10:
  54:src/main.cpp  ****     thread_create(&userHandle, (TCB::Body) userMain, nullptr);
 147              		.loc 1 54 5 is_stmt 1
 148              		.loc 1 54 18 is_stmt 0
 149 00d0 13060000 		li	a2,0
 150 00d4 97050000 		la	a1,_Z8userMainv
 150      83B50500 
 151 00dc 130504FE 		addi	a0,s0,-32
 152 00e0 97000000 		call	_Z13thread_createPP3TCBPFvPvES2_@plt
 152      E7800000 
 153              	.LVL10:
  55:src/main.cpp  ****     thread_create(&consoleOutputHandle, kernelConsumerFunction, nullptr);
 154              		.loc 1 55 5 is_stmt 1
 155              		.loc 1 55 18 is_stmt 0
 156 00e8 13060000 		li	a2,0
 157 00ec 97050000 		lla	a1,_Z22kernelConsumerFunctionPv
 157      93850500 
 158 00f4 130504FD 		addi	a0,s0,-48
 159 00f8 97000000 		call	_Z13thread_createPP3TCBPFvPvES2_@plt
 159      E7800000 
 160              	.LVL11:
  56:src/main.cpp  ****     thread_create(&idleHandle, idle, nullptr);
 161              		.loc 1 56 5 is_stmt 1
 162              		.loc 1 56 18 is_stmt 0
 163 0100 13060000 		li	a2,0
 164 0104 97050000 		lla	a1,_Z4idlePv
 164      93850500 
 165 010c 130584FD 		addi	a0,s0,-40
 166 0110 97000000 		call	_Z13thread_createPP3TCBPFvPvES2_@plt
 166      E7800000 
 167              	.LVL12:
  57:src/main.cpp  **** 
  58:src/main.cpp  ****     //omogucavanje prekida
  59:src/main.cpp  ****     Riscv::ms_sstatus(Riscv::SSTATUS_SIE);
 168              		.loc 1 59 5 is_stmt 1
 169              	.LBB12:
 170              	.LBB13:
 171              		.file 3 "src/../h/Riscv.hpp"
   1:src/../h/Riscv.hpp **** //
   2:src/../h/Riscv.hpp **** // Created by os on 5/17/23.
   3:src/../h/Riscv.hpp **** //
   4:src/../h/Riscv.hpp **** 
   5:src/../h/Riscv.hpp **** #ifndef PROJEKAT2023_RISCV_HPP
   6:src/../h/Riscv.hpp **** #define PROJEKAT2023_RISCV_HPP
   7:src/../h/Riscv.hpp **** 
   8:src/../h/Riscv.hpp **** #include "../lib/hw.h"
   9:src/../h/Riscv.hpp **** 
  10:src/../h/Riscv.hpp **** class Riscv {
  11:src/../h/Riscv.hpp **** public:
  12:src/../h/Riscv.hpp **** 
  13:src/../h/Riscv.hpp **** 	static void popSppSpie();
  14:src/../h/Riscv.hpp **** 
GAS LISTING /tmp/ccyBlhzN.s 			page 6


  15:src/../h/Riscv.hpp **** 	//stavljanje registara x3-x31 na stek
  16:src/../h/Riscv.hpp **** 	static void pushRegisters();    //implementacija u asm
  17:src/../h/Riscv.hpp **** 
  18:src/../h/Riscv.hpp **** 	//skidanje registara x3-x31 sa steka
  19:src/../h/Riscv.hpp **** 	static void popRegisters();     //implementacija u asm
  20:src/../h/Riscv.hpp **** 
  21:src/../h/Riscv.hpp **** 	//read scause
  22:src/../h/Riscv.hpp **** 	static uint64 r_scause();
  23:src/../h/Riscv.hpp **** 
  24:src/../h/Riscv.hpp **** 	//write scause
  25:src/../h/Riscv.hpp **** 	static void w_scause(uint64 scause);
  26:src/../h/Riscv.hpp **** 
  27:src/../h/Riscv.hpp **** 	//read sepc
  28:src/../h/Riscv.hpp **** 	static uint64 r_sepc();
  29:src/../h/Riscv.hpp **** 
  30:src/../h/Riscv.hpp **** 	//write sepc
  31:src/../h/Riscv.hpp **** 	static void w_sepc(uint64 sepc);
  32:src/../h/Riscv.hpp **** 
  33:src/../h/Riscv.hpp **** 	//read stvec
  34:src/../h/Riscv.hpp **** 	static uint64 r_stvec();
  35:src/../h/Riscv.hpp **** 
  36:src/../h/Riscv.hpp **** 	//write stvec
  37:src/../h/Riscv.hpp **** 	static void w_stvec(uint64 stvec);
  38:src/../h/Riscv.hpp **** 
  39:src/../h/Riscv.hpp **** 	enum BitMaskSip {
  40:src/../h/Riscv.hpp **** 		//postoji zahtev za softverski prekid
  41:src/../h/Riscv.hpp **** 		SIP_SSIP = (1 << 1),
  42:src/../h/Riscv.hpp **** 		//postoji prekid od tajmera
  43:src/../h/Riscv.hpp **** 		SIP_STIP = (1 << 5),
  44:src/../h/Riscv.hpp **** 		//postoji zahtev za spoljasnji hardverski prekid
  45:src/../h/Riscv.hpp **** 		SIP_SEIP = (1 << 9)
  46:src/../h/Riscv.hpp **** 	};
  47:src/../h/Riscv.hpp **** 
  48:src/../h/Riscv.hpp **** 	//mask set sip
  49:src/../h/Riscv.hpp **** 	static void ms_sip(uint64 mask);
  50:src/../h/Riscv.hpp **** 
  51:src/../h/Riscv.hpp **** 	//mask clear sip
  52:src/../h/Riscv.hpp **** 	static void mc_sip(uint64 mask);
  53:src/../h/Riscv.hpp **** 
  54:src/../h/Riscv.hpp **** 	//read sip
  55:src/../h/Riscv.hpp **** 	static uint64 r_sip();
  56:src/../h/Riscv.hpp **** 
  57:src/../h/Riscv.hpp **** 	//write sip
  58:src/../h/Riscv.hpp **** 	static void w_sip(uint64 sip);
  59:src/../h/Riscv.hpp **** 
  60:src/../h/Riscv.hpp **** 	//kada se pozove sret, SIE dobija vrednost SPIE, SPIE se postavlja na 1,
  61:src/../h/Riscv.hpp **** 	//rezim se postavlja na osnovu SPP bita, SPP se postavlja na 0
  62:src/../h/Riscv.hpp **** 	enum BitMaskSstatus {
  63:src/../h/Riscv.hpp **** 		//1 - dozvoljeni prekidi; 0- nedozvoljeni prekidi; igonrise se u korisnickom rezimu
  64:src/../h/Riscv.hpp **** 		SSTATUS_SIE = (1 << 1),
  65:src/../h/Riscv.hpp **** 		//prethodna vrednost bita SIE
  66:src/../h/Riscv.hpp **** 		SSTATUS_SPIE = (1 << 5),
  67:src/../h/Riscv.hpp **** 		//iz kog rezima se desio skok; 0 - iz korisnickog; 1 - iz sistemskog
  68:src/../h/Riscv.hpp **** 		SSTATUS_SPP = (1 << 8)
  69:src/../h/Riscv.hpp **** 	};
  70:src/../h/Riscv.hpp **** 
  71:src/../h/Riscv.hpp **** 	//mask set sstatus
GAS LISTING /tmp/ccyBlhzN.s 			page 7


  72:src/../h/Riscv.hpp **** 	static void ms_sstatus(uint64 mask);
  73:src/../h/Riscv.hpp **** 
  74:src/../h/Riscv.hpp **** 	//mask clear sstatus
  75:src/../h/Riscv.hpp **** 	static void mc_sstatus(uint64 mask);
  76:src/../h/Riscv.hpp **** 
  77:src/../h/Riscv.hpp **** 	//read sstatus
  78:src/../h/Riscv.hpp **** 	static uint64 r_sstatus();
  79:src/../h/Riscv.hpp **** 
  80:src/../h/Riscv.hpp **** 	//write sstatus
  81:src/../h/Riscv.hpp **** 	static void w_sstatus(uint64 sstatus);
  82:src/../h/Riscv.hpp **** 
  83:src/../h/Riscv.hpp **** 	//upisuje kod sistemskog poziva u registar a0
  84:src/../h/Riscv.hpp **** 	static void loadOpCode(uint64 opCode);
  85:src/../h/Riscv.hpp **** 
  86:src/../h/Riscv.hpp **** };
  87:src/../h/Riscv.hpp **** 
  88:src/../h/Riscv.hpp **** inline uint64 Riscv::r_scause() {
  89:src/../h/Riscv.hpp **** 	uint64 volatile scause;
  90:src/../h/Riscv.hpp **** 	__asm__ volatile("csrr %[scause], scause": [scause] "=r"(scause));
  91:src/../h/Riscv.hpp **** 	return scause;
  92:src/../h/Riscv.hpp **** }
  93:src/../h/Riscv.hpp **** 
  94:src/../h/Riscv.hpp **** inline void Riscv::w_scause(uint64 scause) {
  95:src/../h/Riscv.hpp **** 	__asm__ volatile("csrw scause, %[scause]": :[scause] "r"(scause));
  96:src/../h/Riscv.hpp **** }
  97:src/../h/Riscv.hpp **** 
  98:src/../h/Riscv.hpp **** inline uint64 Riscv::r_sepc() {
  99:src/../h/Riscv.hpp **** 	uint64 volatile sepc;
 100:src/../h/Riscv.hpp **** 	__asm__ volatile("csrr %[sepc], sepc": [sepc] "=r"(sepc));
 101:src/../h/Riscv.hpp **** 	return sepc;
 102:src/../h/Riscv.hpp **** }
 103:src/../h/Riscv.hpp **** 
 104:src/../h/Riscv.hpp **** inline void Riscv::w_sepc(uint64 sepc) {
 105:src/../h/Riscv.hpp **** 	__asm__ volatile("csrw sepc, %[sepc]": :[sepc] "r"(sepc));
 106:src/../h/Riscv.hpp **** }
 107:src/../h/Riscv.hpp **** 
 108:src/../h/Riscv.hpp **** inline uint64 Riscv::r_stvec() {
 109:src/../h/Riscv.hpp **** 	uint64 volatile stvec;
 110:src/../h/Riscv.hpp **** 	__asm__ volatile("csrr %[stvec], stvec": [stvec] "=r"(stvec));
 111:src/../h/Riscv.hpp **** 	return stvec;
 112:src/../h/Riscv.hpp **** }
 113:src/../h/Riscv.hpp **** 
 114:src/../h/Riscv.hpp **** inline void Riscv::w_stvec(uint64 stvec) {
 115:src/../h/Riscv.hpp **** 	__asm__ volatile("csrw stvec, %[stvec]": :[stvec] "r"(stvec));
 116:src/../h/Riscv.hpp **** }
 117:src/../h/Riscv.hpp **** 
 118:src/../h/Riscv.hpp **** inline void Riscv::ms_sip(uint64 mask) {
 119:src/../h/Riscv.hpp **** 	__asm__ volatile("csrs sip, %[mask]": :[mask] "r"(mask));
 120:src/../h/Riscv.hpp **** }
 121:src/../h/Riscv.hpp **** 
 122:src/../h/Riscv.hpp **** inline void Riscv::mc_sip(uint64 mask) {
 123:src/../h/Riscv.hpp **** 	__asm__ volatile("csrc sip, %[mask]": :[mask] "r"(mask));
 124:src/../h/Riscv.hpp **** }
 125:src/../h/Riscv.hpp **** 
 126:src/../h/Riscv.hpp **** inline uint64 Riscv::r_sip() {
 127:src/../h/Riscv.hpp **** 	uint64 volatile sip;
 128:src/../h/Riscv.hpp **** 	__asm__ volatile("csrr %[sip], sip": [sip] "=r"(sip));
GAS LISTING /tmp/ccyBlhzN.s 			page 8


 129:src/../h/Riscv.hpp **** 	return sip;
 130:src/../h/Riscv.hpp **** }
 131:src/../h/Riscv.hpp **** 
 132:src/../h/Riscv.hpp **** inline void Riscv::w_sip(uint64 sip) {
 133:src/../h/Riscv.hpp **** 	__asm__ volatile("csrw sip, %[sip]": :[sip] "r"(sip));
 134:src/../h/Riscv.hpp **** }
 135:src/../h/Riscv.hpp **** 
 136:src/../h/Riscv.hpp **** inline void Riscv::ms_sstatus(uint64 mask) {
 137:src/../h/Riscv.hpp **** 	__asm__ volatile("csrs sstatus, %[mask]": :[mask] "r"(mask));
 172              		.loc 3 137 2
 173              		.loc 3 137 62 is_stmt 0
 174 0118 93072000 		li	a5,2
 175              	#APP
 176              	# 137 "src/../h/Riscv.hpp" 1
 138              	}
 177              		csrs sstatus, a5
 178              	# 0 "" 2
 179              	.LVL13:
 180              	#NO_APP
 181              	.LBE13:
 182              	.LBE12:
  60:src/main.cpp  **** 
  61:src/main.cpp  ****     //cekanje da se userMain zavrsi
  62:src/main.cpp  ****     thread_join(userHandle);
 183              		.loc 1 62 5 is_stmt 1
 184              		.loc 1 62 16 is_stmt 0
 185 0120 033504FE 		ld	a0,-32(s0)
 186 0124 97000000 		call	_Z11thread_joinP3TCB@plt
 186      E7800000 
 187              	.LVL14:
 188              	.L10:
  63:src/main.cpp  **** 
  64:src/main.cpp  ****     //printString("\nSad cu da izadjem\n");
  65:src/main.cpp  **** 
  66:src/main.cpp  ****     //flush output bafera za konzolu
  67:src/main.cpp  ****     while (KConsole::outputHead != KConsole::outputTail) {}
 189              		.loc 1 67 5 is_stmt 1
 190              		.loc 1 67 33
 191 012c 97070000 		la	a5,_ZN8KConsole10outputHeadE
 191      83B70700 
 192 0134 03A70700 		lw	a4,0(a5)
 193 0138 97070000 		la	a5,_ZN8KConsole10outputTailE
 193      83B70700 
 194 0140 83A70700 		lw	a5,0(a5)
 195 0144 E314F7FE 		bne	a4,a5,.L10
  68:src/main.cpp  **** 
  69:src/main.cpp  ****     //maskiranje svih prekida
  70:src/main.cpp  ****     Riscv::mc_sstatus(Riscv::SSTATUS_SIE);
 196              		.loc 1 70 5
 197              	.LVL15:
 198              	.LBB14:
 199              	.LBB15:
 139:src/../h/Riscv.hpp **** 
 140:src/../h/Riscv.hpp **** inline void Riscv::mc_sstatus(uint64 mask) {
 141:src/../h/Riscv.hpp **** 	__asm__ volatile("csrc sstatus, %[mask]": :[mask] "r"(mask));
 200              		.loc 3 141 2
 201              		.loc 3 141 62 is_stmt 0
GAS LISTING /tmp/ccyBlhzN.s 			page 9


 202 0148 93072000 		li	a5,2
 203              	#APP
 204              	# 141 "src/../h/Riscv.hpp" 1
 142              	}
 205              		csrc sstatus, a5
 206              	# 0 "" 2
 207              	.LVL16:
 208              	#NO_APP
 209              	.LBE15:
 210              	.LBE14:
  71:src/main.cpp  **** 
  72:src/main.cpp  ****     return 0;
 211              		.loc 1 72 5 is_stmt 1
  73:src/main.cpp  **** 
  74:src/main.cpp  **** 
  75:src/main.cpp  **** }...
 212              		.loc 1 75 1 is_stmt 0
 213 0150 13050000 		li	a0,0
 214 0154 83308102 		ld	ra,40(sp)
 215              		.cfi_restore 1
 216 0158 03340102 		ld	s0,32(sp)
 217              		.cfi_restore 8
 218              		.cfi_def_cfa 2, 48
 219 015c 13010103 		addi	sp,sp,48
 220              		.cfi_def_cfa_offset 0
 221 0160 67800000 		jr	ra
 222              		.cfi_endproc
 223              	.LFE48:
 225              	.Letext0:
 226              		.file 4 "src/../lib/hw.h"
 227              		.file 5 "src/../h/syscall_c.hpp"
 228              		.file 6 "src/../h/../h/ThreadQueue.hpp"
 229              		.file 7 "src/../h/KConsole.hpp"
 230              		.file 8 "src/../h/KMemory.hpp"
GAS LISTING /tmp/ccyBlhzN.s 			page 10


DEFINED SYMBOLS
                            *ABS*:0000000000000000 main.cpp
     /tmp/ccyBlhzN.s:9      .text:0000000000000000 _Z4idlePv
     /tmp/ccyBlhzN.s:13     .text:0000000000000000 .L0 
     /tmp/ccyBlhzN.s:14     .text:0000000000000000 .L0 
     /tmp/ccyBlhzN.s:15     .text:0000000000000004 .L0 
     /tmp/ccyBlhzN.s:18     .text:000000000000000c .L0 
     /tmp/ccyBlhzN.s:19     .text:000000000000000c .L0 
     /tmp/ccyBlhzN.s:21     .text:0000000000000010 .L0 
     /tmp/ccyBlhzN.s:24     .text:0000000000000010 .L0 
     /tmp/ccyBlhzN.s:25     .text:0000000000000010 .L0 
     /tmp/ccyBlhzN.s:26     .text:0000000000000010 .L0 
     /tmp/ccyBlhzN.s:29     .text:0000000000000018 .L0 
     /tmp/ccyBlhzN.s:30     .text:000000000000001c .L0 
     /tmp/ccyBlhzN.s:36     .text:000000000000001c _Z22kernelConsumerFunctionPv
     /tmp/ccyBlhzN.s:39     .text:000000000000001c .L0 
     /tmp/ccyBlhzN.s:40     .text:000000000000001c .L0 
     /tmp/ccyBlhzN.s:41     .text:0000000000000020 .L0 
     /tmp/ccyBlhzN.s:44     .text:0000000000000028 .L0 
     /tmp/ccyBlhzN.s:45     .text:0000000000000028 .L0 
     /tmp/ccyBlhzN.s:47     .text:000000000000002c .L0 
     /tmp/ccyBlhzN.s:53     .text:0000000000000030 .L0 
     /tmp/ccyBlhzN.s:56     .text:000000000000003c .L0 
     /tmp/ccyBlhzN.s:58     .text:0000000000000040 .L0 
     /tmp/ccyBlhzN.s:59     .text:0000000000000040 .L0 
     /tmp/ccyBlhzN.s:67     .text:0000000000000054 .L0 
     /tmp/ccyBlhzN.s:69     .text:0000000000000054 .L0 
     /tmp/ccyBlhzN.s:70     .text:0000000000000054 .L0 
     /tmp/ccyBlhzN.s:71     .text:0000000000000054 .L0 
     /tmp/ccyBlhzN.s:75     .text:000000000000005c .L0 
     /tmp/ccyBlhzN.s:76     .text:000000000000005c .L0 
     /tmp/ccyBlhzN.s:77     .text:000000000000005c .L0 
     /tmp/ccyBlhzN.s:81     .text:000000000000006c .L0 
     /tmp/ccyBlhzN.s:85     .text:0000000000000078 .L0 
     /tmp/ccyBlhzN.s:91     .text:0000000000000078 main
     /tmp/ccyBlhzN.s:94     .text:0000000000000078 .L0 
     /tmp/ccyBlhzN.s:95     .text:0000000000000078 .L0 
     /tmp/ccyBlhzN.s:96     .text:000000000000007c .L0 
     /tmp/ccyBlhzN.s:99     .text:0000000000000084 .L0 
     /tmp/ccyBlhzN.s:100    .text:0000000000000084 .L0 
     /tmp/ccyBlhzN.s:102    .text:0000000000000088 .L0 
     /tmp/ccyBlhzN.s:104    .text:0000000000000088 .L0 
     /tmp/ccyBlhzN.s:105    .text:0000000000000088 .L0 
     /tmp/ccyBlhzN.s:111    .text:0000000000000094 .L0 
     /tmp/ccyBlhzN.s:113    .text:0000000000000094 .L0 
     /tmp/ccyBlhzN.s:116    .text:000000000000009c .L0 
     /tmp/ccyBlhzN.s:117    .text:000000000000009c .L0 
     /tmp/ccyBlhzN.s:120    .text:00000000000000a4 .L0 
     /tmp/ccyBlhzN.s:121    .text:00000000000000a4 .L0 
     /tmp/ccyBlhzN.s:122    .text:00000000000000a4 .L0 
     /tmp/ccyBlhzN.s:123    .text:00000000000000a4 .L0 
     /tmp/ccyBlhzN.s:124    .text:00000000000000a4 .L0 
     /tmp/ccyBlhzN.s:125    .text:00000000000000a4 .L0 
     /tmp/ccyBlhzN.s:131    .text:00000000000000b8 .L0 
     /tmp/ccyBlhzN.s:132    .text:00000000000000b8 .L0 
     /tmp/ccyBlhzN.s:140    .text:00000000000000c8 .L0 
     /tmp/ccyBlhzN.s:141    .text:00000000000000c8 .L0 
GAS LISTING /tmp/ccyBlhzN.s 			page 11


     /tmp/ccyBlhzN.s:142    .text:00000000000000c8 .L0 
     /tmp/ccyBlhzN.s:148    .text:00000000000000d0 .L0 
     /tmp/ccyBlhzN.s:149    .text:00000000000000d0 .L0 
     /tmp/ccyBlhzN.s:155    .text:00000000000000e8 .L0 
     /tmp/ccyBlhzN.s:156    .text:00000000000000e8 .L0 
     /tmp/ccyBlhzN.s:162    .text:0000000000000100 .L0 
     /tmp/ccyBlhzN.s:163    .text:0000000000000100 .L0 
     /tmp/ccyBlhzN.s:172    .text:0000000000000118 .L0 
     /tmp/ccyBlhzN.s:173    .text:0000000000000118 .L0 
     /tmp/ccyBlhzN.s:174    .text:0000000000000118 .L0 
     /tmp/ccyBlhzN.s:184    .text:0000000000000120 .L0 
     /tmp/ccyBlhzN.s:185    .text:0000000000000120 .L0 
     /tmp/ccyBlhzN.s:190    .text:000000000000012c .L0 
     /tmp/ccyBlhzN.s:191    .text:000000000000012c .L0 
     /tmp/ccyBlhzN.s:200    .text:0000000000000148 .L0 
     /tmp/ccyBlhzN.s:201    .text:0000000000000148 .L0 
     /tmp/ccyBlhzN.s:202    .text:0000000000000148 .L0 
     /tmp/ccyBlhzN.s:212    .text:0000000000000150 .L0 
     /tmp/ccyBlhzN.s:213    .text:0000000000000150 .L0 
     /tmp/ccyBlhzN.s:215    .text:0000000000000158 .L0 
     /tmp/ccyBlhzN.s:217    .text:000000000000015c .L0 
     /tmp/ccyBlhzN.s:218    .text:000000000000015c .L0 
     /tmp/ccyBlhzN.s:220    .text:0000000000000160 .L0 
     /tmp/ccyBlhzN.s:222    .text:0000000000000164 .L0 
     /tmp/ccyBlhzN.s:231    .text:0000000000000164 .L0 
     /tmp/ccyBlhzN.s:53     .text:0000000000000030 .L0 
     /tmp/ccyBlhzN.s:59     .text:0000000000000040 .L0 
     /tmp/ccyBlhzN.s:77     .text:000000000000005c .L0 
     /tmp/ccyBlhzN.s:105    .text:0000000000000088 .L0 
     /tmp/ccyBlhzN.s:133    .text:00000000000000bc .L0 
     /tmp/ccyBlhzN.s:150    .text:00000000000000d4 .L0 
     /tmp/ccyBlhzN.s:157    .text:00000000000000ec .L0 
     /tmp/ccyBlhzN.s:164    .text:0000000000000104 .L0 
     /tmp/ccyBlhzN.s:191    .text:000000000000012c .L0 
     /tmp/ccyBlhzN.s:193    .text:0000000000000138 .L0 
     /tmp/ccyBlhzN.s:22     .text:0000000000000010 .L2
     /tmp/ccyBlhzN.s:66     .text:0000000000000054 .L6
     /tmp/ccyBlhzN.s:73     .text:000000000000005c .L5
     /tmp/ccyBlhzN.s:50     .text:0000000000000030 .L8
     /tmp/ccyBlhzN.s:188    .text:000000000000012c .L10
     /tmp/ccyBlhzN.s:1747   .debug_abbrev:0000000000000000 .Ldebug_abbrev0
     /tmp/ccyBlhzN.s:3152   .debug_str:00000000000009a2 .LASF195
     /tmp/ccyBlhzN.s:2914   .debug_str:00000000000002e4 .LASF196
     /tmp/ccyBlhzN.s:3112   .debug_str:000000000000088f .LASF197
     /tmp/ccyBlhzN.s:5      .text:0000000000000000 .Ltext0
     /tmp/ccyBlhzN.s:225    .text:0000000000000164 .Letext0
     /tmp/ccyBlhzN.s:2820   .debug_line:0000000000000000 .Ldebug_line0
     /tmp/ccyBlhzN.s:2958   .debug_str:000000000000042a .LASF0
     /tmp/ccyBlhzN.s:2982   .debug_str:00000000000004c2 .LASF1
     /tmp/ccyBlhzN.s:3090   .debug_str:00000000000007dc .LASF2
     /tmp/ccyBlhzN.s:2904   .debug_str:00000000000002a2 .LASF3
     /tmp/ccyBlhzN.s:3102   .debug_str:000000000000084a .LASF4
     /tmp/ccyBlhzN.s:2970   .debug_str:000000000000046a .LASF5
     /tmp/ccyBlhzN.s:2830   .debug_str:000000000000004e .LASF6
     /tmp/ccyBlhzN.s:3054   .debug_str:00000000000006e9 .LASF7
     /tmp/ccyBlhzN.s:3048   .debug_str:00000000000006c1 .LASF8
     /tmp/ccyBlhzN.s:2974   .debug_str:000000000000048e .LASF9
GAS LISTING /tmp/ccyBlhzN.s 			page 12


     /tmp/ccyBlhzN.s:2924   .debug_str:0000000000000312 .LASF10
     /tmp/ccyBlhzN.s:2938   .debug_str:000000000000037f .LASF11
     /tmp/ccyBlhzN.s:2858   .debug_str:0000000000000114 .LASF12
     /tmp/ccyBlhzN.s:2912   .debug_str:00000000000002d5 .LASF13
     /tmp/ccyBlhzN.s:2870   .debug_str:0000000000000176 .LASF14
     /tmp/ccyBlhzN.s:2856   .debug_str:0000000000000104 .LASF15
     /tmp/ccyBlhzN.s:3132   .debug_str:000000000000092c .LASF16
     /tmp/ccyBlhzN.s:2898   .debug_str:000000000000025c .LASF17
     /tmp/ccyBlhzN.s:3124   .debug_str:00000000000008fd .LASF18
     /tmp/ccyBlhzN.s:3198   .debug_str:0000000000000b8a .LASF57
     /tmp/ccyBlhzN.s:3180   .debug_str:0000000000000b23 .LASF58
     /tmp/ccyBlhzN.s:2908   .debug_str:00000000000002b0 .LASF19
     /tmp/ccyBlhzN.s:3150   .debug_str:0000000000000995 .LASF20
     /tmp/ccyBlhzN.s:2882   .debug_str:00000000000001f6 .LASF21
     /tmp/ccyBlhzN.s:2948   .debug_str:00000000000003db .LASF22
     /tmp/ccyBlhzN.s:2956   .debug_str:0000000000000412 .LASF24
     /tmp/ccyBlhzN.s:3110   .debug_str:0000000000000881 .LASF23
     /tmp/ccyBlhzN.s:2902   .debug_str:0000000000000287 .LASF25
     /tmp/ccyBlhzN.s:2962   .debug_str:0000000000000441 .LASF26
     /tmp/ccyBlhzN.s:3206   .debug_str:0000000000000bd1 .LASF27
     /tmp/ccyBlhzN.s:3170   .debug_str:0000000000000aec .LASF28
     /tmp/ccyBlhzN.s:3164   .debug_str:0000000000000aaf .LASF30
     /tmp/ccyBlhzN.s:3086   .debug_str:00000000000007c8 .LASF32
     /tmp/ccyBlhzN.s:3034   .debug_str:000000000000064f .LASF34
     /tmp/ccyBlhzN.s:3062   .debug_str:0000000000000707 .LASF29
     /tmp/ccyBlhzN.s:3070   .debug_str:0000000000000740 .LASF31
     /tmp/ccyBlhzN.s:3020   .debug_str:00000000000005e5 .LASF33
     /tmp/ccyBlhzN.s:2976   .debug_str:00000000000004a1 .LASF35
     /tmp/ccyBlhzN.s:3210   .debug_str:0000000000000bf9 .LASF36
     /tmp/ccyBlhzN.s:3154   .debug_str:0000000000000a66 .LASF37
     /tmp/ccyBlhzN.s:3018   .debug_str:00000000000005dd .LASF38
     /tmp/ccyBlhzN.s:3032   .debug_str:000000000000063b .LASF39
     /tmp/ccyBlhzN.s:3128   .debug_str:0000000000000918 .LASF40
     /tmp/ccyBlhzN.s:3104   .debug_str:0000000000000851 .LASF41
     /tmp/ccyBlhzN.s:3106   .debug_str:0000000000000864 .LASF42
     /tmp/ccyBlhzN.s:2864   .debug_str:0000000000000132 .LASF43
     /tmp/ccyBlhzN.s:2896   .debug_str:0000000000000256 .LASF44
     /tmp/ccyBlhzN.s:2952   .debug_str:00000000000003f5 .LASF45
     /tmp/ccyBlhzN.s:2964   .debug_str:000000000000044e .LASF46
     /tmp/ccyBlhzN.s:2886   .debug_str:0000000000000209 .LASF47
     /tmp/ccyBlhzN.s:2832   .debug_str:0000000000000055 .LASF48
     /tmp/ccyBlhzN.s:3094   .debug_str:00000000000007f4 .LASF49
     /tmp/ccyBlhzN.s:3088   .debug_str:00000000000007d1 .LASF50
     /tmp/ccyBlhzN.s:3224   .debug_str:0000000000000c60 .LASF51
     /tmp/ccyBlhzN.s:3200   .debug_str:0000000000000b90 .LASF52
     /tmp/ccyBlhzN.s:3214   .debug_str:0000000000000c06 .LASF53
     /tmp/ccyBlhzN.s:3192   .debug_str:0000000000000b57 .LASF54
     /tmp/ccyBlhzN.s:3006   .debug_str:000000000000055d .LASF55
     /tmp/ccyBlhzN.s:3158   .debug_str:0000000000000a84 .LASF132
     /tmp/ccyBlhzN.s:2876   .debug_str:00000000000001b6 .LASF133
     /tmp/ccyBlhzN.s:3190   .debug_str:0000000000000b4e .LASF56
     /tmp/ccyBlhzN.s:3118   .debug_str:00000000000008c3 .LASF59
     /tmp/ccyBlhzN.s:3060   .debug_str:00000000000006ff .LASF60
     /tmp/ccyBlhzN.s:2884   .debug_str:0000000000000202 .LASF61
     /tmp/ccyBlhzN.s:2998   .debug_str:0000000000000520 .LASF62
     /tmp/ccyBlhzN.s:2930   .debug_str:000000000000033e .LASF63
     /tmp/ccyBlhzN.s:2980   .debug_str:00000000000004b9 .LASF64
GAS LISTING /tmp/ccyBlhzN.s 			page 13


     /tmp/ccyBlhzN.s:2850   .debug_str:00000000000000db .LASF65
     /tmp/ccyBlhzN.s:3138   .debug_str:0000000000000955 .LASF110
     /tmp/ccyBlhzN.s:2862   .debug_str:0000000000000128 .LASF66
     /tmp/ccyBlhzN.s:2940   .debug_str:000000000000038d .LASF68
     /tmp/ccyBlhzN.s:3074   .debug_str:000000000000076b .LASF72
     /tmp/ccyBlhzN.s:2996   .debug_str:000000000000050c .LASF74
     /tmp/ccyBlhzN.s:3130   .debug_str:000000000000091f .LASF67
     /tmp/ccyBlhzN.s:3204   .debug_str:0000000000000baf .LASF69
     /tmp/ccyBlhzN.s:3040   .debug_str:000000000000068a .LASF198
     /tmp/ccyBlhzN.s:3220   .debug_str:0000000000000c54 .LASF70
     /tmp/ccyBlhzN.s:2972   .debug_str:000000000000047c .LASF71
     /tmp/ccyBlhzN.s:2990   .debug_str:00000000000004ee .LASF73
     /tmp/ccyBlhzN.s:3072   .debug_str:0000000000000753 .LASF75
     /tmp/ccyBlhzN.s:2890   .debug_str:0000000000000233 .LASF76
     /tmp/ccyBlhzN.s:3098   .debug_str:0000000000000824 .LASF77
     /tmp/ccyBlhzN.s:3066   .debug_str:000000000000072e .LASF78
     /tmp/ccyBlhzN.s:3000   .debug_str:0000000000000528 .LASF79
     /tmp/ccyBlhzN.s:3168   .debug_str:0000000000000ae1 .LASF80
     /tmp/ccyBlhzN.s:2888   .debug_str:000000000000021b .LASF81
     /tmp/ccyBlhzN.s:3228   .debug_str:0000000000000c85 .LASF82
     /tmp/ccyBlhzN.s:2910   .debug_str:00000000000002bc .LASF83
     /tmp/ccyBlhzN.s:2988   .debug_str:00000000000004e8 .LASF84
     /tmp/ccyBlhzN.s:3084   .debug_str:00000000000007b8 .LASF85
     /tmp/ccyBlhzN.s:2892   .debug_str:0000000000000240 .LASF86
     /tmp/ccyBlhzN.s:2866   .debug_str:0000000000000145 .LASF87
     /tmp/ccyBlhzN.s:2992   .debug_str:00000000000004fb .LASF88
     /tmp/ccyBlhzN.s:2836   .debug_str:000000000000007c .LASF89
     /tmp/ccyBlhzN.s:3148   .debug_str:000000000000098d .LASF90
     /tmp/ccyBlhzN.s:2852   .debug_str:00000000000000e4 .LASF91
     /tmp/ccyBlhzN.s:3226   .debug_str:0000000000000c78 .LASF92
     /tmp/ccyBlhzN.s:2934   .debug_str:000000000000035e .LASF93
     /tmp/ccyBlhzN.s:2826   .debug_str:0000000000000016 .LASF94
     /tmp/ccyBlhzN.s:3030   .debug_str:000000000000062e .LASF95
     /tmp/ccyBlhzN.s:3162   .debug_str:0000000000000aa7 .LASF96
     /tmp/ccyBlhzN.s:2854   .debug_str:00000000000000f5 .LASF97
     /tmp/ccyBlhzN.s:3222   .debug_str:0000000000000c5a .LASF98
     /tmp/ccyBlhzN.s:3172   .debug_str:0000000000000af5 .LASF99
     /tmp/ccyBlhzN.s:3156   .debug_str:0000000000000a7a .LASF100
     /tmp/ccyBlhzN.s:3122   .debug_str:00000000000008ed .LASF101
     /tmp/ccyBlhzN.s:3044   .debug_str:0000000000000697 .LASF102
     /tmp/ccyBlhzN.s:2824   .debug_str:0000000000000009 .LASF103
     /tmp/ccyBlhzN.s:3100   .debug_str:000000000000083c .LASF104
     /tmp/ccyBlhzN.s:3186   .debug_str:0000000000000b42 .LASF105
     /tmp/ccyBlhzN.s:3218   .debug_str:0000000000000c3e .LASF199
     /tmp/ccyBlhzN.s:2878   .debug_str:00000000000001ce .LASF116
     /tmp/ccyBlhzN.s:2828   .debug_str:0000000000000026 .LASF117
     /tmp/ccyBlhzN.s:2926   .debug_str:0000000000000322 .LASF106
     /tmp/ccyBlhzN.s:3126   .debug_str:0000000000000913 .LASF200
     /tmp/ccyBlhzN.s:3144   .debug_str:0000000000000977 .LASF107
     /tmp/ccyBlhzN.s:3078   .debug_str:0000000000000781 .LASF108
     /tmp/ccyBlhzN.s:3022   .debug_str:00000000000005ec .LASF109
     /tmp/ccyBlhzN.s:3188   .debug_str:0000000000000b49 .LASF111
     /tmp/ccyBlhzN.s:2978   .debug_str:00000000000004b4 .LASF112
     /tmp/ccyBlhzN.s:2860   .debug_str:0000000000000123 .LASF113
     /tmp/ccyBlhzN.s:2868   .debug_str:0000000000000158 .LASF114
     /tmp/ccyBlhzN.s:2880   .debug_str:00000000000001dc .LASF115
     /tmp/ccyBlhzN.s:2872   .debug_str:0000000000000186 .LASF118
GAS LISTING /tmp/ccyBlhzN.s 			page 14


     /tmp/ccyBlhzN.s:2840   .debug_str:00000000000000a3 .LASF119
     /tmp/ccyBlhzN.s:3012   .debug_str:00000000000005a4 .LASF120
     /tmp/ccyBlhzN.s:2838   .debug_str:000000000000008e .LASF121
     /tmp/ccyBlhzN.s:2932   .debug_str:0000000000000346 .LASF122
     /tmp/ccyBlhzN.s:3092   .debug_str:00000000000007ea .LASF201
     /tmp/ccyBlhzN.s:3160   .debug_str:0000000000000a8f .LASF202
     /tmp/ccyBlhzN.s:3140   .debug_str:000000000000095d .LASF123
     /tmp/ccyBlhzN.s:3202   .debug_str:0000000000000b9a .LASF124
     /tmp/ccyBlhzN.s:2966   .debug_str:0000000000000454 .LASF125
     /tmp/ccyBlhzN.s:2834   .debug_str:0000000000000060 .LASF126
     /tmp/ccyBlhzN.s:2986   .debug_str:00000000000004e0 .LASF127
     /tmp/ccyBlhzN.s:3014   .debug_str:00000000000005a9 .LASF128
     /tmp/ccyBlhzN.s:2848   .debug_str:00000000000000d2 .LASF129
     /tmp/ccyBlhzN.s:3010   .debug_str:0000000000000588 .LASF130
     /tmp/ccyBlhzN.s:2874   .debug_str:00000000000001a1 .LASF131
     /tmp/ccyBlhzN.s:3196   .debug_str:0000000000000b74 .LASF134
     /tmp/ccyBlhzN.s:2994   .debug_str:0000000000000503 .LASF135
     /tmp/ccyBlhzN.s:3114   .debug_str:00000000000008ad .LASF136
     /tmp/ccyBlhzN.s:3026   .debug_str:0000000000000604 .LASF137
     /tmp/ccyBlhzN.s:3050   .debug_str:00000000000006d4 .LASF138
     /tmp/ccyBlhzN.s:3016   .debug_str:00000000000005c8 .LASF139
     /tmp/ccyBlhzN.s:3146   .debug_str:000000000000097c .LASF140
     /tmp/ccyBlhzN.s:3134   .debug_str:0000000000000938 .LASF141
     /tmp/ccyBlhzN.s:3166   .debug_str:0000000000000ac4 .LASF142
     /tmp/ccyBlhzN.s:3176   .debug_str:0000000000000b06 .LASF143
     /tmp/ccyBlhzN.s:3216   .debug_str:0000000000000c1c .LASF144
     /tmp/ccyBlhzN.s:2968   .debug_str:000000000000045c .LASF145
     /tmp/ccyBlhzN.s:3046   .debug_str:00000000000006a3 .LASF146
     /tmp/ccyBlhzN.s:2946   .debug_str:00000000000003ce .LASF147
     /tmp/ccyBlhzN.s:3082   .debug_str:000000000000079b .LASF148
     /tmp/ccyBlhzN.s:2842   .debug_str:00000000000000a9 .LASF149
     /tmp/ccyBlhzN.s:2936   .debug_str:000000000000036a .LASF150
     /tmp/ccyBlhzN.s:2922   .debug_str:0000000000000304 .LASF151
     /tmp/ccyBlhzN.s:3142   .debug_str:000000000000096a .LASF152
     /tmp/ccyBlhzN.s:3076   .debug_str:0000000000000775 .LASF153
     /tmp/ccyBlhzN.s:2822   .debug_str:0000000000000000 .LASF203
     /tmp/ccyBlhzN.s:3174   .debug_str:0000000000000afa .LASF154
     /tmp/ccyBlhzN.s:2894   .debug_str:0000000000000249 .LASF155
     /tmp/ccyBlhzN.s:2960   .debug_str:0000000000000437 .LASF156
     /tmp/ccyBlhzN.s:3058   .debug_str:00000000000006f5 .LASF157
     /tmp/ccyBlhzN.s:2984   .debug_str:00000000000004d5 .LASF158
     /tmp/ccyBlhzN.s:3178   .debug_str:0000000000000b18 .LASF159
     /tmp/ccyBlhzN.s:3116   .debug_str:00000000000008b3 .LASF160
     /tmp/ccyBlhzN.s:2906   .debug_str:00000000000002a8 .LASF161
     /tmp/ccyBlhzN.s:2942   .debug_str:00000000000003b2 .LASF162
     /tmp/ccyBlhzN.s:3064   .debug_str:000000000000070e .LASF163
     /tmp/ccyBlhzN.s:2916   .debug_str:00000000000002f1 .LASF164
     /tmp/ccyBlhzN.s:2928   .debug_str:0000000000000328 .LASF165
     /tmp/ccyBlhzN.s:2920   .debug_str:00000000000002fe .LASF166
     /tmp/ccyBlhzN.s:2900   .debug_str:0000000000000272 .LASF167
     /tmp/ccyBlhzN.s:3004   .debug_str:0000000000000551 .LASF168
     /tmp/ccyBlhzN.s:3194   .debug_str:0000000000000b61 .LASF169
     /tmp/ccyBlhzN.s:3052   .debug_str:00000000000006da .LASF170
     /tmp/ccyBlhzN.s:2950   .debug_str:00000000000003e6 .LASF171
     /tmp/ccyBlhzN.s:3096   .debug_str:000000000000080c .LASF172
     /tmp/ccyBlhzN.s:3068   .debug_str:0000000000000736 .LASF173
     /tmp/ccyBlhzN.s:3042   .debug_str:000000000000068f .LASF174
GAS LISTING /tmp/ccyBlhzN.s 			page 15


     /tmp/ccyBlhzN.s:3108   .debug_str:000000000000086b .LASF175
     /tmp/ccyBlhzN.s:3036   .debug_str:0000000000000664 .LASF176
     /tmp/ccyBlhzN.s:92     .text:0000000000000078 .LFB48
     /tmp/ccyBlhzN.s:223    .text:0000000000000164 .LFE48
     /tmp/ccyBlhzN.s:2954   .debug_str:0000000000000407 .LASF177
     /tmp/ccyBlhzN.s:3182   .debug_str:0000000000000b32 .LASF178
     /tmp/ccyBlhzN.s:2844   .debug_str:00000000000000bd .LASF179
     /tmp/ccyBlhzN.s:3230   .debug_str:0000000000000c93 .LASF180
     /tmp/ccyBlhzN.s:137    .text:00000000000000c8 .LBB10
     /tmp/ccyBlhzN.s:146    .text:00000000000000d0 .LBE10
     /tmp/ccyBlhzN.s:2757   .debug_loc:0000000000000000 .LLST1
     /tmp/ccyBlhzN.s:2765   .debug_loc:0000000000000024 .LLST2
     /tmp/ccyBlhzN.s:169    .text:0000000000000118 .LBB12
     /tmp/ccyBlhzN.s:182    .text:0000000000000120 .LBE12
     /tmp/ccyBlhzN.s:2772   .debug_loc:0000000000000047 .LLST3
     /tmp/ccyBlhzN.s:198    .text:0000000000000148 .LBB14
     /tmp/ccyBlhzN.s:210    .text:0000000000000150 .LBE14
     /tmp/ccyBlhzN.s:2780   .debug_loc:000000000000006b .LLST4
     /tmp/ccyBlhzN.s:114    .text:000000000000009c .LVL5
     /tmp/ccyBlhzN.s:118    .text:00000000000000a4 .LVL6
     /tmp/ccyBlhzN.s:129    .text:00000000000000b8 .LVL7
     /tmp/ccyBlhzN.s:153    .text:00000000000000e8 .LVL10
     /tmp/ccyBlhzN.s:160    .text:0000000000000100 .LVL11
     /tmp/ccyBlhzN.s:167    .text:0000000000000118 .LVL12
     /tmp/ccyBlhzN.s:187    .text:000000000000012c .LVL14
     /tmp/ccyBlhzN.s:3002   .debug_str:000000000000053a .LASF181
     /tmp/ccyBlhzN.s:3120   .debug_str:00000000000008d0 .LASF182
     /tmp/ccyBlhzN.s:37     .text:000000000000001c .LFB47
     /tmp/ccyBlhzN.s:86     .text:0000000000000078 .LFE47
     /tmp/ccyBlhzN.s:2812   .debug_ranges:0000000000000000 .Ldebug_ranges0
     /tmp/ccyBlhzN.s:2788   .debug_loc:000000000000008f .LLST0
     /tmp/ccyBlhzN.s:63     .text:0000000000000054 .LVL3
     /tmp/ccyBlhzN.s:72     .text:000000000000005c .LVL4
     /tmp/ccyBlhzN.s:3056   .debug_str:00000000000006f0 .LASF183
     /tmp/ccyBlhzN.s:2846   .debug_str:00000000000000c8 .LASF184
     /tmp/ccyBlhzN.s:10     .text:0000000000000000 .LFB46
     /tmp/ccyBlhzN.s:31     .text:000000000000001c .LFE46
     /tmp/ccyBlhzN.s:27     .text:0000000000000018 .LVL0
     /tmp/ccyBlhzN.s:2918   .debug_str:00000000000002f9 .LASF204
     /tmp/ccyBlhzN.s:3212   .debug_str:0000000000000c01 .LASF185
     /tmp/ccyBlhzN.s:3184   .debug_str:0000000000000b3d .LASF186
     /tmp/ccyBlhzN.s:3038   .debug_str:0000000000000669 .LASF187
     /tmp/ccyBlhzN.s:3208   .debug_str:0000000000000beb .LASF189
     /tmp/ccyBlhzN.s:3028   .debug_str:0000000000000619 .LASF188
     /tmp/ccyBlhzN.s:3024   .debug_str:00000000000005f8 .LASF190
     /tmp/ccyBlhzN.s:3080   .debug_str:0000000000000786 .LASF191
     /tmp/ccyBlhzN.s:2944   .debug_str:00000000000003c3 .LASF192
     /tmp/ccyBlhzN.s:3008   .debug_str:0000000000000573 .LASF193
     /tmp/ccyBlhzN.s:3136   .debug_str:0000000000000945 .LASF194
     /tmp/ccyBlhzN.s:136    .text:00000000000000c8 .LVL8
     /tmp/ccyBlhzN.s:144    .text:00000000000000d0 .LVL9
     /tmp/ccyBlhzN.s:179    .text:0000000000000120 .LVL13
     /tmp/ccyBlhzN.s:197    .text:0000000000000148 .LVL15
     /tmp/ccyBlhzN.s:207    .text:0000000000000150 .LVL16
     /tmp/ccyBlhzN.s:49     .text:0000000000000030 .LVL1
     /tmp/ccyBlhzN.s:61     .text:000000000000004c .LVL2
     /tmp/ccyBlhzN.s:232    .debug_info:0000000000000000 .Ldebug_info0
GAS LISTING /tmp/ccyBlhzN.s 			page 16


     /tmp/ccyBlhzN.s:51     .text:0000000000000030 .LBB8
     /tmp/ccyBlhzN.s:64     .text:0000000000000054 .LBE8
     /tmp/ccyBlhzN.s:68     .text:0000000000000054 .LBB9
     /tmp/ccyBlhzN.s:84     .text:0000000000000078 .LBE9

UNDEFINED SYMBOLS
_Z15thread_dispatchv
_ZN8KConsole2drE
_ZN8KConsole20outputBufferHasSpaceE
_Z10sem_signalP4KSem
_ZN8KConsole13getFromOutputEv
_ZN8KConsole2srE
interruptHandler
_ZN7KMemory16initializeMemoryEv
_ZN8KConsole12initKConsoleEv
_Z13thread_createPP3TCBPFvPvES2_
_ZN3TCB7runningE
_Z8userMainv
_Z11thread_joinP3TCB
_ZN8KConsole10outputHeadE
_ZN8KConsole10outputTailE
