GAS LISTING /tmp/ccgOputz.s 			page 1


   1              		.file	"maincpp.cpp"
   2              		.option pic
   3              		.option norelax
   4              		.text
   5              	.Ltext0:
   6              		.align	2
   7              		.globl	main
   9              	main:
  10              	.LFB54:
  11              		.file 1 "src/maincpp.cpp"
   1:src/maincpp.cpp **** //
   2:src/maincpp.cpp **** // Created by os on 6/27/23.
   3:src/maincpp.cpp **** //
   4:src/maincpp.cpp **** #include "../lib/hw.h"
   5:src/maincpp.cpp **** #include "../h/Riscv.hpp"
   6:src/maincpp.cpp **** #include "../h/KMemory.hpp"
   7:src/maincpp.cpp **** #include "../h/KConsole.hpp"
   8:src/maincpp.cpp **** #include "../h/TCB.hpp"
   9:src/maincpp.cpp **** #include "../h/syscall_c.hpp"
  10:src/maincpp.cpp **** #include "../h/syscall_cpp.hpp"
  11:src/maincpp.cpp **** 
  12:src/maincpp.cpp **** class IdleThread : public Thread {
  13:src/maincpp.cpp ****     void run() override {
  14:src/maincpp.cpp ****         while (1) { thread_dispatch(); }
  15:src/maincpp.cpp ****     }
  16:src/maincpp.cpp **** };
  17:src/maincpp.cpp **** 
  18:src/maincpp.cpp **** class KernelConsumer : public Thread {
  19:src/maincpp.cpp ****     void run() override {
  20:src/maincpp.cpp ****         while (1) {
  21:src/maincpp.cpp ****             char c = KConsole::getFromOutput();
  22:src/maincpp.cpp ****             while (!(KConsole::getSRvalue() & CONSOLE_TX_STATUS_BIT)) {}
  23:src/maincpp.cpp ****             KConsole::setDRvalue(c);
  24:src/maincpp.cpp ****             sem_signal(KConsole::getOutputBufferHasSpace());
  25:src/maincpp.cpp ****         }
  26:src/maincpp.cpp ****     }
  27:src/maincpp.cpp **** };
  28:src/maincpp.cpp **** 
  29:src/maincpp.cpp **** extern "C" void interruptHandler();
  30:src/maincpp.cpp **** 
  31:src/maincpp.cpp **** void userMain();
  32:src/maincpp.cpp **** 
  33:src/maincpp.cpp **** int main() {
  12              		.loc 1 33 12
  13              		.cfi_startproc
  14              		.cfi_personality 0x9b,DW.ref.__gxx_personality_v0
  15              		.cfi_lsda 0x1b,.LLSDA54
  16 0000 130101FC 		addi	sp,sp,-64
  17              		.cfi_def_cfa_offset 64
  18 0004 233C1102 		sd	ra,56(sp)
  19 0008 23388102 		sd	s0,48(sp)
  20 000c 23349102 		sd	s1,40(sp)
  21 0010 23302103 		sd	s2,32(sp)
  22 0014 233C3101 		sd	s3,24(sp)
  23              		.cfi_offset 1, -8
  24              		.cfi_offset 8, -16
  25              		.cfi_offset 9, -24
GAS LISTING /tmp/ccgOputz.s 			page 2


  26              		.cfi_offset 18, -32
  27              		.cfi_offset 19, -40
  28 0018 13040104 		addi	s0,sp,64
  29              		.cfi_def_cfa 8, 0
  34:src/maincpp.cpp **** //postavljanje adrese prekidne rutine u stvec
  35:src/maincpp.cpp ****     __asm__ volatile("csrw stvec, %[handler]": :[handler] "r"(&interruptHandler));
  30              		.loc 1 35 5
  31              		.loc 1 35 82 is_stmt 0
  32 001c 97070000 		la	a5,interruptHandler
  32      83B70700 
  33              	#APP
  34              	# 35 "src/maincpp.cpp" 1
  36              	
  37:src/maincpp.cpp ****     //inicijalizacija alokatora memorije
  38:src/maincpp.cpp ****     KMemory::initializeMemory();
  35              		csrw stvec, a5
  36              	# 0 "" 2
  37              		.loc 1 38 5 is_stmt 1
  38              	.LEHB0:
  39              		.loc 1 38 30 is_stmt 0
  40              	#NO_APP
  41 0028 97000000 		call	_ZN7KMemory16initializeMemoryEv@plt
  41      E7800000 
  42              	.LVL0:
  39:src/maincpp.cpp **** 
  40:src/maincpp.cpp ****     //inicijalizacija komunikacije sa konzolom
  41:src/maincpp.cpp ****     KConsole::initKConsole();
  43              		.loc 1 41 5 is_stmt 1
  44              		.loc 1 41 27 is_stmt 0
  45 0030 97000000 		call	_ZN8KConsole12initKConsoleEv@plt
  45      E7800000 
  46              	.LVL1:
  42:src/maincpp.cpp **** 
  43:src/maincpp.cpp ****     //pravljenje niti
  44:src/maincpp.cpp ****     thread_t mainHandle;
  47              		.loc 1 44 5 is_stmt 1
  45:src/maincpp.cpp ****     Thread* idleHandle = new IdleThread();
  48              		.loc 1 45 5
  49              		.loc 1 45 41 is_stmt 0
  50 0038 13050002 		li	a0,32
  51 003c 97000000 		call	_Znwm@plt
  51      E7800000 
  52              	.LVL2:
  53              	.LEHE0:
  54 0044 13090500 		mv	s2,a0
  55 0048 23300500 		sd	zero,0(a0)
  56 004c 23340500 		sd	zero,8(a0)
  57 0050 23380500 		sd	zero,16(a0)
  58 0054 233C0500 		sd	zero,24(a0)
  59              	.LVL3:
  60              	.LEHB1:
  61              	.LBB31:
  62              	.LBB32:
  12:src/maincpp.cpp ****     void run() override {
  63              		.loc 1 12 7
  64 0058 97000000 		call	_ZN6ThreadC2Ev@plt
  64      E7800000 
GAS LISTING /tmp/ccgOputz.s 			page 3


  65              	.LVL4:
  66              	.LEHE1:
  67 0060 97070000 		lla	a5,_ZTV10IdleThread+16
  67      93870700 
  68 0068 2330F900 		sd	a5,0(s2)
  69              	.LVL5:
  70              	.LBE32:
  71              	.LBE31:
  46:src/maincpp.cpp ****     Thread* consoleOutputHandle = new KernelConsumer();
  72              		.loc 1 46 5 is_stmt 1
  73              		.loc 1 46 54 is_stmt 0
  74 006c 13050002 		li	a0,32
  75              	.LEHB2:
  76 0070 97000000 		call	_Znwm@plt
  76      E7800000 
  77              	.LVL6:
  78              	.LEHE2:
  79 0078 93040500 		mv	s1,a0
  80 007c 23300500 		sd	zero,0(a0)
  81 0080 23340500 		sd	zero,8(a0)
  82 0084 23380500 		sd	zero,16(a0)
  83 0088 233C0500 		sd	zero,24(a0)
  84              	.LVL7:
  85              	.LEHB3:
  86              	.LBB33:
  87              	.LBB34:
  18:src/maincpp.cpp ****     void run() override {
  88              		.loc 1 18 7
  89 008c 97000000 		call	_ZN6ThreadC2Ev@plt
  89      E7800000 
  90              	.LVL8:
  91              	.LEHE3:
  92 0094 97070000 		lla	a5,_ZTV14KernelConsumer+16
  92      93870700 
  93 009c 23B0F400 		sd	a5,0(s1)
  94              	.LVL9:
  95              	.LBE34:
  96              	.LBE33:
  47:src/maincpp.cpp ****     Thread* userThr = new Thread((TCB::Body)userMain, nullptr);
  97              		.loc 1 47 5 is_stmt 1
  98              		.loc 1 47 62 is_stmt 0
  99 00a0 13050002 		li	a0,32
 100              	.LEHB4:
 101 00a4 97000000 		call	_Znwm@plt
 101      E7800000 
 102              	.LVL10:
 103              	.LEHE4:
 104 00ac 93090500 		mv	s3,a0
 105 00b0 13060000 		li	a2,0
 106 00b4 97050000 		la	a1,_Z8userMainv
 106      83B50500 
 107              	.LEHB5:
 108 00bc 97000000 		call	_ZN6ThreadC1EPFvPvES0_@plt
 108      E7800000 
 109              	.LVL11:
 110              	.LEHE5:
 111 00c4 6F008005 		j	.L11
GAS LISTING /tmp/ccgOputz.s 			page 4


 112              	.LVL12:
 113              	.L5:
 114 00c8 93040500 		mv	s1,a0
  45:src/maincpp.cpp ****     Thread* consoleOutputHandle = new KernelConsumer();
 115              		.loc 1 45 41
 116 00cc 13050900 		mv	a0,s2
 117 00d0 97000000 		call	_ZdlPv@plt
 117      E7800000 
 118              	.LVL13:
 119 00d8 13850400 		mv	a0,s1
 120              	.LEHB6:
 121 00dc 97000000 		call	_Unwind_Resume@plt
 121      E7800000 
 122              	.LVL14:
 123              	.L6:
 124 00e4 13090500 		mv	s2,a0
 125              	.LVL15:
  46:src/maincpp.cpp ****     Thread* userThr = new Thread((TCB::Body)userMain, nullptr);
 126              		.loc 1 46 54
 127 00e8 13850400 		mv	a0,s1
 128 00ec 97000000 		call	_ZdlPv@plt
 128      E7800000 
 129              	.LVL16:
 130 00f4 13050900 		mv	a0,s2
 131 00f8 97000000 		call	_Unwind_Resume@plt
 131      E7800000 
 132              	.LVL17:
 133              	.L7:
 134 0100 93040500 		mv	s1,a0
 135              	.LVL18:
 136              		.loc 1 47 62
 137 0104 13850900 		mv	a0,s3
 138 0108 97000000 		call	_ZdlPv@plt
 138      E7800000 
 139              	.LVL19:
 140 0110 13850400 		mv	a0,s1
 141 0114 97000000 		call	_Unwind_Resume@plt
 141      E7800000 
 142              	.LVL20:
 143              	.L11:
  48:src/maincpp.cpp ****     thread_create(&mainHandle, (TCB::Body)main, nullptr);
 144              		.loc 1 48 5 is_stmt 1 discriminator 3
 145              		.loc 1 48 18 is_stmt 0 discriminator 3
 146 011c 13060000 		li	a2,0
 147 0120 97050000 		lla	a1,main
 147      93850500 
 148 0128 130584FC 		addi	a0,s0,-56
 149 012c 97000000 		call	_Z13thread_createPP3TCBPFvPvES2_@plt
 149      E7800000 
 150              	.LVL21:
  49:src/maincpp.cpp ****     TCB::setRunning(mainHandle);
 151              		.loc 1 49 5 is_stmt 1 discriminator 3
 152              		.loc 1 49 20 is_stmt 0 discriminator 3
 153 0134 833784FC 		ld	a5,-56(s0)
 154              	.LVL22:
 155              	.LBB35:
 156              	.LBB36:
GAS LISTING /tmp/ccgOputz.s 			page 5


 157              		.file 2 "src/../h/TCB.hpp"
   1:src/../h/TCB.hpp **** //
   2:src/../h/TCB.hpp **** // Created by os on 5/23/23.
   3:src/../h/TCB.hpp **** //
   4:src/../h/TCB.hpp **** 
   5:src/../h/TCB.hpp **** #ifndef PROJEKAT2023_TCB_HPP
   6:src/../h/TCB.hpp **** #define PROJEKAT2023_TCB_HPP
   7:src/../h/TCB.hpp **** 
   8:src/../h/TCB.hpp **** #include "../lib/hw.h"
   9:src/../h/TCB.hpp **** #include "../h/ThreadQueue.hpp"
  10:src/../h/TCB.hpp **** 
  11:src/../h/TCB.hpp **** int main();
  12:src/../h/TCB.hpp **** 
  13:src/../h/TCB.hpp **** class TCB {
  14:src/../h/TCB.hpp **** public:
  15:src/../h/TCB.hpp ****     friend class Scheduler;
  16:src/../h/TCB.hpp **** 
  17:src/../h/TCB.hpp ****     using Body = void (*)(void*);
  18:src/../h/TCB.hpp **** 
  19:src/../h/TCB.hpp ****     enum ThreadStatus {
  20:src/../h/TCB.hpp ****         CREATED, ACTIVE, BLOCKED, JOINING, SLEEPING, FINISHED
  21:src/../h/TCB.hpp ****     };
  22:src/../h/TCB.hpp **** 
  23:src/../h/TCB.hpp ****     static TCB* createThread(Body function, void* args, uint64* stack);
  24:src/../h/TCB.hpp **** 
  25:src/../h/TCB.hpp ****     void setStatus(ThreadStatus stat) { this->status = stat; }
  26:src/../h/TCB.hpp **** 
  27:src/../h/TCB.hpp ****     ThreadStatus getStatus() { return this->status; }
  28:src/../h/TCB.hpp **** 
  29:src/../h/TCB.hpp ****     uint64 getTimeSlice() { return timeSlice; }
  30:src/../h/TCB.hpp **** 
  31:src/../h/TCB.hpp ****     Body getBody() { return threadFunction; }
  32:src/../h/TCB.hpp **** 
  33:src/../h/TCB.hpp ****     ThreadQueue* getListOfJoiningThreads(){return &waitingToJoin;}
  34:src/../h/TCB.hpp **** 
  35:src/../h/TCB.hpp ****     static TCB* getRunning() { return running; }
  36:src/../h/TCB.hpp **** 
  37:src/../h/TCB.hpp ****     static void setRunning(TCB* newRunning) { running = newRunning; }
 158              		.loc 2 37 47 is_stmt 1 discriminator 3
 159              		.loc 2 37 55 is_stmt 0 discriminator 3
 160 0138 17070000 		la	a4,_ZN3TCB7runningE
 160      03370700 
 161 0140 2330F700 		sd	a5,0(a4)
 162              	.LVL23:
 163              	.LBE36:
 164              	.LBE35:
  50:src/maincpp.cpp ****     mainHandle->setStatus(TCB::ACTIVE);
 165              		.loc 1 50 5 is_stmt 1 discriminator 3
 166              	.LBB37:
 167              	.LBB38:
  25:src/../h/TCB.hpp **** 
 168              		.loc 2 25 41 discriminator 3
  25:src/../h/TCB.hpp **** 
 169              		.loc 2 25 54 is_stmt 0 discriminator 3
 170 0144 13071000 		li	a4,1
 171 0148 23ACE704 		sw	a4,88(a5)
 172              	.LVL24:
GAS LISTING /tmp/ccgOputz.s 			page 6


 173              	.LBE38:
 174              	.LBE37:
  51:src/maincpp.cpp ****     idleHandle->start();
 175              		.loc 1 51 5 is_stmt 1 discriminator 3
 176              		.loc 1 51 22 is_stmt 0 discriminator 3
 177 014c 13050900 		mv	a0,s2
 178 0150 97000000 		call	_ZN6Thread5startEv@plt
 178      E7800000 
 179              	.LVL25:
  52:src/maincpp.cpp ****     consoleOutputHandle->start();
 180              		.loc 1 52 5 is_stmt 1 discriminator 3
 181              		.loc 1 52 31 is_stmt 0 discriminator 3
 182 0158 13850400 		mv	a0,s1
 183 015c 97000000 		call	_ZN6Thread5startEv@plt
 183      E7800000 
 184              	.LVL26:
  53:src/maincpp.cpp ****     userThr->start();
 185              		.loc 1 53 5 is_stmt 1 discriminator 3
 186              		.loc 1 53 19 is_stmt 0 discriminator 3
 187 0164 13850900 		mv	a0,s3
 188 0168 97000000 		call	_ZN6Thread5startEv@plt
 188      E7800000 
 189              	.LVL27:
  54:src/maincpp.cpp **** 
  55:src/maincpp.cpp ****     //omogucavanje prekida
  56:src/maincpp.cpp ****     Riscv::ms_sstatus(Riscv::SSTATUS_SIE);
 190              		.loc 1 56 5 is_stmt 1 discriminator 3
 191              	.LBB39:
 192              	.LBB40:
 193              		.file 3 "src/../h/Riscv.hpp"
   1:src/../h/Riscv.hpp **** //
   2:src/../h/Riscv.hpp **** // Created by os on 5/17/23.
   3:src/../h/Riscv.hpp **** //
   4:src/../h/Riscv.hpp **** 
   5:src/../h/Riscv.hpp **** #ifndef PROJEKAT2023_RISCV_HPP
   6:src/../h/Riscv.hpp **** #define PROJEKAT2023_RISCV_HPP
   7:src/../h/Riscv.hpp **** 
   8:src/../h/Riscv.hpp **** #include "../lib/hw.h"
   9:src/../h/Riscv.hpp **** 
  10:src/../h/Riscv.hpp **** class Riscv {
  11:src/../h/Riscv.hpp **** public:
  12:src/../h/Riscv.hpp **** 
  13:src/../h/Riscv.hpp **** 	static void returnFromInterrupt();
  14:src/../h/Riscv.hpp **** 
  15:src/../h/Riscv.hpp **** 	//read scause
  16:src/../h/Riscv.hpp **** 	static uint64 r_scause();
  17:src/../h/Riscv.hpp **** 
  18:src/../h/Riscv.hpp **** 	//write scause
  19:src/../h/Riscv.hpp **** 	static void w_scause(uint64 scause);
  20:src/../h/Riscv.hpp **** 
  21:src/../h/Riscv.hpp **** 	//read sepc
  22:src/../h/Riscv.hpp **** 	static uint64 r_sepc();
  23:src/../h/Riscv.hpp **** 
  24:src/../h/Riscv.hpp **** 	//write sepc
  25:src/../h/Riscv.hpp **** 	static void w_sepc(uint64 sepc);
  26:src/../h/Riscv.hpp **** 
  27:src/../h/Riscv.hpp **** 	//read stvec
GAS LISTING /tmp/ccgOputz.s 			page 7


  28:src/../h/Riscv.hpp **** 	static uint64 r_stvec();
  29:src/../h/Riscv.hpp **** 
  30:src/../h/Riscv.hpp **** 	//write stvec
  31:src/../h/Riscv.hpp **** 	static void w_stvec(uint64 stvec);
  32:src/../h/Riscv.hpp **** 
  33:src/../h/Riscv.hpp **** 	enum BitMaskSip {
  34:src/../h/Riscv.hpp **** 		//postoji zahtev za softverski prekid
  35:src/../h/Riscv.hpp **** 		SIP_SSIP = (1 << 1),
  36:src/../h/Riscv.hpp **** 		//postoji prekid od tajmera
  37:src/../h/Riscv.hpp **** 		SIP_STIP = (1 << 5),
  38:src/../h/Riscv.hpp **** 		//postoji zahtev za spoljasnji hardverski prekid
  39:src/../h/Riscv.hpp **** 		SIP_SEIP = (1 << 9)
  40:src/../h/Riscv.hpp **** 	};
  41:src/../h/Riscv.hpp **** 
  42:src/../h/Riscv.hpp **** 	//mask set sip
  43:src/../h/Riscv.hpp **** 	static void ms_sip(uint64 mask);
  44:src/../h/Riscv.hpp **** 
  45:src/../h/Riscv.hpp **** 	//mask clear sip
  46:src/../h/Riscv.hpp **** 	static void mc_sip(uint64 mask);
  47:src/../h/Riscv.hpp **** 
  48:src/../h/Riscv.hpp **** 	//read sip
  49:src/../h/Riscv.hpp **** 	static uint64 r_sip();
  50:src/../h/Riscv.hpp **** 
  51:src/../h/Riscv.hpp **** 	//write sip
  52:src/../h/Riscv.hpp **** 	static void w_sip(uint64 sip);
  53:src/../h/Riscv.hpp **** 
  54:src/../h/Riscv.hpp **** 	//kada se pozove sret, SIE dobija vrednost SPIE, SPIE se postavlja na 1,
  55:src/../h/Riscv.hpp **** 	//rezim se postavlja na osnovu SPP bita, SPP se postavlja na 0
  56:src/../h/Riscv.hpp **** 	enum BitMaskSstatus {
  57:src/../h/Riscv.hpp **** 		//1 - dozvoljeni prekidi; 0- nedozvoljeni prekidi; igonrise se u korisnickom rezimu
  58:src/../h/Riscv.hpp **** 		SSTATUS_SIE = (1 << 1),
  59:src/../h/Riscv.hpp **** 		//prethodna vrednost bita SIE
  60:src/../h/Riscv.hpp **** 		SSTATUS_SPIE = (1 << 5),
  61:src/../h/Riscv.hpp **** 		//iz kog rezima se desio skok; 0 - iz korisnickog; 1 - iz sistemskog
  62:src/../h/Riscv.hpp **** 		SSTATUS_SPP = (1 << 8)
  63:src/../h/Riscv.hpp **** 	};
  64:src/../h/Riscv.hpp **** 
  65:src/../h/Riscv.hpp **** 	//mask set sstatus
  66:src/../h/Riscv.hpp **** 	static void ms_sstatus(uint64 mask);
  67:src/../h/Riscv.hpp **** 
  68:src/../h/Riscv.hpp **** 	//mask clear sstatus
  69:src/../h/Riscv.hpp **** 	static void mc_sstatus(uint64 mask);
  70:src/../h/Riscv.hpp **** 
  71:src/../h/Riscv.hpp **** 	//read sstatus
  72:src/../h/Riscv.hpp **** 	static uint64 r_sstatus();
  73:src/../h/Riscv.hpp **** 
  74:src/../h/Riscv.hpp **** 	//write sstatus
  75:src/../h/Riscv.hpp **** 	static void w_sstatus(uint64 sstatus);
  76:src/../h/Riscv.hpp **** 
  77:src/../h/Riscv.hpp **** };
  78:src/../h/Riscv.hpp **** 
  79:src/../h/Riscv.hpp **** inline uint64 Riscv::r_scause() {
  80:src/../h/Riscv.hpp **** 	uint64 volatile scause;
  81:src/../h/Riscv.hpp **** 	__asm__ volatile("csrr %[scause], scause": [scause] "=r"(scause));
  82:src/../h/Riscv.hpp **** 	return scause;
  83:src/../h/Riscv.hpp **** }
  84:src/../h/Riscv.hpp **** 
GAS LISTING /tmp/ccgOputz.s 			page 8


  85:src/../h/Riscv.hpp **** inline void Riscv::w_scause(uint64 scause) {
  86:src/../h/Riscv.hpp **** 	__asm__ volatile("csrw scause, %[scause]": :[scause] "r"(scause));
  87:src/../h/Riscv.hpp **** }
  88:src/../h/Riscv.hpp **** 
  89:src/../h/Riscv.hpp **** inline uint64 Riscv::r_sepc() {
  90:src/../h/Riscv.hpp **** 	uint64 volatile sepc;
  91:src/../h/Riscv.hpp **** 	__asm__ volatile("csrr %[sepc], sepc": [sepc] "=r"(sepc));
  92:src/../h/Riscv.hpp **** 	return sepc;
  93:src/../h/Riscv.hpp **** }
  94:src/../h/Riscv.hpp **** 
  95:src/../h/Riscv.hpp **** inline void Riscv::w_sepc(uint64 sepc) {
  96:src/../h/Riscv.hpp **** 	__asm__ volatile("csrw sepc, %[sepc]": :[sepc] "r"(sepc));
  97:src/../h/Riscv.hpp **** }
  98:src/../h/Riscv.hpp **** 
  99:src/../h/Riscv.hpp **** inline uint64 Riscv::r_stvec() {
 100:src/../h/Riscv.hpp **** 	uint64 volatile stvec;
 101:src/../h/Riscv.hpp **** 	__asm__ volatile("csrr %[stvec], stvec": [stvec] "=r"(stvec));
 102:src/../h/Riscv.hpp **** 	return stvec;
 103:src/../h/Riscv.hpp **** }
 104:src/../h/Riscv.hpp **** 
 105:src/../h/Riscv.hpp **** inline void Riscv::w_stvec(uint64 stvec) {
 106:src/../h/Riscv.hpp **** 	__asm__ volatile("csrw stvec, %[stvec]": :[stvec] "r"(stvec));
 107:src/../h/Riscv.hpp **** }
 108:src/../h/Riscv.hpp **** 
 109:src/../h/Riscv.hpp **** inline void Riscv::ms_sip(uint64 mask) {
 110:src/../h/Riscv.hpp **** 	__asm__ volatile("csrs sip, %[mask]": :[mask] "r"(mask));
 111:src/../h/Riscv.hpp **** }
 112:src/../h/Riscv.hpp **** 
 113:src/../h/Riscv.hpp **** inline void Riscv::mc_sip(uint64 mask) {
 114:src/../h/Riscv.hpp **** 	__asm__ volatile("csrc sip, %[mask]": :[mask] "r"(mask));
 115:src/../h/Riscv.hpp **** }
 116:src/../h/Riscv.hpp **** 
 117:src/../h/Riscv.hpp **** inline uint64 Riscv::r_sip() {
 118:src/../h/Riscv.hpp **** 	uint64 volatile sip;
 119:src/../h/Riscv.hpp **** 	__asm__ volatile("csrr %[sip], sip": [sip] "=r"(sip));
 120:src/../h/Riscv.hpp **** 	return sip;
 121:src/../h/Riscv.hpp **** }
 122:src/../h/Riscv.hpp **** 
 123:src/../h/Riscv.hpp **** inline void Riscv::w_sip(uint64 sip) {
 124:src/../h/Riscv.hpp **** 	__asm__ volatile("csrw sip, %[sip]": :[sip] "r"(sip));
 125:src/../h/Riscv.hpp **** }
 126:src/../h/Riscv.hpp **** 
 127:src/../h/Riscv.hpp **** inline void Riscv::ms_sstatus(uint64 mask) {
 128:src/../h/Riscv.hpp **** 	__asm__ volatile("csrs sstatus, %[mask]": :[mask] "r"(mask));
 194              		.loc 3 128 2 discriminator 3
 195              		.loc 3 128 62 is_stmt 0 discriminator 3
 196 0170 93042000 		li	s1,2
 197              	.LVL28:
 198              	#APP
 199              	# 128 "src/../h/Riscv.hpp" 1
 129              	}
 200              		csrs sstatus, s1
 201              	# 0 "" 2
 202              	.LVL29:
 203              	#NO_APP
 204              	.LBE40:
 205              	.LBE39:
GAS LISTING /tmp/ccgOputz.s 			page 9


  57:src/maincpp.cpp **** 
  58:src/maincpp.cpp ****     //cekanje da se userMain zavrsi
  59:src/maincpp.cpp ****     userThr->join();
 206              		.loc 1 59 5 is_stmt 1 discriminator 3
 207              		.loc 1 59 18 is_stmt 0 discriminator 3
 208 0178 13850900 		mv	a0,s3
 209 017c 97000000 		call	_ZN6Thread4joinEv@plt
 209      E7800000 
 210              	.LVL30:
 211              	.LEHE6:
  60:src/maincpp.cpp **** 
  61:src/maincpp.cpp ****     //flush output bafera za konzolu
  62:src/maincpp.cpp ****     KConsole::flush();
 212              		.loc 1 62 5 is_stmt 1 discriminator 3
 213              	.LBB41:
 214              	.LBB42:
 215              		.file 4 "src/../h/KConsole.hpp"
   1:src/../h/KConsole.hpp **** //
   2:src/../h/KConsole.hpp **** // Created by os on 6/7/23.
   3:src/../h/KConsole.hpp **** //
   4:src/../h/KConsole.hpp **** 
   5:src/../h/KConsole.hpp **** #ifndef PROJEKAT2023_KCONSOLE_HPP
   6:src/../h/KConsole.hpp **** #define PROJEKAT2023_KCONSOLE_HPP
   7:src/../h/KConsole.hpp **** 
   8:src/../h/KConsole.hpp **** #include "../lib/hw.h"
   9:src/../h/KConsole.hpp **** 
  10:src/../h/KConsole.hpp **** class KSem;
  11:src/../h/KConsole.hpp **** 
  12:src/../h/KConsole.hpp **** typedef KSem* sem_t;
  13:src/../h/KConsole.hpp **** 
  14:src/../h/KConsole.hpp **** class KConsole {
  15:src/../h/KConsole.hpp **** public:
  16:src/../h/KConsole.hpp ****     static void initKConsole();
  17:src/../h/KConsole.hpp **** 
  18:src/../h/KConsole.hpp ****     //stavlja karakter u izlazni bafer konzole
  19:src/../h/KConsole.hpp ****     static void kputc(char c);
  20:src/../h/KConsole.hpp **** 
  21:src/../h/KConsole.hpp ****     //uzima karakter iz ulaznog bafera konzole
  22:src/../h/KConsole.hpp ****     static char kgetc();
  23:src/../h/KConsole.hpp **** 
  24:src/../h/KConsole.hpp ****     //vraca karakter iz izlaznog bafera; ako je bafer prazan, blokira se dok se ne napuni
  25:src/../h/KConsole.hpp ****     static char getFromOutput();
  26:src/../h/KConsole.hpp **** 
  27:src/../h/KConsole.hpp ****     //stavlja karakter u ulazni bafer; ako je bafer pun, ignorise se
  28:src/../h/KConsole.hpp ****     static void placeInInput(char c);
  29:src/../h/KConsole.hpp **** 
  30:src/../h/KConsole.hpp ****     //ispis svih preostalih karaktera u izlaznom baferu
  31:src/../h/KConsole.hpp ****     static void flush() {
  32:src/../h/KConsole.hpp ****         __asm__ volatile("li a0, 0x43");
 216              		.loc 4 32 9 discriminator 3
 217              		.loc 4 32 40 is_stmt 0 discriminator 3
 218              	#APP
 219              	# 32 "src/../h/KConsole.hpp" 1
  33              	        __asm__ volatile("ecall");
 220              		li a0, 0x43
 221              	# 0 "" 2
 222              		.loc 4 33 9 is_stmt 1 discriminator 3
GAS LISTING /tmp/ccgOputz.s 			page 10


 223              		.loc 4 33 34 is_stmt 0 discriminator 3
 224              	# 33 "src/../h/KConsole.hpp" 1
  34              	    }
 225              		ecall
 226              	# 0 "" 2
 227              	#NO_APP
 228              	.LBE42:
 229              	.LBE41:
  63:src/maincpp.cpp **** 
  64:src/maincpp.cpp ****     //maskiranje svih prekida
  65:src/maincpp.cpp ****     Riscv::mc_sstatus(Riscv::SSTATUS_SIE);
 230              		.loc 1 65 5 is_stmt 1 discriminator 3
 231              	.LVL31:
 232              	.LBB43:
 233              	.LBB44:
 130:src/../h/Riscv.hpp **** 
 131:src/../h/Riscv.hpp **** inline void Riscv::mc_sstatus(uint64 mask) {
 132:src/../h/Riscv.hpp **** 	__asm__ volatile("csrc sstatus, %[mask]": :[mask] "r"(mask));
 234              		.loc 3 132 2 discriminator 3
 235              		.loc 3 132 62 is_stmt 0 discriminator 3
 236              	#APP
 237              	# 132 "src/../h/Riscv.hpp" 1
 133              	}
 238              		csrc sstatus, s1
 239              	# 0 "" 2
 240              	.LVL32:
 241              	#NO_APP
 242              	.LBE44:
 243              	.LBE43:
  66:src/maincpp.cpp **** 
  67:src/maincpp.cpp ****     return 0;
 244              		.loc 1 67 5 is_stmt 1 discriminator 3
  68:src/maincpp.cpp **** }...
 245              		.loc 1 68 1 is_stmt 0 discriminator 3
 246 0190 13050000 		li	a0,0
 247 0194 83308103 		ld	ra,56(sp)
 248              		.cfi_restore 1
 249 0198 03340103 		ld	s0,48(sp)
 250              		.cfi_restore 8
 251              		.cfi_def_cfa 2, 64
 252 019c 83348102 		ld	s1,40(sp)
 253              		.cfi_restore 9
 254 01a0 03390102 		ld	s2,32(sp)
 255              		.cfi_restore 18
 256              	.LVL33:
 257 01a4 83398101 		ld	s3,24(sp)
 258              		.cfi_restore 19
 259              	.LVL34:
 260 01a8 13010104 		addi	sp,sp,64
 261              		.cfi_def_cfa_offset 0
 262 01ac 67800000 		jr	ra
 263              		.cfi_endproc
 264              	.LFE54:
 265              		.globl	__gxx_personality_v0
 266              		.section	.gcc_except_table,"a",@progbits
 267              	.LLSDA54:
 268 0000 FF       		.byte	0xff
GAS LISTING /tmp/ccgOputz.s 			page 11


 269 0001 FF       		.byte	0xff
 270 0002 03       		.byte	0x3
 271 0003 5B       		.byte	0x5b
 272 0004 00000000 		.4byte	.LEHB0-.LFB54
 273 0008 00000000 		.4byte	.LEHE0-.LEHB0
 274 000c 00000000 		.4byte	0
 275 0010 00       		.byte	0
 276 0011 00000000 		.4byte	.LEHB1-.LFB54
 277 0015 00000000 		.4byte	.LEHE1-.LEHB1
 278 0019 00000000 		.4byte	.L5-.LFB54
 279 001d 00       		.byte	0
 280 001e 00000000 		.4byte	.LEHB2-.LFB54
 281 0022 00000000 		.4byte	.LEHE2-.LEHB2
 282 0026 00000000 		.4byte	0
 283 002a 00       		.byte	0
 284 002b 00000000 		.4byte	.LEHB3-.LFB54
 285 002f 00000000 		.4byte	.LEHE3-.LEHB3
 286 0033 00000000 		.4byte	.L6-.LFB54
 287 0037 00       		.byte	0
 288 0038 00000000 		.4byte	.LEHB4-.LFB54
 289 003c 00000000 		.4byte	.LEHE4-.LEHB4
 290 0040 00000000 		.4byte	0
 291 0044 00       		.byte	0
 292 0045 00000000 		.4byte	.LEHB5-.LFB54
 293 0049 00000000 		.4byte	.LEHE5-.LEHB5
 294 004d 00000000 		.4byte	.L7-.LFB54
 295 0051 00       		.byte	0
 296 0052 00000000 		.4byte	.LEHB6-.LFB54
 297 0056 00000000 		.4byte	.LEHE6-.LEHB6
 298 005a 00000000 		.4byte	0
 299 005e 00       		.byte	0
 300              		.text
 302              		.section	.text._ZN10IdleThread3runEv,"axG",@progbits,_ZN10IdleThread3runEv,comdat
 303              		.align	2
 304              		.weak	_ZN10IdleThread3runEv
 306              	_ZN10IdleThread3runEv:
 307              	.LFB52:
  13:src/maincpp.cpp ****     void run() override {
 308              		.loc 1 13 10 is_stmt 1
 309              		.cfi_startproc
 310              	.LVL35:
 311 0000 130101FF 		addi	sp,sp,-16
 312              		.cfi_def_cfa_offset 16
 313 0004 23341100 		sd	ra,8(sp)
 314 0008 23308100 		sd	s0,0(sp)
 315              		.cfi_offset 1, -8
 316              		.cfi_offset 8, -16
 317 000c 13040101 		addi	s0,sp,16
 318              		.cfi_def_cfa 8, 0
 319              	.LVL36:
 320              	.L13:
  14:src/maincpp.cpp ****         while (1) { thread_dispatch(); }
 321              		.loc 1 14 9 discriminator 1
  14:src/maincpp.cpp ****         while (1) { thread_dispatch(); }
 322              		.loc 1 14 21 discriminator 1
  14:src/maincpp.cpp ****         while (1) { thread_dispatch(); }
 323              		.loc 1 14 36 is_stmt 0 discriminator 1
GAS LISTING /tmp/ccgOputz.s 			page 12


 324 0010 97000000 		call	_Z15thread_dispatchv@plt
 324      E7800000 
 325              	.LVL37:
  14:src/maincpp.cpp ****         while (1) { thread_dispatch(); }
 326              		.loc 1 14 9 is_stmt 1 discriminator 1
 327 0018 6FF09FFF 		j	.L13
 328              		.cfi_endproc
 329              	.LFE52:
 331              		.section	.text._ZN10IdleThreadD2Ev,"axG",@progbits,_ZN10IdleThreadD5Ev,comdat
 332              		.align	2
 333              		.weak	_ZN10IdleThreadD2Ev
 335              	_ZN10IdleThreadD2Ev:
 336              	.LFB66:
  12:src/maincpp.cpp **** class IdleThread : public Thread {
 337              		.loc 1 12 7
 338              		.cfi_startproc
 339              	.LVL38:
 340 0000 130101FF 		addi	sp,sp,-16
 341              		.cfi_def_cfa_offset 16
 342 0004 23341100 		sd	ra,8(sp)
 343 0008 23308100 		sd	s0,0(sp)
 344              		.cfi_offset 1, -8
 345              		.cfi_offset 8, -16
 346 000c 13040101 		addi	s0,sp,16
 347              		.cfi_def_cfa 8, 0
 348              	.LBB45:
  12:src/maincpp.cpp **** class IdleThread : public Thread {
 349              		.loc 1 12 7 is_stmt 0
 350 0010 97070000 		lla	a5,_ZTV10IdleThread+16
 350      93870700 
 351 0018 2330F500 		sd	a5,0(a0)
 352 001c 97000000 		call	_ZN6ThreadD2Ev@plt
 352      E7800000 
 353              	.LVL39:
 354              	.LBE45:
 355 0024 83308100 		ld	ra,8(sp)
 356              		.cfi_restore 1
 357 0028 03340100 		ld	s0,0(sp)
 358              		.cfi_restore 8
 359              		.cfi_def_cfa 2, 16
 360 002c 13010101 		addi	sp,sp,16
 361              		.cfi_def_cfa_offset 0
 362 0030 67800000 		jr	ra
 363              		.cfi_endproc
 364              	.LFE66:
 366              		.weak	_ZN10IdleThreadD1Ev
 367              		.set	_ZN10IdleThreadD1Ev,_ZN10IdleThreadD2Ev
 368              		.section	.text._ZN10IdleThreadD0Ev,"axG",@progbits,_ZN10IdleThreadD5Ev,comdat
 369              		.align	2
 370              		.weak	_ZN10IdleThreadD0Ev
 372              	_ZN10IdleThreadD0Ev:
 373              	.LFB68:
  12:src/maincpp.cpp **** class IdleThread : public Thread {
 374              		.loc 1 12 7 is_stmt 1
 375              		.cfi_startproc
 376              	.LVL40:
 377 0000 130101FE 		addi	sp,sp,-32
GAS LISTING /tmp/ccgOputz.s 			page 13


 378              		.cfi_def_cfa_offset 32
 379 0004 233C1100 		sd	ra,24(sp)
 380 0008 23388100 		sd	s0,16(sp)
 381 000c 23349100 		sd	s1,8(sp)
 382              		.cfi_offset 1, -8
 383              		.cfi_offset 8, -16
 384              		.cfi_offset 9, -24
 385 0010 13040102 		addi	s0,sp,32
 386              		.cfi_def_cfa 8, 0
 387 0014 93040500 		mv	s1,a0
 388              	.LVL41:
 389              	.LBB46:
 390              	.LBB47:
  12:src/maincpp.cpp **** class IdleThread : public Thread {
 391              		.loc 1 12 7 is_stmt 0
 392 0018 97070000 		lla	a5,_ZTV10IdleThread+16
 392      93870700 
 393 0020 2330F500 		sd	a5,0(a0)
 394 0024 97000000 		call	_ZN6ThreadD2Ev@plt
 394      E7800000 
 395              	.LVL42:
 396              	.LBE47:
 397              	.LBE46:
 398 002c 13850400 		mv	a0,s1
 399 0030 97000000 		call	_ZdlPv@plt
 399      E7800000 
 400              	.LVL43:
 401 0038 83308101 		ld	ra,24(sp)
 402              		.cfi_restore 1
 403 003c 03340101 		ld	s0,16(sp)
 404              		.cfi_restore 8
 405              		.cfi_def_cfa 2, 32
 406 0040 83348100 		ld	s1,8(sp)
 407              		.cfi_restore 9
 408              	.LVL44:
 409 0044 13010102 		addi	sp,sp,32
 410              		.cfi_def_cfa_offset 0
 411 0048 67800000 		jr	ra
 412              		.cfi_endproc
 413              	.LFE68:
 415              		.section	.text._ZN14KernelConsumerD2Ev,"axG",@progbits,_ZN14KernelConsumerD5Ev,comdat
 416              		.align	2
 417              		.weak	_ZN14KernelConsumerD2Ev
 419              	_ZN14KernelConsumerD2Ev:
 420              	.LFB62:
  18:src/maincpp.cpp **** class KernelConsumer : public Thread {
 421              		.loc 1 18 7 is_stmt 1
 422              		.cfi_startproc
 423              	.LVL45:
 424 0000 130101FF 		addi	sp,sp,-16
 425              		.cfi_def_cfa_offset 16
 426 0004 23341100 		sd	ra,8(sp)
 427 0008 23308100 		sd	s0,0(sp)
 428              		.cfi_offset 1, -8
 429              		.cfi_offset 8, -16
 430 000c 13040101 		addi	s0,sp,16
 431              		.cfi_def_cfa 8, 0
GAS LISTING /tmp/ccgOputz.s 			page 14


 432              	.LBB48:
  18:src/maincpp.cpp **** class KernelConsumer : public Thread {
 433              		.loc 1 18 7 is_stmt 0
 434 0010 97070000 		lla	a5,_ZTV14KernelConsumer+16
 434      93870700 
 435 0018 2330F500 		sd	a5,0(a0)
 436 001c 97000000 		call	_ZN6ThreadD2Ev@plt
 436      E7800000 
 437              	.LVL46:
 438              	.LBE48:
 439 0024 83308100 		ld	ra,8(sp)
 440              		.cfi_restore 1
 441 0028 03340100 		ld	s0,0(sp)
 442              		.cfi_restore 8
 443              		.cfi_def_cfa 2, 16
 444 002c 13010101 		addi	sp,sp,16
 445              		.cfi_def_cfa_offset 0
 446 0030 67800000 		jr	ra
 447              		.cfi_endproc
 448              	.LFE62:
 450              		.weak	_ZN14KernelConsumerD1Ev
 451              		.set	_ZN14KernelConsumerD1Ev,_ZN14KernelConsumerD2Ev
 452              		.section	.text._ZN14KernelConsumerD0Ev,"axG",@progbits,_ZN14KernelConsumerD5Ev,comdat
 453              		.align	2
 454              		.weak	_ZN14KernelConsumerD0Ev
 456              	_ZN14KernelConsumerD0Ev:
 457              	.LFB64:
  18:src/maincpp.cpp **** class KernelConsumer : public Thread {
 458              		.loc 1 18 7 is_stmt 1
 459              		.cfi_startproc
 460              	.LVL47:
 461 0000 130101FE 		addi	sp,sp,-32
 462              		.cfi_def_cfa_offset 32
 463 0004 233C1100 		sd	ra,24(sp)
 464 0008 23388100 		sd	s0,16(sp)
 465 000c 23349100 		sd	s1,8(sp)
 466              		.cfi_offset 1, -8
 467              		.cfi_offset 8, -16
 468              		.cfi_offset 9, -24
 469 0010 13040102 		addi	s0,sp,32
 470              		.cfi_def_cfa 8, 0
 471 0014 93040500 		mv	s1,a0
 472              	.LVL48:
 473              	.LBB49:
 474              	.LBB50:
  18:src/maincpp.cpp **** class KernelConsumer : public Thread {
 475              		.loc 1 18 7 is_stmt 0
 476 0018 97070000 		lla	a5,_ZTV14KernelConsumer+16
 476      93870700 
 477 0020 2330F500 		sd	a5,0(a0)
 478 0024 97000000 		call	_ZN6ThreadD2Ev@plt
 478      E7800000 
 479              	.LVL49:
 480              	.LBE50:
 481              	.LBE49:
 482 002c 13850400 		mv	a0,s1
 483 0030 97000000 		call	_ZdlPv@plt
GAS LISTING /tmp/ccgOputz.s 			page 15


 483      E7800000 
 484              	.LVL50:
 485 0038 83308101 		ld	ra,24(sp)
 486              		.cfi_restore 1
 487 003c 03340101 		ld	s0,16(sp)
 488              		.cfi_restore 8
 489              		.cfi_def_cfa 2, 32
 490 0040 83348100 		ld	s1,8(sp)
 491              		.cfi_restore 9
 492              	.LVL51:
 493 0044 13010102 		addi	sp,sp,32
 494              		.cfi_def_cfa_offset 0
 495 0048 67800000 		jr	ra
 496              		.cfi_endproc
 497              	.LFE64:
 499              		.section	.text._ZN14KernelConsumer3runEv,"axG",@progbits,_ZN14KernelConsumer3runEv,comdat
 500              		.align	2
 501              		.weak	_ZN14KernelConsumer3runEv
 503              	_ZN14KernelConsumer3runEv:
 504              	.LFB53:
  19:src/maincpp.cpp ****     void run() override {
 505              		.loc 1 19 10 is_stmt 1
 506              		.cfi_startproc
 507              	.LVL52:
 508 0000 130101FF 		addi	sp,sp,-16
 509              		.cfi_def_cfa_offset 16
 510 0004 23341100 		sd	ra,8(sp)
 511 0008 23308100 		sd	s0,0(sp)
 512              		.cfi_offset 1, -8
 513              		.cfi_offset 8, -16
 514 000c 13040101 		addi	s0,sp,16
 515              		.cfi_def_cfa 8, 0
 516 0010 6F008002 		j	.L25
 517              	.LVL53:
 518              	.L27:
 519              	.LBB51:
  23:src/maincpp.cpp ****             KConsole::setDRvalue(c);
 520              		.loc 1 23 13
 521              	.LBB52:
 522              	.LBB53:
  35:src/../h/KConsole.hpp **** 
  36:src/../h/KConsole.hpp ****     static uint8 getSRvalue() { return *sr; }
  37:src/../h/KConsole.hpp **** 
  38:src/../h/KConsole.hpp ****     static uint8 getDRvalue() { return *dr; }
  39:src/../h/KConsole.hpp **** 
  40:src/../h/KConsole.hpp ****     static void setDRvalue(char c) { *dr = c; }
 523              		.loc 4 40 38
 524 0014 97070000 		la	a5,_ZN8KConsole2drE
 524      83B70700 
 525 001c 83B70700 		ld	a5,0(a5)
 526              		.loc 4 40 42 is_stmt 0
 527 0020 2380A700 		sb	a0,0(a5)
 528              	.LVL54:
 529              	.LBE53:
 530              	.LBE52:
  24:src/maincpp.cpp ****             sem_signal(KConsole::getOutputBufferHasSpace());
 531              		.loc 1 24 13 is_stmt 1
GAS LISTING /tmp/ccgOputz.s 			page 16


 532              	.LBB54:
 533              	.LBB55:
  41:src/../h/KConsole.hpp **** 
  42:src/../h/KConsole.hpp ****     static sem_t getOutputBufferHasSpace() { return outputBufferHasSpace; }
 534              		.loc 4 42 46
 535              	.LBE55:
 536              	.LBE54:
  24:src/maincpp.cpp ****             sem_signal(KConsole::getOutputBufferHasSpace());
 537              		.loc 1 24 23 is_stmt 0
 538 0024 97070000 		la	a5,_ZN8KConsole20outputBufferHasSpaceE
 538      83B70700 
 539 002c 03B50700 		ld	a0,0(a5)
 540              	.LVL55:
 541 0030 97000000 		call	_Z10sem_signalP4KSem@plt
 541      E7800000 
 542              	.LVL56:
 543              	.LBE51:
  20:src/maincpp.cpp ****         while (1) {
 544              		.loc 1 20 9 is_stmt 1
 545              	.L25:
  20:src/maincpp.cpp ****         while (1) {
 546              		.loc 1 20 9
 547              	.LBB58:
  21:src/maincpp.cpp ****             char c = KConsole::getFromOutput();
 548              		.loc 1 21 13
  21:src/maincpp.cpp ****             char c = KConsole::getFromOutput();
 549              		.loc 1 21 45 is_stmt 0
 550 0038 97000000 		call	_ZN8KConsole13getFromOutputEv@plt
 550      E7800000 
 551              	.LVL57:
 552              	.L24:
  22:src/maincpp.cpp ****             while (!(KConsole::getSRvalue() & CONSOLE_TX_STATUS_BIT)) {}
 553              		.loc 1 22 13 is_stmt 1
  22:src/maincpp.cpp ****             while (!(KConsole::getSRvalue() & CONSOLE_TX_STATUS_BIT)) {}
 554              		.loc 1 22 20
 555              	.LBB56:
 556              	.LBB57:
  36:src/../h/KConsole.hpp **** 
 557              		.loc 4 36 33
  36:src/../h/KConsole.hpp **** 
 558              		.loc 4 36 40 is_stmt 0
 559 0040 97070000 		la	a5,_ZN8KConsole2srE
 559      83B70700 
 560 0048 83B70700 		ld	a5,0(a5)
  36:src/../h/KConsole.hpp **** 
 561              		.loc 4 36 41
 562 004c 83C70700 		lbu	a5,0(a5)
 563              	.LBE57:
 564              	.LBE56:
  22:src/maincpp.cpp ****             while (!(KConsole::getSRvalue() & CONSOLE_TX_STATUS_BIT)) {}
 565              		.loc 1 22 20
 566 0050 93F70702 		andi	a5,a5,32
 567 0054 E38607FE 		beqz	a5,.L24
 568 0058 6FF0DFFB 		j	.L27
 569              	.LBE58:
 570              		.cfi_endproc
 571              	.LFE53:
GAS LISTING /tmp/ccgOputz.s 			page 17


 573              		.weak	_ZTV10IdleThread
 574              		.section	.data.rel.ro.local._ZTV10IdleThread,"awG",@progbits,_ZTV10IdleThread,comdat
 575              		.align	3
 578              	_ZTV10IdleThread:
 579 0000 00000000 		.dword	0
 579      00000000 
 580 0008 00000000 		.dword	0
 580      00000000 
 581 0010 00000000 		.dword	_ZN10IdleThreadD1Ev
 581      00000000 
 582 0018 00000000 		.dword	_ZN10IdleThreadD0Ev
 582      00000000 
 583 0020 00000000 		.dword	_ZN10IdleThread3runEv
 583      00000000 
 584              		.weak	_ZTV14KernelConsumer
 585              		.section	.data.rel.ro.local._ZTV14KernelConsumer,"awG",@progbits,_ZTV14KernelConsumer,comdat
 586              		.align	3
 589              	_ZTV14KernelConsumer:
 590 0000 00000000 		.dword	0
 590      00000000 
 591 0008 00000000 		.dword	0
 591      00000000 
 592 0010 00000000 		.dword	_ZN14KernelConsumerD1Ev
 592      00000000 
 593 0018 00000000 		.dword	_ZN14KernelConsumerD0Ev
 593      00000000 
 594 0020 00000000 		.dword	_ZN14KernelConsumer3runEv
 594      00000000 
 595              		.text
 596              	.Letext0:
 597              		.file 5 "src/../lib/hw.h"
 598              		.file 6 "src/../h/KMemory.hpp"
 599              		.file 7 "src/../h/../h/../h/syscall_c.hpp"
 600              		.file 8 "src/../h/../h/ThreadQueue.hpp"
 601              		.file 9 "src/../h/syscall_cpp.hpp"
 4814              		.align	3
 4817              	DW.ref.__gxx_personality_v0:
 4818 0000 00000000 		.dword	__gxx_personality_v0
 4818      00000000 
 4819              		.ident	"GCC: (Ubuntu 9.4.0-1ubuntu1~20.04) 9.4.0"
 4820              		.section	.note.GNU-stack,"",@progbits
GAS LISTING /tmp/ccgOputz.s 			page 18


DEFINED SYMBOLS
                            *ABS*:0000000000000000 maincpp.cpp
     /tmp/ccgOputz.s:9      .text:0000000000000000 main
     /tmp/ccgOputz.s:13     .text:0000000000000000 .L0 
     /tmp/ccgOputz.s:4817   .data.rel.local.DW.ref.__gxx_personality_v0:0000000000000000 DW.ref.__gxx_personality_v0
     /tmp/ccgOputz.s:16     .text:0000000000000000 .L0 
     /tmp/ccgOputz.s:17     .text:0000000000000004 .L0 
     /tmp/ccgOputz.s:23     .text:0000000000000018 .L0 
     /tmp/ccgOputz.s:24     .text:0000000000000018 .L0 
     /tmp/ccgOputz.s:25     .text:0000000000000018 .L0 
     /tmp/ccgOputz.s:26     .text:0000000000000018 .L0 
     /tmp/ccgOputz.s:27     .text:0000000000000018 .L0 
     /tmp/ccgOputz.s:29     .text:000000000000001c .L0 
     /tmp/ccgOputz.s:31     .text:000000000000001c .L0 
     /tmp/ccgOputz.s:32     .text:000000000000001c .L0 
     /tmp/ccgOputz.s:39     .text:0000000000000028 .L0 
     /tmp/ccgOputz.s:41     .text:0000000000000028 .L0 
     /tmp/ccgOputz.s:44     .text:0000000000000030 .L0 
     /tmp/ccgOputz.s:45     .text:0000000000000030 .L0 
     /tmp/ccgOputz.s:48     .text:0000000000000038 .L0 
     /tmp/ccgOputz.s:49     .text:0000000000000038 .L0 
     /tmp/ccgOputz.s:50     .text:0000000000000038 .L0 
     /tmp/ccgOputz.s:64     .text:0000000000000058 .L0 
     /tmp/ccgOputz.s:578    .data.rel.ro.local._ZTV10IdleThread:0000000000000000 _ZTV10IdleThread
     /tmp/ccgOputz.s:73     .text:000000000000006c .L0 
     /tmp/ccgOputz.s:74     .text:000000000000006c .L0 
     /tmp/ccgOputz.s:89     .text:000000000000008c .L0 
     /tmp/ccgOputz.s:589    .data.rel.ro.local._ZTV14KernelConsumer:0000000000000000 _ZTV14KernelConsumer
     /tmp/ccgOputz.s:98     .text:00000000000000a0 .L0 
     /tmp/ccgOputz.s:99     .text:00000000000000a0 .L0 
     /tmp/ccgOputz.s:116    .text:00000000000000cc .L0 
     /tmp/ccgOputz.s:127    .text:00000000000000e8 .L0 
     /tmp/ccgOputz.s:137    .text:0000000000000104 .L0 
     /tmp/ccgOputz.s:145    .text:000000000000011c .L0 
     /tmp/ccgOputz.s:146    .text:000000000000011c .L0 
     /tmp/ccgOputz.s:152    .text:0000000000000134 .L0 
     /tmp/ccgOputz.s:153    .text:0000000000000134 .L0 
     /tmp/ccgOputz.s:159    .text:0000000000000138 .L0 
     /tmp/ccgOputz.s:160    .text:0000000000000138 .L0 
     /tmp/ccgOputz.s:168    .text:0000000000000144 .L0 
     /tmp/ccgOputz.s:169    .text:0000000000000144 .L0 
     /tmp/ccgOputz.s:170    .text:0000000000000144 .L0 
     /tmp/ccgOputz.s:176    .text:000000000000014c .L0 
     /tmp/ccgOputz.s:177    .text:000000000000014c .L0 
     /tmp/ccgOputz.s:181    .text:0000000000000158 .L0 
     /tmp/ccgOputz.s:182    .text:0000000000000158 .L0 
     /tmp/ccgOputz.s:186    .text:0000000000000164 .L0 
     /tmp/ccgOputz.s:187    .text:0000000000000164 .L0 
     /tmp/ccgOputz.s:194    .text:0000000000000170 .L0 
     /tmp/ccgOputz.s:195    .text:0000000000000170 .L0 
     /tmp/ccgOputz.s:196    .text:0000000000000170 .L0 
     /tmp/ccgOputz.s:207    .text:0000000000000178 .L0 
     /tmp/ccgOputz.s:208    .text:0000000000000178 .L0 
     /tmp/ccgOputz.s:216    .text:0000000000000184 .L0 
     /tmp/ccgOputz.s:217    .text:0000000000000184 .L0 
src/../h/KConsole.hpp:32     .text:0000000000000184 .L0 
     /tmp/ccgOputz.s:223    .text:0000000000000188 .L0 
GAS LISTING /tmp/ccgOputz.s 			page 19


src/../h/KConsole.hpp:33     .text:0000000000000188 .L0 
     /tmp/ccgOputz.s:234    .text:000000000000018c .L0 
     /tmp/ccgOputz.s:235    .text:000000000000018c .L0 
  src/../h/Riscv.hpp:132    .text:000000000000018c .L0 
     /tmp/ccgOputz.s:245    .text:0000000000000190 .L0 
     /tmp/ccgOputz.s:246    .text:0000000000000190 .L0 
     /tmp/ccgOputz.s:248    .text:0000000000000198 .L0 
     /tmp/ccgOputz.s:250    .text:000000000000019c .L0 
     /tmp/ccgOputz.s:251    .text:000000000000019c .L0 
     /tmp/ccgOputz.s:253    .text:00000000000001a0 .L0 
     /tmp/ccgOputz.s:255    .text:00000000000001a4 .L0 
     /tmp/ccgOputz.s:258    .text:00000000000001a8 .L0 
     /tmp/ccgOputz.s:261    .text:00000000000001ac .L0 
     /tmp/ccgOputz.s:263    .text:00000000000001b0 .L0 
     /tmp/ccgOputz.s:306    .text._ZN10IdleThread3runEv:0000000000000000 _ZN10IdleThread3runEv
     /tmp/ccgOputz.s:309    .text._ZN10IdleThread3runEv:0000000000000000 .L0 
     /tmp/ccgOputz.s:311    .text._ZN10IdleThread3runEv:0000000000000000 .L0 
     /tmp/ccgOputz.s:312    .text._ZN10IdleThread3runEv:0000000000000004 .L0 
     /tmp/ccgOputz.s:315    .text._ZN10IdleThread3runEv:000000000000000c .L0 
     /tmp/ccgOputz.s:316    .text._ZN10IdleThread3runEv:000000000000000c .L0 
     /tmp/ccgOputz.s:318    .text._ZN10IdleThread3runEv:0000000000000010 .L0 
     /tmp/ccgOputz.s:322    .text._ZN10IdleThread3runEv:0000000000000010 .L0 
     /tmp/ccgOputz.s:323    .text._ZN10IdleThread3runEv:0000000000000010 .L0 
     /tmp/ccgOputz.s:324    .text._ZN10IdleThread3runEv:0000000000000010 .L0 
     /tmp/ccgOputz.s:327    .text._ZN10IdleThread3runEv:0000000000000018 .L0 
     /tmp/ccgOputz.s:328    .text._ZN10IdleThread3runEv:000000000000001c .L0 
     /tmp/ccgOputz.s:335    .text._ZN10IdleThreadD2Ev:0000000000000000 _ZN10IdleThreadD2Ev
     /tmp/ccgOputz.s:338    .text._ZN10IdleThreadD2Ev:0000000000000000 .L0 
     /tmp/ccgOputz.s:340    .text._ZN10IdleThreadD2Ev:0000000000000000 .L0 
     /tmp/ccgOputz.s:341    .text._ZN10IdleThreadD2Ev:0000000000000004 .L0 
     /tmp/ccgOputz.s:344    .text._ZN10IdleThreadD2Ev:000000000000000c .L0 
     /tmp/ccgOputz.s:345    .text._ZN10IdleThreadD2Ev:000000000000000c .L0 
     /tmp/ccgOputz.s:347    .text._ZN10IdleThreadD2Ev:0000000000000010 .L0 
     /tmp/ccgOputz.s:350    .text._ZN10IdleThreadD2Ev:0000000000000010 .L0 
     /tmp/ccgOputz.s:356    .text._ZN10IdleThreadD2Ev:0000000000000028 .L0 
     /tmp/ccgOputz.s:358    .text._ZN10IdleThreadD2Ev:000000000000002c .L0 
     /tmp/ccgOputz.s:359    .text._ZN10IdleThreadD2Ev:000000000000002c .L0 
     /tmp/ccgOputz.s:361    .text._ZN10IdleThreadD2Ev:0000000000000030 .L0 
     /tmp/ccgOputz.s:363    .text._ZN10IdleThreadD2Ev:0000000000000034 .L0 
     /tmp/ccgOputz.s:335    .text._ZN10IdleThreadD2Ev:0000000000000000 _ZN10IdleThreadD1Ev
     /tmp/ccgOputz.s:372    .text._ZN10IdleThreadD0Ev:0000000000000000 _ZN10IdleThreadD0Ev
     /tmp/ccgOputz.s:375    .text._ZN10IdleThreadD0Ev:0000000000000000 .L0 
     /tmp/ccgOputz.s:377    .text._ZN10IdleThreadD0Ev:0000000000000000 .L0 
     /tmp/ccgOputz.s:378    .text._ZN10IdleThreadD0Ev:0000000000000004 .L0 
     /tmp/ccgOputz.s:382    .text._ZN10IdleThreadD0Ev:0000000000000010 .L0 
     /tmp/ccgOputz.s:383    .text._ZN10IdleThreadD0Ev:0000000000000010 .L0 
     /tmp/ccgOputz.s:384    .text._ZN10IdleThreadD0Ev:0000000000000010 .L0 
     /tmp/ccgOputz.s:386    .text._ZN10IdleThreadD0Ev:0000000000000014 .L0 
     /tmp/ccgOputz.s:392    .text._ZN10IdleThreadD0Ev:0000000000000018 .L0 
     /tmp/ccgOputz.s:402    .text._ZN10IdleThreadD0Ev:000000000000003c .L0 
     /tmp/ccgOputz.s:404    .text._ZN10IdleThreadD0Ev:0000000000000040 .L0 
     /tmp/ccgOputz.s:405    .text._ZN10IdleThreadD0Ev:0000000000000040 .L0 
     /tmp/ccgOputz.s:407    .text._ZN10IdleThreadD0Ev:0000000000000044 .L0 
     /tmp/ccgOputz.s:410    .text._ZN10IdleThreadD0Ev:0000000000000048 .L0 
     /tmp/ccgOputz.s:412    .text._ZN10IdleThreadD0Ev:000000000000004c .L0 
     /tmp/ccgOputz.s:419    .text._ZN14KernelConsumerD2Ev:0000000000000000 _ZN14KernelConsumerD2Ev
     /tmp/ccgOputz.s:422    .text._ZN14KernelConsumerD2Ev:0000000000000000 .L0 
GAS LISTING /tmp/ccgOputz.s 			page 20


     /tmp/ccgOputz.s:424    .text._ZN14KernelConsumerD2Ev:0000000000000000 .L0 
     /tmp/ccgOputz.s:425    .text._ZN14KernelConsumerD2Ev:0000000000000004 .L0 
     /tmp/ccgOputz.s:428    .text._ZN14KernelConsumerD2Ev:000000000000000c .L0 
     /tmp/ccgOputz.s:429    .text._ZN14KernelConsumerD2Ev:000000000000000c .L0 
     /tmp/ccgOputz.s:431    .text._ZN14KernelConsumerD2Ev:0000000000000010 .L0 
     /tmp/ccgOputz.s:434    .text._ZN14KernelConsumerD2Ev:0000000000000010 .L0 
     /tmp/ccgOputz.s:440    .text._ZN14KernelConsumerD2Ev:0000000000000028 .L0 
     /tmp/ccgOputz.s:442    .text._ZN14KernelConsumerD2Ev:000000000000002c .L0 
     /tmp/ccgOputz.s:443    .text._ZN14KernelConsumerD2Ev:000000000000002c .L0 
     /tmp/ccgOputz.s:445    .text._ZN14KernelConsumerD2Ev:0000000000000030 .L0 
     /tmp/ccgOputz.s:447    .text._ZN14KernelConsumerD2Ev:0000000000000034 .L0 
     /tmp/ccgOputz.s:419    .text._ZN14KernelConsumerD2Ev:0000000000000000 _ZN14KernelConsumerD1Ev
     /tmp/ccgOputz.s:456    .text._ZN14KernelConsumerD0Ev:0000000000000000 _ZN14KernelConsumerD0Ev
     /tmp/ccgOputz.s:459    .text._ZN14KernelConsumerD0Ev:0000000000000000 .L0 
     /tmp/ccgOputz.s:461    .text._ZN14KernelConsumerD0Ev:0000000000000000 .L0 
     /tmp/ccgOputz.s:462    .text._ZN14KernelConsumerD0Ev:0000000000000004 .L0 
     /tmp/ccgOputz.s:466    .text._ZN14KernelConsumerD0Ev:0000000000000010 .L0 
     /tmp/ccgOputz.s:467    .text._ZN14KernelConsumerD0Ev:0000000000000010 .L0 
     /tmp/ccgOputz.s:468    .text._ZN14KernelConsumerD0Ev:0000000000000010 .L0 
     /tmp/ccgOputz.s:470    .text._ZN14KernelConsumerD0Ev:0000000000000014 .L0 
     /tmp/ccgOputz.s:476    .text._ZN14KernelConsumerD0Ev:0000000000000018 .L0 
     /tmp/ccgOputz.s:486    .text._ZN14KernelConsumerD0Ev:000000000000003c .L0 
     /tmp/ccgOputz.s:488    .text._ZN14KernelConsumerD0Ev:0000000000000040 .L0 
     /tmp/ccgOputz.s:489    .text._ZN14KernelConsumerD0Ev:0000000000000040 .L0 
     /tmp/ccgOputz.s:491    .text._ZN14KernelConsumerD0Ev:0000000000000044 .L0 
     /tmp/ccgOputz.s:494    .text._ZN14KernelConsumerD0Ev:0000000000000048 .L0 
     /tmp/ccgOputz.s:496    .text._ZN14KernelConsumerD0Ev:000000000000004c .L0 
     /tmp/ccgOputz.s:503    .text._ZN14KernelConsumer3runEv:0000000000000000 _ZN14KernelConsumer3runEv
     /tmp/ccgOputz.s:506    .text._ZN14KernelConsumer3runEv:0000000000000000 .L0 
     /tmp/ccgOputz.s:508    .text._ZN14KernelConsumer3runEv:0000000000000000 .L0 
     /tmp/ccgOputz.s:509    .text._ZN14KernelConsumer3runEv:0000000000000004 .L0 
     /tmp/ccgOputz.s:512    .text._ZN14KernelConsumer3runEv:000000000000000c .L0 
     /tmp/ccgOputz.s:513    .text._ZN14KernelConsumer3runEv:000000000000000c .L0 
     /tmp/ccgOputz.s:515    .text._ZN14KernelConsumer3runEv:0000000000000010 .L0 
     /tmp/ccgOputz.s:523    .text._ZN14KernelConsumer3runEv:0000000000000014 .L0 
     /tmp/ccgOputz.s:524    .text._ZN14KernelConsumer3runEv:0000000000000014 .L0 
     /tmp/ccgOputz.s:527    .text._ZN14KernelConsumer3runEv:0000000000000020 .L0 
     /tmp/ccgOputz.s:534    .text._ZN14KernelConsumer3runEv:0000000000000024 .L0 
     /tmp/ccgOputz.s:537    .text._ZN14KernelConsumer3runEv:0000000000000024 .L0 
     /tmp/ccgOputz.s:538    .text._ZN14KernelConsumer3runEv:0000000000000024 .L0 
     /tmp/ccgOputz.s:546    .text._ZN14KernelConsumer3runEv:0000000000000038 .L0 
     /tmp/ccgOputz.s:548    .text._ZN14KernelConsumer3runEv:0000000000000038 .L0 
     /tmp/ccgOputz.s:549    .text._ZN14KernelConsumer3runEv:0000000000000038 .L0 
     /tmp/ccgOputz.s:550    .text._ZN14KernelConsumer3runEv:0000000000000038 .L0 
     /tmp/ccgOputz.s:554    .text._ZN14KernelConsumer3runEv:0000000000000040 .L0 
     /tmp/ccgOputz.s:557    .text._ZN14KernelConsumer3runEv:0000000000000040 .L0 
     /tmp/ccgOputz.s:558    .text._ZN14KernelConsumer3runEv:0000000000000040 .L0 
     /tmp/ccgOputz.s:559    .text._ZN14KernelConsumer3runEv:0000000000000040 .L0 
     /tmp/ccgOputz.s:562    .text._ZN14KernelConsumer3runEv:000000000000004c .L0 
     /tmp/ccgOputz.s:566    .text._ZN14KernelConsumer3runEv:0000000000000050 .L0 
     /tmp/ccgOputz.s:570    .text._ZN14KernelConsumer3runEv:000000000000005c .L0 
     /tmp/ccgOputz.s:602    .text:00000000000001b0 .L0 
     /tmp/ccgOputz.s:331    .text._ZN10IdleThread3runEv:000000000000001c .L0 
     /tmp/ccgOputz.s:368    .text._ZN10IdleThreadD2Ev:0000000000000034 .L0 
     /tmp/ccgOputz.s:415    .text._ZN10IdleThreadD0Ev:000000000000004c .L0 
     /tmp/ccgOputz.s:452    .text._ZN14KernelConsumerD2Ev:0000000000000034 .L0 
     /tmp/ccgOputz.s:499    .text._ZN14KernelConsumerD0Ev:000000000000004c .L0 
GAS LISTING /tmp/ccgOputz.s 			page 21


     /tmp/ccgOputz.s:574    .text._ZN14KernelConsumer3runEv:000000000000005c .L0 
     /tmp/ccgOputz.s:32     .text:000000000000001c .L0 
     /tmp/ccgOputz.s:67     .text:0000000000000060 .L0 
     /tmp/ccgOputz.s:92     .text:0000000000000094 .L0 
     /tmp/ccgOputz.s:106    .text:00000000000000b4 .L0 
     /tmp/ccgOputz.s:147    .text:0000000000000120 .L0 
     /tmp/ccgOputz.s:160    .text:0000000000000138 .L0 
     /tmp/ccgOputz.s:143    .text:000000000000011c .L11
     /tmp/ccgOputz.s:38     .text:0000000000000028 .LEHB0
     /tmp/ccgOputz.s:10     .text:0000000000000000 .LFB54
     /tmp/ccgOputz.s:53     .text:0000000000000044 .LEHE0
     /tmp/ccgOputz.s:60     .text:0000000000000058 .LEHB1
     /tmp/ccgOputz.s:66     .text:0000000000000060 .LEHE1
     /tmp/ccgOputz.s:113    .text:00000000000000c8 .L5
     /tmp/ccgOputz.s:75     .text:0000000000000070 .LEHB2
     /tmp/ccgOputz.s:78     .text:0000000000000078 .LEHE2
     /tmp/ccgOputz.s:85     .text:000000000000008c .LEHB3
     /tmp/ccgOputz.s:91     .text:0000000000000094 .LEHE3
     /tmp/ccgOputz.s:123    .text:00000000000000e4 .L6
     /tmp/ccgOputz.s:100    .text:00000000000000a4 .LEHB4
     /tmp/ccgOputz.s:103    .text:00000000000000ac .LEHE4
     /tmp/ccgOputz.s:107    .text:00000000000000bc .LEHB5
     /tmp/ccgOputz.s:110    .text:00000000000000c4 .LEHE5
     /tmp/ccgOputz.s:133    .text:0000000000000100 .L7
     /tmp/ccgOputz.s:120    .text:00000000000000dc .LEHB6
     /tmp/ccgOputz.s:211    .text:0000000000000184 .LEHE6
     /tmp/ccgOputz.s:320    .text._ZN10IdleThread3runEv:0000000000000010 .L13
     /tmp/ccgOputz.s:350    .text._ZN10IdleThreadD2Ev:0000000000000010 .L0 
     /tmp/ccgOputz.s:392    .text._ZN10IdleThreadD0Ev:0000000000000018 .L0 
     /tmp/ccgOputz.s:434    .text._ZN14KernelConsumerD2Ev:0000000000000010 .L0 
     /tmp/ccgOputz.s:476    .text._ZN14KernelConsumerD0Ev:0000000000000018 .L0 
     /tmp/ccgOputz.s:524    .text._ZN14KernelConsumer3runEv:0000000000000014 .L0 
     /tmp/ccgOputz.s:538    .text._ZN14KernelConsumer3runEv:0000000000000024 .L0 
     /tmp/ccgOputz.s:559    .text._ZN14KernelConsumer3runEv:0000000000000040 .L0 
     /tmp/ccgOputz.s:545    .text._ZN14KernelConsumer3runEv:0000000000000038 .L25
     /tmp/ccgOputz.s:552    .text._ZN14KernelConsumer3runEv:0000000000000040 .L24
     /tmp/ccgOputz.s:518    .text._ZN14KernelConsumer3runEv:0000000000000014 .L27
     /tmp/ccgOputz.s:2772   .debug_abbrev:0000000000000000 .Ldebug_abbrev0
     /tmp/ccgOputz.s:4719   .debug_str:0000000000000be7 .LASF231
     /tmp/ccgOputz.s:4357   .debug_str:00000000000000e6 .LASF232
     /tmp/ccgOputz.s:4673   .debug_str:0000000000000ab2 .LASF233
     /tmp/ccgOputz.s:4301   .debug_ranges:0000000000000000 .Ldebug_ranges0
     /tmp/ccgOputz.s:4325   .debug_line:0000000000000000 .Ldebug_line0
     /tmp/ccgOputz.s:4489   .debug_str:00000000000004f2 .LASF0
     /tmp/ccgOputz.s:4521   .debug_str:00000000000005c3 .LASF1
     /tmp/ccgOputz.s:4651   .debug_str:00000000000009f8 .LASF2
     /tmp/ccgOputz.s:4433   .debug_str:0000000000000349 .LASF3
     /tmp/ccgOputz.s:4665   .debug_str:0000000000000a76 .LASF4
     /tmp/ccgOputz.s:4503   .debug_str:0000000000000542 .LASF5
     /tmp/ccgOputz.s:4347   .debug_str:0000000000000096 .LASF6
     /tmp/ccgOputz.s:4605   .debug_str:0000000000000886 .LASF7
     /tmp/ccgOputz.s:4599   .debug_str:000000000000085e .LASF8
     /tmp/ccgOputz.s:4511   .debug_str:0000000000000584 .LASF9
     /tmp/ccgOputz.s:4461   .debug_str:000000000000041d .LASF10
     /tmp/ccgOputz.s:4473   .debug_str:0000000000000477 .LASF11
     /tmp/ccgOputz.s:4387   .debug_str:00000000000001d1 .LASF12
     /tmp/ccgOputz.s:4447   .debug_str:00000000000003ba .LASF13
GAS LISTING /tmp/ccgOputz.s 			page 22


     /tmp/ccgOputz.s:4401   .debug_str:000000000000023c .LASF14
     /tmp/ccgOputz.s:4385   .debug_str:00000000000001c1 .LASF15
     /tmp/ccgOputz.s:4693   .debug_str:0000000000000b3e .LASF16
     /tmp/ccgOputz.s:4429   .debug_str:0000000000000315 .LASF17
     /tmp/ccgOputz.s:4685   .debug_str:0000000000000b0f .LASF18
     /tmp/ccgOputz.s:4769   .debug_str:0000000000000e0f .LASF48
     /tmp/ccgOputz.s:4755   .debug_str:0000000000000dc6 .LASF108
     /tmp/ccgOputz.s:4439   .debug_str:0000000000000373 .LASF19
     /tmp/ccgOputz.s:4717   .debug_str:0000000000000bda .LASF20
     /tmp/ccgOputz.s:4413   .debug_str:00000000000002bc .LASF21
     /tmp/ccgOputz.s:4551   .debug_str:00000000000006b1 .LASF50
     /tmp/ccgOputz.s:4745   .debug_str:0000000000000d7a .LASF52
     /tmp/ccgOputz.s:4743   .debug_str:0000000000000d71 .LASF22
     /tmp/ccgOputz.s:4733   .debug_str:0000000000000d08 .LASF24
     /tmp/ccgOputz.s:4647   .debug_str:00000000000009e4 .LASF26
     /tmp/ccgOputz.s:4581   .debug_str:00000000000007ca .LASF28
     /tmp/ccgOputz.s:4617   .debug_str:00000000000008d1 .LASF23
     /tmp/ccgOputz.s:4625   .debug_str:000000000000090a .LASF25
     /tmp/ccgOputz.s:4571   .debug_str:0000000000000781 .LASF27
     /tmp/ccgOputz.s:4513   .debug_str:0000000000000597 .LASF29
     /tmp/ccgOputz.s:4781   .debug_str:0000000000000e89 .LASF30
     /tmp/ccgOputz.s:4721   .debug_str:0000000000000cab .LASF31
     /tmp/ccgOputz.s:4567   .debug_str:000000000000075e .LASF32
     /tmp/ccgOputz.s:4579   .debug_str:00000000000007b6 .LASF33
     /tmp/ccgOputz.s:4689   .debug_str:0000000000000b2a .LASF34
     /tmp/ccgOputz.s:4667   .debug_str:0000000000000a7d .LASF35
     /tmp/ccgOputz.s:4669   .debug_str:0000000000000a90 .LASF36
     /tmp/ccgOputz.s:4395   .debug_str:0000000000000211 .LASF37
     /tmp/ccgOputz.s:4427   .debug_str:000000000000030f .LASF38
     /tmp/ccgOputz.s:4483   .debug_str:00000000000004c9 .LASF39
     /tmp/ccgOputz.s:4497   .debug_str:0000000000000526 .LASF40
     /tmp/ccgOputz.s:4417   .debug_str:00000000000002cf .LASF41
     /tmp/ccgOputz.s:4349   .debug_str:000000000000009d .LASF42
     /tmp/ccgOputz.s:4657   .debug_str:0000000000000a2a .LASF43
     /tmp/ccgOputz.s:4649   .debug_str:00000000000009ed .LASF44
     /tmp/ccgOputz.s:4799   .debug_str:0000000000000f22 .LASF45
     /tmp/ccgOputz.s:4771   .debug_str:0000000000000e15 .LASF46
     /tmp/ccgOputz.s:4785   .debug_str:0000000000000e9b .LASF47
     /tmp/ccgOputz.s:4765   .debug_str:0000000000000def .LASF63
     /tmp/ccgOputz.s:4549   .debug_str:000000000000069b .LASF65
     /tmp/ccgOputz.s:4437   .debug_str:000000000000036b .LASF49
     /tmp/ccgOputz.s:4379   .debug_str:0000000000000189 .LASF51
     /tmp/ccgOputz.s:4619   .debug_str:00000000000008d8 .LASF53
     /tmp/ccgOputz.s:4451   .debug_str:00000000000003e1 .LASF54
     /tmp/ccgOputz.s:4463   .debug_str:000000000000042d .LASF56
     /tmp/ccgOputz.s:4455   .debug_str:00000000000003ee .LASF55
     /tmp/ccgOputz.s:4495   .debug_str:0000000000000511 .LASF57
     /tmp/ccgOputz.s:4487   .debug_str:00000000000004e6 .LASF58
     /tmp/ccgOputz.s:4547   .debug_str:000000000000068f .LASF59
     /tmp/ccgOputz.s:4659   .debug_str:0000000000000a42 .LASF60
     /tmp/ccgOputz.s:4623   .debug_str:0000000000000900 .LASF61
     /tmp/ccgOputz.s:4603   .debug_str:0000000000000877 .LASF62
     /tmp/ccgOputz.s:4591   .debug_str:0000000000000821 .LASF64
     /tmp/ccgOputz.s:4351   .debug_str:00000000000000a8 .LASF66
     /tmp/ccgOputz.s:4543   .debug_str:0000000000000678 .LASF67
     /tmp/ccgOputz.s:4377   .debug_str:0000000000000183 .LASF68
     /tmp/ccgOputz.s:4687   .debug_str:0000000000000b25 .LASF234
GAS LISTING /tmp/ccgOputz.s 			page 23


     /tmp/ccgOputz.s:4539   .debug_str:000000000000065b .LASF69
     /tmp/ccgOputz.s:4419   .debug_str:00000000000002e1 .LASF70
     /tmp/ccgOputz.s:4735   .debug_str:0000000000000d1d .LASF71
     /tmp/ccgOputz.s:4675   .debug_str:0000000000000ad0 .LASF72
     /tmp/ccgOputz.s:4575   .debug_str:0000000000000794 .LASF73
     /tmp/ccgOputz.s:4601   .debug_str:0000000000000871 .LASF74
     /tmp/ccgOputz.s:4565   .debug_str:0000000000000749 .LASF75
     /tmp/ccgOputz.s:4501   .debug_str:0000000000000534 .LASF76
     /tmp/ccgOputz.s:4595   .debug_str:0000000000000835 .LASF77
     /tmp/ccgOputz.s:4481   .debug_str:00000000000004bc .LASF78
     /tmp/ccgOputz.s:4643   .debug_str:00000000000009b7 .LASF79
     /tmp/ccgOputz.s:4747   .debug_str:0000000000000d9b .LASF80
     /tmp/ccgOputz.s:4375   .debug_str:000000000000016e .LASF81
     /tmp/ccgOputz.s:4343   .debug_str:0000000000000081 .LASF82
     /tmp/ccgOputz.s:4773   .debug_str:0000000000000e1f .LASF83
     /tmp/ccgOputz.s:4329   .debug_str:000000000000001b .LASF84
     /tmp/ccgOputz.s:4459   .debug_str:0000000000000402 .LASF85
     /tmp/ccgOputz.s:4699   .debug_str:0000000000000b67 .LASF86
     /tmp/ccgOputz.s:4327   .debug_str:0000000000000000 .LASF87
     /tmp/ccgOputz.s:4537   .debug_str:0000000000000643 .LASF88
     /tmp/ccgOputz.s:4445   .debug_str:0000000000000392 .LASF89
     /tmp/ccgOputz.s:4661   .debug_str:0000000000000a5a .LASF90
     /tmp/ccgOputz.s:4391   .debug_str:00000000000001e5 .LASF91
     /tmp/ccgOputz.s:4393   .debug_str:0000000000000203 .LASF92
     /tmp/ccgOputz.s:4791   .debug_str:0000000000000ed6 .LASF93
     /tmp/ccgOputz.s:4713   .debug_str:0000000000000bc1 .LASF94
     /tmp/ccgOputz.s:4367   .debug_str:000000000000013d .LASF95
     /tmp/ccgOputz.s:4471   .debug_str:0000000000000462 .LASF96
     /tmp/ccgOputz.s:4703   .debug_str:0000000000000b7a .LASF97
     /tmp/ccgOputz.s:4457   .debug_str:00000000000003f4 .LASF98
     /tmp/ccgOputz.s:4333   .debug_str:000000000000002e .LASF235
     /tmp/ccgOputz.s:4749   .debug_str:0000000000000da1 .LASF99
     /tmp/ccgOputz.s:4425   .debug_str:0000000000000302 .LASF100
     /tmp/ccgOputz.s:4491   .debug_str:00000000000004ff .LASF101
     /tmp/ccgOputz.s:4613   .debug_str:00000000000008bf .LASF102
     /tmp/ccgOputz.s:4523   .debug_str:00000000000005d6 .LASF103
     /tmp/ccgOputz.s:4753   .debug_str:0000000000000dbb .LASF104
     /tmp/ccgOputz.s:4677   .debug_str:0000000000000ad6 .LASF105
     /tmp/ccgOputz.s:4705   .debug_str:0000000000000b87 .LASF106
     /tmp/ccgOputz.s:4763   .debug_str:0000000000000de6 .LASF107
     /tmp/ccgOputz.s:4679   .debug_str:0000000000000ae6 .LASF109
     /tmp/ccgOputz.s:4615   .debug_str:00000000000008c9 .LASF110
     /tmp/ccgOputz.s:4415   .debug_str:00000000000002c8 .LASF111
     /tmp/ccgOputz.s:4331   .debug_str:0000000000000026 .LASF112
     /tmp/ccgOputz.s:4465   .debug_str:0000000000000443 .LASF113
     /tmp/ccgOputz.s:4517   .debug_str:00000000000005af .LASF114
     /tmp/ccgOputz.s:4373   .debug_str:0000000000000165 .LASF115
     /tmp/ccgOputz.s:4701   .debug_str:0000000000000b72 .LASF163
     /tmp/ccgOputz.s:4691   .debug_str:0000000000000b31 .LASF116
     /tmp/ccgOputz.s:4779   .debug_str:0000000000000e67 .LASF117
     /tmp/ccgOputz.s:4587   .debug_str:0000000000000805 .LASF236
     /tmp/ccgOputz.s:4783   .debug_str:0000000000000e91 .LASF118
     /tmp/ccgOputz.s:4475   .debug_str:0000000000000485 .LASF119
     /tmp/ccgOputz.s:4631   .debug_str:0000000000000946 .LASF120
     /tmp/ccgOputz.s:4541   .debug_str:0000000000000664 .LASF122
     /tmp/ccgOputz.s:4529   .debug_str:00000000000005fc .LASF121
     /tmp/ccgOputz.s:4629   .debug_str:000000000000092e .LASF123
GAS LISTING /tmp/ccgOputz.s 			page 24


     /tmp/ccgOputz.s:4621   .debug_str:00000000000008f8 .LASF124
     /tmp/ccgOputz.s:4545   .debug_str:000000000000067d .LASF125
     /tmp/ccgOputz.s:4777   .debug_str:0000000000000e4f .LASF126
     /tmp/ccgOputz.s:4555   .debug_str:00000000000006da .LASF127
     /tmp/ccgOputz.s:4423   .debug_str:00000000000002f7 .LASF128
     /tmp/ccgOputz.s:4683   .debug_str:0000000000000af9 .LASF129
     /tmp/ccgOputz.s:4335   .debug_str:0000000000000037 .LASF130
     /tmp/ccgOputz.s:4707   .debug_str:0000000000000b8c .LASF131
     /tmp/ccgOputz.s:4741   .debug_str:0000000000000d5d .LASF132
     /tmp/ccgOputz.s:4583   .debug_str:00000000000007df .LASF133
     /tmp/ccgOputz.s:4739   .debug_str:0000000000000d52 .LASF134
     /tmp/ccgOputz.s:4449   .debug_str:00000000000003c9 .LASF135
     /tmp/ccgOputz.s:4803   .debug_str:0000000000000f47 .LASF136
     /tmp/ccgOputz.s:4671   .debug_str:0000000000000a97 .LASF137
     /tmp/ccgOputz.s:4421   .debug_str:00000000000002ee .LASF138
     /tmp/ccgOputz.s:4397   .debug_str:0000000000000224 .LASF139
     /tmp/ccgOputz.s:4533   .debug_str:0000000000000627 .LASF140
     /tmp/ccgOputz.s:4353   .debug_str:00000000000000be .LASF141
     /tmp/ccgOputz.s:4467   .debug_str:000000000000044b .LASF142
     /tmp/ccgOputz.s:4637   .debug_str:0000000000000976 .LASF143
     /tmp/ccgOputz.s:4801   .debug_str:0000000000000f3a .LASF144
     /tmp/ccgOputz.s:4469   .debug_str:0000000000000456 .LASF145
     /tmp/ccgOputz.s:4339   .debug_str:0000000000000049 .LASF146
     /tmp/ccgOputz.s:4577   .debug_str:00000000000007a9 .LASF147
     /tmp/ccgOputz.s:4787   .debug_str:0000000000000eb1 .LASF237
     /tmp/ccgOputz.s:4731   .debug_str:0000000000000d00 .LASF148
     /tmp/ccgOputz.s:4383   .debug_str:00000000000001b2 .LASF149
     /tmp/ccgOputz.s:4797   .debug_str:0000000000000f1c .LASF150
     /tmp/ccgOputz.s:4697   .debug_str:0000000000000b62 .LASF151
     /tmp/ccgOputz.s:4723   .debug_str:0000000000000cbf .LASF152
     /tmp/ccgOputz.s:4645   .debug_str:00000000000009d4 .LASF153
     /tmp/ccgOputz.s:4593   .debug_str:0000000000000829 .LASF154
     /tmp/ccgOputz.s:4441   .debug_str:000000000000037f .LASF155
     /tmp/ccgOputz.s:4663   .debug_str:0000000000000a68 .LASF156
     /tmp/ccgOputz.s:4759   .debug_str:0000000000000dda .LASF157
     /tmp/ccgOputz.s:4563   .debug_str:000000000000073d .LASF158
     /tmp/ccgOputz.s:4807   .debug_str:0000000000000f69 .LASF159
     /tmp/ccgOputz.s:4715   .debug_str:0000000000000bd2 .LASF160
     /tmp/ccgOputz.s:4627   .debug_str:000000000000091d .LASF161
     /tmp/ccgOputz.s:4409   .debug_str:0000000000000294 .LASF169
     /tmp/ccgOputz.s:4341   .debug_str:0000000000000059 .LASF170
     /tmp/ccgOputz.s:4573   .debug_str:0000000000000788 .LASF162
     /tmp/ccgOputz.s:4761   .debug_str:0000000000000de1 .LASF164
     /tmp/ccgOputz.s:4515   .debug_str:00000000000005aa .LASF165
     /tmp/ccgOputz.s:4389   .debug_str:00000000000001e0 .LASF166
     /tmp/ccgOputz.s:4431   .debug_str:000000000000032b .LASF167
     /tmp/ccgOputz.s:4411   .debug_str:00000000000002a2 .LASF168
     /tmp/ccgOputz.s:4403   .debug_str:000000000000024c .LASF171
     /tmp/ccgOputz.s:4363   .debug_str:0000000000000123 .LASF172
     /tmp/ccgOputz.s:4559   .debug_str:0000000000000719 .LASF173
     /tmp/ccgOputz.s:4359   .debug_str:00000000000000f6 .LASF174
     /tmp/ccgOputz.s:4695   .debug_str:0000000000000b4a .LASF175
     /tmp/ccgOputz.s:4655   .debug_str:0000000000000a20 .LASF192
     /tmp/ccgOputz.s:4729   .debug_str:0000000000000ce8 .LASF238
     /tmp/ccgOputz.s:4505   .debug_str:0000000000000554 .LASF176
     /tmp/ccgOputz.s:4775   .debug_str:0000000000000e3a .LASF177
     /tmp/ccgOputz.s:4499   .debug_str:000000000000052c .LASF178
GAS LISTING /tmp/ccgOputz.s 			page 25


     /tmp/ccgOputz.s:4435   .debug_str:000000000000034f .LASF179
     /tmp/ccgOputz.s:4525   .debug_str:00000000000005e1 .LASF180
     /tmp/ccgOputz.s:4561   .debug_str:000000000000071e .LASF181
     /tmp/ccgOputz.s:4371   .debug_str:000000000000015c .LASF182
     /tmp/ccgOputz.s:4557   .debug_str:00000000000006fd .LASF183
     /tmp/ccgOputz.s:4337   .debug_str:0000000000000042 .LASF184
     /tmp/ccgOputz.s:4531   .debug_str:0000000000000609 .LASF185
     /tmp/ccgOputz.s:4405   .debug_str:0000000000000267 .LASF186
     /tmp/ccgOputz.s:4767   .debug_str:0000000000000df9 .LASF187
     /tmp/ccgOputz.s:4507   .debug_str:0000000000000561 .LASF188
     /tmp/ccgOputz.s:4727   .debug_str:0000000000000cce .LASF189
     /tmp/ccgOputz.s:4569   .debug_str:0000000000000766 .LASF190
     /tmp/ccgOputz.s:4407   .debug_str:000000000000027c .LASF191
     /tmp/ccgOputz.s:4653   .debug_str:0000000000000a06 .LASF202
     /tmp/ccgOputz.s:4793   .debug_str:0000000000000ef4 .LASF193
     /tmp/ccgOputz.s:4361   .debug_str:000000000000010b .LASF205
     /tmp/ccgOputz.s:4479   .debug_str:00000000000004b5 .LASF239
     /tmp/ccgOputz.s:4527   .debug_str:00000000000005e9 .LASF194
     /tmp/ccgOputz.s:4681   .debug_str:0000000000000af3 .LASF196
     /tmp/ccgOputz.s:4609   .debug_str:00000000000008a1 .LASF195
     /tmp/ccgOputz.s:4709   .debug_str:0000000000000ba4 .LASF197
     /tmp/ccgOputz.s:4597   .debug_str:0000000000000853 .LASF198
     /tmp/ccgOputz.s:4355   .debug_str:00000000000000d0 .LASF199
     /tmp/ccgOputz.s:4589   .debug_str:000000000000080a .LASF200
     /tmp/ccgOputz.s:4509   .debug_str:0000000000000570 .LASF201
     /tmp/ccgOputz.s:4635   .debug_str:0000000000000960 .LASF203
     /tmp/ccgOputz.s:4611   .debug_str:00000000000008b3 .LASF204
     /tmp/ccgOputz.s:4535   .debug_str:000000000000062f .LASF206
     /tmp/ccgOputz.s:4453   .debug_str:00000000000003e9 .LASF207
     /tmp/ccgOputz.s:4345   .debug_str:000000000000008c .LASF208
     /tmp/ccgOputz.s:4805   .debug_str:0000000000000f55 .LASF209
     /tmp/ccgOputz.s:373    .text._ZN10IdleThreadD0Ev:0000000000000000 .LFB68
     /tmp/ccgOputz.s:413    .text._ZN10IdleThreadD0Ev:000000000000004c .LFE68
     /tmp/ccgOputz.s:4043   .debug_loc:0000000000000000 .LLST12
     /tmp/ccgOputz.s:389    .text._ZN10IdleThreadD0Ev:0000000000000018 .LBB46
     /tmp/ccgOputz.s:397    .text._ZN10IdleThreadD0Ev:000000000000002c .LBE46
     /tmp/ccgOputz.s:4061   .debug_loc:000000000000004c .LLST13
     /tmp/ccgOputz.s:395    .text._ZN10IdleThreadD0Ev:000000000000002c .LVL42
     /tmp/ccgOputz.s:400    .text._ZN10IdleThreadD0Ev:0000000000000038 .LVL43
     /tmp/ccgOputz.s:4365   .debug_str:0000000000000129 .LASF210
     /tmp/ccgOputz.s:336    .text._ZN10IdleThreadD2Ev:0000000000000000 .LFB66
     /tmp/ccgOputz.s:364    .text._ZN10IdleThreadD2Ev:0000000000000034 .LFE66
     /tmp/ccgOputz.s:4072   .debug_loc:0000000000000082 .LLST11
     /tmp/ccgOputz.s:353    .text._ZN10IdleThreadD2Ev:0000000000000024 .LVL39
     /tmp/ccgOputz.s:4711   .debug_str:0000000000000ba9 .LASF211
     /tmp/ccgOputz.s:457    .text._ZN14KernelConsumerD0Ev:0000000000000000 .LFB64
     /tmp/ccgOputz.s:497    .text._ZN14KernelConsumerD0Ev:000000000000004c .LFE64
     /tmp/ccgOputz.s:4086   .debug_loc:00000000000000bb .LLST15
     /tmp/ccgOputz.s:473    .text._ZN14KernelConsumerD0Ev:0000000000000018 .LBB49
     /tmp/ccgOputz.s:481    .text._ZN14KernelConsumerD0Ev:000000000000002c .LBE49
     /tmp/ccgOputz.s:4104   .debug_loc:0000000000000107 .LLST16
     /tmp/ccgOputz.s:479    .text._ZN14KernelConsumerD0Ev:000000000000002c .LVL49
     /tmp/ccgOputz.s:484    .text._ZN14KernelConsumerD0Ev:0000000000000038 .LVL50
     /tmp/ccgOputz.s:4737   .debug_str:0000000000000d3a .LASF212
     /tmp/ccgOputz.s:420    .text._ZN14KernelConsumerD2Ev:0000000000000000 .LFB62
     /tmp/ccgOputz.s:448    .text._ZN14KernelConsumerD2Ev:0000000000000034 .LFE62
     /tmp/ccgOputz.s:4115   .debug_loc:000000000000013d .LLST14
GAS LISTING /tmp/ccgOputz.s 			page 26


     /tmp/ccgOputz.s:437    .text._ZN14KernelConsumerD2Ev:0000000000000024 .LVL46
     /tmp/ccgOputz.s:4725   .debug_str:0000000000000cc9 .LASF213
     /tmp/ccgOputz.s:264    .text:00000000000001b0 .LFE54
     /tmp/ccgOputz.s:4485   .debug_str:00000000000004db .LASF214
     /tmp/ccgOputz.s:4369   .debug_str:0000000000000151 .LASF215
     /tmp/ccgOputz.s:4129   .debug_loc:0000000000000176 .LLST0
     /tmp/ccgOputz.s:4607   .debug_str:000000000000088d .LASF216
     /tmp/ccgOputz.s:4144   .debug_loc:00000000000001bf .LLST1
     /tmp/ccgOputz.s:4493   .debug_str:0000000000000509 .LASF217
     /tmp/ccgOputz.s:4159   .debug_loc:0000000000000208 .LLST2
     /tmp/ccgOputz.s:61     .text:0000000000000058 .LBB31
     /tmp/ccgOputz.s:71     .text:000000000000006c .LBE31
     /tmp/ccgOputz.s:4166   .debug_loc:000000000000022b .LLST3
     /tmp/ccgOputz.s:65     .text:0000000000000060 .LVL4
     /tmp/ccgOputz.s:86     .text:000000000000008c .LBB33
     /tmp/ccgOputz.s:96     .text:00000000000000a0 .LBE33
     /tmp/ccgOputz.s:4181   .debug_loc:0000000000000274 .LLST4
     /tmp/ccgOputz.s:90     .text:0000000000000094 .LVL8
     /tmp/ccgOputz.s:155    .text:0000000000000138 .LBB35
     /tmp/ccgOputz.s:164    .text:0000000000000144 .LBE35
     /tmp/ccgOputz.s:4192   .debug_loc:00000000000002aa .LLST5
     /tmp/ccgOputz.s:166    .text:0000000000000144 .LBB37
     /tmp/ccgOputz.s:174    .text:000000000000014c .LBE37
     /tmp/ccgOputz.s:4199   .debug_loc:00000000000002cd .LLST6
     /tmp/ccgOputz.s:4207   .debug_loc:00000000000002f1 .LLST7
     /tmp/ccgOputz.s:191    .text:0000000000000170 .LBB39
     /tmp/ccgOputz.s:205    .text:0000000000000178 .LBE39
     /tmp/ccgOputz.s:4214   .debug_loc:0000000000000314 .LLST8
     /tmp/ccgOputz.s:213    .text:0000000000000184 .LBB41
     /tmp/ccgOputz.s:229    .text:000000000000018c .LBE41
     /tmp/ccgOputz.s:232    .text:000000000000018c .LBB43
     /tmp/ccgOputz.s:243    .text:0000000000000190 .LBE43
     /tmp/ccgOputz.s:4222   .debug_loc:0000000000000338 .LLST9
     /tmp/ccgOputz.s:42     .text:0000000000000030 .LVL0
     /tmp/ccgOputz.s:46     .text:0000000000000038 .LVL1
     /tmp/ccgOputz.s:52     .text:0000000000000044 .LVL2
     /tmp/ccgOputz.s:77     .text:0000000000000078 .LVL6
     /tmp/ccgOputz.s:102    .text:00000000000000ac .LVL10
     /tmp/ccgOputz.s:109    .text:00000000000000c4 .LVL11
     /tmp/ccgOputz.s:118    .text:00000000000000d8 .LVL13
     /tmp/ccgOputz.s:122    .text:00000000000000e4 .LVL14
     /tmp/ccgOputz.s:129    .text:00000000000000f4 .LVL16
     /tmp/ccgOputz.s:132    .text:0000000000000100 .LVL17
     /tmp/ccgOputz.s:139    .text:0000000000000110 .LVL19
     /tmp/ccgOputz.s:142    .text:000000000000011c .LVL20
     /tmp/ccgOputz.s:150    .text:0000000000000134 .LVL21
     /tmp/ccgOputz.s:179    .text:0000000000000158 .LVL25
     /tmp/ccgOputz.s:184    .text:0000000000000164 .LVL26
     /tmp/ccgOputz.s:189    .text:0000000000000170 .LVL27
     /tmp/ccgOputz.s:210    .text:0000000000000184 .LVL30
     /tmp/ccgOputz.s:4381   .debug_str:000000000000019a .LASF218
     /tmp/ccgOputz.s:4641   .debug_str:00000000000009a3 .LASF219
     /tmp/ccgOputz.s:504    .text._ZN14KernelConsumer3runEv:0000000000000000 .LFB53
     /tmp/ccgOputz.s:571    .text._ZN14KernelConsumer3runEv:000000000000005c .LFE53
     /tmp/ccgOputz.s:4230   .debug_loc:000000000000035c .LLST17
     /tmp/ccgOputz.s:4244   .debug_loc:0000000000000395 .LLST18
     /tmp/ccgOputz.s:521    .text._ZN14KernelConsumer3runEv:0000000000000014 .LBB52
GAS LISTING /tmp/ccgOputz.s 			page 27


     /tmp/ccgOputz.s:530    .text._ZN14KernelConsumer3runEv:0000000000000024 .LBE52
     /tmp/ccgOputz.s:4255   .debug_loc:00000000000003cb .LLST19
     /tmp/ccgOputz.s:532    .text._ZN14KernelConsumer3runEv:0000000000000024 .LBB54
     /tmp/ccgOputz.s:536    .text._ZN14KernelConsumer3runEv:0000000000000024 .LBE54
     /tmp/ccgOputz.s:555    .text._ZN14KernelConsumer3runEv:0000000000000040 .LBB56
     /tmp/ccgOputz.s:564    .text._ZN14KernelConsumer3runEv:0000000000000050 .LBE56
     /tmp/ccgOputz.s:542    .text._ZN14KernelConsumer3runEv:0000000000000038 .LVL56
     /tmp/ccgOputz.s:551    .text._ZN14KernelConsumer3runEv:0000000000000040 .LVL57
     /tmp/ccgOputz.s:307    .text._ZN10IdleThread3runEv:0000000000000000 .LFB52
     /tmp/ccgOputz.s:329    .text._ZN10IdleThread3runEv:000000000000001c .LFE52
     /tmp/ccgOputz.s:4262   .debug_loc:00000000000003ee .LLST10
     /tmp/ccgOputz.s:325    .text._ZN10IdleThread3runEv:0000000000000018 .LVL37
     /tmp/ccgOputz.s:4519   .debug_str:00000000000005b8 .LASF220
     /tmp/ccgOputz.s:4399   .debug_str:0000000000000237 .LASF221
     /tmp/ccgOputz.s:4757   .debug_str:0000000000000dd5 .LASF222
     /tmp/ccgOputz.s:4585   .debug_str:00000000000007fe .LASF223
     /tmp/ccgOputz.s:4443   .debug_str:000000000000038c .LASF224
     /tmp/ccgOputz.s:4789   .debug_str:0000000000000ec7 .LASF240
     /tmp/ccgOputz.s:4795   .debug_str:0000000000000f04 .LASF241
     /tmp/ccgOputz.s:4809   .debug_str:0000000000000f78 .LASF225
     /tmp/ccgOputz.s:4751   .debug_str:0000000000000dad .LASF226
     /tmp/ccgOputz.s:4639   .debug_str:000000000000098e .LASF227
     /tmp/ccgOputz.s:4477   .debug_str:00000000000004aa .LASF228
     /tmp/ccgOputz.s:4553   .debug_str:00000000000006c5 .LASF229
     /tmp/ccgOputz.s:4633   .debug_str:0000000000000950 .LASF230
     /tmp/ccgOputz.s:376    .text._ZN10IdleThreadD0Ev:0000000000000000 .LVL40
     /tmp/ccgOputz.s:408    .text._ZN10IdleThreadD0Ev:0000000000000044 .LVL44
     /tmp/ccgOputz.s:388    .text._ZN10IdleThreadD0Ev:0000000000000018 .LVL41
     /tmp/ccgOputz.s:339    .text._ZN10IdleThreadD2Ev:0000000000000000 .LVL38
     /tmp/ccgOputz.s:460    .text._ZN14KernelConsumerD0Ev:0000000000000000 .LVL47
     /tmp/ccgOputz.s:492    .text._ZN14KernelConsumerD0Ev:0000000000000044 .LVL51
     /tmp/ccgOputz.s:472    .text._ZN14KernelConsumerD0Ev:0000000000000018 .LVL48
     /tmp/ccgOputz.s:423    .text._ZN14KernelConsumerD2Ev:0000000000000000 .LVL45
     /tmp/ccgOputz.s:69     .text:000000000000006c .LVL5
     /tmp/ccgOputz.s:112    .text:00000000000000c8 .LVL12
     /tmp/ccgOputz.s:125    .text:00000000000000e8 .LVL15
     /tmp/ccgOputz.s:256    .text:00000000000001a4 .LVL33
     /tmp/ccgOputz.s:94     .text:00000000000000a0 .LVL9
     /tmp/ccgOputz.s:135    .text:0000000000000104 .LVL18
     /tmp/ccgOputz.s:197    .text:0000000000000174 .LVL28
     /tmp/ccgOputz.s:259    .text:00000000000001a8 .LVL34
     /tmp/ccgOputz.s:59     .text:0000000000000058 .LVL3
     /tmp/ccgOputz.s:84     .text:000000000000008c .LVL7
     /tmp/ccgOputz.s:154    .text:0000000000000138 .LVL22
     /tmp/ccgOputz.s:162    .text:0000000000000144 .LVL23
     /tmp/ccgOputz.s:172    .text:000000000000014c .LVL24
     /tmp/ccgOputz.s:202    .text:0000000000000178 .LVL29
     /tmp/ccgOputz.s:231    .text:000000000000018c .LVL31
     /tmp/ccgOputz.s:240    .text:0000000000000190 .LVL32
     /tmp/ccgOputz.s:507    .text._ZN14KernelConsumer3runEv:0000000000000000 .LVL52
     /tmp/ccgOputz.s:517    .text._ZN14KernelConsumer3runEv:0000000000000014 .LVL53
     /tmp/ccgOputz.s:540    .text._ZN14KernelConsumer3runEv:0000000000000030 .LVL55
     /tmp/ccgOputz.s:528    .text._ZN14KernelConsumer3runEv:0000000000000024 .LVL54
     /tmp/ccgOputz.s:310    .text._ZN10IdleThread3runEv:0000000000000000 .LVL35
     /tmp/ccgOputz.s:319    .text._ZN10IdleThread3runEv:0000000000000010 .LVL36
     /tmp/ccgOputz.s:603    .debug_info:0000000000000000 .Ldebug_info0
     /tmp/ccgOputz.s:5      .text:0000000000000000 .Ltext0
GAS LISTING /tmp/ccgOputz.s 			page 28


     /tmp/ccgOputz.s:596    .text:00000000000001b0 .Letext0
     /tmp/ccgOputz.s:519    .text._ZN14KernelConsumer3runEv:0000000000000014 .LBB51
     /tmp/ccgOputz.s:543    .text._ZN14KernelConsumer3runEv:0000000000000038 .LBE51
     /tmp/ccgOputz.s:547    .text._ZN14KernelConsumer3runEv:0000000000000038 .LBB58
     /tmp/ccgOputz.s:569    .text._ZN14KernelConsumer3runEv:000000000000005c .LBE58
     /tmp/ccgOputz.s:267    .gcc_except_table:0000000000000000 .LLSDA54
                           .group:0000000000000000 _ZN10IdleThreadD5Ev
                           .group:0000000000000000 _ZN14KernelConsumerD5Ev

UNDEFINED SYMBOLS
interruptHandler
_ZN7KMemory16initializeMemoryEv
_ZN8KConsole12initKConsoleEv
_Znwm
_ZN6ThreadC2Ev
_Z8userMainv
_ZN6ThreadC1EPFvPvES0_
_ZdlPv
_Unwind_Resume
_Z13thread_createPP3TCBPFvPvES2_
_ZN3TCB7runningE
_ZN6Thread5startEv
_ZN6Thread4joinEv
__gxx_personality_v0
_Z15thread_dispatchv
_ZN6ThreadD2Ev
_ZN8KConsole2drE
_ZN8KConsole20outputBufferHasSpaceE
_Z10sem_signalP4KSem
_ZN8KConsole13getFromOutputEv
_ZN8KConsole2srE
