GAS LISTING /tmp/ccVck2hA.s 			page 1


   1              		.file	"main.cpp"
   2              		.option pic
   3              		.option norelax
   4              		.text
   5              	.Ltext0:
   6              		.align	2
   7              		.globl	_Z4idlePv
   9              	_Z4idlePv:
  10              	.LFB49:
  11              		.file 1 "src/main.cpp"
   1:src/main.cpp  **** #include "../lib/hw.h"
   2:src/main.cpp  **** #include "../h/helper.hpp"
   3:src/main.cpp  **** #include "../h/Riscv.hpp"
   4:src/main.cpp  **** #include "../h/syscall_c.hpp"
   5:src/main.cpp  **** #include "../h/syscall_cpp.hpp"
   6:src/main.cpp  **** #include "../h/TCB.hpp"
   7:src/main.cpp  **** #include "../h/ThreadQueue.hpp"
   8:src/main.cpp  **** //#include "../h/KSem.hpp"
   9:src/main.cpp  **** #include "../h/KConsole.hpp"
  10:src/main.cpp  **** 
  11:src/main.cpp  **** #include "../test/printing.hpp"
  12:src/main.cpp  **** #include "../h/KMemory.hpp"
  13:src/main.cpp  **** 
  14:src/main.cpp  **** 
  15:src/main.cpp  **** extern "C" void interruptHandler();
  16:src/main.cpp  **** 
  17:src/main.cpp  **** void userMain();
  18:src/main.cpp  **** 
  19:src/main.cpp  **** void idle(void*) {
  12              		.loc 1 19 18
  13              		.cfi_startproc
  14 0000 130101FF 		addi	sp,sp,-16
  15              		.cfi_def_cfa_offset 16
  16 0004 23341100 		sd	ra,8(sp)
  17 0008 23308100 		sd	s0,0(sp)
  18              		.cfi_offset 1, -8
  19              		.cfi_offset 8, -16
  20 000c 13040101 		addi	s0,sp,16
  21              		.cfi_def_cfa 8, 0
  22              	.L2:
  20:src/main.cpp  ****     while (1) { thread_dispatch(); }
  23              		.loc 1 20 5 discriminator 1
  24              		.loc 1 20 17 discriminator 1
  25              		.loc 1 20 32 is_stmt 0 discriminator 1
  26 0010 97000000 		call	_Z15thread_dispatchv@plt
  26      E7800000 
  27              	.LVL0:
  28              		.loc 1 20 5 is_stmt 1 discriminator 1
  29 0018 6FF09FFF 		j	.L2
  30              		.cfi_endproc
  31              	.LFE49:
  33              		.align	2
  34              		.globl	_Z22kernelConsumerFunctionPv
  36              	_Z22kernelConsumerFunctionPv:
  37              	.LFB50:
  21:src/main.cpp  **** }
  22:src/main.cpp  **** 
GAS LISTING /tmp/ccVck2hA.s 			page 2


  23:src/main.cpp  **** void kernelConsumerFunction(void*) {
  38              		.loc 1 23 36
  39              		.cfi_startproc
  40 001c 130101FF 		addi	sp,sp,-16
  41              		.cfi_def_cfa_offset 16
  42 0020 23341100 		sd	ra,8(sp)
  43 0024 23308100 		sd	s0,0(sp)
  44              		.cfi_offset 1, -8
  45              		.cfi_offset 8, -16
  46 0028 13040101 		addi	s0,sp,16
  47              		.cfi_def_cfa 8, 0
  48 002c 6F008002 		j	.L6
  49              	.LVL1:
  50              	.L8:
  51              	.LBB10:
  24:src/main.cpp  ****     while (1) {
  25:src/main.cpp  ****         char c = KConsole::getFromOutput();
  26:src/main.cpp  ****         while (!(*KConsole::sr & CONSOLE_TX_STATUS_BIT)) {}
  27:src/main.cpp  ****         *KConsole::dr = c;
  52              		.loc 1 27 9
  53 0030 97070000 		la	a5,_ZN8KConsole2drE
  53      83B70700 
  54 0038 83B70700 		ld	a5,0(a5)
  55              		.loc 1 27 23 is_stmt 0
  56 003c 2380A700 		sb	a0,0(a5)
  28:src/main.cpp  ****         sem_signal(KConsole::outputBufferHasSpace);
  57              		.loc 1 28 9 is_stmt 1
  58              		.loc 1 28 19 is_stmt 0
  59 0040 97070000 		la	a5,_ZN8KConsole20outputBufferHasSpaceE
  59      83B70700 
  60 0048 03B50700 		ld	a0,0(a5)
  61              	.LVL2:
  62 004c 97000000 		call	_Z10sem_signalP4KSem@plt
  62      E7800000 
  63              	.LVL3:
  64              	.LBE10:
  24:src/main.cpp  ****     while (1) {
  65              		.loc 1 24 5 is_stmt 1
  66              	.L6:
  24:src/main.cpp  ****     while (1) {
  67              		.loc 1 24 5
  68              	.LBB11:
  25:src/main.cpp  ****         while (!(*KConsole::sr & CONSOLE_TX_STATUS_BIT)) {}
  69              		.loc 1 25 9
  25:src/main.cpp  ****         while (!(*KConsole::sr & CONSOLE_TX_STATUS_BIT)) {}
  70              		.loc 1 25 41 is_stmt 0
  71 0054 97000000 		call	_ZN8KConsole13getFromOutputEv@plt
  71      E7800000 
  72              	.LVL4:
  73              	.L5:
  26:src/main.cpp  ****         *KConsole::dr = c;
  74              		.loc 1 26 9 is_stmt 1
  26:src/main.cpp  ****         *KConsole::dr = c;
  75              		.loc 1 26 16
  26:src/main.cpp  ****         *KConsole::dr = c;
  76              		.loc 1 26 18 is_stmt 0
  77 005c 97070000 		la	a5,_ZN8KConsole2srE
GAS LISTING /tmp/ccVck2hA.s 			page 3


  77      83B70700 
  78 0064 83B70700 		ld	a5,0(a5)
  79 0068 83C70700 		lbu	a5,0(a5)
  26:src/main.cpp  ****         *KConsole::dr = c;
  80              		.loc 1 26 16
  81 006c 93F70702 		andi	a5,a5,32
  82 0070 E38607FE 		beqz	a5,.L5
  83 0074 6FF0DFFB 		j	.L8
  84              	.LBE11:
  85              		.cfi_endproc
  86              	.LFE50:
  88              		.align	2
  89              		.globl	main
  91              	main:
  92              	.LFB51:
  29:src/main.cpp  ****     }
  30:src/main.cpp  **** 
  31:src/main.cpp  **** }
  32:src/main.cpp  **** 
  33:src/main.cpp  **** int main() {
  93              		.loc 1 33 12 is_stmt 1
  94              		.cfi_startproc
  95 0078 130101FD 		addi	sp,sp,-48
  96              		.cfi_def_cfa_offset 48
  97 007c 23341102 		sd	ra,40(sp)
  98 0080 23308102 		sd	s0,32(sp)
  99              		.cfi_offset 1, -8
 100              		.cfi_offset 8, -16
 101 0084 13040103 		addi	s0,sp,48
 102              		.cfi_def_cfa 8, 0
  34:src/main.cpp  ****     //postavljanje adrese prekidne rutine u stvec
  35:src/main.cpp  ****     __asm__ volatile("csrw stvec, %[handler]": :[handler] "r"(&interruptHandler));
 103              		.loc 1 35 5
 104              		.loc 1 35 82 is_stmt 0
 105 0088 97070000 		la	a5,interruptHandler
 105      83B70700 
 106              	#APP
 107              	# 35 "src/main.cpp" 1
  36              	
  37:src/main.cpp  ****     //inicijalizacija alokatora memorije
  38:src/main.cpp  ****     KMemory::initializeMemory();
 108              		csrw stvec, a5
 109              	# 0 "" 2
 110              		.loc 1 38 5 is_stmt 1
 111              		.loc 1 38 30 is_stmt 0
 112              	#NO_APP
 113 0094 97000000 		call	_ZN7KMemory16initializeMemoryEv@plt
 113      E7800000 
 114              	.LVL5:
  39:src/main.cpp  **** 
  40:src/main.cpp  ****     //inicijalizacija komunikacije sa konzolom
  41:src/main.cpp  ****     KConsole::initKConsole();
 115              		.loc 1 41 5 is_stmt 1
 116              		.loc 1 41 27 is_stmt 0
 117 009c 97000000 		call	_ZN8KConsole12initKConsoleEv@plt
 117      E7800000 
 118              	.LVL6:
GAS LISTING /tmp/ccVck2hA.s 			page 4


  42:src/main.cpp  **** 
  43:src/main.cpp  ****     //pravljenje niti
  44:src/main.cpp  ****     thread_t mainHandle;
 119              		.loc 1 44 5 is_stmt 1
  45:src/main.cpp  ****     thread_t userHandle;
 120              		.loc 1 45 5
  46:src/main.cpp  ****     thread_t idleHandle;
 121              		.loc 1 46 5
  47:src/main.cpp  ****     thread_t consoleOutputHandle;
 122              		.loc 1 47 5
  48:src/main.cpp  ****     thread_create(&mainHandle, nullptr, nullptr);
 123              		.loc 1 48 5
 124              		.loc 1 48 18 is_stmt 0
 125 00a4 13060000 		li	a2,0
 126 00a8 93050000 		li	a1,0
 127 00ac 130584FE 		addi	a0,s0,-24
 128 00b0 97000000 		call	_Z13thread_createPP3TCBPFvPvES2_@plt
 128      E7800000 
 129              	.LVL7:
  49:src/main.cpp  ****     TCB::setRunning(mainHandle);
 130              		.loc 1 49 5 is_stmt 1
 131              		.loc 1 49 20 is_stmt 0
 132 00b8 833784FE 		ld	a5,-24(s0)
 133              	.LVL8:
 134              	.LBB12:
 135              	.LBB13:
 136              		.file 2 "src/../h/TCB.hpp"
   1:src/../h/TCB.hpp **** //
   2:src/../h/TCB.hpp **** // Created by os on 5/23/23.
   3:src/../h/TCB.hpp **** //
   4:src/../h/TCB.hpp **** 
   5:src/../h/TCB.hpp **** #ifndef PROJEKAT2023_TCB_HPP
   6:src/../h/TCB.hpp **** #define PROJEKAT2023_TCB_HPP
   7:src/../h/TCB.hpp **** 
   8:src/../h/TCB.hpp **** #include "../lib/hw.h"
   9:src/../h/TCB.hpp **** #include "../h/ThreadQueue.hpp"
  10:src/../h/TCB.hpp **** 
  11:src/../h/TCB.hpp **** class TCB {
  12:src/../h/TCB.hpp **** public:
  13:src/../h/TCB.hpp ****     friend class Scheduler;
  14:src/../h/TCB.hpp **** 
  15:src/../h/TCB.hpp ****     using Body = void (*)(void*);
  16:src/../h/TCB.hpp **** 
  17:src/../h/TCB.hpp ****     enum ThreadStatus {
  18:src/../h/TCB.hpp ****         CREATED, ACTIVE, BLOCKED, JOINING, SLEEPING, FINISHED
  19:src/../h/TCB.hpp ****     };
  20:src/../h/TCB.hpp **** 
  21:src/../h/TCB.hpp ****     void setStatus(ThreadStatus stat) { this->status = stat; }
  22:src/../h/TCB.hpp **** 
  23:src/../h/TCB.hpp ****     ThreadStatus getStatus() { return this->status; }
  24:src/../h/TCB.hpp **** 
  25:src/../h/TCB.hpp ****     static TCB* createThread(Body function, void* args, uint64* stack);
  26:src/../h/TCB.hpp **** 
  27:src/../h/TCB.hpp ****     static void start(TCB* newTcb);
  28:src/../h/TCB.hpp **** 
  29:src/../h/TCB.hpp ****     uint64 getTimeSlice() { return timeSlice; }
  30:src/../h/TCB.hpp **** 
GAS LISTING /tmp/ccVck2hA.s 			page 5


  31:src/../h/TCB.hpp ****     void setTimeSlice(uint64 value) { timeSlice = value; }
  32:src/../h/TCB.hpp **** 
  33:src/../h/TCB.hpp ****     Body getBody() { return threadFunction; }
  34:src/../h/TCB.hpp **** 
  35:src/../h/TCB.hpp ****     //static void threadSleep(time_t sleepTime);
  36:src/../h/TCB.hpp **** 
  37:src/../h/TCB.hpp ****     static TCB* getRunning() { return running; }
  38:src/../h/TCB.hpp **** 
  39:src/../h/TCB.hpp ****     static void setRunning(TCB* newRunning) { running = newRunning; }
 137              		.loc 2 39 47 is_stmt 1
 138              		.loc 2 39 55 is_stmt 0
 139 00bc 17070000 		la	a4,_ZN3TCB7runningE
 139      03370700 
 140 00c4 2330F700 		sd	a5,0(a4)
 141              	.LVL9:
 142              	.LBE13:
 143              	.LBE12:
  50:src/main.cpp  ****     mainHandle->setStatus(TCB::ACTIVE);
 144              		.loc 1 50 5 is_stmt 1
 145              	.LBB14:
 146              	.LBB15:
  21:src/../h/TCB.hpp **** 
 147              		.loc 2 21 41
  21:src/../h/TCB.hpp **** 
 148              		.loc 2 21 54 is_stmt 0
 149 00c8 13071000 		li	a4,1
 150 00cc 23ACE704 		sw	a4,88(a5)
 151              	.LVL10:
 152              	.LBE15:
 153              	.LBE14:
  51:src/main.cpp  ****     thread_create(&userHandle, (TCB::Body) userMain, nullptr);
 154              		.loc 1 51 5 is_stmt 1
 155              		.loc 1 51 18 is_stmt 0
 156 00d0 13060000 		li	a2,0
 157 00d4 97050000 		la	a1,_Z8userMainv
 157      83B50500 
 158 00dc 130504FE 		addi	a0,s0,-32
 159 00e0 97000000 		call	_Z13thread_createPP3TCBPFvPvES2_@plt
 159      E7800000 
 160              	.LVL11:
  52:src/main.cpp  ****     thread_create(&consoleOutputHandle, kernelConsumerFunction, nullptr);
 161              		.loc 1 52 5 is_stmt 1
 162              		.loc 1 52 18 is_stmt 0
 163 00e8 13060000 		li	a2,0
 164 00ec 97050000 		lla	a1,_Z22kernelConsumerFunctionPv
 164      93850500 
 165 00f4 130504FD 		addi	a0,s0,-48
 166 00f8 97000000 		call	_Z13thread_createPP3TCBPFvPvES2_@plt
 166      E7800000 
 167              	.LVL12:
  53:src/main.cpp  ****     thread_create(&idleHandle, idle, nullptr);
 168              		.loc 1 53 5 is_stmt 1
 169              		.loc 1 53 18 is_stmt 0
 170 0100 13060000 		li	a2,0
 171 0104 97050000 		lla	a1,_Z4idlePv
 171      93850500 
 172 010c 130584FD 		addi	a0,s0,-40
GAS LISTING /tmp/ccVck2hA.s 			page 6


 173 0110 97000000 		call	_Z13thread_createPP3TCBPFvPvES2_@plt
 173      E7800000 
 174              	.LVL13:
  54:src/main.cpp  **** 
  55:src/main.cpp  ****     //omogucavanje prekida
  56:src/main.cpp  ****     Riscv::ms_sstatus(Riscv::SSTATUS_SIE);
 175              		.loc 1 56 5 is_stmt 1
 176              	.LBB16:
 177              	.LBB17:
 178              		.file 3 "src/../h/Riscv.hpp"
   1:src/../h/Riscv.hpp **** //
   2:src/../h/Riscv.hpp **** // Created by os on 5/17/23.
   3:src/../h/Riscv.hpp **** //
   4:src/../h/Riscv.hpp **** 
   5:src/../h/Riscv.hpp **** #ifndef PROJEKAT2023_RISCV_HPP
   6:src/../h/Riscv.hpp **** #define PROJEKAT2023_RISCV_HPP
   7:src/../h/Riscv.hpp **** 
   8:src/../h/Riscv.hpp **** #include "../lib/hw.h"
   9:src/../h/Riscv.hpp **** 
  10:src/../h/Riscv.hpp **** class Riscv {
  11:src/../h/Riscv.hpp **** public:
  12:src/../h/Riscv.hpp **** 
  13:src/../h/Riscv.hpp **** 	static void returnFromInterrupt();
  14:src/../h/Riscv.hpp **** 
  15:src/../h/Riscv.hpp **** 	//read scause
  16:src/../h/Riscv.hpp **** 	static uint64 r_scause();
  17:src/../h/Riscv.hpp **** 
  18:src/../h/Riscv.hpp **** 	//write scause
  19:src/../h/Riscv.hpp **** 	static void w_scause(uint64 scause);
  20:src/../h/Riscv.hpp **** 
  21:src/../h/Riscv.hpp **** 	//read sepc
  22:src/../h/Riscv.hpp **** 	static uint64 r_sepc();
  23:src/../h/Riscv.hpp **** 
  24:src/../h/Riscv.hpp **** 	//write sepc
  25:src/../h/Riscv.hpp **** 	static void w_sepc(uint64 sepc);
  26:src/../h/Riscv.hpp **** 
  27:src/../h/Riscv.hpp **** 	//read stvec
  28:src/../h/Riscv.hpp **** 	static uint64 r_stvec();
  29:src/../h/Riscv.hpp **** 
  30:src/../h/Riscv.hpp **** 	//write stvec
  31:src/../h/Riscv.hpp **** 	static void w_stvec(uint64 stvec);
  32:src/../h/Riscv.hpp **** 
  33:src/../h/Riscv.hpp **** 	enum BitMaskSip {
  34:src/../h/Riscv.hpp **** 		//postoji zahtev za softverski prekid
  35:src/../h/Riscv.hpp **** 		SIP_SSIP = (1 << 1),
  36:src/../h/Riscv.hpp **** 		//postoji prekid od tajmera
  37:src/../h/Riscv.hpp **** 		SIP_STIP = (1 << 5),
  38:src/../h/Riscv.hpp **** 		//postoji zahtev za spoljasnji hardverski prekid
  39:src/../h/Riscv.hpp **** 		SIP_SEIP = (1 << 9)
  40:src/../h/Riscv.hpp **** 	};
  41:src/../h/Riscv.hpp **** 
  42:src/../h/Riscv.hpp **** 	//mask set sip
  43:src/../h/Riscv.hpp **** 	static void ms_sip(uint64 mask);
  44:src/../h/Riscv.hpp **** 
  45:src/../h/Riscv.hpp **** 	//mask clear sip
  46:src/../h/Riscv.hpp **** 	static void mc_sip(uint64 mask);
  47:src/../h/Riscv.hpp **** 
GAS LISTING /tmp/ccVck2hA.s 			page 7


  48:src/../h/Riscv.hpp **** 	//read sip
  49:src/../h/Riscv.hpp **** 	static uint64 r_sip();
  50:src/../h/Riscv.hpp **** 
  51:src/../h/Riscv.hpp **** 	//write sip
  52:src/../h/Riscv.hpp **** 	static void w_sip(uint64 sip);
  53:src/../h/Riscv.hpp **** 
  54:src/../h/Riscv.hpp **** 	//kada se pozove sret, SIE dobija vrednost SPIE, SPIE se postavlja na 1,
  55:src/../h/Riscv.hpp **** 	//rezim se postavlja na osnovu SPP bita, SPP se postavlja na 0
  56:src/../h/Riscv.hpp **** 	enum BitMaskSstatus {
  57:src/../h/Riscv.hpp **** 		//1 - dozvoljeni prekidi; 0- nedozvoljeni prekidi; igonrise se u korisnickom rezimu
  58:src/../h/Riscv.hpp **** 		SSTATUS_SIE = (1 << 1),
  59:src/../h/Riscv.hpp **** 		//prethodna vrednost bita SIE
  60:src/../h/Riscv.hpp **** 		SSTATUS_SPIE = (1 << 5),
  61:src/../h/Riscv.hpp **** 		//iz kog rezima se desio skok; 0 - iz korisnickog; 1 - iz sistemskog
  62:src/../h/Riscv.hpp **** 		SSTATUS_SPP = (1 << 8)
  63:src/../h/Riscv.hpp **** 	};
  64:src/../h/Riscv.hpp **** 
  65:src/../h/Riscv.hpp **** 	//mask set sstatus
  66:src/../h/Riscv.hpp **** 	static void ms_sstatus(uint64 mask);
  67:src/../h/Riscv.hpp **** 
  68:src/../h/Riscv.hpp **** 	//mask clear sstatus
  69:src/../h/Riscv.hpp **** 	static void mc_sstatus(uint64 mask);
  70:src/../h/Riscv.hpp **** 
  71:src/../h/Riscv.hpp **** 	//read sstatus
  72:src/../h/Riscv.hpp **** 	static uint64 r_sstatus();
  73:src/../h/Riscv.hpp **** 
  74:src/../h/Riscv.hpp **** 	//write sstatus
  75:src/../h/Riscv.hpp **** 	static void w_sstatus(uint64 sstatus);
  76:src/../h/Riscv.hpp **** 
  77:src/../h/Riscv.hpp **** 	//upisuje kod sistemskog poziva u registar a0
  78:src/../h/Riscv.hpp **** 	static void loadOpCode(uint64 opCode);
  79:src/../h/Riscv.hpp **** 
  80:src/../h/Riscv.hpp **** };
  81:src/../h/Riscv.hpp **** 
  82:src/../h/Riscv.hpp **** inline uint64 Riscv::r_scause() {
  83:src/../h/Riscv.hpp **** 	uint64 volatile scause;
  84:src/../h/Riscv.hpp **** 	__asm__ volatile("csrr %[scause], scause": [scause] "=r"(scause));
  85:src/../h/Riscv.hpp **** 	return scause;
  86:src/../h/Riscv.hpp **** }
  87:src/../h/Riscv.hpp **** 
  88:src/../h/Riscv.hpp **** inline void Riscv::w_scause(uint64 scause) {
  89:src/../h/Riscv.hpp **** 	__asm__ volatile("csrw scause, %[scause]": :[scause] "r"(scause));
  90:src/../h/Riscv.hpp **** }
  91:src/../h/Riscv.hpp **** 
  92:src/../h/Riscv.hpp **** inline uint64 Riscv::r_sepc() {
  93:src/../h/Riscv.hpp **** 	uint64 volatile sepc;
  94:src/../h/Riscv.hpp **** 	__asm__ volatile("csrr %[sepc], sepc": [sepc] "=r"(sepc));
  95:src/../h/Riscv.hpp **** 	return sepc;
  96:src/../h/Riscv.hpp **** }
  97:src/../h/Riscv.hpp **** 
  98:src/../h/Riscv.hpp **** inline void Riscv::w_sepc(uint64 sepc) {
  99:src/../h/Riscv.hpp **** 	__asm__ volatile("csrw sepc, %[sepc]": :[sepc] "r"(sepc));
 100:src/../h/Riscv.hpp **** }
 101:src/../h/Riscv.hpp **** 
 102:src/../h/Riscv.hpp **** inline uint64 Riscv::r_stvec() {
 103:src/../h/Riscv.hpp **** 	uint64 volatile stvec;
 104:src/../h/Riscv.hpp **** 	__asm__ volatile("csrr %[stvec], stvec": [stvec] "=r"(stvec));
GAS LISTING /tmp/ccVck2hA.s 			page 8


 105:src/../h/Riscv.hpp **** 	return stvec;
 106:src/../h/Riscv.hpp **** }
 107:src/../h/Riscv.hpp **** 
 108:src/../h/Riscv.hpp **** inline void Riscv::w_stvec(uint64 stvec) {
 109:src/../h/Riscv.hpp **** 	__asm__ volatile("csrw stvec, %[stvec]": :[stvec] "r"(stvec));
 110:src/../h/Riscv.hpp **** }
 111:src/../h/Riscv.hpp **** 
 112:src/../h/Riscv.hpp **** inline void Riscv::ms_sip(uint64 mask) {
 113:src/../h/Riscv.hpp **** 	__asm__ volatile("csrs sip, %[mask]": :[mask] "r"(mask));
 114:src/../h/Riscv.hpp **** }
 115:src/../h/Riscv.hpp **** 
 116:src/../h/Riscv.hpp **** inline void Riscv::mc_sip(uint64 mask) {
 117:src/../h/Riscv.hpp **** 	__asm__ volatile("csrc sip, %[mask]": :[mask] "r"(mask));
 118:src/../h/Riscv.hpp **** }
 119:src/../h/Riscv.hpp **** 
 120:src/../h/Riscv.hpp **** inline uint64 Riscv::r_sip() {
 121:src/../h/Riscv.hpp **** 	uint64 volatile sip;
 122:src/../h/Riscv.hpp **** 	__asm__ volatile("csrr %[sip], sip": [sip] "=r"(sip));
 123:src/../h/Riscv.hpp **** 	return sip;
 124:src/../h/Riscv.hpp **** }
 125:src/../h/Riscv.hpp **** 
 126:src/../h/Riscv.hpp **** inline void Riscv::w_sip(uint64 sip) {
 127:src/../h/Riscv.hpp **** 	__asm__ volatile("csrw sip, %[sip]": :[sip] "r"(sip));
 128:src/../h/Riscv.hpp **** }
 129:src/../h/Riscv.hpp **** 
 130:src/../h/Riscv.hpp **** inline void Riscv::ms_sstatus(uint64 mask) {
 131:src/../h/Riscv.hpp **** 	__asm__ volatile("csrs sstatus, %[mask]": :[mask] "r"(mask));
 179              		.loc 3 131 2
 180              		.loc 3 131 62 is_stmt 0
 181 0118 93072000 		li	a5,2
 182              	#APP
 183              	# 131 "src/../h/Riscv.hpp" 1
 132              	}
 184              		csrs sstatus, a5
 185              	# 0 "" 2
 186              	.LVL14:
 187              	#NO_APP
 188              	.LBE17:
 189              	.LBE16:
  57:src/main.cpp  **** 
  58:src/main.cpp  ****     //cekanje da se userMain zavrsi
  59:src/main.cpp  ****     thread_join(userHandle);
 190              		.loc 1 59 5 is_stmt 1
 191              		.loc 1 59 16 is_stmt 0
 192 0120 033504FE 		ld	a0,-32(s0)
 193 0124 97000000 		call	_Z11thread_joinP3TCB@plt
 193      E7800000 
 194              	.LVL15:
 195              	.L10:
  60:src/main.cpp  **** 
  61:src/main.cpp  ****     //flush output bafera za konzolu
  62:src/main.cpp  ****     while (KConsole::outputHead != KConsole::outputTail) {}
 196              		.loc 1 62 5 is_stmt 1
 197              		.loc 1 62 33
 198 012c 97070000 		la	a5,_ZN8KConsole10outputHeadE
 198      83B70700 
 199 0134 03A70700 		lw	a4,0(a5)
GAS LISTING /tmp/ccVck2hA.s 			page 9


 200 0138 97070000 		la	a5,_ZN8KConsole10outputTailE
 200      83B70700 
 201 0140 83A70700 		lw	a5,0(a5)
 202 0144 E314F7FE 		bne	a4,a5,.L10
  63:src/main.cpp  **** 
  64:src/main.cpp  ****     //maskiranje svih prekida
  65:src/main.cpp  ****     Riscv::mc_sstatus(Riscv::SSTATUS_SIE);
 203              		.loc 1 65 5
 204              	.LVL16:
 205              	.LBB18:
 206              	.LBB19:
 133:src/../h/Riscv.hpp **** 
 134:src/../h/Riscv.hpp **** inline void Riscv::mc_sstatus(uint64 mask) {
 135:src/../h/Riscv.hpp **** 	__asm__ volatile("csrc sstatus, %[mask]": :[mask] "r"(mask));
 207              		.loc 3 135 2
 208              		.loc 3 135 62 is_stmt 0
 209 0148 93072000 		li	a5,2
 210              	#APP
 211              	# 135 "src/../h/Riscv.hpp" 1
 136              	}
 212              		csrc sstatus, a5
 213              	# 0 "" 2
 214              	.LVL17:
 215              	#NO_APP
 216              	.LBE19:
 217              	.LBE18:
  66:src/main.cpp  **** 
  67:src/main.cpp  ****     return 0;
 218              		.loc 1 67 5 is_stmt 1
  68:src/main.cpp  **** }...
 219              		.loc 1 68 1 is_stmt 0
 220 0150 13050000 		li	a0,0
 221 0154 83308102 		ld	ra,40(sp)
 222              		.cfi_restore 1
 223 0158 03340102 		ld	s0,32(sp)
 224              		.cfi_restore 8
 225              		.cfi_def_cfa 2, 48
 226 015c 13010103 		addi	sp,sp,48
 227              		.cfi_def_cfa_offset 0
 228 0160 67800000 		jr	ra
 229              		.cfi_endproc
 230              	.LFE51:
 232              	.Letext0:
 233              		.file 4 "src/../lib/hw.h"
 234              		.file 5 "src/../h/syscall_c.hpp"
 235              		.file 6 "src/../h/../h/ThreadQueue.hpp"
 236              		.file 7 "src/../h/KConsole.hpp"
 237              		.file 8 "src/../h/KMemory.hpp"
GAS LISTING /tmp/ccVck2hA.s 			page 10


DEFINED SYMBOLS
                            *ABS*:0000000000000000 main.cpp
     /tmp/ccVck2hA.s:9      .text:0000000000000000 _Z4idlePv
     /tmp/ccVck2hA.s:13     .text:0000000000000000 .L0 
     /tmp/ccVck2hA.s:14     .text:0000000000000000 .L0 
     /tmp/ccVck2hA.s:15     .text:0000000000000004 .L0 
     /tmp/ccVck2hA.s:18     .text:000000000000000c .L0 
     /tmp/ccVck2hA.s:19     .text:000000000000000c .L0 
     /tmp/ccVck2hA.s:21     .text:0000000000000010 .L0 
     /tmp/ccVck2hA.s:24     .text:0000000000000010 .L0 
     /tmp/ccVck2hA.s:25     .text:0000000000000010 .L0 
     /tmp/ccVck2hA.s:26     .text:0000000000000010 .L0 
     /tmp/ccVck2hA.s:29     .text:0000000000000018 .L0 
     /tmp/ccVck2hA.s:30     .text:000000000000001c .L0 
     /tmp/ccVck2hA.s:36     .text:000000000000001c _Z22kernelConsumerFunctionPv
     /tmp/ccVck2hA.s:39     .text:000000000000001c .L0 
     /tmp/ccVck2hA.s:40     .text:000000000000001c .L0 
     /tmp/ccVck2hA.s:41     .text:0000000000000020 .L0 
     /tmp/ccVck2hA.s:44     .text:0000000000000028 .L0 
     /tmp/ccVck2hA.s:45     .text:0000000000000028 .L0 
     /tmp/ccVck2hA.s:47     .text:000000000000002c .L0 
     /tmp/ccVck2hA.s:53     .text:0000000000000030 .L0 
     /tmp/ccVck2hA.s:56     .text:000000000000003c .L0 
     /tmp/ccVck2hA.s:58     .text:0000000000000040 .L0 
     /tmp/ccVck2hA.s:59     .text:0000000000000040 .L0 
     /tmp/ccVck2hA.s:67     .text:0000000000000054 .L0 
     /tmp/ccVck2hA.s:69     .text:0000000000000054 .L0 
     /tmp/ccVck2hA.s:70     .text:0000000000000054 .L0 
     /tmp/ccVck2hA.s:71     .text:0000000000000054 .L0 
     /tmp/ccVck2hA.s:75     .text:000000000000005c .L0 
     /tmp/ccVck2hA.s:76     .text:000000000000005c .L0 
     /tmp/ccVck2hA.s:77     .text:000000000000005c .L0 
     /tmp/ccVck2hA.s:81     .text:000000000000006c .L0 
     /tmp/ccVck2hA.s:85     .text:0000000000000078 .L0 
     /tmp/ccVck2hA.s:91     .text:0000000000000078 main
     /tmp/ccVck2hA.s:94     .text:0000000000000078 .L0 
     /tmp/ccVck2hA.s:95     .text:0000000000000078 .L0 
     /tmp/ccVck2hA.s:96     .text:000000000000007c .L0 
     /tmp/ccVck2hA.s:99     .text:0000000000000084 .L0 
     /tmp/ccVck2hA.s:100    .text:0000000000000084 .L0 
     /tmp/ccVck2hA.s:102    .text:0000000000000088 .L0 
     /tmp/ccVck2hA.s:104    .text:0000000000000088 .L0 
     /tmp/ccVck2hA.s:105    .text:0000000000000088 .L0 
     /tmp/ccVck2hA.s:111    .text:0000000000000094 .L0 
     /tmp/ccVck2hA.s:113    .text:0000000000000094 .L0 
     /tmp/ccVck2hA.s:116    .text:000000000000009c .L0 
     /tmp/ccVck2hA.s:117    .text:000000000000009c .L0 
     /tmp/ccVck2hA.s:120    .text:00000000000000a4 .L0 
     /tmp/ccVck2hA.s:121    .text:00000000000000a4 .L0 
     /tmp/ccVck2hA.s:122    .text:00000000000000a4 .L0 
     /tmp/ccVck2hA.s:123    .text:00000000000000a4 .L0 
     /tmp/ccVck2hA.s:124    .text:00000000000000a4 .L0 
     /tmp/ccVck2hA.s:125    .text:00000000000000a4 .L0 
     /tmp/ccVck2hA.s:131    .text:00000000000000b8 .L0 
     /tmp/ccVck2hA.s:132    .text:00000000000000b8 .L0 
     /tmp/ccVck2hA.s:138    .text:00000000000000bc .L0 
     /tmp/ccVck2hA.s:139    .text:00000000000000bc .L0 
GAS LISTING /tmp/ccVck2hA.s 			page 11


     /tmp/ccVck2hA.s:147    .text:00000000000000c8 .L0 
     /tmp/ccVck2hA.s:148    .text:00000000000000c8 .L0 
     /tmp/ccVck2hA.s:149    .text:00000000000000c8 .L0 
     /tmp/ccVck2hA.s:155    .text:00000000000000d0 .L0 
     /tmp/ccVck2hA.s:156    .text:00000000000000d0 .L0 
     /tmp/ccVck2hA.s:162    .text:00000000000000e8 .L0 
     /tmp/ccVck2hA.s:163    .text:00000000000000e8 .L0 
     /tmp/ccVck2hA.s:169    .text:0000000000000100 .L0 
     /tmp/ccVck2hA.s:170    .text:0000000000000100 .L0 
     /tmp/ccVck2hA.s:179    .text:0000000000000118 .L0 
     /tmp/ccVck2hA.s:180    .text:0000000000000118 .L0 
     /tmp/ccVck2hA.s:181    .text:0000000000000118 .L0 
     /tmp/ccVck2hA.s:191    .text:0000000000000120 .L0 
     /tmp/ccVck2hA.s:192    .text:0000000000000120 .L0 
     /tmp/ccVck2hA.s:197    .text:000000000000012c .L0 
     /tmp/ccVck2hA.s:198    .text:000000000000012c .L0 
     /tmp/ccVck2hA.s:207    .text:0000000000000148 .L0 
     /tmp/ccVck2hA.s:208    .text:0000000000000148 .L0 
     /tmp/ccVck2hA.s:209    .text:0000000000000148 .L0 
     /tmp/ccVck2hA.s:219    .text:0000000000000150 .L0 
     /tmp/ccVck2hA.s:220    .text:0000000000000150 .L0 
     /tmp/ccVck2hA.s:222    .text:0000000000000158 .L0 
     /tmp/ccVck2hA.s:224    .text:000000000000015c .L0 
     /tmp/ccVck2hA.s:225    .text:000000000000015c .L0 
     /tmp/ccVck2hA.s:227    .text:0000000000000160 .L0 
     /tmp/ccVck2hA.s:229    .text:0000000000000164 .L0 
     /tmp/ccVck2hA.s:238    .text:0000000000000164 .L0 
     /tmp/ccVck2hA.s:53     .text:0000000000000030 .L0 
     /tmp/ccVck2hA.s:59     .text:0000000000000040 .L0 
     /tmp/ccVck2hA.s:77     .text:000000000000005c .L0 
     /tmp/ccVck2hA.s:105    .text:0000000000000088 .L0 
     /tmp/ccVck2hA.s:139    .text:00000000000000bc .L0 
     /tmp/ccVck2hA.s:157    .text:00000000000000d4 .L0 
     /tmp/ccVck2hA.s:164    .text:00000000000000ec .L0 
     /tmp/ccVck2hA.s:171    .text:0000000000000104 .L0 
     /tmp/ccVck2hA.s:198    .text:000000000000012c .L0 
     /tmp/ccVck2hA.s:200    .text:0000000000000138 .L0 
     /tmp/ccVck2hA.s:22     .text:0000000000000010 .L2
     /tmp/ccVck2hA.s:66     .text:0000000000000054 .L6
     /tmp/ccVck2hA.s:73     .text:000000000000005c .L5
     /tmp/ccVck2hA.s:50     .text:0000000000000030 .L8
     /tmp/ccVck2hA.s:195    .text:000000000000012c .L10
     /tmp/ccVck2hA.s:1766   .debug_abbrev:0000000000000000 .Ldebug_abbrev0
     /tmp/ccVck2hA.s:3185   .debug_str:00000000000009a1 .LASF193
     /tmp/ccVck2hA.s:2955   .debug_str:00000000000002ef .LASF194
     /tmp/ccVck2hA.s:3143   .debug_str:0000000000000870 .LASF195
     /tmp/ccVck2hA.s:5      .text:0000000000000000 .Ltext0
     /tmp/ccVck2hA.s:232    .text:0000000000000164 .Letext0
     /tmp/ccVck2hA.s:2857   .debug_line:0000000000000000 .Ldebug_line0
     /tmp/ccVck2hA.s:2997   .debug_str:000000000000041b .LASF0
     /tmp/ccVck2hA.s:3023   .debug_str:00000000000004bb .LASF1
     /tmp/ccVck2hA.s:3123   .debug_str:00000000000007cb .LASF2
     /tmp/ccVck2hA.s:2943   .debug_str:00000000000002a0 .LASF3
     /tmp/ccVck2hA.s:3135   .debug_str:0000000000000839 .LASF4
     /tmp/ccVck2hA.s:3009   .debug_str:0000000000000458 .LASF5
     /tmp/ccVck2hA.s:2867   .debug_str:000000000000004c .LASF6
     /tmp/ccVck2hA.s:3091   .debug_str:00000000000006e7 .LASF7
GAS LISTING /tmp/ccVck2hA.s 			page 12


     /tmp/ccVck2hA.s:3087   .debug_str:00000000000006ce .LASF8
     /tmp/ccVck2hA.s:3013   .debug_str:000000000000047c .LASF9
     /tmp/ccVck2hA.s:2965   .debug_str:000000000000031d .LASF10
     /tmp/ccVck2hA.s:2979   .debug_str:000000000000037f .LASF11
     /tmp/ccVck2hA.s:2895   .debug_str:0000000000000112 .LASF12
     /tmp/ccVck2hA.s:2953   .debug_str:00000000000002e0 .LASF13
     /tmp/ccVck2hA.s:2907   .debug_str:000000000000015b .LASF14
     /tmp/ccVck2hA.s:2893   .debug_str:0000000000000102 .LASF15
     /tmp/ccVck2hA.s:3163   .debug_str:0000000000000913 .LASF16
     /tmp/ccVck2hA.s:2937   .debug_str:0000000000000257 .LASF17
     /tmp/ccVck2hA.s:3155   .debug_str:00000000000008e4 .LASF18
     /tmp/ccVck2hA.s:3233   .debug_str:0000000000000b8f .LASF51
     /tmp/ccVck2hA.s:3217   .debug_str:0000000000000b3b .LASF52
     /tmp/ccVck2hA.s:2947   .debug_str:00000000000002ae .LASF19
     /tmp/ccVck2hA.s:3183   .debug_str:0000000000000994 .LASF20
     /tmp/ccVck2hA.s:2919   .debug_str:00000000000001db .LASF21
     /tmp/ccVck2hA.s:2989   .debug_str:00000000000003db .LASF82
     /tmp/ccVck2hA.s:2995   .debug_str:0000000000000403 .LASF84
     /tmp/ccVck2hA.s:3207   .debug_str:0000000000000b04 .LASF22
     /tmp/ccVck2hA.s:3199   .debug_str:0000000000000ab3 .LASF24
     /tmp/ccVck2hA.s:3119   .debug_str:00000000000007b7 .LASF26
     /tmp/ccVck2hA.s:3073   .debug_str:0000000000000642 .LASF28
     /tmp/ccVck2hA.s:3097   .debug_str:0000000000000700 .LASF23
     /tmp/ccVck2hA.s:3105   .debug_str:0000000000000739 .LASF25
     /tmp/ccVck2hA.s:3059   .debug_str:00000000000005d8 .LASF27
     /tmp/ccVck2hA.s:3015   .debug_str:000000000000048f .LASF29
     /tmp/ccVck2hA.s:3245   .debug_str:0000000000000be9 .LASF30
     /tmp/ccVck2hA.s:3187   .debug_str:0000000000000a65 .LASF31
     /tmp/ccVck2hA.s:3057   .debug_str:00000000000005d0 .LASF32
     /tmp/ccVck2hA.s:3071   .debug_str:000000000000062e .LASF33
     /tmp/ccVck2hA.s:3159   .debug_str:00000000000008ff .LASF34
     /tmp/ccVck2hA.s:3137   .debug_str:0000000000000840 .LASF35
     /tmp/ccVck2hA.s:3139   .debug_str:0000000000000853 .LASF36
     /tmp/ccVck2hA.s:2901   .debug_str:0000000000000130 .LASF37
     /tmp/ccVck2hA.s:2935   .debug_str:0000000000000251 .LASF38
     /tmp/ccVck2hA.s:2991   .debug_str:00000000000003e6 .LASF39
     /tmp/ccVck2hA.s:3003   .debug_str:000000000000043c .LASF40
     /tmp/ccVck2hA.s:2923   .debug_str:00000000000001ee .LASF41
     /tmp/ccVck2hA.s:2869   .debug_str:0000000000000053 .LASF42
     /tmp/ccVck2hA.s:3127   .debug_str:00000000000007e3 .LASF43
     /tmp/ccVck2hA.s:3121   .debug_str:00000000000007c0 .LASF44
     /tmp/ccVck2hA.s:3257   .debug_str:0000000000000c4b .LASF45
     /tmp/ccVck2hA.s:3235   .debug_str:0000000000000b95 .LASF46
     /tmp/ccVck2hA.s:3247   .debug_str:0000000000000bf1 .LASF47
     /tmp/ccVck2hA.s:3229   .debug_str:0000000000000b6f .LASF48
     /tmp/ccVck2hA.s:3045   .debug_str:0000000000000550 .LASF49
     /tmp/ccVck2hA.s:3193   .debug_str:0000000000000a88 .LASF132
     /tmp/ccVck2hA.s:2913   .debug_str:000000000000019b .LASF133
     /tmp/ccVck2hA.s:3227   .debug_str:0000000000000b66 .LASF50
     /tmp/ccVck2hA.s:3149   .debug_str:00000000000008a4 .LASF53
     /tmp/ccVck2hA.s:3095   .debug_str:00000000000006f8 .LASF54
     /tmp/ccVck2hA.s:2921   .debug_str:00000000000001e7 .LASF55
     /tmp/ccVck2hA.s:3037   .debug_str:0000000000000513 .LASF56
     /tmp/ccVck2hA.s:2971   .debug_str:000000000000033e .LASF57
     /tmp/ccVck2hA.s:3019   .debug_str:00000000000004a7 .LASF58
     /tmp/ccVck2hA.s:2887   .debug_str:00000000000000d9 .LASF59
     /tmp/ccVck2hA.s:3169   .debug_str:000000000000093c .LASF110
GAS LISTING /tmp/ccVck2hA.s 			page 13


     /tmp/ccVck2hA.s:2899   .debug_str:0000000000000126 .LASF60
     /tmp/ccVck2hA.s:2981   .debug_str:000000000000038d .LASF62
     /tmp/ccVck2hA.s:3001   .debug_str:0000000000000432 .LASF66
     /tmp/ccVck2hA.s:3035   .debug_str:00000000000004ff .LASF68
     /tmp/ccVck2hA.s:3161   .debug_str:0000000000000906 .LASF61
     /tmp/ccVck2hA.s:3239   .debug_str:0000000000000bb4 .LASF63
     /tmp/ccVck2hA.s:3079   .debug_str:0000000000000697 .LASF196
     /tmp/ccVck2hA.s:3253   .debug_str:0000000000000c3f .LASF64
     /tmp/ccVck2hA.s:3011   .debug_str:000000000000046a .LASF65
     /tmp/ccVck2hA.s:3029   .debug_str:00000000000004e1 .LASF67
     /tmp/ccVck2hA.s:3107   .debug_str:000000000000074c .LASF69
     /tmp/ccVck2hA.s:2927   .debug_str:0000000000000218 .LASF70
     /tmp/ccVck2hA.s:3131   .debug_str:0000000000000813 .LASF71
     /tmp/ccVck2hA.s:3101   .debug_str:0000000000000727 .LASF72
     /tmp/ccVck2hA.s:3039   .debug_str:000000000000051b .LASF73
     /tmp/ccVck2hA.s:2969   .debug_str:0000000000000333 .LASF74
     /tmp/ccVck2hA.s:3153   .debug_str:00000000000008ce .LASF75
     /tmp/ccVck2hA.s:2861   .debug_str:0000000000000009 .LASF76
     /tmp/ccVck2hA.s:3177   .debug_str:0000000000000963 .LASF77
     /tmp/ccVck2hA.s:3205   .debug_str:0000000000000af0 .LASF78
     /tmp/ccVck2hA.s:3075   .debug_str:0000000000000657 .LASF79
     /tmp/ccVck2hA.s:3203   .debug_str:0000000000000ae5 .LASF80
     /tmp/ccVck2hA.s:2925   .debug_str:0000000000000200 .LASF81
     /tmp/ccVck2hA.s:3261   .debug_str:0000000000000c70 .LASF83
     /tmp/ccVck2hA.s:2951   .debug_str:00000000000002c7 .LASF85
     /tmp/ccVck2hA.s:2929   .debug_str:0000000000000225 .LASF86
     /tmp/ccVck2hA.s:2903   .debug_str:0000000000000143 .LASF87
     /tmp/ccVck2hA.s:3031   .debug_str:00000000000004ee .LASF88
     /tmp/ccVck2hA.s:2873   .debug_str:000000000000007a .LASF89
     /tmp/ccVck2hA.s:3259   .debug_str:0000000000000c63 .LASF90
     /tmp/ccVck2hA.s:2975   .debug_str:000000000000035e .LASF91
     /tmp/ccVck2hA.s:2863   .debug_str:0000000000000014 .LASF92
     /tmp/ccVck2hA.s:3069   .debug_str:0000000000000621 .LASF93
     /tmp/ccVck2hA.s:3197   .debug_str:0000000000000aab .LASF94
     /tmp/ccVck2hA.s:2891   .debug_str:00000000000000f3 .LASF95
     /tmp/ccVck2hA.s:3255   .debug_str:0000000000000c45 .LASF96
     /tmp/ccVck2hA.s:3209   .debug_str:0000000000000b0d .LASF97
     /tmp/ccVck2hA.s:3189   .debug_str:0000000000000a79 .LASF98
     /tmp/ccVck2hA.s:3117   .debug_str:00000000000007a7 .LASF99
     /tmp/ccVck2hA.s:3083   .debug_str:00000000000006a4 .LASF100
     /tmp/ccVck2hA.s:2949   .debug_str:00000000000002ba .LASF101
     /tmp/ccVck2hA.s:3133   .debug_str:000000000000082b .LASF102
     /tmp/ccVck2hA.s:3223   .debug_str:0000000000000b5a .LASF103
     /tmp/ccVck2hA.s:3251   .debug_str:0000000000000c29 .LASF197
     /tmp/ccVck2hA.s:3181   .debug_str:000000000000098c .LASF104
     /tmp/ccVck2hA.s:2889   .debug_str:00000000000000e2 .LASF105
     /tmp/ccVck2hA.s:2915   .debug_str:00000000000001b3 .LASF116
     /tmp/ccVck2hA.s:2865   .debug_str:0000000000000024 .LASF117
     /tmp/ccVck2hA.s:2967   .debug_str:000000000000032d .LASF106
     /tmp/ccVck2hA.s:3157   .debug_str:00000000000008fa .LASF198
     /tmp/ccVck2hA.s:3175   .debug_str:000000000000095e .LASF107
     /tmp/ccVck2hA.s:3111   .debug_str:0000000000000770 .LASF108
     /tmp/ccVck2hA.s:3061   .debug_str:00000000000005df .LASF109
     /tmp/ccVck2hA.s:3225   .debug_str:0000000000000b61 .LASF111
     /tmp/ccVck2hA.s:3017   .debug_str:00000000000004a2 .LASF112
     /tmp/ccVck2hA.s:2897   .debug_str:0000000000000121 .LASF113
     /tmp/ccVck2hA.s:2941   .debug_str:0000000000000282 .LASF114
GAS LISTING /tmp/ccVck2hA.s 			page 14


     /tmp/ccVck2hA.s:2917   .debug_str:00000000000001c1 .LASF115
     /tmp/ccVck2hA.s:2909   .debug_str:000000000000016b .LASF118
     /tmp/ccVck2hA.s:2877   .debug_str:00000000000000a1 .LASF119
     /tmp/ccVck2hA.s:3051   .debug_str:0000000000000597 .LASF120
     /tmp/ccVck2hA.s:2875   .debug_str:000000000000008c .LASF121
     /tmp/ccVck2hA.s:2973   .debug_str:0000000000000346 .LASF122
     /tmp/ccVck2hA.s:3125   .debug_str:00000000000007d9 .LASF199
     /tmp/ccVck2hA.s:3195   .debug_str:0000000000000a93 .LASF200
     /tmp/ccVck2hA.s:3171   .debug_str:0000000000000944 .LASF123
     /tmp/ccVck2hA.s:3237   .debug_str:0000000000000b9f .LASF124
     /tmp/ccVck2hA.s:3005   .debug_str:0000000000000442 .LASF125
     /tmp/ccVck2hA.s:2871   .debug_str:000000000000005e .LASF126
     /tmp/ccVck2hA.s:3027   .debug_str:00000000000004d9 .LASF127
     /tmp/ccVck2hA.s:3053   .debug_str:000000000000059c .LASF128
     /tmp/ccVck2hA.s:2885   .debug_str:00000000000000d0 .LASF129
     /tmp/ccVck2hA.s:3049   .debug_str:000000000000057b .LASF130
     /tmp/ccVck2hA.s:2911   .debug_str:0000000000000186 .LASF131
     /tmp/ccVck2hA.s:3231   .debug_str:0000000000000b79 .LASF134
     /tmp/ccVck2hA.s:3033   .debug_str:00000000000004f6 .LASF135
     /tmp/ccVck2hA.s:3145   .debug_str:000000000000088e .LASF136
     /tmp/ccVck2hA.s:3065   .debug_str:00000000000005f7 .LASF137
     /tmp/ccVck2hA.s:3089   .debug_str:00000000000006e1 .LASF138
     /tmp/ccVck2hA.s:3055   .debug_str:00000000000005bb .LASF139
     /tmp/ccVck2hA.s:3179   .debug_str:000000000000097b .LASF140
     /tmp/ccVck2hA.s:3165   .debug_str:000000000000091f .LASF141
     /tmp/ccVck2hA.s:3201   .debug_str:0000000000000ac8 .LASF142
     /tmp/ccVck2hA.s:3213   .debug_str:0000000000000b1e .LASF143
     /tmp/ccVck2hA.s:3249   .debug_str:0000000000000c07 .LASF144
     /tmp/ccVck2hA.s:3007   .debug_str:000000000000044a .LASF145
     /tmp/ccVck2hA.s:3085   .debug_str:00000000000006b0 .LASF146
     /tmp/ccVck2hA.s:2987   .debug_str:00000000000003ce .LASF147
     /tmp/ccVck2hA.s:3115   .debug_str:000000000000078a .LASF148
     /tmp/ccVck2hA.s:2879   .debug_str:00000000000000a7 .LASF149
     /tmp/ccVck2hA.s:2977   .debug_str:000000000000036a .LASF150
     /tmp/ccVck2hA.s:2963   .debug_str:000000000000030f .LASF151
     /tmp/ccVck2hA.s:3173   .debug_str:0000000000000951 .LASF152
     /tmp/ccVck2hA.s:3109   .debug_str:0000000000000764 .LASF153
     /tmp/ccVck2hA.s:2859   .debug_str:0000000000000000 .LASF201
     /tmp/ccVck2hA.s:3211   .debug_str:0000000000000b12 .LASF154
     /tmp/ccVck2hA.s:2931   .debug_str:000000000000022e .LASF155
     /tmp/ccVck2hA.s:2999   .debug_str:0000000000000428 .LASF156
     /tmp/ccVck2hA.s:3093   .debug_str:00000000000006ee .LASF157
     /tmp/ccVck2hA.s:3025   .debug_str:00000000000004ce .LASF158
     /tmp/ccVck2hA.s:3215   .debug_str:0000000000000b30 .LASF159
     /tmp/ccVck2hA.s:3147   .debug_str:0000000000000894 .LASF160
     /tmp/ccVck2hA.s:2945   .debug_str:00000000000002a6 .LASF161
     /tmp/ccVck2hA.s:2983   .debug_str:00000000000003b2 .LASF162
     /tmp/ccVck2hA.s:3099   .debug_str:0000000000000707 .LASF163
     /tmp/ccVck2hA.s:2957   .debug_str:00000000000002fc .LASF164
     /tmp/ccVck2hA.s:2933   .debug_str:000000000000023b .LASF165
     /tmp/ccVck2hA.s:2961   .debug_str:0000000000000309 .LASF166
     /tmp/ccVck2hA.s:2939   .debug_str:000000000000026d .LASF167
     /tmp/ccVck2hA.s:3043   .debug_str:0000000000000544 .LASF168
     /tmp/ccVck2hA.s:3129   .debug_str:00000000000007fb .LASF169
     /tmp/ccVck2hA.s:3103   .debug_str:000000000000072f .LASF170
     /tmp/ccVck2hA.s:3081   .debug_str:000000000000069c .LASF171
     /tmp/ccVck2hA.s:3141   .debug_str:000000000000085a .LASF172
GAS LISTING /tmp/ccVck2hA.s 			page 15


     /tmp/ccVck2hA.s:3191   .debug_str:0000000000000a83 .LASF173
     /tmp/ccVck2hA.s:92     .text:0000000000000078 .LFB51
     /tmp/ccVck2hA.s:230    .text:0000000000000164 .LFE51
     /tmp/ccVck2hA.s:2993   .debug_str:00000000000003f8 .LASF174
     /tmp/ccVck2hA.s:3219   .debug_str:0000000000000b4a .LASF175
     /tmp/ccVck2hA.s:2881   .debug_str:00000000000000bb .LASF176
     /tmp/ccVck2hA.s:3263   .debug_str:0000000000000c7e .LASF177
     /tmp/ccVck2hA.s:134    .text:00000000000000bc .LBB12
     /tmp/ccVck2hA.s:143    .text:00000000000000c8 .LBE12
     /tmp/ccVck2hA.s:2787   .debug_loc:0000000000000000 .LLST1
     /tmp/ccVck2hA.s:145    .text:00000000000000c8 .LBB14
     /tmp/ccVck2hA.s:153    .text:00000000000000d0 .LBE14
     /tmp/ccVck2hA.s:2794   .debug_loc:0000000000000023 .LLST2
     /tmp/ccVck2hA.s:2802   .debug_loc:0000000000000047 .LLST3
     /tmp/ccVck2hA.s:176    .text:0000000000000118 .LBB16
     /tmp/ccVck2hA.s:189    .text:0000000000000120 .LBE16
     /tmp/ccVck2hA.s:2809   .debug_loc:000000000000006a .LLST4
     /tmp/ccVck2hA.s:205    .text:0000000000000148 .LBB18
     /tmp/ccVck2hA.s:217    .text:0000000000000150 .LBE18
     /tmp/ccVck2hA.s:2817   .debug_loc:000000000000008e .LLST5
     /tmp/ccVck2hA.s:114    .text:000000000000009c .LVL5
     /tmp/ccVck2hA.s:118    .text:00000000000000a4 .LVL6
     /tmp/ccVck2hA.s:129    .text:00000000000000b8 .LVL7
     /tmp/ccVck2hA.s:160    .text:00000000000000e8 .LVL11
     /tmp/ccVck2hA.s:167    .text:0000000000000100 .LVL12
     /tmp/ccVck2hA.s:174    .text:0000000000000118 .LVL13
     /tmp/ccVck2hA.s:194    .text:000000000000012c .LVL15
     /tmp/ccVck2hA.s:3041   .debug_str:000000000000052d .LASF178
     /tmp/ccVck2hA.s:3151   .debug_str:00000000000008b1 .LASF179
     /tmp/ccVck2hA.s:37     .text:000000000000001c .LFB50
     /tmp/ccVck2hA.s:86     .text:0000000000000078 .LFE50
     /tmp/ccVck2hA.s:2849   .debug_ranges:0000000000000000 .Ldebug_ranges0
     /tmp/ccVck2hA.s:2825   .debug_loc:00000000000000b2 .LLST0
     /tmp/ccVck2hA.s:63     .text:0000000000000054 .LVL3
     /tmp/ccVck2hA.s:72     .text:000000000000005c .LVL4
     /tmp/ccVck2hA.s:3241   .debug_str:0000000000000bd6 .LASF180
     /tmp/ccVck2hA.s:2883   .debug_str:00000000000000c6 .LASF181
     /tmp/ccVck2hA.s:10     .text:0000000000000000 .LFB49
     /tmp/ccVck2hA.s:31     .text:000000000000001c .LFE49
     /tmp/ccVck2hA.s:27     .text:0000000000000018 .LVL0
     /tmp/ccVck2hA.s:3021   .debug_str:00000000000004b0 .LASF182
     /tmp/ccVck2hA.s:2959   .debug_str:0000000000000304 .LASF202
     /tmp/ccVck2hA.s:2905   .debug_str:0000000000000156 .LASF183
     /tmp/ccVck2hA.s:3221   .debug_str:0000000000000b55 .LASF184
     /tmp/ccVck2hA.s:3077   .debug_str:0000000000000676 .LASF185
     /tmp/ccVck2hA.s:3243   .debug_str:0000000000000bdb .LASF187
     /tmp/ccVck2hA.s:3067   .debug_str:000000000000060c .LASF186
     /tmp/ccVck2hA.s:3063   .debug_str:00000000000005eb .LASF188
     /tmp/ccVck2hA.s:3113   .debug_str:0000000000000775 .LASF189
     /tmp/ccVck2hA.s:2985   .debug_str:00000000000003c3 .LASF190
     /tmp/ccVck2hA.s:3047   .debug_str:0000000000000566 .LASF191
     /tmp/ccVck2hA.s:3167   .debug_str:000000000000092c .LASF192
     /tmp/ccVck2hA.s:133    .text:00000000000000bc .LVL8
     /tmp/ccVck2hA.s:141    .text:00000000000000c8 .LVL9
     /tmp/ccVck2hA.s:151    .text:00000000000000d0 .LVL10
     /tmp/ccVck2hA.s:186    .text:0000000000000120 .LVL14
     /tmp/ccVck2hA.s:204    .text:0000000000000148 .LVL16
GAS LISTING /tmp/ccVck2hA.s 			page 16


     /tmp/ccVck2hA.s:214    .text:0000000000000150 .LVL17
     /tmp/ccVck2hA.s:49     .text:0000000000000030 .LVL1
     /tmp/ccVck2hA.s:61     .text:000000000000004c .LVL2
     /tmp/ccVck2hA.s:239    .debug_info:0000000000000000 .Ldebug_info0
     /tmp/ccVck2hA.s:51     .text:0000000000000030 .LBB10
     /tmp/ccVck2hA.s:64     .text:0000000000000054 .LBE10
     /tmp/ccVck2hA.s:68     .text:0000000000000054 .LBB11
     /tmp/ccVck2hA.s:84     .text:0000000000000078 .LBE11

UNDEFINED SYMBOLS
_Z15thread_dispatchv
_ZN8KConsole2drE
_ZN8KConsole20outputBufferHasSpaceE
_Z10sem_signalP4KSem
_ZN8KConsole13getFromOutputEv
_ZN8KConsole2srE
interruptHandler
_ZN7KMemory16initializeMemoryEv
_ZN8KConsole12initKConsoleEv
_Z13thread_createPP3TCBPFvPvES2_
_ZN3TCB7runningE
_Z8userMainv
_Z11thread_joinP3TCB
_ZN8KConsole10outputHeadE
_ZN8KConsole10outputTailE
