GAS LISTING /tmp/ccx16sTh.s 			page 1


   1              		.file	"main.cpp"
   2              		.option pic
   3              		.option norelax
   4              		.text
   5              	.Ltext0:
   6              		.align	2
   7              		.globl	main
   9              	main:
  10              	.LFB48:
  11              		.file 1 "src/main.cpp"
   1:src/main.cpp  **** //#include "../lib/console.h"
   2:src/main.cpp  **** #include "../lib/hw.h"
   3:src/main.cpp  **** #include "../h/helper.hpp"
   4:src/main.cpp  **** #include "../h/Riscv.hpp"
   5:src/main.cpp  **** #include "../h/syscall_c.hpp"
   6:src/main.cpp  **** #include "../h/syscall_cpp.hpp"
   7:src/main.cpp  **** #include "../h/List.hpp"
   8:src/main.cpp  **** //#include "../h/MemoryAllocator.hpp"
   9:src/main.cpp  **** #include "../h/TCB.hpp"
  10:src/main.cpp  **** #include "../h/ThreadQueue.hpp"
  11:src/main.cpp  **** //#include "../h/KSem.hpp"
  12:src/main.cpp  **** #include "../h/KConsole.hpp"
  13:src/main.cpp  **** 
  14:src/main.cpp  **** #include "../test/printing.hpp"
  15:src/main.cpp  **** 
  16:src/main.cpp  **** 
  17:src/main.cpp  **** extern "C" void interruptHandler();
  18:src/main.cpp  **** 
  19:src/main.cpp  **** void userMain();
  20:src/main.cpp  **** 
  21:src/main.cpp  **** void testMemory();
  22:src/main.cpp  **** 
  23:src/main.cpp  **** void nit1f(void*);
  24:src/main.cpp  **** 
  25:src/main.cpp  **** void nit2f(void* arg2);
  26:src/main.cpp  **** 
  27:src/main.cpp  **** void nit3f(void*);
  28:src/main.cpp  **** 
  29:src/main.cpp  **** Semaphore* semA;
  30:src/main.cpp  **** 
  31:src/main.cpp  **** void idle(void*) {
  32:src/main.cpp  **** 	while (1) {thread_dispatch();}
  33:src/main.cpp  **** }
  34:src/main.cpp  **** 
  35:src/main.cpp  **** void kernelConsumerFunction(void*) {
  36:src/main.cpp  **** 	while (1) {
  37:src/main.cpp  **** 		char c = KConsole::getFromOutput();
  38:src/main.cpp  **** 		while (!(*KConsole::sr & CONSOLE_TX_STATUS_BIT)) {}
  39:src/main.cpp  **** 		*KConsole::dr = c;
  40:src/main.cpp  **** 		sem_signal(KConsole::outputBufferHasSpace);
  41:src/main.cpp  **** 	}
  42:src/main.cpp  **** 
  43:src/main.cpp  **** }
  44:src/main.cpp  **** 
  45:src/main.cpp  **** #pragma GCC optimize("O0")
  46:src/main.cpp  **** 
  47:src/main.cpp  **** int main() {
GAS LISTING /tmp/ccx16sTh.s 			page 2


  12              		.loc 1 47 12
  13              		.cfi_startproc
  14              		.cfi_personality 0x9b,DW.ref.__gxx_personality_v0
  15              		.cfi_lsda 0x1b,.LLSDA48
  16 0000 130101FC 		addi	sp,sp,-64
  17              		.cfi_def_cfa_offset 64
  18 0004 233C1102 		sd	ra,56(sp)
  19 0008 23388102 		sd	s0,48(sp)
  20 000c 23349102 		sd	s1,40(sp)
  21 0010 23302103 		sd	s2,32(sp)
  22              		.cfi_offset 1, -8
  23              		.cfi_offset 8, -16
  24              		.cfi_offset 9, -24
  25              		.cfi_offset 18, -32
  26 0014 13040104 		addi	s0,sp,64
  27              		.cfi_def_cfa 8, 0
  48:src/main.cpp  **** 	//postavi adresu prekidne rutine u stvec
  49:src/main.cpp  **** 	Riscv::w_stvec((uint64)&interruptHandler);
  28              		.loc 1 49 2
  29              		.loc 1 49 16 is_stmt 0
  30 0018 97070000 		la	a5,interruptHandler
  30      83B70700 
  31 0020 13850700 		mv	a0,a5
  32 0024 97000000 		call	_ZN5Riscv7w_stvecEm
  32      E7800000 
  33              	.LVL0:
  50:src/main.cpp  **** 
  51:src/main.cpp  **** 	MemoryAllocator::initMemoryAllocator();
  34              		.loc 1 51 2 is_stmt 1
  35              	.LEHB0:
  36              		.loc 1 51 38 is_stmt 0
  37 002c 97000000 		call	_ZN15MemoryAllocator19initMemoryAllocatorEv@plt
  37      E7800000 
  38              	.LVL1:
  52:src/main.cpp  **** 
  53:src/main.cpp  **** 
  54:src/main.cpp  **** 	//sem_open(&semA, 0);
  55:src/main.cpp  **** 	semA = new Semaphore(1);
  39              		.loc 1 55 2 is_stmt 1
  40              		.loc 1 55 24 is_stmt 0
  41 0034 13050001 		li	a0,16
  42 0038 97000000 		call	_Znwm@plt
  42      E7800000 
  43              	.LVL2:
  44              	.LEHE0:
  45 0040 93070500 		mv	a5,a0
  46 0044 93840700 		mv	s1,a5
  47 0048 93051000 		li	a1,1
  48 004c 13850400 		mv	a0,s1
  49              	.LEHB1:
  50 0050 97000000 		call	_ZN9SemaphoreC1Ej@plt
  50      E7800000 
  51              	.LVL3:
  52              	.LEHE1:
  53              		.loc 1 55 7 discriminator 3
  54 0058 97070000 		lla	a5,semA
  54      93870700 
GAS LISTING /tmp/ccx16sTh.s 			page 3


  55 0060 23B09700 		sd	s1,0(a5)
  56:src/main.cpp  **** 
  57:src/main.cpp  **** 
  58:src/main.cpp  **** 	KConsole::initKConsole();
  56              		.loc 1 58 2 is_stmt 1 discriminator 3
  57              	.LEHB2:
  58              		.loc 1 58 24 is_stmt 0 discriminator 3
  59 0064 97000000 		call	_ZN8KConsole12initKConsoleEv@plt
  59      E7800000 
  60              	.LVL4:
  59:src/main.cpp  **** 
  60:src/main.cpp  **** 
  61:src/main.cpp  **** 
  62:src/main.cpp  **** 	//testiranje alociranja memorije
  63:src/main.cpp  **** 	//testMemory();
  64:src/main.cpp  **** //	uint64* ptr = new uint64;
  65:src/main.cpp  **** //	*ptr = 6;
  66:src/main.cpp  **** //	printInteger(*ptr);
  67:src/main.cpp  **** 
  68:src/main.cpp  **** 	//testiranje liste
  69:src/main.cpp  **** //	List<uint64>* lista = new List<uint64>();
  70:src/main.cpp  **** //	uint64 num = 10;
  71:src/main.cpp  **** //	lista->addFirst(&num);
  72:src/main.cpp  **** //	println("");
  73:src/main.cpp  **** //	printInteger(*(lista->peekFirst()));
  74:src/main.cpp  **** //	delete lista;
  75:src/main.cpp  **** //	println("");
  76:src/main.cpp  **** 
  77:src/main.cpp  **** 	//testiranje kreiranja niti
  78:src/main.cpp  **** //	thread_t glavnaNit = nullptr;
  79:src/main.cpp  **** //	thread_t nit1 = nullptr;
  80:src/main.cpp  **** //	thread_t nit2 = nullptr;
  81:src/main.cpp  **** //	thread_t nit3 = nullptr;
  82:src/main.cpp  **** //	thread_t idleNit = nullptr;
  83:src/main.cpp  **** //	thread_t kernelConsumerThread = nullptr;
  84:src/main.cpp  **** //	thread_create(&glavnaNit, nullptr, nullptr);
  85:src/main.cpp  **** //	TCB::running = glavnaNit;
  86:src/main.cpp  **** //	thread_create(&idleNit, idle, nullptr);
  87:src/main.cpp  **** //	thread_create(&kernelConsumerThread, kernelConsumerFunction, nullptr);
  88:src/main.cpp  **** //
  89:src/main.cpp  **** //
  90:src/main.cpp  **** //	thread_create(&nit1, nit1f, nullptr);
  91:src/main.cpp  **** //	thread_create(&nit2, nit2f, nullptr);
  92:src/main.cpp  **** //	thread_create(&nit3, nit3f, nullptr);
  93:src/main.cpp  **** //
  94:src/main.cpp  **** //	//omoguci prekide
  95:src/main.cpp  **** //	Riscv::ms_sstatus(Riscv::SSTATUS_SIE);
  96:src/main.cpp  **** //
  97:src/main.cpp  **** //	thread_join(nit1);
  98:src/main.cpp  **** //	thread_join(nit2);
  99:src/main.cpp  **** //	thread_join(nit3);
 100:src/main.cpp  **** //	//thread_join(idleNit);
 101:src/main.cpp  **** //
 102:src/main.cpp  **** //	printString("\nGotove user niti\n");
 103:src/main.cpp  **** //
 104:src/main.cpp  **** //	printString("\nSad cu da izadjem\n");
 105:src/main.cpp  **** //	while(KConsole::outputHead!=KConsole::outputTail){}
GAS LISTING /tmp/ccx16sTh.s 			page 4


 106:src/main.cpp  **** //	//zabrani prekide
 107:src/main.cpp  **** //	Riscv::mc_sstatus(Riscv::SSTATUS_SIE);
 108:src/main.cpp  **** 
 109:src/main.cpp  **** 
 110:src/main.cpp  **** //testiranje svega
 111:src/main.cpp  **** 	thread_t mainHandle;
  61              		.loc 1 111 2 is_stmt 1 discriminator 3
 112:src/main.cpp  **** 	thread_t userHandle;
  62              		.loc 1 112 2 discriminator 3
 113:src/main.cpp  **** 	thread_t idleHandle;
  63              		.loc 1 113 2 discriminator 3
 114:src/main.cpp  **** 	thread_t consoleOutputHandle;
  64              		.loc 1 114 2 discriminator 3
 115:src/main.cpp  **** 	thread_create(&mainHandle, nullptr, nullptr);
  65              		.loc 1 115 2 discriminator 3
  66              		.loc 1 115 15 is_stmt 0 discriminator 3
  67 006c 930784FD 		addi	a5,s0,-40
  68 0070 13060000 		li	a2,0
  69 0074 93050000 		li	a1,0
  70 0078 13850700 		mv	a0,a5
  71 007c 97000000 		call	_Z13thread_createPP3TCBPFvPvES2_@plt
  71      E7800000 
  72              	.LVL5:
 116:src/main.cpp  **** 	TCB::running = mainHandle;
  73              		.loc 1 116 2 is_stmt 1 discriminator 3
  74              		.loc 1 116 15 is_stmt 0 discriminator 3
  75 0084 033784FD 		ld	a4,-40(s0)
  76 0088 97070000 		la	a5,_ZN3TCB7runningE
  76      83B70700 
  77 0090 23B0E700 		sd	a4,0(a5)
 117:src/main.cpp  **** 	thread_create(&idleHandle, idle, nullptr);
  78              		.loc 1 117 2 is_stmt 1 discriminator 3
  79              		.loc 1 117 15 is_stmt 0 discriminator 3
  80 0094 930784FC 		addi	a5,s0,-56
  81 0098 13060000 		li	a2,0
  82 009c 97050000 		lla	a1,_Z4idlePv
  82      93850500 
  83 00a4 13850700 		mv	a0,a5
  84 00a8 97000000 		call	_Z13thread_createPP3TCBPFvPvES2_@plt
  84      E7800000 
  85              	.LVL6:
 118:src/main.cpp  **** 	thread_create(&consoleOutputHandle, kernelConsumerFunction, nullptr);
  86              		.loc 1 118 2 is_stmt 1 discriminator 3
  87              		.loc 1 118 15 is_stmt 0 discriminator 3
  88 00b0 930704FC 		addi	a5,s0,-64
  89 00b4 13060000 		li	a2,0
  90 00b8 97050000 		lla	a1,_Z22kernelConsumerFunctionPv
  90      93850500 
  91 00c0 13850700 		mv	a0,a5
  92 00c4 97000000 		call	_Z13thread_createPP3TCBPFvPvES2_@plt
  92      E7800000 
  93              	.LVL7:
 119:src/main.cpp  **** 	thread_create(&userHandle, (TCB::Body)userMain, nullptr);
  94              		.loc 1 119 2 is_stmt 1 discriminator 3
  95              		.loc 1 119 15 is_stmt 0 discriminator 3
  96 00cc 930704FD 		addi	a5,s0,-48
  97 00d0 13060000 		li	a2,0
GAS LISTING /tmp/ccx16sTh.s 			page 5


  98 00d4 97050000 		la	a1,_Z8userMainv
  98      83B50500 
  99 00dc 13850700 		mv	a0,a5
 100 00e0 97000000 		call	_Z13thread_createPP3TCBPFvPvES2_@plt
 100      E7800000 
 101              	.LVL8:
 120:src/main.cpp  **** 
 121:src/main.cpp  **** 	Riscv::ms_sstatus(Riscv::SSTATUS_SIE);
 102              		.loc 1 121 2 is_stmt 1 discriminator 3
 103              		.loc 1 121 19 is_stmt 0 discriminator 3
 104 00e8 13052000 		li	a0,2
 105 00ec 97000000 		call	_ZN5Riscv10ms_sstatusEm
 105      E7800000 
 106              	.LVL9:
 122:src/main.cpp  **** 	thread_join(userHandle);
 107              		.loc 1 122 2 is_stmt 1 discriminator 3
 108              		.loc 1 122 13 is_stmt 0 discriminator 3
 109 00f4 833704FD 		ld	a5,-48(s0)
 110 00f8 13850700 		mv	a0,a5
 111 00fc 97000000 		call	_Z11thread_joinP3TCB@plt
 111      E7800000 
 112              	.LVL10:
 113              	.L3:
 123:src/main.cpp  **** 	//printString("\nSad cu da izadjem\n");
 124:src/main.cpp  **** 	while(KConsole::outputHead!=KConsole::outputTail){}
 114              		.loc 1 124 2 is_stmt 1
 115              		.loc 1 124 28
 116 0104 97070000 		la	a5,_ZN8KConsole10outputHeadE
 116      83B70700 
 117 010c 03A70700 		lw	a4,0(a5)
 118 0110 97070000 		la	a5,_ZN8KConsole10outputTailE
 118      83B70700 
 119 0118 83A70700 		lw	a5,0(a5)
 120 011c 6304F700 		beq	a4,a5,.L2
 121              		.loc 1 124 2 is_stmt 0
 122 0120 6FF05FFE 		j	.L3
 123              	.L2:
 125:src/main.cpp  **** 	Riscv::mc_sstatus(Riscv::SSTATUS_SIE);
 124              		.loc 1 125 2 is_stmt 1
 125              		.loc 1 125 19 is_stmt 0
 126 0124 13052000 		li	a0,2
 127 0128 97000000 		call	_ZN5Riscv10mc_sstatusEm
 127      E7800000 
 128              	.LVL11:
 126:src/main.cpp  **** 	return 0;
 129              		.loc 1 126 2 is_stmt 1
 130              		.loc 1 126 9 is_stmt 0
 131 0130 93070000 		li	a5,0
 132 0134 6F004002 		j	.L7
 133              	.L6:
 134 0138 13090500 		mv	s2,a0
  55:src/main.cpp  **** 
 135              		.loc 1 55 24
 136 013c 13850400 		mv	a0,s1
 137 0140 97000000 		call	_ZdlPv@plt
 137      E7800000 
 138              	.LVL12:
GAS LISTING /tmp/ccx16sTh.s 			page 6


 139 0148 93070900 		mv	a5,s2
 140 014c 13850700 		mv	a0,a5
 141 0150 97000000 		call	_Unwind_Resume@plt
 141      E7800000 
 142              	.LVL13:
 143              	.LEHE2:
 144              	.L7:
 127:src/main.cpp  **** }...
 145              		.loc 1 127 1
 146 0158 13850700 		mv	a0,a5
 147 015c 83308103 		ld	ra,56(sp)
 148              		.cfi_restore 1
 149 0160 03340103 		ld	s0,48(sp)
 150              		.cfi_restore 8
 151              		.cfi_def_cfa 2, 64
 152 0164 83348102 		ld	s1,40(sp)
 153              		.cfi_restore 9
 154 0168 03390102 		ld	s2,32(sp)
 155              		.cfi_restore 18
 156 016c 13010104 		addi	sp,sp,64
 157              		.cfi_def_cfa_offset 0
 158 0170 67800000 		jr	ra
 159              		.cfi_endproc
 160              	.LFE48:
 161              		.globl	__gxx_personality_v0
 162              		.section	.gcc_except_table,"a",@progbits
 163              	.LLSDA48:
 164 0000 FF       		.byte	0xff
 165 0001 FF       		.byte	0xff
 166 0002 03       		.byte	0x3
 167 0003 27       		.byte	0x27
 168 0004 00000000 		.4byte	.LEHB0-.LFB48
 169 0008 00000000 		.4byte	.LEHE0-.LEHB0
 170 000c 00000000 		.4byte	0
 171 0010 00       		.byte	0
 172 0011 00000000 		.4byte	.LEHB1-.LFB48
 173 0015 00000000 		.4byte	.LEHE1-.LEHB1
 174 0019 00000000 		.4byte	.L6-.LFB48
 175 001d 00       		.byte	0
 176 001e 00000000 		.4byte	.LEHB2-.LFB48
 177 0022 00000000 		.4byte	.LEHE2-.LEHB2
 178 0026 00000000 		.4byte	0
 179 002a 00       		.byte	0
 180              		.text
 182              		.align	2
 183              		.globl	_Z4idlePv
 185              	_Z4idlePv:
 186              	.LFB46:
  31:src/main.cpp  **** void idle(void*) {
 187              		.loc 1 31 18 is_stmt 1
 188              		.cfi_startproc
 189 0174 130101FF 		addi	sp,sp,-16
 190              		.cfi_def_cfa_offset 16
 191 0178 23341100 		sd	ra,8(sp)
 192 017c 23308100 		sd	s0,0(sp)
 193              		.cfi_offset 1, -8
 194              		.cfi_offset 8, -16
GAS LISTING /tmp/ccx16sTh.s 			page 7


 195 0180 13040101 		addi	s0,sp,16
 196              		.cfi_def_cfa 8, 0
 197              	.L9:
  32:src/main.cpp  **** 	while (1) {thread_dispatch();}
 198              		.loc 1 32 2 discriminator 1
  32:src/main.cpp  **** 	while (1) {thread_dispatch();}
 199              		.loc 1 32 13 discriminator 1
  32:src/main.cpp  **** 	while (1) {thread_dispatch();}
 200              		.loc 1 32 28 is_stmt 0 discriminator 1
 201 0184 97000000 		call	_Z15thread_dispatchv@plt
 201      E7800000 
 202              	.LVL14:
  32:src/main.cpp  **** 	while (1) {thread_dispatch();}
 203              		.loc 1 32 2 is_stmt 1 discriminator 1
 204 018c 6FF09FFF 		j	.L9
 205              		.cfi_endproc
 206              	.LFE46:
 208              		.align	2
 209              		.globl	_Z22kernelConsumerFunctionPv
 211              	_Z22kernelConsumerFunctionPv:
 212              	.LFB47:
  35:src/main.cpp  **** void kernelConsumerFunction(void*) {
 213              		.loc 1 35 36
 214              		.cfi_startproc
 215 0190 130101FF 		addi	sp,sp,-16
 216              		.cfi_def_cfa_offset 16
 217 0194 23341100 		sd	ra,8(sp)
 218 0198 23308100 		sd	s0,0(sp)
 219              		.cfi_offset 1, -8
 220              		.cfi_offset 8, -16
 221 019c 13040101 		addi	s0,sp,16
 222              		.cfi_def_cfa 8, 0
 223 01a0 6F008002 		j	.L13
 224              	.LVL15:
 225              	.L15:
 226              	.LBB2:
  39:src/main.cpp  **** 		*KConsole::dr = c;
 227              		.loc 1 39 3
 228 01a4 97070000 		la	a5,_ZN8KConsole2drE
 228      83B70700 
 229 01ac 83B70700 		ld	a5,0(a5)
  39:src/main.cpp  **** 		*KConsole::dr = c;
 230              		.loc 1 39 17 is_stmt 0
 231 01b0 2380A700 		sb	a0,0(a5)
  40:src/main.cpp  **** 		sem_signal(KConsole::outputBufferHasSpace);
 232              		.loc 1 40 3 is_stmt 1
  40:src/main.cpp  **** 		sem_signal(KConsole::outputBufferHasSpace);
 233              		.loc 1 40 13 is_stmt 0
 234 01b4 97070000 		la	a5,_ZN8KConsole20outputBufferHasSpaceE
 234      83B70700 
 235 01bc 03B50700 		ld	a0,0(a5)
 236              	.LVL16:
 237 01c0 97000000 		call	_Z10sem_signalP4KSem@plt
 237      E7800000 
 238              	.LVL17:
 239              	.LBE2:
  36:src/main.cpp  **** 	while (1) {
GAS LISTING /tmp/ccx16sTh.s 			page 8


 240              		.loc 1 36 2 is_stmt 1
 241              	.L13:
  36:src/main.cpp  **** 	while (1) {
 242              		.loc 1 36 2
 243              	.LBB3:
  37:src/main.cpp  **** 		char c = KConsole::getFromOutput();
 244              		.loc 1 37 3
  37:src/main.cpp  **** 		char c = KConsole::getFromOutput();
 245              		.loc 1 37 35 is_stmt 0
 246 01c8 97000000 		call	_ZN8KConsole13getFromOutputEv@plt
 246      E7800000 
 247              	.LVL18:
 248              	.L12:
  38:src/main.cpp  **** 		while (!(*KConsole::sr & CONSOLE_TX_STATUS_BIT)) {}
 249              		.loc 1 38 3 is_stmt 1
  38:src/main.cpp  **** 		while (!(*KConsole::sr & CONSOLE_TX_STATUS_BIT)) {}
 250              		.loc 1 38 10
  38:src/main.cpp  **** 		while (!(*KConsole::sr & CONSOLE_TX_STATUS_BIT)) {}
 251              		.loc 1 38 12 is_stmt 0
 252 01d0 97070000 		la	a5,_ZN8KConsole2srE
 252      83B70700 
 253 01d8 83B70700 		ld	a5,0(a5)
 254 01dc 83C70700 		lbu	a5,0(a5)
  38:src/main.cpp  **** 		while (!(*KConsole::sr & CONSOLE_TX_STATUS_BIT)) {}
 255              		.loc 1 38 10
 256 01e0 93F70702 		andi	a5,a5,32
 257 01e4 E38607FE 		beqz	a5,.L12
 258 01e8 6FF0DFFB 		j	.L15
 259              	.LBE3:
 260              		.cfi_endproc
 261              	.LFE47:
 263              		.section	.text._ZN5Riscv7w_stvecEm,"axG",@progbits,_ZN5Riscv7w_stvecEm,comdat
 264              		.align	2
 265              		.weak	_ZN5Riscv7w_stvecEm
 267              	_ZN5Riscv7w_stvecEm:
 268              	.LFB5:
 269              		.file 2 "src/../h/Riscv.hpp"
   1:src/../h/Riscv.hpp **** //
   2:src/../h/Riscv.hpp **** // Created by os on 5/17/23.
   3:src/../h/Riscv.hpp **** //
   4:src/../h/Riscv.hpp **** 
   5:src/../h/Riscv.hpp **** #ifndef PROJEKAT2023_RISCV_HPP
   6:src/../h/Riscv.hpp **** #define PROJEKAT2023_RISCV_HPP
   7:src/../h/Riscv.hpp **** 
   8:src/../h/Riscv.hpp **** #include "../lib/hw.h"
   9:src/../h/Riscv.hpp **** 
  10:src/../h/Riscv.hpp **** class Riscv {
  11:src/../h/Riscv.hpp **** public:
  12:src/../h/Riscv.hpp **** 
  13:src/../h/Riscv.hpp **** 	static void popSppSpie();
  14:src/../h/Riscv.hpp **** 
  15:src/../h/Riscv.hpp **** 	//stavljanje registara x3-x31 na stek
  16:src/../h/Riscv.hpp **** 	static void pushRegisters();    //implementacija u asm
  17:src/../h/Riscv.hpp **** 
  18:src/../h/Riscv.hpp **** 	//skidanje registara x3-x31 sa steka
  19:src/../h/Riscv.hpp **** 	static void popRegisters();     //implementacija u asm
  20:src/../h/Riscv.hpp **** 
GAS LISTING /tmp/ccx16sTh.s 			page 9


  21:src/../h/Riscv.hpp **** 	//read scause
  22:src/../h/Riscv.hpp **** 	static uint64 r_scause();
  23:src/../h/Riscv.hpp **** 
  24:src/../h/Riscv.hpp **** 	//write scause
  25:src/../h/Riscv.hpp **** 	static void w_scause(uint64 scause);
  26:src/../h/Riscv.hpp **** 
  27:src/../h/Riscv.hpp **** 	//read sepc
  28:src/../h/Riscv.hpp **** 	static uint64 r_sepc();
  29:src/../h/Riscv.hpp **** 
  30:src/../h/Riscv.hpp **** 	//write sepc
  31:src/../h/Riscv.hpp **** 	static void w_sepc(uint64 sepc);
  32:src/../h/Riscv.hpp **** 
  33:src/../h/Riscv.hpp **** 	//read stvec
  34:src/../h/Riscv.hpp **** 	static uint64 r_stvec();
  35:src/../h/Riscv.hpp **** 
  36:src/../h/Riscv.hpp **** 	//write stvec
  37:src/../h/Riscv.hpp **** 	static void w_stvec(uint64 stvec);
  38:src/../h/Riscv.hpp **** 
  39:src/../h/Riscv.hpp **** 	enum BitMaskSip {
  40:src/../h/Riscv.hpp **** 		//postoji zahtev za softverski prekid
  41:src/../h/Riscv.hpp **** 		SIP_SSIP = (1 << 1),
  42:src/../h/Riscv.hpp **** 		//postoji prekid od tajmera
  43:src/../h/Riscv.hpp **** 		SIP_STIP = (1 << 5),
  44:src/../h/Riscv.hpp **** 		//postoji zahtev za spoljasnji hardverski prekid
  45:src/../h/Riscv.hpp **** 		SIP_SEIP = (1 << 9)
  46:src/../h/Riscv.hpp **** 	};
  47:src/../h/Riscv.hpp **** 
  48:src/../h/Riscv.hpp **** 	//mask set sip
  49:src/../h/Riscv.hpp **** 	static void ms_sip(uint64 mask);
  50:src/../h/Riscv.hpp **** 
  51:src/../h/Riscv.hpp **** 	//mask clear sip
  52:src/../h/Riscv.hpp **** 	static void mc_sip(uint64 mask);
  53:src/../h/Riscv.hpp **** 
  54:src/../h/Riscv.hpp **** 	//read sip
  55:src/../h/Riscv.hpp **** 	static uint64 r_sip();
  56:src/../h/Riscv.hpp **** 
  57:src/../h/Riscv.hpp **** 	//write sip
  58:src/../h/Riscv.hpp **** 	static void w_sip(uint64 sip);
  59:src/../h/Riscv.hpp **** 
  60:src/../h/Riscv.hpp **** 	//kada se pozove sret, SIE dobija vrednost SPIE, SPIE se postavlja na 1,
  61:src/../h/Riscv.hpp **** 	//rezim se postavlja na osnovu SPP bita, SPP se postavlja na 0
  62:src/../h/Riscv.hpp **** 	enum BitMaskSstatus {
  63:src/../h/Riscv.hpp **** 		//1 - dozvoljeni prekidi; 0- nedozvoljeni prekidi; igonrise se u korisnickom rezimu
  64:src/../h/Riscv.hpp **** 		SSTATUS_SIE = (1 << 1),
  65:src/../h/Riscv.hpp **** 		//prethodna vrednost bita SIE
  66:src/../h/Riscv.hpp **** 		SSTATUS_SPIE = (1 << 5),
  67:src/../h/Riscv.hpp **** 		//iz kog rezima se desio skok; 0 - iz korisnickog; 1 - iz sistemskog
  68:src/../h/Riscv.hpp **** 		SSTATUS_SPP = (1 << 8)
  69:src/../h/Riscv.hpp **** 	};
  70:src/../h/Riscv.hpp **** 
  71:src/../h/Riscv.hpp **** 	//mask set sstatus
  72:src/../h/Riscv.hpp **** 	static void ms_sstatus(uint64 mask);
  73:src/../h/Riscv.hpp **** 
  74:src/../h/Riscv.hpp **** 	//mask clear sstatus
  75:src/../h/Riscv.hpp **** 	static void mc_sstatus(uint64 mask);
  76:src/../h/Riscv.hpp **** 
  77:src/../h/Riscv.hpp **** 	//read sstatus
GAS LISTING /tmp/ccx16sTh.s 			page 10


  78:src/../h/Riscv.hpp **** 	static uint64 r_sstatus();
  79:src/../h/Riscv.hpp **** 
  80:src/../h/Riscv.hpp **** 	//write sstatus
  81:src/../h/Riscv.hpp **** 	static void w_sstatus(uint64 sstatus);
  82:src/../h/Riscv.hpp **** 
  83:src/../h/Riscv.hpp **** 	//upisuje kod sistemskog poziva u registar a0
  84:src/../h/Riscv.hpp **** 	static void loadOpCode(uint64 opCode);
  85:src/../h/Riscv.hpp **** 
  86:src/../h/Riscv.hpp **** };
  87:src/../h/Riscv.hpp **** 
  88:src/../h/Riscv.hpp **** inline uint64 Riscv::r_scause() {
  89:src/../h/Riscv.hpp **** 	uint64 volatile scause;
  90:src/../h/Riscv.hpp **** 	__asm__ volatile("csrr %[scause], scause": [scause] "=r"(scause));
  91:src/../h/Riscv.hpp **** 	return scause;
  92:src/../h/Riscv.hpp **** }
  93:src/../h/Riscv.hpp **** 
  94:src/../h/Riscv.hpp **** inline void Riscv::w_scause(uint64 scause) {
  95:src/../h/Riscv.hpp **** 	__asm__ volatile("csrw scause, %[scause]": :[scause] "r"(scause));
  96:src/../h/Riscv.hpp **** }
  97:src/../h/Riscv.hpp **** 
  98:src/../h/Riscv.hpp **** inline uint64 Riscv::r_sepc() {
  99:src/../h/Riscv.hpp **** 	uint64 volatile sepc;
 100:src/../h/Riscv.hpp **** 	__asm__ volatile("csrr %[sepc], sepc": [sepc] "=r"(sepc));
 101:src/../h/Riscv.hpp **** 	return sepc;
 102:src/../h/Riscv.hpp **** }
 103:src/../h/Riscv.hpp **** 
 104:src/../h/Riscv.hpp **** inline void Riscv::w_sepc(uint64 sepc) {
 105:src/../h/Riscv.hpp **** 	__asm__ volatile("csrw sepc, %[sepc]": :[sepc] "r"(sepc));
 106:src/../h/Riscv.hpp **** }
 107:src/../h/Riscv.hpp **** 
 108:src/../h/Riscv.hpp **** inline uint64 Riscv::r_stvec() {
 109:src/../h/Riscv.hpp **** 	uint64 volatile stvec;
 110:src/../h/Riscv.hpp **** 	__asm__ volatile("csrr %[stvec], stvec": [stvec] "=r"(stvec));
 111:src/../h/Riscv.hpp **** 	return stvec;
 112:src/../h/Riscv.hpp **** }
 113:src/../h/Riscv.hpp **** 
 114:src/../h/Riscv.hpp **** inline void Riscv::w_stvec(uint64 stvec) {
 270              		.loc 2 114 42 is_stmt 1
 271              		.cfi_startproc
 272              	.LVL19:
 273 0000 130101FF 		addi	sp,sp,-16
 274              		.cfi_def_cfa_offset 16
 275 0004 23348100 		sd	s0,8(sp)
 276              		.cfi_offset 8, -8
 277 0008 13040101 		addi	s0,sp,16
 278              		.cfi_def_cfa 8, 0
 115:src/../h/Riscv.hpp **** 	__asm__ volatile("csrw stvec, %[stvec]": :[stvec] "r"(stvec));
 279              		.loc 2 115 2
 280              		.loc 2 115 63 is_stmt 0
 281              	#APP
 282              	# 115 "src/../h/Riscv.hpp" 1
 116              	}
 283              		csrw stvec, a0
 284              	# 0 "" 2
 285              		.loc 2 116 1
 286              	#NO_APP
 287 0010 03348100 		ld	s0,8(sp)
GAS LISTING /tmp/ccx16sTh.s 			page 11


 288              		.cfi_restore 8
 289              		.cfi_def_cfa 2, 16
 290 0014 13010101 		addi	sp,sp,16
 291              		.cfi_def_cfa_offset 0
 292 0018 67800000 		jr	ra
 293              		.cfi_endproc
 294              	.LFE5:
 296              		.section	.text._ZN5Riscv10ms_sstatusEm,"axG",@progbits,_ZN5Riscv10ms_sstatusEm,comdat
 297              		.align	2
 298              		.weak	_ZN5Riscv10ms_sstatusEm
 300              	_ZN5Riscv10ms_sstatusEm:
 301              	.LFB10:
 117:src/../h/Riscv.hpp **** 
 118:src/../h/Riscv.hpp **** inline void Riscv::ms_sip(uint64 mask) {
 119:src/../h/Riscv.hpp **** 	__asm__ volatile("csrs sip, %[mask]": :[mask] "r"(mask));
 120:src/../h/Riscv.hpp **** }
 121:src/../h/Riscv.hpp **** 
 122:src/../h/Riscv.hpp **** inline void Riscv::mc_sip(uint64 mask) {
 123:src/../h/Riscv.hpp **** 	__asm__ volatile("csrc sip, %[mask]": :[mask] "r"(mask));
 124:src/../h/Riscv.hpp **** }
 125:src/../h/Riscv.hpp **** 
 126:src/../h/Riscv.hpp **** inline uint64 Riscv::r_sip() {
 127:src/../h/Riscv.hpp **** 	uint64 volatile sip;
 128:src/../h/Riscv.hpp **** 	__asm__ volatile("csrr %[sip], sip": [sip] "=r"(sip));
 129:src/../h/Riscv.hpp **** 	return sip;
 130:src/../h/Riscv.hpp **** }
 131:src/../h/Riscv.hpp **** 
 132:src/../h/Riscv.hpp **** inline void Riscv::w_sip(uint64 sip) {
 133:src/../h/Riscv.hpp **** 	__asm__ volatile("csrw sip, %[sip]": :[sip] "r"(sip));
 134:src/../h/Riscv.hpp **** }
 135:src/../h/Riscv.hpp **** 
 136:src/../h/Riscv.hpp **** inline void Riscv::ms_sstatus(uint64 mask) {
 302              		.loc 2 136 44 is_stmt 1
 303              		.cfi_startproc
 304              	.LVL20:
 305 0000 130101FF 		addi	sp,sp,-16
 306              		.cfi_def_cfa_offset 16
 307 0004 23348100 		sd	s0,8(sp)
 308              		.cfi_offset 8, -8
 309 0008 13040101 		addi	s0,sp,16
 310              		.cfi_def_cfa 8, 0
 137:src/../h/Riscv.hpp **** 	__asm__ volatile("csrs sstatus, %[mask]": :[mask] "r"(mask));
 311              		.loc 2 137 2
 312              		.loc 2 137 62 is_stmt 0
 313              	#APP
 314              	# 137 "src/../h/Riscv.hpp" 1
 138              	}
 315              		csrs sstatus, a0
 316              	# 0 "" 2
 317              		.loc 2 138 1
 318              	#NO_APP
 319 0010 03348100 		ld	s0,8(sp)
 320              		.cfi_restore 8
 321              		.cfi_def_cfa 2, 16
 322 0014 13010101 		addi	sp,sp,16
 323              		.cfi_def_cfa_offset 0
 324 0018 67800000 		jr	ra
GAS LISTING /tmp/ccx16sTh.s 			page 12


 325              		.cfi_endproc
 326              	.LFE10:
 328              		.section	.text._ZN5Riscv10mc_sstatusEm,"axG",@progbits,_ZN5Riscv10mc_sstatusEm,comdat
 329              		.align	2
 330              		.weak	_ZN5Riscv10mc_sstatusEm
 332              	_ZN5Riscv10mc_sstatusEm:
 333              	.LFB11:
 139:src/../h/Riscv.hpp **** 
 140:src/../h/Riscv.hpp **** inline void Riscv::mc_sstatus(uint64 mask) {
 334              		.loc 2 140 44 is_stmt 1
 335              		.cfi_startproc
 336              	.LVL21:
 337 0000 130101FF 		addi	sp,sp,-16
 338              		.cfi_def_cfa_offset 16
 339 0004 23348100 		sd	s0,8(sp)
 340              		.cfi_offset 8, -8
 341 0008 13040101 		addi	s0,sp,16
 342              		.cfi_def_cfa 8, 0
 141:src/../h/Riscv.hpp **** 	__asm__ volatile("csrc sstatus, %[mask]": :[mask] "r"(mask));
 343              		.loc 2 141 2
 344              		.loc 2 141 62 is_stmt 0
 345              	#APP
 346              	# 141 "src/../h/Riscv.hpp" 1
 142              	}
 347              		csrc sstatus, a0
 348              	# 0 "" 2
 349              		.loc 2 142 1
 350              	#NO_APP
 351 0010 03348100 		ld	s0,8(sp)
 352              		.cfi_restore 8
 353              		.cfi_def_cfa 2, 16
 354 0014 13010101 		addi	sp,sp,16
 355              		.cfi_def_cfa_offset 0
 356 0018 67800000 		jr	ra
 357              		.cfi_endproc
 358              	.LFE11:
 360              		.globl	semA
 361              		.bss
 362              		.align	3
 365              	semA:
 366 0000 00000000 		.zero	8
 366      00000000 
 367              		.text
 368              	.Letext0:
 369              		.file 3 "src/../lib/hw.h"
 370              		.file 4 "src/../h/syscall_c.hpp"
 371              		.file 5 "src/../h/TCB.hpp"
 372              		.file 6 "src/../h/../h/../h/MemoryAllocator.hpp"
 373              		.file 7 "src/../h/../h/ThreadQueue.hpp"
 374              		.file 8 "src/../h/KConsole.hpp"
 375              		.file 9 "src/../h/syscall_cpp.hpp"
 3609              		.align	3
 3612              	DW.ref.__gxx_personality_v0:
 3613 0000 00000000 		.dword	__gxx_personality_v0
 3613      00000000 
 3614              		.ident	"GCC: (Ubuntu 9.4.0-1ubuntu1~20.04) 9.4.0"
 3615              		.section	.note.GNU-stack,"",@progbits
GAS LISTING /tmp/ccx16sTh.s 			page 13


GAS LISTING /tmp/ccx16sTh.s 			page 14


DEFINED SYMBOLS
                            *ABS*:0000000000000000 main.cpp
     /tmp/ccx16sTh.s:9      .text:0000000000000000 main
     /tmp/ccx16sTh.s:13     .text:0000000000000000 .L0 
     /tmp/ccx16sTh.s:3612   .data.rel.local.DW.ref.__gxx_personality_v0:0000000000000000 DW.ref.__gxx_personality_v0
     /tmp/ccx16sTh.s:16     .text:0000000000000000 .L0 
     /tmp/ccx16sTh.s:17     .text:0000000000000004 .L0 
     /tmp/ccx16sTh.s:22     .text:0000000000000014 .L0 
     /tmp/ccx16sTh.s:23     .text:0000000000000014 .L0 
     /tmp/ccx16sTh.s:24     .text:0000000000000014 .L0 
     /tmp/ccx16sTh.s:25     .text:0000000000000014 .L0 
     /tmp/ccx16sTh.s:27     .text:0000000000000018 .L0 
     /tmp/ccx16sTh.s:29     .text:0000000000000018 .L0 
     /tmp/ccx16sTh.s:30     .text:0000000000000018 .L0 
     /tmp/ccx16sTh.s:267    .text._ZN5Riscv7w_stvecEm:0000000000000000 _ZN5Riscv7w_stvecEm
     /tmp/ccx16sTh.s:36     .text:000000000000002c .L0 
     /tmp/ccx16sTh.s:37     .text:000000000000002c .L0 
     /tmp/ccx16sTh.s:40     .text:0000000000000034 .L0 
     /tmp/ccx16sTh.s:41     .text:0000000000000034 .L0 
     /tmp/ccx16sTh.s:365    .bss:0000000000000000 semA
     /tmp/ccx16sTh.s:54     .text:0000000000000058 .L0 
     /tmp/ccx16sTh.s:58     .text:0000000000000064 .L0 
     /tmp/ccx16sTh.s:59     .text:0000000000000064 .L0 
     /tmp/ccx16sTh.s:62     .text:000000000000006c .L0 
     /tmp/ccx16sTh.s:63     .text:000000000000006c .L0 
     /tmp/ccx16sTh.s:64     .text:000000000000006c .L0 
     /tmp/ccx16sTh.s:65     .text:000000000000006c .L0 
     /tmp/ccx16sTh.s:66     .text:000000000000006c .L0 
     /tmp/ccx16sTh.s:67     .text:000000000000006c .L0 
     /tmp/ccx16sTh.s:74     .text:0000000000000084 .L0 
     /tmp/ccx16sTh.s:75     .text:0000000000000084 .L0 
     /tmp/ccx16sTh.s:79     .text:0000000000000094 .L0 
     /tmp/ccx16sTh.s:80     .text:0000000000000094 .L0 
     /tmp/ccx16sTh.s:185    .text:0000000000000174 _Z4idlePv
     /tmp/ccx16sTh.s:87     .text:00000000000000b0 .L0 
     /tmp/ccx16sTh.s:88     .text:00000000000000b0 .L0 
     /tmp/ccx16sTh.s:211    .text:0000000000000190 _Z22kernelConsumerFunctionPv
     /tmp/ccx16sTh.s:95     .text:00000000000000cc .L0 
     /tmp/ccx16sTh.s:96     .text:00000000000000cc .L0 
     /tmp/ccx16sTh.s:103    .text:00000000000000e8 .L0 
     /tmp/ccx16sTh.s:104    .text:00000000000000e8 .L0 
     /tmp/ccx16sTh.s:300    .text._ZN5Riscv10ms_sstatusEm:0000000000000000 _ZN5Riscv10ms_sstatusEm
     /tmp/ccx16sTh.s:108    .text:00000000000000f4 .L0 
     /tmp/ccx16sTh.s:109    .text:00000000000000f4 .L0 
     /tmp/ccx16sTh.s:115    .text:0000000000000104 .L0 
     /tmp/ccx16sTh.s:116    .text:0000000000000104 .L0 
     /tmp/ccx16sTh.s:122    .text:0000000000000120 .L0 
     /tmp/ccx16sTh.s:125    .text:0000000000000124 .L0 
     /tmp/ccx16sTh.s:126    .text:0000000000000124 .L0 
     /tmp/ccx16sTh.s:332    .text._ZN5Riscv10mc_sstatusEm:0000000000000000 _ZN5Riscv10mc_sstatusEm
     /tmp/ccx16sTh.s:130    .text:0000000000000130 .L0 
     /tmp/ccx16sTh.s:131    .text:0000000000000130 .L0 
     /tmp/ccx16sTh.s:136    .text:000000000000013c .L0 
     /tmp/ccx16sTh.s:146    .text:0000000000000158 .L0 
     /tmp/ccx16sTh.s:148    .text:0000000000000160 .L0 
     /tmp/ccx16sTh.s:150    .text:0000000000000164 .L0 
     /tmp/ccx16sTh.s:151    .text:0000000000000164 .L0 
GAS LISTING /tmp/ccx16sTh.s 			page 15


     /tmp/ccx16sTh.s:153    .text:0000000000000168 .L0 
     /tmp/ccx16sTh.s:155    .text:000000000000016c .L0 
     /tmp/ccx16sTh.s:157    .text:0000000000000170 .L0 
     /tmp/ccx16sTh.s:159    .text:0000000000000174 .L0 
     /tmp/ccx16sTh.s:188    .text:0000000000000174 .L0 
     /tmp/ccx16sTh.s:189    .text:0000000000000174 .L0 
     /tmp/ccx16sTh.s:190    .text:0000000000000178 .L0 
     /tmp/ccx16sTh.s:193    .text:0000000000000180 .L0 
     /tmp/ccx16sTh.s:194    .text:0000000000000180 .L0 
     /tmp/ccx16sTh.s:196    .text:0000000000000184 .L0 
     /tmp/ccx16sTh.s:199    .text:0000000000000184 .L0 
     /tmp/ccx16sTh.s:200    .text:0000000000000184 .L0 
     /tmp/ccx16sTh.s:201    .text:0000000000000184 .L0 
     /tmp/ccx16sTh.s:204    .text:000000000000018c .L0 
     /tmp/ccx16sTh.s:205    .text:0000000000000190 .L0 
     /tmp/ccx16sTh.s:214    .text:0000000000000190 .L0 
     /tmp/ccx16sTh.s:215    .text:0000000000000190 .L0 
     /tmp/ccx16sTh.s:216    .text:0000000000000194 .L0 
     /tmp/ccx16sTh.s:219    .text:000000000000019c .L0 
     /tmp/ccx16sTh.s:220    .text:000000000000019c .L0 
     /tmp/ccx16sTh.s:222    .text:00000000000001a0 .L0 
     /tmp/ccx16sTh.s:228    .text:00000000000001a4 .L0 
     /tmp/ccx16sTh.s:231    .text:00000000000001b0 .L0 
     /tmp/ccx16sTh.s:233    .text:00000000000001b4 .L0 
     /tmp/ccx16sTh.s:234    .text:00000000000001b4 .L0 
     /tmp/ccx16sTh.s:242    .text:00000000000001c8 .L0 
     /tmp/ccx16sTh.s:244    .text:00000000000001c8 .L0 
     /tmp/ccx16sTh.s:245    .text:00000000000001c8 .L0 
     /tmp/ccx16sTh.s:246    .text:00000000000001c8 .L0 
     /tmp/ccx16sTh.s:250    .text:00000000000001d0 .L0 
     /tmp/ccx16sTh.s:251    .text:00000000000001d0 .L0 
     /tmp/ccx16sTh.s:252    .text:00000000000001d0 .L0 
     /tmp/ccx16sTh.s:256    .text:00000000000001e0 .L0 
     /tmp/ccx16sTh.s:260    .text:00000000000001ec .L0 
     /tmp/ccx16sTh.s:271    .text._ZN5Riscv7w_stvecEm:0000000000000000 .L0 
     /tmp/ccx16sTh.s:273    .text._ZN5Riscv7w_stvecEm:0000000000000000 .L0 
     /tmp/ccx16sTh.s:274    .text._ZN5Riscv7w_stvecEm:0000000000000004 .L0 
     /tmp/ccx16sTh.s:276    .text._ZN5Riscv7w_stvecEm:0000000000000008 .L0 
     /tmp/ccx16sTh.s:278    .text._ZN5Riscv7w_stvecEm:000000000000000c .L0 
     /tmp/ccx16sTh.s:280    .text._ZN5Riscv7w_stvecEm:000000000000000c .L0 
  src/../h/Riscv.hpp:115    .text._ZN5Riscv7w_stvecEm:000000000000000c .L0 
     /tmp/ccx16sTh.s:287    .text._ZN5Riscv7w_stvecEm:0000000000000010 .L0 
     /tmp/ccx16sTh.s:288    .text._ZN5Riscv7w_stvecEm:0000000000000014 .L0 
     /tmp/ccx16sTh.s:289    .text._ZN5Riscv7w_stvecEm:0000000000000014 .L0 
     /tmp/ccx16sTh.s:291    .text._ZN5Riscv7w_stvecEm:0000000000000018 .L0 
     /tmp/ccx16sTh.s:293    .text._ZN5Riscv7w_stvecEm:000000000000001c .L0 
     /tmp/ccx16sTh.s:303    .text._ZN5Riscv10ms_sstatusEm:0000000000000000 .L0 
     /tmp/ccx16sTh.s:305    .text._ZN5Riscv10ms_sstatusEm:0000000000000000 .L0 
     /tmp/ccx16sTh.s:306    .text._ZN5Riscv10ms_sstatusEm:0000000000000004 .L0 
     /tmp/ccx16sTh.s:308    .text._ZN5Riscv10ms_sstatusEm:0000000000000008 .L0 
     /tmp/ccx16sTh.s:310    .text._ZN5Riscv10ms_sstatusEm:000000000000000c .L0 
     /tmp/ccx16sTh.s:312    .text._ZN5Riscv10ms_sstatusEm:000000000000000c .L0 
  src/../h/Riscv.hpp:137    .text._ZN5Riscv10ms_sstatusEm:000000000000000c .L0 
     /tmp/ccx16sTh.s:319    .text._ZN5Riscv10ms_sstatusEm:0000000000000010 .L0 
     /tmp/ccx16sTh.s:320    .text._ZN5Riscv10ms_sstatusEm:0000000000000014 .L0 
     /tmp/ccx16sTh.s:321    .text._ZN5Riscv10ms_sstatusEm:0000000000000014 .L0 
     /tmp/ccx16sTh.s:323    .text._ZN5Riscv10ms_sstatusEm:0000000000000018 .L0 
GAS LISTING /tmp/ccx16sTh.s 			page 16


     /tmp/ccx16sTh.s:325    .text._ZN5Riscv10ms_sstatusEm:000000000000001c .L0 
     /tmp/ccx16sTh.s:335    .text._ZN5Riscv10mc_sstatusEm:0000000000000000 .L0 
     /tmp/ccx16sTh.s:337    .text._ZN5Riscv10mc_sstatusEm:0000000000000000 .L0 
     /tmp/ccx16sTh.s:338    .text._ZN5Riscv10mc_sstatusEm:0000000000000004 .L0 
     /tmp/ccx16sTh.s:340    .text._ZN5Riscv10mc_sstatusEm:0000000000000008 .L0 
     /tmp/ccx16sTh.s:342    .text._ZN5Riscv10mc_sstatusEm:000000000000000c .L0 
     /tmp/ccx16sTh.s:344    .text._ZN5Riscv10mc_sstatusEm:000000000000000c .L0 
  src/../h/Riscv.hpp:141    .text._ZN5Riscv10mc_sstatusEm:000000000000000c .L0 
     /tmp/ccx16sTh.s:351    .text._ZN5Riscv10mc_sstatusEm:0000000000000010 .L0 
     /tmp/ccx16sTh.s:352    .text._ZN5Riscv10mc_sstatusEm:0000000000000014 .L0 
     /tmp/ccx16sTh.s:353    .text._ZN5Riscv10mc_sstatusEm:0000000000000014 .L0 
     /tmp/ccx16sTh.s:355    .text._ZN5Riscv10mc_sstatusEm:0000000000000018 .L0 
     /tmp/ccx16sTh.s:357    .text._ZN5Riscv10mc_sstatusEm:000000000000001c .L0 
     /tmp/ccx16sTh.s:376    .text:00000000000001ec .L0 
     /tmp/ccx16sTh.s:296    .text._ZN5Riscv7w_stvecEm:000000000000001c .L0 
     /tmp/ccx16sTh.s:328    .text._ZN5Riscv10ms_sstatusEm:000000000000001c .L0 
     /tmp/ccx16sTh.s:361    .text._ZN5Riscv10mc_sstatusEm:000000000000001c .L0 
     /tmp/ccx16sTh.s:30     .text:0000000000000018 .L0 
     /tmp/ccx16sTh.s:54     .text:0000000000000058 .L0 
     /tmp/ccx16sTh.s:76     .text:0000000000000088 .L0 
     /tmp/ccx16sTh.s:82     .text:000000000000009c .L0 
     /tmp/ccx16sTh.s:90     .text:00000000000000b8 .L0 
     /tmp/ccx16sTh.s:98     .text:00000000000000d4 .L0 
     /tmp/ccx16sTh.s:116    .text:0000000000000104 .L0 
     /tmp/ccx16sTh.s:118    .text:0000000000000110 .L0 
     /tmp/ccx16sTh.s:228    .text:00000000000001a4 .L0 
     /tmp/ccx16sTh.s:234    .text:00000000000001b4 .L0 
     /tmp/ccx16sTh.s:252    .text:00000000000001d0 .L0 
     /tmp/ccx16sTh.s:123    .text:0000000000000124 .L2
     /tmp/ccx16sTh.s:113    .text:0000000000000104 .L3
     /tmp/ccx16sTh.s:144    .text:0000000000000158 .L7
     /tmp/ccx16sTh.s:197    .text:0000000000000184 .L9
     /tmp/ccx16sTh.s:241    .text:00000000000001c8 .L13
     /tmp/ccx16sTh.s:248    .text:00000000000001d0 .L12
     /tmp/ccx16sTh.s:225    .text:00000000000001a4 .L15
     /tmp/ccx16sTh.s:35     .text:000000000000002c .LEHB0
     /tmp/ccx16sTh.s:10     .text:0000000000000000 .LFB48
     /tmp/ccx16sTh.s:44     .text:0000000000000040 .LEHE0
     /tmp/ccx16sTh.s:49     .text:0000000000000050 .LEHB1
     /tmp/ccx16sTh.s:52     .text:0000000000000058 .LEHE1
     /tmp/ccx16sTh.s:133    .text:0000000000000138 .L6
     /tmp/ccx16sTh.s:57     .text:0000000000000064 .LEHB2
     /tmp/ccx16sTh.s:143    .text:0000000000000158 .LEHE2
     /tmp/ccx16sTh.s:2064   .debug_abbrev:0000000000000000 .Ldebug_abbrev0
     /tmp/ccx16sTh.s:3512   .debug_str:0000000000000a25 .LASF208
     /tmp/ccx16sTh.s:3270   .debug_str:000000000000037a .LASF209
     /tmp/ccx16sTh.s:3466   .debug_str:00000000000008e9 .LASF210
     /tmp/ccx16sTh.s:3150   .debug_ranges:0000000000000000 .Ldebug_ranges0
     /tmp/ccx16sTh.s:3168   .debug_line:0000000000000000 .Ldebug_line0
     /tmp/ccx16sTh.s:3306   .debug_str:0000000000000469 .LASF0
     /tmp/ccx16sTh.s:3336   .debug_str:000000000000052f .LASF1
     /tmp/ccx16sTh.s:3450   .debug_str:0000000000000872 .LASF2
     /tmp/ccx16sTh.s:3260   .debug_str:000000000000032a .LASF3
     /tmp/ccx16sTh.s:3458   .debug_str:00000000000008ba .LASF4
     /tmp/ccx16sTh.s:3320   .debug_str:00000000000004b9 .LASF5
     /tmp/ccx16sTh.s:3178   .debug_str:000000000000004c .LASF6
     /tmp/ccx16sTh.s:3414   .debug_str:0000000000000764 .LASF7
GAS LISTING /tmp/ccx16sTh.s 			page 17


     /tmp/ccx16sTh.s:3406   .debug_str:0000000000000740 .LASF8
     /tmp/ccx16sTh.s:3326   .debug_str:00000000000004fa .LASF9
     /tmp/ccx16sTh.s:3280   .debug_str:00000000000003a9 .LASF10
     /tmp/ccx16sTh.s:3290   .debug_str:00000000000003f8 .LASF11
     /tmp/ccx16sTh.s:3214   .debug_str:0000000000000191 .LASF12
     /tmp/ccx16sTh.s:3268   .debug_str:000000000000036b .LASF13
     /tmp/ccx16sTh.s:3224   .debug_str:00000000000001e9 .LASF14
     /tmp/ccx16sTh.s:3212   .debug_str:0000000000000181 .LASF15
     /tmp/ccx16sTh.s:3488   .debug_str:000000000000098c .LASF16
     /tmp/ccx16sTh.s:3256   .debug_str:00000000000002f9 .LASF17
     /tmp/ccx16sTh.s:3478   .debug_str:0000000000000953 .LASF18
     /tmp/ccx16sTh.s:3562   .debug_str:0000000000000c2a .LASF57
     /tmp/ccx16sTh.s:3546   .debug_str:0000000000000bd6 .LASF107
     /tmp/ccx16sTh.s:3262   .debug_str:0000000000000330 .LASF19
     /tmp/ccx16sTh.s:3510   .debug_str:0000000000000a18 .LASF20
     /tmp/ccx16sTh.s:3238   .debug_str:0000000000000273 .LASF21
     /tmp/ccx16sTh.s:3296   .debug_str:000000000000041e .LASF22
     /tmp/ccx16sTh.s:3304   .debug_str:0000000000000451 .LASF24
     /tmp/ccx16sTh.s:3464   .debug_str:00000000000008db .LASF23
     /tmp/ccx16sTh.s:3258   .debug_str:000000000000030f .LASF25
     /tmp/ccx16sTh.s:3310   .debug_str:0000000000000486 .LASF26
     /tmp/ccx16sTh.s:3572   .debug_str:0000000000000c7d .LASF27
     /tmp/ccx16sTh.s:3534   .debug_str:0000000000000b99 .LASF28
     /tmp/ccx16sTh.s:3528   .debug_str:0000000000000b62 .LASF30
     /tmp/ccx16sTh.s:3446   .debug_str:000000000000085e .LASF32
     /tmp/ccx16sTh.s:3386   .debug_str:00000000000006ad .LASF34
     /tmp/ccx16sTh.s:3424   .debug_str:0000000000000791 .LASF29
     /tmp/ccx16sTh.s:3426   .debug_str:0000000000000798 .LASF31
     /tmp/ccx16sTh.s:3374   .debug_str:0000000000000650 .LASF33
     /tmp/ccx16sTh.s:3328   .debug_str:000000000000050d .LASF35
     /tmp/ccx16sTh.s:3576   .debug_str:0000000000000ca5 .LASF36
     /tmp/ccx16sTh.s:3514   .debug_str:0000000000000ae9 .LASF37
     /tmp/ccx16sTh.s:3372   .debug_str:0000000000000648 .LASF38
     /tmp/ccx16sTh.s:3384   .debug_str:0000000000000699 .LASF39
     /tmp/ccx16sTh.s:3484   .debug_str:0000000000000978 .LASF40
     /tmp/ccx16sTh.s:3460   .debug_str:00000000000008c1 .LASF41
     /tmp/ccx16sTh.s:3462   .debug_str:00000000000008d4 .LASF42
     /tmp/ccx16sTh.s:3218   .debug_str:00000000000001a5 .LASF43
     /tmp/ccx16sTh.s:3254   .debug_str:00000000000002f3 .LASF44
     /tmp/ccx16sTh.s:3300   .debug_str:0000000000000434 .LASF45
     /tmp/ccx16sTh.s:3312   .debug_str:0000000000000493 .LASF46
     /tmp/ccx16sTh.s:3242   .debug_str:0000000000000297 .LASF47
     /tmp/ccx16sTh.s:3180   .debug_str:0000000000000053 .LASF48
     /tmp/ccx16sTh.s:3454   .debug_str:000000000000088a .LASF49
     /tmp/ccx16sTh.s:3448   .debug_str:0000000000000867 .LASF50
     /tmp/ccx16sTh.s:3594   .debug_str:0000000000000d34 .LASF51
     /tmp/ccx16sTh.s:3564   .debug_str:0000000000000c30 .LASF52
     /tmp/ccx16sTh.s:3578   .debug_str:0000000000000cad .LASF53
     /tmp/ccx16sTh.s:3558   .debug_str:0000000000000c0a .LASF54
     /tmp/ccx16sTh.s:3360   .debug_str:00000000000005ba .LASF55
     /tmp/ccx16sTh.s:3522   .debug_str:0000000000000b37 .LASF98
     /tmp/ccx16sTh.s:3230   .debug_str:0000000000000229 .LASF100
     /tmp/ccx16sTh.s:3556   .debug_str:0000000000000c01 .LASF56
     /tmp/ccx16sTh.s:3496   .debug_str:00000000000009cf .LASF137
     /tmp/ccx16sTh.s:3486   .debug_str:000000000000097f .LASF60
     /tmp/ccx16sTh.s:3570   .debug_str:0000000000000c5b .LASF62
     /tmp/ccx16sTh.s:3392   .debug_str:00000000000006e5 .LASF211
GAS LISTING /tmp/ccx16sTh.s 			page 18


     /tmp/ccx16sTh.s:3588   .debug_str:0000000000000d14 .LASF58
     /tmp/ccx16sTh.s:3322   .debug_str:00000000000004cb .LASF59
     /tmp/ccx16sTh.s:3498   .debug_str:00000000000009d7 .LASF64
     /tmp/ccx16sTh.s:3494   .debug_str:00000000000009b9 .LASF66
     /tmp/ccx16sTh.s:3198   .debug_str:00000000000000eb .LASF61
     /tmp/ccx16sTh.s:3530   .debug_str:0000000000000b77 .LASF63
     /tmp/ccx16sTh.s:3452   .debug_str:0000000000000880 .LASF65
     /tmp/ccx16sTh.s:3492   .debug_str:00000000000009a5 .LASF67
     /tmp/ccx16sTh.s:3502   .debug_str:00000000000009ef .LASF68
     /tmp/ccx16sTh.s:3264   .debug_str:000000000000033c .LASF69
     /tmp/ccx16sTh.s:3344   .debug_str:000000000000055b .LASF70
     /tmp/ccx16sTh.s:3430   .debug_str:00000000000007dd .LASF71
     /tmp/ccx16sTh.s:3246   .debug_str:00000000000002c1 .LASF72
     /tmp/ccx16sTh.s:3456   .debug_str:00000000000008a2 .LASF73
     /tmp/ccx16sTh.s:3532   .debug_str:0000000000000b8e .LASF74
     /tmp/ccx16sTh.s:3244   .debug_str:00000000000002a9 .LASF75
     /tmp/ccx16sTh.s:3598   .debug_str:0000000000000d59 .LASF76
     /tmp/ccx16sTh.s:3266   .debug_str:0000000000000352 .LASF77
     /tmp/ccx16sTh.s:3342   .debug_str:0000000000000555 .LASF78
     /tmp/ccx16sTh.s:3444   .debug_str:000000000000084e .LASF79
     /tmp/ccx16sTh.s:3248   .debug_str:00000000000002ce .LASF80
     /tmp/ccx16sTh.s:3220   .debug_str:00000000000001b8 .LASF81
     /tmp/ccx16sTh.s:3348   .debug_str:0000000000000575 .LASF82
     /tmp/ccx16sTh.s:3184   .debug_str:000000000000007a .LASF83
     /tmp/ccx16sTh.s:3508   .debug_str:0000000000000a10 .LASF84
     /tmp/ccx16sTh.s:3206   .debug_str:0000000000000151 .LASF85
     /tmp/ccx16sTh.s:3526   .debug_str:0000000000000b5a .LASF86
     /tmp/ccx16sTh.s:3208   .debug_str:0000000000000162 .LASF87
     /tmp/ccx16sTh.s:3592   .debug_str:0000000000000d2e .LASF88
     /tmp/ccx16sTh.s:3538   .debug_str:0000000000000ba8 .LASF89
     /tmp/ccx16sTh.s:3516   .debug_str:0000000000000afd .LASF90
     /tmp/ccx16sTh.s:3476   .debug_str:000000000000094a .LASF91
     /tmp/ccx16sTh.s:3416   .debug_str:000000000000076b .LASF92
     /tmp/ccx16sTh.s:3298   .debug_str:0000000000000429 .LASF93
     /tmp/ccx16sTh.s:3474   .debug_str:000000000000093a .LASF94
     /tmp/ccx16sTh.s:3398   .debug_str:00000000000006fc .LASF95
     /tmp/ccx16sTh.s:3172   .debug_str:0000000000000009 .LASF96
     /tmp/ccx16sTh.s:3174   .debug_str:0000000000000016 .LASF97
     /tmp/ccx16sTh.s:3584   .debug_str:0000000000000cef .LASF212
     /tmp/ccx16sTh.s:3232   .debug_str:0000000000000241 .LASF99
     /tmp/ccx16sTh.s:3176   .debug_str:0000000000000024 .LASF101
     /tmp/ccx16sTh.s:3596   .debug_str:0000000000000d4c .LASF102
     /tmp/ccx16sTh.s:3286   .debug_str:00000000000003d7 .LASF103
     /tmp/ccx16sTh.s:3308   .debug_str:0000000000000476 .LASF142
     /tmp/ccx16sTh.s:3356   .debug_str:0000000000000596 .LASF143
     /tmp/ccx16sTh.s:3282   .debug_str:00000000000003b9 .LASF104
     /tmp/ccx16sTh.s:3480   .debug_str:0000000000000969 .LASF184
     /tmp/ccx16sTh.s:3504   .debug_str:00000000000009fa .LASF105
     /tmp/ccx16sTh.s:3400   .debug_str:0000000000000708 .LASF106
     /tmp/ccx16sTh.s:3396   .debug_str:00000000000006f4 .LASF108
     /tmp/ccx16sTh.s:3412   .debug_str:000000000000075e .LASF109
     /tmp/ccx16sTh.s:3582   .debug_str:0000000000000ce5 .LASF110
     /tmp/ccx16sTh.s:3436   .debug_str:0000000000000809 .LASF111
     /tmp/ccx16sTh.s:3410   .debug_str:0000000000000759 .LASF112
     /tmp/ccx16sTh.s:3354   .debug_str:000000000000058c .LASF113
     /tmp/ccx16sTh.s:3422   .debug_str:0000000000000782 .LASF117
     /tmp/ccx16sTh.s:3216   .debug_str:00000000000001a0 .LASF114
GAS LISTING /tmp/ccx16sTh.s 			page 19


     /tmp/ccx16sTh.s:3190   .debug_str:00000000000000ba .LASF115
     /tmp/ccx16sTh.s:3334   .debug_str:000000000000052a .LASF116
     /tmp/ccx16sTh.s:3250   .debug_str:00000000000002d7 .LASF118
     /tmp/ccx16sTh.s:3432   .debug_str:00000000000007f5 .LASF119
     /tmp/ccx16sTh.s:3370   .debug_str:0000000000000635 .LASF120
     /tmp/ccx16sTh.s:3272   .debug_str:0000000000000387 .LASF121
     /tmp/ccx16sTh.s:3518   .debug_str:0000000000000b07 .LASF122
     /tmp/ccx16sTh.s:3274   .debug_str:000000000000038f .LASF123
     /tmp/ccx16sTh.s:3390   .debug_str:00000000000006c7 .LASF124
     /tmp/ccx16sTh.s:3192   .debug_str:00000000000000bf .LASF125
     /tmp/ccx16sTh.s:3428   .debug_str:00000000000007ab .LASF126
     /tmp/ccx16sTh.s:3590   .debug_str:0000000000000d1a .LASF127
     /tmp/ccx16sTh.s:3366   .debug_str:00000000000005ea .LASF128
     /tmp/ccx16sTh.s:3188   .debug_str:00000000000000a1 .LASF129
     /tmp/ccx16sTh.s:3440   .debug_str:0000000000000825 .LASF130
     /tmp/ccx16sTh.s:3434   .debug_str:00000000000007fd .LASF131
     /tmp/ccx16sTh.s:3568   .debug_str:0000000000000c4f .LASF132
     /tmp/ccx16sTh.s:3316   .debug_str:00000000000004a1 .LASF133
     /tmp/ccx16sTh.s:3200   .debug_str:00000000000000f7 .LASF134
     /tmp/ccx16sTh.s:3520   .debug_str:0000000000000b32 .LASF135
     /tmp/ccx16sTh.s:3376   .debug_str:0000000000000657 .LASF136
     /tmp/ccx16sTh.s:3554   .debug_str:0000000000000bfc .LASF138
     /tmp/ccx16sTh.s:3330   .debug_str:0000000000000520 .LASF139
     /tmp/ccx16sTh.s:3222   .debug_str:00000000000001cb .LASF140
     /tmp/ccx16sTh.s:3234   .debug_str:000000000000024f .LASF141
     /tmp/ccx16sTh.s:3226   .debug_str:00000000000001f9 .LASF144
     /tmp/ccx16sTh.s:3278   .debug_str:00000000000003a3 .LASF145
     /tmp/ccx16sTh.s:3332   .debug_str:0000000000000525 .LASF146
     /tmp/ccx16sTh.s:3186   .debug_str:000000000000008c .LASF147
     /tmp/ccx16sTh.s:3284   .debug_str:00000000000003bf .LASF148
     /tmp/ccx16sTh.s:3236   .debug_str:0000000000000269 .LASF213
     /tmp/ccx16sTh.s:3524   .debug_str:0000000000000b42 .LASF214
     /tmp/ccx16sTh.s:3500   .debug_str:00000000000009e2 .LASF149
     /tmp/ccx16sTh.s:3566   .debug_str:0000000000000c3a .LASF150
     /tmp/ccx16sTh.s:3314   .debug_str:0000000000000499 .LASF151
     /tmp/ccx16sTh.s:3182   .debug_str:000000000000005e .LASF152
     /tmp/ccx16sTh.s:3340   .debug_str:000000000000054d .LASF153
     /tmp/ccx16sTh.s:3368   .debug_str:0000000000000616 .LASF154
     /tmp/ccx16sTh.s:3202   .debug_str:000000000000012c .LASF155
     /tmp/ccx16sTh.s:3204   .debug_str:0000000000000135 .LASF156
     /tmp/ccx16sTh.s:3228   .debug_str:0000000000000214 .LASF157
     /tmp/ccx16sTh.s:3560   .debug_str:0000000000000c14 .LASF158
     /tmp/ccx16sTh.s:3352   .debug_str:0000000000000583 .LASF159
     /tmp/ccx16sTh.s:3468   .debug_str:0000000000000907 .LASF160
     /tmp/ccx16sTh.s:3380   .debug_str:000000000000066f .LASF161
     /tmp/ccx16sTh.s:3408   .debug_str:0000000000000753 .LASF162
     /tmp/ccx16sTh.s:3602   .debug_str:0000000000000d7b .LASF163
     /tmp/ccx16sTh.s:3506   .debug_str:00000000000009ff .LASF164
     /tmp/ccx16sTh.s:3490   .debug_str:0000000000000998 .LASF165
     /tmp/ccx16sTh.s:3324   .debug_str:00000000000004dd .LASF166
     /tmp/ccx16sTh.s:3542   .debug_str:0000000000000bb9 .LASF167
     /tmp/ccx16sTh.s:3580   .debug_str:0000000000000cc3 .LASF168
     /tmp/ccx16sTh.s:3318   .debug_str:00000000000004ab .LASF169
     /tmp/ccx16sTh.s:3402   .debug_str:0000000000000718 .LASF170
     /tmp/ccx16sTh.s:3294   .debug_str:0000000000000411 .LASF171
     /tmp/ccx16sTh.s:3442   .debug_str:0000000000000831 .LASF172
     /tmp/ccx16sTh.s:3194   .debug_str:00000000000000cc .LASF173
GAS LISTING /tmp/ccx16sTh.s 			page 20


     /tmp/ccx16sTh.s:3288   .debug_str:00000000000003e3 .LASF174
     /tmp/ccx16sTh.s:3276   .debug_str:0000000000000395 .LASF175
     /tmp/ccx16sTh.s:3346   .debug_str:0000000000000568 .LASF176
     /tmp/ccx16sTh.s:3170   .debug_str:0000000000000000 .LASF215
     /tmp/ccx16sTh.s:3540   .debug_str:0000000000000bad .LASF177
     /tmp/ccx16sTh.s:3252   .debug_str:00000000000002e6 .LASF178
     /tmp/ccx16sTh.s:3394   .debug_str:00000000000006ea .LASF179
     /tmp/ccx16sTh.s:3420   .debug_str:0000000000000778 .LASF180
     /tmp/ccx16sTh.s:3338   .debug_str:0000000000000542 .LASF181
     /tmp/ccx16sTh.s:3544   .debug_str:0000000000000bcb .LASF182
     /tmp/ccx16sTh.s:3470   .debug_str:000000000000090d .LASF183
     /tmp/ccx16sTh.s:3482   .debug_str:000000000000096e .LASF185
     /tmp/ccx16sTh.s:3362   .debug_str:00000000000005d0 .LASF186
     /tmp/ccx16sTh.s:3388   .debug_str:00000000000006c2 .LASF187
     /tmp/ccx16sTh.s:160    .text:0000000000000174 .LFE48
     /tmp/ccx16sTh.s:3302   .debug_str:0000000000000446 .LASF188
     /tmp/ccx16sTh.s:3548   .debug_str:0000000000000be5 .LASF189
     /tmp/ccx16sTh.s:3196   .debug_str:00000000000000e0 .LASF190
     /tmp/ccx16sTh.s:3600   .debug_str:0000000000000d67 .LASF191
     /tmp/ccx16sTh.s:33     .text:000000000000002c .LVL0
     /tmp/ccx16sTh.s:38     .text:0000000000000034 .LVL1
     /tmp/ccx16sTh.s:43     .text:0000000000000040 .LVL2
     /tmp/ccx16sTh.s:51     .text:0000000000000058 .LVL3
     /tmp/ccx16sTh.s:60     .text:000000000000006c .LVL4
     /tmp/ccx16sTh.s:72     .text:0000000000000084 .LVL5
     /tmp/ccx16sTh.s:85     .text:00000000000000b0 .LVL6
     /tmp/ccx16sTh.s:93     .text:00000000000000cc .LVL7
     /tmp/ccx16sTh.s:101    .text:00000000000000e8 .LVL8
     /tmp/ccx16sTh.s:106    .text:00000000000000f4 .LVL9
     /tmp/ccx16sTh.s:112    .text:0000000000000104 .LVL10
     /tmp/ccx16sTh.s:128    .text:0000000000000130 .LVL11
     /tmp/ccx16sTh.s:138    .text:0000000000000148 .LVL12
     /tmp/ccx16sTh.s:142    .text:0000000000000158 .LVL13
     /tmp/ccx16sTh.s:3358   .debug_str:00000000000005a3 .LASF192
     /tmp/ccx16sTh.s:3472   .debug_str:000000000000091d .LASF193
     /tmp/ccx16sTh.s:212    .text:0000000000000190 .LFB47
     /tmp/ccx16sTh.s:261    .text:00000000000001ec .LFE47
     /tmp/ccx16sTh.s:3120   .debug_loc:0000000000000000 .LLST0
     /tmp/ccx16sTh.s:238    .text:00000000000001c8 .LVL17
     /tmp/ccx16sTh.s:247    .text:00000000000001d0 .LVL18
     /tmp/ccx16sTh.s:3418   .debug_str:0000000000000773 .LASF194
     /tmp/ccx16sTh.s:3404   .debug_str:0000000000000736 .LASF195
     /tmp/ccx16sTh.s:186    .text:0000000000000174 .LFB46
     /tmp/ccx16sTh.s:206    .text:0000000000000190 .LFE46
     /tmp/ccx16sTh.s:202    .text:000000000000018c .LVL14
     /tmp/ccx16sTh.s:333    .text._ZN5Riscv10mc_sstatusEm:0000000000000000 .LFB11
     /tmp/ccx16sTh.s:358    .text._ZN5Riscv10mc_sstatusEm:000000000000001c .LFE11
     /tmp/ccx16sTh.s:3550   .debug_str:0000000000000bf0 .LASF196
     /tmp/ccx16sTh.s:301    .text._ZN5Riscv10ms_sstatusEm:0000000000000000 .LFB10
     /tmp/ccx16sTh.s:326    .text._ZN5Riscv10ms_sstatusEm:000000000000001c .LFE10
     /tmp/ccx16sTh.s:268    .text._ZN5Riscv7w_stvecEm:0000000000000000 .LFB5
     /tmp/ccx16sTh.s:294    .text._ZN5Riscv7w_stvecEm:000000000000001c .LFE5
     /tmp/ccx16sTh.s:3350   .debug_str:000000000000057d .LASF197
     /tmp/ccx16sTh.s:3536   .debug_str:0000000000000ba2 .LASF198
     /tmp/ccx16sTh.s:3604   .debug_str:0000000000000d90 .LASF199
     /tmp/ccx16sTh.s:3574   .debug_str:0000000000000c97 .LASF200
     /tmp/ccx16sTh.s:3382   .debug_str:0000000000000684 .LASF201
GAS LISTING /tmp/ccx16sTh.s 			page 21


     /tmp/ccx16sTh.s:3378   .debug_str:0000000000000663 .LASF202
     /tmp/ccx16sTh.s:3552   .debug_str:0000000000000bf5 .LASF203
     /tmp/ccx16sTh.s:3586   .debug_str:0000000000000d05 .LASF216
     /tmp/ccx16sTh.s:3240   .debug_str:000000000000027f .LASF217
     /tmp/ccx16sTh.s:3438   .debug_str:0000000000000810 .LASF204
     /tmp/ccx16sTh.s:3292   .debug_str:0000000000000406 .LASF205
     /tmp/ccx16sTh.s:3364   .debug_str:00000000000005d5 .LASF206
     /tmp/ccx16sTh.s:3210   .debug_str:0000000000000171 .LASF207
     /tmp/ccx16sTh.s:224    .text:00000000000001a4 .LVL15
     /tmp/ccx16sTh.s:236    .text:00000000000001c0 .LVL16
     /tmp/ccx16sTh.s:377    .debug_info:0000000000000000 .Ldebug_info0
     /tmp/ccx16sTh.s:5      .text:0000000000000000 .Ltext0
     /tmp/ccx16sTh.s:368    .text:00000000000001ec .Letext0
     /tmp/ccx16sTh.s:226    .text:00000000000001a4 .LBB2
     /tmp/ccx16sTh.s:239    .text:00000000000001c8 .LBE2
     /tmp/ccx16sTh.s:243    .text:00000000000001c8 .LBB3
     /tmp/ccx16sTh.s:259    .text:00000000000001ec .LBE3
     /tmp/ccx16sTh.s:163    .gcc_except_table:0000000000000000 .LLSDA48

UNDEFINED SYMBOLS
interruptHandler
_ZN15MemoryAllocator19initMemoryAllocatorEv
_Znwm
_ZN9SemaphoreC1Ej
_ZN8KConsole12initKConsoleEv
_Z13thread_createPP3TCBPFvPvES2_
_ZN3TCB7runningE
_Z8userMainv
_Z11thread_joinP3TCB
_ZN8KConsole10outputHeadE
_ZN8KConsole10outputTailE
_ZdlPv
_Unwind_Resume
__gxx_personality_v0
_Z15thread_dispatchv
_ZN8KConsole2drE
_ZN8KConsole20outputBufferHasSpaceE
_Z10sem_signalP4KSem
_ZN8KConsole13getFromOutputEv
_ZN8KConsole2srE
