GAS LISTING /tmp/ccpgP7DY.s 			page 1


   1              		.file	"main.cpp"
   2              		.option pic
   3              		.option norelax
   4              		.text
   5              	.Ltext0:
   6              		.align	2
   7              		.globl	main
   9              	main:
  10              	.LFB48:
  11              		.file 1 "src/main.cpp"
   1:src/main.cpp  **** //#include "../lib/console.h"
   2:src/main.cpp  **** #include "../lib/hw.h"
   3:src/main.cpp  **** #include "../h/helper.hpp"
   4:src/main.cpp  **** #include "../h/Riscv.hpp"
   5:src/main.cpp  **** #include "../h/syscall_c.hpp"
   6:src/main.cpp  **** #include "../h/syscall_cpp.hpp"
   7:src/main.cpp  **** #include "../h/List.hpp"
   8:src/main.cpp  **** //#include "../h/MemoryAllocator.hpp"
   9:src/main.cpp  **** #include "../h/TCB.hpp"
  10:src/main.cpp  **** #include "../h/ThreadQueue.hpp"
  11:src/main.cpp  **** //#include "../h/KSem.hpp"
  12:src/main.cpp  **** #include "../h/KConsole.hpp"
  13:src/main.cpp  **** 
  14:src/main.cpp  **** #include "../test/printing.hpp"
  15:src/main.cpp  **** 
  16:src/main.cpp  **** 
  17:src/main.cpp  **** extern "C" void interruptHandler();
  18:src/main.cpp  **** 
  19:src/main.cpp  **** void userMain();
  20:src/main.cpp  **** 
  21:src/main.cpp  **** void testMemory();
  22:src/main.cpp  **** 
  23:src/main.cpp  **** void nit1f(void*);
  24:src/main.cpp  **** 
  25:src/main.cpp  **** void nit2f(void* arg2);
  26:src/main.cpp  **** 
  27:src/main.cpp  **** void nit3f(void*);
  28:src/main.cpp  **** 
  29:src/main.cpp  **** Semaphore* semA;
  30:src/main.cpp  **** 
  31:src/main.cpp  **** void idle(void*) {
  32:src/main.cpp  **** 	while (1) {thread_dispatch();}
  33:src/main.cpp  **** }
  34:src/main.cpp  **** 
  35:src/main.cpp  **** void kernelConsumerFunction(void*) {
  36:src/main.cpp  **** 	while (1) {
  37:src/main.cpp  **** 		char c = KConsole::getFromOutput();
  38:src/main.cpp  **** 		while (!(*KConsole::sr & CONSOLE_TX_STATUS_BIT)) {}
  39:src/main.cpp  **** 		*KConsole::dr = c;
  40:src/main.cpp  **** 		sem_signal(KConsole::outputBufferHasSpace);
  41:src/main.cpp  **** 	}
  42:src/main.cpp  **** 
  43:src/main.cpp  **** }
  44:src/main.cpp  **** 
  45:src/main.cpp  **** #pragma GCC optimize("O0")
  46:src/main.cpp  **** 
  47:src/main.cpp  **** int main() {
GAS LISTING /tmp/ccpgP7DY.s 			page 2


  12              		.loc 1 47 12
  13              		.cfi_startproc
  14              		.cfi_personality 0x9b,DW.ref.__gxx_personality_v0
  15              		.cfi_lsda 0x1b,.LLSDA48
  16 0000 130101FC 		addi	sp,sp,-64
  17              		.cfi_def_cfa_offset 64
  18 0004 233C1102 		sd	ra,56(sp)
  19 0008 23388102 		sd	s0,48(sp)
  20 000c 23349102 		sd	s1,40(sp)
  21 0010 23302103 		sd	s2,32(sp)
  22              		.cfi_offset 1, -8
  23              		.cfi_offset 8, -16
  24              		.cfi_offset 9, -24
  25              		.cfi_offset 18, -32
  26 0014 13040104 		addi	s0,sp,64
  27              		.cfi_def_cfa 8, 0
  48:src/main.cpp  **** 	//postavi adresu prekidne rutine u stvec
  49:src/main.cpp  **** 	Riscv::w_stvec((uint64)&interruptHandler);
  28              		.loc 1 49 2
  29              		.loc 1 49 16 is_stmt 0
  30 0018 97070000 		la	a5,interruptHandler
  30      83B70700 
  31 0020 13850700 		mv	a0,a5
  32 0024 97000000 		call	_ZN5Riscv7w_stvecEm
  32      E7800000 
  33              	.LVL0:
  50:src/main.cpp  **** 
  51:src/main.cpp  **** 	//sem_open(&semA, 0);
  52:src/main.cpp  **** 	semA = new Semaphore(1);
  34              		.loc 1 52 2 is_stmt 1
  35              		.loc 1 52 24 is_stmt 0
  36 002c 13050001 		li	a0,16
  37              	.LEHB0:
  38 0030 97000000 		call	_Znwm@plt
  38      E7800000 
  39              	.LVL1:
  40              	.LEHE0:
  41 0038 93070500 		mv	a5,a0
  42 003c 93840700 		mv	s1,a5
  43 0040 93051000 		li	a1,1
  44 0044 13850400 		mv	a0,s1
  45              	.LEHB1:
  46 0048 97000000 		call	_ZN9SemaphoreC1Ej@plt
  46      E7800000 
  47              	.LVL2:
  48              	.LEHE1:
  49              		.loc 1 52 7 discriminator 3
  50 0050 97070000 		lla	a5,semA
  50      93870700 
  51 0058 23B09700 		sd	s1,0(a5)
  53:src/main.cpp  **** 
  54:src/main.cpp  **** 	KConsole::initKConsole();
  52              		.loc 1 54 2 is_stmt 1 discriminator 3
  53              	.LEHB2:
  54              		.loc 1 54 24 is_stmt 0 discriminator 3
  55 005c 97000000 		call	_ZN8KConsole12initKConsoleEv@plt
  55      E7800000 
GAS LISTING /tmp/ccpgP7DY.s 			page 3


  56              	.LVL3:
  55:src/main.cpp  **** 
  56:src/main.cpp  **** 
  57:src/main.cpp  **** 
  58:src/main.cpp  **** 
  59:src/main.cpp  **** 	//testiranje alociranja memorije
  60:src/main.cpp  **** 	//testMemory();
  61:src/main.cpp  **** //	uint64* ptr = new uint64;
  62:src/main.cpp  **** //	*ptr = 6;
  63:src/main.cpp  **** //	printInteger(*ptr);
  64:src/main.cpp  **** 
  65:src/main.cpp  **** 	//testiranje liste
  66:src/main.cpp  **** //	List<uint64>* lista = new List<uint64>();
  67:src/main.cpp  **** //	uint64 num = 10;
  68:src/main.cpp  **** //	lista->addFirst(&num);
  69:src/main.cpp  **** //	println("");
  70:src/main.cpp  **** //	printInteger(*(lista->peekFirst()));
  71:src/main.cpp  **** //	delete lista;
  72:src/main.cpp  **** //	println("");
  73:src/main.cpp  **** 
  74:src/main.cpp  **** 	//testiranje kreiranja niti
  75:src/main.cpp  **** //	thread_t glavnaNit = nullptr;
  76:src/main.cpp  **** //	thread_t nit1 = nullptr;
  77:src/main.cpp  **** //	thread_t nit2 = nullptr;
  78:src/main.cpp  **** //	thread_t nit3 = nullptr;
  79:src/main.cpp  **** //	thread_t idleNit = nullptr;
  80:src/main.cpp  **** //	thread_t kernelConsumerThread = nullptr;
  81:src/main.cpp  **** //	thread_create(&glavnaNit, nullptr, nullptr);
  82:src/main.cpp  **** //	TCB::running = glavnaNit;
  83:src/main.cpp  **** //	thread_create(&idleNit, idle, nullptr);
  84:src/main.cpp  **** //	thread_create(&kernelConsumerThread, kernelConsumerFunction, nullptr);
  85:src/main.cpp  **** //
  86:src/main.cpp  **** //
  87:src/main.cpp  **** //	thread_create(&nit1, nit1f, nullptr);
  88:src/main.cpp  **** //	thread_create(&nit2, nit2f, nullptr);
  89:src/main.cpp  **** //	thread_create(&nit3, nit3f, nullptr);
  90:src/main.cpp  **** //
  91:src/main.cpp  **** //	//omoguci prekide
  92:src/main.cpp  **** //	Riscv::ms_sstatus(Riscv::SSTATUS_SIE);
  93:src/main.cpp  **** //
  94:src/main.cpp  **** //	thread_join(nit1);
  95:src/main.cpp  **** //	thread_join(nit2);
  96:src/main.cpp  **** //	thread_join(nit3);
  97:src/main.cpp  **** //	//thread_join(idleNit);
  98:src/main.cpp  **** //
  99:src/main.cpp  **** //	printString("\nGotove user niti\n");
 100:src/main.cpp  **** //
 101:src/main.cpp  **** //	printString("\nSad cu da izadjem\n");
 102:src/main.cpp  **** //	while(KConsole::outputHead!=KConsole::outputTail){}
 103:src/main.cpp  **** //	//zabrani prekide
 104:src/main.cpp  **** //	Riscv::mc_sstatus(Riscv::SSTATUS_SIE);
 105:src/main.cpp  **** 
 106:src/main.cpp  **** 
 107:src/main.cpp  **** //testiranje svega
 108:src/main.cpp  **** 	thread_t mainHandle;
  57              		.loc 1 108 2 is_stmt 1 discriminator 3
 109:src/main.cpp  **** 	thread_t userHandle;
GAS LISTING /tmp/ccpgP7DY.s 			page 4


  58              		.loc 1 109 2 discriminator 3
 110:src/main.cpp  **** 	thread_t idleHandle;
  59              		.loc 1 110 2 discriminator 3
 111:src/main.cpp  **** 	thread_t consoleOutputHandle;
  60              		.loc 1 111 2 discriminator 3
 112:src/main.cpp  **** 	thread_create(&mainHandle, nullptr, nullptr);
  61              		.loc 1 112 2 discriminator 3
  62              		.loc 1 112 15 is_stmt 0 discriminator 3
  63 0064 930784FD 		addi	a5,s0,-40
  64 0068 13060000 		li	a2,0
  65 006c 93050000 		li	a1,0
  66 0070 13850700 		mv	a0,a5
  67 0074 97000000 		call	_Z13thread_createPP3TCBPFvPvES2_@plt
  67      E7800000 
  68              	.LVL4:
 113:src/main.cpp  **** 	TCB::running = mainHandle;
  69              		.loc 1 113 2 is_stmt 1 discriminator 3
  70              		.loc 1 113 15 is_stmt 0 discriminator 3
  71 007c 033784FD 		ld	a4,-40(s0)
  72 0080 97070000 		la	a5,_ZN3TCB7runningE
  72      83B70700 
  73 0088 23B0E700 		sd	a4,0(a5)
 114:src/main.cpp  **** 	thread_create(&idleHandle, idle, nullptr);
  74              		.loc 1 114 2 is_stmt 1 discriminator 3
  75              		.loc 1 114 15 is_stmt 0 discriminator 3
  76 008c 930784FC 		addi	a5,s0,-56
  77 0090 13060000 		li	a2,0
  78 0094 97050000 		lla	a1,_Z4idlePv
  78      93850500 
  79 009c 13850700 		mv	a0,a5
  80 00a0 97000000 		call	_Z13thread_createPP3TCBPFvPvES2_@plt
  80      E7800000 
  81              	.LVL5:
 115:src/main.cpp  **** 	thread_create(&consoleOutputHandle, kernelConsumerFunction, nullptr);
  82              		.loc 1 115 2 is_stmt 1 discriminator 3
  83              		.loc 1 115 15 is_stmt 0 discriminator 3
  84 00a8 930704FC 		addi	a5,s0,-64
  85 00ac 13060000 		li	a2,0
  86 00b0 97050000 		lla	a1,_Z22kernelConsumerFunctionPv
  86      93850500 
  87 00b8 13850700 		mv	a0,a5
  88 00bc 97000000 		call	_Z13thread_createPP3TCBPFvPvES2_@plt
  88      E7800000 
  89              	.LVL6:
 116:src/main.cpp  **** 	thread_create(&userHandle, (TCB::Body)userMain, nullptr);
  90              		.loc 1 116 2 is_stmt 1 discriminator 3
  91              		.loc 1 116 15 is_stmt 0 discriminator 3
  92 00c4 930704FD 		addi	a5,s0,-48
  93 00c8 13060000 		li	a2,0
  94 00cc 97050000 		la	a1,_Z8userMainv
  94      83B50500 
  95 00d4 13850700 		mv	a0,a5
  96 00d8 97000000 		call	_Z13thread_createPP3TCBPFvPvES2_@plt
  96      E7800000 
  97              	.LVL7:
 117:src/main.cpp  **** 
 118:src/main.cpp  **** 	Riscv::ms_sstatus(Riscv::SSTATUS_SIE);
GAS LISTING /tmp/ccpgP7DY.s 			page 5


  98              		.loc 1 118 2 is_stmt 1 discriminator 3
  99              		.loc 1 118 19 is_stmt 0 discriminator 3
 100 00e0 13052000 		li	a0,2
 101 00e4 97000000 		call	_ZN5Riscv10ms_sstatusEm
 101      E7800000 
 102              	.LVL8:
 119:src/main.cpp  **** 	thread_join(userHandle);
 103              		.loc 1 119 2 is_stmt 1 discriminator 3
 104              		.loc 1 119 13 is_stmt 0 discriminator 3
 105 00ec 833704FD 		ld	a5,-48(s0)
 106 00f0 13850700 		mv	a0,a5
 107 00f4 97000000 		call	_Z11thread_joinP3TCB@plt
 107      E7800000 
 108              	.LVL9:
 109              	.L3:
 120:src/main.cpp  **** 	//printString("\nSad cu da izadjem\n");
 121:src/main.cpp  **** 	while(KConsole::outputHead!=KConsole::outputTail){}
 110              		.loc 1 121 2 is_stmt 1
 111              		.loc 1 121 28
 112 00fc 97070000 		la	a5,_ZN8KConsole10outputHeadE
 112      83B70700 
 113 0104 03A70700 		lw	a4,0(a5)
 114 0108 97070000 		la	a5,_ZN8KConsole10outputTailE
 114      83B70700 
 115 0110 83A70700 		lw	a5,0(a5)
 116 0114 6304F700 		beq	a4,a5,.L2
 117              		.loc 1 121 2 is_stmt 0
 118 0118 6FF05FFE 		j	.L3
 119              	.L2:
 122:src/main.cpp  **** 	Riscv::mc_sstatus(Riscv::SSTATUS_SIE);
 120              		.loc 1 122 2 is_stmt 1
 121              		.loc 1 122 19 is_stmt 0
 122 011c 13052000 		li	a0,2
 123 0120 97000000 		call	_ZN5Riscv10mc_sstatusEm
 123      E7800000 
 124              	.LVL10:
 123:src/main.cpp  **** 	return 0;
 125              		.loc 1 123 2 is_stmt 1
 126              		.loc 1 123 9 is_stmt 0
 127 0128 93070000 		li	a5,0
 128 012c 6F004002 		j	.L7
 129              	.L6:
 130 0130 13090500 		mv	s2,a0
  52:src/main.cpp  **** 
 131              		.loc 1 52 24
 132 0134 13850400 		mv	a0,s1
 133 0138 97000000 		call	_ZdlPv@plt
 133      E7800000 
 134              	.LVL11:
 135 0140 93070900 		mv	a5,s2
 136 0144 13850700 		mv	a0,a5
 137 0148 97000000 		call	_Unwind_Resume@plt
 137      E7800000 
 138              	.LVL12:
 139              	.LEHE2:
 140              	.L7:
 124:src/main.cpp  **** }...
GAS LISTING /tmp/ccpgP7DY.s 			page 6


 141              		.loc 1 124 1
 142 0150 13850700 		mv	a0,a5
 143 0154 83308103 		ld	ra,56(sp)
 144              		.cfi_restore 1
 145 0158 03340103 		ld	s0,48(sp)
 146              		.cfi_restore 8
 147              		.cfi_def_cfa 2, 64
 148 015c 83348102 		ld	s1,40(sp)
 149              		.cfi_restore 9
 150 0160 03390102 		ld	s2,32(sp)
 151              		.cfi_restore 18
 152 0164 13010104 		addi	sp,sp,64
 153              		.cfi_def_cfa_offset 0
 154 0168 67800000 		jr	ra
 155              		.cfi_endproc
 156              	.LFE48:
 157              		.globl	__gxx_personality_v0
 158              		.section	.gcc_except_table,"a",@progbits
 159              	.LLSDA48:
 160 0000 FF       		.byte	0xff
 161 0001 FF       		.byte	0xff
 162 0002 03       		.byte	0x3
 163 0003 27       		.byte	0x27
 164 0004 00000000 		.4byte	.LEHB0-.LFB48
 165 0008 00000000 		.4byte	.LEHE0-.LEHB0
 166 000c 00000000 		.4byte	0
 167 0010 00       		.byte	0
 168 0011 00000000 		.4byte	.LEHB1-.LFB48
 169 0015 00000000 		.4byte	.LEHE1-.LEHB1
 170 0019 00000000 		.4byte	.L6-.LFB48
 171 001d 00       		.byte	0
 172 001e 00000000 		.4byte	.LEHB2-.LFB48
 173 0022 00000000 		.4byte	.LEHE2-.LEHB2
 174 0026 00000000 		.4byte	0
 175 002a 00       		.byte	0
 176              		.text
 178              		.align	2
 179              		.globl	_Z4idlePv
 181              	_Z4idlePv:
 182              	.LFB46:
  31:src/main.cpp  **** void idle(void*) {
 183              		.loc 1 31 18 is_stmt 1
 184              		.cfi_startproc
 185 016c 130101FF 		addi	sp,sp,-16
 186              		.cfi_def_cfa_offset 16
 187 0170 23341100 		sd	ra,8(sp)
 188 0174 23308100 		sd	s0,0(sp)
 189              		.cfi_offset 1, -8
 190              		.cfi_offset 8, -16
 191 0178 13040101 		addi	s0,sp,16
 192              		.cfi_def_cfa 8, 0
 193              	.L9:
  32:src/main.cpp  **** 	while (1) {thread_dispatch();}
 194              		.loc 1 32 2 discriminator 1
  32:src/main.cpp  **** 	while (1) {thread_dispatch();}
 195              		.loc 1 32 13 discriminator 1
  32:src/main.cpp  **** 	while (1) {thread_dispatch();}
GAS LISTING /tmp/ccpgP7DY.s 			page 7


 196              		.loc 1 32 28 is_stmt 0 discriminator 1
 197 017c 97000000 		call	_Z15thread_dispatchv@plt
 197      E7800000 
 198              	.LVL13:
  32:src/main.cpp  **** 	while (1) {thread_dispatch();}
 199              		.loc 1 32 2 is_stmt 1 discriminator 1
 200 0184 6FF09FFF 		j	.L9
 201              		.cfi_endproc
 202              	.LFE46:
 204              		.align	2
 205              		.globl	_Z22kernelConsumerFunctionPv
 207              	_Z22kernelConsumerFunctionPv:
 208              	.LFB47:
  35:src/main.cpp  **** void kernelConsumerFunction(void*) {
 209              		.loc 1 35 36
 210              		.cfi_startproc
 211 0188 130101FF 		addi	sp,sp,-16
 212              		.cfi_def_cfa_offset 16
 213 018c 23341100 		sd	ra,8(sp)
 214 0190 23308100 		sd	s0,0(sp)
 215              		.cfi_offset 1, -8
 216              		.cfi_offset 8, -16
 217 0194 13040101 		addi	s0,sp,16
 218              		.cfi_def_cfa 8, 0
 219 0198 6F008002 		j	.L13
 220              	.LVL14:
 221              	.L15:
 222              	.LBB2:
  39:src/main.cpp  **** 		*KConsole::dr = c;
 223              		.loc 1 39 3
 224 019c 97070000 		la	a5,_ZN8KConsole2drE
 224      83B70700 
 225 01a4 83B70700 		ld	a5,0(a5)
  39:src/main.cpp  **** 		*KConsole::dr = c;
 226              		.loc 1 39 17 is_stmt 0
 227 01a8 2380A700 		sb	a0,0(a5)
  40:src/main.cpp  **** 		sem_signal(KConsole::outputBufferHasSpace);
 228              		.loc 1 40 3 is_stmt 1
  40:src/main.cpp  **** 		sem_signal(KConsole::outputBufferHasSpace);
 229              		.loc 1 40 13 is_stmt 0
 230 01ac 97070000 		la	a5,_ZN8KConsole20outputBufferHasSpaceE
 230      83B70700 
 231 01b4 03B50700 		ld	a0,0(a5)
 232              	.LVL15:
 233 01b8 97000000 		call	_Z10sem_signalP4KSem@plt
 233      E7800000 
 234              	.LVL16:
 235              	.LBE2:
  36:src/main.cpp  **** 	while (1) {
 236              		.loc 1 36 2 is_stmt 1
 237              	.L13:
  36:src/main.cpp  **** 	while (1) {
 238              		.loc 1 36 2
 239              	.LBB3:
  37:src/main.cpp  **** 		char c = KConsole::getFromOutput();
 240              		.loc 1 37 3
  37:src/main.cpp  **** 		char c = KConsole::getFromOutput();
GAS LISTING /tmp/ccpgP7DY.s 			page 8


 241              		.loc 1 37 35 is_stmt 0
 242 01c0 97000000 		call	_ZN8KConsole13getFromOutputEv@plt
 242      E7800000 
 243              	.LVL17:
 244              	.L12:
  38:src/main.cpp  **** 		while (!(*KConsole::sr & CONSOLE_TX_STATUS_BIT)) {}
 245              		.loc 1 38 3 is_stmt 1
  38:src/main.cpp  **** 		while (!(*KConsole::sr & CONSOLE_TX_STATUS_BIT)) {}
 246              		.loc 1 38 10
  38:src/main.cpp  **** 		while (!(*KConsole::sr & CONSOLE_TX_STATUS_BIT)) {}
 247              		.loc 1 38 12 is_stmt 0
 248 01c8 97070000 		la	a5,_ZN8KConsole2srE
 248      83B70700 
 249 01d0 83B70700 		ld	a5,0(a5)
 250 01d4 83C70700 		lbu	a5,0(a5)
  38:src/main.cpp  **** 		while (!(*KConsole::sr & CONSOLE_TX_STATUS_BIT)) {}
 251              		.loc 1 38 10
 252 01d8 93F70702 		andi	a5,a5,32
 253 01dc E38607FE 		beqz	a5,.L12
 254 01e0 6FF0DFFB 		j	.L15
 255              	.LBE3:
 256              		.cfi_endproc
 257              	.LFE47:
 259              		.section	.text._ZN5Riscv7w_stvecEm,"axG",@progbits,_ZN5Riscv7w_stvecEm,comdat
 260              		.align	2
 261              		.weak	_ZN5Riscv7w_stvecEm
 263              	_ZN5Riscv7w_stvecEm:
 264              	.LFB5:
 265              		.file 2 "src/../h/Riscv.hpp"
   1:src/../h/Riscv.hpp **** //
   2:src/../h/Riscv.hpp **** // Created by os on 5/17/23.
   3:src/../h/Riscv.hpp **** //
   4:src/../h/Riscv.hpp **** 
   5:src/../h/Riscv.hpp **** #ifndef PROJEKAT2023_RISCV_HPP
   6:src/../h/Riscv.hpp **** #define PROJEKAT2023_RISCV_HPP
   7:src/../h/Riscv.hpp **** 
   8:src/../h/Riscv.hpp **** #include "../lib/hw.h"
   9:src/../h/Riscv.hpp **** 
  10:src/../h/Riscv.hpp **** class Riscv {
  11:src/../h/Riscv.hpp **** public:
  12:src/../h/Riscv.hpp **** 
  13:src/../h/Riscv.hpp **** 	static void popSppSpie();
  14:src/../h/Riscv.hpp **** 
  15:src/../h/Riscv.hpp **** 	//stavljanje registara x3-x31 na stek
  16:src/../h/Riscv.hpp **** 	static void pushRegisters();    //implementacija u asm
  17:src/../h/Riscv.hpp **** 
  18:src/../h/Riscv.hpp **** 	//skidanje registara x3-x31 sa steka
  19:src/../h/Riscv.hpp **** 	static void popRegisters();     //implementacija u asm
  20:src/../h/Riscv.hpp **** 
  21:src/../h/Riscv.hpp **** 	//read scause
  22:src/../h/Riscv.hpp **** 	static uint64 r_scause();
  23:src/../h/Riscv.hpp **** 
  24:src/../h/Riscv.hpp **** 	//write scause
  25:src/../h/Riscv.hpp **** 	static void w_scause(uint64 scause);
  26:src/../h/Riscv.hpp **** 
  27:src/../h/Riscv.hpp **** 	//read sepc
  28:src/../h/Riscv.hpp **** 	static uint64 r_sepc();
GAS LISTING /tmp/ccpgP7DY.s 			page 9


  29:src/../h/Riscv.hpp **** 
  30:src/../h/Riscv.hpp **** 	//write sepc
  31:src/../h/Riscv.hpp **** 	static void w_sepc(uint64 sepc);
  32:src/../h/Riscv.hpp **** 
  33:src/../h/Riscv.hpp **** 	//read stvec
  34:src/../h/Riscv.hpp **** 	static uint64 r_stvec();
  35:src/../h/Riscv.hpp **** 
  36:src/../h/Riscv.hpp **** 	//write stvec
  37:src/../h/Riscv.hpp **** 	static void w_stvec(uint64 stvec);
  38:src/../h/Riscv.hpp **** 
  39:src/../h/Riscv.hpp **** 	enum BitMaskSip {
  40:src/../h/Riscv.hpp **** 		//postoji zahtev za softverski prekid
  41:src/../h/Riscv.hpp **** 		SIP_SSIP = (1 << 1),
  42:src/../h/Riscv.hpp **** 		//postoji prekid od tajmera
  43:src/../h/Riscv.hpp **** 		SIP_STIP = (1 << 5),
  44:src/../h/Riscv.hpp **** 		//postoji zahtev za spoljasnji hardverski prekid
  45:src/../h/Riscv.hpp **** 		SIP_SEIP = (1 << 9)
  46:src/../h/Riscv.hpp **** 	};
  47:src/../h/Riscv.hpp **** 
  48:src/../h/Riscv.hpp **** 	//mask set sip
  49:src/../h/Riscv.hpp **** 	static void ms_sip(uint64 mask);
  50:src/../h/Riscv.hpp **** 
  51:src/../h/Riscv.hpp **** 	//mask clear sip
  52:src/../h/Riscv.hpp **** 	static void mc_sip(uint64 mask);
  53:src/../h/Riscv.hpp **** 
  54:src/../h/Riscv.hpp **** 	//read sip
  55:src/../h/Riscv.hpp **** 	static uint64 r_sip();
  56:src/../h/Riscv.hpp **** 
  57:src/../h/Riscv.hpp **** 	//write sip
  58:src/../h/Riscv.hpp **** 	static void w_sip(uint64 sip);
  59:src/../h/Riscv.hpp **** 
  60:src/../h/Riscv.hpp **** 	//kada se pozove sret, SIE dobija vrednost SPIE, SPIE se postavlja na 1,
  61:src/../h/Riscv.hpp **** 	//rezim se postavlja na osnovu SPP bita, SPP se postavlja na 0
  62:src/../h/Riscv.hpp **** 	enum BitMaskSstatus {
  63:src/../h/Riscv.hpp **** 		//1 - dozvoljeni prekidi; 0- nedozvoljeni prekidi; igonrise se u korisnickom rezimu
  64:src/../h/Riscv.hpp **** 		SSTATUS_SIE = (1 << 1),
  65:src/../h/Riscv.hpp **** 		//prethodna vrednost bita SIE
  66:src/../h/Riscv.hpp **** 		SSTATUS_SPIE = (1 << 5),
  67:src/../h/Riscv.hpp **** 		//iz kog rezima se desio skok; 0 - iz korisnickog; 1 - iz sistemskog
  68:src/../h/Riscv.hpp **** 		SSTATUS_SPP = (1 << 8)
  69:src/../h/Riscv.hpp **** 	};
  70:src/../h/Riscv.hpp **** 
  71:src/../h/Riscv.hpp **** 	//mask set sstatus
  72:src/../h/Riscv.hpp **** 	static void ms_sstatus(uint64 mask);
  73:src/../h/Riscv.hpp **** 
  74:src/../h/Riscv.hpp **** 	//mask clear sstatus
  75:src/../h/Riscv.hpp **** 	static void mc_sstatus(uint64 mask);
  76:src/../h/Riscv.hpp **** 
  77:src/../h/Riscv.hpp **** 	//read sstatus
  78:src/../h/Riscv.hpp **** 	static uint64 r_sstatus();
  79:src/../h/Riscv.hpp **** 
  80:src/../h/Riscv.hpp **** 	//write sstatus
  81:src/../h/Riscv.hpp **** 	static void w_sstatus(uint64 sstatus);
  82:src/../h/Riscv.hpp **** 
  83:src/../h/Riscv.hpp **** 	//upisuje kod sistemskog poziva u registar a0
  84:src/../h/Riscv.hpp **** 	static void loadOpCode(uint64 opCode);
  85:src/../h/Riscv.hpp **** 
GAS LISTING /tmp/ccpgP7DY.s 			page 10


  86:src/../h/Riscv.hpp **** };
  87:src/../h/Riscv.hpp **** 
  88:src/../h/Riscv.hpp **** inline uint64 Riscv::r_scause() {
  89:src/../h/Riscv.hpp **** 	uint64 volatile scause;
  90:src/../h/Riscv.hpp **** 	__asm__ volatile("csrr %[scause], scause": [scause] "=r"(scause));
  91:src/../h/Riscv.hpp **** 	return scause;
  92:src/../h/Riscv.hpp **** }
  93:src/../h/Riscv.hpp **** 
  94:src/../h/Riscv.hpp **** inline void Riscv::w_scause(uint64 scause) {
  95:src/../h/Riscv.hpp **** 	__asm__ volatile("csrw scause, %[scause]": :[scause] "r"(scause));
  96:src/../h/Riscv.hpp **** }
  97:src/../h/Riscv.hpp **** 
  98:src/../h/Riscv.hpp **** inline uint64 Riscv::r_sepc() {
  99:src/../h/Riscv.hpp **** 	uint64 volatile sepc;
 100:src/../h/Riscv.hpp **** 	__asm__ volatile("csrr %[sepc], sepc": [sepc] "=r"(sepc));
 101:src/../h/Riscv.hpp **** 	return sepc;
 102:src/../h/Riscv.hpp **** }
 103:src/../h/Riscv.hpp **** 
 104:src/../h/Riscv.hpp **** inline void Riscv::w_sepc(uint64 sepc) {
 105:src/../h/Riscv.hpp **** 	__asm__ volatile("csrw sepc, %[sepc]": :[sepc] "r"(sepc));
 106:src/../h/Riscv.hpp **** }
 107:src/../h/Riscv.hpp **** 
 108:src/../h/Riscv.hpp **** inline uint64 Riscv::r_stvec() {
 109:src/../h/Riscv.hpp **** 	uint64 volatile stvec;
 110:src/../h/Riscv.hpp **** 	__asm__ volatile("csrr %[stvec], stvec": [stvec] "=r"(stvec));
 111:src/../h/Riscv.hpp **** 	return stvec;
 112:src/../h/Riscv.hpp **** }
 113:src/../h/Riscv.hpp **** 
 114:src/../h/Riscv.hpp **** inline void Riscv::w_stvec(uint64 stvec) {
 266              		.loc 2 114 42 is_stmt 1
 267              		.cfi_startproc
 268              	.LVL18:
 269 0000 130101FF 		addi	sp,sp,-16
 270              		.cfi_def_cfa_offset 16
 271 0004 23348100 		sd	s0,8(sp)
 272              		.cfi_offset 8, -8
 273 0008 13040101 		addi	s0,sp,16
 274              		.cfi_def_cfa 8, 0
 115:src/../h/Riscv.hpp **** 	__asm__ volatile("csrw stvec, %[stvec]": :[stvec] "r"(stvec));
 275              		.loc 2 115 2
 276              		.loc 2 115 63 is_stmt 0
 277              	#APP
 278              	# 115 "src/../h/Riscv.hpp" 1
 116              	}
 279              		csrw stvec, a0
 280              	# 0 "" 2
 281              		.loc 2 116 1
 282              	#NO_APP
 283 0010 03348100 		ld	s0,8(sp)
 284              		.cfi_restore 8
 285              		.cfi_def_cfa 2, 16
 286 0014 13010101 		addi	sp,sp,16
 287              		.cfi_def_cfa_offset 0
 288 0018 67800000 		jr	ra
 289              		.cfi_endproc
 290              	.LFE5:
 292              		.section	.text._ZN5Riscv10ms_sstatusEm,"axG",@progbits,_ZN5Riscv10ms_sstatusEm,comdat
GAS LISTING /tmp/ccpgP7DY.s 			page 11


 293              		.align	2
 294              		.weak	_ZN5Riscv10ms_sstatusEm
 296              	_ZN5Riscv10ms_sstatusEm:
 297              	.LFB10:
 117:src/../h/Riscv.hpp **** 
 118:src/../h/Riscv.hpp **** inline void Riscv::ms_sip(uint64 mask) {
 119:src/../h/Riscv.hpp **** 	__asm__ volatile("csrs sip, %[mask]": :[mask] "r"(mask));
 120:src/../h/Riscv.hpp **** }
 121:src/../h/Riscv.hpp **** 
 122:src/../h/Riscv.hpp **** inline void Riscv::mc_sip(uint64 mask) {
 123:src/../h/Riscv.hpp **** 	__asm__ volatile("csrc sip, %[mask]": :[mask] "r"(mask));
 124:src/../h/Riscv.hpp **** }
 125:src/../h/Riscv.hpp **** 
 126:src/../h/Riscv.hpp **** inline uint64 Riscv::r_sip() {
 127:src/../h/Riscv.hpp **** 	uint64 volatile sip;
 128:src/../h/Riscv.hpp **** 	__asm__ volatile("csrr %[sip], sip": [sip] "=r"(sip));
 129:src/../h/Riscv.hpp **** 	return sip;
 130:src/../h/Riscv.hpp **** }
 131:src/../h/Riscv.hpp **** 
 132:src/../h/Riscv.hpp **** inline void Riscv::w_sip(uint64 sip) {
 133:src/../h/Riscv.hpp **** 	__asm__ volatile("csrw sip, %[sip]": :[sip] "r"(sip));
 134:src/../h/Riscv.hpp **** }
 135:src/../h/Riscv.hpp **** 
 136:src/../h/Riscv.hpp **** inline void Riscv::ms_sstatus(uint64 mask) {
 298              		.loc 2 136 44 is_stmt 1
 299              		.cfi_startproc
 300              	.LVL19:
 301 0000 130101FF 		addi	sp,sp,-16
 302              		.cfi_def_cfa_offset 16
 303 0004 23348100 		sd	s0,8(sp)
 304              		.cfi_offset 8, -8
 305 0008 13040101 		addi	s0,sp,16
 306              		.cfi_def_cfa 8, 0
 137:src/../h/Riscv.hpp **** 	__asm__ volatile("csrs sstatus, %[mask]": :[mask] "r"(mask));
 307              		.loc 2 137 2
 308              		.loc 2 137 62 is_stmt 0
 309              	#APP
 310              	# 137 "src/../h/Riscv.hpp" 1
 138              	}
 311              		csrs sstatus, a0
 312              	# 0 "" 2
 313              		.loc 2 138 1
 314              	#NO_APP
 315 0010 03348100 		ld	s0,8(sp)
 316              		.cfi_restore 8
 317              		.cfi_def_cfa 2, 16
 318 0014 13010101 		addi	sp,sp,16
 319              		.cfi_def_cfa_offset 0
 320 0018 67800000 		jr	ra
 321              		.cfi_endproc
 322              	.LFE10:
 324              		.section	.text._ZN5Riscv10mc_sstatusEm,"axG",@progbits,_ZN5Riscv10mc_sstatusEm,comdat
 325              		.align	2
 326              		.weak	_ZN5Riscv10mc_sstatusEm
 328              	_ZN5Riscv10mc_sstatusEm:
 329              	.LFB11:
 139:src/../h/Riscv.hpp **** 
GAS LISTING /tmp/ccpgP7DY.s 			page 12


 140:src/../h/Riscv.hpp **** inline void Riscv::mc_sstatus(uint64 mask) {
 330              		.loc 2 140 44 is_stmt 1
 331              		.cfi_startproc
 332              	.LVL20:
 333 0000 130101FF 		addi	sp,sp,-16
 334              		.cfi_def_cfa_offset 16
 335 0004 23348100 		sd	s0,8(sp)
 336              		.cfi_offset 8, -8
 337 0008 13040101 		addi	s0,sp,16
 338              		.cfi_def_cfa 8, 0
 141:src/../h/Riscv.hpp **** 	__asm__ volatile("csrc sstatus, %[mask]": :[mask] "r"(mask));
 339              		.loc 2 141 2
 340              		.loc 2 141 62 is_stmt 0
 341              	#APP
 342              	# 141 "src/../h/Riscv.hpp" 1
 142              	}
 343              		csrc sstatus, a0
 344              	# 0 "" 2
 345              		.loc 2 142 1
 346              	#NO_APP
 347 0010 03348100 		ld	s0,8(sp)
 348              		.cfi_restore 8
 349              		.cfi_def_cfa 2, 16
 350 0014 13010101 		addi	sp,sp,16
 351              		.cfi_def_cfa_offset 0
 352 0018 67800000 		jr	ra
 353              		.cfi_endproc
 354              	.LFE11:
 356              		.globl	semA
 357              		.bss
 358              		.align	3
 361              	semA:
 362 0000 00000000 		.zero	8
 362      00000000 
 363              		.text
 364              	.Letext0:
 365              		.file 3 "src/../lib/hw.h"
 366              		.file 4 "src/../h/syscall_c.hpp"
 367              		.file 5 "src/../h/TCB.hpp"
 368              		.file 6 "src/../h/../h/ThreadQueue.hpp"
 369              		.file 7 "src/../h/KConsole.hpp"
 370              		.file 8 "src/../h/syscall_cpp.hpp"
 3294              		.align	3
 3297              	DW.ref.__gxx_personality_v0:
 3298 0000 00000000 		.dword	__gxx_personality_v0
 3298      00000000 
 3299              		.ident	"GCC: (Ubuntu 9.4.0-1ubuntu1~20.04) 9.4.0"
 3300              		.section	.note.GNU-stack,"",@progbits
GAS LISTING /tmp/ccpgP7DY.s 			page 13


DEFINED SYMBOLS
                            *ABS*:0000000000000000 main.cpp
     /tmp/ccpgP7DY.s:9      .text:0000000000000000 main
     /tmp/ccpgP7DY.s:13     .text:0000000000000000 .L0 
     /tmp/ccpgP7DY.s:3297   .data.rel.local.DW.ref.__gxx_personality_v0:0000000000000000 DW.ref.__gxx_personality_v0
     /tmp/ccpgP7DY.s:16     .text:0000000000000000 .L0 
     /tmp/ccpgP7DY.s:17     .text:0000000000000004 .L0 
     /tmp/ccpgP7DY.s:22     .text:0000000000000014 .L0 
     /tmp/ccpgP7DY.s:23     .text:0000000000000014 .L0 
     /tmp/ccpgP7DY.s:24     .text:0000000000000014 .L0 
     /tmp/ccpgP7DY.s:25     .text:0000000000000014 .L0 
     /tmp/ccpgP7DY.s:27     .text:0000000000000018 .L0 
     /tmp/ccpgP7DY.s:29     .text:0000000000000018 .L0 
     /tmp/ccpgP7DY.s:30     .text:0000000000000018 .L0 
     /tmp/ccpgP7DY.s:263    .text._ZN5Riscv7w_stvecEm:0000000000000000 _ZN5Riscv7w_stvecEm
     /tmp/ccpgP7DY.s:35     .text:000000000000002c .L0 
     /tmp/ccpgP7DY.s:36     .text:000000000000002c .L0 
     /tmp/ccpgP7DY.s:361    .bss:0000000000000000 semA
     /tmp/ccpgP7DY.s:50     .text:0000000000000050 .L0 
     /tmp/ccpgP7DY.s:54     .text:000000000000005c .L0 
     /tmp/ccpgP7DY.s:55     .text:000000000000005c .L0 
     /tmp/ccpgP7DY.s:58     .text:0000000000000064 .L0 
     /tmp/ccpgP7DY.s:59     .text:0000000000000064 .L0 
     /tmp/ccpgP7DY.s:60     .text:0000000000000064 .L0 
     /tmp/ccpgP7DY.s:61     .text:0000000000000064 .L0 
     /tmp/ccpgP7DY.s:62     .text:0000000000000064 .L0 
     /tmp/ccpgP7DY.s:63     .text:0000000000000064 .L0 
     /tmp/ccpgP7DY.s:70     .text:000000000000007c .L0 
     /tmp/ccpgP7DY.s:71     .text:000000000000007c .L0 
     /tmp/ccpgP7DY.s:75     .text:000000000000008c .L0 
     /tmp/ccpgP7DY.s:76     .text:000000000000008c .L0 
     /tmp/ccpgP7DY.s:181    .text:000000000000016c _Z4idlePv
     /tmp/ccpgP7DY.s:83     .text:00000000000000a8 .L0 
     /tmp/ccpgP7DY.s:84     .text:00000000000000a8 .L0 
     /tmp/ccpgP7DY.s:207    .text:0000000000000188 _Z22kernelConsumerFunctionPv
     /tmp/ccpgP7DY.s:91     .text:00000000000000c4 .L0 
     /tmp/ccpgP7DY.s:92     .text:00000000000000c4 .L0 
     /tmp/ccpgP7DY.s:99     .text:00000000000000e0 .L0 
     /tmp/ccpgP7DY.s:100    .text:00000000000000e0 .L0 
     /tmp/ccpgP7DY.s:296    .text._ZN5Riscv10ms_sstatusEm:0000000000000000 _ZN5Riscv10ms_sstatusEm
     /tmp/ccpgP7DY.s:104    .text:00000000000000ec .L0 
     /tmp/ccpgP7DY.s:105    .text:00000000000000ec .L0 
     /tmp/ccpgP7DY.s:111    .text:00000000000000fc .L0 
     /tmp/ccpgP7DY.s:112    .text:00000000000000fc .L0 
     /tmp/ccpgP7DY.s:118    .text:0000000000000118 .L0 
     /tmp/ccpgP7DY.s:121    .text:000000000000011c .L0 
     /tmp/ccpgP7DY.s:122    .text:000000000000011c .L0 
     /tmp/ccpgP7DY.s:328    .text._ZN5Riscv10mc_sstatusEm:0000000000000000 _ZN5Riscv10mc_sstatusEm
     /tmp/ccpgP7DY.s:126    .text:0000000000000128 .L0 
     /tmp/ccpgP7DY.s:127    .text:0000000000000128 .L0 
     /tmp/ccpgP7DY.s:132    .text:0000000000000134 .L0 
     /tmp/ccpgP7DY.s:142    .text:0000000000000150 .L0 
     /tmp/ccpgP7DY.s:144    .text:0000000000000158 .L0 
     /tmp/ccpgP7DY.s:146    .text:000000000000015c .L0 
     /tmp/ccpgP7DY.s:147    .text:000000000000015c .L0 
     /tmp/ccpgP7DY.s:149    .text:0000000000000160 .L0 
     /tmp/ccpgP7DY.s:151    .text:0000000000000164 .L0 
GAS LISTING /tmp/ccpgP7DY.s 			page 14


     /tmp/ccpgP7DY.s:153    .text:0000000000000168 .L0 
     /tmp/ccpgP7DY.s:155    .text:000000000000016c .L0 
     /tmp/ccpgP7DY.s:184    .text:000000000000016c .L0 
     /tmp/ccpgP7DY.s:185    .text:000000000000016c .L0 
     /tmp/ccpgP7DY.s:186    .text:0000000000000170 .L0 
     /tmp/ccpgP7DY.s:189    .text:0000000000000178 .L0 
     /tmp/ccpgP7DY.s:190    .text:0000000000000178 .L0 
     /tmp/ccpgP7DY.s:192    .text:000000000000017c .L0 
     /tmp/ccpgP7DY.s:195    .text:000000000000017c .L0 
     /tmp/ccpgP7DY.s:196    .text:000000000000017c .L0 
     /tmp/ccpgP7DY.s:197    .text:000000000000017c .L0 
     /tmp/ccpgP7DY.s:200    .text:0000000000000184 .L0 
     /tmp/ccpgP7DY.s:201    .text:0000000000000188 .L0 
     /tmp/ccpgP7DY.s:210    .text:0000000000000188 .L0 
     /tmp/ccpgP7DY.s:211    .text:0000000000000188 .L0 
     /tmp/ccpgP7DY.s:212    .text:000000000000018c .L0 
     /tmp/ccpgP7DY.s:215    .text:0000000000000194 .L0 
     /tmp/ccpgP7DY.s:216    .text:0000000000000194 .L0 
     /tmp/ccpgP7DY.s:218    .text:0000000000000198 .L0 
     /tmp/ccpgP7DY.s:224    .text:000000000000019c .L0 
     /tmp/ccpgP7DY.s:227    .text:00000000000001a8 .L0 
     /tmp/ccpgP7DY.s:229    .text:00000000000001ac .L0 
     /tmp/ccpgP7DY.s:230    .text:00000000000001ac .L0 
     /tmp/ccpgP7DY.s:238    .text:00000000000001c0 .L0 
     /tmp/ccpgP7DY.s:240    .text:00000000000001c0 .L0 
     /tmp/ccpgP7DY.s:241    .text:00000000000001c0 .L0 
     /tmp/ccpgP7DY.s:242    .text:00000000000001c0 .L0 
     /tmp/ccpgP7DY.s:246    .text:00000000000001c8 .L0 
     /tmp/ccpgP7DY.s:247    .text:00000000000001c8 .L0 
     /tmp/ccpgP7DY.s:248    .text:00000000000001c8 .L0 
     /tmp/ccpgP7DY.s:252    .text:00000000000001d8 .L0 
     /tmp/ccpgP7DY.s:256    .text:00000000000001e4 .L0 
     /tmp/ccpgP7DY.s:267    .text._ZN5Riscv7w_stvecEm:0000000000000000 .L0 
     /tmp/ccpgP7DY.s:269    .text._ZN5Riscv7w_stvecEm:0000000000000000 .L0 
     /tmp/ccpgP7DY.s:270    .text._ZN5Riscv7w_stvecEm:0000000000000004 .L0 
     /tmp/ccpgP7DY.s:272    .text._ZN5Riscv7w_stvecEm:0000000000000008 .L0 
     /tmp/ccpgP7DY.s:274    .text._ZN5Riscv7w_stvecEm:000000000000000c .L0 
     /tmp/ccpgP7DY.s:276    .text._ZN5Riscv7w_stvecEm:000000000000000c .L0 
  src/../h/Riscv.hpp:115    .text._ZN5Riscv7w_stvecEm:000000000000000c .L0 
     /tmp/ccpgP7DY.s:283    .text._ZN5Riscv7w_stvecEm:0000000000000010 .L0 
     /tmp/ccpgP7DY.s:284    .text._ZN5Riscv7w_stvecEm:0000000000000014 .L0 
     /tmp/ccpgP7DY.s:285    .text._ZN5Riscv7w_stvecEm:0000000000000014 .L0 
     /tmp/ccpgP7DY.s:287    .text._ZN5Riscv7w_stvecEm:0000000000000018 .L0 
     /tmp/ccpgP7DY.s:289    .text._ZN5Riscv7w_stvecEm:000000000000001c .L0 
     /tmp/ccpgP7DY.s:299    .text._ZN5Riscv10ms_sstatusEm:0000000000000000 .L0 
     /tmp/ccpgP7DY.s:301    .text._ZN5Riscv10ms_sstatusEm:0000000000000000 .L0 
     /tmp/ccpgP7DY.s:302    .text._ZN5Riscv10ms_sstatusEm:0000000000000004 .L0 
     /tmp/ccpgP7DY.s:304    .text._ZN5Riscv10ms_sstatusEm:0000000000000008 .L0 
     /tmp/ccpgP7DY.s:306    .text._ZN5Riscv10ms_sstatusEm:000000000000000c .L0 
     /tmp/ccpgP7DY.s:308    .text._ZN5Riscv10ms_sstatusEm:000000000000000c .L0 
  src/../h/Riscv.hpp:137    .text._ZN5Riscv10ms_sstatusEm:000000000000000c .L0 
     /tmp/ccpgP7DY.s:315    .text._ZN5Riscv10ms_sstatusEm:0000000000000010 .L0 
     /tmp/ccpgP7DY.s:316    .text._ZN5Riscv10ms_sstatusEm:0000000000000014 .L0 
     /tmp/ccpgP7DY.s:317    .text._ZN5Riscv10ms_sstatusEm:0000000000000014 .L0 
     /tmp/ccpgP7DY.s:319    .text._ZN5Riscv10ms_sstatusEm:0000000000000018 .L0 
     /tmp/ccpgP7DY.s:321    .text._ZN5Riscv10ms_sstatusEm:000000000000001c .L0 
     /tmp/ccpgP7DY.s:331    .text._ZN5Riscv10mc_sstatusEm:0000000000000000 .L0 
GAS LISTING /tmp/ccpgP7DY.s 			page 15


     /tmp/ccpgP7DY.s:333    .text._ZN5Riscv10mc_sstatusEm:0000000000000000 .L0 
     /tmp/ccpgP7DY.s:334    .text._ZN5Riscv10mc_sstatusEm:0000000000000004 .L0 
     /tmp/ccpgP7DY.s:336    .text._ZN5Riscv10mc_sstatusEm:0000000000000008 .L0 
     /tmp/ccpgP7DY.s:338    .text._ZN5Riscv10mc_sstatusEm:000000000000000c .L0 
     /tmp/ccpgP7DY.s:340    .text._ZN5Riscv10mc_sstatusEm:000000000000000c .L0 
  src/../h/Riscv.hpp:141    .text._ZN5Riscv10mc_sstatusEm:000000000000000c .L0 
     /tmp/ccpgP7DY.s:347    .text._ZN5Riscv10mc_sstatusEm:0000000000000010 .L0 
     /tmp/ccpgP7DY.s:348    .text._ZN5Riscv10mc_sstatusEm:0000000000000014 .L0 
     /tmp/ccpgP7DY.s:349    .text._ZN5Riscv10mc_sstatusEm:0000000000000014 .L0 
     /tmp/ccpgP7DY.s:351    .text._ZN5Riscv10mc_sstatusEm:0000000000000018 .L0 
     /tmp/ccpgP7DY.s:353    .text._ZN5Riscv10mc_sstatusEm:000000000000001c .L0 
     /tmp/ccpgP7DY.s:371    .text:00000000000001e4 .L0 
     /tmp/ccpgP7DY.s:292    .text._ZN5Riscv7w_stvecEm:000000000000001c .L0 
     /tmp/ccpgP7DY.s:324    .text._ZN5Riscv10ms_sstatusEm:000000000000001c .L0 
     /tmp/ccpgP7DY.s:357    .text._ZN5Riscv10mc_sstatusEm:000000000000001c .L0 
     /tmp/ccpgP7DY.s:30     .text:0000000000000018 .L0 
     /tmp/ccpgP7DY.s:50     .text:0000000000000050 .L0 
     /tmp/ccpgP7DY.s:72     .text:0000000000000080 .L0 
     /tmp/ccpgP7DY.s:78     .text:0000000000000094 .L0 
     /tmp/ccpgP7DY.s:86     .text:00000000000000b0 .L0 
     /tmp/ccpgP7DY.s:94     .text:00000000000000cc .L0 
     /tmp/ccpgP7DY.s:112    .text:00000000000000fc .L0 
     /tmp/ccpgP7DY.s:114    .text:0000000000000108 .L0 
     /tmp/ccpgP7DY.s:224    .text:000000000000019c .L0 
     /tmp/ccpgP7DY.s:230    .text:00000000000001ac .L0 
     /tmp/ccpgP7DY.s:248    .text:00000000000001c8 .L0 
     /tmp/ccpgP7DY.s:119    .text:000000000000011c .L2
     /tmp/ccpgP7DY.s:109    .text:00000000000000fc .L3
     /tmp/ccpgP7DY.s:140    .text:0000000000000150 .L7
     /tmp/ccpgP7DY.s:193    .text:000000000000017c .L9
     /tmp/ccpgP7DY.s:237    .text:00000000000001c0 .L13
     /tmp/ccpgP7DY.s:244    .text:00000000000001c8 .L12
     /tmp/ccpgP7DY.s:221    .text:000000000000019c .L15
     /tmp/ccpgP7DY.s:37     .text:0000000000000030 .LEHB0
     /tmp/ccpgP7DY.s:10     .text:0000000000000000 .LFB48
     /tmp/ccpgP7DY.s:40     .text:0000000000000038 .LEHE0
     /tmp/ccpgP7DY.s:45     .text:0000000000000048 .LEHB1
     /tmp/ccpgP7DY.s:48     .text:0000000000000050 .LEHE1
     /tmp/ccpgP7DY.s:129    .text:0000000000000130 .L6
     /tmp/ccpgP7DY.s:53     .text:000000000000005c .LEHB2
     /tmp/ccpgP7DY.s:139    .text:0000000000000150 .LEHE2
     /tmp/ccpgP7DY.s:1860   .debug_abbrev:0000000000000000 .Ldebug_abbrev0
     /tmp/ccpgP7DY.s:3209   .debug_str:00000000000008de .LASF181
     /tmp/ccpgP7DY.s:2999   .debug_str:000000000000030b .LASF182
     /tmp/ccpgP7DY.s:3163   .debug_str:00000000000007a2 .LASF183
     /tmp/ccpgP7DY.s:2887   .debug_ranges:0000000000000000 .Ldebug_ranges0
     /tmp/ccpgP7DY.s:2905   .debug_line:0000000000000000 .Ldebug_line0
     /tmp/ccpgP7DY.s:3033   .debug_str:00000000000003f0 .LASF0
     /tmp/ccpgP7DY.s:3059   .debug_str:00000000000004a7 .LASF1
     /tmp/ccpgP7DY.s:3147   .debug_str:000000000000072b .LASF2
     /tmp/ccpgP7DY.s:2989   .debug_str:00000000000002bb .LASF3
     /tmp/ccpgP7DY.s:3155   .debug_str:0000000000000773 .LASF4
     /tmp/ccpgP7DY.s:3045   .debug_str:0000000000000436 .LASF5
     /tmp/ccpgP7DY.s:2915   .debug_str:000000000000004c .LASF6
     /tmp/ccpgP7DY.s:3121   .debug_str:0000000000000679 .LASF7
     /tmp/ccpgP7DY.s:3117   .debug_str:0000000000000660 .LASF8
     /tmp/ccpgP7DY.s:3051   .debug_str:0000000000000477 .LASF9
GAS LISTING /tmp/ccpgP7DY.s 			page 16


     /tmp/ccpgP7DY.s:3007   .debug_str:0000000000000330 .LASF10
     /tmp/ccpgP7DY.s:3017   .debug_str:000000000000037f .LASF11
     /tmp/ccpgP7DY.s:2945   .debug_str:0000000000000131 .LASF12
     /tmp/ccpgP7DY.s:2997   .debug_str:00000000000002fc .LASF13
     /tmp/ccpgP7DY.s:2955   .debug_str:0000000000000189 .LASF14
     /tmp/ccpgP7DY.s:2943   .debug_str:0000000000000121 .LASF15
     /tmp/ccpgP7DY.s:3185   .debug_str:0000000000000845 .LASF16
     /tmp/ccpgP7DY.s:2985   .debug_str:000000000000028a .LASF17
     /tmp/ccpgP7DY.s:3175   .debug_str:000000000000080c .LASF18
     /tmp/ccpgP7DY.s:3255   .debug_str:0000000000000ab3 .LASF57
     /tmp/ccpgP7DY.s:3239   .debug_str:0000000000000a5f .LASF184
     /tmp/ccpgP7DY.s:2991   .debug_str:00000000000002c1 .LASF19
     /tmp/ccpgP7DY.s:3207   .debug_str:00000000000008d1 .LASF20
     /tmp/ccpgP7DY.s:2969   .debug_str:0000000000000213 .LASF21
     /tmp/ccpgP7DY.s:3023   .debug_str:00000000000003a5 .LASF22
     /tmp/ccpgP7DY.s:3031   .debug_str:00000000000003d8 .LASF24
     /tmp/ccpgP7DY.s:3161   .debug_str:0000000000000794 .LASF23
     /tmp/ccpgP7DY.s:2987   .debug_str:00000000000002a0 .LASF25
     /tmp/ccpgP7DY.s:3037   .debug_str:000000000000040d .LASF26
     /tmp/ccpgP7DY.s:3263   .debug_str:0000000000000afa .LASF27
     /tmp/ccpgP7DY.s:3227   .debug_str:0000000000000a22 .LASF28
     /tmp/ccpgP7DY.s:3221   .debug_str:00000000000009eb .LASF30
     /tmp/ccpgP7DY.s:3143   .debug_str:0000000000000717 .LASF32
     /tmp/ccpgP7DY.s:3105   .debug_str:00000000000005f1 .LASF34
     /tmp/ccpgP7DY.s:3127   .debug_str:0000000000000692 .LASF29
     /tmp/ccpgP7DY.s:3129   .debug_str:0000000000000699 .LASF31
     /tmp/ccpgP7DY.s:3093   .debug_str:0000000000000594 .LASF33
     /tmp/ccpgP7DY.s:3053   .debug_str:000000000000048a .LASF35
     /tmp/ccpgP7DY.s:3267   .debug_str:0000000000000b22 .LASF36
     /tmp/ccpgP7DY.s:3211   .debug_str:00000000000009a2 .LASF37
     /tmp/ccpgP7DY.s:3091   .debug_str:000000000000058c .LASF38
     /tmp/ccpgP7DY.s:3103   .debug_str:00000000000005dd .LASF39
     /tmp/ccpgP7DY.s:3181   .debug_str:0000000000000831 .LASF40
     /tmp/ccpgP7DY.s:3157   .debug_str:000000000000077a .LASF41
     /tmp/ccpgP7DY.s:3159   .debug_str:000000000000078d .LASF42
     /tmp/ccpgP7DY.s:2949   .debug_str:0000000000000145 .LASF43
     /tmp/ccpgP7DY.s:2983   .debug_str:0000000000000284 .LASF44
     /tmp/ccpgP7DY.s:3027   .debug_str:00000000000003bb .LASF45
     /tmp/ccpgP7DY.s:3039   .debug_str:000000000000041a .LASF46
     /tmp/ccpgP7DY.s:2973   .debug_str:0000000000000237 .LASF47
     /tmp/ccpgP7DY.s:2917   .debug_str:0000000000000053 .LASF48
     /tmp/ccpgP7DY.s:3151   .debug_str:0000000000000743 .LASF49
     /tmp/ccpgP7DY.s:3145   .debug_str:0000000000000720 .LASF50
     /tmp/ccpgP7DY.s:3281   .debug_str:0000000000000b93 .LASF51
     /tmp/ccpgP7DY.s:3257   .debug_str:0000000000000ab9 .LASF52
     /tmp/ccpgP7DY.s:3269   .debug_str:0000000000000b2a .LASF53
     /tmp/ccpgP7DY.s:3251   .debug_str:0000000000000a93 .LASF54
     /tmp/ccpgP7DY.s:3081   .debug_str:0000000000000528 .LASF55
     /tmp/ccpgP7DY.s:3215   .debug_str:00000000000009c0 .LASF98
     /tmp/ccpgP7DY.s:2961   .debug_str:00000000000001c9 .LASF100
     /tmp/ccpgP7DY.s:3249   .debug_str:0000000000000a8a .LASF56
     /tmp/ccpgP7DY.s:3193   .debug_str:0000000000000888 .LASF108
     /tmp/ccpgP7DY.s:3183   .debug_str:0000000000000838 .LASF60
     /tmp/ccpgP7DY.s:3261   .debug_str:0000000000000ad8 .LASF62
     /tmp/ccpgP7DY.s:3109   .debug_str:0000000000000627 .LASF185
     /tmp/ccpgP7DY.s:3277   .debug_str:0000000000000b87 .LASF58
     /tmp/ccpgP7DY.s:3047   .debug_str:0000000000000448 .LASF59
GAS LISTING /tmp/ccpgP7DY.s 			page 17


     /tmp/ccpgP7DY.s:3195   .debug_str:0000000000000890 .LASF64
     /tmp/ccpgP7DY.s:3191   .debug_str:0000000000000872 .LASF66
     /tmp/ccpgP7DY.s:2931   .debug_str:00000000000000c6 .LASF61
     /tmp/ccpgP7DY.s:3223   .debug_str:0000000000000a00 .LASF63
     /tmp/ccpgP7DY.s:3149   .debug_str:0000000000000739 .LASF65
     /tmp/ccpgP7DY.s:3189   .debug_str:000000000000085e .LASF67
     /tmp/ccpgP7DY.s:3199   .debug_str:00000000000008a8 .LASF68
     /tmp/ccpgP7DY.s:2993   .debug_str:00000000000002cd .LASF69
     /tmp/ccpgP7DY.s:3067   .debug_str:00000000000004d3 .LASF70
     /tmp/ccpgP7DY.s:3131   .debug_str:00000000000006ac .LASF71
     /tmp/ccpgP7DY.s:2977   .debug_str:0000000000000261 .LASF72
     /tmp/ccpgP7DY.s:3153   .debug_str:000000000000075b .LASF73
     /tmp/ccpgP7DY.s:3225   .debug_str:0000000000000a17 .LASF74
     /tmp/ccpgP7DY.s:2975   .debug_str:0000000000000249 .LASF75
     /tmp/ccpgP7DY.s:3285   .debug_str:0000000000000bb8 .LASF76
     /tmp/ccpgP7DY.s:2995   .debug_str:00000000000002e3 .LASF77
     /tmp/ccpgP7DY.s:3065   .debug_str:00000000000004cd .LASF78
     /tmp/ccpgP7DY.s:3141   .debug_str:0000000000000707 .LASF79
     /tmp/ccpgP7DY.s:2979   .debug_str:000000000000026e .LASF80
     /tmp/ccpgP7DY.s:2951   .debug_str:0000000000000158 .LASF81
     /tmp/ccpgP7DY.s:3071   .debug_str:00000000000004ed .LASF82
     /tmp/ccpgP7DY.s:2921   .debug_str:000000000000007a .LASF83
     /tmp/ccpgP7DY.s:3205   .debug_str:00000000000008c9 .LASF84
     /tmp/ccpgP7DY.s:2939   .debug_str:0000000000000101 .LASF85
     /tmp/ccpgP7DY.s:3219   .debug_str:00000000000009e3 .LASF86
     /tmp/ccpgP7DY.s:2941   .debug_str:0000000000000112 .LASF87
     /tmp/ccpgP7DY.s:3279   .debug_str:0000000000000b8d .LASF88
     /tmp/ccpgP7DY.s:3231   .debug_str:0000000000000a31 .LASF89
     /tmp/ccpgP7DY.s:3213   .debug_str:00000000000009b6 .LASF90
     /tmp/ccpgP7DY.s:3173   .debug_str:0000000000000803 .LASF91
     /tmp/ccpgP7DY.s:3123   .debug_str:0000000000000680 .LASF92
     /tmp/ccpgP7DY.s:3025   .debug_str:00000000000003b0 .LASF93
     /tmp/ccpgP7DY.s:3171   .debug_str:00000000000007f3 .LASF94
     /tmp/ccpgP7DY.s:3113   .debug_str:0000000000000636 .LASF95
     /tmp/ccpgP7DY.s:2909   .debug_str:0000000000000009 .LASF96
     /tmp/ccpgP7DY.s:2911   .debug_str:0000000000000016 .LASF97
     /tmp/ccpgP7DY.s:3273   .debug_str:0000000000000b62 .LASF186
     /tmp/ccpgP7DY.s:2963   .debug_str:00000000000001e1 .LASF99
     /tmp/ccpgP7DY.s:2913   .debug_str:0000000000000024 .LASF101
     /tmp/ccpgP7DY.s:3283   .debug_str:0000000000000bab .LASF102
     /tmp/ccpgP7DY.s:3013   .debug_str:000000000000035e .LASF103
     /tmp/ccpgP7DY.s:3035   .debug_str:00000000000003fd .LASF114
     /tmp/ccpgP7DY.s:3077   .debug_str:0000000000000504 .LASF115
     /tmp/ccpgP7DY.s:3009   .debug_str:0000000000000340 .LASF104
     /tmp/ccpgP7DY.s:3177   .debug_str:0000000000000822 .LASF157
     /tmp/ccpgP7DY.s:3201   .debug_str:00000000000008b3 .LASF105
     /tmp/ccpgP7DY.s:3135   .debug_str:00000000000006d0 .LASF106
     /tmp/ccpgP7DY.s:3095   .debug_str:000000000000059b .LASF107
     /tmp/ccpgP7DY.s:3247   .debug_str:0000000000000a85 .LASF109
     /tmp/ccpgP7DY.s:3055   .debug_str:000000000000049d .LASF110
     /tmp/ccpgP7DY.s:2947   .debug_str:0000000000000140 .LASF111
     /tmp/ccpgP7DY.s:2953   .debug_str:000000000000016b .LASF112
     /tmp/ccpgP7DY.s:2965   .debug_str:00000000000001ef .LASF113
     /tmp/ccpgP7DY.s:2957   .debug_str:0000000000000199 .LASF116
     /tmp/ccpgP7DY.s:2925   .debug_str:00000000000000a1 .LASF117
     /tmp/ccpgP7DY.s:3057   .debug_str:00000000000004a2 .LASF118
     /tmp/ccpgP7DY.s:2923   .debug_str:000000000000008c .LASF119
GAS LISTING /tmp/ccpgP7DY.s 			page 18


     /tmp/ccpgP7DY.s:3011   .debug_str:0000000000000346 .LASF120
     /tmp/ccpgP7DY.s:2967   .debug_str:0000000000000209 .LASF187
     /tmp/ccpgP7DY.s:3217   .debug_str:00000000000009cb .LASF188
     /tmp/ccpgP7DY.s:3197   .debug_str:000000000000089b .LASF121
     /tmp/ccpgP7DY.s:3259   .debug_str:0000000000000ac3 .LASF122
     /tmp/ccpgP7DY.s:3041   .debug_str:0000000000000420 .LASF123
     /tmp/ccpgP7DY.s:2919   .debug_str:000000000000005e .LASF124
     /tmp/ccpgP7DY.s:3063   .debug_str:00000000000004c5 .LASF125
     /tmp/ccpgP7DY.s:3087   .debug_str:0000000000000558 .LASF126
     /tmp/ccpgP7DY.s:2935   .debug_str:00000000000000dc .LASF127
     /tmp/ccpgP7DY.s:2937   .debug_str:00000000000000e5 .LASF128
     /tmp/ccpgP7DY.s:2959   .debug_str:00000000000001b4 .LASF129
     /tmp/ccpgP7DY.s:3253   .debug_str:0000000000000a9d .LASF130
     /tmp/ccpgP7DY.s:3075   .debug_str:00000000000004fb .LASF131
     /tmp/ccpgP7DY.s:3165   .debug_str:00000000000007c0 .LASF132
     /tmp/ccpgP7DY.s:3099   .debug_str:00000000000005b3 .LASF133
     /tmp/ccpgP7DY.s:3119   .debug_str:0000000000000673 .LASF134
     /tmp/ccpgP7DY.s:3089   .debug_str:0000000000000577 .LASF135
     /tmp/ccpgP7DY.s:3203   .debug_str:00000000000008b8 .LASF136
     /tmp/ccpgP7DY.s:3187   .debug_str:0000000000000851 .LASF137
     /tmp/ccpgP7DY.s:3049   .debug_str:000000000000045a .LASF138
     /tmp/ccpgP7DY.s:3235   .debug_str:0000000000000a42 .LASF139
     /tmp/ccpgP7DY.s:3271   .debug_str:0000000000000b40 .LASF140
     /tmp/ccpgP7DY.s:3043   .debug_str:0000000000000428 .LASF141
     /tmp/ccpgP7DY.s:3115   .debug_str:0000000000000642 .LASF142
     /tmp/ccpgP7DY.s:3021   .debug_str:0000000000000398 .LASF143
     /tmp/ccpgP7DY.s:3139   .debug_str:00000000000006ea .LASF144
     /tmp/ccpgP7DY.s:2927   .debug_str:00000000000000a7 .LASF145
     /tmp/ccpgP7DY.s:3015   .debug_str:000000000000036a .LASF146
     /tmp/ccpgP7DY.s:3005   .debug_str:0000000000000322 .LASF147
     /tmp/ccpgP7DY.s:3069   .debug_str:00000000000004e0 .LASF148
     /tmp/ccpgP7DY.s:3133   .debug_str:00000000000006c4 .LASF149
     /tmp/ccpgP7DY.s:2907   .debug_str:0000000000000000 .LASF189
     /tmp/ccpgP7DY.s:3233   .debug_str:0000000000000a36 .LASF150
     /tmp/ccpgP7DY.s:2981   .debug_str:0000000000000277 .LASF151
     /tmp/ccpgP7DY.s:3111   .debug_str:000000000000062c .LASF152
     /tmp/ccpgP7DY.s:3125   .debug_str:0000000000000688 .LASF153
     /tmp/ccpgP7DY.s:3061   .debug_str:00000000000004ba .LASF154
     /tmp/ccpgP7DY.s:3237   .debug_str:0000000000000a54 .LASF155
     /tmp/ccpgP7DY.s:3167   .debug_str:00000000000007c6 .LASF156
     /tmp/ccpgP7DY.s:3179   .debug_str:0000000000000827 .LASF158
     /tmp/ccpgP7DY.s:3083   .debug_str:000000000000053e .LASF159
     /tmp/ccpgP7DY.s:3003   .debug_str:000000000000031d .LASF160
     /tmp/ccpgP7DY.s:156    .text:000000000000016c .LFE48
     /tmp/ccpgP7DY.s:3029   .debug_str:00000000000003cd .LASF161
     /tmp/ccpgP7DY.s:3241   .debug_str:0000000000000a6e .LASF162
     /tmp/ccpgP7DY.s:2929   .debug_str:00000000000000bb .LASF163
     /tmp/ccpgP7DY.s:3287   .debug_str:0000000000000bc6 .LASF164
     /tmp/ccpgP7DY.s:33     .text:000000000000002c .LVL0
     /tmp/ccpgP7DY.s:39     .text:0000000000000038 .LVL1
     /tmp/ccpgP7DY.s:47     .text:0000000000000050 .LVL2
     /tmp/ccpgP7DY.s:56     .text:0000000000000064 .LVL3
     /tmp/ccpgP7DY.s:68     .text:000000000000007c .LVL4
     /tmp/ccpgP7DY.s:81     .text:00000000000000a8 .LVL5
     /tmp/ccpgP7DY.s:89     .text:00000000000000c4 .LVL6
     /tmp/ccpgP7DY.s:97     .text:00000000000000e0 .LVL7
     /tmp/ccpgP7DY.s:102    .text:00000000000000ec .LVL8
GAS LISTING /tmp/ccpgP7DY.s 			page 19


     /tmp/ccpgP7DY.s:108    .text:00000000000000fc .LVL9
     /tmp/ccpgP7DY.s:124    .text:0000000000000128 .LVL10
     /tmp/ccpgP7DY.s:134    .text:0000000000000140 .LVL11
     /tmp/ccpgP7DY.s:138    .text:0000000000000150 .LVL12
     /tmp/ccpgP7DY.s:3079   .debug_str:0000000000000511 .LASF165
     /tmp/ccpgP7DY.s:3169   .debug_str:00000000000007d6 .LASF166
     /tmp/ccpgP7DY.s:208    .text:0000000000000188 .LFB47
     /tmp/ccpgP7DY.s:257    .text:00000000000001e4 .LFE47
     /tmp/ccpgP7DY.s:2857   .debug_loc:0000000000000000 .LLST0
     /tmp/ccpgP7DY.s:234    .text:00000000000001c0 .LVL16
     /tmp/ccpgP7DY.s:243    .text:00000000000001c8 .LVL17
     /tmp/ccpgP7DY.s:3001   .debug_str:0000000000000318 .LASF167
     /tmp/ccpgP7DY.s:2933   .debug_str:00000000000000d2 .LASF168
     /tmp/ccpgP7DY.s:182    .text:000000000000016c .LFB46
     /tmp/ccpgP7DY.s:202    .text:0000000000000188 .LFE46
     /tmp/ccpgP7DY.s:198    .text:0000000000000184 .LVL13
     /tmp/ccpgP7DY.s:329    .text._ZN5Riscv10mc_sstatusEm:0000000000000000 .LFB11
     /tmp/ccpgP7DY.s:354    .text._ZN5Riscv10mc_sstatusEm:000000000000001c .LFE11
     /tmp/ccpgP7DY.s:3243   .debug_str:0000000000000a79 .LASF169
     /tmp/ccpgP7DY.s:297    .text._ZN5Riscv10ms_sstatusEm:0000000000000000 .LFB10
     /tmp/ccpgP7DY.s:322    .text._ZN5Riscv10ms_sstatusEm:000000000000001c .LFE10
     /tmp/ccpgP7DY.s:264    .text._ZN5Riscv7w_stvecEm:0000000000000000 .LFB5
     /tmp/ccpgP7DY.s:290    .text._ZN5Riscv7w_stvecEm:000000000000001c .LFE5
     /tmp/ccpgP7DY.s:3073   .debug_str:00000000000004f5 .LASF170
     /tmp/ccpgP7DY.s:3229   .debug_str:0000000000000a2b .LASF171
     /tmp/ccpgP7DY.s:3107   .debug_str:0000000000000606 .LASF172
     /tmp/ccpgP7DY.s:3265   .debug_str:0000000000000b14 .LASF173
     /tmp/ccpgP7DY.s:3101   .debug_str:00000000000005c8 .LASF174
     /tmp/ccpgP7DY.s:3097   .debug_str:00000000000005a7 .LASF175
     /tmp/ccpgP7DY.s:3245   .debug_str:0000000000000a7e .LASF176
     /tmp/ccpgP7DY.s:3275   .debug_str:0000000000000b78 .LASF190
     /tmp/ccpgP7DY.s:2971   .debug_str:000000000000021f .LASF191
     /tmp/ccpgP7DY.s:3137   .debug_str:00000000000006d5 .LASF177
     /tmp/ccpgP7DY.s:3019   .debug_str:000000000000038d .LASF178
     /tmp/ccpgP7DY.s:3085   .debug_str:0000000000000543 .LASF179
     /tmp/ccpgP7DY.s:3289   .debug_str:0000000000000bda .LASF180
     /tmp/ccpgP7DY.s:220    .text:000000000000019c .LVL14
     /tmp/ccpgP7DY.s:232    .text:00000000000001b8 .LVL15
     /tmp/ccpgP7DY.s:372    .debug_info:0000000000000000 .Ldebug_info0
     /tmp/ccpgP7DY.s:5      .text:0000000000000000 .Ltext0
     /tmp/ccpgP7DY.s:364    .text:00000000000001e4 .Letext0
     /tmp/ccpgP7DY.s:222    .text:000000000000019c .LBB2
     /tmp/ccpgP7DY.s:235    .text:00000000000001c0 .LBE2
     /tmp/ccpgP7DY.s:239    .text:00000000000001c0 .LBB3
     /tmp/ccpgP7DY.s:255    .text:00000000000001e4 .LBE3
     /tmp/ccpgP7DY.s:159    .gcc_except_table:0000000000000000 .LLSDA48

UNDEFINED SYMBOLS
interruptHandler
_Znwm
_ZN9SemaphoreC1Ej
_ZN8KConsole12initKConsoleEv
_Z13thread_createPP3TCBPFvPvES2_
_ZN3TCB7runningE
_Z8userMainv
_Z11thread_joinP3TCB
_ZN8KConsole10outputHeadE
GAS LISTING /tmp/ccpgP7DY.s 			page 20


_ZN8KConsole10outputTailE
_ZdlPv
_Unwind_Resume
__gxx_personality_v0
_Z15thread_dispatchv
_ZN8KConsole2drE
_ZN8KConsole20outputBufferHasSpaceE
_Z10sem_signalP4KSem
_ZN8KConsole13getFromOutputEv
_ZN8KConsole2srE
