GAS LISTING /tmp/cct7gWFJ.s 			page 1


   1              		.file	"main.cpp"
   2              		.option pic
   3              		.option norelax
   4              		.text
   5              	.Ltext0:
   6              		.section	.rodata
   7              		.align	3
   8              	.LC0:
   9 0000 0A476F74 		.string	"\nGotove user niti\n"
   9      6F766520 
   9      75736572 
   9      206E6974 
   9      690A00
  10 0013 00000000 		.align	3
  10      00
  11              	.LC1:
  12 0018 0A536164 		.string	"\nSad cu da izadjem\n"
  12      20637520 
  12      64612069 
  12      7A61646A 
  12      656D0A00 
  13              		.text
  14              		.align	2
  15              		.globl	main
  17              	main:
  18              	.LFB48:
  19              		.file 1 "src/main.cpp"
   1:src/main.cpp  **** #include "../lib/console.h"
   2:src/main.cpp  **** #include "../lib/hw.h"
   3:src/main.cpp  **** #include "../h/helper.hpp"
   4:src/main.cpp  **** #include "../h/Riscv.hpp"
   5:src/main.cpp  **** #include "../h/syscall_c.hpp"
   6:src/main.cpp  **** #include "../h/syscall_cpp.hpp"
   7:src/main.cpp  **** #include "../h/List.hpp"
   8:src/main.cpp  **** //#include "../h/MemoryAllocator.hpp"
   9:src/main.cpp  **** #include "../h/TCB.hpp"
  10:src/main.cpp  **** #include "../h/ThreadQueue.hpp"
  11:src/main.cpp  **** //#include "../h/KSem.hpp"
  12:src/main.cpp  **** #include "../h/KConsole.hpp"
  13:src/main.cpp  **** 
  14:src/main.cpp  **** #include "../test/printing.hpp"
  15:src/main.cpp  **** 
  16:src/main.cpp  **** 
  17:src/main.cpp  **** extern "C" void interruptHandler();
  18:src/main.cpp  **** 
  19:src/main.cpp  **** void userMain();
  20:src/main.cpp  **** 
  21:src/main.cpp  **** void testMemory();
  22:src/main.cpp  **** 
  23:src/main.cpp  **** void nit1f(void*);
  24:src/main.cpp  **** 
  25:src/main.cpp  **** void nit2f(void* arg2);
  26:src/main.cpp  **** 
  27:src/main.cpp  **** void nit3f(void*);
  28:src/main.cpp  **** 
  29:src/main.cpp  **** Semaphore* semA;
  30:src/main.cpp  **** 
GAS LISTING /tmp/cct7gWFJ.s 			page 2


  31:src/main.cpp  **** void idle(void*) {
  32:src/main.cpp  **** 	while (1) {}
  33:src/main.cpp  **** }
  34:src/main.cpp  **** 
  35:src/main.cpp  **** void kernelConsumerFunction(void*) {
  36:src/main.cpp  **** 	while (1) {
  37:src/main.cpp  **** 		char c = KConsole::getFromOutput();
  38:src/main.cpp  **** 		while (!(*KConsole::sr & CONSOLE_TX_STATUS_BIT)) {}
  39:src/main.cpp  **** 		*KConsole::dr = c;
  40:src/main.cpp  **** 		sem_signal(KConsole::outputBufferHasSpace);
  41:src/main.cpp  **** 	}
  42:src/main.cpp  **** 
  43:src/main.cpp  **** }
  44:src/main.cpp  **** 
  45:src/main.cpp  **** #pragma GCC optimize("O0")
  46:src/main.cpp  **** 
  47:src/main.cpp  **** int main() {
  20              		.loc 1 47 12
  21              		.cfi_startproc
  22              		.cfi_personality 0x9b,DW.ref.__gxx_personality_v0
  23              		.cfi_lsda 0x1b,.LLSDA48
  24 0000 130101FB 		addi	sp,sp,-80
  25              		.cfi_def_cfa_offset 80
  26 0004 23341104 		sd	ra,72(sp)
  27 0008 23308104 		sd	s0,64(sp)
  28 000c 233C9102 		sd	s1,56(sp)
  29 0010 23382103 		sd	s2,48(sp)
  30              		.cfi_offset 1, -8
  31              		.cfi_offset 8, -16
  32              		.cfi_offset 9, -24
  33              		.cfi_offset 18, -32
  34 0014 13040105 		addi	s0,sp,80
  35              		.cfi_def_cfa 8, 0
  48:src/main.cpp  **** 	//postavi adresu prekidne rutine u stvec
  49:src/main.cpp  **** 	Riscv::w_stvec((uint64)&interruptHandler);
  36              		.loc 1 49 2
  37              		.loc 1 49 16 is_stmt 0
  38 0018 97070000 		la	a5,interruptHandler
  38      83B70700 
  39 0020 13850700 		mv	a0,a5
  40 0024 97000000 		call	_ZN5Riscv7w_stvecEm
  40      E7800000 
  41              	.LVL0:
  50:src/main.cpp  **** 
  51:src/main.cpp  **** 	//sem_open(&semA, 0);
  52:src/main.cpp  **** 	semA = new Semaphore(1);
  42              		.loc 1 52 2 is_stmt 1
  43              		.loc 1 52 24 is_stmt 0
  44 002c 13050001 		li	a0,16
  45              	.LEHB0:
  46 0030 97000000 		call	_Znwm@plt
  46      E7800000 
  47              	.LVL1:
  48              	.LEHE0:
  49 0038 93070500 		mv	a5,a0
  50 003c 93840700 		mv	s1,a5
  51 0040 93051000 		li	a1,1
GAS LISTING /tmp/cct7gWFJ.s 			page 3


  52 0044 13850400 		mv	a0,s1
  53              	.LEHB1:
  54 0048 97000000 		call	_ZN9SemaphoreC1Ej@plt
  54      E7800000 
  55              	.LVL2:
  56              	.LEHE1:
  57              		.loc 1 52 7 discriminator 3
  58 0050 97070000 		lla	a5,semA
  58      93870700 
  59 0058 23B09700 		sd	s1,0(a5)
  53:src/main.cpp  **** 
  54:src/main.cpp  **** 	KConsole::initKConsole();
  60              		.loc 1 54 2 is_stmt 1 discriminator 3
  61              	.LEHB2:
  62              		.loc 1 54 24 is_stmt 0 discriminator 3
  63 005c 97000000 		call	_ZN8KConsole12initKConsoleEv@plt
  63      E7800000 
  64              	.LVL3:
  55:src/main.cpp  **** 
  56:src/main.cpp  **** 
  57:src/main.cpp  **** 
  58:src/main.cpp  **** 
  59:src/main.cpp  **** 	//testiranje alociranja memorije
  60:src/main.cpp  **** 	//testMemory();
  61:src/main.cpp  **** //	uint64* ptr = new uint64;
  62:src/main.cpp  **** //	*ptr = 6;
  63:src/main.cpp  **** //	printInteger(*ptr);
  64:src/main.cpp  **** 
  65:src/main.cpp  **** 	//testiranje liste
  66:src/main.cpp  **** //	List<uint64>* lista = new List<uint64>();
  67:src/main.cpp  **** //	uint64 num = 10;
  68:src/main.cpp  **** //	lista->addFirst(&num);
  69:src/main.cpp  **** //	println("");
  70:src/main.cpp  **** //	printInteger(*(lista->peekFirst()));
  71:src/main.cpp  **** //	delete lista;
  72:src/main.cpp  **** //	println("");
  73:src/main.cpp  **** 
  74:src/main.cpp  **** 	//testiranje kreiranja niti
  75:src/main.cpp  **** 	thread_t glavnaNit = nullptr;
  65              		.loc 1 75 2 is_stmt 1 discriminator 3
  66              		.loc 1 75 11 is_stmt 0 discriminator 3
  67 0064 233C04FC 		sd	zero,-40(s0)
  76:src/main.cpp  **** 	thread_t nit1 = nullptr;
  68              		.loc 1 76 2 is_stmt 1 discriminator 3
  69              		.loc 1 76 11 is_stmt 0 discriminator 3
  70 0068 233804FC 		sd	zero,-48(s0)
  77:src/main.cpp  **** 	thread_t nit2 = nullptr;
  71              		.loc 1 77 2 is_stmt 1 discriminator 3
  72              		.loc 1 77 11 is_stmt 0 discriminator 3
  73 006c 233404FC 		sd	zero,-56(s0)
  78:src/main.cpp  **** 	thread_t nit3 = nullptr;
  74              		.loc 1 78 2 is_stmt 1 discriminator 3
  75              		.loc 1 78 11 is_stmt 0 discriminator 3
  76 0070 233004FC 		sd	zero,-64(s0)
  79:src/main.cpp  **** 	thread_t idleNit = nullptr;
  77              		.loc 1 79 2 is_stmt 1 discriminator 3
  78              		.loc 1 79 11 is_stmt 0 discriminator 3
GAS LISTING /tmp/cct7gWFJ.s 			page 4


  79 0074 233C04FA 		sd	zero,-72(s0)
  80:src/main.cpp  **** 	thread_t kernelConsumerThread = nullptr;
  80              		.loc 1 80 2 is_stmt 1 discriminator 3
  81              		.loc 1 80 11 is_stmt 0 discriminator 3
  82 0078 233804FA 		sd	zero,-80(s0)
  81:src/main.cpp  **** 	thread_create(&glavnaNit, nullptr, nullptr);
  83              		.loc 1 81 2 is_stmt 1 discriminator 3
  84              		.loc 1 81 15 is_stmt 0 discriminator 3
  85 007c 930784FD 		addi	a5,s0,-40
  86 0080 13060000 		li	a2,0
  87 0084 93050000 		li	a1,0
  88 0088 13850700 		mv	a0,a5
  89 008c 97000000 		call	_Z13thread_createPP3TCBPFvPvES2_@plt
  89      E7800000 
  90              	.LVL4:
  82:src/main.cpp  **** 	TCB::running = glavnaNit;
  91              		.loc 1 82 2 is_stmt 1 discriminator 3
  92              		.loc 1 82 15 is_stmt 0 discriminator 3
  93 0094 033784FD 		ld	a4,-40(s0)
  94 0098 97070000 		la	a5,_ZN3TCB7runningE
  94      83B70700 
  95 00a0 23B0E700 		sd	a4,0(a5)
  83:src/main.cpp  **** 	thread_create(&idleNit, idle, nullptr);
  96              		.loc 1 83 2 is_stmt 1 discriminator 3
  97              		.loc 1 83 15 is_stmt 0 discriminator 3
  98 00a4 930784FB 		addi	a5,s0,-72
  99 00a8 13060000 		li	a2,0
 100 00ac 97050000 		lla	a1,_Z4idlePv
 100      93850500 
 101 00b4 13850700 		mv	a0,a5
 102 00b8 97000000 		call	_Z13thread_createPP3TCBPFvPvES2_@plt
 102      E7800000 
 103              	.LVL5:
  84:src/main.cpp  **** 	thread_create(&kernelConsumerThread, kernelConsumerFunction, nullptr);
 104              		.loc 1 84 2 is_stmt 1 discriminator 3
 105              		.loc 1 84 15 is_stmt 0 discriminator 3
 106 00c0 930704FB 		addi	a5,s0,-80
 107 00c4 13060000 		li	a2,0
 108 00c8 97050000 		lla	a1,_Z22kernelConsumerFunctionPv
 108      93850500 
 109 00d0 13850700 		mv	a0,a5
 110 00d4 97000000 		call	_Z13thread_createPP3TCBPFvPvES2_@plt
 110      E7800000 
 111              	.LVL6:
  85:src/main.cpp  **** 
  86:src/main.cpp  **** //	ThreadQueue* q = new ThreadQueue();
  87:src/main.cpp  **** //	q->putLast(nit3);
  88:src/main.cpp  **** //	q->putLast(nit2);
  89:src/main.cpp  **** //	q->putLast(nit1);
  90:src/main.cpp  **** //	thread_t nitred3 = q->getFirst();
  91:src/main.cpp  **** //	thread_t nitred2 = q->getFirst();
  92:src/main.cpp  **** //	thread_t nitred1 = q->getFirst();
  93:src/main.cpp  **** 
  94:src/main.cpp  **** 	thread_create(&nit1, nit1f, nullptr);
 112              		.loc 1 94 2 is_stmt 1 discriminator 3
 113              		.loc 1 94 15 is_stmt 0 discriminator 3
 114 00dc 930704FD 		addi	a5,s0,-48
GAS LISTING /tmp/cct7gWFJ.s 			page 5


 115 00e0 13060000 		li	a2,0
 116 00e4 97050000 		la	a1,_Z5nit1fPv
 116      83B50500 
 117 00ec 13850700 		mv	a0,a5
 118 00f0 97000000 		call	_Z13thread_createPP3TCBPFvPvES2_@plt
 118      E7800000 
 119              	.LVL7:
  95:src/main.cpp  **** 	thread_create(&nit2, nit2f, nullptr);
 120              		.loc 1 95 2 is_stmt 1 discriminator 3
 121              		.loc 1 95 15 is_stmt 0 discriminator 3
 122 00f8 930784FC 		addi	a5,s0,-56
 123 00fc 13060000 		li	a2,0
 124 0100 97050000 		la	a1,_Z5nit2fPv
 124      83B50500 
 125 0108 13850700 		mv	a0,a5
 126 010c 97000000 		call	_Z13thread_createPP3TCBPFvPvES2_@plt
 126      E7800000 
 127              	.LVL8:
  96:src/main.cpp  **** 	thread_create(&nit3, nit3f, nullptr);
 128              		.loc 1 96 2 is_stmt 1 discriminator 3
 129              		.loc 1 96 15 is_stmt 0 discriminator 3
 130 0114 930704FC 		addi	a5,s0,-64
 131 0118 13060000 		li	a2,0
 132 011c 97050000 		la	a1,_Z5nit3fPv
 132      83B50500 
 133 0124 13850700 		mv	a0,a5
 134 0128 97000000 		call	_Z13thread_createPP3TCBPFvPvES2_@plt
 134      E7800000 
 135              	.LVL9:
  97:src/main.cpp  **** 
  98:src/main.cpp  **** 	//omoguci prekide
  99:src/main.cpp  **** 	Riscv::ms_sstatus(Riscv::SSTATUS_SIE);
 136              		.loc 1 99 2 is_stmt 1 discriminator 3
 137              		.loc 1 99 19 is_stmt 0 discriminator 3
 138 0130 13052000 		li	a0,2
 139 0134 97000000 		call	_ZN5Riscv10ms_sstatusEm
 139      E7800000 
 140              	.LVL10:
 100:src/main.cpp  **** 
 101:src/main.cpp  **** 
 102:src/main.cpp  **** 
 103:src/main.cpp  **** //	while (!nitred1->isFinished() || !nitred2->isFinished()) {
 104:src/main.cpp  **** //		thread_dispatch();
 105:src/main.cpp  **** //	}
 106:src/main.cpp  **** 	thread_join(nit1);
 141              		.loc 1 106 2 is_stmt 1 discriminator 3
 142              		.loc 1 106 13 is_stmt 0 discriminator 3
 143 013c 833704FD 		ld	a5,-48(s0)
 144 0140 13850700 		mv	a0,a5
 145 0144 97000000 		call	_Z11thread_joinP3TCB@plt
 145      E7800000 
 146              	.LVL11:
 107:src/main.cpp  **** 	thread_join(nit2);
 147              		.loc 1 107 2 is_stmt 1 discriminator 3
 148              		.loc 1 107 13 is_stmt 0 discriminator 3
 149 014c 833784FC 		ld	a5,-56(s0)
 150 0150 13850700 		mv	a0,a5
GAS LISTING /tmp/cct7gWFJ.s 			page 6


 151 0154 97000000 		call	_Z11thread_joinP3TCB@plt
 151      E7800000 
 152              	.LVL12:
 108:src/main.cpp  **** 	thread_join(nit3);
 153              		.loc 1 108 2 is_stmt 1 discriminator 3
 154              		.loc 1 108 13 is_stmt 0 discriminator 3
 155 015c 833704FC 		ld	a5,-64(s0)
 156 0160 13850700 		mv	a0,a5
 157 0164 97000000 		call	_Z11thread_joinP3TCB@plt
 157      E7800000 
 158              	.LVL13:
 109:src/main.cpp  **** 	//thread_join(idleNit);
 110:src/main.cpp  **** 
 111:src/main.cpp  **** 	printString("\nGotove user niti\n");
 159              		.loc 1 111 2 is_stmt 1 discriminator 3
 160              		.loc 1 111 13 is_stmt 0 discriminator 3
 161 016c 17050000 		lla	a0,.LC0
 161      13050500 
 162 0174 97000000 		call	_Z11printStringPKc@plt
 162      E7800000 
 163              	.LVL14:
 112:src/main.cpp  **** 	//delete q;
 113:src/main.cpp  **** 
 114:src/main.cpp  **** 
 115:src/main.cpp  **** 	//KConsole::printConsoleState();
 116:src/main.cpp  **** 	//KConsole konzola;
 117:src/main.cpp  **** 
 118:src/main.cpp  **** 	printString("\nSad cu da izadjem\n");
 164              		.loc 1 118 2 is_stmt 1 discriminator 3
 165              		.loc 1 118 13 is_stmt 0 discriminator 3
 166 017c 17050000 		lla	a0,.LC1
 166      13050500 
 167 0184 97000000 		call	_Z11printStringPKc@plt
 167      E7800000 
 168              	.LVL15:
 119:src/main.cpp  **** 	//zabrani prekide
 120:src/main.cpp  **** 	Riscv::mc_sstatus(Riscv::SSTATUS_SIE);
 169              		.loc 1 120 2 is_stmt 1 discriminator 3
 170              		.loc 1 120 19 is_stmt 0 discriminator 3
 171 018c 13052000 		li	a0,2
 172 0190 97000000 		call	_ZN5Riscv10mc_sstatusEm
 172      E7800000 
 173              	.LVL16:
 121:src/main.cpp  **** 
 122:src/main.cpp  **** 
 123:src/main.cpp  **** //testiranje svega
 124:src/main.cpp  **** //	thread_t mainHandle;
 125:src/main.cpp  **** //	thread_t userHandle;
 126:src/main.cpp  **** //	thread_create(&mainHandle, nullptr, nullptr);
 127:src/main.cpp  **** //	TCB::running = mainHandle;
 128:src/main.cpp  **** //	thread_create(&userHandle, (TCB::Body)userMain, nullptr);
 129:src/main.cpp  **** //	while (!userHandle->isFinished()) {
 130:src/main.cpp  **** //		thread_dispatch();
 131:src/main.cpp  **** //	}
 132:src/main.cpp  **** //	Riscv::mc_sstatus(Riscv::SSTATUS_SIE);
 133:src/main.cpp  **** 	return 0;
 174              		.loc 1 133 2 is_stmt 1 discriminator 3
GAS LISTING /tmp/cct7gWFJ.s 			page 7


 175              		.loc 1 133 9 is_stmt 0 discriminator 3
 176 0198 93070000 		li	a5,0
 177 019c 6F004002 		j	.L5
 178              	.L4:
 179 01a0 13090500 		mv	s2,a0
  52:src/main.cpp  **** 
 180              		.loc 1 52 24
 181 01a4 13850400 		mv	a0,s1
 182 01a8 97000000 		call	_ZdlPv@plt
 182      E7800000 
 183              	.LVL17:
 184 01b0 93070900 		mv	a5,s2
 185 01b4 13850700 		mv	a0,a5
 186 01b8 97000000 		call	_Unwind_Resume@plt
 186      E7800000 
 187              	.LVL18:
 188              	.LEHE2:
 189              	.L5:
 134:src/main.cpp  **** }...
 190              		.loc 1 134 1
 191 01c0 13850700 		mv	a0,a5
 192 01c4 83308104 		ld	ra,72(sp)
 193              		.cfi_restore 1
 194 01c8 03340104 		ld	s0,64(sp)
 195              		.cfi_restore 8
 196              		.cfi_def_cfa 2, 80
 197 01cc 83348103 		ld	s1,56(sp)
 198              		.cfi_restore 9
 199 01d0 03390103 		ld	s2,48(sp)
 200              		.cfi_restore 18
 201 01d4 13010105 		addi	sp,sp,80
 202              		.cfi_def_cfa_offset 0
 203 01d8 67800000 		jr	ra
 204              		.cfi_endproc
 205              	.LFE48:
 206              		.globl	__gxx_personality_v0
 207              		.section	.gcc_except_table,"a",@progbits
 208              	.LLSDA48:
 209 0000 FF       		.byte	0xff
 210 0001 FF       		.byte	0xff
 211 0002 03       		.byte	0x3
 212 0003 27       		.byte	0x27
 213 0004 00000000 		.4byte	.LEHB0-.LFB48
 214 0008 00000000 		.4byte	.LEHE0-.LEHB0
 215 000c 00000000 		.4byte	0
 216 0010 00       		.byte	0
 217 0011 00000000 		.4byte	.LEHB1-.LFB48
 218 0015 00000000 		.4byte	.LEHE1-.LEHB1
 219 0019 00000000 		.4byte	.L4-.LFB48
 220 001d 00       		.byte	0
 221 001e 00000000 		.4byte	.LEHB2-.LFB48
 222 0022 00000000 		.4byte	.LEHE2-.LEHB2
 223 0026 00000000 		.4byte	0
 224 002a 00       		.byte	0
 225              		.text
 227              		.align	2
 228              		.globl	_Z4idlePv
GAS LISTING /tmp/cct7gWFJ.s 			page 8


 230              	_Z4idlePv:
 231              	.LFB46:
  31:src/main.cpp  **** void idle(void*) {
 232              		.loc 1 31 18 is_stmt 1
 233              		.cfi_startproc
 234 01dc 130101FF 		addi	sp,sp,-16
 235              		.cfi_def_cfa_offset 16
 236 01e0 23348100 		sd	s0,8(sp)
 237              		.cfi_offset 8, -8
 238 01e4 13040101 		addi	s0,sp,16
 239              		.cfi_def_cfa 8, 0
 240              	.L7:
  32:src/main.cpp  **** 	while (1) {}
 241              		.loc 1 32 2 discriminator 1
  32:src/main.cpp  **** 	while (1) {}
 242              		.loc 1 32 2 discriminator 1
 243 01e8 6F000000 		j	.L7
 244              		.cfi_endproc
 245              	.LFE46:
 247              		.align	2
 248              		.globl	_Z22kernelConsumerFunctionPv
 250              	_Z22kernelConsumerFunctionPv:
 251              	.LFB47:
  35:src/main.cpp  **** void kernelConsumerFunction(void*) {
 252              		.loc 1 35 36
 253              		.cfi_startproc
 254 01ec 130101FF 		addi	sp,sp,-16
 255              		.cfi_def_cfa_offset 16
 256 01f0 23341100 		sd	ra,8(sp)
 257 01f4 23308100 		sd	s0,0(sp)
 258              		.cfi_offset 1, -8
 259              		.cfi_offset 8, -16
 260 01f8 13040101 		addi	s0,sp,16
 261              		.cfi_def_cfa 8, 0
 262 01fc 6F008002 		j	.L11
 263              	.LVL19:
 264              	.L13:
 265              	.LBB2:
  39:src/main.cpp  **** 		*KConsole::dr = c;
 266              		.loc 1 39 3
 267 0200 97070000 		la	a5,_ZN8KConsole2drE
 267      83B70700 
 268 0208 83B70700 		ld	a5,0(a5)
  39:src/main.cpp  **** 		*KConsole::dr = c;
 269              		.loc 1 39 17 is_stmt 0
 270 020c 2380A700 		sb	a0,0(a5)
  40:src/main.cpp  **** 		sem_signal(KConsole::outputBufferHasSpace);
 271              		.loc 1 40 3 is_stmt 1
  40:src/main.cpp  **** 		sem_signal(KConsole::outputBufferHasSpace);
 272              		.loc 1 40 13 is_stmt 0
 273 0210 97070000 		la	a5,_ZN8KConsole20outputBufferHasSpaceE
 273      83B70700 
 274 0218 03B50700 		ld	a0,0(a5)
 275              	.LVL20:
 276 021c 97000000 		call	_Z10sem_signalP4KSem@plt
 276      E7800000 
 277              	.LVL21:
GAS LISTING /tmp/cct7gWFJ.s 			page 9


 278              	.LBE2:
  36:src/main.cpp  **** 	while (1) {
 279              		.loc 1 36 2 is_stmt 1
 280              	.L11:
  36:src/main.cpp  **** 	while (1) {
 281              		.loc 1 36 2
 282              	.LBB3:
  37:src/main.cpp  **** 		char c = KConsole::getFromOutput();
 283              		.loc 1 37 3
  37:src/main.cpp  **** 		char c = KConsole::getFromOutput();
 284              		.loc 1 37 35 is_stmt 0
 285 0224 97000000 		call	_ZN8KConsole13getFromOutputEv@plt
 285      E7800000 
 286              	.LVL22:
 287              	.L10:
  38:src/main.cpp  **** 		while (!(*KConsole::sr & CONSOLE_TX_STATUS_BIT)) {}
 288              		.loc 1 38 3 is_stmt 1
  38:src/main.cpp  **** 		while (!(*KConsole::sr & CONSOLE_TX_STATUS_BIT)) {}
 289              		.loc 1 38 10
  38:src/main.cpp  **** 		while (!(*KConsole::sr & CONSOLE_TX_STATUS_BIT)) {}
 290              		.loc 1 38 12 is_stmt 0
 291 022c 97070000 		la	a5,_ZN8KConsole2srE
 291      83B70700 
 292 0234 83B70700 		ld	a5,0(a5)
 293 0238 83C70700 		lbu	a5,0(a5)
  38:src/main.cpp  **** 		while (!(*KConsole::sr & CONSOLE_TX_STATUS_BIT)) {}
 294              		.loc 1 38 10
 295 023c 93F70702 		andi	a5,a5,32
 296 0240 E38607FE 		beqz	a5,.L10
 297 0244 6FF0DFFB 		j	.L13
 298              	.LBE3:
 299              		.cfi_endproc
 300              	.LFE47:
 302              		.section	.text._ZN5Riscv7w_stvecEm,"axG",@progbits,_ZN5Riscv7w_stvecEm,comdat
 303              		.align	2
 304              		.weak	_ZN5Riscv7w_stvecEm
 306              	_ZN5Riscv7w_stvecEm:
 307              	.LFB5:
 308              		.file 2 "src/../h/Riscv.hpp"
   1:src/../h/Riscv.hpp **** //
   2:src/../h/Riscv.hpp **** // Created by os on 5/17/23.
   3:src/../h/Riscv.hpp **** //
   4:src/../h/Riscv.hpp **** 
   5:src/../h/Riscv.hpp **** #ifndef PROJEKAT2023_RISCV_HPP
   6:src/../h/Riscv.hpp **** #define PROJEKAT2023_RISCV_HPP
   7:src/../h/Riscv.hpp **** 
   8:src/../h/Riscv.hpp **** #include "../lib/hw.h"
   9:src/../h/Riscv.hpp **** 
  10:src/../h/Riscv.hpp **** class Riscv {
  11:src/../h/Riscv.hpp **** public:
  12:src/../h/Riscv.hpp **** 
  13:src/../h/Riscv.hpp **** 	static void popSppSpie();
  14:src/../h/Riscv.hpp **** 
  15:src/../h/Riscv.hpp **** 	//stavljanje registara x3-x31 na stek
  16:src/../h/Riscv.hpp **** 	static void pushRegisters();    //implementacija u asm
  17:src/../h/Riscv.hpp **** 
  18:src/../h/Riscv.hpp **** 	//skidanje registara x3-x31 sa steka
GAS LISTING /tmp/cct7gWFJ.s 			page 10


  19:src/../h/Riscv.hpp **** 	static void popRegisters();     //implementacija u asm
  20:src/../h/Riscv.hpp **** 
  21:src/../h/Riscv.hpp **** 	//read scause
  22:src/../h/Riscv.hpp **** 	static uint64 r_scause();
  23:src/../h/Riscv.hpp **** 
  24:src/../h/Riscv.hpp **** 	//write scause
  25:src/../h/Riscv.hpp **** 	static void w_scause(uint64 scause);
  26:src/../h/Riscv.hpp **** 
  27:src/../h/Riscv.hpp **** 	//read sepc
  28:src/../h/Riscv.hpp **** 	static uint64 r_sepc();
  29:src/../h/Riscv.hpp **** 
  30:src/../h/Riscv.hpp **** 	//write sepc
  31:src/../h/Riscv.hpp **** 	static void w_sepc(uint64 sepc);
  32:src/../h/Riscv.hpp **** 
  33:src/../h/Riscv.hpp **** 	//read stvec
  34:src/../h/Riscv.hpp **** 	static uint64 r_stvec();
  35:src/../h/Riscv.hpp **** 
  36:src/../h/Riscv.hpp **** 	//write stvec
  37:src/../h/Riscv.hpp **** 	static void w_stvec(uint64 stvec);
  38:src/../h/Riscv.hpp **** 
  39:src/../h/Riscv.hpp **** 	enum BitMaskSip {
  40:src/../h/Riscv.hpp **** 		//postoji zahtev za softverski prekid
  41:src/../h/Riscv.hpp **** 		SIP_SSIP = (1 << 1),
  42:src/../h/Riscv.hpp **** 		//postoji prekid od tajmera
  43:src/../h/Riscv.hpp **** 		SIP_STIP = (1 << 5),
  44:src/../h/Riscv.hpp **** 		//postoji zahtev za spoljasnji hardverski prekid
  45:src/../h/Riscv.hpp **** 		SIP_SEIP = (1 << 9)
  46:src/../h/Riscv.hpp **** 	};
  47:src/../h/Riscv.hpp **** 
  48:src/../h/Riscv.hpp **** 	//mask set sip
  49:src/../h/Riscv.hpp **** 	static void ms_sip(uint64 mask);
  50:src/../h/Riscv.hpp **** 
  51:src/../h/Riscv.hpp **** 	//mask clear sip
  52:src/../h/Riscv.hpp **** 	static void mc_sip(uint64 mask);
  53:src/../h/Riscv.hpp **** 
  54:src/../h/Riscv.hpp **** 	//read sip
  55:src/../h/Riscv.hpp **** 	static uint64 r_sip();
  56:src/../h/Riscv.hpp **** 
  57:src/../h/Riscv.hpp **** 	//write sip
  58:src/../h/Riscv.hpp **** 	static void w_sip(uint64 sip);
  59:src/../h/Riscv.hpp **** 
  60:src/../h/Riscv.hpp **** 	//kada se pozove sret, SIE dobija vrednost SPIE, SPIE se postavlja na 1,
  61:src/../h/Riscv.hpp **** 	//rezim se postavlja na osnovu SPP bita, SPP se postavlja na 0
  62:src/../h/Riscv.hpp **** 	enum BitMaskSstatus {
  63:src/../h/Riscv.hpp **** 		//1 - dozvoljeni prekidi; 0- nedozvoljeni prekidi; igonrise se u korisnickom rezimu
  64:src/../h/Riscv.hpp **** 		SSTATUS_SIE = (1 << 1),
  65:src/../h/Riscv.hpp **** 		//prethodna vrednost bita SIE
  66:src/../h/Riscv.hpp **** 		SSTATUS_SPIE = (1 << 5),
  67:src/../h/Riscv.hpp **** 		//iz kog rezima se desio skok; 0 - iz korisnickog; 1 - iz sistemskog
  68:src/../h/Riscv.hpp **** 		SSTATUS_SPP = (1 << 8)
  69:src/../h/Riscv.hpp **** 	};
  70:src/../h/Riscv.hpp **** 
  71:src/../h/Riscv.hpp **** 	//mask set sstatus
  72:src/../h/Riscv.hpp **** 	static void ms_sstatus(uint64 mask);
  73:src/../h/Riscv.hpp **** 
  74:src/../h/Riscv.hpp **** 	//mask clear sstatus
  75:src/../h/Riscv.hpp **** 	static void mc_sstatus(uint64 mask);
GAS LISTING /tmp/cct7gWFJ.s 			page 11


  76:src/../h/Riscv.hpp **** 
  77:src/../h/Riscv.hpp **** 	//read sstatus
  78:src/../h/Riscv.hpp **** 	static uint64 r_sstatus();
  79:src/../h/Riscv.hpp **** 
  80:src/../h/Riscv.hpp **** 	//write sstatus
  81:src/../h/Riscv.hpp **** 	static void w_sstatus(uint64 sstatus);
  82:src/../h/Riscv.hpp **** 
  83:src/../h/Riscv.hpp **** 	//upisuje kod sistemskog poziva u registar a0
  84:src/../h/Riscv.hpp **** 	static void loadOpCode(uint64 opCode);
  85:src/../h/Riscv.hpp **** 
  86:src/../h/Riscv.hpp **** };
  87:src/../h/Riscv.hpp **** 
  88:src/../h/Riscv.hpp **** inline uint64 Riscv::r_scause() {
  89:src/../h/Riscv.hpp **** 	uint64 volatile scause;
  90:src/../h/Riscv.hpp **** 	__asm__ volatile("csrr %[scause], scause": [scause] "=r"(scause));
  91:src/../h/Riscv.hpp **** 	return scause;
  92:src/../h/Riscv.hpp **** }
  93:src/../h/Riscv.hpp **** 
  94:src/../h/Riscv.hpp **** inline void Riscv::w_scause(uint64 scause) {
  95:src/../h/Riscv.hpp **** 	__asm__ volatile("csrw scause, %[scause]": :[scause] "r"(scause));
  96:src/../h/Riscv.hpp **** }
  97:src/../h/Riscv.hpp **** 
  98:src/../h/Riscv.hpp **** inline uint64 Riscv::r_sepc() {
  99:src/../h/Riscv.hpp **** 	uint64 volatile sepc;
 100:src/../h/Riscv.hpp **** 	__asm__ volatile("csrr %[sepc], sepc": [sepc] "=r"(sepc));
 101:src/../h/Riscv.hpp **** 	return sepc;
 102:src/../h/Riscv.hpp **** }
 103:src/../h/Riscv.hpp **** 
 104:src/../h/Riscv.hpp **** inline void Riscv::w_sepc(uint64 sepc) {
 105:src/../h/Riscv.hpp **** 	__asm__ volatile("csrw sepc, %[sepc]": :[sepc] "r"(sepc));
 106:src/../h/Riscv.hpp **** }
 107:src/../h/Riscv.hpp **** 
 108:src/../h/Riscv.hpp **** inline uint64 Riscv::r_stvec() {
 109:src/../h/Riscv.hpp **** 	uint64 volatile stvec;
 110:src/../h/Riscv.hpp **** 	__asm__ volatile("csrr %[stvec], stvec": [stvec] "=r"(stvec));
 111:src/../h/Riscv.hpp **** 	return stvec;
 112:src/../h/Riscv.hpp **** }
 113:src/../h/Riscv.hpp **** 
 114:src/../h/Riscv.hpp **** inline void Riscv::w_stvec(uint64 stvec) {
 309              		.loc 2 114 42 is_stmt 1
 310              		.cfi_startproc
 311              	.LVL23:
 312 0000 130101FF 		addi	sp,sp,-16
 313              		.cfi_def_cfa_offset 16
 314 0004 23348100 		sd	s0,8(sp)
 315              		.cfi_offset 8, -8
 316 0008 13040101 		addi	s0,sp,16
 317              		.cfi_def_cfa 8, 0
 115:src/../h/Riscv.hpp **** 	__asm__ volatile("csrw stvec, %[stvec]": :[stvec] "r"(stvec));
 318              		.loc 2 115 2
 319              		.loc 2 115 63 is_stmt 0
 320              	#APP
 321              	# 115 "src/../h/Riscv.hpp" 1
 116              	}
 322              		csrw stvec, a0
 323              	# 0 "" 2
 324              		.loc 2 116 1
GAS LISTING /tmp/cct7gWFJ.s 			page 12


 325              	#NO_APP
 326 0010 03348100 		ld	s0,8(sp)
 327              		.cfi_restore 8
 328              		.cfi_def_cfa 2, 16
 329 0014 13010101 		addi	sp,sp,16
 330              		.cfi_def_cfa_offset 0
 331 0018 67800000 		jr	ra
 332              		.cfi_endproc
 333              	.LFE5:
 335              		.section	.text._ZN5Riscv10ms_sstatusEm,"axG",@progbits,_ZN5Riscv10ms_sstatusEm,comdat
 336              		.align	2
 337              		.weak	_ZN5Riscv10ms_sstatusEm
 339              	_ZN5Riscv10ms_sstatusEm:
 340              	.LFB10:
 117:src/../h/Riscv.hpp **** 
 118:src/../h/Riscv.hpp **** inline void Riscv::ms_sip(uint64 mask) {
 119:src/../h/Riscv.hpp **** 	__asm__ volatile("csrs sip, %[mask]": :[mask] "r"(mask));
 120:src/../h/Riscv.hpp **** }
 121:src/../h/Riscv.hpp **** 
 122:src/../h/Riscv.hpp **** inline void Riscv::mc_sip(uint64 mask) {
 123:src/../h/Riscv.hpp **** 	__asm__ volatile("csrc sip, %[mask]": :[mask] "r"(mask));
 124:src/../h/Riscv.hpp **** }
 125:src/../h/Riscv.hpp **** 
 126:src/../h/Riscv.hpp **** inline uint64 Riscv::r_sip() {
 127:src/../h/Riscv.hpp **** 	uint64 volatile sip;
 128:src/../h/Riscv.hpp **** 	__asm__ volatile("csrr %[sip], sip": [sip] "=r"(sip));
 129:src/../h/Riscv.hpp **** 	return sip;
 130:src/../h/Riscv.hpp **** }
 131:src/../h/Riscv.hpp **** 
 132:src/../h/Riscv.hpp **** inline void Riscv::w_sip(uint64 sip) {
 133:src/../h/Riscv.hpp **** 	__asm__ volatile("csrw sip, %[sip]": :[sip] "r"(sip));
 134:src/../h/Riscv.hpp **** }
 135:src/../h/Riscv.hpp **** 
 136:src/../h/Riscv.hpp **** inline void Riscv::ms_sstatus(uint64 mask) {
 341              		.loc 2 136 44 is_stmt 1
 342              		.cfi_startproc
 343              	.LVL24:
 344 0000 130101FF 		addi	sp,sp,-16
 345              		.cfi_def_cfa_offset 16
 346 0004 23348100 		sd	s0,8(sp)
 347              		.cfi_offset 8, -8
 348 0008 13040101 		addi	s0,sp,16
 349              		.cfi_def_cfa 8, 0
 137:src/../h/Riscv.hpp **** 	__asm__ volatile("csrs sstatus, %[mask]": :[mask] "r"(mask));
 350              		.loc 2 137 2
 351              		.loc 2 137 62 is_stmt 0
 352              	#APP
 353              	# 137 "src/../h/Riscv.hpp" 1
 138              	}
 354              		csrs sstatus, a0
 355              	# 0 "" 2
 356              		.loc 2 138 1
 357              	#NO_APP
 358 0010 03348100 		ld	s0,8(sp)
 359              		.cfi_restore 8
 360              		.cfi_def_cfa 2, 16
 361 0014 13010101 		addi	sp,sp,16
GAS LISTING /tmp/cct7gWFJ.s 			page 13


 362              		.cfi_def_cfa_offset 0
 363 0018 67800000 		jr	ra
 364              		.cfi_endproc
 365              	.LFE10:
 367              		.section	.text._ZN5Riscv10mc_sstatusEm,"axG",@progbits,_ZN5Riscv10mc_sstatusEm,comdat
 368              		.align	2
 369              		.weak	_ZN5Riscv10mc_sstatusEm
 371              	_ZN5Riscv10mc_sstatusEm:
 372              	.LFB11:
 139:src/../h/Riscv.hpp **** 
 140:src/../h/Riscv.hpp **** inline void Riscv::mc_sstatus(uint64 mask) {
 373              		.loc 2 140 44 is_stmt 1
 374              		.cfi_startproc
 375              	.LVL25:
 376 0000 130101FF 		addi	sp,sp,-16
 377              		.cfi_def_cfa_offset 16
 378 0004 23348100 		sd	s0,8(sp)
 379              		.cfi_offset 8, -8
 380 0008 13040101 		addi	s0,sp,16
 381              		.cfi_def_cfa 8, 0
 141:src/../h/Riscv.hpp **** 	__asm__ volatile("csrc sstatus, %[mask]": :[mask] "r"(mask));
 382              		.loc 2 141 2
 383              		.loc 2 141 62 is_stmt 0
 384              	#APP
 385              	# 141 "src/../h/Riscv.hpp" 1
 142              	}
 386              		csrc sstatus, a0
 387              	# 0 "" 2
 388              		.loc 2 142 1
 389              	#NO_APP
 390 0010 03348100 		ld	s0,8(sp)
 391              		.cfi_restore 8
 392              		.cfi_def_cfa 2, 16
 393 0014 13010101 		addi	sp,sp,16
 394              		.cfi_def_cfa_offset 0
 395 0018 67800000 		jr	ra
 396              		.cfi_endproc
 397              	.LFE11:
 399              		.globl	semA
 400              		.bss
 401              		.align	3
 404              	semA:
 405 0000 00000000 		.zero	8
 405      00000000 
 406              		.text
 407              	.Letext0:
 408              		.file 3 "src/../lib/hw.h"
 409              		.file 4 "src/../h/syscall_c.hpp"
 410              		.file 5 "src/../h/TCB.hpp"
 411              		.file 6 "src/../h/../h/ThreadQueue.hpp"
 412              		.file 7 "src/../h/KConsole.hpp"
 413              		.file 8 "src/../h/syscall_cpp.hpp"
 414              		.file 9 "src/../h/../test/printing.hpp"
 3417              		.align	3
 3420              	DW.ref.__gxx_personality_v0:
 3421 0000 00000000 		.dword	__gxx_personality_v0
 3421      00000000 
GAS LISTING /tmp/cct7gWFJ.s 			page 14


 3422              		.ident	"GCC: (Ubuntu 9.4.0-1ubuntu1~20.04) 9.4.0"
 3423              		.section	.note.GNU-stack,"",@progbits
GAS LISTING /tmp/cct7gWFJ.s 			page 15


DEFINED SYMBOLS
                            *ABS*:0000000000000000 main.cpp
     /tmp/cct7gWFJ.s:17     .text:0000000000000000 main
     /tmp/cct7gWFJ.s:21     .text:0000000000000000 .L0 
     /tmp/cct7gWFJ.s:3420   .data.rel.local.DW.ref.__gxx_personality_v0:0000000000000000 DW.ref.__gxx_personality_v0
     /tmp/cct7gWFJ.s:24     .text:0000000000000000 .L0 
     /tmp/cct7gWFJ.s:25     .text:0000000000000004 .L0 
     /tmp/cct7gWFJ.s:30     .text:0000000000000014 .L0 
     /tmp/cct7gWFJ.s:31     .text:0000000000000014 .L0 
     /tmp/cct7gWFJ.s:32     .text:0000000000000014 .L0 
     /tmp/cct7gWFJ.s:33     .text:0000000000000014 .L0 
     /tmp/cct7gWFJ.s:35     .text:0000000000000018 .L0 
     /tmp/cct7gWFJ.s:37     .text:0000000000000018 .L0 
     /tmp/cct7gWFJ.s:38     .text:0000000000000018 .L0 
     /tmp/cct7gWFJ.s:306    .text._ZN5Riscv7w_stvecEm:0000000000000000 _ZN5Riscv7w_stvecEm
     /tmp/cct7gWFJ.s:43     .text:000000000000002c .L0 
     /tmp/cct7gWFJ.s:44     .text:000000000000002c .L0 
     /tmp/cct7gWFJ.s:404    .bss:0000000000000000 semA
     /tmp/cct7gWFJ.s:58     .text:0000000000000050 .L0 
     /tmp/cct7gWFJ.s:62     .text:000000000000005c .L0 
     /tmp/cct7gWFJ.s:63     .text:000000000000005c .L0 
     /tmp/cct7gWFJ.s:66     .text:0000000000000064 .L0 
     /tmp/cct7gWFJ.s:67     .text:0000000000000064 .L0 
     /tmp/cct7gWFJ.s:69     .text:0000000000000068 .L0 
     /tmp/cct7gWFJ.s:70     .text:0000000000000068 .L0 
     /tmp/cct7gWFJ.s:72     .text:000000000000006c .L0 
     /tmp/cct7gWFJ.s:73     .text:000000000000006c .L0 
     /tmp/cct7gWFJ.s:75     .text:0000000000000070 .L0 
     /tmp/cct7gWFJ.s:76     .text:0000000000000070 .L0 
     /tmp/cct7gWFJ.s:78     .text:0000000000000074 .L0 
     /tmp/cct7gWFJ.s:79     .text:0000000000000074 .L0 
     /tmp/cct7gWFJ.s:81     .text:0000000000000078 .L0 
     /tmp/cct7gWFJ.s:82     .text:0000000000000078 .L0 
     /tmp/cct7gWFJ.s:84     .text:000000000000007c .L0 
     /tmp/cct7gWFJ.s:85     .text:000000000000007c .L0 
     /tmp/cct7gWFJ.s:92     .text:0000000000000094 .L0 
     /tmp/cct7gWFJ.s:93     .text:0000000000000094 .L0 
     /tmp/cct7gWFJ.s:97     .text:00000000000000a4 .L0 
     /tmp/cct7gWFJ.s:98     .text:00000000000000a4 .L0 
     /tmp/cct7gWFJ.s:230    .text:00000000000001dc _Z4idlePv
     /tmp/cct7gWFJ.s:105    .text:00000000000000c0 .L0 
     /tmp/cct7gWFJ.s:106    .text:00000000000000c0 .L0 
     /tmp/cct7gWFJ.s:250    .text:00000000000001ec _Z22kernelConsumerFunctionPv
     /tmp/cct7gWFJ.s:113    .text:00000000000000dc .L0 
     /tmp/cct7gWFJ.s:114    .text:00000000000000dc .L0 
     /tmp/cct7gWFJ.s:121    .text:00000000000000f8 .L0 
     /tmp/cct7gWFJ.s:122    .text:00000000000000f8 .L0 
     /tmp/cct7gWFJ.s:129    .text:0000000000000114 .L0 
     /tmp/cct7gWFJ.s:130    .text:0000000000000114 .L0 
     /tmp/cct7gWFJ.s:137    .text:0000000000000130 .L0 
     /tmp/cct7gWFJ.s:138    .text:0000000000000130 .L0 
     /tmp/cct7gWFJ.s:339    .text._ZN5Riscv10ms_sstatusEm:0000000000000000 _ZN5Riscv10ms_sstatusEm
     /tmp/cct7gWFJ.s:142    .text:000000000000013c .L0 
     /tmp/cct7gWFJ.s:143    .text:000000000000013c .L0 
     /tmp/cct7gWFJ.s:148    .text:000000000000014c .L0 
     /tmp/cct7gWFJ.s:149    .text:000000000000014c .L0 
     /tmp/cct7gWFJ.s:154    .text:000000000000015c .L0 
GAS LISTING /tmp/cct7gWFJ.s 			page 16


     /tmp/cct7gWFJ.s:155    .text:000000000000015c .L0 
     /tmp/cct7gWFJ.s:160    .text:000000000000016c .L0 
     /tmp/cct7gWFJ.s:161    .text:000000000000016c .L0 
     /tmp/cct7gWFJ.s:165    .text:000000000000017c .L0 
     /tmp/cct7gWFJ.s:166    .text:000000000000017c .L0 
     /tmp/cct7gWFJ.s:170    .text:000000000000018c .L0 
     /tmp/cct7gWFJ.s:171    .text:000000000000018c .L0 
     /tmp/cct7gWFJ.s:371    .text._ZN5Riscv10mc_sstatusEm:0000000000000000 _ZN5Riscv10mc_sstatusEm
     /tmp/cct7gWFJ.s:175    .text:0000000000000198 .L0 
     /tmp/cct7gWFJ.s:176    .text:0000000000000198 .L0 
     /tmp/cct7gWFJ.s:181    .text:00000000000001a4 .L0 
     /tmp/cct7gWFJ.s:191    .text:00000000000001c0 .L0 
     /tmp/cct7gWFJ.s:193    .text:00000000000001c8 .L0 
     /tmp/cct7gWFJ.s:195    .text:00000000000001cc .L0 
     /tmp/cct7gWFJ.s:196    .text:00000000000001cc .L0 
     /tmp/cct7gWFJ.s:198    .text:00000000000001d0 .L0 
     /tmp/cct7gWFJ.s:200    .text:00000000000001d4 .L0 
     /tmp/cct7gWFJ.s:202    .text:00000000000001d8 .L0 
     /tmp/cct7gWFJ.s:204    .text:00000000000001dc .L0 
     /tmp/cct7gWFJ.s:233    .text:00000000000001dc .L0 
     /tmp/cct7gWFJ.s:234    .text:00000000000001dc .L0 
     /tmp/cct7gWFJ.s:235    .text:00000000000001e0 .L0 
     /tmp/cct7gWFJ.s:237    .text:00000000000001e4 .L0 
     /tmp/cct7gWFJ.s:239    .text:00000000000001e8 .L0 
     /tmp/cct7gWFJ.s:242    .text:00000000000001e8 .L0 
     /tmp/cct7gWFJ.s:243    .text:00000000000001e8 .L0 
     /tmp/cct7gWFJ.s:244    .text:00000000000001ec .L0 
     /tmp/cct7gWFJ.s:253    .text:00000000000001ec .L0 
     /tmp/cct7gWFJ.s:254    .text:00000000000001ec .L0 
     /tmp/cct7gWFJ.s:255    .text:00000000000001f0 .L0 
     /tmp/cct7gWFJ.s:258    .text:00000000000001f8 .L0 
     /tmp/cct7gWFJ.s:259    .text:00000000000001f8 .L0 
     /tmp/cct7gWFJ.s:261    .text:00000000000001fc .L0 
     /tmp/cct7gWFJ.s:267    .text:0000000000000200 .L0 
     /tmp/cct7gWFJ.s:270    .text:000000000000020c .L0 
     /tmp/cct7gWFJ.s:272    .text:0000000000000210 .L0 
     /tmp/cct7gWFJ.s:273    .text:0000000000000210 .L0 
     /tmp/cct7gWFJ.s:281    .text:0000000000000224 .L0 
     /tmp/cct7gWFJ.s:283    .text:0000000000000224 .L0 
     /tmp/cct7gWFJ.s:284    .text:0000000000000224 .L0 
     /tmp/cct7gWFJ.s:285    .text:0000000000000224 .L0 
     /tmp/cct7gWFJ.s:289    .text:000000000000022c .L0 
     /tmp/cct7gWFJ.s:290    .text:000000000000022c .L0 
     /tmp/cct7gWFJ.s:291    .text:000000000000022c .L0 
     /tmp/cct7gWFJ.s:295    .text:000000000000023c .L0 
     /tmp/cct7gWFJ.s:299    .text:0000000000000248 .L0 
     /tmp/cct7gWFJ.s:310    .text._ZN5Riscv7w_stvecEm:0000000000000000 .L0 
     /tmp/cct7gWFJ.s:312    .text._ZN5Riscv7w_stvecEm:0000000000000000 .L0 
     /tmp/cct7gWFJ.s:313    .text._ZN5Riscv7w_stvecEm:0000000000000004 .L0 
     /tmp/cct7gWFJ.s:315    .text._ZN5Riscv7w_stvecEm:0000000000000008 .L0 
     /tmp/cct7gWFJ.s:317    .text._ZN5Riscv7w_stvecEm:000000000000000c .L0 
     /tmp/cct7gWFJ.s:319    .text._ZN5Riscv7w_stvecEm:000000000000000c .L0 
  src/../h/Riscv.hpp:115    .text._ZN5Riscv7w_stvecEm:000000000000000c .L0 
     /tmp/cct7gWFJ.s:326    .text._ZN5Riscv7w_stvecEm:0000000000000010 .L0 
     /tmp/cct7gWFJ.s:327    .text._ZN5Riscv7w_stvecEm:0000000000000014 .L0 
     /tmp/cct7gWFJ.s:328    .text._ZN5Riscv7w_stvecEm:0000000000000014 .L0 
     /tmp/cct7gWFJ.s:330    .text._ZN5Riscv7w_stvecEm:0000000000000018 .L0 
GAS LISTING /tmp/cct7gWFJ.s 			page 17


     /tmp/cct7gWFJ.s:332    .text._ZN5Riscv7w_stvecEm:000000000000001c .L0 
     /tmp/cct7gWFJ.s:342    .text._ZN5Riscv10ms_sstatusEm:0000000000000000 .L0 
     /tmp/cct7gWFJ.s:344    .text._ZN5Riscv10ms_sstatusEm:0000000000000000 .L0 
     /tmp/cct7gWFJ.s:345    .text._ZN5Riscv10ms_sstatusEm:0000000000000004 .L0 
     /tmp/cct7gWFJ.s:347    .text._ZN5Riscv10ms_sstatusEm:0000000000000008 .L0 
     /tmp/cct7gWFJ.s:349    .text._ZN5Riscv10ms_sstatusEm:000000000000000c .L0 
     /tmp/cct7gWFJ.s:351    .text._ZN5Riscv10ms_sstatusEm:000000000000000c .L0 
  src/../h/Riscv.hpp:137    .text._ZN5Riscv10ms_sstatusEm:000000000000000c .L0 
     /tmp/cct7gWFJ.s:358    .text._ZN5Riscv10ms_sstatusEm:0000000000000010 .L0 
     /tmp/cct7gWFJ.s:359    .text._ZN5Riscv10ms_sstatusEm:0000000000000014 .L0 
     /tmp/cct7gWFJ.s:360    .text._ZN5Riscv10ms_sstatusEm:0000000000000014 .L0 
     /tmp/cct7gWFJ.s:362    .text._ZN5Riscv10ms_sstatusEm:0000000000000018 .L0 
     /tmp/cct7gWFJ.s:364    .text._ZN5Riscv10ms_sstatusEm:000000000000001c .L0 
     /tmp/cct7gWFJ.s:374    .text._ZN5Riscv10mc_sstatusEm:0000000000000000 .L0 
     /tmp/cct7gWFJ.s:376    .text._ZN5Riscv10mc_sstatusEm:0000000000000000 .L0 
     /tmp/cct7gWFJ.s:377    .text._ZN5Riscv10mc_sstatusEm:0000000000000004 .L0 
     /tmp/cct7gWFJ.s:379    .text._ZN5Riscv10mc_sstatusEm:0000000000000008 .L0 
     /tmp/cct7gWFJ.s:381    .text._ZN5Riscv10mc_sstatusEm:000000000000000c .L0 
     /tmp/cct7gWFJ.s:383    .text._ZN5Riscv10mc_sstatusEm:000000000000000c .L0 
  src/../h/Riscv.hpp:141    .text._ZN5Riscv10mc_sstatusEm:000000000000000c .L0 
     /tmp/cct7gWFJ.s:390    .text._ZN5Riscv10mc_sstatusEm:0000000000000010 .L0 
     /tmp/cct7gWFJ.s:391    .text._ZN5Riscv10mc_sstatusEm:0000000000000014 .L0 
     /tmp/cct7gWFJ.s:392    .text._ZN5Riscv10mc_sstatusEm:0000000000000014 .L0 
     /tmp/cct7gWFJ.s:394    .text._ZN5Riscv10mc_sstatusEm:0000000000000018 .L0 
     /tmp/cct7gWFJ.s:396    .text._ZN5Riscv10mc_sstatusEm:000000000000001c .L0 
     /tmp/cct7gWFJ.s:415    .text:0000000000000248 .L0 
     /tmp/cct7gWFJ.s:335    .text._ZN5Riscv7w_stvecEm:000000000000001c .L0 
     /tmp/cct7gWFJ.s:367    .text._ZN5Riscv10ms_sstatusEm:000000000000001c .L0 
     /tmp/cct7gWFJ.s:400    .text._ZN5Riscv10mc_sstatusEm:000000000000001c .L0 
     /tmp/cct7gWFJ.s:38     .text:0000000000000018 .L0 
     /tmp/cct7gWFJ.s:58     .text:0000000000000050 .L0 
     /tmp/cct7gWFJ.s:94     .text:0000000000000098 .L0 
     /tmp/cct7gWFJ.s:100    .text:00000000000000ac .L0 
     /tmp/cct7gWFJ.s:108    .text:00000000000000c8 .L0 
     /tmp/cct7gWFJ.s:116    .text:00000000000000e4 .L0 
     /tmp/cct7gWFJ.s:124    .text:0000000000000100 .L0 
     /tmp/cct7gWFJ.s:132    .text:000000000000011c .L0 
     /tmp/cct7gWFJ.s:8      .rodata:0000000000000000 .LC0
     /tmp/cct7gWFJ.s:161    .text:000000000000016c .L0 
     /tmp/cct7gWFJ.s:11     .rodata:0000000000000018 .LC1
     /tmp/cct7gWFJ.s:166    .text:000000000000017c .L0 
     /tmp/cct7gWFJ.s:267    .text:0000000000000200 .L0 
     /tmp/cct7gWFJ.s:273    .text:0000000000000210 .L0 
     /tmp/cct7gWFJ.s:291    .text:000000000000022c .L0 
     /tmp/cct7gWFJ.s:189    .text:00000000000001c0 .L5
     /tmp/cct7gWFJ.s:240    .text:00000000000001e8 .L7
     /tmp/cct7gWFJ.s:280    .text:0000000000000224 .L11
     /tmp/cct7gWFJ.s:287    .text:000000000000022c .L10
     /tmp/cct7gWFJ.s:264    .text:0000000000000200 .L13
     /tmp/cct7gWFJ.s:45     .text:0000000000000030 .LEHB0
     /tmp/cct7gWFJ.s:18     .text:0000000000000000 .LFB48
     /tmp/cct7gWFJ.s:48     .text:0000000000000038 .LEHE0
     /tmp/cct7gWFJ.s:53     .text:0000000000000048 .LEHB1
     /tmp/cct7gWFJ.s:56     .text:0000000000000050 .LEHE1
     /tmp/cct7gWFJ.s:178    .text:00000000000001a0 .L4
     /tmp/cct7gWFJ.s:61     .text:000000000000005c .LEHB2
     /tmp/cct7gWFJ.s:188    .text:00000000000001c0 .LEHE2
GAS LISTING /tmp/cct7gWFJ.s 			page 18


     /tmp/cct7gWFJ.s:1979   .debug_abbrev:0000000000000000 .Ldebug_abbrev0
     /tmp/cct7gWFJ.s:3336   .debug_str:00000000000008fc .LASF183
     /tmp/cct7gWFJ.s:3122   .debug_str:0000000000000325 .LASF184
     /tmp/cct7gWFJ.s:3286   .debug_str:00000000000007b6 .LASF185
     /tmp/cct7gWFJ.s:3006   .debug_ranges:0000000000000000 .Ldebug_ranges0
     /tmp/cct7gWFJ.s:3024   .debug_line:0000000000000000 .Ldebug_line0
     /tmp/cct7gWFJ.s:3154   .debug_str:00000000000003ff .LASF0
     /tmp/cct7gWFJ.s:3180   .debug_str:00000000000004b6 .LASF1
     /tmp/cct7gWFJ.s:3270   .debug_str:000000000000073f .LASF2
     /tmp/cct7gWFJ.s:3108   .debug_str:00000000000002c3 .LASF3
     /tmp/cct7gWFJ.s:3278   .debug_str:0000000000000787 .LASF4
     /tmp/cct7gWFJ.s:3166   .debug_str:0000000000000445 .LASF5
     /tmp/cct7gWFJ.s:3034   .debug_str:000000000000004c .LASF6
     /tmp/cct7gWFJ.s:3242   .debug_str:0000000000000678 .LASF7
     /tmp/cct7gWFJ.s:3238   .debug_str:000000000000065f .LASF8
     /tmp/cct7gWFJ.s:3172   .debug_str:0000000000000486 .LASF9
     /tmp/cct7gWFJ.s:3130   .debug_str:000000000000034a .LASF10
     /tmp/cct7gWFJ.s:3140   .debug_str:0000000000000399 .LASF11
     /tmp/cct7gWFJ.s:3062   .debug_str:0000000000000126 .LASF12
     /tmp/cct7gWFJ.s:3118   .debug_str:000000000000030e .LASF13
     /tmp/cct7gWFJ.s:3074   .debug_str:0000000000000191 .LASF14
     /tmp/cct7gWFJ.s:3060   .debug_str:0000000000000116 .LASF15
     /tmp/cct7gWFJ.s:3308   .debug_str:0000000000000859 .LASF16
     /tmp/cct7gWFJ.s:3104   .debug_str:0000000000000292 .LASF17
     /tmp/cct7gWFJ.s:3298   .debug_str:0000000000000820 .LASF18
     /tmp/cct7gWFJ.s:3380   .debug_str:0000000000000ac6 .LASF57
     /tmp/cct7gWFJ.s:3366   .debug_str:0000000000000a7d .LASF186
     /tmp/cct7gWFJ.s:3110   .debug_str:00000000000002c9 .LASF19
     /tmp/cct7gWFJ.s:3334   .debug_str:00000000000008ef .LASF20
     /tmp/cct7gWFJ.s:3088   .debug_str:000000000000021b .LASF21
     /tmp/cct7gWFJ.s:3146   .debug_str:00000000000003bf .LASF22
     /tmp/cct7gWFJ.s:3152   .debug_str:00000000000003e7 .LASF24
     /tmp/cct7gWFJ.s:3284   .debug_str:00000000000007a8 .LASF23
     /tmp/cct7gWFJ.s:3106   .debug_str:00000000000002a8 .LASF25
     /tmp/cct7gWFJ.s:3158   .debug_str:000000000000041c .LASF26
     /tmp/cct7gWFJ.s:3388   .debug_str:0000000000000b0d .LASF27
     /tmp/cct7gWFJ.s:3354   .debug_str:0000000000000a40 .LASF28
     /tmp/cct7gWFJ.s:3348   .debug_str:0000000000000a09 .LASF30
     /tmp/cct7gWFJ.s:3266   .debug_str:000000000000072b .LASF32
     /tmp/cct7gWFJ.s:3226   .debug_str:00000000000005f0 .LASF34
     /tmp/cct7gWFJ.s:3248   .debug_str:0000000000000691 .LASF29
     /tmp/cct7gWFJ.s:3250   .debug_str:0000000000000698 .LASF31
     /tmp/cct7gWFJ.s:3214   .debug_str:0000000000000593 .LASF33
     /tmp/cct7gWFJ.s:3174   .debug_str:0000000000000499 .LASF35
     /tmp/cct7gWFJ.s:3392   .debug_str:0000000000000b35 .LASF36
     /tmp/cct7gWFJ.s:3338   .debug_str:00000000000009c0 .LASF37
     /tmp/cct7gWFJ.s:3212   .debug_str:000000000000058b .LASF38
     /tmp/cct7gWFJ.s:3224   .debug_str:00000000000005dc .LASF39
     /tmp/cct7gWFJ.s:3304   .debug_str:0000000000000845 .LASF40
     /tmp/cct7gWFJ.s:3280   .debug_str:000000000000078e .LASF41
     /tmp/cct7gWFJ.s:3282   .debug_str:00000000000007a1 .LASF42
     /tmp/cct7gWFJ.s:3066   .debug_str:000000000000013a .LASF43
     /tmp/cct7gWFJ.s:3102   .debug_str:000000000000028c .LASF44
     /tmp/cct7gWFJ.s:3150   .debug_str:00000000000003d5 .LASF45
     /tmp/cct7gWFJ.s:3160   .debug_str:0000000000000429 .LASF46
     /tmp/cct7gWFJ.s:3092   .debug_str:000000000000023f .LASF47
     /tmp/cct7gWFJ.s:3036   .debug_str:0000000000000053 .LASF48
GAS LISTING /tmp/cct7gWFJ.s 			page 19


     /tmp/cct7gWFJ.s:3274   .debug_str:0000000000000757 .LASF49
     /tmp/cct7gWFJ.s:3268   .debug_str:0000000000000734 .LASF50
     /tmp/cct7gWFJ.s:3408   .debug_str:0000000000000bb2 .LASF51
     /tmp/cct7gWFJ.s:3382   .debug_str:0000000000000acc .LASF52
     /tmp/cct7gWFJ.s:3394   .debug_str:0000000000000b3d .LASF53
     /tmp/cct7gWFJ.s:3376   .debug_str:0000000000000aa6 .LASF54
     /tmp/cct7gWFJ.s:3204   .debug_str:000000000000053c .LASF55
     /tmp/cct7gWFJ.s:3342   .debug_str:00000000000009de .LASF98
     /tmp/cct7gWFJ.s:3080   .debug_str:00000000000001d1 .LASF100
     /tmp/cct7gWFJ.s:3374   .debug_str:0000000000000a9d .LASF56
     /tmp/cct7gWFJ.s:3320   .debug_str:00000000000008a6 .LASF108
     /tmp/cct7gWFJ.s:3306   .debug_str:000000000000084c .LASF60
     /tmp/cct7gWFJ.s:3386   .debug_str:0000000000000aeb .LASF62
     /tmp/cct7gWFJ.s:3230   .debug_str:0000000000000626 .LASF187
     /tmp/cct7gWFJ.s:3404   .debug_str:0000000000000ba6 .LASF58
     /tmp/cct7gWFJ.s:3168   .debug_str:0000000000000457 .LASF59
     /tmp/cct7gWFJ.s:3322   .debug_str:00000000000008ae .LASF64
     /tmp/cct7gWFJ.s:3314   .debug_str:0000000000000886 .LASF66
     /tmp/cct7gWFJ.s:3048   .debug_str:00000000000000bb .LASF61
     /tmp/cct7gWFJ.s:3350   .debug_str:0000000000000a1e .LASF63
     /tmp/cct7gWFJ.s:3272   .debug_str:000000000000074d .LASF65
     /tmp/cct7gWFJ.s:3312   .debug_str:0000000000000872 .LASF67
     /tmp/cct7gWFJ.s:3326   .debug_str:00000000000008c6 .LASF68
     /tmp/cct7gWFJ.s:3114   .debug_str:00000000000002df .LASF69
     /tmp/cct7gWFJ.s:3188   .debug_str:00000000000004e2 .LASF70
     /tmp/cct7gWFJ.s:3254   .debug_str:00000000000006c0 .LASF71
     /tmp/cct7gWFJ.s:3096   .debug_str:0000000000000269 .LASF72
     /tmp/cct7gWFJ.s:3276   .debug_str:000000000000076f .LASF73
     /tmp/cct7gWFJ.s:3352   .debug_str:0000000000000a35 .LASF74
     /tmp/cct7gWFJ.s:3094   .debug_str:0000000000000251 .LASF75
     /tmp/cct7gWFJ.s:3412   .debug_str:0000000000000bd7 .LASF76
     /tmp/cct7gWFJ.s:3116   .debug_str:00000000000002f5 .LASF77
     /tmp/cct7gWFJ.s:3186   .debug_str:00000000000004dc .LASF78
     /tmp/cct7gWFJ.s:3264   .debug_str:000000000000071b .LASF79
     /tmp/cct7gWFJ.s:3098   .debug_str:0000000000000276 .LASF80
     /tmp/cct7gWFJ.s:3068   .debug_str:000000000000014d .LASF81
     /tmp/cct7gWFJ.s:3194   .debug_str:0000000000000501 .LASF82
     /tmp/cct7gWFJ.s:3040   .debug_str:000000000000007a .LASF83
     /tmp/cct7gWFJ.s:3332   .debug_str:00000000000008e7 .LASF84
     /tmp/cct7gWFJ.s:3056   .debug_str:00000000000000f6 .LASF85
     /tmp/cct7gWFJ.s:3346   .debug_str:0000000000000a01 .LASF86
     /tmp/cct7gWFJ.s:3058   .debug_str:0000000000000107 .LASF87
     /tmp/cct7gWFJ.s:3406   .debug_str:0000000000000bac .LASF88
     /tmp/cct7gWFJ.s:3358   .debug_str:0000000000000a4f .LASF89
     /tmp/cct7gWFJ.s:3340   .debug_str:00000000000009d4 .LASF90
     /tmp/cct7gWFJ.s:3296   .debug_str:0000000000000817 .LASF91
     /tmp/cct7gWFJ.s:3244   .debug_str:000000000000067f .LASF92
     /tmp/cct7gWFJ.s:3148   .debug_str:00000000000003ca .LASF93
     /tmp/cct7gWFJ.s:3294   .debug_str:0000000000000807 .LASF94
     /tmp/cct7gWFJ.s:3234   .debug_str:0000000000000635 .LASF95
     /tmp/cct7gWFJ.s:3028   .debug_str:0000000000000009 .LASF96
     /tmp/cct7gWFJ.s:3030   .debug_str:0000000000000016 .LASF97
     /tmp/cct7gWFJ.s:3400   .debug_str:0000000000000b81 .LASF188
     /tmp/cct7gWFJ.s:3082   .debug_str:00000000000001e9 .LASF99
     /tmp/cct7gWFJ.s:3032   .debug_str:0000000000000024 .LASF101
     /tmp/cct7gWFJ.s:3410   .debug_str:0000000000000bca .LASF102
     /tmp/cct7gWFJ.s:3136   .debug_str:0000000000000378 .LASF103
GAS LISTING /tmp/cct7gWFJ.s 			page 20


     /tmp/cct7gWFJ.s:3156   .debug_str:000000000000040c .LASF114
     /tmp/cct7gWFJ.s:3200   .debug_str:0000000000000518 .LASF115
     /tmp/cct7gWFJ.s:3132   .debug_str:000000000000035a .LASF104
     /tmp/cct7gWFJ.s:3300   .debug_str:0000000000000836 .LASF157
     /tmp/cct7gWFJ.s:3328   .debug_str:00000000000008d1 .LASF105
     /tmp/cct7gWFJ.s:3258   .debug_str:00000000000006e4 .LASF106
     /tmp/cct7gWFJ.s:3216   .debug_str:000000000000059a .LASF107
     /tmp/cct7gWFJ.s:3372   .debug_str:0000000000000a98 .LASF109
     /tmp/cct7gWFJ.s:3176   .debug_str:00000000000004ac .LASF110
     /tmp/cct7gWFJ.s:3064   .debug_str:0000000000000135 .LASF111
     /tmp/cct7gWFJ.s:3070   .debug_str:0000000000000160 .LASF112
     /tmp/cct7gWFJ.s:3084   .debug_str:00000000000001f7 .LASF113
     /tmp/cct7gWFJ.s:3076   .debug_str:00000000000001a1 .LASF116
     /tmp/cct7gWFJ.s:3044   .debug_str:00000000000000a1 .LASF117
     /tmp/cct7gWFJ.s:3178   .debug_str:00000000000004b1 .LASF118
     /tmp/cct7gWFJ.s:3042   .debug_str:000000000000008c .LASF119
     /tmp/cct7gWFJ.s:3134   .debug_str:0000000000000360 .LASF120
     /tmp/cct7gWFJ.s:3086   .debug_str:0000000000000211 .LASF189
     /tmp/cct7gWFJ.s:3344   .debug_str:00000000000009e9 .LASF190
     /tmp/cct7gWFJ.s:3324   .debug_str:00000000000008b9 .LASF121
     /tmp/cct7gWFJ.s:3384   .debug_str:0000000000000ad6 .LASF122
     /tmp/cct7gWFJ.s:3162   .debug_str:000000000000042f .LASF123
     /tmp/cct7gWFJ.s:3038   .debug_str:000000000000005e .LASF124
     /tmp/cct7gWFJ.s:3184   .debug_str:00000000000004d4 .LASF125
     /tmp/cct7gWFJ.s:3208   .debug_str:0000000000000557 .LASF126
     /tmp/cct7gWFJ.s:3052   .debug_str:00000000000000d1 .LASF127
     /tmp/cct7gWFJ.s:3054   .debug_str:00000000000000da .LASF128
     /tmp/cct7gWFJ.s:3078   .debug_str:00000000000001bc .LASF129
     /tmp/cct7gWFJ.s:3378   .debug_str:0000000000000ab0 .LASF130
     /tmp/cct7gWFJ.s:3198   .debug_str:000000000000050f .LASF131
     /tmp/cct7gWFJ.s:3288   .debug_str:00000000000007d4 .LASF132
     /tmp/cct7gWFJ.s:3220   .debug_str:00000000000005b2 .LASF133
     /tmp/cct7gWFJ.s:3240   .debug_str:0000000000000672 .LASF134
     /tmp/cct7gWFJ.s:3210   .debug_str:0000000000000576 .LASF135
     /tmp/cct7gWFJ.s:3330   .debug_str:00000000000008d6 .LASF136
     /tmp/cct7gWFJ.s:3310   .debug_str:0000000000000865 .LASF137
     /tmp/cct7gWFJ.s:3170   .debug_str:0000000000000469 .LASF138
     /tmp/cct7gWFJ.s:3362   .debug_str:0000000000000a60 .LASF139
     /tmp/cct7gWFJ.s:3398   .debug_str:0000000000000b5f .LASF140
     /tmp/cct7gWFJ.s:3164   .debug_str:0000000000000437 .LASF141
     /tmp/cct7gWFJ.s:3236   .debug_str:0000000000000641 .LASF142
     /tmp/cct7gWFJ.s:3144   .debug_str:00000000000003b2 .LASF143
     /tmp/cct7gWFJ.s:3262   .debug_str:00000000000006fe .LASF144
     /tmp/cct7gWFJ.s:3046   .debug_str:00000000000000a7 .LASF145
     /tmp/cct7gWFJ.s:3138   .debug_str:0000000000000384 .LASF146
     /tmp/cct7gWFJ.s:3128   .debug_str:000000000000033c .LASF147
     /tmp/cct7gWFJ.s:3192   .debug_str:00000000000004f4 .LASF148
     /tmp/cct7gWFJ.s:3256   .debug_str:00000000000006d8 .LASF149
     /tmp/cct7gWFJ.s:3026   .debug_str:0000000000000000 .LASF191
     /tmp/cct7gWFJ.s:3360   .debug_str:0000000000000a54 .LASF150
     /tmp/cct7gWFJ.s:3100   .debug_str:000000000000027f .LASF151
     /tmp/cct7gWFJ.s:3232   .debug_str:000000000000062b .LASF152
     /tmp/cct7gWFJ.s:3246   .debug_str:0000000000000687 .LASF153
     /tmp/cct7gWFJ.s:3182   .debug_str:00000000000004c9 .LASF154
     /tmp/cct7gWFJ.s:3364   .debug_str:0000000000000a72 .LASF155
     /tmp/cct7gWFJ.s:3290   .debug_str:00000000000007da .LASF156
     /tmp/cct7gWFJ.s:3302   .debug_str:000000000000083b .LASF158
GAS LISTING /tmp/cct7gWFJ.s 			page 21


     /tmp/cct7gWFJ.s:3206   .debug_str:0000000000000552 .LASF159
     /tmp/cct7gWFJ.s:3126   .debug_str:0000000000000337 .LASF160
     /tmp/cct7gWFJ.s:205    .text:00000000000001dc .LFE48
     /tmp/cct7gWFJ.s:3112   .debug_str:00000000000002d5 .LASF161
     /tmp/cct7gWFJ.s:3190   .debug_str:00000000000004ef .LASF162
     /tmp/cct7gWFJ.s:3316   .debug_str:000000000000089c .LASF163
     /tmp/cct7gWFJ.s:3318   .debug_str:00000000000008a1 .LASF164
     /tmp/cct7gWFJ.s:3120   .debug_str:000000000000031d .LASF165
     /tmp/cct7gWFJ.s:3252   .debug_str:00000000000006ab .LASF166
     /tmp/cct7gWFJ.s:41     .text:000000000000002c .LVL0
     /tmp/cct7gWFJ.s:47     .text:0000000000000038 .LVL1
     /tmp/cct7gWFJ.s:55     .text:0000000000000050 .LVL2
     /tmp/cct7gWFJ.s:64     .text:0000000000000064 .LVL3
     /tmp/cct7gWFJ.s:90     .text:0000000000000094 .LVL4
     /tmp/cct7gWFJ.s:103    .text:00000000000000c0 .LVL5
     /tmp/cct7gWFJ.s:111    .text:00000000000000dc .LVL6
     /tmp/cct7gWFJ.s:119    .text:00000000000000f8 .LVL7
     /tmp/cct7gWFJ.s:127    .text:0000000000000114 .LVL8
     /tmp/cct7gWFJ.s:135    .text:0000000000000130 .LVL9
     /tmp/cct7gWFJ.s:140    .text:000000000000013c .LVL10
     /tmp/cct7gWFJ.s:146    .text:000000000000014c .LVL11
     /tmp/cct7gWFJ.s:152    .text:000000000000015c .LVL12
     /tmp/cct7gWFJ.s:158    .text:000000000000016c .LVL13
     /tmp/cct7gWFJ.s:163    .text:000000000000017c .LVL14
     /tmp/cct7gWFJ.s:168    .text:000000000000018c .LVL15
     /tmp/cct7gWFJ.s:173    .text:0000000000000198 .LVL16
     /tmp/cct7gWFJ.s:183    .text:00000000000001b0 .LVL17
     /tmp/cct7gWFJ.s:187    .text:00000000000001c0 .LVL18
     /tmp/cct7gWFJ.s:3202   .debug_str:0000000000000525 .LASF167
     /tmp/cct7gWFJ.s:3292   .debug_str:00000000000007ea .LASF168
     /tmp/cct7gWFJ.s:251    .text:00000000000001ec .LFB47
     /tmp/cct7gWFJ.s:300    .text:0000000000000248 .LFE47
     /tmp/cct7gWFJ.s:2976   .debug_loc:0000000000000000 .LLST0
     /tmp/cct7gWFJ.s:277    .text:0000000000000224 .LVL21
     /tmp/cct7gWFJ.s:286    .text:000000000000022c .LVL22
     /tmp/cct7gWFJ.s:3124   .debug_str:0000000000000332 .LASF169
     /tmp/cct7gWFJ.s:3050   .debug_str:00000000000000c7 .LASF170
     /tmp/cct7gWFJ.s:231    .text:00000000000001dc .LFB46
     /tmp/cct7gWFJ.s:245    .text:00000000000001ec .LFE46
     /tmp/cct7gWFJ.s:372    .text._ZN5Riscv10mc_sstatusEm:0000000000000000 .LFB11
     /tmp/cct7gWFJ.s:397    .text._ZN5Riscv10mc_sstatusEm:000000000000001c .LFE11
     /tmp/cct7gWFJ.s:3368   .debug_str:0000000000000a8c .LASF171
     /tmp/cct7gWFJ.s:340    .text._ZN5Riscv10ms_sstatusEm:0000000000000000 .LFB10
     /tmp/cct7gWFJ.s:365    .text._ZN5Riscv10ms_sstatusEm:000000000000001c .LFE10
     /tmp/cct7gWFJ.s:307    .text._ZN5Riscv7w_stvecEm:0000000000000000 .LFB5
     /tmp/cct7gWFJ.s:333    .text._ZN5Riscv7w_stvecEm:000000000000001c .LFE5
     /tmp/cct7gWFJ.s:3196   .debug_str:0000000000000509 .LASF172
     /tmp/cct7gWFJ.s:3356   .debug_str:0000000000000a49 .LASF173
     /tmp/cct7gWFJ.s:3228   .debug_str:0000000000000605 .LASF174
     /tmp/cct7gWFJ.s:3390   .debug_str:0000000000000b27 .LASF175
     /tmp/cct7gWFJ.s:3222   .debug_str:00000000000005c7 .LASF176
     /tmp/cct7gWFJ.s:3218   .debug_str:00000000000005a6 .LASF177
     /tmp/cct7gWFJ.s:3072   .debug_str:000000000000017e .LASF178
     /tmp/cct7gWFJ.s:3396   .debug_str:0000000000000b53 .LASF179
     /tmp/cct7gWFJ.s:3370   .debug_str:0000000000000a91 .LASF180
     /tmp/cct7gWFJ.s:3402   .debug_str:0000000000000b97 .LASF192
     /tmp/cct7gWFJ.s:3090   .debug_str:0000000000000227 .LASF193
GAS LISTING /tmp/cct7gWFJ.s 			page 22


     /tmp/cct7gWFJ.s:3260   .debug_str:00000000000006e9 .LASF181
     /tmp/cct7gWFJ.s:3142   .debug_str:00000000000003a7 .LASF182
     /tmp/cct7gWFJ.s:263    .text:0000000000000200 .LVL19
     /tmp/cct7gWFJ.s:275    .text:000000000000021c .LVL20
     /tmp/cct7gWFJ.s:416    .debug_info:0000000000000000 .Ldebug_info0
     /tmp/cct7gWFJ.s:5      .text:0000000000000000 .Ltext0
     /tmp/cct7gWFJ.s:407    .text:0000000000000248 .Letext0
     /tmp/cct7gWFJ.s:265    .text:0000000000000200 .LBB2
     /tmp/cct7gWFJ.s:278    .text:0000000000000224 .LBE2
     /tmp/cct7gWFJ.s:282    .text:0000000000000224 .LBB3
     /tmp/cct7gWFJ.s:298    .text:0000000000000248 .LBE3
     /tmp/cct7gWFJ.s:208    .gcc_except_table:0000000000000000 .LLSDA48

UNDEFINED SYMBOLS
interruptHandler
_Znwm
_ZN9SemaphoreC1Ej
_ZN8KConsole12initKConsoleEv
_Z13thread_createPP3TCBPFvPvES2_
_ZN3TCB7runningE
_Z5nit1fPv
_Z5nit2fPv
_Z5nit3fPv
_Z11thread_joinP3TCB
_Z11printStringPKc
_ZdlPv
_Unwind_Resume
__gxx_personality_v0
_ZN8KConsole2drE
_ZN8KConsole20outputBufferHasSpaceE
_Z10sem_signalP4KSem
_ZN8KConsole13getFromOutputEv
_ZN8KConsole2srE
