GAS LISTING /tmp/cc4Eb2ab.s 			page 1


   1              		.file	"main.cpp"
   2              		.option pic
   3              		.option norelax
   4              		.text
   5              	.Ltext0:
   6              		.align	2
   7              		.globl	_Z4idlePv
   9              	_Z4idlePv:
  10              	.LFB46:
  11              		.file 1 "src/main.cpp"
   1:src/main.cpp  **** #include "../lib/hw.h"
   2:src/main.cpp  **** #include "../h/helper.hpp"
   3:src/main.cpp  **** #include "../h/Riscv.hpp"
   4:src/main.cpp  **** #include "../h/syscall_c.hpp"
   5:src/main.cpp  **** #include "../h/syscall_cpp.hpp"
   6:src/main.cpp  **** #include "../h/TCB.hpp"
   7:src/main.cpp  **** #include "../h/ThreadQueue.hpp"
   8:src/main.cpp  **** //#include "../h/KSem.hpp"
   9:src/main.cpp  **** #include "../h/KConsole.hpp"
  10:src/main.cpp  **** 
  11:src/main.cpp  **** #include "../test/printing.hpp"
  12:src/main.cpp  **** #include "../h/KMemory.hpp"
  13:src/main.cpp  **** 
  14:src/main.cpp  **** 
  15:src/main.cpp  **** extern "C" void interruptHandler();
  16:src/main.cpp  **** 
  17:src/main.cpp  **** void userMain();
  18:src/main.cpp  **** 
  19:src/main.cpp  **** void idle(void*) {
  12              		.loc 1 19 18
  13              		.cfi_startproc
  14 0000 130101FF 		addi	sp,sp,-16
  15              		.cfi_def_cfa_offset 16
  16 0004 23341100 		sd	ra,8(sp)
  17 0008 23308100 		sd	s0,0(sp)
  18              		.cfi_offset 1, -8
  19              		.cfi_offset 8, -16
  20 000c 13040101 		addi	s0,sp,16
  21              		.cfi_def_cfa 8, 0
  22              	.L2:
  20:src/main.cpp  ****     while (1) { thread_dispatch(); }
  23              		.loc 1 20 5 discriminator 1
  24              		.loc 1 20 17 discriminator 1
  25              		.loc 1 20 32 is_stmt 0 discriminator 1
  26 0010 97000000 		call	_Z15thread_dispatchv@plt
  26      E7800000 
  27              	.LVL0:
  28              		.loc 1 20 5 is_stmt 1 discriminator 1
  29 0018 6FF09FFF 		j	.L2
  30              		.cfi_endproc
  31              	.LFE46:
  33              		.align	2
  34              		.globl	_Z22kernelConsumerFunctionPv
  36              	_Z22kernelConsumerFunctionPv:
  37              	.LFB47:
  21:src/main.cpp  **** }
  22:src/main.cpp  **** 
GAS LISTING /tmp/cc4Eb2ab.s 			page 2


  23:src/main.cpp  **** void kernelConsumerFunction(void*) {
  38              		.loc 1 23 36
  39              		.cfi_startproc
  40 001c 130101FF 		addi	sp,sp,-16
  41              		.cfi_def_cfa_offset 16
  42 0020 23341100 		sd	ra,8(sp)
  43 0024 23308100 		sd	s0,0(sp)
  44              		.cfi_offset 1, -8
  45              		.cfi_offset 8, -16
  46 0028 13040101 		addi	s0,sp,16
  47              		.cfi_def_cfa 8, 0
  48 002c 6F008002 		j	.L6
  49              	.LVL1:
  50              	.L8:
  51              	.LBB10:
  24:src/main.cpp  ****     while (1) {
  25:src/main.cpp  ****         char c = KConsole::getFromOutput();
  26:src/main.cpp  ****         while (!(*KConsole::sr & CONSOLE_TX_STATUS_BIT)) {}
  27:src/main.cpp  ****         *KConsole::dr = c;
  52              		.loc 1 27 9
  53 0030 97070000 		la	a5,_ZN8KConsole2drE
  53      83B70700 
  54 0038 83B70700 		ld	a5,0(a5)
  55              		.loc 1 27 23 is_stmt 0
  56 003c 2380A700 		sb	a0,0(a5)
  28:src/main.cpp  ****         sem_signal(KConsole::outputBufferHasSpace);
  57              		.loc 1 28 9 is_stmt 1
  58              		.loc 1 28 19 is_stmt 0
  59 0040 97070000 		la	a5,_ZN8KConsole20outputBufferHasSpaceE
  59      83B70700 
  60 0048 03B50700 		ld	a0,0(a5)
  61              	.LVL2:
  62 004c 97000000 		call	_Z10sem_signalP4KSem@plt
  62      E7800000 
  63              	.LVL3:
  64              	.LBE10:
  24:src/main.cpp  ****     while (1) {
  65              		.loc 1 24 5 is_stmt 1
  66              	.L6:
  24:src/main.cpp  ****     while (1) {
  67              		.loc 1 24 5
  68              	.LBB11:
  25:src/main.cpp  ****         while (!(*KConsole::sr & CONSOLE_TX_STATUS_BIT)) {}
  69              		.loc 1 25 9
  25:src/main.cpp  ****         while (!(*KConsole::sr & CONSOLE_TX_STATUS_BIT)) {}
  70              		.loc 1 25 41 is_stmt 0
  71 0054 97000000 		call	_ZN8KConsole13getFromOutputEv@plt
  71      E7800000 
  72              	.LVL4:
  73              	.L5:
  26:src/main.cpp  ****         *KConsole::dr = c;
  74              		.loc 1 26 9 is_stmt 1
  26:src/main.cpp  ****         *KConsole::dr = c;
  75              		.loc 1 26 16
  26:src/main.cpp  ****         *KConsole::dr = c;
  76              		.loc 1 26 18 is_stmt 0
  77 005c 97070000 		la	a5,_ZN8KConsole2srE
GAS LISTING /tmp/cc4Eb2ab.s 			page 3


  77      83B70700 
  78 0064 83B70700 		ld	a5,0(a5)
  79 0068 83C70700 		lbu	a5,0(a5)
  26:src/main.cpp  ****         *KConsole::dr = c;
  80              		.loc 1 26 16
  81 006c 93F70702 		andi	a5,a5,32
  82 0070 E38607FE 		beqz	a5,.L5
  83 0074 6FF0DFFB 		j	.L8
  84              	.LBE11:
  85              		.cfi_endproc
  86              	.LFE47:
  88              		.align	2
  89              		.globl	_Z5main2v
  91              	_Z5main2v:
  92              	.LFB48:
  29:src/main.cpp  ****     }
  30:src/main.cpp  **** 
  31:src/main.cpp  **** }
  32:src/main.cpp  **** 
  33:src/main.cpp  **** int main2() {
  93              		.loc 1 33 13 is_stmt 1
  94              		.cfi_startproc
  95 0078 130101FD 		addi	sp,sp,-48
  96              		.cfi_def_cfa_offset 48
  97 007c 23341102 		sd	ra,40(sp)
  98 0080 23308102 		sd	s0,32(sp)
  99              		.cfi_offset 1, -8
 100              		.cfi_offset 8, -16
 101 0084 13040103 		addi	s0,sp,48
 102              		.cfi_def_cfa 8, 0
  34:src/main.cpp  ****     //postavljanje adrese prekidne rutine u stvec
  35:src/main.cpp  ****     __asm__ volatile("csrw stvec, %[handler]": :[handler] "r"(&interruptHandler));
 103              		.loc 1 35 5
 104              		.loc 1 35 82 is_stmt 0
 105 0088 97070000 		la	a5,interruptHandler
 105      83B70700 
 106              	#APP
 107              	# 35 "src/main.cpp" 1
  36              	
  37:src/main.cpp  ****     //inicijalizacija alokatora memorije
  38:src/main.cpp  ****     KMemory::initializeMemory();
 108              		csrw stvec, a5
 109              	# 0 "" 2
 110              		.loc 1 38 5 is_stmt 1
 111              		.loc 1 38 30 is_stmt 0
 112              	#NO_APP
 113 0094 97000000 		call	_ZN7KMemory16initializeMemoryEv@plt
 113      E7800000 
 114              	.LVL5:
  39:src/main.cpp  **** 
  40:src/main.cpp  ****     //inicijalizacija komunikacije sa konzolom
  41:src/main.cpp  ****     KConsole::initKConsole();
 115              		.loc 1 41 5 is_stmt 1
 116              		.loc 1 41 27 is_stmt 0
 117 009c 97000000 		call	_ZN8KConsole12initKConsoleEv@plt
 117      E7800000 
 118              	.LVL6:
GAS LISTING /tmp/cc4Eb2ab.s 			page 4


  42:src/main.cpp  **** 
  43:src/main.cpp  ****     //pravljenje niti
  44:src/main.cpp  ****     thread_t mainHandle;
 119              		.loc 1 44 5 is_stmt 1
  45:src/main.cpp  ****     thread_t userHandle;
 120              		.loc 1 45 5
  46:src/main.cpp  ****     thread_t idleHandle;
 121              		.loc 1 46 5
  47:src/main.cpp  ****     thread_t consoleOutputHandle;
 122              		.loc 1 47 5
  48:src/main.cpp  ****     thread_create(&mainHandle, nullptr, nullptr);
 123              		.loc 1 48 5
 124              		.loc 1 48 18 is_stmt 0
 125 00a4 13060000 		li	a2,0
 126 00a8 93050000 		li	a1,0
 127 00ac 130584FE 		addi	a0,s0,-24
 128 00b0 97000000 		call	_Z13thread_createPP3TCBPFvPvES2_@plt
 128      E7800000 
 129              	.LVL7:
  49:src/main.cpp  ****     TCB::setRunning(mainHandle);
 130              		.loc 1 49 5 is_stmt 1
 131              		.loc 1 49 20 is_stmt 0
 132 00b8 833784FE 		ld	a5,-24(s0)
 133              	.LVL8:
 134              	.LBB12:
 135              	.LBB13:
 136              		.file 2 "src/../h/TCB.hpp"
   1:src/../h/TCB.hpp **** //
   2:src/../h/TCB.hpp **** // Created by os on 5/23/23.
   3:src/../h/TCB.hpp **** //
   4:src/../h/TCB.hpp **** 
   5:src/../h/TCB.hpp **** #ifndef PROJEKAT2023_TCB_HPP
   6:src/../h/TCB.hpp **** #define PROJEKAT2023_TCB_HPP
   7:src/../h/TCB.hpp **** 
   8:src/../h/TCB.hpp **** #include "../lib/hw.h"
   9:src/../h/TCB.hpp **** #include "../h/ThreadQueue.hpp"
  10:src/../h/TCB.hpp **** 
  11:src/../h/TCB.hpp **** class TCB {
  12:src/../h/TCB.hpp **** public:
  13:src/../h/TCB.hpp ****     friend class Scheduler;
  14:src/../h/TCB.hpp **** 
  15:src/../h/TCB.hpp ****     using Body = void (*)(void*);
  16:src/../h/TCB.hpp **** 
  17:src/../h/TCB.hpp ****     enum ThreadStatus {
  18:src/../h/TCB.hpp ****         CREATED, ACTIVE, BLOCKED, JOINING, SLEEPING, FINISHED
  19:src/../h/TCB.hpp ****     };
  20:src/../h/TCB.hpp **** 
  21:src/../h/TCB.hpp ****     void setStatus(ThreadStatus stat) { this->status = stat; }
  22:src/../h/TCB.hpp **** 
  23:src/../h/TCB.hpp ****     ThreadStatus getStatus() { return this->status; }
  24:src/../h/TCB.hpp **** 
  25:src/../h/TCB.hpp ****     static TCB* createThread(Body function, void* args, uint64* stack);
  26:src/../h/TCB.hpp **** 
  27:src/../h/TCB.hpp ****     static void start(TCB* newTcb);
  28:src/../h/TCB.hpp **** 
  29:src/../h/TCB.hpp ****     uint64 getTimeSlice() { return timeSlice; }
  30:src/../h/TCB.hpp **** 
GAS LISTING /tmp/cc4Eb2ab.s 			page 5


  31:src/../h/TCB.hpp ****     void setTimeSlice(uint64 value) { timeSlice = value; }
  32:src/../h/TCB.hpp **** 
  33:src/../h/TCB.hpp ****     Body getBody() { return threadFunction; }
  34:src/../h/TCB.hpp **** 
  35:src/../h/TCB.hpp ****     static TCB* getRunning() { return running; }
  36:src/../h/TCB.hpp **** 
  37:src/../h/TCB.hpp ****     static void setRunning(TCB* newRunning) { running = newRunning; }
 137              		.loc 2 37 47 is_stmt 1
 138              		.loc 2 37 55 is_stmt 0
 139 00bc 17070000 		la	a4,_ZN3TCB7runningE
 139      03370700 
 140 00c4 2330F700 		sd	a5,0(a4)
 141              	.LVL9:
 142              	.LBE13:
 143              	.LBE12:
  50:src/main.cpp  ****     mainHandle->setStatus(TCB::ACTIVE);
 144              		.loc 1 50 5 is_stmt 1
 145              	.LBB14:
 146              	.LBB15:
  21:src/../h/TCB.hpp **** 
 147              		.loc 2 21 41
  21:src/../h/TCB.hpp **** 
 148              		.loc 2 21 54 is_stmt 0
 149 00c8 13071000 		li	a4,1
 150 00cc 23ACE704 		sw	a4,88(a5)
 151              	.LVL10:
 152              	.LBE15:
 153              	.LBE14:
  51:src/main.cpp  ****     thread_create(&userHandle, (TCB::Body) userMain, nullptr);
 154              		.loc 1 51 5 is_stmt 1
 155              		.loc 1 51 18 is_stmt 0
 156 00d0 13060000 		li	a2,0
 157 00d4 97050000 		la	a1,_Z8userMainv
 157      83B50500 
 158 00dc 130504FE 		addi	a0,s0,-32
 159 00e0 97000000 		call	_Z13thread_createPP3TCBPFvPvES2_@plt
 159      E7800000 
 160              	.LVL11:
  52:src/main.cpp  ****     thread_create(&consoleOutputHandle, kernelConsumerFunction, nullptr);
 161              		.loc 1 52 5 is_stmt 1
 162              		.loc 1 52 18 is_stmt 0
 163 00e8 13060000 		li	a2,0
 164 00ec 97050000 		lla	a1,_Z22kernelConsumerFunctionPv
 164      93850500 
 165 00f4 130504FD 		addi	a0,s0,-48
 166 00f8 97000000 		call	_Z13thread_createPP3TCBPFvPvES2_@plt
 166      E7800000 
 167              	.LVL12:
  53:src/main.cpp  ****     thread_create(&idleHandle, idle, nullptr);
 168              		.loc 1 53 5 is_stmt 1
 169              		.loc 1 53 18 is_stmt 0
 170 0100 13060000 		li	a2,0
 171 0104 97050000 		lla	a1,_Z4idlePv
 171      93850500 
 172 010c 130584FD 		addi	a0,s0,-40
 173 0110 97000000 		call	_Z13thread_createPP3TCBPFvPvES2_@plt
 173      E7800000 
GAS LISTING /tmp/cc4Eb2ab.s 			page 6


 174              	.LVL13:
  54:src/main.cpp  **** 
  55:src/main.cpp  ****     //omogucavanje prekida
  56:src/main.cpp  ****     Riscv::ms_sstatus(Riscv::SSTATUS_SIE);
 175              		.loc 1 56 5 is_stmt 1
 176              	.LBB16:
 177              	.LBB17:
 178              		.file 3 "src/../h/Riscv.hpp"
   1:src/../h/Riscv.hpp **** //
   2:src/../h/Riscv.hpp **** // Created by os on 5/17/23.
   3:src/../h/Riscv.hpp **** //
   4:src/../h/Riscv.hpp **** 
   5:src/../h/Riscv.hpp **** #ifndef PROJEKAT2023_RISCV_HPP
   6:src/../h/Riscv.hpp **** #define PROJEKAT2023_RISCV_HPP
   7:src/../h/Riscv.hpp **** 
   8:src/../h/Riscv.hpp **** #include "../lib/hw.h"
   9:src/../h/Riscv.hpp **** 
  10:src/../h/Riscv.hpp **** class Riscv {
  11:src/../h/Riscv.hpp **** public:
  12:src/../h/Riscv.hpp **** 
  13:src/../h/Riscv.hpp **** 	static void returnFromInterrupt();
  14:src/../h/Riscv.hpp **** 
  15:src/../h/Riscv.hpp **** 	//read scause
  16:src/../h/Riscv.hpp **** 	static uint64 r_scause();
  17:src/../h/Riscv.hpp **** 
  18:src/../h/Riscv.hpp **** 	//write scause
  19:src/../h/Riscv.hpp **** 	static void w_scause(uint64 scause);
  20:src/../h/Riscv.hpp **** 
  21:src/../h/Riscv.hpp **** 	//read sepc
  22:src/../h/Riscv.hpp **** 	static uint64 r_sepc();
  23:src/../h/Riscv.hpp **** 
  24:src/../h/Riscv.hpp **** 	//write sepc
  25:src/../h/Riscv.hpp **** 	static void w_sepc(uint64 sepc);
  26:src/../h/Riscv.hpp **** 
  27:src/../h/Riscv.hpp **** 	//read stvec
  28:src/../h/Riscv.hpp **** 	static uint64 r_stvec();
  29:src/../h/Riscv.hpp **** 
  30:src/../h/Riscv.hpp **** 	//write stvec
  31:src/../h/Riscv.hpp **** 	static void w_stvec(uint64 stvec);
  32:src/../h/Riscv.hpp **** 
  33:src/../h/Riscv.hpp **** 	enum BitMaskSip {
  34:src/../h/Riscv.hpp **** 		//postoji zahtev za softverski prekid
  35:src/../h/Riscv.hpp **** 		SIP_SSIP = (1 << 1),
  36:src/../h/Riscv.hpp **** 		//postoji prekid od tajmera
  37:src/../h/Riscv.hpp **** 		SIP_STIP = (1 << 5),
  38:src/../h/Riscv.hpp **** 		//postoji zahtev za spoljasnji hardverski prekid
  39:src/../h/Riscv.hpp **** 		SIP_SEIP = (1 << 9)
  40:src/../h/Riscv.hpp **** 	};
  41:src/../h/Riscv.hpp **** 
  42:src/../h/Riscv.hpp **** 	//mask set sip
  43:src/../h/Riscv.hpp **** 	static void ms_sip(uint64 mask);
  44:src/../h/Riscv.hpp **** 
  45:src/../h/Riscv.hpp **** 	//mask clear sip
  46:src/../h/Riscv.hpp **** 	static void mc_sip(uint64 mask);
  47:src/../h/Riscv.hpp **** 
  48:src/../h/Riscv.hpp **** 	//read sip
  49:src/../h/Riscv.hpp **** 	static uint64 r_sip();
GAS LISTING /tmp/cc4Eb2ab.s 			page 7


  50:src/../h/Riscv.hpp **** 
  51:src/../h/Riscv.hpp **** 	//write sip
  52:src/../h/Riscv.hpp **** 	static void w_sip(uint64 sip);
  53:src/../h/Riscv.hpp **** 
  54:src/../h/Riscv.hpp **** 	//kada se pozove sret, SIE dobija vrednost SPIE, SPIE se postavlja na 1,
  55:src/../h/Riscv.hpp **** 	//rezim se postavlja na osnovu SPP bita, SPP se postavlja na 0
  56:src/../h/Riscv.hpp **** 	enum BitMaskSstatus {
  57:src/../h/Riscv.hpp **** 		//1 - dozvoljeni prekidi; 0- nedozvoljeni prekidi; igonrise se u korisnickom rezimu
  58:src/../h/Riscv.hpp **** 		SSTATUS_SIE = (1 << 1),
  59:src/../h/Riscv.hpp **** 		//prethodna vrednost bita SIE
  60:src/../h/Riscv.hpp **** 		SSTATUS_SPIE = (1 << 5),
  61:src/../h/Riscv.hpp **** 		//iz kog rezima se desio skok; 0 - iz korisnickog; 1 - iz sistemskog
  62:src/../h/Riscv.hpp **** 		SSTATUS_SPP = (1 << 8)
  63:src/../h/Riscv.hpp **** 	};
  64:src/../h/Riscv.hpp **** 
  65:src/../h/Riscv.hpp **** 	//mask set sstatus
  66:src/../h/Riscv.hpp **** 	static void ms_sstatus(uint64 mask);
  67:src/../h/Riscv.hpp **** 
  68:src/../h/Riscv.hpp **** 	//mask clear sstatus
  69:src/../h/Riscv.hpp **** 	static void mc_sstatus(uint64 mask);
  70:src/../h/Riscv.hpp **** 
  71:src/../h/Riscv.hpp **** 	//read sstatus
  72:src/../h/Riscv.hpp **** 	static uint64 r_sstatus();
  73:src/../h/Riscv.hpp **** 
  74:src/../h/Riscv.hpp **** 	//write sstatus
  75:src/../h/Riscv.hpp **** 	static void w_sstatus(uint64 sstatus);
  76:src/../h/Riscv.hpp **** 
  77:src/../h/Riscv.hpp **** 	//upisuje kod sistemskog poziva u registar a0
  78:src/../h/Riscv.hpp **** 	static void loadOpCode(uint64 opCode);
  79:src/../h/Riscv.hpp **** 
  80:src/../h/Riscv.hpp **** };
  81:src/../h/Riscv.hpp **** 
  82:src/../h/Riscv.hpp **** inline uint64 Riscv::r_scause() {
  83:src/../h/Riscv.hpp **** 	uint64 volatile scause;
  84:src/../h/Riscv.hpp **** 	__asm__ volatile("csrr %[scause], scause": [scause] "=r"(scause));
  85:src/../h/Riscv.hpp **** 	return scause;
  86:src/../h/Riscv.hpp **** }
  87:src/../h/Riscv.hpp **** 
  88:src/../h/Riscv.hpp **** inline void Riscv::w_scause(uint64 scause) {
  89:src/../h/Riscv.hpp **** 	__asm__ volatile("csrw scause, %[scause]": :[scause] "r"(scause));
  90:src/../h/Riscv.hpp **** }
  91:src/../h/Riscv.hpp **** 
  92:src/../h/Riscv.hpp **** inline uint64 Riscv::r_sepc() {
  93:src/../h/Riscv.hpp **** 	uint64 volatile sepc;
  94:src/../h/Riscv.hpp **** 	__asm__ volatile("csrr %[sepc], sepc": [sepc] "=r"(sepc));
  95:src/../h/Riscv.hpp **** 	return sepc;
  96:src/../h/Riscv.hpp **** }
  97:src/../h/Riscv.hpp **** 
  98:src/../h/Riscv.hpp **** inline void Riscv::w_sepc(uint64 sepc) {
  99:src/../h/Riscv.hpp **** 	__asm__ volatile("csrw sepc, %[sepc]": :[sepc] "r"(sepc));
 100:src/../h/Riscv.hpp **** }
 101:src/../h/Riscv.hpp **** 
 102:src/../h/Riscv.hpp **** inline uint64 Riscv::r_stvec() {
 103:src/../h/Riscv.hpp **** 	uint64 volatile stvec;
 104:src/../h/Riscv.hpp **** 	__asm__ volatile("csrr %[stvec], stvec": [stvec] "=r"(stvec));
 105:src/../h/Riscv.hpp **** 	return stvec;
 106:src/../h/Riscv.hpp **** }
GAS LISTING /tmp/cc4Eb2ab.s 			page 8


 107:src/../h/Riscv.hpp **** 
 108:src/../h/Riscv.hpp **** inline void Riscv::w_stvec(uint64 stvec) {
 109:src/../h/Riscv.hpp **** 	__asm__ volatile("csrw stvec, %[stvec]": :[stvec] "r"(stvec));
 110:src/../h/Riscv.hpp **** }
 111:src/../h/Riscv.hpp **** 
 112:src/../h/Riscv.hpp **** inline void Riscv::ms_sip(uint64 mask) {
 113:src/../h/Riscv.hpp **** 	__asm__ volatile("csrs sip, %[mask]": :[mask] "r"(mask));
 114:src/../h/Riscv.hpp **** }
 115:src/../h/Riscv.hpp **** 
 116:src/../h/Riscv.hpp **** inline void Riscv::mc_sip(uint64 mask) {
 117:src/../h/Riscv.hpp **** 	__asm__ volatile("csrc sip, %[mask]": :[mask] "r"(mask));
 118:src/../h/Riscv.hpp **** }
 119:src/../h/Riscv.hpp **** 
 120:src/../h/Riscv.hpp **** inline uint64 Riscv::r_sip() {
 121:src/../h/Riscv.hpp **** 	uint64 volatile sip;
 122:src/../h/Riscv.hpp **** 	__asm__ volatile("csrr %[sip], sip": [sip] "=r"(sip));
 123:src/../h/Riscv.hpp **** 	return sip;
 124:src/../h/Riscv.hpp **** }
 125:src/../h/Riscv.hpp **** 
 126:src/../h/Riscv.hpp **** inline void Riscv::w_sip(uint64 sip) {
 127:src/../h/Riscv.hpp **** 	__asm__ volatile("csrw sip, %[sip]": :[sip] "r"(sip));
 128:src/../h/Riscv.hpp **** }
 129:src/../h/Riscv.hpp **** 
 130:src/../h/Riscv.hpp **** inline void Riscv::ms_sstatus(uint64 mask) {
 131:src/../h/Riscv.hpp **** 	__asm__ volatile("csrs sstatus, %[mask]": :[mask] "r"(mask));
 179              		.loc 3 131 2
 180              		.loc 3 131 62 is_stmt 0
 181 0118 93072000 		li	a5,2
 182              	#APP
 183              	# 131 "src/../h/Riscv.hpp" 1
 132              	}
 184              		csrs sstatus, a5
 185              	# 0 "" 2
 186              	.LVL14:
 187              	#NO_APP
 188              	.LBE17:
 189              	.LBE16:
  57:src/main.cpp  **** 
  58:src/main.cpp  ****     //cekanje da se userMain zavrsi
  59:src/main.cpp  ****     thread_join(userHandle);
 190              		.loc 1 59 5 is_stmt 1
 191              		.loc 1 59 16 is_stmt 0
 192 0120 033504FE 		ld	a0,-32(s0)
 193 0124 97000000 		call	_Z11thread_joinP3TCB@plt
 193      E7800000 
 194              	.LVL15:
 195              	.L10:
  60:src/main.cpp  **** 
  61:src/main.cpp  ****     //flush output bafera za konzolu
  62:src/main.cpp  ****     while (KConsole::outputHead != KConsole::outputTail) {}
 196              		.loc 1 62 5 is_stmt 1
 197              		.loc 1 62 33
 198 012c 97070000 		la	a5,_ZN8KConsole10outputHeadE
 198      83B70700 
 199 0134 03A70700 		lw	a4,0(a5)
 200 0138 97070000 		la	a5,_ZN8KConsole10outputTailE
 200      83B70700 
GAS LISTING /tmp/cc4Eb2ab.s 			page 9


 201 0140 83A70700 		lw	a5,0(a5)
 202 0144 E314F7FE 		bne	a4,a5,.L10
  63:src/main.cpp  **** 
  64:src/main.cpp  ****     //maskiranje svih prekida
  65:src/main.cpp  ****     Riscv::mc_sstatus(Riscv::SSTATUS_SIE);
 203              		.loc 1 65 5
 204              	.LVL16:
 205              	.LBB18:
 206              	.LBB19:
 133:src/../h/Riscv.hpp **** 
 134:src/../h/Riscv.hpp **** inline void Riscv::mc_sstatus(uint64 mask) {
 135:src/../h/Riscv.hpp **** 	__asm__ volatile("csrc sstatus, %[mask]": :[mask] "r"(mask));
 207              		.loc 3 135 2
 208              		.loc 3 135 62 is_stmt 0
 209 0148 93072000 		li	a5,2
 210              	#APP
 211              	# 135 "src/../h/Riscv.hpp" 1
 136              	}
 212              		csrc sstatus, a5
 213              	# 0 "" 2
 214              	.LVL17:
 215              	#NO_APP
 216              	.LBE19:
 217              	.LBE18:
  66:src/main.cpp  **** 
  67:src/main.cpp  ****     return 0;
 218              		.loc 1 67 5 is_stmt 1
  68:src/main.cpp  **** }...
 219              		.loc 1 68 1 is_stmt 0
 220 0150 13050000 		li	a0,0
 221 0154 83308102 		ld	ra,40(sp)
 222              		.cfi_restore 1
 223 0158 03340102 		ld	s0,32(sp)
 224              		.cfi_restore 8
 225              		.cfi_def_cfa 2, 48
 226 015c 13010103 		addi	sp,sp,48
 227              		.cfi_def_cfa_offset 0
 228 0160 67800000 		jr	ra
 229              		.cfi_endproc
 230              	.LFE48:
 232              	.Letext0:
 233              		.file 4 "src/../lib/hw.h"
 234              		.file 5 "src/../h/syscall_c.hpp"
 235              		.file 6 "src/../h/../h/ThreadQueue.hpp"
 236              		.file 7 "src/../h/KConsole.hpp"
 237              		.file 8 "src/../h/KMemory.hpp"
GAS LISTING /tmp/cc4Eb2ab.s 			page 10


DEFINED SYMBOLS
                            *ABS*:0000000000000000 main.cpp
     /tmp/cc4Eb2ab.s:9      .text:0000000000000000 _Z4idlePv
     /tmp/cc4Eb2ab.s:13     .text:0000000000000000 .L0 
     /tmp/cc4Eb2ab.s:14     .text:0000000000000000 .L0 
     /tmp/cc4Eb2ab.s:15     .text:0000000000000004 .L0 
     /tmp/cc4Eb2ab.s:18     .text:000000000000000c .L0 
     /tmp/cc4Eb2ab.s:19     .text:000000000000000c .L0 
     /tmp/cc4Eb2ab.s:21     .text:0000000000000010 .L0 
     /tmp/cc4Eb2ab.s:24     .text:0000000000000010 .L0 
     /tmp/cc4Eb2ab.s:25     .text:0000000000000010 .L0 
     /tmp/cc4Eb2ab.s:26     .text:0000000000000010 .L0 
     /tmp/cc4Eb2ab.s:29     .text:0000000000000018 .L0 
     /tmp/cc4Eb2ab.s:30     .text:000000000000001c .L0 
     /tmp/cc4Eb2ab.s:36     .text:000000000000001c _Z22kernelConsumerFunctionPv
     /tmp/cc4Eb2ab.s:39     .text:000000000000001c .L0 
     /tmp/cc4Eb2ab.s:40     .text:000000000000001c .L0 
     /tmp/cc4Eb2ab.s:41     .text:0000000000000020 .L0 
     /tmp/cc4Eb2ab.s:44     .text:0000000000000028 .L0 
     /tmp/cc4Eb2ab.s:45     .text:0000000000000028 .L0 
     /tmp/cc4Eb2ab.s:47     .text:000000000000002c .L0 
     /tmp/cc4Eb2ab.s:53     .text:0000000000000030 .L0 
     /tmp/cc4Eb2ab.s:56     .text:000000000000003c .L0 
     /tmp/cc4Eb2ab.s:58     .text:0000000000000040 .L0 
     /tmp/cc4Eb2ab.s:59     .text:0000000000000040 .L0 
     /tmp/cc4Eb2ab.s:67     .text:0000000000000054 .L0 
     /tmp/cc4Eb2ab.s:69     .text:0000000000000054 .L0 
     /tmp/cc4Eb2ab.s:70     .text:0000000000000054 .L0 
     /tmp/cc4Eb2ab.s:71     .text:0000000000000054 .L0 
     /tmp/cc4Eb2ab.s:75     .text:000000000000005c .L0 
     /tmp/cc4Eb2ab.s:76     .text:000000000000005c .L0 
     /tmp/cc4Eb2ab.s:77     .text:000000000000005c .L0 
     /tmp/cc4Eb2ab.s:81     .text:000000000000006c .L0 
     /tmp/cc4Eb2ab.s:85     .text:0000000000000078 .L0 
     /tmp/cc4Eb2ab.s:91     .text:0000000000000078 _Z5main2v
     /tmp/cc4Eb2ab.s:94     .text:0000000000000078 .L0 
     /tmp/cc4Eb2ab.s:95     .text:0000000000000078 .L0 
     /tmp/cc4Eb2ab.s:96     .text:000000000000007c .L0 
     /tmp/cc4Eb2ab.s:99     .text:0000000000000084 .L0 
     /tmp/cc4Eb2ab.s:100    .text:0000000000000084 .L0 
     /tmp/cc4Eb2ab.s:102    .text:0000000000000088 .L0 
     /tmp/cc4Eb2ab.s:104    .text:0000000000000088 .L0 
     /tmp/cc4Eb2ab.s:105    .text:0000000000000088 .L0 
     /tmp/cc4Eb2ab.s:111    .text:0000000000000094 .L0 
     /tmp/cc4Eb2ab.s:113    .text:0000000000000094 .L0 
     /tmp/cc4Eb2ab.s:116    .text:000000000000009c .L0 
     /tmp/cc4Eb2ab.s:117    .text:000000000000009c .L0 
     /tmp/cc4Eb2ab.s:120    .text:00000000000000a4 .L0 
     /tmp/cc4Eb2ab.s:121    .text:00000000000000a4 .L0 
     /tmp/cc4Eb2ab.s:122    .text:00000000000000a4 .L0 
     /tmp/cc4Eb2ab.s:123    .text:00000000000000a4 .L0 
     /tmp/cc4Eb2ab.s:124    .text:00000000000000a4 .L0 
     /tmp/cc4Eb2ab.s:125    .text:00000000000000a4 .L0 
     /tmp/cc4Eb2ab.s:131    .text:00000000000000b8 .L0 
     /tmp/cc4Eb2ab.s:132    .text:00000000000000b8 .L0 
     /tmp/cc4Eb2ab.s:138    .text:00000000000000bc .L0 
     /tmp/cc4Eb2ab.s:139    .text:00000000000000bc .L0 
GAS LISTING /tmp/cc4Eb2ab.s 			page 11


     /tmp/cc4Eb2ab.s:147    .text:00000000000000c8 .L0 
     /tmp/cc4Eb2ab.s:148    .text:00000000000000c8 .L0 
     /tmp/cc4Eb2ab.s:149    .text:00000000000000c8 .L0 
     /tmp/cc4Eb2ab.s:155    .text:00000000000000d0 .L0 
     /tmp/cc4Eb2ab.s:156    .text:00000000000000d0 .L0 
     /tmp/cc4Eb2ab.s:162    .text:00000000000000e8 .L0 
     /tmp/cc4Eb2ab.s:163    .text:00000000000000e8 .L0 
     /tmp/cc4Eb2ab.s:169    .text:0000000000000100 .L0 
     /tmp/cc4Eb2ab.s:170    .text:0000000000000100 .L0 
     /tmp/cc4Eb2ab.s:179    .text:0000000000000118 .L0 
     /tmp/cc4Eb2ab.s:180    .text:0000000000000118 .L0 
     /tmp/cc4Eb2ab.s:181    .text:0000000000000118 .L0 
     /tmp/cc4Eb2ab.s:191    .text:0000000000000120 .L0 
     /tmp/cc4Eb2ab.s:192    .text:0000000000000120 .L0 
     /tmp/cc4Eb2ab.s:197    .text:000000000000012c .L0 
     /tmp/cc4Eb2ab.s:198    .text:000000000000012c .L0 
     /tmp/cc4Eb2ab.s:207    .text:0000000000000148 .L0 
     /tmp/cc4Eb2ab.s:208    .text:0000000000000148 .L0 
     /tmp/cc4Eb2ab.s:209    .text:0000000000000148 .L0 
     /tmp/cc4Eb2ab.s:219    .text:0000000000000150 .L0 
     /tmp/cc4Eb2ab.s:220    .text:0000000000000150 .L0 
     /tmp/cc4Eb2ab.s:222    .text:0000000000000158 .L0 
     /tmp/cc4Eb2ab.s:224    .text:000000000000015c .L0 
     /tmp/cc4Eb2ab.s:225    .text:000000000000015c .L0 
     /tmp/cc4Eb2ab.s:227    .text:0000000000000160 .L0 
     /tmp/cc4Eb2ab.s:229    .text:0000000000000164 .L0 
     /tmp/cc4Eb2ab.s:238    .text:0000000000000164 .L0 
     /tmp/cc4Eb2ab.s:53     .text:0000000000000030 .L0 
     /tmp/cc4Eb2ab.s:59     .text:0000000000000040 .L0 
     /tmp/cc4Eb2ab.s:77     .text:000000000000005c .L0 
     /tmp/cc4Eb2ab.s:105    .text:0000000000000088 .L0 
     /tmp/cc4Eb2ab.s:139    .text:00000000000000bc .L0 
     /tmp/cc4Eb2ab.s:157    .text:00000000000000d4 .L0 
     /tmp/cc4Eb2ab.s:164    .text:00000000000000ec .L0 
     /tmp/cc4Eb2ab.s:171    .text:0000000000000104 .L0 
     /tmp/cc4Eb2ab.s:198    .text:000000000000012c .L0 
     /tmp/cc4Eb2ab.s:200    .text:0000000000000138 .L0 
     /tmp/cc4Eb2ab.s:22     .text:0000000000000010 .L2
     /tmp/cc4Eb2ab.s:66     .text:0000000000000054 .L6
     /tmp/cc4Eb2ab.s:73     .text:000000000000005c .L5
     /tmp/cc4Eb2ab.s:50     .text:0000000000000030 .L8
     /tmp/cc4Eb2ab.s:195    .text:000000000000012c .L10
     /tmp/cc4Eb2ab.s:1767   .debug_abbrev:0000000000000000 .Ldebug_abbrev0
     /tmp/cc4Eb2ab.s:3188   .debug_str:000000000000099c .LASF196
     /tmp/cc4Eb2ab.s:2958   .debug_str:00000000000002ef .LASF197
     /tmp/cc4Eb2ab.s:3148   .debug_str:000000000000087b .LASF198
     /tmp/cc4Eb2ab.s:5      .text:0000000000000000 .Ltext0
     /tmp/cc4Eb2ab.s:232    .text:0000000000000164 .Letext0
     /tmp/cc4Eb2ab.s:2860   .debug_line:0000000000000000 .Ldebug_line0
     /tmp/cc4Eb2ab.s:2998   .debug_str:0000000000000404 .LASF0
     /tmp/cc4Eb2ab.s:3024   .debug_str:00000000000004a4 .LASF1
     /tmp/cc4Eb2ab.s:3128   .debug_str:00000000000007d6 .LASF2
     /tmp/cc4Eb2ab.s:2946   .debug_str:00000000000002a0 .LASF3
     /tmp/cc4Eb2ab.s:3140   .debug_str:0000000000000844 .LASF4
     /tmp/cc4Eb2ab.s:3010   .debug_str:0000000000000441 .LASF5
     /tmp/cc4Eb2ab.s:2870   .debug_str:000000000000004c .LASF6
     /tmp/cc4Eb2ab.s:3096   .debug_str:00000000000006ee .LASF7
GAS LISTING /tmp/cc4Eb2ab.s 			page 12


     /tmp/cc4Eb2ab.s:3090   .debug_str:00000000000006cb .LASF8
     /tmp/cc4Eb2ab.s:3014   .debug_str:0000000000000465 .LASF9
     /tmp/cc4Eb2ab.s:2968   .debug_str:000000000000031d .LASF10
     /tmp/cc4Eb2ab.s:2982   .debug_str:000000000000037f .LASF11
     /tmp/cc4Eb2ab.s:2898   .debug_str:0000000000000112 .LASF12
     /tmp/cc4Eb2ab.s:2956   .debug_str:00000000000002e0 .LASF13
     /tmp/cc4Eb2ab.s:2910   .debug_str:000000000000015b .LASF14
     /tmp/cc4Eb2ab.s:2896   .debug_str:0000000000000102 .LASF15
     /tmp/cc4Eb2ab.s:3168   .debug_str:000000000000091e .LASF16
     /tmp/cc4Eb2ab.s:2940   .debug_str:0000000000000257 .LASF17
     /tmp/cc4Eb2ab.s:3160   .debug_str:00000000000008ef .LASF18
     /tmp/cc4Eb2ab.s:3238   .debug_str:0000000000000bac .LASF51
     /tmp/cc4Eb2ab.s:3220   .debug_str:0000000000000b52 .LASF52
     /tmp/cc4Eb2ab.s:2950   .debug_str:00000000000002ae .LASF19
     /tmp/cc4Eb2ab.s:3186   .debug_str:000000000000098f .LASF20
     /tmp/cc4Eb2ab.s:2922   .debug_str:00000000000001db .LASF21
     /tmp/cc4Eb2ab.s:3048   .debug_str:000000000000054f .LASF82
     /tmp/cc4Eb2ab.s:3210   .debug_str:0000000000000b03 .LASF84
     /tmp/cc4Eb2ab.s:3208   .debug_str:0000000000000afa .LASF22
     /tmp/cc4Eb2ab.s:3200   .debug_str:0000000000000aa9 .LASF24
     /tmp/cc4Eb2ab.s:3124   .debug_str:00000000000007c2 .LASF26
     /tmp/cc4Eb2ab.s:3076   .debug_str:000000000000063f .LASF28
     /tmp/cc4Eb2ab.s:3102   .debug_str:0000000000000707 .LASF23
     /tmp/cc4Eb2ab.s:3110   .debug_str:0000000000000740 .LASF25
     /tmp/cc4Eb2ab.s:3062   .debug_str:00000000000005d5 .LASF27
     /tmp/cc4Eb2ab.s:3016   .debug_str:0000000000000478 .LASF29
     /tmp/cc4Eb2ab.s:3250   .debug_str:0000000000000c06 .LASF30
     /tmp/cc4Eb2ab.s:3190   .debug_str:0000000000000a60 .LASF31
     /tmp/cc4Eb2ab.s:3060   .debug_str:00000000000005cd .LASF32
     /tmp/cc4Eb2ab.s:3074   .debug_str:000000000000062b .LASF33
     /tmp/cc4Eb2ab.s:3164   .debug_str:000000000000090a .LASF34
     /tmp/cc4Eb2ab.s:3142   .debug_str:000000000000084b .LASF35
     /tmp/cc4Eb2ab.s:3144   .debug_str:000000000000085e .LASF36
     /tmp/cc4Eb2ab.s:2904   .debug_str:0000000000000130 .LASF37
     /tmp/cc4Eb2ab.s:2938   .debug_str:0000000000000251 .LASF38
     /tmp/cc4Eb2ab.s:2992   .debug_str:00000000000003db .LASF39
     /tmp/cc4Eb2ab.s:3004   .debug_str:0000000000000425 .LASF40
     /tmp/cc4Eb2ab.s:2926   .debug_str:00000000000001ee .LASF41
     /tmp/cc4Eb2ab.s:2872   .debug_str:0000000000000053 .LASF42
     /tmp/cc4Eb2ab.s:3132   .debug_str:00000000000007ee .LASF43
     /tmp/cc4Eb2ab.s:3126   .debug_str:00000000000007cb .LASF44
     /tmp/cc4Eb2ab.s:3262   .debug_str:0000000000000c68 .LASF45
     /tmp/cc4Eb2ab.s:3240   .debug_str:0000000000000bb2 .LASF46
     /tmp/cc4Eb2ab.s:3252   .debug_str:0000000000000c0e .LASF47
     /tmp/cc4Eb2ab.s:3234   .debug_str:0000000000000b8c .LASF48
     /tmp/cc4Eb2ab.s:3046   .debug_str:0000000000000539 .LASF49
     /tmp/cc4Eb2ab.s:3194   .debug_str:0000000000000a7e .LASF131
     /tmp/cc4Eb2ab.s:2916   .debug_str:000000000000019b .LASF132
     /tmp/cc4Eb2ab.s:3232   .debug_str:0000000000000b83 .LASF50
     /tmp/cc4Eb2ab.s:3154   .debug_str:00000000000008af .LASF53
     /tmp/cc4Eb2ab.s:3100   .debug_str:00000000000006ff .LASF54
     /tmp/cc4Eb2ab.s:2924   .debug_str:00000000000001e7 .LASF55
     /tmp/cc4Eb2ab.s:3038   .debug_str:00000000000004fc .LASF56
     /tmp/cc4Eb2ab.s:2974   .debug_str:000000000000033e .LASF57
     /tmp/cc4Eb2ab.s:3020   .debug_str:0000000000000490 .LASF58
     /tmp/cc4Eb2ab.s:2890   .debug_str:00000000000000d9 .LASF59
     /tmp/cc4Eb2ab.s:3172   .debug_str:0000000000000937 .LASF109
GAS LISTING /tmp/cc4Eb2ab.s 			page 13


     /tmp/cc4Eb2ab.s:2902   .debug_str:0000000000000126 .LASF60
     /tmp/cc4Eb2ab.s:2984   .debug_str:000000000000038d .LASF62
     /tmp/cc4Eb2ab.s:3002   .debug_str:000000000000041b .LASF66
     /tmp/cc4Eb2ab.s:3036   .debug_str:00000000000004e8 .LASF68
     /tmp/cc4Eb2ab.s:3166   .debug_str:0000000000000911 .LASF61
     /tmp/cc4Eb2ab.s:3244   .debug_str:0000000000000bd1 .LASF63
     /tmp/cc4Eb2ab.s:3082   .debug_str:0000000000000694 .LASF199
     /tmp/cc4Eb2ab.s:3258   .debug_str:0000000000000c5c .LASF64
     /tmp/cc4Eb2ab.s:3012   .debug_str:0000000000000453 .LASF65
     /tmp/cc4Eb2ab.s:3030   .debug_str:00000000000004ca .LASF67
     /tmp/cc4Eb2ab.s:3112   .debug_str:0000000000000753 .LASF69
     /tmp/cc4Eb2ab.s:2930   .debug_str:0000000000000218 .LASF70
     /tmp/cc4Eb2ab.s:3136   .debug_str:000000000000081e .LASF71
     /tmp/cc4Eb2ab.s:3106   .debug_str:000000000000072e .LASF72
     /tmp/cc4Eb2ab.s:3040   .debug_str:0000000000000504 .LASF73
     /tmp/cc4Eb2ab.s:2972   .debug_str:0000000000000333 .LASF74
     /tmp/cc4Eb2ab.s:3158   .debug_str:00000000000008d9 .LASF75
     /tmp/cc4Eb2ab.s:2864   .debug_str:0000000000000009 .LASF76
     /tmp/cc4Eb2ab.s:3180   .debug_str:000000000000095e .LASF77
     /tmp/cc4Eb2ab.s:3206   .debug_str:0000000000000ae6 .LASF78
     /tmp/cc4Eb2ab.s:3078   .debug_str:0000000000000654 .LASF79
     /tmp/cc4Eb2ab.s:3204   .debug_str:0000000000000adb .LASF80
     /tmp/cc4Eb2ab.s:2928   .debug_str:0000000000000200 .LASF81
     /tmp/cc4Eb2ab.s:3266   .debug_str:0000000000000c8d .LASF83
     /tmp/cc4Eb2ab.s:2954   .debug_str:00000000000002c7 .LASF85
     /tmp/cc4Eb2ab.s:2932   .debug_str:0000000000000225 .LASF86
     /tmp/cc4Eb2ab.s:2906   .debug_str:0000000000000143 .LASF87
     /tmp/cc4Eb2ab.s:3032   .debug_str:00000000000004d7 .LASF88
     /tmp/cc4Eb2ab.s:2876   .debug_str:000000000000007a .LASF89
     /tmp/cc4Eb2ab.s:3264   .debug_str:0000000000000c80 .LASF90
     /tmp/cc4Eb2ab.s:2978   .debug_str:000000000000035e .LASF91
     /tmp/cc4Eb2ab.s:2866   .debug_str:0000000000000014 .LASF92
     /tmp/cc4Eb2ab.s:3072   .debug_str:000000000000061e .LASF93
     /tmp/cc4Eb2ab.s:3256   .debug_str:0000000000000c46 .LASF200
     /tmp/cc4Eb2ab.s:3198   .debug_str:0000000000000aa1 .LASF94
     /tmp/cc4Eb2ab.s:2894   .debug_str:00000000000000f3 .LASF95
     /tmp/cc4Eb2ab.s:3260   .debug_str:0000000000000c62 .LASF96
     /tmp/cc4Eb2ab.s:3212   .debug_str:0000000000000b24 .LASF97
     /tmp/cc4Eb2ab.s:3192   .debug_str:0000000000000a74 .LASF98
     /tmp/cc4Eb2ab.s:3122   .debug_str:00000000000007b2 .LASF99
     /tmp/cc4Eb2ab.s:3086   .debug_str:00000000000006a1 .LASF100
     /tmp/cc4Eb2ab.s:2952   .debug_str:00000000000002ba .LASF101
     /tmp/cc4Eb2ab.s:3138   .debug_str:0000000000000836 .LASF102
     /tmp/cc4Eb2ab.s:3228   .debug_str:0000000000000b77 .LASF103
     /tmp/cc4Eb2ab.s:3184   .debug_str:0000000000000987 .LASF104
     /tmp/cc4Eb2ab.s:2892   .debug_str:00000000000000e2 .LASF105
     /tmp/cc4Eb2ab.s:2918   .debug_str:00000000000001b3 .LASF115
     /tmp/cc4Eb2ab.s:2868   .debug_str:0000000000000024 .LASF116
     /tmp/cc4Eb2ab.s:2970   .debug_str:000000000000032d .LASF106
     /tmp/cc4Eb2ab.s:3162   .debug_str:0000000000000905 .LASF201
     /tmp/cc4Eb2ab.s:3178   .debug_str:0000000000000959 .LASF107
     /tmp/cc4Eb2ab.s:3064   .debug_str:00000000000005dc .LASF108
     /tmp/cc4Eb2ab.s:3230   .debug_str:0000000000000b7e .LASF110
     /tmp/cc4Eb2ab.s:3018   .debug_str:000000000000048b .LASF111
     /tmp/cc4Eb2ab.s:2900   .debug_str:0000000000000121 .LASF112
     /tmp/cc4Eb2ab.s:2944   .debug_str:0000000000000282 .LASF113
     /tmp/cc4Eb2ab.s:2920   .debug_str:00000000000001c1 .LASF114
GAS LISTING /tmp/cc4Eb2ab.s 			page 14


     /tmp/cc4Eb2ab.s:2912   .debug_str:000000000000016b .LASF117
     /tmp/cc4Eb2ab.s:2880   .debug_str:00000000000000a1 .LASF118
     /tmp/cc4Eb2ab.s:3054   .debug_str:0000000000000594 .LASF119
     /tmp/cc4Eb2ab.s:2878   .debug_str:000000000000008c .LASF120
     /tmp/cc4Eb2ab.s:2976   .debug_str:0000000000000346 .LASF121
     /tmp/cc4Eb2ab.s:3130   .debug_str:00000000000007e4 .LASF173
     /tmp/cc4Eb2ab.s:3196   .debug_str:0000000000000a89 .LASF175
     /tmp/cc4Eb2ab.s:3174   .debug_str:000000000000093f .LASF122
     /tmp/cc4Eb2ab.s:3242   .debug_str:0000000000000bbc .LASF123
     /tmp/cc4Eb2ab.s:3006   .debug_str:000000000000042b .LASF124
     /tmp/cc4Eb2ab.s:2874   .debug_str:000000000000005e .LASF125
     /tmp/cc4Eb2ab.s:3028   .debug_str:00000000000004c2 .LASF126
     /tmp/cc4Eb2ab.s:3056   .debug_str:0000000000000599 .LASF127
     /tmp/cc4Eb2ab.s:2888   .debug_str:00000000000000d0 .LASF128
     /tmp/cc4Eb2ab.s:3052   .debug_str:0000000000000578 .LASF129
     /tmp/cc4Eb2ab.s:2914   .debug_str:0000000000000186 .LASF130
     /tmp/cc4Eb2ab.s:3236   .debug_str:0000000000000b96 .LASF133
     /tmp/cc4Eb2ab.s:3116   .debug_str:000000000000077b .LASF134
     /tmp/cc4Eb2ab.s:3034   .debug_str:00000000000004df .LASF135
     /tmp/cc4Eb2ab.s:3150   .debug_str:0000000000000899 .LASF136
     /tmp/cc4Eb2ab.s:3068   .debug_str:00000000000005f4 .LASF137
     /tmp/cc4Eb2ab.s:3094   .debug_str:00000000000006e8 .LASF138
     /tmp/cc4Eb2ab.s:3058   .debug_str:00000000000005b8 .LASF139
     /tmp/cc4Eb2ab.s:3182   .debug_str:0000000000000976 .LASF140
     /tmp/cc4Eb2ab.s:3170   .debug_str:000000000000092a .LASF141
     /tmp/cc4Eb2ab.s:3202   .debug_str:0000000000000abe .LASF142
     /tmp/cc4Eb2ab.s:3216   .debug_str:0000000000000b35 .LASF143
     /tmp/cc4Eb2ab.s:3254   .debug_str:0000000000000c24 .LASF144
     /tmp/cc4Eb2ab.s:3008   .debug_str:0000000000000433 .LASF145
     /tmp/cc4Eb2ab.s:3088   .debug_str:00000000000006ad .LASF146
     /tmp/cc4Eb2ab.s:2990   .debug_str:00000000000003ce .LASF147
     /tmp/cc4Eb2ab.s:3120   .debug_str:0000000000000795 .LASF148
     /tmp/cc4Eb2ab.s:2882   .debug_str:00000000000000a7 .LASF149
     /tmp/cc4Eb2ab.s:2980   .debug_str:000000000000036a .LASF150
     /tmp/cc4Eb2ab.s:2966   .debug_str:000000000000030f .LASF151
     /tmp/cc4Eb2ab.s:3176   .debug_str:000000000000094c .LASF152
     /tmp/cc4Eb2ab.s:2996   .debug_str:00000000000003f8 .LASF153
     /tmp/cc4Eb2ab.s:2862   .debug_str:0000000000000000 .LASF202
     /tmp/cc4Eb2ab.s:3214   .debug_str:0000000000000b29 .LASF154
     /tmp/cc4Eb2ab.s:2934   .debug_str:000000000000022e .LASF155
     /tmp/cc4Eb2ab.s:3000   .debug_str:0000000000000411 .LASF156
     /tmp/cc4Eb2ab.s:3098   .debug_str:00000000000006f5 .LASF157
     /tmp/cc4Eb2ab.s:3026   .debug_str:00000000000004b7 .LASF158
     /tmp/cc4Eb2ab.s:3218   .debug_str:0000000000000b47 .LASF159
     /tmp/cc4Eb2ab.s:3152   .debug_str:000000000000089f .LASF160
     /tmp/cc4Eb2ab.s:2948   .debug_str:00000000000002a6 .LASF161
     /tmp/cc4Eb2ab.s:2986   .debug_str:00000000000003b2 .LASF162
     /tmp/cc4Eb2ab.s:3104   .debug_str:000000000000070e .LASF163
     /tmp/cc4Eb2ab.s:2960   .debug_str:00000000000002fc .LASF164
     /tmp/cc4Eb2ab.s:2936   .debug_str:000000000000023b .LASF165
     /tmp/cc4Eb2ab.s:2964   .debug_str:0000000000000309 .LASF166
     /tmp/cc4Eb2ab.s:2942   .debug_str:000000000000026d .LASF167
     /tmp/cc4Eb2ab.s:3044   .debug_str:000000000000052d .LASF168
     /tmp/cc4Eb2ab.s:3134   .debug_str:0000000000000806 .LASF169
     /tmp/cc4Eb2ab.s:3108   .debug_str:0000000000000736 .LASF170
     /tmp/cc4Eb2ab.s:3084   .debug_str:0000000000000699 .LASF171
     /tmp/cc4Eb2ab.s:3146   .debug_str:0000000000000865 .LASF172
GAS LISTING /tmp/cc4Eb2ab.s 			page 15


     /tmp/cc4Eb2ab.s:3224   .debug_str:0000000000000b6c .LASF174
     /tmp/cc4Eb2ab.s:3092   .debug_str:00000000000006de .LASF176
     /tmp/cc4Eb2ab.s:92     .text:0000000000000078 .LFB48
     /tmp/cc4Eb2ab.s:230    .text:0000000000000164 .LFE48
     /tmp/cc4Eb2ab.s:2994   .debug_str:00000000000003ed .LASF177
     /tmp/cc4Eb2ab.s:3222   .debug_str:0000000000000b61 .LASF178
     /tmp/cc4Eb2ab.s:2884   .debug_str:00000000000000bb .LASF179
     /tmp/cc4Eb2ab.s:3268   .debug_str:0000000000000c9b .LASF180
     /tmp/cc4Eb2ab.s:134    .text:00000000000000bc .LBB12
     /tmp/cc4Eb2ab.s:143    .text:00000000000000c8 .LBE12
     /tmp/cc4Eb2ab.s:2790   .debug_loc:0000000000000000 .LLST1
     /tmp/cc4Eb2ab.s:145    .text:00000000000000c8 .LBB14
     /tmp/cc4Eb2ab.s:153    .text:00000000000000d0 .LBE14
     /tmp/cc4Eb2ab.s:2797   .debug_loc:0000000000000023 .LLST2
     /tmp/cc4Eb2ab.s:2805   .debug_loc:0000000000000047 .LLST3
     /tmp/cc4Eb2ab.s:176    .text:0000000000000118 .LBB16
     /tmp/cc4Eb2ab.s:189    .text:0000000000000120 .LBE16
     /tmp/cc4Eb2ab.s:2812   .debug_loc:000000000000006a .LLST4
     /tmp/cc4Eb2ab.s:205    .text:0000000000000148 .LBB18
     /tmp/cc4Eb2ab.s:217    .text:0000000000000150 .LBE18
     /tmp/cc4Eb2ab.s:2820   .debug_loc:000000000000008e .LLST5
     /tmp/cc4Eb2ab.s:114    .text:000000000000009c .LVL5
     /tmp/cc4Eb2ab.s:118    .text:00000000000000a4 .LVL6
     /tmp/cc4Eb2ab.s:129    .text:00000000000000b8 .LVL7
     /tmp/cc4Eb2ab.s:160    .text:00000000000000e8 .LVL11
     /tmp/cc4Eb2ab.s:167    .text:0000000000000100 .LVL12
     /tmp/cc4Eb2ab.s:174    .text:0000000000000118 .LVL13
     /tmp/cc4Eb2ab.s:194    .text:000000000000012c .LVL15
     /tmp/cc4Eb2ab.s:3042   .debug_str:0000000000000516 .LASF181
     /tmp/cc4Eb2ab.s:3156   .debug_str:00000000000008bc .LASF182
     /tmp/cc4Eb2ab.s:37     .text:000000000000001c .LFB47
     /tmp/cc4Eb2ab.s:86     .text:0000000000000078 .LFE47
     /tmp/cc4Eb2ab.s:2852   .debug_ranges:0000000000000000 .Ldebug_ranges0
     /tmp/cc4Eb2ab.s:2828   .debug_loc:00000000000000b2 .LLST0
     /tmp/cc4Eb2ab.s:63     .text:0000000000000054 .LVL3
     /tmp/cc4Eb2ab.s:72     .text:000000000000005c .LVL4
     /tmp/cc4Eb2ab.s:3246   .debug_str:0000000000000bf3 .LASF183
     /tmp/cc4Eb2ab.s:2886   .debug_str:00000000000000c6 .LASF184
     /tmp/cc4Eb2ab.s:10     .text:0000000000000000 .LFB46
     /tmp/cc4Eb2ab.s:31     .text:000000000000001c .LFE46
     /tmp/cc4Eb2ab.s:27     .text:0000000000000018 .LVL0
     /tmp/cc4Eb2ab.s:3022   .debug_str:0000000000000499 .LASF185
     /tmp/cc4Eb2ab.s:2962   .debug_str:0000000000000304 .LASF203
     /tmp/cc4Eb2ab.s:2908   .debug_str:0000000000000156 .LASF186
     /tmp/cc4Eb2ab.s:3226   .debug_str:0000000000000b72 .LASF187
     /tmp/cc4Eb2ab.s:3080   .debug_str:0000000000000673 .LASF188
     /tmp/cc4Eb2ab.s:3248   .debug_str:0000000000000bf8 .LASF190
     /tmp/cc4Eb2ab.s:3070   .debug_str:0000000000000609 .LASF189
     /tmp/cc4Eb2ab.s:3066   .debug_str:00000000000005e8 .LASF191
     /tmp/cc4Eb2ab.s:3118   .debug_str:0000000000000780 .LASF192
     /tmp/cc4Eb2ab.s:2988   .debug_str:00000000000003c3 .LASF193
     /tmp/cc4Eb2ab.s:3050   .debug_str:0000000000000563 .LASF194
     /tmp/cc4Eb2ab.s:3114   .debug_str:000000000000076b .LASF195
     /tmp/cc4Eb2ab.s:133    .text:00000000000000bc .LVL8
     /tmp/cc4Eb2ab.s:141    .text:00000000000000c8 .LVL9
     /tmp/cc4Eb2ab.s:151    .text:00000000000000d0 .LVL10
     /tmp/cc4Eb2ab.s:186    .text:0000000000000120 .LVL14
GAS LISTING /tmp/cc4Eb2ab.s 			page 16


     /tmp/cc4Eb2ab.s:204    .text:0000000000000148 .LVL16
     /tmp/cc4Eb2ab.s:214    .text:0000000000000150 .LVL17
     /tmp/cc4Eb2ab.s:49     .text:0000000000000030 .LVL1
     /tmp/cc4Eb2ab.s:61     .text:000000000000004c .LVL2
     /tmp/cc4Eb2ab.s:239    .debug_info:0000000000000000 .Ldebug_info0
     /tmp/cc4Eb2ab.s:51     .text:0000000000000030 .LBB10
     /tmp/cc4Eb2ab.s:64     .text:0000000000000054 .LBE10
     /tmp/cc4Eb2ab.s:68     .text:0000000000000054 .LBB11
     /tmp/cc4Eb2ab.s:84     .text:0000000000000078 .LBE11

UNDEFINED SYMBOLS
_Z15thread_dispatchv
_ZN8KConsole2drE
_ZN8KConsole20outputBufferHasSpaceE
_Z10sem_signalP4KSem
_ZN8KConsole13getFromOutputEv
_ZN8KConsole2srE
interruptHandler
_ZN7KMemory16initializeMemoryEv
_ZN8KConsole12initKConsoleEv
_Z13thread_createPP3TCBPFvPvES2_
_ZN3TCB7runningE
_Z8userMainv
_Z11thread_joinP3TCB
_ZN8KConsole10outputHeadE
_ZN8KConsole10outputTailE
