GAS LISTING /tmp/cc7t4iMB.s 			page 1


   1              		.file	"main.cpp"
   2              		.option pic
   3              		.option norelax
   4              		.text
   5              	.Ltext0:
   6              		.section	.rodata
   7              		.align	3
   8              	.LC0:
   9 0000 0A50726F 		.string	"\nProsao while\n"
   9      73616F20 
   9      7768696C 
   9      650A00
  10 000f 00       		.align	3
  11              	.LC1:
  12 0010 0A536164 		.string	"\nSad cu da izadjem\n"
  12      20637520 
  12      64612069 
  12      7A61646A 
  12      656D0A00 
  13              		.text
  14              		.align	2
  15              		.globl	main
  17              	main:
  18              	.LFB44:
  19              		.file 1 "src/main.cpp"
   1:src/main.cpp  **** #include "../lib/console.h"
   2:src/main.cpp  **** #include "../lib/hw.h"
   3:src/main.cpp  **** #include "../h/helper.hpp"
   4:src/main.cpp  **** #include "../h/Riscv.hpp"
   5:src/main.cpp  **** #include "../h/syscall_c.hpp"
   6:src/main.cpp  **** #include "../h/syscall_cpp.hpp"
   7:src/main.cpp  **** #include "../h/List.hpp"
   8:src/main.cpp  **** //#include "../h/MemoryAllocator.hpp"
   9:src/main.cpp  **** #include "../h/TCB.hpp"
  10:src/main.cpp  **** #include "../h/ThreadQueue.hpp"
  11:src/main.cpp  **** //#include "../h/KSem.hpp"
  12:src/main.cpp  **** 
  13:src/main.cpp  **** 
  14:src/main.cpp  **** extern "C" void interruptHandler();
  15:src/main.cpp  **** //void userMain();
  16:src/main.cpp  **** 
  17:src/main.cpp  **** void testMemory();
  18:src/main.cpp  **** 
  19:src/main.cpp  **** void nit1f(void*);
  20:src/main.cpp  **** 
  21:src/main.cpp  **** void nit2f(void* arg2);
  22:src/main.cpp  **** 
  23:src/main.cpp  **** void nit3f(void*);
  24:src/main.cpp  **** 
  25:src/main.cpp  **** sem_t semA;
  26:src/main.cpp  **** 
  27:src/main.cpp  **** void idle(void*) {
  28:src/main.cpp  **** 	while (1) {}
  29:src/main.cpp  **** }
  30:src/main.cpp  **** 
  31:src/main.cpp  **** 
  32:src/main.cpp  **** #pragma GCC optimize("O0")
GAS LISTING /tmp/cc7t4iMB.s 			page 2


  33:src/main.cpp  **** 
  34:src/main.cpp  **** int main() {
  20              		.loc 1 34 12
  21              		.cfi_startproc
  22 0000 130101F9 		addi	sp,sp,-112
  23              		.cfi_def_cfa_offset 112
  24 0004 23341106 		sd	ra,104(sp)
  25 0008 23308106 		sd	s0,96(sp)
  26 000c 233C9104 		sd	s1,88(sp)
  27              		.cfi_offset 1, -8
  28              		.cfi_offset 8, -16
  29              		.cfi_offset 9, -24
  30 0010 13040107 		addi	s0,sp,112
  31              		.cfi_def_cfa 8, 0
  35:src/main.cpp  **** 	//postavi adresu prekidne rutine u stvec
  36:src/main.cpp  **** 	Riscv::w_stvec((uint64)&interruptHandler);
  32              		.loc 1 36 2
  33              		.loc 1 36 16 is_stmt 0
  34 0014 97070000 		la	a5,interruptHandler
  34      83B70700 
  35 001c 13850700 		mv	a0,a5
  36 0020 97000000 		call	_ZN5Riscv7w_stvecEm
  36      E7800000 
  37              	.LVL0:
  37:src/main.cpp  **** 
  38:src/main.cpp  **** 	sem_open(&semA, 0);
  38              		.loc 1 38 2 is_stmt 1
  39              		.loc 1 38 10 is_stmt 0
  40 0028 93050000 		li	a1,0
  41 002c 17050000 		lla	a0,semA
  41      13050500 
  42 0034 97000000 		call	_Z8sem_openPP4KSemj@plt
  42      E7800000 
  43              	.LVL1:
  39:src/main.cpp  **** 
  40:src/main.cpp  **** 
  41:src/main.cpp  **** 
  42:src/main.cpp  **** 
  43:src/main.cpp  **** 	//testiranje alociranja memorije
  44:src/main.cpp  **** 	//testMemory();
  45:src/main.cpp  **** //	uint64* ptr = new uint64;
  46:src/main.cpp  **** //	*ptr = 6;
  47:src/main.cpp  **** //	printInteger(*ptr);
  48:src/main.cpp  **** 
  49:src/main.cpp  **** 	//testiranje liste
  50:src/main.cpp  **** //	List<uint64>* lista = new List<uint64>();
  51:src/main.cpp  **** //	uint64 num = 10;
  52:src/main.cpp  **** //	lista->addFirst(&num);
  53:src/main.cpp  **** //	println("");
  54:src/main.cpp  **** //	printInteger(*(lista->peekFirst()));
  55:src/main.cpp  **** //	delete lista;
  56:src/main.cpp  **** //	println("");
  57:src/main.cpp  **** 
  58:src/main.cpp  **** 	//testiranje kreiranja niti
  59:src/main.cpp  **** 	thread_t glavnaNit = nullptr;
  44              		.loc 1 59 2 is_stmt 1
  45              		.loc 1 59 11 is_stmt 0
GAS LISTING /tmp/cc7t4iMB.s 			page 3


  46 003c 233804FA 		sd	zero,-80(s0)
  60:src/main.cpp  **** 	thread_t nit1 = nullptr;
  47              		.loc 1 60 2 is_stmt 1
  48              		.loc 1 60 11 is_stmt 0
  49 0040 233C04FC 		sd	zero,-40(s0)
  50              	.LVL2:
  61:src/main.cpp  **** 	thread_t nit2 = nullptr;
  51              		.loc 1 61 2 is_stmt 1
  52              		.loc 1 61 11 is_stmt 0
  53 0044 233804FC 		sd	zero,-48(s0)
  54              	.LVL3:
  62:src/main.cpp  **** 	thread_t nit3 = nullptr;
  55              		.loc 1 62 2 is_stmt 1
  56              		.loc 1 62 11 is_stmt 0
  57 0048 233404FC 		sd	zero,-56(s0)
  58              	.LVL4:
  63:src/main.cpp  **** 	thread_t idleNit = nullptr;
  59              		.loc 1 63 2 is_stmt 1
  60              		.loc 1 63 11 is_stmt 0
  61 004c 233404FA 		sd	zero,-88(s0)
  64:src/main.cpp  **** 	thread_create(&glavnaNit, nullptr, nullptr);
  62              		.loc 1 64 2 is_stmt 1
  63              		.loc 1 64 15 is_stmt 0
  64 0050 930704FB 		addi	a5,s0,-80
  65              	.LVL5:
  66 0054 13060000 		li	a2,0
  67 0058 93050000 		li	a1,0
  68 005c 13850700 		mv	a0,a5
  69 0060 97000000 		call	_Z13thread_createPP3TCBPFvPvES2_@plt
  69      E7800000 
  70              	.LVL6:
  65:src/main.cpp  **** 	TCB::running = glavnaNit;
  71              		.loc 1 65 2 is_stmt 1
  72              		.loc 1 65 15 is_stmt 0
  73 0068 033704FB 		ld	a4,-80(s0)
  74 006c 97070000 		la	a5,_ZN3TCB7runningE
  74      83B70700 
  75 0074 23B0E700 		sd	a4,0(a5)
  66:src/main.cpp  **** 	uint64* arg = new uint64;
  76              		.loc 1 66 2 is_stmt 1
  77              		.loc 1 66 20 is_stmt 0
  78 0078 13058000 		li	a0,8
  79 007c 97000000 		call	_Znwm@plt
  79      E7800000 
  80              	.LVL7:
  81 0084 93070500 		mv	a5,a0
  82 0088 2330F4FC 		sd	a5,-64(s0)
  83              	.LVL8:
  67:src/main.cpp  **** 	*arg = 666;
  84              		.loc 1 67 2 is_stmt 1
  85              		.loc 1 67 7 is_stmt 0
  86 008c 833704FC 		ld	a5,-64(s0)
  87 0090 1307A029 		li	a4,666
  88 0094 23B0E700 		sd	a4,0(a5)
  68:src/main.cpp  **** 	ThreadQueue* q = new ThreadQueue();
  89              		.loc 1 68 2 is_stmt 1
  90              		.loc 1 68 35 is_stmt 0
GAS LISTING /tmp/cc7t4iMB.s 			page 4


  91 0098 13050001 		li	a0,16
  92              	.LVL9:
  93 009c 97000000 		call	_ZN11ThreadQueuenwEm
  93      E7800000 
  94              	.LVL10:
  95 00a4 93040500 		mv	s1,a0
  96 00a8 13850400 		mv	a0,s1
  97 00ac 97000000 		call	_ZN11ThreadQueueC1Ev
  97      E7800000 
  98              	.LVL11:
  99 00b4 233C94FA 		sd	s1,-72(s0)
 100              	.LVL12:
  69:src/main.cpp  **** 	q->putLast(nit3);
 101              		.loc 1 69 2 is_stmt 1
 102              		.loc 1 69 12 is_stmt 0
 103 00b8 833584FC 		ld	a1,-56(s0)
 104 00bc 033584FB 		ld	a0,-72(s0)
 105 00c0 97000000 		call	_ZN11ThreadQueue7putLastEP3TCB@plt
 105      E7800000 
 106              	.LVL13:
  70:src/main.cpp  **** 	q->putLast(nit2);
 107              		.loc 1 70 2 is_stmt 1
 108              		.loc 1 70 12 is_stmt 0
 109 00c8 833504FD 		ld	a1,-48(s0)
 110 00cc 033584FB 		ld	a0,-72(s0)
 111 00d0 97000000 		call	_ZN11ThreadQueue7putLastEP3TCB@plt
 111      E7800000 
 112              	.LVL14:
  71:src/main.cpp  **** 	q->putLast(nit1);
 113              		.loc 1 71 2 is_stmt 1
 114              		.loc 1 71 12 is_stmt 0
 115 00d8 833584FD 		ld	a1,-40(s0)
 116 00dc 033584FB 		ld	a0,-72(s0)
 117 00e0 97000000 		call	_ZN11ThreadQueue7putLastEP3TCB@plt
 117      E7800000 
 118              	.LVL15:
  72:src/main.cpp  **** 	thread_t nitred3 = q->getFirst();
 119              		.loc 1 72 2 is_stmt 1
 120              		.loc 1 72 32 is_stmt 0
 121 00e8 033584FB 		ld	a0,-72(s0)
 122 00ec 97000000 		call	_ZN11ThreadQueue8getFirstEv@plt
 122      E7800000 
 123              	.LVL16:
 124 00f4 93070500 		mv	a5,a0
 125              		.loc 1 72 33
 126 00f8 2330F4FA 		sd	a5,-96(s0)
  73:src/main.cpp  **** 	thread_t nitred2 = q->getFirst();
 127              		.loc 1 73 2 is_stmt 1
 128              		.loc 1 73 32 is_stmt 0
 129 00fc 033584FB 		ld	a0,-72(s0)
 130 0100 97000000 		call	_ZN11ThreadQueue8getFirstEv@plt
 130      E7800000 
 131              	.LVL17:
 132 0108 93070500 		mv	a5,a0
 133              		.loc 1 73 33
 134 010c 233CF4F8 		sd	a5,-104(s0)
  74:src/main.cpp  **** 	thread_t nitred1 = q->getFirst();
GAS LISTING /tmp/cc7t4iMB.s 			page 5


 135              		.loc 1 74 2 is_stmt 1
 136              		.loc 1 74 32 is_stmt 0
 137 0110 033584FB 		ld	a0,-72(s0)
 138 0114 97000000 		call	_ZN11ThreadQueue8getFirstEv@plt
 138      E7800000 
 139              	.LVL18:
 140 011c 93070500 		mv	a5,a0
 141              		.loc 1 74 33
 142 0120 2338F4F8 		sd	a5,-112(s0)
  75:src/main.cpp  **** 	thread_create(&idleNit, idle, nullptr);
 143              		.loc 1 75 2 is_stmt 1
 144              		.loc 1 75 15 is_stmt 0
 145 0124 930784FA 		addi	a5,s0,-88
 146 0128 13060000 		li	a2,0
 147 012c 97050000 		lla	a1,_Z4idlePv
 147      93850500 
 148 0134 13850700 		mv	a0,a5
 149 0138 97000000 		call	_Z13thread_createPP3TCBPFvPvES2_@plt
 149      E7800000 
 150              	.LVL19:
  76:src/main.cpp  **** 	thread_create(&nitred1, nit1f, nullptr);
 151              		.loc 1 76 2 is_stmt 1
 152              		.loc 1 76 15 is_stmt 0
 153 0140 930704F9 		addi	a5,s0,-112
 154 0144 13060000 		li	a2,0
 155 0148 97050000 		la	a1,_Z5nit1fPv
 155      83B50500 
 156 0150 13850700 		mv	a0,a5
 157 0154 97000000 		call	_Z13thread_createPP3TCBPFvPvES2_@plt
 157      E7800000 
 158              	.LVL20:
  77:src/main.cpp  **** 	thread_create(&nitred2, nit2f, arg);
 159              		.loc 1 77 2 is_stmt 1
 160              		.loc 1 77 15 is_stmt 0
 161 015c 930784F9 		addi	a5,s0,-104
 162 0160 033604FC 		ld	a2,-64(s0)
 163 0164 97050000 		la	a1,_Z5nit2fPv
 163      83B50500 
 164 016c 13850700 		mv	a0,a5
 165 0170 97000000 		call	_Z13thread_createPP3TCBPFvPvES2_@plt
 165      E7800000 
 166              	.LVL21:
  78:src/main.cpp  **** 	thread_create(&nitred3, nit3f, nullptr);
 167              		.loc 1 78 2 is_stmt 1
 168              		.loc 1 78 15 is_stmt 0
 169 0178 930704FA 		addi	a5,s0,-96
 170 017c 13060000 		li	a2,0
 171 0180 97050000 		la	a1,_Z5nit3fPv
 171      83B50500 
 172 0188 13850700 		mv	a0,a5
 173 018c 97000000 		call	_Z13thread_createPP3TCBPFvPvES2_@plt
 173      E7800000 
 174              	.LVL22:
  79:src/main.cpp  **** 
  80:src/main.cpp  **** 	//omoguci prekide
  81:src/main.cpp  **** 	Riscv::ms_sstatus(Riscv::SSTATUS_SIE);
 175              		.loc 1 81 2 is_stmt 1
GAS LISTING /tmp/cc7t4iMB.s 			page 6


 176              		.loc 1 81 19 is_stmt 0
 177 0194 13052000 		li	a0,2
 178 0198 97000000 		call	_ZN5Riscv10ms_sstatusEm
 178      E7800000 
 179              	.LVL23:
  82:src/main.cpp  **** 
  83:src/main.cpp  **** //	while (!nitred1->isFinished() || !nitred2->isFinished()) {
  84:src/main.cpp  **** //		thread_dispatch();
  85:src/main.cpp  **** //	}
  86:src/main.cpp  **** 	thread_join(nitred1);
 180              		.loc 1 86 2 is_stmt 1
 181              		.loc 1 86 13 is_stmt 0
 182 01a0 833704F9 		ld	a5,-112(s0)
 183 01a4 13850700 		mv	a0,a5
 184 01a8 97000000 		call	_Z11thread_joinP3TCB@plt
 184      E7800000 
 185              	.LVL24:
  87:src/main.cpp  **** 	thread_join(nitred2);
 186              		.loc 1 87 2 is_stmt 1
 187              		.loc 1 87 13 is_stmt 0
 188 01b0 833784F9 		ld	a5,-104(s0)
 189 01b4 13850700 		mv	a0,a5
 190 01b8 97000000 		call	_Z11thread_joinP3TCB@plt
 190      E7800000 
 191              	.LVL25:
  88:src/main.cpp  **** 	thread_join(nitred3);
 192              		.loc 1 88 2 is_stmt 1
 193              		.loc 1 88 13 is_stmt 0
 194 01c0 833704FA 		ld	a5,-96(s0)
 195 01c4 13850700 		mv	a0,a5
 196 01c8 97000000 		call	_Z11thread_joinP3TCB@plt
 196      E7800000 
 197              	.LVL26:
  89:src/main.cpp  **** 
  90:src/main.cpp  **** 	printString("\nProsao while\n");
 198              		.loc 1 90 2 is_stmt 1
 199              		.loc 1 90 13 is_stmt 0
 200 01d0 17050000 		lla	a0,.LC0
 200      13050500 
 201 01d8 97000000 		call	_Z11printStringPKc@plt
 201      E7800000 
 202              	.LVL27:
  91:src/main.cpp  **** 	delete q;
 203              		.loc 1 91 2 is_stmt 1
 204              		.loc 1 91 9 is_stmt 0
 205 01e0 833484FB 		ld	s1,-72(s0)
 206              	.LVL28:
 207              		.loc 1 91 10
 208 01e4 638E0400 		beqz	s1,.L2
 209              		.loc 1 91 9 discriminator 1
 210 01e8 13850400 		mv	a0,s1
 211 01ec 97000000 		call	_ZN11ThreadQueueD1Ev
 211      E7800000 
 212              	.LVL29:
 213 01f4 13850400 		mv	a0,s1
 214 01f8 97000000 		call	_ZN11ThreadQueuedlEPv
 214      E7800000 
GAS LISTING /tmp/cc7t4iMB.s 			page 7


 215              	.LVL30:
 216              	.L2:
  92:src/main.cpp  **** 	//zabrani prekide
  93:src/main.cpp  **** 	Riscv::mc_sstatus(Riscv::SSTATUS_SIE);
 217              		.loc 1 93 2 is_stmt 1
 218              		.loc 1 93 19 is_stmt 0
 219 0200 13052000 		li	a0,2
 220 0204 97000000 		call	_ZN5Riscv10mc_sstatusEm
 220      E7800000 
 221              	.LVL31:
  94:src/main.cpp  **** 	printString("\nSad cu da izadjem\n");
 222              		.loc 1 94 2 is_stmt 1
 223              		.loc 1 94 13 is_stmt 0
 224 020c 17050000 		lla	a0,.LC1
 224      13050500 
 225 0214 97000000 		call	_Z11printStringPKc@plt
 225      E7800000 
 226              	.LVL32:
  95:src/main.cpp  **** 
  96:src/main.cpp  **** //testiranje svega
  97:src/main.cpp  **** //	thread_t mainHandle;
  98:src/main.cpp  **** //	thread_t userHandle;
  99:src/main.cpp  **** //	thread_create(&mainHandle, nullptr, nullptr);
 100:src/main.cpp  **** //	TCB::running = mainHandle;
 101:src/main.cpp  **** //	thread_create(&userHandle, (TCB::Body)userMain, nullptr);
 102:src/main.cpp  **** //	while (!userHandle->isFinished()) {
 103:src/main.cpp  **** //		thread_dispatch();
 104:src/main.cpp  **** //	}
 105:src/main.cpp  **** //	Riscv::mc_sstatus(Riscv::SSTATUS_SIE);
 106:src/main.cpp  **** 	return 0;
 227              		.loc 1 106 2 is_stmt 1
 228              		.loc 1 106 9 is_stmt 0
 229 021c 93070000 		li	a5,0
 107:src/main.cpp  **** }...
 230              		.loc 1 107 1
 231 0220 13850700 		mv	a0,a5
 232 0224 83308106 		ld	ra,104(sp)
 233              		.cfi_restore 1
 234 0228 03340106 		ld	s0,96(sp)
 235              		.cfi_restore 8
 236              		.cfi_def_cfa 2, 112
 237              	.LVL33:
 238 022c 83348105 		ld	s1,88(sp)
 239              		.cfi_restore 9
 240 0230 13010107 		addi	sp,sp,112
 241              		.cfi_def_cfa_offset 0
 242              	.LVL34:
 243 0234 67800000 		jr	ra
 244              		.cfi_endproc
 245              	.LFE44:
 247              		.align	2
 248              		.globl	_Z4idlePv
 250              	_Z4idlePv:
 251              	.LFB43:
  27:src/main.cpp  **** void idle(void*) {
 252              		.loc 1 27 18 is_stmt 1
 253              		.cfi_startproc
GAS LISTING /tmp/cc7t4iMB.s 			page 8


 254 0238 130101FF 		addi	sp,sp,-16
 255              		.cfi_def_cfa_offset 16
 256 023c 23348100 		sd	s0,8(sp)
 257              		.cfi_offset 8, -8
 258 0240 13040101 		addi	s0,sp,16
 259              		.cfi_def_cfa 8, 0
 260              	.L5:
  28:src/main.cpp  **** 	while (1) {}
 261              		.loc 1 28 2 discriminator 1
  28:src/main.cpp  **** 	while (1) {}
 262              		.loc 1 28 2 discriminator 1
 263 0244 6F000000 		j	.L5
 264              		.cfi_endproc
 265              	.LFE43:
 267              		.section	.text._ZN5Riscv7w_stvecEm,"axG",@progbits,_ZN5Riscv7w_stvecEm,comdat
 268              		.align	2
 269              		.weak	_ZN5Riscv7w_stvecEm
 271              	_ZN5Riscv7w_stvecEm:
 272              	.LFB5:
 273              		.file 2 "src/../h/Riscv.hpp"
   1:src/../h/Riscv.hpp **** //
   2:src/../h/Riscv.hpp **** // Created by os on 5/17/23.
   3:src/../h/Riscv.hpp **** //
   4:src/../h/Riscv.hpp **** 
   5:src/../h/Riscv.hpp **** #ifndef PROJEKAT2023_RISCV_HPP
   6:src/../h/Riscv.hpp **** #define PROJEKAT2023_RISCV_HPP
   7:src/../h/Riscv.hpp **** 
   8:src/../h/Riscv.hpp **** #include "../lib/hw.h"
   9:src/../h/Riscv.hpp **** 
  10:src/../h/Riscv.hpp **** class Riscv {
  11:src/../h/Riscv.hpp **** public:
  12:src/../h/Riscv.hpp **** 
  13:src/../h/Riscv.hpp **** 	static void popSppSpie();
  14:src/../h/Riscv.hpp **** 
  15:src/../h/Riscv.hpp **** 	//stavljanje registara x3-x31 na stek
  16:src/../h/Riscv.hpp **** 	static void pushRegisters();    //implementacija u asm
  17:src/../h/Riscv.hpp **** 
  18:src/../h/Riscv.hpp **** 	//skidanje registara x3-x31 sa steka
  19:src/../h/Riscv.hpp **** 	static void popRegisters();     //implementacija u asm
  20:src/../h/Riscv.hpp **** 
  21:src/../h/Riscv.hpp **** 	//read scause
  22:src/../h/Riscv.hpp **** 	static uint64 r_scause();
  23:src/../h/Riscv.hpp **** 
  24:src/../h/Riscv.hpp **** 	//write scause
  25:src/../h/Riscv.hpp **** 	static void w_scause(uint64 scause);
  26:src/../h/Riscv.hpp **** 
  27:src/../h/Riscv.hpp **** 	//read sepc
  28:src/../h/Riscv.hpp **** 	static uint64 r_sepc();
  29:src/../h/Riscv.hpp **** 
  30:src/../h/Riscv.hpp **** 	//write sepc
  31:src/../h/Riscv.hpp **** 	static void w_sepc(uint64 sepc);
  32:src/../h/Riscv.hpp **** 
  33:src/../h/Riscv.hpp **** 	//read stvec
  34:src/../h/Riscv.hpp **** 	static uint64 r_stvec();
  35:src/../h/Riscv.hpp **** 
  36:src/../h/Riscv.hpp **** 	//write stvec
  37:src/../h/Riscv.hpp **** 	static void w_stvec(uint64 stvec);
GAS LISTING /tmp/cc7t4iMB.s 			page 9


  38:src/../h/Riscv.hpp **** 
  39:src/../h/Riscv.hpp **** 	enum BitMaskSip {
  40:src/../h/Riscv.hpp **** 		//postoji zahtev za softverski prekid
  41:src/../h/Riscv.hpp **** 		SIP_SSIP = (1 << 1),
  42:src/../h/Riscv.hpp **** 		//postoji prekid od tajmera
  43:src/../h/Riscv.hpp **** 		SIP_STIP = (1 << 5),
  44:src/../h/Riscv.hpp **** 		//postoji zahtev za spoljasnji hardverski prekid
  45:src/../h/Riscv.hpp **** 		SIP_SEIP = (1 << 9)
  46:src/../h/Riscv.hpp **** 	};
  47:src/../h/Riscv.hpp **** 
  48:src/../h/Riscv.hpp **** 	//mask set sip
  49:src/../h/Riscv.hpp **** 	static void ms_sip(uint64 mask);
  50:src/../h/Riscv.hpp **** 
  51:src/../h/Riscv.hpp **** 	//mask clear sip
  52:src/../h/Riscv.hpp **** 	static void mc_sip(uint64 mask);
  53:src/../h/Riscv.hpp **** 
  54:src/../h/Riscv.hpp **** 	//read sip
  55:src/../h/Riscv.hpp **** 	static uint64 r_sip();
  56:src/../h/Riscv.hpp **** 
  57:src/../h/Riscv.hpp **** 	//write sip
  58:src/../h/Riscv.hpp **** 	static void w_sip(uint64 sip);
  59:src/../h/Riscv.hpp **** 
  60:src/../h/Riscv.hpp **** 	//kada se pozove sret, SIE dobija vrednost SPIE, SPIE se postavlja na 1,
  61:src/../h/Riscv.hpp **** 	//rezim se postavlja na osnovu SPP bita, SPP se postavlja na 0
  62:src/../h/Riscv.hpp **** 	enum BitMaskSstatus {
  63:src/../h/Riscv.hpp **** 		//1 - dozvoljeni prekidi; 0- nedozvoljeni prekidi; igonrise se u korisnickom rezimu
  64:src/../h/Riscv.hpp **** 		SSTATUS_SIE = (1 << 1),
  65:src/../h/Riscv.hpp **** 		//prethodna vrednost bita SIE
  66:src/../h/Riscv.hpp **** 		SSTATUS_SPIE = (1 << 5),
  67:src/../h/Riscv.hpp **** 		//iz kog rezima se desio skok; 0 - iz korisnickog; 1 - iz sistemskog
  68:src/../h/Riscv.hpp **** 		SSTATUS_SPP = (1 << 8)
  69:src/../h/Riscv.hpp **** 	};
  70:src/../h/Riscv.hpp **** 
  71:src/../h/Riscv.hpp **** 	//mask set sstatus
  72:src/../h/Riscv.hpp **** 	static void ms_sstatus(uint64 mask);
  73:src/../h/Riscv.hpp **** 
  74:src/../h/Riscv.hpp **** 	//mask clear sstatus
  75:src/../h/Riscv.hpp **** 	static void mc_sstatus(uint64 mask);
  76:src/../h/Riscv.hpp **** 
  77:src/../h/Riscv.hpp **** 	//read sstatus
  78:src/../h/Riscv.hpp **** 	static uint64 r_sstatus();
  79:src/../h/Riscv.hpp **** 
  80:src/../h/Riscv.hpp **** 	//write sstatus
  81:src/../h/Riscv.hpp **** 	static void w_sstatus(uint64 sstatus);
  82:src/../h/Riscv.hpp **** 
  83:src/../h/Riscv.hpp **** 	//upisuje kod sistemskog poziva u registar a0
  84:src/../h/Riscv.hpp **** 	static void loadOpCode(uint64 opCode);
  85:src/../h/Riscv.hpp **** 
  86:src/../h/Riscv.hpp **** };
  87:src/../h/Riscv.hpp **** 
  88:src/../h/Riscv.hpp **** inline uint64 Riscv::r_scause() {
  89:src/../h/Riscv.hpp **** 	uint64 volatile scause;
  90:src/../h/Riscv.hpp **** 	__asm__ volatile("csrr %[scause], scause": [scause] "=r"(scause));
  91:src/../h/Riscv.hpp **** 	return scause;
  92:src/../h/Riscv.hpp **** }
  93:src/../h/Riscv.hpp **** 
  94:src/../h/Riscv.hpp **** inline void Riscv::w_scause(uint64 scause) {
GAS LISTING /tmp/cc7t4iMB.s 			page 10


  95:src/../h/Riscv.hpp **** 	__asm__ volatile("csrw scause, %[scause]": :[scause] "r"(scause));
  96:src/../h/Riscv.hpp **** }
  97:src/../h/Riscv.hpp **** 
  98:src/../h/Riscv.hpp **** inline uint64 Riscv::r_sepc() {
  99:src/../h/Riscv.hpp **** 	uint64 volatile sepc;
 100:src/../h/Riscv.hpp **** 	__asm__ volatile("csrr %[sepc], sepc": [sepc] "=r"(sepc));
 101:src/../h/Riscv.hpp **** 	return sepc;
 102:src/../h/Riscv.hpp **** }
 103:src/../h/Riscv.hpp **** 
 104:src/../h/Riscv.hpp **** inline void Riscv::w_sepc(uint64 sepc) {
 105:src/../h/Riscv.hpp **** 	__asm__ volatile("csrw sepc, %[sepc]": :[sepc] "r"(sepc));
 106:src/../h/Riscv.hpp **** }
 107:src/../h/Riscv.hpp **** 
 108:src/../h/Riscv.hpp **** inline uint64 Riscv::r_stvec() {
 109:src/../h/Riscv.hpp **** 	uint64 volatile stvec;
 110:src/../h/Riscv.hpp **** 	__asm__ volatile("csrr %[stvec], stvec": [stvec] "=r"(stvec));
 111:src/../h/Riscv.hpp **** 	return stvec;
 112:src/../h/Riscv.hpp **** }
 113:src/../h/Riscv.hpp **** 
 114:src/../h/Riscv.hpp **** inline void Riscv::w_stvec(uint64 stvec) {
 274              		.loc 2 114 42
 275              		.cfi_startproc
 276              	.LVL35:
 277 0000 130101FF 		addi	sp,sp,-16
 278              		.cfi_def_cfa_offset 16
 279 0004 23348100 		sd	s0,8(sp)
 280              		.cfi_offset 8, -8
 281 0008 13040101 		addi	s0,sp,16
 282              		.cfi_def_cfa 8, 0
 115:src/../h/Riscv.hpp **** 	__asm__ volatile("csrw stvec, %[stvec]": :[stvec] "r"(stvec));
 283              		.loc 2 115 2
 284              		.loc 2 115 63 is_stmt 0
 285              	#APP
 286              	# 115 "src/../h/Riscv.hpp" 1
 116              	}
 287              		csrw stvec, a0
 288              	# 0 "" 2
 289              		.loc 2 116 1
 290              	#NO_APP
 291 0010 03348100 		ld	s0,8(sp)
 292              		.cfi_restore 8
 293              		.cfi_def_cfa 2, 16
 294 0014 13010101 		addi	sp,sp,16
 295              		.cfi_def_cfa_offset 0
 296 0018 67800000 		jr	ra
 297              		.cfi_endproc
 298              	.LFE5:
 300              		.section	.text._ZN5Riscv10ms_sstatusEm,"axG",@progbits,_ZN5Riscv10ms_sstatusEm,comdat
 301              		.align	2
 302              		.weak	_ZN5Riscv10ms_sstatusEm
 304              	_ZN5Riscv10ms_sstatusEm:
 305              	.LFB10:
 117:src/../h/Riscv.hpp **** 
 118:src/../h/Riscv.hpp **** inline void Riscv::ms_sip(uint64 mask) {
 119:src/../h/Riscv.hpp **** 	__asm__ volatile("csrs sip, %[mask]": :[mask] "r"(mask));
 120:src/../h/Riscv.hpp **** }
 121:src/../h/Riscv.hpp **** 
GAS LISTING /tmp/cc7t4iMB.s 			page 11


 122:src/../h/Riscv.hpp **** inline void Riscv::mc_sip(uint64 mask) {
 123:src/../h/Riscv.hpp **** 	__asm__ volatile("csrc sip, %[mask]": :[mask] "r"(mask));
 124:src/../h/Riscv.hpp **** }
 125:src/../h/Riscv.hpp **** 
 126:src/../h/Riscv.hpp **** inline uint64 Riscv::r_sip() {
 127:src/../h/Riscv.hpp **** 	uint64 volatile sip;
 128:src/../h/Riscv.hpp **** 	__asm__ volatile("csrr %[sip], sip": [sip] "=r"(sip));
 129:src/../h/Riscv.hpp **** 	return sip;
 130:src/../h/Riscv.hpp **** }
 131:src/../h/Riscv.hpp **** 
 132:src/../h/Riscv.hpp **** inline void Riscv::w_sip(uint64 sip) {
 133:src/../h/Riscv.hpp **** 	__asm__ volatile("csrw sip, %[sip]": :[sip] "r"(sip));
 134:src/../h/Riscv.hpp **** }
 135:src/../h/Riscv.hpp **** 
 136:src/../h/Riscv.hpp **** inline void Riscv::ms_sstatus(uint64 mask) {
 306              		.loc 2 136 44 is_stmt 1
 307              		.cfi_startproc
 308              	.LVL36:
 309 0000 130101FF 		addi	sp,sp,-16
 310              		.cfi_def_cfa_offset 16
 311 0004 23348100 		sd	s0,8(sp)
 312              		.cfi_offset 8, -8
 313 0008 13040101 		addi	s0,sp,16
 314              		.cfi_def_cfa 8, 0
 137:src/../h/Riscv.hpp **** 	__asm__ volatile("csrs sstatus, %[mask]": :[mask] "r"(mask));
 315              		.loc 2 137 2
 316              		.loc 2 137 62 is_stmt 0
 317              	#APP
 318              	# 137 "src/../h/Riscv.hpp" 1
 138              	}
 319              		csrs sstatus, a0
 320              	# 0 "" 2
 321              		.loc 2 138 1
 322              	#NO_APP
 323 0010 03348100 		ld	s0,8(sp)
 324              		.cfi_restore 8
 325              		.cfi_def_cfa 2, 16
 326 0014 13010101 		addi	sp,sp,16
 327              		.cfi_def_cfa_offset 0
 328 0018 67800000 		jr	ra
 329              		.cfi_endproc
 330              	.LFE10:
 332              		.section	.text._ZN5Riscv10mc_sstatusEm,"axG",@progbits,_ZN5Riscv10mc_sstatusEm,comdat
 333              		.align	2
 334              		.weak	_ZN5Riscv10mc_sstatusEm
 336              	_ZN5Riscv10mc_sstatusEm:
 337              	.LFB11:
 139:src/../h/Riscv.hpp **** 
 140:src/../h/Riscv.hpp **** inline void Riscv::mc_sstatus(uint64 mask) {
 338              		.loc 2 140 44 is_stmt 1
 339              		.cfi_startproc
 340              	.LVL37:
 341 0000 130101FF 		addi	sp,sp,-16
 342              		.cfi_def_cfa_offset 16
 343 0004 23348100 		sd	s0,8(sp)
 344              		.cfi_offset 8, -8
 345 0008 13040101 		addi	s0,sp,16
GAS LISTING /tmp/cc7t4iMB.s 			page 12


 346              		.cfi_def_cfa 8, 0
 141:src/../h/Riscv.hpp **** 	__asm__ volatile("csrc sstatus, %[mask]": :[mask] "r"(mask));
 347              		.loc 2 141 2
 348              		.loc 2 141 62 is_stmt 0
 349              	#APP
 350              	# 141 "src/../h/Riscv.hpp" 1
 142              	}
 351              		csrc sstatus, a0
 352              	# 0 "" 2
 353              		.loc 2 142 1
 354              	#NO_APP
 355 0010 03348100 		ld	s0,8(sp)
 356              		.cfi_restore 8
 357              		.cfi_def_cfa 2, 16
 358 0014 13010101 		addi	sp,sp,16
 359              		.cfi_def_cfa_offset 0
 360 0018 67800000 		jr	ra
 361              		.cfi_endproc
 362              	.LFE11:
 364              		.section	.text._ZN11ThreadQueueC2Ev,"axG",@progbits,_ZN11ThreadQueueC5Ev,comdat
 365              		.align	2
 366              		.weak	_ZN11ThreadQueueC2Ev
 368              	_ZN11ThreadQueueC2Ev:
 369              	.LFB26:
 370              		.file 3 "src/../h/../h/ThreadQueue.hpp"
   1:src/../h/../h/ThreadQueue.hpp **** //
   2:src/../h/../h/ThreadQueue.hpp **** // Created by os on 6/4/23.
   3:src/../h/../h/ThreadQueue.hpp **** //
   4:src/../h/../h/ThreadQueue.hpp **** 
   5:src/../h/../h/ThreadQueue.hpp **** #ifndef PROJEKAT2023_THREADQUEUE_HPP
   6:src/../h/../h/ThreadQueue.hpp **** #define PROJEKAT2023_THREADQUEUE_HPP
   7:src/../h/../h/ThreadQueue.hpp **** 
   8:src/../h/../h/ThreadQueue.hpp **** #include "../h/MemoryAllocator.hpp"
   9:src/../h/../h/ThreadQueue.hpp **** #include "../h/syscall_c.hpp"
  10:src/../h/../h/ThreadQueue.hpp **** 
  11:src/../h/../h/ThreadQueue.hpp **** class TCB;
  12:src/../h/../h/ThreadQueue.hpp **** 
  13:src/../h/../h/ThreadQueue.hpp **** class ThreadQueue {
  14:src/../h/../h/ThreadQueue.hpp **** private:
  15:src/../h/../h/ThreadQueue.hpp **** 	struct Node {
  16:src/../h/../h/ThreadQueue.hpp **** 		TCB* data;
  17:src/../h/../h/ThreadQueue.hpp **** 		Node* next;
  18:src/../h/../h/ThreadQueue.hpp **** 
  19:src/../h/../h/ThreadQueue.hpp **** 		Node(TCB* d) : data(d), next(nullptr) {}
  20:src/../h/../h/ThreadQueue.hpp **** 
  21:src/../h/../h/ThreadQueue.hpp **** 		static void* operator new(size_t size) {
  22:src/../h/../h/ThreadQueue.hpp **** 			return mem_alloc(size);
  23:src/../h/../h/ThreadQueue.hpp **** 		}
  24:src/../h/../h/ThreadQueue.hpp **** 
  25:src/../h/../h/ThreadQueue.hpp **** 		static void operator delete(void* ptr) {
  26:src/../h/../h/ThreadQueue.hpp **** 			mem_free(ptr);
  27:src/../h/../h/ThreadQueue.hpp **** 		}
  28:src/../h/../h/ThreadQueue.hpp **** 	};
  29:src/../h/../h/ThreadQueue.hpp **** 
  30:src/../h/../h/ThreadQueue.hpp **** 	Node* front;
  31:src/../h/../h/ThreadQueue.hpp **** 	Node* back;
  32:src/../h/../h/ThreadQueue.hpp **** 
GAS LISTING /tmp/cc7t4iMB.s 			page 13


  33:src/../h/../h/ThreadQueue.hpp **** public:
  34:src/../h/../h/ThreadQueue.hpp **** 	ThreadQueue() : front(nullptr), back(nullptr) {}
 371              		.loc 3 34 2 is_stmt 1
 372              		.cfi_startproc
 373              	.LVL38:
 374 0000 130101FF 		addi	sp,sp,-16
 375              		.cfi_def_cfa_offset 16
 376 0004 23348100 		sd	s0,8(sp)
 377              		.cfi_offset 8, -8
 378 0008 13040101 		addi	s0,sp,16
 379              		.cfi_def_cfa 8, 0
 380              	.LBB9:
 381              		.loc 3 34 46 is_stmt 0
 382 000c 23300500 		sd	zero,0(a0)
 383 0010 23340500 		sd	zero,8(a0)
 384              	.LBE9:
 385              		.loc 3 34 49
 386 0014 03348100 		ld	s0,8(sp)
 387              		.cfi_restore 8
 388              		.cfi_def_cfa 2, 16
 389 0018 13010101 		addi	sp,sp,16
 390              		.cfi_def_cfa_offset 0
 391 001c 67800000 		jr	ra
 392              		.cfi_endproc
 393              	.LFE26:
 395              		.weak	_ZN11ThreadQueueC1Ev
 396              		.set	_ZN11ThreadQueueC1Ev,_ZN11ThreadQueueC2Ev
 397              		.section	.text._ZN11ThreadQueueD2Ev,"axG",@progbits,_ZN11ThreadQueueD5Ev,comdat
 398              		.align	2
 399              		.weak	_ZN11ThreadQueueD2Ev
 401              	_ZN11ThreadQueueD2Ev:
 402              	.LFB29:
  35:src/../h/../h/ThreadQueue.hpp **** 
  36:src/../h/../h/ThreadQueue.hpp **** 	ThreadQueue(const ThreadQueue&) = delete;
  37:src/../h/../h/ThreadQueue.hpp **** 
  38:src/../h/../h/ThreadQueue.hpp **** 	ThreadQueue& operator=(const ThreadQueue&) = delete;
  39:src/../h/../h/ThreadQueue.hpp **** 
  40:src/../h/../h/ThreadQueue.hpp **** 	~ThreadQueue() {
 403              		.loc 3 40 2 is_stmt 1
 404              		.cfi_startproc
 405              		.cfi_personality 0x9b,DW.ref.__gxx_personality_v0
 406              		.cfi_lsda 0x1b,.LLSDA29
 407              	.LVL39:
 408 0000 130101FE 		addi	sp,sp,-32
 409              		.cfi_def_cfa_offset 32
 410 0004 233C1100 		sd	ra,24(sp)
 411 0008 23388100 		sd	s0,16(sp)
 412 000c 23349100 		sd	s1,8(sp)
 413              		.cfi_offset 1, -8
 414              		.cfi_offset 8, -16
 415              		.cfi_offset 9, -24
 416 0010 13040102 		addi	s0,sp,32
 417              		.cfi_def_cfa 8, 0
 418 0014 93040500 		mv	s1,a0
 419              	.LVL40:
 420              	.L17:
 421              	.LBB10:
GAS LISTING /tmp/cc7t4iMB.s 			page 14


  41:src/../h/../h/ThreadQueue.hpp **** 		while (!isEmpty()) {
 422              		.loc 3 41 3
 423              		.loc 3 41 10
 424              	.LBB11:
 425              	.LBB12:
  42:src/../h/../h/ThreadQueue.hpp **** 			Node* node = front;
  43:src/../h/../h/ThreadQueue.hpp **** 			front = front->next;
  44:src/../h/../h/ThreadQueue.hpp **** 			delete node;
  45:src/../h/../h/ThreadQueue.hpp **** 		}
  46:src/../h/../h/ThreadQueue.hpp **** 	}
  47:src/../h/../h/ThreadQueue.hpp **** 
  48:src/../h/../h/ThreadQueue.hpp **** 	bool isEmpty() const {
  49:src/../h/../h/ThreadQueue.hpp **** 		return front == nullptr;
 426              		.loc 3 49 3
 427              		.loc 3 49 10 is_stmt 0
 428 0018 03B50400 		ld	a0,0(s1)
 429              	.LVL41:
 430              	.LBE12:
 431              	.LBE11:
  41:src/../h/../h/ThreadQueue.hpp **** 		while (!isEmpty()) {
 432              		.loc 3 41 10
 433 001c 630E0500 		beqz	a0,.L15
 434              	.LBB13:
  42:src/../h/../h/ThreadQueue.hpp **** 			Node* node = front;
 435              		.loc 3 42 4 is_stmt 1
 436              	.LVL42:
  43:src/../h/../h/ThreadQueue.hpp **** 			delete node;
 437              		.loc 3 43 4
  43:src/../h/../h/ThreadQueue.hpp **** 			delete node;
 438              		.loc 3 43 19 is_stmt 0
 439 0020 83378500 		ld	a5,8(a0)
  43:src/../h/../h/ThreadQueue.hpp **** 			delete node;
 440              		.loc 3 43 10
 441 0024 23B0F400 		sd	a5,0(s1)
  44:src/../h/../h/ThreadQueue.hpp **** 		}
 442              		.loc 3 44 4 is_stmt 1
  44:src/../h/../h/ThreadQueue.hpp **** 		}
 443              		.loc 3 44 15 is_stmt 0
 444 0028 E30805FE 		beqz	a0,.L17
 445              	.LVL43:
 446              	.LBB14:
 447              	.LBB15:
  26:src/../h/../h/ThreadQueue.hpp **** 		}
 448              		.loc 3 26 4 is_stmt 1 discriminator 1
  26:src/../h/../h/ThreadQueue.hpp **** 		}
 449              		.loc 3 26 12 is_stmt 0 discriminator 1
 450 002c 97000000 		call	_Z8mem_freePv@plt
 450      E7800000 
 451              	.LVL44:
  27:src/../h/../h/ThreadQueue.hpp **** 	};
 452              		.loc 3 27 3 discriminator 1
 453 0034 6FF05FFE 		j	.L17
 454              	.L15:
 455              	.LBE15:
 456              	.LBE14:
 457              	.LBE13:
 458              	.LBE10:
GAS LISTING /tmp/cc7t4iMB.s 			page 15


  46:src/../h/../h/ThreadQueue.hpp **** 
 459              		.loc 3 46 2
 460 0038 83308101 		ld	ra,24(sp)
 461              		.cfi_restore 1
 462 003c 03340101 		ld	s0,16(sp)
 463              		.cfi_restore 8
 464              		.cfi_def_cfa 2, 32
 465 0040 83348100 		ld	s1,8(sp)
 466              		.cfi_restore 9
 467              	.LVL45:
 468 0044 13010102 		addi	sp,sp,32
 469              		.cfi_def_cfa_offset 0
 470 0048 67800000 		jr	ra
 471              		.cfi_endproc
 472              	.LFE29:
 473              		.globl	__gxx_personality_v0
 474              		.section	.gcc_except_table._ZN11ThreadQueueD2Ev,"aG",@progbits,_ZN11ThreadQueueD5Ev,comdat
 475              	.LLSDA29:
 476 0000 FF       		.byte	0xff
 477 0001 FF       		.byte	0xff
 478 0002 03       		.byte	0x3
 479 0003 00       		.byte	0
 480              		.section	.text._ZN11ThreadQueueD2Ev,"axG",@progbits,_ZN11ThreadQueueD5Ev,comdat
 482              		.weak	_ZN11ThreadQueueD1Ev
 483              		.set	_ZN11ThreadQueueD1Ev,_ZN11ThreadQueueD2Ev
 484              		.section	.text._ZN11ThreadQueuenwEm,"axG",@progbits,_ZN11ThreadQueuenwEm,comdat
 485              		.align	2
 486              		.weak	_ZN11ThreadQueuenwEm
 488              	_ZN11ThreadQueuenwEm:
 489              	.LFB32:
  50:src/../h/../h/ThreadQueue.hpp **** 	}
  51:src/../h/../h/ThreadQueue.hpp **** 
  52:src/../h/../h/ThreadQueue.hpp **** 	void putLast(TCB* tcb);
  53:src/../h/../h/ThreadQueue.hpp **** 
  54:src/../h/../h/ThreadQueue.hpp **** 	TCB* getFirst();
  55:src/../h/../h/ThreadQueue.hpp **** 
  56:src/../h/../h/ThreadQueue.hpp **** 	// Overriding new and delete operators for ThreadQueue
  57:src/../h/../h/ThreadQueue.hpp **** 	static void* operator new(size_t size) {
 490              		.loc 3 57 15 is_stmt 1
 491              		.cfi_startproc
 492              	.LVL46:
 493 0000 130101FF 		addi	sp,sp,-16
 494              		.cfi_def_cfa_offset 16
 495 0004 23341100 		sd	ra,8(sp)
 496 0008 23308100 		sd	s0,0(sp)
 497              		.cfi_offset 1, -8
 498              		.cfi_offset 8, -16
 499 000c 13040101 		addi	s0,sp,16
 500              		.cfi_def_cfa 8, 0
  58:src/../h/../h/ThreadQueue.hpp **** 		return mem_alloc(size);
 501              		.loc 3 58 3
 502              		.loc 3 58 19 is_stmt 0
 503 0010 97000000 		call	_Z9mem_allocm@plt
 503      E7800000 
 504              	.LVL47:
  59:src/../h/../h/ThreadQueue.hpp **** 	}
 505              		.loc 3 59 2
GAS LISTING /tmp/cc7t4iMB.s 			page 16


 506 0018 83308100 		ld	ra,8(sp)
 507              		.cfi_restore 1
 508 001c 03340100 		ld	s0,0(sp)
 509              		.cfi_restore 8
 510              		.cfi_def_cfa 2, 16
 511 0020 13010101 		addi	sp,sp,16
 512              		.cfi_def_cfa_offset 0
 513 0024 67800000 		jr	ra
 514              		.cfi_endproc
 515              	.LFE32:
 517              		.section	.text._ZN11ThreadQueuedlEPv,"axG",@progbits,_ZN11ThreadQueuedlEPv,comdat
 518              		.align	2
 519              		.weak	_ZN11ThreadQueuedlEPv
 521              	_ZN11ThreadQueuedlEPv:
 522              	.LFB33:
  60:src/../h/../h/ThreadQueue.hpp **** 
  61:src/../h/../h/ThreadQueue.hpp **** 	static void operator delete(void* ptr) {
 523              		.loc 3 61 14 is_stmt 1
 524              		.cfi_startproc
 525              	.LVL48:
 526 0000 130101FF 		addi	sp,sp,-16
 527              		.cfi_def_cfa_offset 16
 528 0004 23341100 		sd	ra,8(sp)
 529 0008 23308100 		sd	s0,0(sp)
 530              		.cfi_offset 1, -8
 531              		.cfi_offset 8, -16
 532 000c 13040101 		addi	s0,sp,16
 533              		.cfi_def_cfa 8, 0
  62:src/../h/../h/ThreadQueue.hpp **** 		mem_free(ptr);
 534              		.loc 3 62 3
 535              		.loc 3 62 11 is_stmt 0
 536 0010 97000000 		call	_Z8mem_freePv@plt
 536      E7800000 
 537              	.LVL49:
  63:src/../h/../h/ThreadQueue.hpp **** 	}
 538              		.loc 3 63 2
 539 0018 83308100 		ld	ra,8(sp)
 540              		.cfi_restore 1
 541 001c 03340100 		ld	s0,0(sp)
 542              		.cfi_restore 8
 543              		.cfi_def_cfa 2, 16
 544 0020 13010101 		addi	sp,sp,16
 545              		.cfi_def_cfa_offset 0
 546 0024 67800000 		jr	ra
 547              		.cfi_endproc
 548              	.LFE33:
 550              		.globl	semA
 551              		.bss
 552              		.align	3
 555              	semA:
 556 0000 00000000 		.zero	8
 556      00000000 
 557              		.text
 558              	.Letext0:
 559              		.file 4 "src/../lib/hw.h"
 560              		.file 5 "src/../h/syscall_c.hpp"
 561              		.file 6 "src/../h/TCB.hpp"
GAS LISTING /tmp/cc7t4iMB.s 			page 17


 562              		.file 7 "src/../h/syscall_cpp.hpp"
 563              		.file 8 "src/../h/helper.hpp"
 3968              		.align	3
 3971              	DW.ref.__gxx_personality_v0:
 3972 0000 00000000 		.dword	__gxx_personality_v0
 3972      00000000 
 3973              		.ident	"GCC: (Ubuntu 9.4.0-1ubuntu1~20.04) 9.4.0"
 3974              		.section	.note.GNU-stack,"",@progbits
GAS LISTING /tmp/cc7t4iMB.s 			page 18


DEFINED SYMBOLS
                            *ABS*:0000000000000000 main.cpp
     /tmp/cc7t4iMB.s:17     .text:0000000000000000 main
     /tmp/cc7t4iMB.s:21     .text:0000000000000000 .L0 
     /tmp/cc7t4iMB.s:22     .text:0000000000000000 .L0 
     /tmp/cc7t4iMB.s:23     .text:0000000000000004 .L0 
     /tmp/cc7t4iMB.s:27     .text:0000000000000010 .L0 
     /tmp/cc7t4iMB.s:28     .text:0000000000000010 .L0 
     /tmp/cc7t4iMB.s:29     .text:0000000000000010 .L0 
     /tmp/cc7t4iMB.s:31     .text:0000000000000014 .L0 
     /tmp/cc7t4iMB.s:33     .text:0000000000000014 .L0 
     /tmp/cc7t4iMB.s:34     .text:0000000000000014 .L0 
     /tmp/cc7t4iMB.s:271    .text._ZN5Riscv7w_stvecEm:0000000000000000 _ZN5Riscv7w_stvecEm
     /tmp/cc7t4iMB.s:39     .text:0000000000000028 .L0 
     /tmp/cc7t4iMB.s:40     .text:0000000000000028 .L0 
     /tmp/cc7t4iMB.s:555    .bss:0000000000000000 semA
     /tmp/cc7t4iMB.s:45     .text:000000000000003c .L0 
     /tmp/cc7t4iMB.s:46     .text:000000000000003c .L0 
     /tmp/cc7t4iMB.s:48     .text:0000000000000040 .L0 
     /tmp/cc7t4iMB.s:49     .text:0000000000000040 .L0 
     /tmp/cc7t4iMB.s:52     .text:0000000000000044 .L0 
     /tmp/cc7t4iMB.s:53     .text:0000000000000044 .L0 
     /tmp/cc7t4iMB.s:56     .text:0000000000000048 .L0 
     /tmp/cc7t4iMB.s:57     .text:0000000000000048 .L0 
     /tmp/cc7t4iMB.s:60     .text:000000000000004c .L0 
     /tmp/cc7t4iMB.s:61     .text:000000000000004c .L0 
     /tmp/cc7t4iMB.s:63     .text:0000000000000050 .L0 
     /tmp/cc7t4iMB.s:64     .text:0000000000000050 .L0 
     /tmp/cc7t4iMB.s:72     .text:0000000000000068 .L0 
     /tmp/cc7t4iMB.s:73     .text:0000000000000068 .L0 
     /tmp/cc7t4iMB.s:77     .text:0000000000000078 .L0 
     /tmp/cc7t4iMB.s:78     .text:0000000000000078 .L0 
     /tmp/cc7t4iMB.s:85     .text:000000000000008c .L0 
     /tmp/cc7t4iMB.s:86     .text:000000000000008c .L0 
     /tmp/cc7t4iMB.s:90     .text:0000000000000098 .L0 
     /tmp/cc7t4iMB.s:91     .text:0000000000000098 .L0 
     /tmp/cc7t4iMB.s:488    .text._ZN11ThreadQueuenwEm:0000000000000000 _ZN11ThreadQueuenwEm
     /tmp/cc7t4iMB.s:368    .text._ZN11ThreadQueueC2Ev:0000000000000000 _ZN11ThreadQueueC1Ev
     /tmp/cc7t4iMB.s:102    .text:00000000000000b8 .L0 
     /tmp/cc7t4iMB.s:103    .text:00000000000000b8 .L0 
     /tmp/cc7t4iMB.s:108    .text:00000000000000c8 .L0 
     /tmp/cc7t4iMB.s:109    .text:00000000000000c8 .L0 
     /tmp/cc7t4iMB.s:114    .text:00000000000000d8 .L0 
     /tmp/cc7t4iMB.s:115    .text:00000000000000d8 .L0 
     /tmp/cc7t4iMB.s:120    .text:00000000000000e8 .L0 
     /tmp/cc7t4iMB.s:121    .text:00000000000000e8 .L0 
     /tmp/cc7t4iMB.s:126    .text:00000000000000f8 .L0 
     /tmp/cc7t4iMB.s:128    .text:00000000000000fc .L0 
     /tmp/cc7t4iMB.s:129    .text:00000000000000fc .L0 
     /tmp/cc7t4iMB.s:134    .text:000000000000010c .L0 
     /tmp/cc7t4iMB.s:136    .text:0000000000000110 .L0 
     /tmp/cc7t4iMB.s:137    .text:0000000000000110 .L0 
     /tmp/cc7t4iMB.s:142    .text:0000000000000120 .L0 
     /tmp/cc7t4iMB.s:144    .text:0000000000000124 .L0 
     /tmp/cc7t4iMB.s:145    .text:0000000000000124 .L0 
     /tmp/cc7t4iMB.s:250    .text:0000000000000238 _Z4idlePv
     /tmp/cc7t4iMB.s:152    .text:0000000000000140 .L0 
GAS LISTING /tmp/cc7t4iMB.s 			page 19


     /tmp/cc7t4iMB.s:153    .text:0000000000000140 .L0 
     /tmp/cc7t4iMB.s:160    .text:000000000000015c .L0 
     /tmp/cc7t4iMB.s:161    .text:000000000000015c .L0 
     /tmp/cc7t4iMB.s:168    .text:0000000000000178 .L0 
     /tmp/cc7t4iMB.s:169    .text:0000000000000178 .L0 
     /tmp/cc7t4iMB.s:176    .text:0000000000000194 .L0 
     /tmp/cc7t4iMB.s:177    .text:0000000000000194 .L0 
     /tmp/cc7t4iMB.s:304    .text._ZN5Riscv10ms_sstatusEm:0000000000000000 _ZN5Riscv10ms_sstatusEm
     /tmp/cc7t4iMB.s:181    .text:00000000000001a0 .L0 
     /tmp/cc7t4iMB.s:182    .text:00000000000001a0 .L0 
     /tmp/cc7t4iMB.s:187    .text:00000000000001b0 .L0 
     /tmp/cc7t4iMB.s:188    .text:00000000000001b0 .L0 
     /tmp/cc7t4iMB.s:193    .text:00000000000001c0 .L0 
     /tmp/cc7t4iMB.s:194    .text:00000000000001c0 .L0 
     /tmp/cc7t4iMB.s:199    .text:00000000000001d0 .L0 
     /tmp/cc7t4iMB.s:200    .text:00000000000001d0 .L0 
     /tmp/cc7t4iMB.s:204    .text:00000000000001e0 .L0 
     /tmp/cc7t4iMB.s:205    .text:00000000000001e0 .L0 
     /tmp/cc7t4iMB.s:208    .text:00000000000001e4 .L0 
     /tmp/cc7t4iMB.s:210    .text:00000000000001e8 .L0 
     /tmp/cc7t4iMB.s:401    .text._ZN11ThreadQueueD2Ev:0000000000000000 _ZN11ThreadQueueD1Ev
     /tmp/cc7t4iMB.s:521    .text._ZN11ThreadQueuedlEPv:0000000000000000 _ZN11ThreadQueuedlEPv
     /tmp/cc7t4iMB.s:218    .text:0000000000000200 .L0 
     /tmp/cc7t4iMB.s:219    .text:0000000000000200 .L0 
     /tmp/cc7t4iMB.s:336    .text._ZN5Riscv10mc_sstatusEm:0000000000000000 _ZN5Riscv10mc_sstatusEm
     /tmp/cc7t4iMB.s:223    .text:000000000000020c .L0 
     /tmp/cc7t4iMB.s:224    .text:000000000000020c .L0 
     /tmp/cc7t4iMB.s:228    .text:000000000000021c .L0 
     /tmp/cc7t4iMB.s:229    .text:000000000000021c .L0 
     /tmp/cc7t4iMB.s:231    .text:0000000000000220 .L0 
     /tmp/cc7t4iMB.s:233    .text:0000000000000228 .L0 
     /tmp/cc7t4iMB.s:235    .text:000000000000022c .L0 
     /tmp/cc7t4iMB.s:236    .text:000000000000022c .L0 
     /tmp/cc7t4iMB.s:239    .text:0000000000000230 .L0 
     /tmp/cc7t4iMB.s:241    .text:0000000000000234 .L0 
     /tmp/cc7t4iMB.s:244    .text:0000000000000238 .L0 
     /tmp/cc7t4iMB.s:253    .text:0000000000000238 .L0 
     /tmp/cc7t4iMB.s:254    .text:0000000000000238 .L0 
     /tmp/cc7t4iMB.s:255    .text:000000000000023c .L0 
     /tmp/cc7t4iMB.s:257    .text:0000000000000240 .L0 
     /tmp/cc7t4iMB.s:259    .text:0000000000000244 .L0 
     /tmp/cc7t4iMB.s:262    .text:0000000000000244 .L0 
     /tmp/cc7t4iMB.s:263    .text:0000000000000244 .L0 
     /tmp/cc7t4iMB.s:264    .text:0000000000000248 .L0 
     /tmp/cc7t4iMB.s:275    .text._ZN5Riscv7w_stvecEm:0000000000000000 .L0 
     /tmp/cc7t4iMB.s:277    .text._ZN5Riscv7w_stvecEm:0000000000000000 .L0 
     /tmp/cc7t4iMB.s:278    .text._ZN5Riscv7w_stvecEm:0000000000000004 .L0 
     /tmp/cc7t4iMB.s:280    .text._ZN5Riscv7w_stvecEm:0000000000000008 .L0 
     /tmp/cc7t4iMB.s:282    .text._ZN5Riscv7w_stvecEm:000000000000000c .L0 
     /tmp/cc7t4iMB.s:284    .text._ZN5Riscv7w_stvecEm:000000000000000c .L0 
  src/../h/Riscv.hpp:115    .text._ZN5Riscv7w_stvecEm:000000000000000c .L0 
     /tmp/cc7t4iMB.s:291    .text._ZN5Riscv7w_stvecEm:0000000000000010 .L0 
     /tmp/cc7t4iMB.s:292    .text._ZN5Riscv7w_stvecEm:0000000000000014 .L0 
     /tmp/cc7t4iMB.s:293    .text._ZN5Riscv7w_stvecEm:0000000000000014 .L0 
     /tmp/cc7t4iMB.s:295    .text._ZN5Riscv7w_stvecEm:0000000000000018 .L0 
     /tmp/cc7t4iMB.s:297    .text._ZN5Riscv7w_stvecEm:000000000000001c .L0 
     /tmp/cc7t4iMB.s:307    .text._ZN5Riscv10ms_sstatusEm:0000000000000000 .L0 
GAS LISTING /tmp/cc7t4iMB.s 			page 20


     /tmp/cc7t4iMB.s:309    .text._ZN5Riscv10ms_sstatusEm:0000000000000000 .L0 
     /tmp/cc7t4iMB.s:310    .text._ZN5Riscv10ms_sstatusEm:0000000000000004 .L0 
     /tmp/cc7t4iMB.s:312    .text._ZN5Riscv10ms_sstatusEm:0000000000000008 .L0 
     /tmp/cc7t4iMB.s:314    .text._ZN5Riscv10ms_sstatusEm:000000000000000c .L0 
     /tmp/cc7t4iMB.s:316    .text._ZN5Riscv10ms_sstatusEm:000000000000000c .L0 
  src/../h/Riscv.hpp:137    .text._ZN5Riscv10ms_sstatusEm:000000000000000c .L0 
     /tmp/cc7t4iMB.s:323    .text._ZN5Riscv10ms_sstatusEm:0000000000000010 .L0 
     /tmp/cc7t4iMB.s:324    .text._ZN5Riscv10ms_sstatusEm:0000000000000014 .L0 
     /tmp/cc7t4iMB.s:325    .text._ZN5Riscv10ms_sstatusEm:0000000000000014 .L0 
     /tmp/cc7t4iMB.s:327    .text._ZN5Riscv10ms_sstatusEm:0000000000000018 .L0 
     /tmp/cc7t4iMB.s:329    .text._ZN5Riscv10ms_sstatusEm:000000000000001c .L0 
     /tmp/cc7t4iMB.s:339    .text._ZN5Riscv10mc_sstatusEm:0000000000000000 .L0 
     /tmp/cc7t4iMB.s:341    .text._ZN5Riscv10mc_sstatusEm:0000000000000000 .L0 
     /tmp/cc7t4iMB.s:342    .text._ZN5Riscv10mc_sstatusEm:0000000000000004 .L0 
     /tmp/cc7t4iMB.s:344    .text._ZN5Riscv10mc_sstatusEm:0000000000000008 .L0 
     /tmp/cc7t4iMB.s:346    .text._ZN5Riscv10mc_sstatusEm:000000000000000c .L0 
     /tmp/cc7t4iMB.s:348    .text._ZN5Riscv10mc_sstatusEm:000000000000000c .L0 
  src/../h/Riscv.hpp:141    .text._ZN5Riscv10mc_sstatusEm:000000000000000c .L0 
     /tmp/cc7t4iMB.s:355    .text._ZN5Riscv10mc_sstatusEm:0000000000000010 .L0 
     /tmp/cc7t4iMB.s:356    .text._ZN5Riscv10mc_sstatusEm:0000000000000014 .L0 
     /tmp/cc7t4iMB.s:357    .text._ZN5Riscv10mc_sstatusEm:0000000000000014 .L0 
     /tmp/cc7t4iMB.s:359    .text._ZN5Riscv10mc_sstatusEm:0000000000000018 .L0 
     /tmp/cc7t4iMB.s:361    .text._ZN5Riscv10mc_sstatusEm:000000000000001c .L0 
     /tmp/cc7t4iMB.s:368    .text._ZN11ThreadQueueC2Ev:0000000000000000 _ZN11ThreadQueueC2Ev
     /tmp/cc7t4iMB.s:372    .text._ZN11ThreadQueueC2Ev:0000000000000000 .L0 
     /tmp/cc7t4iMB.s:374    .text._ZN11ThreadQueueC2Ev:0000000000000000 .L0 
     /tmp/cc7t4iMB.s:375    .text._ZN11ThreadQueueC2Ev:0000000000000004 .L0 
     /tmp/cc7t4iMB.s:377    .text._ZN11ThreadQueueC2Ev:0000000000000008 .L0 
     /tmp/cc7t4iMB.s:379    .text._ZN11ThreadQueueC2Ev:000000000000000c .L0 
     /tmp/cc7t4iMB.s:382    .text._ZN11ThreadQueueC2Ev:000000000000000c .L0 
     /tmp/cc7t4iMB.s:386    .text._ZN11ThreadQueueC2Ev:0000000000000014 .L0 
     /tmp/cc7t4iMB.s:387    .text._ZN11ThreadQueueC2Ev:0000000000000018 .L0 
     /tmp/cc7t4iMB.s:388    .text._ZN11ThreadQueueC2Ev:0000000000000018 .L0 
     /tmp/cc7t4iMB.s:390    .text._ZN11ThreadQueueC2Ev:000000000000001c .L0 
     /tmp/cc7t4iMB.s:392    .text._ZN11ThreadQueueC2Ev:0000000000000020 .L0 
     /tmp/cc7t4iMB.s:401    .text._ZN11ThreadQueueD2Ev:0000000000000000 _ZN11ThreadQueueD2Ev
     /tmp/cc7t4iMB.s:404    .text._ZN11ThreadQueueD2Ev:0000000000000000 .L0 
     /tmp/cc7t4iMB.s:3971   .data.rel.local.DW.ref.__gxx_personality_v0:0000000000000000 DW.ref.__gxx_personality_v0
     /tmp/cc7t4iMB.s:408    .text._ZN11ThreadQueueD2Ev:0000000000000000 .L0 
     /tmp/cc7t4iMB.s:409    .text._ZN11ThreadQueueD2Ev:0000000000000004 .L0 
     /tmp/cc7t4iMB.s:413    .text._ZN11ThreadQueueD2Ev:0000000000000010 .L0 
     /tmp/cc7t4iMB.s:414    .text._ZN11ThreadQueueD2Ev:0000000000000010 .L0 
     /tmp/cc7t4iMB.s:415    .text._ZN11ThreadQueueD2Ev:0000000000000010 .L0 
     /tmp/cc7t4iMB.s:417    .text._ZN11ThreadQueueD2Ev:0000000000000014 .L0 
     /tmp/cc7t4iMB.s:423    .text._ZN11ThreadQueueD2Ev:0000000000000018 .L0 
     /tmp/cc7t4iMB.s:426    .text._ZN11ThreadQueueD2Ev:0000000000000018 .L0 
     /tmp/cc7t4iMB.s:427    .text._ZN11ThreadQueueD2Ev:0000000000000018 .L0 
     /tmp/cc7t4iMB.s:428    .text._ZN11ThreadQueueD2Ev:0000000000000018 .L0 
     /tmp/cc7t4iMB.s:433    .text._ZN11ThreadQueueD2Ev:000000000000001c .L0 
     /tmp/cc7t4iMB.s:437    .text._ZN11ThreadQueueD2Ev:0000000000000020 .L0 
     /tmp/cc7t4iMB.s:438    .text._ZN11ThreadQueueD2Ev:0000000000000020 .L0 
     /tmp/cc7t4iMB.s:439    .text._ZN11ThreadQueueD2Ev:0000000000000020 .L0 
     /tmp/cc7t4iMB.s:441    .text._ZN11ThreadQueueD2Ev:0000000000000024 .L0 
     /tmp/cc7t4iMB.s:443    .text._ZN11ThreadQueueD2Ev:0000000000000028 .L0 
     /tmp/cc7t4iMB.s:444    .text._ZN11ThreadQueueD2Ev:0000000000000028 .L0 
     /tmp/cc7t4iMB.s:449    .text._ZN11ThreadQueueD2Ev:000000000000002c .L0 
     /tmp/cc7t4iMB.s:450    .text._ZN11ThreadQueueD2Ev:000000000000002c .L0 
GAS LISTING /tmp/cc7t4iMB.s 			page 21


     /tmp/cc7t4iMB.s:453    .text._ZN11ThreadQueueD2Ev:0000000000000034 .L0 
     /tmp/cc7t4iMB.s:460    .text._ZN11ThreadQueueD2Ev:0000000000000038 .L0 
     /tmp/cc7t4iMB.s:461    .text._ZN11ThreadQueueD2Ev:000000000000003c .L0 
     /tmp/cc7t4iMB.s:463    .text._ZN11ThreadQueueD2Ev:0000000000000040 .L0 
     /tmp/cc7t4iMB.s:464    .text._ZN11ThreadQueueD2Ev:0000000000000040 .L0 
     /tmp/cc7t4iMB.s:466    .text._ZN11ThreadQueueD2Ev:0000000000000044 .L0 
     /tmp/cc7t4iMB.s:469    .text._ZN11ThreadQueueD2Ev:0000000000000048 .L0 
     /tmp/cc7t4iMB.s:471    .text._ZN11ThreadQueueD2Ev:000000000000004c .L0 
     /tmp/cc7t4iMB.s:491    .text._ZN11ThreadQueuenwEm:0000000000000000 .L0 
     /tmp/cc7t4iMB.s:493    .text._ZN11ThreadQueuenwEm:0000000000000000 .L0 
     /tmp/cc7t4iMB.s:494    .text._ZN11ThreadQueuenwEm:0000000000000004 .L0 
     /tmp/cc7t4iMB.s:497    .text._ZN11ThreadQueuenwEm:000000000000000c .L0 
     /tmp/cc7t4iMB.s:498    .text._ZN11ThreadQueuenwEm:000000000000000c .L0 
     /tmp/cc7t4iMB.s:500    .text._ZN11ThreadQueuenwEm:0000000000000010 .L0 
     /tmp/cc7t4iMB.s:502    .text._ZN11ThreadQueuenwEm:0000000000000010 .L0 
     /tmp/cc7t4iMB.s:503    .text._ZN11ThreadQueuenwEm:0000000000000010 .L0 
     /tmp/cc7t4iMB.s:506    .text._ZN11ThreadQueuenwEm:0000000000000018 .L0 
     /tmp/cc7t4iMB.s:507    .text._ZN11ThreadQueuenwEm:000000000000001c .L0 
     /tmp/cc7t4iMB.s:509    .text._ZN11ThreadQueuenwEm:0000000000000020 .L0 
     /tmp/cc7t4iMB.s:510    .text._ZN11ThreadQueuenwEm:0000000000000020 .L0 
     /tmp/cc7t4iMB.s:512    .text._ZN11ThreadQueuenwEm:0000000000000024 .L0 
     /tmp/cc7t4iMB.s:514    .text._ZN11ThreadQueuenwEm:0000000000000028 .L0 
     /tmp/cc7t4iMB.s:524    .text._ZN11ThreadQueuedlEPv:0000000000000000 .L0 
     /tmp/cc7t4iMB.s:526    .text._ZN11ThreadQueuedlEPv:0000000000000000 .L0 
     /tmp/cc7t4iMB.s:527    .text._ZN11ThreadQueuedlEPv:0000000000000004 .L0 
     /tmp/cc7t4iMB.s:530    .text._ZN11ThreadQueuedlEPv:000000000000000c .L0 
     /tmp/cc7t4iMB.s:531    .text._ZN11ThreadQueuedlEPv:000000000000000c .L0 
     /tmp/cc7t4iMB.s:533    .text._ZN11ThreadQueuedlEPv:0000000000000010 .L0 
     /tmp/cc7t4iMB.s:535    .text._ZN11ThreadQueuedlEPv:0000000000000010 .L0 
     /tmp/cc7t4iMB.s:536    .text._ZN11ThreadQueuedlEPv:0000000000000010 .L0 
     /tmp/cc7t4iMB.s:539    .text._ZN11ThreadQueuedlEPv:0000000000000018 .L0 
     /tmp/cc7t4iMB.s:540    .text._ZN11ThreadQueuedlEPv:000000000000001c .L0 
     /tmp/cc7t4iMB.s:542    .text._ZN11ThreadQueuedlEPv:0000000000000020 .L0 
     /tmp/cc7t4iMB.s:543    .text._ZN11ThreadQueuedlEPv:0000000000000020 .L0 
     /tmp/cc7t4iMB.s:545    .text._ZN11ThreadQueuedlEPv:0000000000000024 .L0 
     /tmp/cc7t4iMB.s:547    .text._ZN11ThreadQueuedlEPv:0000000000000028 .L0 
     /tmp/cc7t4iMB.s:564    .text:0000000000000248 .L0 
     /tmp/cc7t4iMB.s:300    .text._ZN5Riscv7w_stvecEm:000000000000001c .L0 
     /tmp/cc7t4iMB.s:332    .text._ZN5Riscv10ms_sstatusEm:000000000000001c .L0 
     /tmp/cc7t4iMB.s:364    .text._ZN5Riscv10mc_sstatusEm:000000000000001c .L0 
     /tmp/cc7t4iMB.s:397    .text._ZN11ThreadQueueC2Ev:0000000000000020 .L0 
     /tmp/cc7t4iMB.s:484    .text._ZN11ThreadQueueD2Ev:000000000000004c .L0 
     /tmp/cc7t4iMB.s:517    .text._ZN11ThreadQueuenwEm:0000000000000028 .L0 
     /tmp/cc7t4iMB.s:551    .text._ZN11ThreadQueuedlEPv:0000000000000028 .L0 
     /tmp/cc7t4iMB.s:34     .text:0000000000000014 .L0 
     /tmp/cc7t4iMB.s:41     .text:000000000000002c .L0 
     /tmp/cc7t4iMB.s:74     .text:000000000000006c .L0 
     /tmp/cc7t4iMB.s:147    .text:000000000000012c .L0 
     /tmp/cc7t4iMB.s:155    .text:0000000000000148 .L0 
     /tmp/cc7t4iMB.s:163    .text:0000000000000164 .L0 
     /tmp/cc7t4iMB.s:171    .text:0000000000000180 .L0 
     /tmp/cc7t4iMB.s:8      .rodata:0000000000000000 .LC0
     /tmp/cc7t4iMB.s:200    .text:00000000000001d0 .L0 
     /tmp/cc7t4iMB.s:11     .rodata:0000000000000010 .LC1
     /tmp/cc7t4iMB.s:224    .text:000000000000020c .L0 
     /tmp/cc7t4iMB.s:216    .text:0000000000000200 .L2
     /tmp/cc7t4iMB.s:260    .text:0000000000000244 .L5
GAS LISTING /tmp/cc7t4iMB.s 			page 22


     /tmp/cc7t4iMB.s:454    .text._ZN11ThreadQueueD2Ev:0000000000000038 .L15
     /tmp/cc7t4iMB.s:420    .text._ZN11ThreadQueueD2Ev:0000000000000018 .L17
     /tmp/cc7t4iMB.s:2192   .debug_abbrev:0000000000000000 .Ldebug_abbrev0
     /tmp/cc7t4iMB.s:3897   .debug_str:000000000000079f .LASF162
     /tmp/cc7t4iMB.s:3709   .debug_str:00000000000002e9 .LASF163
     /tmp/cc7t4iMB.s:3851   .debug_str:0000000000000689 .LASF164
     /tmp/cc7t4iMB.s:3599   .debug_ranges:0000000000000000 .Ldebug_ranges0
     /tmp/cc7t4iMB.s:3619   .debug_line:0000000000000000 .Ldebug_line0
     /tmp/cc7t4iMB.s:3741   .debug_str:00000000000003b9 .LASF0
     /tmp/cc7t4iMB.s:3765   .debug_str:000000000000044a .LASF1
     /tmp/cc7t4iMB.s:3833   .debug_str:000000000000060d .LASF2
     /tmp/cc7t4iMB.s:3843   .debug_str:000000000000065a .LASF4
     /tmp/cc7t4iMB.s:3751   .debug_str:00000000000003f1 .LASF3
     /tmp/cc7t4iMB.s:3631   .debug_str:0000000000000062 .LASF5
     /tmp/cc7t4iMB.s:3811   .debug_str:0000000000000586 .LASF6
     /tmp/cc7t4iMB.s:3809   .debug_str:0000000000000573 .LASF7
     /tmp/cc7t4iMB.s:3755   .debug_str:0000000000000415 .LASF8
     /tmp/cc7t4iMB.s:3717   .debug_str:0000000000000305 .LASF9
     /tmp/cc7t4iMB.s:3727   .debug_str:0000000000000354 .LASF10
     /tmp/cc7t4iMB.s:3657   .debug_str:0000000000000128 .LASF11
     /tmp/cc7t4iMB.s:3705   .debug_str:00000000000002d2 .LASF12
     /tmp/cc7t4iMB.s:3667   .debug_str:0000000000000180 .LASF13
     /tmp/cc7t4iMB.s:3655   .debug_str:0000000000000118 .LASF14
     /tmp/cc7t4iMB.s:3873   .debug_str:000000000000071a .LASF15
     /tmp/cc7t4iMB.s:3693   .debug_str:000000000000025c .LASF16
     /tmp/cc7t4iMB.s:3863   .debug_str:00000000000006d8 .LASF17
     /tmp/cc7t4iMB.s:3935   .debug_str:0000000000000947 .LASF56
     /tmp/cc7t4iMB.s:3923   .debug_str:0000000000000905 .LASF165
     /tmp/cc7t4iMB.s:3697   .debug_str:000000000000028d .LASF18
     /tmp/cc7t4iMB.s:3895   .debug_str:0000000000000792 .LASF19
     /tmp/cc7t4iMB.s:3681   .debug_str:000000000000020a .LASF20
     /tmp/cc7t4iMB.s:3731   .debug_str:0000000000000370 .LASF21
     /tmp/cc7t4iMB.s:3739   .debug_str:00000000000003a1 .LASF23
     /tmp/cc7t4iMB.s:3849   .debug_str:000000000000067b .LASF22
     /tmp/cc7t4iMB.s:3695   .debug_str:0000000000000272 .LASF24
     /tmp/cc7t4iMB.s:3745   .debug_str:00000000000003d6 .LASF25
     /tmp/cc7t4iMB.s:3943   .debug_str:000000000000098e .LASF26
     /tmp/cc7t4iMB.s:3915   .debug_str:00000000000008e3 .LASF27
     /tmp/cc7t4iMB.s:3909   .debug_str:00000000000008ac .LASF29
     /tmp/cc7t4iMB.s:3829   .debug_str:00000000000005f9 .LASF31
     /tmp/cc7t4iMB.s:3801   .debug_str:000000000000052c .LASF33
     /tmp/cc7t4iMB.s:3815   .debug_str:0000000000000595 .LASF28
     /tmp/cc7t4iMB.s:3819   .debug_str:00000000000005b0 .LASF30
     /tmp/cc7t4iMB.s:3791   .debug_str:00000000000004e4 .LASF32
     /tmp/cc7t4iMB.s:3757   .debug_str:0000000000000428 .LASF34
     /tmp/cc7t4iMB.s:3945   .debug_str:00000000000009a8 .LASF35
     /tmp/cc7t4iMB.s:3899   .debug_str:0000000000000863 .LASF36
     /tmp/cc7t4iMB.s:3789   .debug_str:00000000000004dc .LASF37
     /tmp/cc7t4iMB.s:3799   .debug_str:0000000000000518 .LASF38
     /tmp/cc7t4iMB.s:3869   .debug_str:0000000000000706 .LASF39
     /tmp/cc7t4iMB.s:3845   .debug_str:0000000000000661 .LASF40
     /tmp/cc7t4iMB.s:3847   .debug_str:0000000000000674 .LASF41
     /tmp/cc7t4iMB.s:3661   .debug_str:000000000000013c .LASF42
     /tmp/cc7t4iMB.s:3691   .debug_str:0000000000000256 .LASF43
     /tmp/cc7t4iMB.s:3735   .debug_str:0000000000000386 .LASF44
     /tmp/cc7t4iMB.s:3747   .debug_str:00000000000003e3 .LASF45
     /tmp/cc7t4iMB.s:3683   .debug_str:0000000000000216 .LASF46
GAS LISTING /tmp/cc7t4iMB.s 			page 23


     /tmp/cc7t4iMB.s:3633   .debug_str:0000000000000069 .LASF47
     /tmp/cc7t4iMB.s:3837   .debug_str:0000000000000625 .LASF48
     /tmp/cc7t4iMB.s:3831   .debug_str:0000000000000602 .LASF49
     /tmp/cc7t4iMB.s:3959   .debug_str:0000000000000a02 .LASF50
     /tmp/cc7t4iMB.s:3937   .debug_str:000000000000094d .LASF51
     /tmp/cc7t4iMB.s:3947   .debug_str:00000000000009b0 .LASF52
     /tmp/cc7t4iMB.s:3931   .debug_str:0000000000000927 .LASF53
     /tmp/cc7t4iMB.s:3781   .debug_str:0000000000000498 .LASF54
     /tmp/cc7t4iMB.s:3903   .debug_str:0000000000000881 .LASF97
     /tmp/cc7t4iMB.s:3673   .debug_str:00000000000001c0 .LASF99
     /tmp/cc7t4iMB.s:3929   .debug_str:000000000000091e .LASF55
     /tmp/cc7t4iMB.s:3883   .debug_str:000000000000075a .LASF107
     /tmp/cc7t4iMB.s:3871   .debug_str:000000000000070d .LASF59
     /tmp/cc7t4iMB.s:3941   .debug_str:000000000000096c .LASF61
     /tmp/cc7t4iMB.s:3805   .debug_str:0000000000000562 .LASF166
     /tmp/cc7t4iMB.s:3955   .debug_str:00000000000009f6 .LASF57
     /tmp/cc7t4iMB.s:3753   .debug_str:0000000000000403 .LASF58
     /tmp/cc7t4iMB.s:3885   .debug_str:0000000000000762 .LASF63
     /tmp/cc7t4iMB.s:3877   .debug_str:000000000000073a .LASF65
     /tmp/cc7t4iMB.s:3643   .debug_str:00000000000000bd .LASF60
     /tmp/cc7t4iMB.s:3911   .debug_str:00000000000008c1 .LASF62
     /tmp/cc7t4iMB.s:3835   .debug_str:000000000000061b .LASF64
     /tmp/cc7t4iMB.s:3875   .debug_str:0000000000000726 .LASF66
     /tmp/cc7t4iMB.s:3889   .debug_str:000000000000077a .LASF67
     /tmp/cc7t4iMB.s:3701   .debug_str:00000000000002a3 .LASF68
     /tmp/cc7t4iMB.s:3771   .debug_str:000000000000046b .LASF69
     /tmp/cc7t4iMB.s:3821   .debug_str:00000000000005c3 .LASF70
     /tmp/cc7t4iMB.s:3687   .debug_str:0000000000000240 .LASF71
     /tmp/cc7t4iMB.s:3841   .debug_str:0000000000000642 .LASF72
     /tmp/cc7t4iMB.s:3913   .debug_str:00000000000008d8 .LASF73
     /tmp/cc7t4iMB.s:3685   .debug_str:0000000000000228 .LASF74
     /tmp/cc7t4iMB.s:3963   .debug_str:0000000000000a27 .LASF75
     /tmp/cc7t4iMB.s:3703   .debug_str:00000000000002b9 .LASF76
     /tmp/cc7t4iMB.s:3769   .debug_str:0000000000000465 .LASF77
     /tmp/cc7t4iMB.s:3827   .debug_str:00000000000005e9 .LASF78
     /tmp/cc7t4iMB.s:3689   .debug_str:000000000000024d .LASF79
     /tmp/cc7t4iMB.s:3663   .debug_str:000000000000014f .LASF80
     /tmp/cc7t4iMB.s:3775   .debug_str:000000000000047d .LASF81
     /tmp/cc7t4iMB.s:3637   .debug_str:0000000000000090 .LASF82
     /tmp/cc7t4iMB.s:3893   .debug_str:000000000000078a .LASF83
     /tmp/cc7t4iMB.s:3651   .debug_str:00000000000000f8 .LASF84
     /tmp/cc7t4iMB.s:3907   .debug_str:00000000000008a4 .LASF85
     /tmp/cc7t4iMB.s:3653   .debug_str:0000000000000109 .LASF86
     /tmp/cc7t4iMB.s:3957   .debug_str:00000000000009fc .LASF87
     /tmp/cc7t4iMB.s:3919   .debug_str:00000000000008f2 .LASF88
     /tmp/cc7t4iMB.s:3901   .debug_str:0000000000000877 .LASF89
     /tmp/cc7t4iMB.s:3861   .debug_str:00000000000006cf .LASF90
     /tmp/cc7t4iMB.s:3813   .debug_str:000000000000058d .LASF91
     /tmp/cc7t4iMB.s:3733   .debug_str:000000000000037b .LASF92
     /tmp/cc7t4iMB.s:3859   .debug_str:00000000000006bf .LASF93
     /tmp/cc7t4iMB.s:3807   .debug_str:0000000000000567 .LASF94
     /tmp/cc7t4iMB.s:3621   .debug_str:0000000000000000 .LASF95
     /tmp/cc7t4iMB.s:3623   .debug_str:000000000000000d .LASF96
     /tmp/cc7t4iMB.s:3951   .debug_str:00000000000009d2 .LASF167
     /tmp/cc7t4iMB.s:3675   .debug_str:00000000000001d8 .LASF98
     /tmp/cc7t4iMB.s:3625   .debug_str:000000000000001b .LASF100
     /tmp/cc7t4iMB.s:3961   .debug_str:0000000000000a1a .LASF101
GAS LISTING /tmp/cc7t4iMB.s 			page 24


     /tmp/cc7t4iMB.s:3725   .debug_str:0000000000000348 .LASF102
     /tmp/cc7t4iMB.s:3743   .debug_str:00000000000003c6 .LASF113
     /tmp/cc7t4iMB.s:3779   .debug_str:000000000000048b .LASF114
     /tmp/cc7t4iMB.s:3719   .debug_str:0000000000000315 .LASF103
     /tmp/cc7t4iMB.s:3865   .debug_str:00000000000006ee .LASF168
     /tmp/cc7t4iMB.s:3891   .debug_str:0000000000000785 .LASF104
     /tmp/cc7t4iMB.s:3823   .debug_str:00000000000005db .LASF105
     /tmp/cc7t4iMB.s:3793   .debug_str:00000000000004eb .LASF106
     /tmp/cc7t4iMB.s:3927   .debug_str:0000000000000919 .LASF108
     /tmp/cc7t4iMB.s:3759   .debug_str:000000000000043b .LASF109
     /tmp/cc7t4iMB.s:3659   .debug_str:0000000000000137 .LASF110
     /tmp/cc7t4iMB.s:3665   .debug_str:0000000000000162 .LASF111
     /tmp/cc7t4iMB.s:3677   .debug_str:00000000000001e6 .LASF112
     /tmp/cc7t4iMB.s:3669   .debug_str:0000000000000190 .LASF115
     /tmp/cc7t4iMB.s:3641   .debug_str:00000000000000b7 .LASF116
     /tmp/cc7t4iMB.s:3761   .debug_str:0000000000000440 .LASF117
     /tmp/cc7t4iMB.s:3639   .debug_str:00000000000000a2 .LASF118
     /tmp/cc7t4iMB.s:3723   .debug_str:0000000000000330 .LASF119
     /tmp/cc7t4iMB.s:3679   .debug_str:0000000000000200 .LASF169
     /tmp/cc7t4iMB.s:3905   .debug_str:000000000000088c .LASF170
     /tmp/cc7t4iMB.s:3887   .debug_str:000000000000076d .LASF120
     /tmp/cc7t4iMB.s:3939   .debug_str:0000000000000957 .LASF121
     /tmp/cc7t4iMB.s:3749   .debug_str:00000000000003e9 .LASF122
     /tmp/cc7t4iMB.s:3635   .debug_str:0000000000000074 .LASF123
     /tmp/cc7t4iMB.s:3767   .debug_str:000000000000045d .LASF124
     /tmp/cc7t4iMB.s:3787   .debug_str:00000000000004bd .LASF125
     /tmp/cc7t4iMB.s:3647   .debug_str:00000000000000d3 .LASF126
     /tmp/cc7t4iMB.s:3649   .debug_str:00000000000000dc .LASF127
     /tmp/cc7t4iMB.s:3671   .debug_str:00000000000001ab .LASF128
     /tmp/cc7t4iMB.s:3933   .debug_str:0000000000000931 .LASF129
     /tmp/cc7t4iMB.s:3785   .debug_str:00000000000004b8 .LASF130
     /tmp/cc7t4iMB.s:3715   .debug_str:0000000000000300 .LASF131
     /tmp/cc7t4iMB.s:18     .text:0000000000000000 .LFB44
     /tmp/cc7t4iMB.s:245    .text:0000000000000238 .LFE44
     /tmp/cc7t4iMB.s:3699   .debug_str:0000000000000299 .LASF132
     /tmp/cc7t4iMB.s:3773   .debug_str:0000000000000478 .LASF133
     /tmp/cc7t4iMB.s:3373   .debug_loc:0000000000000000 .LLST0
     /tmp/cc7t4iMB.s:3879   .debug_str:0000000000000750 .LASF134
     /tmp/cc7t4iMB.s:3401   .debug_loc:0000000000000076 .LLST1
     /tmp/cc7t4iMB.s:3881   .debug_str:0000000000000755 .LASF135
     /tmp/cc7t4iMB.s:3429   .debug_loc:00000000000000ec .LLST2
     /tmp/cc7t4iMB.s:3707   .debug_str:00000000000002e1 .LASF136
     /tmp/cc7t4iMB.s:3457   .debug_loc:0000000000000161 .LLST3
     /tmp/cc7t4iMB.s:3483   .debug_loc:00000000000001d3 .LLST4
     /tmp/cc7t4iMB.s:3857   .debug_str:00000000000006b7 .LASF137
     /tmp/cc7t4iMB.s:3855   .debug_str:00000000000006af .LASF138
     /tmp/cc7t4iMB.s:3853   .debug_str:00000000000006a7 .LASF139
     /tmp/cc7t4iMB.s:37     .text:0000000000000028 .LVL0
     /tmp/cc7t4iMB.s:43     .text:000000000000003c .LVL1
     /tmp/cc7t4iMB.s:70     .text:0000000000000068 .LVL6
     /tmp/cc7t4iMB.s:80     .text:0000000000000084 .LVL7
     /tmp/cc7t4iMB.s:94     .text:00000000000000a4 .LVL10
     /tmp/cc7t4iMB.s:98     .text:00000000000000b4 .LVL11
     /tmp/cc7t4iMB.s:106    .text:00000000000000c8 .LVL13
     /tmp/cc7t4iMB.s:112    .text:00000000000000d8 .LVL14
     /tmp/cc7t4iMB.s:118    .text:00000000000000e8 .LVL15
     /tmp/cc7t4iMB.s:123    .text:00000000000000f4 .LVL16
GAS LISTING /tmp/cc7t4iMB.s 			page 25


     /tmp/cc7t4iMB.s:131    .text:0000000000000108 .LVL17
     /tmp/cc7t4iMB.s:139    .text:000000000000011c .LVL18
     /tmp/cc7t4iMB.s:150    .text:0000000000000140 .LVL19
     /tmp/cc7t4iMB.s:158    .text:000000000000015c .LVL20
     /tmp/cc7t4iMB.s:166    .text:0000000000000178 .LVL21
     /tmp/cc7t4iMB.s:174    .text:0000000000000194 .LVL22
     /tmp/cc7t4iMB.s:179    .text:00000000000001a0 .LVL23
     /tmp/cc7t4iMB.s:185    .text:00000000000001b0 .LVL24
     /tmp/cc7t4iMB.s:191    .text:00000000000001c0 .LVL25
     /tmp/cc7t4iMB.s:197    .text:00000000000001d0 .LVL26
     /tmp/cc7t4iMB.s:202    .text:00000000000001e0 .LVL27
     /tmp/cc7t4iMB.s:212    .text:00000000000001f4 .LVL29
     /tmp/cc7t4iMB.s:215    .text:0000000000000200 .LVL30
     /tmp/cc7t4iMB.s:221    .text:000000000000020c .LVL31
     /tmp/cc7t4iMB.s:226    .text:000000000000021c .LVL32
     /tmp/cc7t4iMB.s:3711   .debug_str:00000000000002f6 .LASF140
     /tmp/cc7t4iMB.s:3645   .debug_str:00000000000000c9 .LASF141
     /tmp/cc7t4iMB.s:251    .text:0000000000000238 .LFB43
     /tmp/cc7t4iMB.s:265    .text:0000000000000248 .LFE43
     /tmp/cc7t4iMB.s:522    .text._ZN11ThreadQueuedlEPv:0000000000000000 .LFB33
     /tmp/cc7t4iMB.s:548    .text._ZN11ThreadQueuedlEPv:0000000000000028 .LFE33
     /tmp/cc7t4iMB.s:3505   .debug_loc:0000000000000234 .LLST10
     /tmp/cc7t4iMB.s:537    .text._ZN11ThreadQueuedlEPv:0000000000000018 .LVL49
     /tmp/cc7t4iMB.s:489    .text._ZN11ThreadQueuenwEm:0000000000000000 .LFB32
     /tmp/cc7t4iMB.s:515    .text._ZN11ThreadQueuenwEm:0000000000000028 .LFE32
     /tmp/cc7t4iMB.s:3763   .debug_str:0000000000000445 .LASF142
     /tmp/cc7t4iMB.s:3519   .debug_loc:000000000000026d .LLST9
     /tmp/cc7t4iMB.s:504    .text._ZN11ThreadQueuenwEm:0000000000000018 .LVL47
     /tmp/cc7t4iMB.s:3713   .debug_str:00000000000002fb .LASF143
     /tmp/cc7t4iMB.s:3629   .debug_str:0000000000000058 .LASF144
     /tmp/cc7t4iMB.s:3839   .debug_str:000000000000063d .LASF171
     /tmp/cc7t4iMB.s:3721   .debug_str:000000000000031b .LASF145
     /tmp/cc7t4iMB.s:402    .text._ZN11ThreadQueueD2Ev:0000000000000000 .LFB29
     /tmp/cc7t4iMB.s:472    .text._ZN11ThreadQueueD2Ev:000000000000004c .LFE29
     /tmp/cc7t4iMB.s:3533   .debug_loc:00000000000002a6 .LLST5
     /tmp/cc7t4iMB.s:424    .text._ZN11ThreadQueueD2Ev:0000000000000018 .LBB11
     /tmp/cc7t4iMB.s:431    .text._ZN11ThreadQueueD2Ev:000000000000001c .LBE11
     /tmp/cc7t4iMB.s:3551   .debug_loc:00000000000002f2 .LLST6
     /tmp/cc7t4iMB.s:434    .text._ZN11ThreadQueueD2Ev:0000000000000020 .LBB13
     /tmp/cc7t4iMB.s:457    .text._ZN11ThreadQueueD2Ev:0000000000000038 .LBE13
     /tmp/cc7t4iMB.s:3558   .debug_loc:0000000000000315 .LLST7
     /tmp/cc7t4iMB.s:446    .text._ZN11ThreadQueueD2Ev:000000000000002c .LBB14
     /tmp/cc7t4iMB.s:456    .text._ZN11ThreadQueueD2Ev:0000000000000038 .LBE14
     /tmp/cc7t4iMB.s:3565   .debug_loc:0000000000000338 .LLST8
     /tmp/cc7t4iMB.s:451    .text._ZN11ThreadQueueD2Ev:0000000000000034 .LVL44
     /tmp/cc7t4iMB.s:3627   .debug_str:0000000000000043 .LASF146
     /tmp/cc7t4iMB.s:369    .text._ZN11ThreadQueueC2Ev:0000000000000000 .LFB26
     /tmp/cc7t4iMB.s:393    .text._ZN11ThreadQueueC2Ev:0000000000000020 .LFE26
     /tmp/cc7t4iMB.s:337    .text._ZN5Riscv10mc_sstatusEm:0000000000000000 .LFB11
     /tmp/cc7t4iMB.s:362    .text._ZN5Riscv10mc_sstatusEm:000000000000001c .LFE11
     /tmp/cc7t4iMB.s:3925   .debug_str:0000000000000914 .LASF147
     /tmp/cc7t4iMB.s:305    .text._ZN5Riscv10ms_sstatusEm:0000000000000000 .LFB10
     /tmp/cc7t4iMB.s:330    .text._ZN5Riscv10ms_sstatusEm:000000000000001c .LFE10
     /tmp/cc7t4iMB.s:272    .text._ZN5Riscv7w_stvecEm:0000000000000000 .LFB5
     /tmp/cc7t4iMB.s:298    .text._ZN5Riscv7w_stvecEm:000000000000001c .LFE5
     /tmp/cc7t4iMB.s:3777   .debug_str:0000000000000485 .LASF148
     /tmp/cc7t4iMB.s:3817   .debug_str:000000000000059c .LASF149
GAS LISTING /tmp/cc7t4iMB.s 			page 26


     /tmp/cc7t4iMB.s:3825   .debug_str:00000000000005e0 .LASF151
     /tmp/cc7t4iMB.s:3803   .debug_str:0000000000000541 .LASF150
     /tmp/cc7t4iMB.s:3921   .debug_str:00000000000008f7 .LASF152
     /tmp/cc7t4iMB.s:3917   .debug_str:00000000000008ec .LASF153
     /tmp/cc7t4iMB.s:3797   .debug_str:0000000000000503 .LASF154
     /tmp/cc7t4iMB.s:3795   .debug_str:00000000000004f7 .LASF155
     /tmp/cc7t4iMB.s:3867   .debug_str:00000000000006f3 .LASF156
     /tmp/cc7t4iMB.s:3949   .debug_str:00000000000009c6 .LASF157
     /tmp/cc7t4iMB.s:3953   .debug_str:00000000000009e8 .LASF158
     /tmp/cc7t4iMB.s:3737   .debug_str:0000000000000398 .LASF159
     /tmp/cc7t4iMB.s:3729   .debug_str:0000000000000362 .LASF160
     /tmp/cc7t4iMB.s:3783   .debug_str:00000000000004ae .LASF161
     /tmp/cc7t4iMB.s:50     .text:0000000000000044 .LVL2
     /tmp/cc7t4iMB.s:65     .text:0000000000000054 .LVL5
     /tmp/cc7t4iMB.s:237    .text:000000000000022c .LVL33
     /tmp/cc7t4iMB.s:242    .text:0000000000000234 .LVL34
     /tmp/cc7t4iMB.s:54     .text:0000000000000048 .LVL3
     /tmp/cc7t4iMB.s:58     .text:000000000000004c .LVL4
     /tmp/cc7t4iMB.s:83     .text:000000000000008c .LVL8
     /tmp/cc7t4iMB.s:92     .text:000000000000009c .LVL9
     /tmp/cc7t4iMB.s:100    .text:00000000000000b8 .LVL12
     /tmp/cc7t4iMB.s:206    .text:00000000000001e4 .LVL28
     /tmp/cc7t4iMB.s:525    .text._ZN11ThreadQueuedlEPv:0000000000000000 .LVL48
     /tmp/cc7t4iMB.s:492    .text._ZN11ThreadQueuenwEm:0000000000000000 .LVL46
     /tmp/cc7t4iMB.s:407    .text._ZN11ThreadQueueD2Ev:0000000000000000 .LVL39
     /tmp/cc7t4iMB.s:419    .text._ZN11ThreadQueueD2Ev:0000000000000018 .LVL40
     /tmp/cc7t4iMB.s:467    .text._ZN11ThreadQueueD2Ev:0000000000000044 .LVL45
     /tmp/cc7t4iMB.s:429    .text._ZN11ThreadQueueD2Ev:000000000000001c .LVL41
     /tmp/cc7t4iMB.s:436    .text._ZN11ThreadQueueD2Ev:0000000000000020 .LVL42
     /tmp/cc7t4iMB.s:445    .text._ZN11ThreadQueueD2Ev:000000000000002c .LVL43
     /tmp/cc7t4iMB.s:565    .debug_info:0000000000000000 .Ldebug_info0
     /tmp/cc7t4iMB.s:5      .text:0000000000000000 .Ltext0
     /tmp/cc7t4iMB.s:558    .text:0000000000000248 .Letext0
     /tmp/cc7t4iMB.s:475    .gcc_except_table._ZN11ThreadQueueD2Ev:0000000000000000 .LLSDA29
                           .group:0000000000000000 _ZN11ThreadQueueC5Ev
                           .group:0000000000000000 _ZN11ThreadQueueD5Ev

UNDEFINED SYMBOLS
interruptHandler
_Z8sem_openPP4KSemj
_Z13thread_createPP3TCBPFvPvES2_
_ZN3TCB7runningE
_Znwm
_ZN11ThreadQueue7putLastEP3TCB
_ZN11ThreadQueue8getFirstEv
_Z5nit1fPv
_Z5nit2fPv
_Z5nit3fPv
_Z11thread_joinP3TCB
_Z11printStringPKc
_Z8mem_freePv
__gxx_personality_v0
_Z9mem_allocm
