GAS LISTING /tmp/ccDEKUXZ.s 			page 1


   1              		.file	"main.cpp"
   2              		.option pic
   3              		.option norelax
   4              		.text
   5              	.Ltext0:
   6              		.align	2
   7              		.globl	_Z4idlePv
   9              	_Z4idlePv:
  10              	.LFB46:
  11              		.file 1 "src/main.cpp"
   1:src/main.cpp  **** #include "../lib/hw.h"
   2:src/main.cpp  **** #include "../h/helper.hpp"
   3:src/main.cpp  **** #include "../h/Riscv.hpp"
   4:src/main.cpp  **** #include "../h/syscall_c.hpp"
   5:src/main.cpp  **** #include "../h/syscall_cpp.hpp"
   6:src/main.cpp  **** //#include "../h/MemoryAllocator.hpp"
   7:src/main.cpp  **** #include "../h/TCB.hpp"
   8:src/main.cpp  **** #include "../h/ThreadQueue.hpp"
   9:src/main.cpp  **** //#include "../h/KSem.hpp"
  10:src/main.cpp  **** #include "../h/KConsole.hpp"
  11:src/main.cpp  **** 
  12:src/main.cpp  **** #include "../test/printing.hpp"
  13:src/main.cpp  **** 
  14:src/main.cpp  **** 
  15:src/main.cpp  **** extern "C" void interruptHandler();
  16:src/main.cpp  **** 
  17:src/main.cpp  **** void userMain();
  18:src/main.cpp  **** 
  19:src/main.cpp  **** void idle(void*) {
  12              		.loc 1 19 18
  13              		.cfi_startproc
  14 0000 130101FF 		addi	sp,sp,-16
  15              		.cfi_def_cfa_offset 16
  16 0004 23341100 		sd	ra,8(sp)
  17 0008 23308100 		sd	s0,0(sp)
  18              		.cfi_offset 1, -8
  19              		.cfi_offset 8, -16
  20 000c 13040101 		addi	s0,sp,16
  21              		.cfi_def_cfa 8, 0
  22              	.L2:
  20:src/main.cpp  ****     while (1) { thread_dispatch(); }
  23              		.loc 1 20 5 discriminator 1
  24              		.loc 1 20 17 discriminator 1
  25              		.loc 1 20 32 is_stmt 0 discriminator 1
  26 0010 97000000 		call	_Z15thread_dispatchv@plt
  26      E7800000 
  27              	.LVL0:
  28              		.loc 1 20 5 is_stmt 1 discriminator 1
  29 0018 6FF09FFF 		j	.L2
  30              		.cfi_endproc
  31              	.LFE46:
  33              		.align	2
  34              		.globl	_Z22kernelConsumerFunctionPv
  36              	_Z22kernelConsumerFunctionPv:
  37              	.LFB47:
  21:src/main.cpp  **** }
  22:src/main.cpp  **** 
GAS LISTING /tmp/ccDEKUXZ.s 			page 2


  23:src/main.cpp  **** void kernelConsumerFunction(void*) {
  38              		.loc 1 23 36
  39              		.cfi_startproc
  40 001c 130101FF 		addi	sp,sp,-16
  41              		.cfi_def_cfa_offset 16
  42 0020 23341100 		sd	ra,8(sp)
  43 0024 23308100 		sd	s0,0(sp)
  44              		.cfi_offset 1, -8
  45              		.cfi_offset 8, -16
  46 0028 13040101 		addi	s0,sp,16
  47              		.cfi_def_cfa 8, 0
  48 002c 6F008002 		j	.L6
  49              	.LVL1:
  50              	.L8:
  51              	.LBB6:
  24:src/main.cpp  ****     while (1) {
  25:src/main.cpp  ****         char c = KConsole::getFromOutput();
  26:src/main.cpp  ****         while (!(*KConsole::sr & CONSOLE_TX_STATUS_BIT)) {}
  27:src/main.cpp  ****         *KConsole::dr = c;
  52              		.loc 1 27 9
  53 0030 97070000 		la	a5,_ZN8KConsole2drE
  53      83B70700 
  54 0038 83B70700 		ld	a5,0(a5)
  55              		.loc 1 27 23 is_stmt 0
  56 003c 2380A700 		sb	a0,0(a5)
  28:src/main.cpp  ****         sem_signal(KConsole::outputBufferHasSpace);
  57              		.loc 1 28 9 is_stmt 1
  58              		.loc 1 28 19 is_stmt 0
  59 0040 97070000 		la	a5,_ZN8KConsole20outputBufferHasSpaceE
  59      83B70700 
  60 0048 03B50700 		ld	a0,0(a5)
  61              	.LVL2:
  62 004c 97000000 		call	_Z10sem_signalP4KSem@plt
  62      E7800000 
  63              	.LVL3:
  64              	.LBE6:
  24:src/main.cpp  ****     while (1) {
  65              		.loc 1 24 5 is_stmt 1
  66              	.L6:
  24:src/main.cpp  ****     while (1) {
  67              		.loc 1 24 5
  68              	.LBB7:
  25:src/main.cpp  ****         while (!(*KConsole::sr & CONSOLE_TX_STATUS_BIT)) {}
  69              		.loc 1 25 9
  25:src/main.cpp  ****         while (!(*KConsole::sr & CONSOLE_TX_STATUS_BIT)) {}
  70              		.loc 1 25 41 is_stmt 0
  71 0054 97000000 		call	_ZN8KConsole13getFromOutputEv@plt
  71      E7800000 
  72              	.LVL4:
  73              	.L5:
  26:src/main.cpp  ****         *KConsole::dr = c;
  74              		.loc 1 26 9 is_stmt 1
  26:src/main.cpp  ****         *KConsole::dr = c;
  75              		.loc 1 26 16
  26:src/main.cpp  ****         *KConsole::dr = c;
  76              		.loc 1 26 18 is_stmt 0
  77 005c 97070000 		la	a5,_ZN8KConsole2srE
GAS LISTING /tmp/ccDEKUXZ.s 			page 3


  77      83B70700 
  78 0064 83B70700 		ld	a5,0(a5)
  79 0068 83C70700 		lbu	a5,0(a5)
  26:src/main.cpp  ****         *KConsole::dr = c;
  80              		.loc 1 26 16
  81 006c 93F70702 		andi	a5,a5,32
  82 0070 E38607FE 		beqz	a5,.L5
  83 0074 6FF0DFFB 		j	.L8
  84              	.LBE7:
  85              		.cfi_endproc
  86              	.LFE47:
  88              		.align	2
  89              		.globl	main
  91              	main:
  92              	.LFB48:
  29:src/main.cpp  ****     }
  30:src/main.cpp  **** 
  31:src/main.cpp  **** }
  32:src/main.cpp  **** 
  33:src/main.cpp  **** int main() {
  93              		.loc 1 33 12 is_stmt 1
  94              		.cfi_startproc
  95 0078 130101FD 		addi	sp,sp,-48
  96              		.cfi_def_cfa_offset 48
  97 007c 23341102 		sd	ra,40(sp)
  98 0080 23308102 		sd	s0,32(sp)
  99              		.cfi_offset 1, -8
 100              		.cfi_offset 8, -16
 101 0084 13040103 		addi	s0,sp,48
 102              		.cfi_def_cfa 8, 0
  34:src/main.cpp  ****     //postavi adresu prekidne rutine u stvec
  35:src/main.cpp  ****     __asm__ volatile("csrw stvec, %[handler]": :[handler] "r"(&interruptHandler));
 103              		.loc 1 35 5
 104              		.loc 1 35 82 is_stmt 0
 105 0088 97070000 		la	a5,interruptHandler
 105      83B70700 
 106              	#APP
 107              	# 35 "src/main.cpp" 1
  36              	
  37:src/main.cpp  ****     //inicijalizacija alokatora memorije
  38:src/main.cpp  ****     MemoryAllocator::initMemoryAllocator();
 108              		csrw stvec, a5
 109              	# 0 "" 2
 110              		.loc 1 38 5 is_stmt 1
 111              		.loc 1 38 41 is_stmt 0
 112              	#NO_APP
 113 0094 97000000 		call	_ZN15MemoryAllocator19initMemoryAllocatorEv@plt
 113      E7800000 
 114              	.LVL5:
  39:src/main.cpp  **** 
  40:src/main.cpp  ****     //inicijalizacija komunikacije sa konzolom
  41:src/main.cpp  ****     KConsole::initKConsole();
 115              		.loc 1 41 5 is_stmt 1
 116              		.loc 1 41 27 is_stmt 0
 117 009c 97000000 		call	_ZN8KConsole12initKConsoleEv@plt
 117      E7800000 
 118              	.LVL6:
GAS LISTING /tmp/ccDEKUXZ.s 			page 4


  42:src/main.cpp  **** 
  43:src/main.cpp  ****     //pravljenje niti
  44:src/main.cpp  ****     thread_t mainHandle;
 119              		.loc 1 44 5 is_stmt 1
  45:src/main.cpp  ****     thread_t userHandle;
 120              		.loc 1 45 5
  46:src/main.cpp  ****     thread_t idleHandle;
 121              		.loc 1 46 5
  47:src/main.cpp  ****     thread_t consoleOutputHandle;
 122              		.loc 1 47 5
  48:src/main.cpp  ****     thread_create(&mainHandle, nullptr, nullptr);
 123              		.loc 1 48 5
 124              		.loc 1 48 18 is_stmt 0
 125 00a4 13060000 		li	a2,0
 126 00a8 93050000 		li	a1,0
 127 00ac 130584FE 		addi	a0,s0,-24
 128 00b0 97000000 		call	_Z13thread_createPP3TCBPFvPvES2_@plt
 128      E7800000 
 129              	.LVL7:
  49:src/main.cpp  ****     TCB::running = mainHandle;
 130              		.loc 1 49 5 is_stmt 1
 131              		.loc 1 49 18 is_stmt 0
 132 00b8 97070000 		la	a5,_ZN3TCB7runningE
 132      83B70700 
 133 00c0 033784FE 		ld	a4,-24(s0)
 134 00c4 23B0E700 		sd	a4,0(a5)
  50:src/main.cpp  ****     thread_create(&userHandle, (TCB::Body) userMain, nullptr);
 135              		.loc 1 50 5 is_stmt 1
 136              		.loc 1 50 18 is_stmt 0
 137 00c8 13060000 		li	a2,0
 138 00cc 97050000 		la	a1,_Z8userMainv
 138      83B50500 
 139 00d4 130504FE 		addi	a0,s0,-32
 140 00d8 97000000 		call	_Z13thread_createPP3TCBPFvPvES2_@plt
 140      E7800000 
 141              	.LVL8:
  51:src/main.cpp  ****     thread_create(&consoleOutputHandle, kernelConsumerFunction, nullptr);
 142              		.loc 1 51 5 is_stmt 1
 143              		.loc 1 51 18 is_stmt 0
 144 00e0 13060000 		li	a2,0
 145 00e4 97050000 		lla	a1,_Z22kernelConsumerFunctionPv
 145      93850500 
 146 00ec 130504FD 		addi	a0,s0,-48
 147 00f0 97000000 		call	_Z13thread_createPP3TCBPFvPvES2_@plt
 147      E7800000 
 148              	.LVL9:
  52:src/main.cpp  ****     thread_create(&idleHandle, idle, nullptr);
 149              		.loc 1 52 5 is_stmt 1
 150              		.loc 1 52 18 is_stmt 0
 151 00f8 13060000 		li	a2,0
 152 00fc 97050000 		lla	a1,_Z4idlePv
 152      93850500 
 153 0104 130584FD 		addi	a0,s0,-40
 154 0108 97000000 		call	_Z13thread_createPP3TCBPFvPvES2_@plt
 154      E7800000 
 155              	.LVL10:
  53:src/main.cpp  **** 
GAS LISTING /tmp/ccDEKUXZ.s 			page 5


  54:src/main.cpp  ****     //omogucavanje prekida
  55:src/main.cpp  ****     Riscv::ms_sstatus(Riscv::SSTATUS_SIE);
 156              		.loc 1 55 5 is_stmt 1
 157              	.LBB8:
 158              	.LBB9:
 159              		.file 2 "src/../h/Riscv.hpp"
   1:src/../h/Riscv.hpp **** //
   2:src/../h/Riscv.hpp **** // Created by os on 5/17/23.
   3:src/../h/Riscv.hpp **** //
   4:src/../h/Riscv.hpp **** 
   5:src/../h/Riscv.hpp **** #ifndef PROJEKAT2023_RISCV_HPP
   6:src/../h/Riscv.hpp **** #define PROJEKAT2023_RISCV_HPP
   7:src/../h/Riscv.hpp **** 
   8:src/../h/Riscv.hpp **** #include "../lib/hw.h"
   9:src/../h/Riscv.hpp **** 
  10:src/../h/Riscv.hpp **** class Riscv {
  11:src/../h/Riscv.hpp **** public:
  12:src/../h/Riscv.hpp **** 
  13:src/../h/Riscv.hpp **** 	static void popSppSpie();
  14:src/../h/Riscv.hpp **** 
  15:src/../h/Riscv.hpp **** 	//stavljanje registara x3-x31 na stek
  16:src/../h/Riscv.hpp **** 	static void pushRegisters();    //implementacija u asm
  17:src/../h/Riscv.hpp **** 
  18:src/../h/Riscv.hpp **** 	//skidanje registara x3-x31 sa steka
  19:src/../h/Riscv.hpp **** 	static void popRegisters();     //implementacija u asm
  20:src/../h/Riscv.hpp **** 
  21:src/../h/Riscv.hpp **** 	//read scause
  22:src/../h/Riscv.hpp **** 	static uint64 r_scause();
  23:src/../h/Riscv.hpp **** 
  24:src/../h/Riscv.hpp **** 	//write scause
  25:src/../h/Riscv.hpp **** 	static void w_scause(uint64 scause);
  26:src/../h/Riscv.hpp **** 
  27:src/../h/Riscv.hpp **** 	//read sepc
  28:src/../h/Riscv.hpp **** 	static uint64 r_sepc();
  29:src/../h/Riscv.hpp **** 
  30:src/../h/Riscv.hpp **** 	//write sepc
  31:src/../h/Riscv.hpp **** 	static void w_sepc(uint64 sepc);
  32:src/../h/Riscv.hpp **** 
  33:src/../h/Riscv.hpp **** 	//read stvec
  34:src/../h/Riscv.hpp **** 	static uint64 r_stvec();
  35:src/../h/Riscv.hpp **** 
  36:src/../h/Riscv.hpp **** 	//write stvec
  37:src/../h/Riscv.hpp **** 	static void w_stvec(uint64 stvec);
  38:src/../h/Riscv.hpp **** 
  39:src/../h/Riscv.hpp **** 	enum BitMaskSip {
  40:src/../h/Riscv.hpp **** 		//postoji zahtev za softverski prekid
  41:src/../h/Riscv.hpp **** 		SIP_SSIP = (1 << 1),
  42:src/../h/Riscv.hpp **** 		//postoji prekid od tajmera
  43:src/../h/Riscv.hpp **** 		SIP_STIP = (1 << 5),
  44:src/../h/Riscv.hpp **** 		//postoji zahtev za spoljasnji hardverski prekid
  45:src/../h/Riscv.hpp **** 		SIP_SEIP = (1 << 9)
  46:src/../h/Riscv.hpp **** 	};
  47:src/../h/Riscv.hpp **** 
  48:src/../h/Riscv.hpp **** 	//mask set sip
  49:src/../h/Riscv.hpp **** 	static void ms_sip(uint64 mask);
  50:src/../h/Riscv.hpp **** 
  51:src/../h/Riscv.hpp **** 	//mask clear sip
GAS LISTING /tmp/ccDEKUXZ.s 			page 6


  52:src/../h/Riscv.hpp **** 	static void mc_sip(uint64 mask);
  53:src/../h/Riscv.hpp **** 
  54:src/../h/Riscv.hpp **** 	//read sip
  55:src/../h/Riscv.hpp **** 	static uint64 r_sip();
  56:src/../h/Riscv.hpp **** 
  57:src/../h/Riscv.hpp **** 	//write sip
  58:src/../h/Riscv.hpp **** 	static void w_sip(uint64 sip);
  59:src/../h/Riscv.hpp **** 
  60:src/../h/Riscv.hpp **** 	//kada se pozove sret, SIE dobija vrednost SPIE, SPIE se postavlja na 1,
  61:src/../h/Riscv.hpp **** 	//rezim se postavlja na osnovu SPP bita, SPP se postavlja na 0
  62:src/../h/Riscv.hpp **** 	enum BitMaskSstatus {
  63:src/../h/Riscv.hpp **** 		//1 - dozvoljeni prekidi; 0- nedozvoljeni prekidi; igonrise se u korisnickom rezimu
  64:src/../h/Riscv.hpp **** 		SSTATUS_SIE = (1 << 1),
  65:src/../h/Riscv.hpp **** 		//prethodna vrednost bita SIE
  66:src/../h/Riscv.hpp **** 		SSTATUS_SPIE = (1 << 5),
  67:src/../h/Riscv.hpp **** 		//iz kog rezima se desio skok; 0 - iz korisnickog; 1 - iz sistemskog
  68:src/../h/Riscv.hpp **** 		SSTATUS_SPP = (1 << 8)
  69:src/../h/Riscv.hpp **** 	};
  70:src/../h/Riscv.hpp **** 
  71:src/../h/Riscv.hpp **** 	//mask set sstatus
  72:src/../h/Riscv.hpp **** 	static void ms_sstatus(uint64 mask);
  73:src/../h/Riscv.hpp **** 
  74:src/../h/Riscv.hpp **** 	//mask clear sstatus
  75:src/../h/Riscv.hpp **** 	static void mc_sstatus(uint64 mask);
  76:src/../h/Riscv.hpp **** 
  77:src/../h/Riscv.hpp **** 	//read sstatus
  78:src/../h/Riscv.hpp **** 	static uint64 r_sstatus();
  79:src/../h/Riscv.hpp **** 
  80:src/../h/Riscv.hpp **** 	//write sstatus
  81:src/../h/Riscv.hpp **** 	static void w_sstatus(uint64 sstatus);
  82:src/../h/Riscv.hpp **** 
  83:src/../h/Riscv.hpp **** 	//upisuje kod sistemskog poziva u registar a0
  84:src/../h/Riscv.hpp **** 	static void loadOpCode(uint64 opCode);
  85:src/../h/Riscv.hpp **** 
  86:src/../h/Riscv.hpp **** };
  87:src/../h/Riscv.hpp **** 
  88:src/../h/Riscv.hpp **** inline uint64 Riscv::r_scause() {
  89:src/../h/Riscv.hpp **** 	uint64 volatile scause;
  90:src/../h/Riscv.hpp **** 	__asm__ volatile("csrr %[scause], scause": [scause] "=r"(scause));
  91:src/../h/Riscv.hpp **** 	return scause;
  92:src/../h/Riscv.hpp **** }
  93:src/../h/Riscv.hpp **** 
  94:src/../h/Riscv.hpp **** inline void Riscv::w_scause(uint64 scause) {
  95:src/../h/Riscv.hpp **** 	__asm__ volatile("csrw scause, %[scause]": :[scause] "r"(scause));
  96:src/../h/Riscv.hpp **** }
  97:src/../h/Riscv.hpp **** 
  98:src/../h/Riscv.hpp **** inline uint64 Riscv::r_sepc() {
  99:src/../h/Riscv.hpp **** 	uint64 volatile sepc;
 100:src/../h/Riscv.hpp **** 	__asm__ volatile("csrr %[sepc], sepc": [sepc] "=r"(sepc));
 101:src/../h/Riscv.hpp **** 	return sepc;
 102:src/../h/Riscv.hpp **** }
 103:src/../h/Riscv.hpp **** 
 104:src/../h/Riscv.hpp **** inline void Riscv::w_sepc(uint64 sepc) {
 105:src/../h/Riscv.hpp **** 	__asm__ volatile("csrw sepc, %[sepc]": :[sepc] "r"(sepc));
 106:src/../h/Riscv.hpp **** }
 107:src/../h/Riscv.hpp **** 
 108:src/../h/Riscv.hpp **** inline uint64 Riscv::r_stvec() {
GAS LISTING /tmp/ccDEKUXZ.s 			page 7


 109:src/../h/Riscv.hpp **** 	uint64 volatile stvec;
 110:src/../h/Riscv.hpp **** 	__asm__ volatile("csrr %[stvec], stvec": [stvec] "=r"(stvec));
 111:src/../h/Riscv.hpp **** 	return stvec;
 112:src/../h/Riscv.hpp **** }
 113:src/../h/Riscv.hpp **** 
 114:src/../h/Riscv.hpp **** inline void Riscv::w_stvec(uint64 stvec) {
 115:src/../h/Riscv.hpp **** 	__asm__ volatile("csrw stvec, %[stvec]": :[stvec] "r"(stvec));
 116:src/../h/Riscv.hpp **** }
 117:src/../h/Riscv.hpp **** 
 118:src/../h/Riscv.hpp **** inline void Riscv::ms_sip(uint64 mask) {
 119:src/../h/Riscv.hpp **** 	__asm__ volatile("csrs sip, %[mask]": :[mask] "r"(mask));
 120:src/../h/Riscv.hpp **** }
 121:src/../h/Riscv.hpp **** 
 122:src/../h/Riscv.hpp **** inline void Riscv::mc_sip(uint64 mask) {
 123:src/../h/Riscv.hpp **** 	__asm__ volatile("csrc sip, %[mask]": :[mask] "r"(mask));
 124:src/../h/Riscv.hpp **** }
 125:src/../h/Riscv.hpp **** 
 126:src/../h/Riscv.hpp **** inline uint64 Riscv::r_sip() {
 127:src/../h/Riscv.hpp **** 	uint64 volatile sip;
 128:src/../h/Riscv.hpp **** 	__asm__ volatile("csrr %[sip], sip": [sip] "=r"(sip));
 129:src/../h/Riscv.hpp **** 	return sip;
 130:src/../h/Riscv.hpp **** }
 131:src/../h/Riscv.hpp **** 
 132:src/../h/Riscv.hpp **** inline void Riscv::w_sip(uint64 sip) {
 133:src/../h/Riscv.hpp **** 	__asm__ volatile("csrw sip, %[sip]": :[sip] "r"(sip));
 134:src/../h/Riscv.hpp **** }
 135:src/../h/Riscv.hpp **** 
 136:src/../h/Riscv.hpp **** inline void Riscv::ms_sstatus(uint64 mask) {
 137:src/../h/Riscv.hpp **** 	__asm__ volatile("csrs sstatus, %[mask]": :[mask] "r"(mask));
 160              		.loc 2 137 2
 161              		.loc 2 137 62 is_stmt 0
 162 0110 93072000 		li	a5,2
 163              	#APP
 164              	# 137 "src/../h/Riscv.hpp" 1
 138              	}
 165              		csrs sstatus, a5
 166              	# 0 "" 2
 167              	.LVL11:
 168              	#NO_APP
 169              	.LBE9:
 170              	.LBE8:
  56:src/main.cpp  **** 
  57:src/main.cpp  ****     //cekanje da se userMain zavrsi
  58:src/main.cpp  ****     thread_join(userHandle);
 171              		.loc 1 58 5 is_stmt 1
 172              		.loc 1 58 16 is_stmt 0
 173 0118 033504FE 		ld	a0,-32(s0)
 174 011c 97000000 		call	_Z11thread_joinP3TCB@plt
 174      E7800000 
 175              	.LVL12:
 176              	.L10:
  59:src/main.cpp  **** 
  60:src/main.cpp  **** 
  61:src/main.cpp  ****     //printString("\nSad cu da izadjem\n");
  62:src/main.cpp  **** 
  63:src/main.cpp  ****     //flush output bafera za konzolu
  64:src/main.cpp  ****     while (KConsole::outputHead != KConsole::outputTail) {}
GAS LISTING /tmp/ccDEKUXZ.s 			page 8


 177              		.loc 1 64 5 is_stmt 1
 178              		.loc 1 64 33
 179 0124 97070000 		la	a5,_ZN8KConsole10outputHeadE
 179      83B70700 
 180 012c 03A70700 		lw	a4,0(a5)
 181 0130 97070000 		la	a5,_ZN8KConsole10outputTailE
 181      83B70700 
 182 0138 83A70700 		lw	a5,0(a5)
 183 013c E314F7FE 		bne	a4,a5,.L10
  65:src/main.cpp  **** 
  66:src/main.cpp  ****     //maskiranje svih prekida
  67:src/main.cpp  ****     Riscv::mc_sstatus(Riscv::SSTATUS_SIE);
 184              		.loc 1 67 5
 185              	.LVL13:
 186              	.LBB10:
 187              	.LBB11:
 139:src/../h/Riscv.hpp **** 
 140:src/../h/Riscv.hpp **** inline void Riscv::mc_sstatus(uint64 mask) {
 141:src/../h/Riscv.hpp **** 	__asm__ volatile("csrc sstatus, %[mask]": :[mask] "r"(mask));
 188              		.loc 2 141 2
 189              		.loc 2 141 62 is_stmt 0
 190 0140 93072000 		li	a5,2
 191              	#APP
 192              	# 141 "src/../h/Riscv.hpp" 1
 142              	}
 193              		csrc sstatus, a5
 194              	# 0 "" 2
 195              	.LVL14:
 196              	#NO_APP
 197              	.LBE11:
 198              	.LBE10:
  68:src/main.cpp  **** 
  69:src/main.cpp  ****     return 0;
 199              		.loc 1 69 5 is_stmt 1
  70:src/main.cpp  **** 
  71:src/main.cpp  **** 
  72:src/main.cpp  **** }...
 200              		.loc 1 72 1 is_stmt 0
 201 0148 13050000 		li	a0,0
 202 014c 83308102 		ld	ra,40(sp)
 203              		.cfi_restore 1
 204 0150 03340102 		ld	s0,32(sp)
 205              		.cfi_restore 8
 206              		.cfi_def_cfa 2, 48
 207 0154 13010103 		addi	sp,sp,48
 208              		.cfi_def_cfa_offset 0
 209 0158 67800000 		jr	ra
 210              		.cfi_endproc
 211              	.LFE48:
 213              	.Letext0:
 214              		.file 3 "src/../lib/hw.h"
 215              		.file 4 "src/../h/syscall_c.hpp"
 216              		.file 5 "src/../h/TCB.hpp"
 217              		.file 6 "src/../h/../h/../h/MemoryAllocator.hpp"
 218              		.file 7 "src/../h/../h/ThreadQueue.hpp"
 219              		.file 8 "src/../h/KConsole.hpp"
GAS LISTING /tmp/ccDEKUXZ.s 			page 9


DEFINED SYMBOLS
                            *ABS*:0000000000000000 main.cpp
     /tmp/ccDEKUXZ.s:9      .text:0000000000000000 _Z4idlePv
     /tmp/ccDEKUXZ.s:13     .text:0000000000000000 .L0 
     /tmp/ccDEKUXZ.s:14     .text:0000000000000000 .L0 
     /tmp/ccDEKUXZ.s:15     .text:0000000000000004 .L0 
     /tmp/ccDEKUXZ.s:18     .text:000000000000000c .L0 
     /tmp/ccDEKUXZ.s:19     .text:000000000000000c .L0 
     /tmp/ccDEKUXZ.s:21     .text:0000000000000010 .L0 
     /tmp/ccDEKUXZ.s:24     .text:0000000000000010 .L0 
     /tmp/ccDEKUXZ.s:25     .text:0000000000000010 .L0 
     /tmp/ccDEKUXZ.s:26     .text:0000000000000010 .L0 
     /tmp/ccDEKUXZ.s:29     .text:0000000000000018 .L0 
     /tmp/ccDEKUXZ.s:30     .text:000000000000001c .L0 
     /tmp/ccDEKUXZ.s:36     .text:000000000000001c _Z22kernelConsumerFunctionPv
     /tmp/ccDEKUXZ.s:39     .text:000000000000001c .L0 
     /tmp/ccDEKUXZ.s:40     .text:000000000000001c .L0 
     /tmp/ccDEKUXZ.s:41     .text:0000000000000020 .L0 
     /tmp/ccDEKUXZ.s:44     .text:0000000000000028 .L0 
     /tmp/ccDEKUXZ.s:45     .text:0000000000000028 .L0 
     /tmp/ccDEKUXZ.s:47     .text:000000000000002c .L0 
     /tmp/ccDEKUXZ.s:53     .text:0000000000000030 .L0 
     /tmp/ccDEKUXZ.s:56     .text:000000000000003c .L0 
     /tmp/ccDEKUXZ.s:58     .text:0000000000000040 .L0 
     /tmp/ccDEKUXZ.s:59     .text:0000000000000040 .L0 
     /tmp/ccDEKUXZ.s:67     .text:0000000000000054 .L0 
     /tmp/ccDEKUXZ.s:69     .text:0000000000000054 .L0 
     /tmp/ccDEKUXZ.s:70     .text:0000000000000054 .L0 
     /tmp/ccDEKUXZ.s:71     .text:0000000000000054 .L0 
     /tmp/ccDEKUXZ.s:75     .text:000000000000005c .L0 
     /tmp/ccDEKUXZ.s:76     .text:000000000000005c .L0 
     /tmp/ccDEKUXZ.s:77     .text:000000000000005c .L0 
     /tmp/ccDEKUXZ.s:81     .text:000000000000006c .L0 
     /tmp/ccDEKUXZ.s:85     .text:0000000000000078 .L0 
     /tmp/ccDEKUXZ.s:91     .text:0000000000000078 main
     /tmp/ccDEKUXZ.s:94     .text:0000000000000078 .L0 
     /tmp/ccDEKUXZ.s:95     .text:0000000000000078 .L0 
     /tmp/ccDEKUXZ.s:96     .text:000000000000007c .L0 
     /tmp/ccDEKUXZ.s:99     .text:0000000000000084 .L0 
     /tmp/ccDEKUXZ.s:100    .text:0000000000000084 .L0 
     /tmp/ccDEKUXZ.s:102    .text:0000000000000088 .L0 
     /tmp/ccDEKUXZ.s:104    .text:0000000000000088 .L0 
     /tmp/ccDEKUXZ.s:105    .text:0000000000000088 .L0 
     /tmp/ccDEKUXZ.s:111    .text:0000000000000094 .L0 
     /tmp/ccDEKUXZ.s:113    .text:0000000000000094 .L0 
     /tmp/ccDEKUXZ.s:116    .text:000000000000009c .L0 
     /tmp/ccDEKUXZ.s:117    .text:000000000000009c .L0 
     /tmp/ccDEKUXZ.s:120    .text:00000000000000a4 .L0 
     /tmp/ccDEKUXZ.s:121    .text:00000000000000a4 .L0 
     /tmp/ccDEKUXZ.s:122    .text:00000000000000a4 .L0 
     /tmp/ccDEKUXZ.s:123    .text:00000000000000a4 .L0 
     /tmp/ccDEKUXZ.s:124    .text:00000000000000a4 .L0 
     /tmp/ccDEKUXZ.s:125    .text:00000000000000a4 .L0 
     /tmp/ccDEKUXZ.s:131    .text:00000000000000b8 .L0 
     /tmp/ccDEKUXZ.s:132    .text:00000000000000b8 .L0 
     /tmp/ccDEKUXZ.s:136    .text:00000000000000c8 .L0 
     /tmp/ccDEKUXZ.s:137    .text:00000000000000c8 .L0 
GAS LISTING /tmp/ccDEKUXZ.s 			page 10


     /tmp/ccDEKUXZ.s:143    .text:00000000000000e0 .L0 
     /tmp/ccDEKUXZ.s:144    .text:00000000000000e0 .L0 
     /tmp/ccDEKUXZ.s:150    .text:00000000000000f8 .L0 
     /tmp/ccDEKUXZ.s:151    .text:00000000000000f8 .L0 
     /tmp/ccDEKUXZ.s:160    .text:0000000000000110 .L0 
     /tmp/ccDEKUXZ.s:161    .text:0000000000000110 .L0 
     /tmp/ccDEKUXZ.s:162    .text:0000000000000110 .L0 
     /tmp/ccDEKUXZ.s:172    .text:0000000000000118 .L0 
     /tmp/ccDEKUXZ.s:173    .text:0000000000000118 .L0 
     /tmp/ccDEKUXZ.s:178    .text:0000000000000124 .L0 
     /tmp/ccDEKUXZ.s:179    .text:0000000000000124 .L0 
     /tmp/ccDEKUXZ.s:188    .text:0000000000000140 .L0 
     /tmp/ccDEKUXZ.s:189    .text:0000000000000140 .L0 
     /tmp/ccDEKUXZ.s:190    .text:0000000000000140 .L0 
     /tmp/ccDEKUXZ.s:200    .text:0000000000000148 .L0 
     /tmp/ccDEKUXZ.s:201    .text:0000000000000148 .L0 
     /tmp/ccDEKUXZ.s:203    .text:0000000000000150 .L0 
     /tmp/ccDEKUXZ.s:205    .text:0000000000000154 .L0 
     /tmp/ccDEKUXZ.s:206    .text:0000000000000154 .L0 
     /tmp/ccDEKUXZ.s:208    .text:0000000000000158 .L0 
     /tmp/ccDEKUXZ.s:210    .text:000000000000015c .L0 
     /tmp/ccDEKUXZ.s:220    .text:000000000000015c .L0 
     /tmp/ccDEKUXZ.s:53     .text:0000000000000030 .L0 
     /tmp/ccDEKUXZ.s:59     .text:0000000000000040 .L0 
     /tmp/ccDEKUXZ.s:77     .text:000000000000005c .L0 
     /tmp/ccDEKUXZ.s:105    .text:0000000000000088 .L0 
     /tmp/ccDEKUXZ.s:132    .text:00000000000000b8 .L0 
     /tmp/ccDEKUXZ.s:138    .text:00000000000000cc .L0 
     /tmp/ccDEKUXZ.s:145    .text:00000000000000e4 .L0 
     /tmp/ccDEKUXZ.s:152    .text:00000000000000fc .L0 
     /tmp/ccDEKUXZ.s:179    .text:0000000000000124 .L0 
     /tmp/ccDEKUXZ.s:181    .text:0000000000000130 .L0 
     /tmp/ccDEKUXZ.s:22     .text:0000000000000010 .L2
     /tmp/ccDEKUXZ.s:66     .text:0000000000000054 .L6
     /tmp/ccDEKUXZ.s:73     .text:000000000000005c .L5
     /tmp/ccDEKUXZ.s:50     .text:0000000000000030 .L8
     /tmp/ccDEKUXZ.s:176    .text:0000000000000124 .L10
     /tmp/ccDEKUXZ.s:1808   .debug_abbrev:0000000000000000 .Ldebug_abbrev0
     /tmp/ccDEKUXZ.s:3197   .debug_str:00000000000009f8 .LASF202
     /tmp/ccDEKUXZ.s:2961   .debug_str:0000000000000364 .LASF203
     /tmp/ccDEKUXZ.s:3153   .debug_str:00000000000008c6 .LASF204
     /tmp/ccDEKUXZ.s:5      .text:0000000000000000 .Ltext0
     /tmp/ccDEKUXZ.s:213    .text:000000000000015c .Letext0
     /tmp/ccDEKUXZ.s:2861   .debug_line:0000000000000000 .Ldebug_line0
     /tmp/ccDEKUXZ.s:2997   .debug_str:0000000000000453 .LASF0
     /tmp/ccDEKUXZ.s:3027   .debug_str:0000000000000513 .LASF1
     /tmp/ccDEKUXZ.s:3135   .debug_str:0000000000000841 .LASF2
     /tmp/ccDEKUXZ.s:2951   .debug_str:0000000000000314 .LASF3
     /tmp/ccDEKUXZ.s:3145   .debug_str:0000000000000897 .LASF4
     /tmp/ccDEKUXZ.s:3011   .debug_str:000000000000049d .LASF5
     /tmp/ccDEKUXZ.s:2871   .debug_str:000000000000004e .LASF6
     /tmp/ccDEKUXZ.s:3099   .debug_str:0000000000000733 .LASF7
     /tmp/ccDEKUXZ.s:3091   .debug_str:000000000000070f .LASF8
     /tmp/ccDEKUXZ.s:3017   .debug_str:00000000000004de .LASF9
     /tmp/ccDEKUXZ.s:2971   .debug_str:0000000000000393 .LASF10
     /tmp/ccDEKUXZ.s:2981   .debug_str:00000000000003e2 .LASF11
     /tmp/ccDEKUXZ.s:2907   .debug_str:0000000000000193 .LASF12
GAS LISTING /tmp/ccDEKUXZ.s 			page 11


     /tmp/ccDEKUXZ.s:2959   .debug_str:0000000000000355 .LASF13
     /tmp/ccDEKUXZ.s:2917   .debug_str:00000000000001eb .LASF14
     /tmp/ccDEKUXZ.s:2905   .debug_str:0000000000000183 .LASF15
     /tmp/ccDEKUXZ.s:3173   .debug_str:000000000000095f .LASF16
     /tmp/ccDEKUXZ.s:2947   .debug_str:00000000000002e3 .LASF17
     /tmp/ccDEKUXZ.s:3165   .debug_str:0000000000000930 .LASF18
     /tmp/ccDEKUXZ.s:3243   .debug_str:0000000000000bf0 .LASF57
     /tmp/ccDEKUXZ.s:3229   .debug_str:0000000000000ba3 .LASF105
     /tmp/ccDEKUXZ.s:2953   .debug_str:000000000000031a .LASF19
     /tmp/ccDEKUXZ.s:3195   .debug_str:00000000000009eb .LASF20
     /tmp/ccDEKUXZ.s:2931   .debug_str:0000000000000275 .LASF21
     /tmp/ccDEKUXZ.s:2987   .debug_str:0000000000000408 .LASF22
     /tmp/ccDEKUXZ.s:2995   .debug_str:000000000000043b .LASF24
     /tmp/ccDEKUXZ.s:3151   .debug_str:00000000000008b8 .LASF23
     /tmp/ccDEKUXZ.s:2949   .debug_str:00000000000002f9 .LASF25
     /tmp/ccDEKUXZ.s:3001   .debug_str:000000000000046a .LASF26
     /tmp/ccDEKUXZ.s:3253   .debug_str:0000000000000c43 .LASF27
     /tmp/ccDEKUXZ.s:3219   .debug_str:0000000000000b6c .LASF28
     /tmp/ccDEKUXZ.s:3213   .debug_str:0000000000000b35 .LASF30
     /tmp/ccDEKUXZ.s:3131   .debug_str:000000000000082d .LASF32
     /tmp/ccDEKUXZ.s:3073   .debug_str:0000000000000686 .LASF34
     /tmp/ccDEKUXZ.s:3109   .debug_str:0000000000000760 .LASF29
     /tmp/ccDEKUXZ.s:3111   .debug_str:0000000000000767 .LASF31
     /tmp/ccDEKUXZ.s:3061   .debug_str:0000000000000629 .LASF33
     /tmp/ccDEKUXZ.s:3019   .debug_str:00000000000004f1 .LASF35
     /tmp/ccDEKUXZ.s:3257   .debug_str:0000000000000c6b .LASF36
     /tmp/ccDEKUXZ.s:3199   .debug_str:0000000000000abc .LASF37
     /tmp/ccDEKUXZ.s:3059   .debug_str:0000000000000621 .LASF38
     /tmp/ccDEKUXZ.s:3071   .debug_str:0000000000000672 .LASF39
     /tmp/ccDEKUXZ.s:3169   .debug_str:000000000000094b .LASF40
     /tmp/ccDEKUXZ.s:3147   .debug_str:000000000000089e .LASF41
     /tmp/ccDEKUXZ.s:3149   .debug_str:00000000000008b1 .LASF42
     /tmp/ccDEKUXZ.s:2911   .debug_str:00000000000001a7 .LASF43
     /tmp/ccDEKUXZ.s:2945   .debug_str:00000000000002dd .LASF44
     /tmp/ccDEKUXZ.s:2991   .debug_str:000000000000041e .LASF45
     /tmp/ccDEKUXZ.s:3003   .debug_str:0000000000000477 .LASF46
     /tmp/ccDEKUXZ.s:2933   .debug_str:0000000000000281 .LASF47
     /tmp/ccDEKUXZ.s:2873   .debug_str:0000000000000055 .LASF48
     /tmp/ccDEKUXZ.s:3139   .debug_str:0000000000000859 .LASF49
     /tmp/ccDEKUXZ.s:3133   .debug_str:0000000000000836 .LASF50
     /tmp/ccDEKUXZ.s:3273   .debug_str:0000000000000ceb .LASF51
     /tmp/ccDEKUXZ.s:3245   .debug_str:0000000000000bf6 .LASF52
     /tmp/ccDEKUXZ.s:3259   .debug_str:0000000000000c73 .LASF53
     /tmp/ccDEKUXZ.s:3239   .debug_str:0000000000000bd0 .LASF54
     /tmp/ccDEKUXZ.s:3049   .debug_str:0000000000000598 .LASF55
     /tmp/ccDEKUXZ.s:3207   .debug_str:0000000000000b0a .LASF131
     /tmp/ccDEKUXZ.s:2923   .debug_str:000000000000022b .LASF133
     /tmp/ccDEKUXZ.s:3237   .debug_str:0000000000000bc7 .LASF56
     /tmp/ccDEKUXZ.s:3181   .debug_str:00000000000009a2 .LASF137
     /tmp/ccDEKUXZ.s:3171   .debug_str:0000000000000952 .LASF60
     /tmp/ccDEKUXZ.s:3251   .debug_str:0000000000000c21 .LASF62
     /tmp/ccDEKUXZ.s:3079   .debug_str:00000000000006be .LASF205
     /tmp/ccDEKUXZ.s:3267   .debug_str:0000000000000ccb .LASF58
     /tmp/ccDEKUXZ.s:3013   .debug_str:00000000000004af .LASF59
     /tmp/ccDEKUXZ.s:3183   .debug_str:00000000000009aa .LASF64
     /tmp/ccDEKUXZ.s:3179   .debug_str:000000000000098c .LASF66
     /tmp/ccDEKUXZ.s:2891   .debug_str:00000000000000ed .LASF61
GAS LISTING /tmp/ccDEKUXZ.s 			page 12


     /tmp/ccDEKUXZ.s:3215   .debug_str:0000000000000b4a .LASF63
     /tmp/ccDEKUXZ.s:3137   .debug_str:000000000000084f .LASF65
     /tmp/ccDEKUXZ.s:3177   .debug_str:0000000000000978 .LASF67
     /tmp/ccDEKUXZ.s:3187   .debug_str:00000000000009c2 .LASF68
     /tmp/ccDEKUXZ.s:2955   .debug_str:0000000000000326 .LASF69
     /tmp/ccDEKUXZ.s:3035   .debug_str:000000000000053f .LASF70
     /tmp/ccDEKUXZ.s:3115   .debug_str:00000000000007ac .LASF71
     /tmp/ccDEKUXZ.s:2937   .debug_str:00000000000002ab .LASF72
     /tmp/ccDEKUXZ.s:3141   .debug_str:0000000000000871 .LASF73
     /tmp/ccDEKUXZ.s:3217   .debug_str:0000000000000b61 .LASF74
     /tmp/ccDEKUXZ.s:2935   .debug_str:0000000000000293 .LASF75
     /tmp/ccDEKUXZ.s:3277   .debug_str:0000000000000d10 .LASF76
     /tmp/ccDEKUXZ.s:2957   .debug_str:000000000000033c .LASF77
     /tmp/ccDEKUXZ.s:3033   .debug_str:0000000000000539 .LASF78
     /tmp/ccDEKUXZ.s:3129   .debug_str:000000000000081d .LASF79
     /tmp/ccDEKUXZ.s:2939   .debug_str:00000000000002b8 .LASF80
     /tmp/ccDEKUXZ.s:2913   .debug_str:00000000000001ba .LASF81
     /tmp/ccDEKUXZ.s:3039   .debug_str:0000000000000559 .LASF82
     /tmp/ccDEKUXZ.s:2877   .debug_str:000000000000007c .LASF83
     /tmp/ccDEKUXZ.s:3193   .debug_str:00000000000009e3 .LASF84
     /tmp/ccDEKUXZ.s:2899   .debug_str:0000000000000153 .LASF85
     /tmp/ccDEKUXZ.s:3275   .debug_str:0000000000000d03 .LASF86
     /tmp/ccDEKUXZ.s:2977   .debug_str:00000000000003c1 .LASF87
     /tmp/ccDEKUXZ.s:2867   .debug_str:0000000000000016 .LASF88
     /tmp/ccDEKUXZ.s:3045   .debug_str:0000000000000574 .LASF89
     /tmp/ccDEKUXZ.s:3211   .debug_str:0000000000000b2d .LASF90
     /tmp/ccDEKUXZ.s:2901   .debug_str:0000000000000164 .LASF91
     /tmp/ccDEKUXZ.s:3271   .debug_str:0000000000000ce5 .LASF92
     /tmp/ccDEKUXZ.s:3221   .debug_str:0000000000000b75 .LASF93
     /tmp/ccDEKUXZ.s:3201   .debug_str:0000000000000ad0 .LASF94
     /tmp/ccDEKUXZ.s:3163   .debug_str:0000000000000927 .LASF95
     /tmp/ccDEKUXZ.s:3101   .debug_str:000000000000073a .LASF96
     /tmp/ccDEKUXZ.s:2989   .debug_str:0000000000000413 .LASF97
     /tmp/ccDEKUXZ.s:3161   .debug_str:0000000000000917 .LASF98
     /tmp/ccDEKUXZ.s:3083   .debug_str:00000000000006cb .LASF99
     /tmp/ccDEKUXZ.s:2865   .debug_str:0000000000000009 .LASF100
     /tmp/ccDEKUXZ.s:3143   .debug_str:0000000000000889 .LASF101
     /tmp/ccDEKUXZ.s:3265   .debug_str:0000000000000cb5 .LASF206
     /tmp/ccDEKUXZ.s:2925   .debug_str:0000000000000243 .LASF142
     /tmp/ccDEKUXZ.s:2869   .debug_str:0000000000000026 .LASF143
     /tmp/ccDEKUXZ.s:2973   .debug_str:00000000000003a3 .LASF102
     /tmp/ccDEKUXZ.s:3167   .debug_str:0000000000000946 .LASF207
     /tmp/ccDEKUXZ.s:3189   .debug_str:00000000000009cd .LASF103
     /tmp/ccDEKUXZ.s:3085   .debug_str:00000000000006d7 .LASF104
     /tmp/ccDEKUXZ.s:3081   .debug_str:00000000000006c3 .LASF106
     /tmp/ccDEKUXZ.s:3097   .debug_str:000000000000072d .LASF107
     /tmp/ccDEKUXZ.s:3263   .debug_str:0000000000000cab .LASF108
     /tmp/ccDEKUXZ.s:3121   .debug_str:00000000000007d8 .LASF109
     /tmp/ccDEKUXZ.s:3095   .debug_str:0000000000000728 .LASF110
     /tmp/ccDEKUXZ.s:3043   .debug_str:000000000000056a .LASF111
     /tmp/ccDEKUXZ.s:3107   .debug_str:0000000000000751 .LASF115
     /tmp/ccDEKUXZ.s:2909   .debug_str:00000000000001a2 .LASF112
     /tmp/ccDEKUXZ.s:2883   .debug_str:00000000000000bc .LASF113
     /tmp/ccDEKUXZ.s:3025   .debug_str:000000000000050e .LASF114
     /tmp/ccDEKUXZ.s:2941   .debug_str:00000000000002c1 .LASF116
     /tmp/ccDEKUXZ.s:3117   .debug_str:00000000000007c4 .LASF117
     /tmp/ccDEKUXZ.s:3057   .debug_str:000000000000060e .LASF118
GAS LISTING /tmp/ccDEKUXZ.s 			page 13


     /tmp/ccDEKUXZ.s:2963   .debug_str:0000000000000371 .LASF119
     /tmp/ccDEKUXZ.s:3203   .debug_str:0000000000000ada .LASF120
     /tmp/ccDEKUXZ.s:2965   .debug_str:0000000000000379 .LASF121
     /tmp/ccDEKUXZ.s:3077   .debug_str:00000000000006a0 .LASF122
     /tmp/ccDEKUXZ.s:2885   .debug_str:00000000000000c1 .LASF123
     /tmp/ccDEKUXZ.s:3113   .debug_str:000000000000077a .LASF124
     /tmp/ccDEKUXZ.s:3269   .debug_str:0000000000000cd1 .LASF125
     /tmp/ccDEKUXZ.s:3053   .debug_str:00000000000005c3 .LASF126
     /tmp/ccDEKUXZ.s:2881   .debug_str:00000000000000a3 .LASF127
     /tmp/ccDEKUXZ.s:3125   .debug_str:00000000000007f4 .LASF128
     /tmp/ccDEKUXZ.s:3119   .debug_str:00000000000007cc .LASF129
     /tmp/ccDEKUXZ.s:3249   .debug_str:0000000000000c15 .LASF130
     /tmp/ccDEKUXZ.s:3007   .debug_str:0000000000000485 .LASF132
     /tmp/ccDEKUXZ.s:2893   .debug_str:00000000000000f9 .LASF134
     /tmp/ccDEKUXZ.s:3205   .debug_str:0000000000000b05 .LASF135
     /tmp/ccDEKUXZ.s:3063   .debug_str:0000000000000630 .LASF136
     /tmp/ccDEKUXZ.s:3235   .debug_str:0000000000000bc2 .LASF138
     /tmp/ccDEKUXZ.s:3021   .debug_str:0000000000000504 .LASF139
     /tmp/ccDEKUXZ.s:2915   .debug_str:00000000000001cd .LASF140
     /tmp/ccDEKUXZ.s:2927   .debug_str:0000000000000251 .LASF141
     /tmp/ccDEKUXZ.s:2919   .debug_str:00000000000001fb .LASF144
     /tmp/ccDEKUXZ.s:2969   .debug_str:000000000000038d .LASF145
     /tmp/ccDEKUXZ.s:3023   .debug_str:0000000000000509 .LASF146
     /tmp/ccDEKUXZ.s:2879   .debug_str:000000000000008e .LASF147
     /tmp/ccDEKUXZ.s:2975   .debug_str:00000000000003a9 .LASF148
     /tmp/ccDEKUXZ.s:2929   .debug_str:000000000000026b .LASF208
     /tmp/ccDEKUXZ.s:3209   .debug_str:0000000000000b15 .LASF209
     /tmp/ccDEKUXZ.s:3185   .debug_str:00000000000009b5 .LASF149
     /tmp/ccDEKUXZ.s:3247   .debug_str:0000000000000c00 .LASF150
     /tmp/ccDEKUXZ.s:3005   .debug_str:000000000000047d .LASF151
     /tmp/ccDEKUXZ.s:2875   .debug_str:0000000000000060 .LASF152
     /tmp/ccDEKUXZ.s:3031   .debug_str:0000000000000531 .LASF153
     /tmp/ccDEKUXZ.s:3055   .debug_str:00000000000005ef .LASF154
     /tmp/ccDEKUXZ.s:2895   .debug_str:000000000000012e .LASF155
     /tmp/ccDEKUXZ.s:2897   .debug_str:0000000000000137 .LASF156
     /tmp/ccDEKUXZ.s:2921   .debug_str:0000000000000216 .LASF157
     /tmp/ccDEKUXZ.s:3241   .debug_str:0000000000000bda .LASF158
     /tmp/ccDEKUXZ.s:3041   .debug_str:0000000000000561 .LASF159
     /tmp/ccDEKUXZ.s:3155   .debug_str:00000000000008e4 .LASF160
     /tmp/ccDEKUXZ.s:3067   .debug_str:0000000000000648 .LASF161
     /tmp/ccDEKUXZ.s:3093   .debug_str:0000000000000722 .LASF162
     /tmp/ccDEKUXZ.s:3281   .debug_str:0000000000000d32 .LASF163
     /tmp/ccDEKUXZ.s:3191   .debug_str:00000000000009d2 .LASF164
     /tmp/ccDEKUXZ.s:3175   .debug_str:000000000000096b .LASF165
     /tmp/ccDEKUXZ.s:3015   .debug_str:00000000000004c1 .LASF166
     /tmp/ccDEKUXZ.s:3225   .debug_str:0000000000000b86 .LASF167
     /tmp/ccDEKUXZ.s:3261   .debug_str:0000000000000c89 .LASF168
     /tmp/ccDEKUXZ.s:3009   .debug_str:000000000000048f .LASF169
     /tmp/ccDEKUXZ.s:3087   .debug_str:00000000000006e7 .LASF170
     /tmp/ccDEKUXZ.s:2985   .debug_str:00000000000003fb .LASF171
     /tmp/ccDEKUXZ.s:3127   .debug_str:0000000000000800 .LASF172
     /tmp/ccDEKUXZ.s:2887   .debug_str:00000000000000ce .LASF173
     /tmp/ccDEKUXZ.s:2979   .debug_str:00000000000003cd .LASF174
     /tmp/ccDEKUXZ.s:2967   .debug_str:000000000000037f .LASF175
     /tmp/ccDEKUXZ.s:3037   .debug_str:000000000000054c .LASF176
     /tmp/ccDEKUXZ.s:2863   .debug_str:0000000000000000 .LASF210
     /tmp/ccDEKUXZ.s:3223   .debug_str:0000000000000b7a .LASF177
GAS LISTING /tmp/ccDEKUXZ.s 			page 14


     /tmp/ccDEKUXZ.s:2943   .debug_str:00000000000002d0 .LASF178
     /tmp/ccDEKUXZ.s:2999   .debug_str:0000000000000460 .LASF179
     /tmp/ccDEKUXZ.s:3105   .debug_str:0000000000000747 .LASF180
     /tmp/ccDEKUXZ.s:3029   .debug_str:0000000000000526 .LASF181
     /tmp/ccDEKUXZ.s:3227   .debug_str:0000000000000b98 .LASF182
     /tmp/ccDEKUXZ.s:3157   .debug_str:00000000000008ea .LASF183
     /tmp/ccDEKUXZ.s:3075   .debug_str:000000000000069b .LASF184
     /tmp/ccDEKUXZ.s:92     .text:0000000000000078 .LFB48
     /tmp/ccDEKUXZ.s:211    .text:000000000000015c .LFE48
     /tmp/ccDEKUXZ.s:2993   .debug_str:0000000000000430 .LASF185
     /tmp/ccDEKUXZ.s:3231   .debug_str:0000000000000bb2 .LASF186
     /tmp/ccDEKUXZ.s:2889   .debug_str:00000000000000e2 .LASF187
     /tmp/ccDEKUXZ.s:3279   .debug_str:0000000000000d1e .LASF188
     /tmp/ccDEKUXZ.s:157    .text:0000000000000110 .LBB8
     /tmp/ccDEKUXZ.s:170    .text:0000000000000118 .LBE8
     /tmp/ccDEKUXZ.s:2813   .debug_loc:0000000000000000 .LLST1
     /tmp/ccDEKUXZ.s:186    .text:0000000000000140 .LBB10
     /tmp/ccDEKUXZ.s:198    .text:0000000000000148 .LBE10
     /tmp/ccDEKUXZ.s:2821   .debug_loc:0000000000000024 .LLST2
     /tmp/ccDEKUXZ.s:114    .text:000000000000009c .LVL5
     /tmp/ccDEKUXZ.s:118    .text:00000000000000a4 .LVL6
     /tmp/ccDEKUXZ.s:129    .text:00000000000000b8 .LVL7
     /tmp/ccDEKUXZ.s:141    .text:00000000000000e0 .LVL8
     /tmp/ccDEKUXZ.s:148    .text:00000000000000f8 .LVL9
     /tmp/ccDEKUXZ.s:155    .text:0000000000000110 .LVL10
     /tmp/ccDEKUXZ.s:175    .text:0000000000000124 .LVL12
     /tmp/ccDEKUXZ.s:3047   .debug_str:0000000000000581 .LASF189
     /tmp/ccDEKUXZ.s:3159   .debug_str:00000000000008fa .LASF190
     /tmp/ccDEKUXZ.s:37     .text:000000000000001c .LFB47
     /tmp/ccDEKUXZ.s:86     .text:0000000000000078 .LFE47
     /tmp/ccDEKUXZ.s:2853   .debug_ranges:0000000000000000 .Ldebug_ranges0
     /tmp/ccDEKUXZ.s:2829   .debug_loc:0000000000000048 .LLST0
     /tmp/ccDEKUXZ.s:63     .text:0000000000000054 .LVL3
     /tmp/ccDEKUXZ.s:72     .text:000000000000005c .LVL4
     /tmp/ccDEKUXZ.s:3103   .debug_str:0000000000000742 .LASF191
     /tmp/ccDEKUXZ.s:3089   .debug_str:0000000000000705 .LASF192
     /tmp/ccDEKUXZ.s:10     .text:0000000000000000 .LFB46
     /tmp/ccDEKUXZ.s:31     .text:000000000000001c .LFE46
     /tmp/ccDEKUXZ.s:27     .text:0000000000000018 .LVL0
     /tmp/ccDEKUXZ.s:3233   .debug_str:0000000000000bbd .LASF193
     /tmp/ccDEKUXZ.s:3283   .debug_str:0000000000000d47 .LASF194
     /tmp/ccDEKUXZ.s:3255   .debug_str:0000000000000c5d .LASF196
     /tmp/ccDEKUXZ.s:3069   .debug_str:000000000000065d .LASF195
     /tmp/ccDEKUXZ.s:3065   .debug_str:000000000000063c .LASF197
     /tmp/ccDEKUXZ.s:3123   .debug_str:00000000000007df .LASF198
     /tmp/ccDEKUXZ.s:2983   .debug_str:00000000000003f0 .LASF199
     /tmp/ccDEKUXZ.s:3051   .debug_str:00000000000005ae .LASF200
     /tmp/ccDEKUXZ.s:2903   .debug_str:0000000000000173 .LASF201
     /tmp/ccDEKUXZ.s:167    .text:0000000000000118 .LVL11
     /tmp/ccDEKUXZ.s:185    .text:0000000000000140 .LVL13
     /tmp/ccDEKUXZ.s:195    .text:0000000000000148 .LVL14
     /tmp/ccDEKUXZ.s:49     .text:0000000000000030 .LVL1
     /tmp/ccDEKUXZ.s:61     .text:000000000000004c .LVL2
     /tmp/ccDEKUXZ.s:221    .debug_info:0000000000000000 .Ldebug_info0
     /tmp/ccDEKUXZ.s:51     .text:0000000000000030 .LBB6
     /tmp/ccDEKUXZ.s:64     .text:0000000000000054 .LBE6
     /tmp/ccDEKUXZ.s:68     .text:0000000000000054 .LBB7
GAS LISTING /tmp/ccDEKUXZ.s 			page 15


     /tmp/ccDEKUXZ.s:84     .text:0000000000000078 .LBE7

UNDEFINED SYMBOLS
_Z15thread_dispatchv
_ZN8KConsole2drE
_ZN8KConsole20outputBufferHasSpaceE
_Z10sem_signalP4KSem
_ZN8KConsole13getFromOutputEv
_ZN8KConsole2srE
interruptHandler
_ZN15MemoryAllocator19initMemoryAllocatorEv
_ZN8KConsole12initKConsoleEv
_Z13thread_createPP3TCBPFvPvES2_
_ZN3TCB7runningE
_Z8userMainv
_Z11thread_joinP3TCB
_ZN8KConsole10outputHeadE
_ZN8KConsole10outputTailE
