GAS LISTING /tmp/ccHCLNhp.s 			page 1


   1              		.file	"main.cpp"
   2              		.option pic
   3              		.option norelax
   4              		.text
   5              	.Ltext0:
   6              		.align	2
   7              		.globl	_Z4idlePv
   9              	_Z4idlePv:
  10              	.LFB44:
  11              		.file 1 "src/main.cpp"
   1:src/main.cpp  **** #include "../lib/hw.h"
   2:src/main.cpp  **** #include "../h/Riscv.hpp"
   3:src/main.cpp  **** #include "../h/KMemory.hpp"
   4:src/main.cpp  **** #include "../h/KConsole.hpp"
   5:src/main.cpp  **** #include "../h/TCB.hpp"
   6:src/main.cpp  **** #include "../h/syscall_c.hpp"
   7:src/main.cpp  **** #include "../h/syscall_cpp.hpp"
   8:src/main.cpp  **** 
   9:src/main.cpp  **** extern "C" void interruptHandler();
  10:src/main.cpp  **** 
  11:src/main.cpp  **** void userMain();
  12:src/main.cpp  **** 
  13:src/main.cpp  **** void idle(void*) {
  12              		.loc 1 13 18
  13              		.cfi_startproc
  14 0000 130101FF 		addi	sp,sp,-16
  15              		.cfi_def_cfa_offset 16
  16 0004 23341100 		sd	ra,8(sp)
  17 0008 23308100 		sd	s0,0(sp)
  18              		.cfi_offset 1, -8
  19              		.cfi_offset 8, -16
  20 000c 13040101 		addi	s0,sp,16
  21              		.cfi_def_cfa 8, 0
  22              	.L2:
  14:src/main.cpp  ****     while (1) { thread_dispatch(); }
  23              		.loc 1 14 5 discriminator 1
  24              		.loc 1 14 17 discriminator 1
  25              		.loc 1 14 32 is_stmt 0 discriminator 1
  26 0010 97000000 		call	_Z15thread_dispatchv@plt
  26      E7800000 
  27              	.LVL0:
  28              		.loc 1 14 5 is_stmt 1 discriminator 1
  29 0018 6FF09FFF 		j	.L2
  30              		.cfi_endproc
  31              	.LFE44:
  33              		.align	2
  34              		.globl	_Z22kernelConsumerFunctionPv
  36              	_Z22kernelConsumerFunctionPv:
  37              	.LFB45:
  15:src/main.cpp  **** }
  16:src/main.cpp  **** 
  17:src/main.cpp  **** //salje na izlaz karakter iz izlaznog bafera KConsole
  18:src/main.cpp  **** void kernelConsumerFunction(void*) {
  38              		.loc 1 18 36
  39              		.cfi_startproc
  40 001c 130101FF 		addi	sp,sp,-16
  41              		.cfi_def_cfa_offset 16
GAS LISTING /tmp/ccHCLNhp.s 			page 2


  42 0020 23341100 		sd	ra,8(sp)
  43 0024 23308100 		sd	s0,0(sp)
  44              		.cfi_offset 1, -8
  45              		.cfi_offset 8, -16
  46 0028 13040101 		addi	s0,sp,16
  47              		.cfi_def_cfa 8, 0
  48 002c 6F008002 		j	.L6
  49              	.LVL1:
  50              	.L8:
  51              	.LBB19:
  19:src/main.cpp  ****     while (1) {
  20:src/main.cpp  ****         char c = KConsole::getFromOutput();
  21:src/main.cpp  ****         while (!(KConsole::getSRvalue() & CONSOLE_TX_STATUS_BIT)) {}
  22:src/main.cpp  ****         KConsole::setDRvalue(c);
  52              		.loc 1 22 9
  53              	.LBB20:
  54              	.LBB21:
  55              		.file 2 "src/../h/KConsole.hpp"
   1:src/../h/KConsole.hpp **** //
   2:src/../h/KConsole.hpp **** // Created by os on 6/7/23.
   3:src/../h/KConsole.hpp **** //
   4:src/../h/KConsole.hpp **** 
   5:src/../h/KConsole.hpp **** #ifndef PROJEKAT2023_KCONSOLE_HPP
   6:src/../h/KConsole.hpp **** #define PROJEKAT2023_KCONSOLE_HPP
   7:src/../h/KConsole.hpp **** 
   8:src/../h/KConsole.hpp **** #include "../lib/hw.h"
   9:src/../h/KConsole.hpp **** 
  10:src/../h/KConsole.hpp **** class KSem;
  11:src/../h/KConsole.hpp **** 
  12:src/../h/KConsole.hpp **** typedef KSem* sem_t;
  13:src/../h/KConsole.hpp **** 
  14:src/../h/KConsole.hpp **** class KConsole {
  15:src/../h/KConsole.hpp **** public:
  16:src/../h/KConsole.hpp ****     static void initKConsole();
  17:src/../h/KConsole.hpp **** 
  18:src/../h/KConsole.hpp ****     //stavlja karakter u izlazni bafer konzole
  19:src/../h/KConsole.hpp ****     static void kputc(char c);
  20:src/../h/KConsole.hpp **** 
  21:src/../h/KConsole.hpp ****     //uzima karakter iz ulaznog bafera konzole
  22:src/../h/KConsole.hpp ****     static char kgetc();
  23:src/../h/KConsole.hpp **** 
  24:src/../h/KConsole.hpp ****     //vraca karakter iz izlaznog bafera; ako je bafer prazan, blokira se dok se ne napuni
  25:src/../h/KConsole.hpp ****     static char getFromOutput();
  26:src/../h/KConsole.hpp **** 
  27:src/../h/KConsole.hpp ****     //stavlja karakter u ulazni bafer; ako je bafer pun, ignorise se
  28:src/../h/KConsole.hpp ****     static void placeInInput(char c);
  29:src/../h/KConsole.hpp **** 
  30:src/../h/KConsole.hpp ****     //ispis svih preostalih karaktera u izlaznom baferu
  31:src/../h/KConsole.hpp ****     static void flush() {
  32:src/../h/KConsole.hpp ****         __asm__ volatile("li a0, 0x43");
  33:src/../h/KConsole.hpp ****         __asm__ volatile("ecall");
  34:src/../h/KConsole.hpp ****     }
  35:src/../h/KConsole.hpp **** 
  36:src/../h/KConsole.hpp ****     static uint8 getSRvalue() { return *sr; }
  37:src/../h/KConsole.hpp **** 
  38:src/../h/KConsole.hpp ****     static uint8 getDRvalue() { return *dr; }
  39:src/../h/KConsole.hpp **** 
GAS LISTING /tmp/ccHCLNhp.s 			page 3


  40:src/../h/KConsole.hpp ****     static void setDRvalue(char c) { *dr = c; }
  56              		.loc 2 40 38
  57 0030 97070000 		la	a5,_ZN8KConsole2drE
  57      83B70700 
  58 0038 83B70700 		ld	a5,0(a5)
  59              		.loc 2 40 42 is_stmt 0
  60 003c 2380A700 		sb	a0,0(a5)
  61              	.LVL2:
  62              	.LBE21:
  63              	.LBE20:
  23:src/main.cpp  ****         sem_signal(KConsole::getOutputBufferHasSpace());
  64              		.loc 1 23 9 is_stmt 1
  65              	.LBB22:
  66              	.LBB23:
  41:src/../h/KConsole.hpp **** 
  42:src/../h/KConsole.hpp ****     static sem_t getOutputBufferHasSpace() { return outputBufferHasSpace; }
  67              		.loc 2 42 46
  68              	.LBE23:
  69              	.LBE22:
  70              		.loc 1 23 19 is_stmt 0
  71 0040 97070000 		la	a5,_ZN8KConsole20outputBufferHasSpaceE
  71      83B70700 
  72 0048 03B50700 		ld	a0,0(a5)
  73              	.LVL3:
  74 004c 97000000 		call	_Z10sem_signalP4KSem@plt
  74      E7800000 
  75              	.LVL4:
  76              	.LBE19:
  19:src/main.cpp  ****         char c = KConsole::getFromOutput();
  77              		.loc 1 19 5 is_stmt 1
  78              	.L6:
  19:src/main.cpp  ****         char c = KConsole::getFromOutput();
  79              		.loc 1 19 5
  80              	.LBB26:
  20:src/main.cpp  ****         while (!(KConsole::getSRvalue() & CONSOLE_TX_STATUS_BIT)) {}
  81              		.loc 1 20 9
  20:src/main.cpp  ****         while (!(KConsole::getSRvalue() & CONSOLE_TX_STATUS_BIT)) {}
  82              		.loc 1 20 41 is_stmt 0
  83 0054 97000000 		call	_ZN8KConsole13getFromOutputEv@plt
  83      E7800000 
  84              	.LVL5:
  85              	.L5:
  21:src/main.cpp  ****         KConsole::setDRvalue(c);
  86              		.loc 1 21 9 is_stmt 1
  21:src/main.cpp  ****         KConsole::setDRvalue(c);
  87              		.loc 1 21 16
  88              	.LBB24:
  89              	.LBB25:
  36:src/../h/KConsole.hpp **** 
  90              		.loc 2 36 33
  36:src/../h/KConsole.hpp **** 
  91              		.loc 2 36 40 is_stmt 0
  92 005c 97070000 		la	a5,_ZN8KConsole2srE
  92      83B70700 
  93 0064 83B70700 		ld	a5,0(a5)
  36:src/../h/KConsole.hpp **** 
  94              		.loc 2 36 41
GAS LISTING /tmp/ccHCLNhp.s 			page 4


  95 0068 83C70700 		lbu	a5,0(a5)
  96              	.LBE25:
  97              	.LBE24:
  21:src/main.cpp  ****         KConsole::setDRvalue(c);
  98              		.loc 1 21 16
  99 006c 93F70702 		andi	a5,a5,32
 100 0070 E38607FE 		beqz	a5,.L5
 101 0074 6FF0DFFB 		j	.L8
 102              	.LBE26:
 103              		.cfi_endproc
 104              	.LFE45:
 106              		.align	2
 107              		.globl	main
 109              	main:
 110              	.LFB46:
  24:src/main.cpp  ****     }
  25:src/main.cpp  **** }
  26:src/main.cpp  **** 
  27:src/main.cpp  **** int main() {
 111              		.loc 1 27 12 is_stmt 1
 112              		.cfi_startproc
 113 0078 130101FC 		addi	sp,sp,-64
 114              		.cfi_def_cfa_offset 64
 115 007c 233C1102 		sd	ra,56(sp)
 116 0080 23388102 		sd	s0,48(sp)
 117 0084 23349102 		sd	s1,40(sp)
 118              		.cfi_offset 1, -8
 119              		.cfi_offset 8, -16
 120              		.cfi_offset 9, -24
 121 0088 13040104 		addi	s0,sp,64
 122              		.cfi_def_cfa 8, 0
  28:src/main.cpp  ****     //postavljanje adrese prekidne rutine u stvec
  29:src/main.cpp  ****     __asm__ volatile("csrw stvec, %[handler]": :[handler] "r"(&interruptHandler));
 123              		.loc 1 29 5
 124              		.loc 1 29 82 is_stmt 0
 125 008c 97070000 		la	a5,interruptHandler
 125      83B70700 
 126              	#APP
 127              	# 29 "src/main.cpp" 1
  30              	
  31:src/main.cpp  ****     //inicijalizacija alokatora memorije
  32:src/main.cpp  ****     KMemory::initializeMemory();
 128              		csrw stvec, a5
 129              	# 0 "" 2
 130              		.loc 1 32 5 is_stmt 1
 131              		.loc 1 32 30 is_stmt 0
 132              	#NO_APP
 133 0098 97000000 		call	_ZN7KMemory16initializeMemoryEv@plt
 133      E7800000 
 134              	.LVL6:
  33:src/main.cpp  **** 
  34:src/main.cpp  ****     //inicijalizacija komunikacije sa konzolom
  35:src/main.cpp  ****     KConsole::initKConsole();
 135              		.loc 1 35 5 is_stmt 1
 136              		.loc 1 35 27 is_stmt 0
 137 00a0 97000000 		call	_ZN8KConsole12initKConsoleEv@plt
 137      E7800000 
GAS LISTING /tmp/ccHCLNhp.s 			page 5


 138              	.LVL7:
  36:src/main.cpp  **** 
  37:src/main.cpp  ****     //pravljenje niti
  38:src/main.cpp  ****     thread_t mainHandle;
 139              		.loc 1 38 5 is_stmt 1
  39:src/main.cpp  ****     thread_t userHandle;
 140              		.loc 1 39 5
  40:src/main.cpp  ****     thread_t idleHandle;
 141              		.loc 1 40 5
  41:src/main.cpp  ****     thread_t consoleOutputHandle;
 142              		.loc 1 41 5
  42:src/main.cpp  ****     thread_create(&mainHandle, (TCB::Body)main, nullptr);
 143              		.loc 1 42 5
 144              		.loc 1 42 18 is_stmt 0
 145 00a8 13060000 		li	a2,0
 146 00ac 97050000 		lla	a1,main
 146      93850500 
 147 00b4 130584FD 		addi	a0,s0,-40
 148 00b8 97000000 		call	_Z13thread_createPP3TCBPFvPvES2_@plt
 148      E7800000 
 149              	.LVL8:
  43:src/main.cpp  ****     TCB::setRunning(mainHandle);
 150              		.loc 1 43 5 is_stmt 1
 151              		.loc 1 43 20 is_stmt 0
 152 00c0 833784FD 		ld	a5,-40(s0)
 153              	.LVL9:
 154              	.LBB27:
 155              	.LBB28:
 156              		.file 3 "src/../h/TCB.hpp"
   1:src/../h/TCB.hpp **** //
   2:src/../h/TCB.hpp **** // Created by os on 5/23/23.
   3:src/../h/TCB.hpp **** //
   4:src/../h/TCB.hpp **** 
   5:src/../h/TCB.hpp **** #ifndef PROJEKAT2023_TCB_HPP
   6:src/../h/TCB.hpp **** #define PROJEKAT2023_TCB_HPP
   7:src/../h/TCB.hpp **** 
   8:src/../h/TCB.hpp **** #include "../lib/hw.h"
   9:src/../h/TCB.hpp **** #include "../h/ThreadQueue.hpp"
  10:src/../h/TCB.hpp **** 
  11:src/../h/TCB.hpp **** int main();
  12:src/../h/TCB.hpp **** 
  13:src/../h/TCB.hpp **** class TCB {
  14:src/../h/TCB.hpp **** public:
  15:src/../h/TCB.hpp ****     friend class Scheduler;
  16:src/../h/TCB.hpp **** 
  17:src/../h/TCB.hpp ****     using Body = void (*)(void*);
  18:src/../h/TCB.hpp **** 
  19:src/../h/TCB.hpp ****     enum ThreadStatus {
  20:src/../h/TCB.hpp ****         CREATED, ACTIVE, BLOCKED, JOINING, SLEEPING, FINISHED
  21:src/../h/TCB.hpp ****     };
  22:src/../h/TCB.hpp **** 
  23:src/../h/TCB.hpp ****     static TCB* createThread(Body function, void* args, uint64* stack);
  24:src/../h/TCB.hpp **** 
  25:src/../h/TCB.hpp ****     void setStatus(ThreadStatus stat) { this->status = stat; }
  26:src/../h/TCB.hpp **** 
  27:src/../h/TCB.hpp ****     ThreadStatus getStatus() { return this->status; }
  28:src/../h/TCB.hpp **** 
GAS LISTING /tmp/ccHCLNhp.s 			page 6


  29:src/../h/TCB.hpp ****     uint64 getTimeSlice() { return timeSlice; }
  30:src/../h/TCB.hpp **** 
  31:src/../h/TCB.hpp ****     Body getBody() { return threadFunction; }
  32:src/../h/TCB.hpp **** 
  33:src/../h/TCB.hpp ****     ThreadQueue* getListOfJoiningThreads() { return &waitingToJoin; }
  34:src/../h/TCB.hpp **** 
  35:src/../h/TCB.hpp ****     void setMySemaphore(KSem* sem) { mySemaphore = sem; }
  36:src/../h/TCB.hpp **** 
  37:src/../h/TCB.hpp ****     void setJoiningWithTCB(TCB* tcb) { joiningWithTCB = tcb; }
  38:src/../h/TCB.hpp **** 
  39:src/../h/TCB.hpp ****     static TCB* getRunning() { return running; }
  40:src/../h/TCB.hpp **** 
  41:src/../h/TCB.hpp ****     static void setRunning(TCB* newRunning) { running = newRunning; }
 157              		.loc 3 41 47 is_stmt 1
 158              		.loc 3 41 55 is_stmt 0
 159 00c4 17070000 		la	a4,_ZN3TCB7runningE
 159      03370700 
 160 00cc 2330F700 		sd	a5,0(a4)
 161              	.LVL10:
 162              	.LBE28:
 163              	.LBE27:
  44:src/main.cpp  ****     mainHandle->setStatus(TCB::ACTIVE);
 164              		.loc 1 44 5 is_stmt 1
 165              	.LBB29:
 166              	.LBB30:
  25:src/../h/TCB.hpp **** 
 167              		.loc 3 25 41
  25:src/../h/TCB.hpp **** 
 168              		.loc 3 25 54 is_stmt 0
 169 00d0 13071000 		li	a4,1
 170 00d4 23ACE704 		sw	a4,88(a5)
 171              	.LVL11:
 172              	.LBE30:
 173              	.LBE29:
  45:src/main.cpp  ****     thread_create(&userHandle, (TCB::Body)userMain, nullptr);
 174              		.loc 1 45 5 is_stmt 1
 175              		.loc 1 45 18 is_stmt 0
 176 00d8 13060000 		li	a2,0
 177 00dc 97050000 		la	a1,_Z8userMainv
 177      83B50500 
 178 00e4 130504FD 		addi	a0,s0,-48
 179 00e8 97000000 		call	_Z13thread_createPP3TCBPFvPvES2_@plt
 179      E7800000 
 180              	.LVL12:
  46:src/main.cpp  ****     thread_create(&consoleOutputHandle, kernelConsumerFunction, nullptr);
 181              		.loc 1 46 5 is_stmt 1
 182              		.loc 1 46 18 is_stmt 0
 183 00f0 13060000 		li	a2,0
 184 00f4 97050000 		lla	a1,_Z22kernelConsumerFunctionPv
 184      93850500 
 185 00fc 130504FC 		addi	a0,s0,-64
 186 0100 97000000 		call	_Z13thread_createPP3TCBPFvPvES2_@plt
 186      E7800000 
 187              	.LVL13:
  47:src/main.cpp  ****     thread_create(&idleHandle, idle, nullptr);
 188              		.loc 1 47 5 is_stmt 1
 189              		.loc 1 47 18 is_stmt 0
GAS LISTING /tmp/ccHCLNhp.s 			page 7


 190 0108 13060000 		li	a2,0
 191 010c 97050000 		lla	a1,_Z4idlePv
 191      93850500 
 192 0114 130584FC 		addi	a0,s0,-56
 193 0118 97000000 		call	_Z13thread_createPP3TCBPFvPvES2_@plt
 193      E7800000 
 194              	.LVL14:
  48:src/main.cpp  **** 
  49:src/main.cpp  ****     //omogucavanje prekida
  50:src/main.cpp  ****     Riscv::ms_sstatus(Riscv::SSTATUS_SIE);
 195              		.loc 1 50 5 is_stmt 1
 196              	.LBB31:
 197              	.LBB32:
 198              		.file 4 "src/../h/Riscv.hpp"
   1:src/../h/Riscv.hpp **** //
   2:src/../h/Riscv.hpp **** // Created by os on 5/17/23.
   3:src/../h/Riscv.hpp **** //
   4:src/../h/Riscv.hpp **** 
   5:src/../h/Riscv.hpp **** #ifndef PROJEKAT2023_RISCV_HPP
   6:src/../h/Riscv.hpp **** #define PROJEKAT2023_RISCV_HPP
   7:src/../h/Riscv.hpp **** 
   8:src/../h/Riscv.hpp **** #include "../lib/hw.h"
   9:src/../h/Riscv.hpp **** 
  10:src/../h/Riscv.hpp **** class Riscv {
  11:src/../h/Riscv.hpp **** public:
  12:src/../h/Riscv.hpp **** 
  13:src/../h/Riscv.hpp **** 	static void returnFromInterrupt();
  14:src/../h/Riscv.hpp **** 
  15:src/../h/Riscv.hpp **** 	enum BitMaskSip {
  16:src/../h/Riscv.hpp **** 		//postoji zahtev za softverski prekid
  17:src/../h/Riscv.hpp **** 		SIP_SSIP = (1 << 1),
  18:src/../h/Riscv.hpp **** 		//postoji prekid od tajmera
  19:src/../h/Riscv.hpp **** 		SIP_STIP = (1 << 5),
  20:src/../h/Riscv.hpp **** 		//postoji zahtev za spoljasnji hardverski prekid
  21:src/../h/Riscv.hpp **** 		SIP_SEIP = (1 << 9)
  22:src/../h/Riscv.hpp **** 	};
  23:src/../h/Riscv.hpp **** 
  24:src/../h/Riscv.hpp **** 	//mask set sip
  25:src/../h/Riscv.hpp **** 	static void ms_sip(uint64 mask);
  26:src/../h/Riscv.hpp **** 
  27:src/../h/Riscv.hpp **** 	//mask clear sip
  28:src/../h/Riscv.hpp **** 	static void mc_sip(uint64 mask);
  29:src/../h/Riscv.hpp **** 
  30:src/../h/Riscv.hpp **** 	//kada se pozove sret, SIE dobija vrednost SPIE, SPIE se postavlja na 1,
  31:src/../h/Riscv.hpp **** 	//rezim se postavlja na osnovu SPP bita, SPP se postavlja na 0
  32:src/../h/Riscv.hpp **** 	enum BitMaskSstatus {
  33:src/../h/Riscv.hpp **** 		//1 - dozvoljeni prekidi; 0- nedozvoljeni prekidi; igonrise se u korisnickom rezimu
  34:src/../h/Riscv.hpp **** 		SSTATUS_SIE = (1 << 1),
  35:src/../h/Riscv.hpp **** 		//prethodna vrednost bita SIE
  36:src/../h/Riscv.hpp **** 		SSTATUS_SPIE = (1 << 5),
  37:src/../h/Riscv.hpp **** 		//iz kog rezima se desio skok; 0 - iz korisnickog; 1 - iz sistemskog
  38:src/../h/Riscv.hpp **** 		SSTATUS_SPP = (1 << 8)
  39:src/../h/Riscv.hpp **** 	};
  40:src/../h/Riscv.hpp **** 
  41:src/../h/Riscv.hpp **** 	//mask set sstatus
  42:src/../h/Riscv.hpp **** 	static void ms_sstatus(uint64 mask);
  43:src/../h/Riscv.hpp **** 
GAS LISTING /tmp/ccHCLNhp.s 			page 8


  44:src/../h/Riscv.hpp **** 	//mask clear sstatus
  45:src/../h/Riscv.hpp **** 	static void mc_sstatus(uint64 mask);
  46:src/../h/Riscv.hpp **** 
  47:src/../h/Riscv.hpp **** };
  48:src/../h/Riscv.hpp **** 
  49:src/../h/Riscv.hpp **** inline void Riscv::ms_sip(uint64 mask) {
  50:src/../h/Riscv.hpp **** 	__asm__ volatile("csrs sip, %[mask]": :[mask] "r"(mask));
  51:src/../h/Riscv.hpp **** }
  52:src/../h/Riscv.hpp **** 
  53:src/../h/Riscv.hpp **** inline void Riscv::mc_sip(uint64 mask) {
  54:src/../h/Riscv.hpp **** 	__asm__ volatile("csrc sip, %[mask]": :[mask] "r"(mask));
  55:src/../h/Riscv.hpp **** }
  56:src/../h/Riscv.hpp **** 
  57:src/../h/Riscv.hpp **** inline void Riscv::ms_sstatus(uint64 mask) {
  58:src/../h/Riscv.hpp **** 	__asm__ volatile("csrs sstatus, %[mask]": :[mask] "r"(mask));
 199              		.loc 4 58 2
 200              		.loc 4 58 62 is_stmt 0
 201 0120 93042000 		li	s1,2
 202              	#APP
 203              	# 58 "src/../h/Riscv.hpp" 1
  59              	}
 204              		csrs sstatus, s1
 205              	# 0 "" 2
 206              	.LVL15:
 207              	#NO_APP
 208              	.LBE32:
 209              	.LBE31:
  51:src/main.cpp  **** 
  52:src/main.cpp  ****     //cekanje da se userMain zavrsi
  53:src/main.cpp  ****     thread_join(userHandle);
 210              		.loc 1 53 5 is_stmt 1
 211              		.loc 1 53 16 is_stmt 0
 212 0128 033504FD 		ld	a0,-48(s0)
 213 012c 97000000 		call	_Z11thread_joinP3TCB@plt
 213      E7800000 
 214              	.LVL16:
  54:src/main.cpp  **** 
  55:src/main.cpp  ****     //flush output bafera za konzolu
  56:src/main.cpp  ****     KConsole::flush();
 215              		.loc 1 56 5 is_stmt 1
 216              	.LBB33:
 217              	.LBB34:
  32:src/../h/KConsole.hpp ****         __asm__ volatile("ecall");
 218              		.loc 2 32 9
  32:src/../h/KConsole.hpp ****         __asm__ volatile("ecall");
 219              		.loc 2 32 40 is_stmt 0
 220              	#APP
 221              	# 32 "src/../h/KConsole.hpp" 1
  33:src/../h/KConsole.hpp ****     }
 222              		li a0, 0x43
 223              	# 0 "" 2
 224              		.loc 2 33 9 is_stmt 1
  33:src/../h/KConsole.hpp ****     }
 225              		.loc 2 33 34 is_stmt 0
 226              	# 33 "src/../h/KConsole.hpp" 1
 227              		ecall
 228              	# 0 "" 2
GAS LISTING /tmp/ccHCLNhp.s 			page 9


 229              	#NO_APP
 230              	.LBE34:
 231              	.LBE33:
  57:src/main.cpp  **** 
  58:src/main.cpp  ****     //maskiranje svih prekida
  59:src/main.cpp  ****     Riscv::mc_sstatus(Riscv::SSTATUS_SIE);
 232              		.loc 1 59 5 is_stmt 1
 233              	.LVL17:
 234              	.LBB35:
 235              	.LBB36:
  60:src/../h/Riscv.hpp **** 
  61:src/../h/Riscv.hpp **** inline void Riscv::mc_sstatus(uint64 mask) {
  62:src/../h/Riscv.hpp **** 	__asm__ volatile("csrc sstatus, %[mask]": :[mask] "r"(mask));
 236              		.loc 4 62 2
 237              		.loc 4 62 62 is_stmt 0
 238              	#APP
 239              	# 62 "src/../h/Riscv.hpp" 1
  63              	}
 240              		csrc sstatus, s1
 241              	# 0 "" 2
 242              	.LVL18:
 243              	#NO_APP
 244              	.LBE36:
 245              	.LBE35:
  60:src/main.cpp  **** 
  61:src/main.cpp  ****     return 0;
 246              		.loc 1 61 5 is_stmt 1
  62:src/main.cpp  **** }...
 247              		.loc 1 62 1 is_stmt 0
 248 0140 13050000 		li	a0,0
 249 0144 83308103 		ld	ra,56(sp)
 250              		.cfi_restore 1
 251 0148 03340103 		ld	s0,48(sp)
 252              		.cfi_restore 8
 253              		.cfi_def_cfa 2, 64
 254 014c 83348102 		ld	s1,40(sp)
 255              		.cfi_restore 9
 256 0150 13010104 		addi	sp,sp,64
 257              		.cfi_def_cfa_offset 0
 258 0154 67800000 		jr	ra
 259              		.cfi_endproc
 260              	.LFE46:
 262              	.Letext0:
 263              		.file 5 "src/../lib/hw.h"
 264              		.file 6 "src/../h/KMemory.hpp"
 265              		.file 7 "src/../h/../h/../h/syscall_c.hpp"
 266              		.file 8 "src/../h/../h/ThreadQueue.hpp"
GAS LISTING /tmp/ccHCLNhp.s 			page 10


DEFINED SYMBOLS
                            *ABS*:0000000000000000 main.cpp
     /tmp/ccHCLNhp.s:9      .text:0000000000000000 _Z4idlePv
     /tmp/ccHCLNhp.s:13     .text:0000000000000000 .L0 
     /tmp/ccHCLNhp.s:14     .text:0000000000000000 .L0 
     /tmp/ccHCLNhp.s:15     .text:0000000000000004 .L0 
     /tmp/ccHCLNhp.s:18     .text:000000000000000c .L0 
     /tmp/ccHCLNhp.s:19     .text:000000000000000c .L0 
     /tmp/ccHCLNhp.s:21     .text:0000000000000010 .L0 
     /tmp/ccHCLNhp.s:24     .text:0000000000000010 .L0 
     /tmp/ccHCLNhp.s:25     .text:0000000000000010 .L0 
     /tmp/ccHCLNhp.s:26     .text:0000000000000010 .L0 
     /tmp/ccHCLNhp.s:29     .text:0000000000000018 .L0 
     /tmp/ccHCLNhp.s:30     .text:000000000000001c .L0 
     /tmp/ccHCLNhp.s:36     .text:000000000000001c _Z22kernelConsumerFunctionPv
     /tmp/ccHCLNhp.s:39     .text:000000000000001c .L0 
     /tmp/ccHCLNhp.s:40     .text:000000000000001c .L0 
     /tmp/ccHCLNhp.s:41     .text:0000000000000020 .L0 
     /tmp/ccHCLNhp.s:44     .text:0000000000000028 .L0 
     /tmp/ccHCLNhp.s:45     .text:0000000000000028 .L0 
     /tmp/ccHCLNhp.s:47     .text:000000000000002c .L0 
     /tmp/ccHCLNhp.s:56     .text:0000000000000030 .L0 
     /tmp/ccHCLNhp.s:57     .text:0000000000000030 .L0 
     /tmp/ccHCLNhp.s:60     .text:000000000000003c .L0 
     /tmp/ccHCLNhp.s:67     .text:0000000000000040 .L0 
     /tmp/ccHCLNhp.s:70     .text:0000000000000040 .L0 
     /tmp/ccHCLNhp.s:71     .text:0000000000000040 .L0 
     /tmp/ccHCLNhp.s:79     .text:0000000000000054 .L0 
     /tmp/ccHCLNhp.s:81     .text:0000000000000054 .L0 
     /tmp/ccHCLNhp.s:82     .text:0000000000000054 .L0 
     /tmp/ccHCLNhp.s:83     .text:0000000000000054 .L0 
     /tmp/ccHCLNhp.s:87     .text:000000000000005c .L0 
     /tmp/ccHCLNhp.s:90     .text:000000000000005c .L0 
     /tmp/ccHCLNhp.s:91     .text:000000000000005c .L0 
     /tmp/ccHCLNhp.s:92     .text:000000000000005c .L0 
     /tmp/ccHCLNhp.s:95     .text:0000000000000068 .L0 
     /tmp/ccHCLNhp.s:99     .text:000000000000006c .L0 
     /tmp/ccHCLNhp.s:103    .text:0000000000000078 .L0 
     /tmp/ccHCLNhp.s:109    .text:0000000000000078 main
     /tmp/ccHCLNhp.s:112    .text:0000000000000078 .L0 
     /tmp/ccHCLNhp.s:113    .text:0000000000000078 .L0 
     /tmp/ccHCLNhp.s:114    .text:000000000000007c .L0 
     /tmp/ccHCLNhp.s:118    .text:0000000000000088 .L0 
     /tmp/ccHCLNhp.s:119    .text:0000000000000088 .L0 
     /tmp/ccHCLNhp.s:120    .text:0000000000000088 .L0 
     /tmp/ccHCLNhp.s:122    .text:000000000000008c .L0 
     /tmp/ccHCLNhp.s:124    .text:000000000000008c .L0 
     /tmp/ccHCLNhp.s:125    .text:000000000000008c .L0 
     /tmp/ccHCLNhp.s:131    .text:0000000000000098 .L0 
     /tmp/ccHCLNhp.s:133    .text:0000000000000098 .L0 
     /tmp/ccHCLNhp.s:136    .text:00000000000000a0 .L0 
     /tmp/ccHCLNhp.s:137    .text:00000000000000a0 .L0 
     /tmp/ccHCLNhp.s:140    .text:00000000000000a8 .L0 
     /tmp/ccHCLNhp.s:141    .text:00000000000000a8 .L0 
     /tmp/ccHCLNhp.s:142    .text:00000000000000a8 .L0 
     /tmp/ccHCLNhp.s:143    .text:00000000000000a8 .L0 
     /tmp/ccHCLNhp.s:144    .text:00000000000000a8 .L0 
GAS LISTING /tmp/ccHCLNhp.s 			page 11


     /tmp/ccHCLNhp.s:145    .text:00000000000000a8 .L0 
     /tmp/ccHCLNhp.s:151    .text:00000000000000c0 .L0 
     /tmp/ccHCLNhp.s:152    .text:00000000000000c0 .L0 
     /tmp/ccHCLNhp.s:158    .text:00000000000000c4 .L0 
     /tmp/ccHCLNhp.s:159    .text:00000000000000c4 .L0 
     /tmp/ccHCLNhp.s:167    .text:00000000000000d0 .L0 
     /tmp/ccHCLNhp.s:168    .text:00000000000000d0 .L0 
     /tmp/ccHCLNhp.s:169    .text:00000000000000d0 .L0 
     /tmp/ccHCLNhp.s:175    .text:00000000000000d8 .L0 
     /tmp/ccHCLNhp.s:176    .text:00000000000000d8 .L0 
     /tmp/ccHCLNhp.s:182    .text:00000000000000f0 .L0 
     /tmp/ccHCLNhp.s:183    .text:00000000000000f0 .L0 
     /tmp/ccHCLNhp.s:189    .text:0000000000000108 .L0 
     /tmp/ccHCLNhp.s:190    .text:0000000000000108 .L0 
     /tmp/ccHCLNhp.s:199    .text:0000000000000120 .L0 
     /tmp/ccHCLNhp.s:200    .text:0000000000000120 .L0 
     /tmp/ccHCLNhp.s:201    .text:0000000000000120 .L0 
     /tmp/ccHCLNhp.s:211    .text:0000000000000128 .L0 
     /tmp/ccHCLNhp.s:212    .text:0000000000000128 .L0 
     /tmp/ccHCLNhp.s:218    .text:0000000000000134 .L0 
     /tmp/ccHCLNhp.s:219    .text:0000000000000134 .L0 
src/../h/KConsole.hpp:32     .text:0000000000000134 .L0 
     /tmp/ccHCLNhp.s:225    .text:0000000000000138 .L0 
src/../h/KConsole.hpp:33     .text:0000000000000138 .L0 
     /tmp/ccHCLNhp.s:236    .text:000000000000013c .L0 
     /tmp/ccHCLNhp.s:237    .text:000000000000013c .L0 
  src/../h/Riscv.hpp:62     .text:000000000000013c .L0 
     /tmp/ccHCLNhp.s:247    .text:0000000000000140 .L0 
     /tmp/ccHCLNhp.s:248    .text:0000000000000140 .L0 
     /tmp/ccHCLNhp.s:250    .text:0000000000000148 .L0 
     /tmp/ccHCLNhp.s:252    .text:000000000000014c .L0 
     /tmp/ccHCLNhp.s:253    .text:000000000000014c .L0 
     /tmp/ccHCLNhp.s:255    .text:0000000000000150 .L0 
     /tmp/ccHCLNhp.s:257    .text:0000000000000154 .L0 
     /tmp/ccHCLNhp.s:259    .text:0000000000000158 .L0 
     /tmp/ccHCLNhp.s:267    .text:0000000000000158 .L0 
     /tmp/ccHCLNhp.s:57     .text:0000000000000030 .L0 
     /tmp/ccHCLNhp.s:71     .text:0000000000000040 .L0 
     /tmp/ccHCLNhp.s:92     .text:000000000000005c .L0 
     /tmp/ccHCLNhp.s:125    .text:000000000000008c .L0 
     /tmp/ccHCLNhp.s:146    .text:00000000000000ac .L0 
     /tmp/ccHCLNhp.s:159    .text:00000000000000c4 .L0 
     /tmp/ccHCLNhp.s:177    .text:00000000000000dc .L0 
     /tmp/ccHCLNhp.s:184    .text:00000000000000f4 .L0 
     /tmp/ccHCLNhp.s:191    .text:000000000000010c .L0 
     /tmp/ccHCLNhp.s:22     .text:0000000000000010 .L2
     /tmp/ccHCLNhp.s:78     .text:0000000000000054 .L6
     /tmp/ccHCLNhp.s:85     .text:000000000000005c .L5
     /tmp/ccHCLNhp.s:50     .text:0000000000000030 .L8
     /tmp/ccHCLNhp.s:1844   .debug_abbrev:0000000000000000 .Ldebug_abbrev0
     /tmp/ccHCLNhp.s:3290   .debug_str:0000000000000a3d .LASF192
     /tmp/ccHCLNhp.s:3064   .debug_str:000000000000032a .LASF193
     /tmp/ccHCLNhp.s:3250   .debug_str:000000000000091f .LASF194
     /tmp/ccHCLNhp.s:5      .text:0000000000000000 .Ltext0
     /tmp/ccHCLNhp.s:262    .text:0000000000000158 .Letext0
     /tmp/ccHCLNhp.s:2958   .debug_line:0000000000000000 .Ldebug_line0
     /tmp/ccHCLNhp.s:3102   .debug_str:000000000000043e .LASF0
GAS LISTING /tmp/ccHCLNhp.s 			page 12


     /tmp/ccHCLNhp.s:3124   .debug_str:00000000000004d4 .LASF1
     /tmp/ccHCLNhp.s:3230   .debug_str:000000000000087f .LASF2
     /tmp/ccHCLNhp.s:3050   .debug_str:00000000000002b0 .LASF3
     /tmp/ccHCLNhp.s:3242   .debug_str:00000000000008e3 .LASF4
     /tmp/ccHCLNhp.s:3110   .debug_str:0000000000000478 .LASF5
     /tmp/ccHCLNhp.s:2978   .debug_str:000000000000008c .LASF6
     /tmp/ccHCLNhp.s:3196   .debug_str:0000000000000752 .LASF7
     /tmp/ccHCLNhp.s:3190   .debug_str:000000000000072a .LASF8
     /tmp/ccHCLNhp.s:3114   .debug_str:0000000000000497 .LASF9
     /tmp/ccHCLNhp.s:3076   .debug_str:0000000000000370 .LASF10
     /tmp/ccHCLNhp.s:3090   .debug_str:00000000000003dc .LASF11
     /tmp/ccHCLNhp.s:3008   .debug_str:0000000000000161 .LASF12
     /tmp/ccHCLNhp.s:3062   .debug_str:000000000000031b .LASF13
     /tmp/ccHCLNhp.s:3022   .debug_str:00000000000001d6 .LASF14
     /tmp/ccHCLNhp.s:3006   .debug_str:0000000000000151 .LASF15
     /tmp/ccHCLNhp.s:3270   .debug_str:00000000000009c2 .LASF16
     /tmp/ccHCLNhp.s:3046   .debug_str:000000000000027c .LASF17
     /tmp/ccHCLNhp.s:3262   .debug_str:0000000000000993 .LASF18
     /tmp/ccHCLNhp.s:3332   .debug_str:0000000000000c29 .LASF28
     /tmp/ccHCLNhp.s:3318   .debug_str:0000000000000bd7 .LASF88
     /tmp/ccHCLNhp.s:3056   .debug_str:00000000000002da .LASF19
     /tmp/ccHCLNhp.s:3288   .debug_str:0000000000000a30 .LASF20
     /tmp/ccHCLNhp.s:3030   .debug_str:0000000000000223 .LASF21
     /tmp/ccHCLNhp.s:3150   .debug_str:000000000000059c .LASF30
     /tmp/ccHCLNhp.s:3310   .debug_str:0000000000000b99 .LASF32
     /tmp/ccHCLNhp.s:3266   .debug_str:00000000000009ae .LASF22
     /tmp/ccHCLNhp.s:3244   .debug_str:00000000000008ea .LASF24
     /tmp/ccHCLNhp.s:3246   .debug_str:00000000000008fd .LASF23
     /tmp/ccHCLNhp.s:3016   .debug_str:00000000000001a1 .LASF25
     /tmp/ccHCLNhp.s:2980   .debug_str:0000000000000093 .LASF26
     /tmp/ccHCLNhp.s:3234   .debug_str:0000000000000897 .LASF27
     /tmp/ccHCLNhp.s:3228   .debug_str:0000000000000874 .LASF43
     /tmp/ccHCLNhp.s:3354   .debug_str:0000000000000cd5 .LASF45
     /tmp/ccHCLNhp.s:3054   .debug_str:00000000000002d2 .LASF29
     /tmp/ccHCLNhp.s:3116   .debug_str:00000000000004aa .LASF31
     /tmp/ccHCLNhp.s:3204   .debug_str:0000000000000786 .LASF33
     /tmp/ccHCLNhp.s:3340   .debug_str:0000000000000c7e .LASF34
     /tmp/ccHCLNhp.s:3080   .debug_str:0000000000000392 .LASF36
     /tmp/ccHCLNhp.s:3070   .debug_str:0000000000000341 .LASF35
     /tmp/ccHCLNhp.s:3106   .debug_str:0000000000000455 .LASF37
     /tmp/ccHCLNhp.s:3100   .debug_str:0000000000000432 .LASF38
     /tmp/ccHCLNhp.s:3148   .debug_str:0000000000000590 .LASF39
     /tmp/ccHCLNhp.s:3236   .debug_str:00000000000008af .LASF40
     /tmp/ccHCLNhp.s:3208   .debug_str:00000000000007ae .LASF41
     /tmp/ccHCLNhp.s:3194   .debug_str:0000000000000743 .LASF42
     /tmp/ccHCLNhp.s:3184   .debug_str:00000000000006f8 .LASF44
     /tmp/ccHCLNhp.s:2982   .debug_str:000000000000009e .LASF46
     /tmp/ccHCLNhp.s:3142   .debug_str:0000000000000562 .LASF47
     /tmp/ccHCLNhp.s:3346   .debug_str:0000000000000c95 .LASF48
     /tmp/ccHCLNhp.s:3264   .debug_str:00000000000009a9 .LASF195
     /tmp/ccHCLNhp.s:3138   .debug_str:0000000000000545 .LASF49
     /tmp/ccHCLNhp.s:3038   .debug_str:0000000000000253 .LASF50
     /tmp/ccHCLNhp.s:3302   .debug_str:0000000000000b3e .LASF51
     /tmp/ccHCLNhp.s:3252   .debug_str:000000000000093d .LASF52
     /tmp/ccHCLNhp.s:3172   .debug_str:000000000000067c .LASF53
     /tmp/ccHCLNhp.s:3192   .debug_str:000000000000073d .LASF54
     /tmp/ccHCLNhp.s:3164   .debug_str:0000000000000634 .LASF56
GAS LISTING /tmp/ccHCLNhp.s 			page 13


     /tmp/ccHCLNhp.s:3108   .debug_str:000000000000046a .LASF55
     /tmp/ccHCLNhp.s:3188   .debug_str:000000000000070c .LASF57
     /tmp/ccHCLNhp.s:3096   .debug_str:000000000000041a .LASF58
     /tmp/ccHCLNhp.s:3222   .debug_str:0000000000000828 .LASF59
     /tmp/ccHCLNhp.s:3312   .debug_str:0000000000000bba .LASF60
     /tmp/ccHCLNhp.s:3000   .debug_str:000000000000011c .LASF61
     /tmp/ccHCLNhp.s:2976   .debug_str:0000000000000081 .LASF62
     /tmp/ccHCLNhp.s:3166   .debug_str:0000000000000649 .LASF63
     /tmp/ccHCLNhp.s:2962   .debug_str:000000000000001b .LASF64
     /tmp/ccHCLNhp.s:3074   .debug_str:0000000000000355 .LASF65
     /tmp/ccHCLNhp.s:3276   .debug_str:00000000000009eb .LASF66
     /tmp/ccHCLNhp.s:2960   .debug_str:0000000000000000 .LASF67
     /tmp/ccHCLNhp.s:3136   .debug_str:000000000000052d .LASF68
     /tmp/ccHCLNhp.s:3060   .debug_str:00000000000002f3 .LASF69
     /tmp/ccHCLNhp.s:3238   .debug_str:00000000000008c7 .LASF70
     /tmp/ccHCLNhp.s:3012   .debug_str:0000000000000175 .LASF71
     /tmp/ccHCLNhp.s:3014   .debug_str:0000000000000193 .LASF72
     /tmp/ccHCLNhp.s:3350   .debug_str:0000000000000cb1 .LASF73
     /tmp/ccHCLNhp.s:3002   .debug_str:0000000000000131 .LASF74
     /tmp/ccHCLNhp.s:2990   .debug_str:00000000000000e1 .LASF75
     /tmp/ccHCLNhp.s:3088   .debug_str:00000000000003c7 .LASF76
     /tmp/ccHCLNhp.s:3280   .debug_str:00000000000009fe .LASF77
     /tmp/ccHCLNhp.s:3072   .debug_str:0000000000000347 .LASF78
     /tmp/ccHCLNhp.s:2966   .debug_str:000000000000002e .LASF196
     /tmp/ccHCLNhp.s:3314   .debug_str:0000000000000bc0 .LASF79
     /tmp/ccHCLNhp.s:3328   .debug_str:0000000000000c06 .LASF80
     /tmp/ccHCLNhp.s:3104   .debug_str:000000000000044b .LASF81
     /tmp/ccHCLNhp.s:3198   .debug_str:0000000000000759 .LASF82
     /tmp/ccHCLNhp.s:3126   .debug_str:00000000000004e7 .LASF83
     /tmp/ccHCLNhp.s:3316   .debug_str:0000000000000bcc .LASF84
     /tmp/ccHCLNhp.s:3254   .debug_str:0000000000000943 .LASF85
     /tmp/ccHCLNhp.s:3282   .debug_str:0000000000000a0b .LASF86
     /tmp/ccHCLNhp.s:3326   .debug_str:0000000000000bfd .LASF87
     /tmp/ccHCLNhp.s:3256   .debug_str:0000000000000953 .LASF89
     /tmp/ccHCLNhp.s:3200   .debug_str:0000000000000763 .LASF90
     /tmp/ccHCLNhp.s:3032   .debug_str:000000000000022f .LASF91
     /tmp/ccHCLNhp.s:2964   .debug_str:0000000000000026 .LASF92
     /tmp/ccHCLNhp.s:3082   .debug_str:00000000000003a8 .LASF93
     /tmp/ccHCLNhp.s:3120   .debug_str:00000000000004c0 .LASF94
     /tmp/ccHCLNhp.s:2998   .debug_str:0000000000000113 .LASF95
     /tmp/ccHCLNhp.s:3278   .debug_str:00000000000009f6 .LASF147
     /tmp/ccHCLNhp.s:3268   .debug_str:00000000000009b5 .LASF96
     /tmp/ccHCLNhp.s:3338   .debug_str:0000000000000c5c .LASF97
     /tmp/ccHCLNhp.s:3182   .debug_str:00000000000006f3 .LASF197
     /tmp/ccHCLNhp.s:3344   .debug_str:0000000000000c8b .LASF98
     /tmp/ccHCLNhp.s:3092   .debug_str:00000000000003ea .LASF99
     /tmp/ccHCLNhp.s:3214   .debug_str:00000000000007e1 .LASF100
     /tmp/ccHCLNhp.s:3140   .debug_str:000000000000054e .LASF102
     /tmp/ccHCLNhp.s:3130   .debug_str:00000000000004fa .LASF101
     /tmp/ccHCLNhp.s:3212   .debug_str:00000000000007c9 .LASF103
     /tmp/ccHCLNhp.s:3206   .debug_str:00000000000007a6 .LASF104
     /tmp/ccHCLNhp.s:3144   .debug_str:0000000000000567 .LASF105
     /tmp/ccHCLNhp.s:3336   .debug_str:0000000000000c44 .LASF106
     /tmp/ccHCLNhp.s:3154   .debug_str:00000000000005c5 .LASF107
     /tmp/ccHCLNhp.s:3020   .debug_str:00000000000001c7 .LASF108
     /tmp/ccHCLNhp.s:3308   .debug_str:0000000000000b7a .LASF109
     /tmp/ccHCLNhp.s:3078   .debug_str:0000000000000380 .LASF110
GAS LISTING /tmp/ccHCLNhp.s 			page 14


     /tmp/ccHCLNhp.s:3226   .debug_str:0000000000000855 .LASF111
     /tmp/ccHCLNhp.s:3042   .debug_str:0000000000000269 .LASF112
     /tmp/ccHCLNhp.s:3260   .debug_str:000000000000097d .LASF113
     /tmp/ccHCLNhp.s:2968   .debug_str:0000000000000037 .LASF114
     /tmp/ccHCLNhp.s:3284   .debug_str:0000000000000a10 .LASF115
     /tmp/ccHCLNhp.s:3306   .debug_str:0000000000000b66 .LASF116
     /tmp/ccHCLNhp.s:3178   .debug_str:00000000000006b3 .LASF117
     /tmp/ccHCLNhp.s:3304   .debug_str:0000000000000b5b .LASF118
     /tmp/ccHCLNhp.s:3036   .debug_str:000000000000023b .LASF119
     /tmp/ccHCLNhp.s:3358   .debug_str:0000000000000cfa .LASF120
     /tmp/ccHCLNhp.s:3248   .debug_str:0000000000000904 .LASF121
     /tmp/ccHCLNhp.s:3040   .debug_str:0000000000000260 .LASF122
     /tmp/ccHCLNhp.s:3018   .debug_str:00000000000001b4 .LASF123
     /tmp/ccHCLNhp.s:3134   .debug_str:0000000000000525 .LASF124
     /tmp/ccHCLNhp.s:2984   .debug_str:00000000000000b4 .LASF125
     /tmp/ccHCLNhp.s:3084   .debug_str:00000000000003b0 .LASF126
     /tmp/ccHCLNhp.s:3218   .debug_str:00000000000007fb .LASF127
     /tmp/ccHCLNhp.s:3356   .debug_str:0000000000000ced .LASF128
     /tmp/ccHCLNhp.s:3086   .debug_str:00000000000003bb .LASF129
     /tmp/ccHCLNhp.s:2972   .debug_str:0000000000000049 .LASF130
     /tmp/ccHCLNhp.s:3176   .debug_str:00000000000006a6 .LASF131
     /tmp/ccHCLNhp.s:3348   .debug_str:0000000000000c9b .LASF198
     /tmp/ccHCLNhp.s:3300   .debug_str:0000000000000b36 .LASF132
     /tmp/ccHCLNhp.s:3004   .debug_str:0000000000000142 .LASF133
     /tmp/ccHCLNhp.s:3352   .debug_str:0000000000000ccf .LASF134
     /tmp/ccHCLNhp.s:3274   .debug_str:00000000000009e6 .LASF135
     /tmp/ccHCLNhp.s:3294   .debug_str:0000000000000b0f .LASF136
     /tmp/ccHCLNhp.s:3224   .debug_str:0000000000000845 .LASF137
     /tmp/ccHCLNhp.s:3186   .debug_str:0000000000000700 .LASF138
     /tmp/ccHCLNhp.s:3058   .debug_str:00000000000002e6 .LASF139
     /tmp/ccHCLNhp.s:3240   .debug_str:00000000000008d5 .LASF140
     /tmp/ccHCLNhp.s:3324   .debug_str:0000000000000bf6 .LASF141
     /tmp/ccHCLNhp.s:3162   .debug_str:0000000000000628 .LASF142
     /tmp/ccHCLNhp.s:3362   .debug_str:0000000000000d1c .LASF143
     /tmp/ccHCLNhp.s:3286   .debug_str:0000000000000a28 .LASF144
     /tmp/ccHCLNhp.s:3210   .debug_str:00000000000007b8 .LASF145
     /tmp/ccHCLNhp.s:3026   .debug_str:00000000000001fb .LASF153
     /tmp/ccHCLNhp.s:2974   .debug_str:0000000000000059 .LASF154
     /tmp/ccHCLNhp.s:3168   .debug_str:0000000000000664 .LASF146
     /tmp/ccHCLNhp.s:3034   .debug_str:0000000000000236 .LASF148
     /tmp/ccHCLNhp.s:3118   .debug_str:00000000000004bb .LASF149
     /tmp/ccHCLNhp.s:3010   .debug_str:0000000000000170 .LASF150
     /tmp/ccHCLNhp.s:3048   .debug_str:0000000000000292 .LASF151
     /tmp/ccHCLNhp.s:3028   .debug_str:0000000000000209 .LASF152
     /tmp/ccHCLNhp.s:3202   .debug_str:000000000000076b .LASF155
     /tmp/ccHCLNhp.s:2988   .debug_str:00000000000000db .LASF156
     /tmp/ccHCLNhp.s:3158   .debug_str:0000000000000604 .LASF157
     /tmp/ccHCLNhp.s:2986   .debug_str:00000000000000c6 .LASF158
     /tmp/ccHCLNhp.s:3272   .debug_str:00000000000009ce .LASF159
     /tmp/ccHCLNhp.s:3232   .debug_str:000000000000088d .LASF199
     /tmp/ccHCLNhp.s:3298   .debug_str:0000000000000b1e .LASF200
     /tmp/ccHCLNhp.s:3112   .debug_str:000000000000048a .LASF160
     /tmp/ccHCLNhp.s:3334   .debug_str:0000000000000c2f .LASF161
     /tmp/ccHCLNhp.s:3044   .debug_str:0000000000000274 .LASF162
     /tmp/ccHCLNhp.s:3052   .debug_str:00000000000002b6 .LASF163
     /tmp/ccHCLNhp.s:3128   .debug_str:00000000000004f2 .LASF164
     /tmp/ccHCLNhp.s:3160   .debug_str:0000000000000609 .LASF165
GAS LISTING /tmp/ccHCLNhp.s 			page 15


     /tmp/ccHCLNhp.s:2996   .debug_str:000000000000010a .LASF166
     /tmp/ccHCLNhp.s:3156   .debug_str:00000000000005e8 .LASF167
     /tmp/ccHCLNhp.s:2970   .debug_str:0000000000000042 .LASF168
     /tmp/ccHCLNhp.s:3132   .debug_str:0000000000000507 .LASF169
     /tmp/ccHCLNhp.s:3024   .debug_str:00000000000001e6 .LASF170
     /tmp/ccHCLNhp.s:3330   .debug_str:0000000000000c13 .LASF171
     /tmp/ccHCLNhp.s:3296   .debug_str:0000000000000b19 .LASF172
     /tmp/ccHCLNhp.s:110    .text:0000000000000078 .LFB46
     /tmp/ccHCLNhp.s:260    .text:0000000000000158 .LFE46
     /tmp/ccHCLNhp.s:3098   .debug_str:0000000000000427 .LASF173
     /tmp/ccHCLNhp.s:3320   .debug_str:0000000000000be6 .LASF174
     /tmp/ccHCLNhp.s:2992   .debug_str:00000000000000f5 .LASF175
     /tmp/ccHCLNhp.s:3360   .debug_str:0000000000000d08 .LASF176
     /tmp/ccHCLNhp.s:154    .text:00000000000000c4 .LBB27
     /tmp/ccHCLNhp.s:163    .text:00000000000000d0 .LBE27
     /tmp/ccHCLNhp.s:2881   .debug_loc:0000000000000000 .LLST2
     /tmp/ccHCLNhp.s:165    .text:00000000000000d0 .LBB29
     /tmp/ccHCLNhp.s:173    .text:00000000000000d8 .LBE29
     /tmp/ccHCLNhp.s:2888   .debug_loc:0000000000000023 .LLST3
     /tmp/ccHCLNhp.s:2896   .debug_loc:0000000000000047 .LLST4
     /tmp/ccHCLNhp.s:196    .text:0000000000000120 .LBB31
     /tmp/ccHCLNhp.s:209    .text:0000000000000128 .LBE31
     /tmp/ccHCLNhp.s:2903   .debug_loc:000000000000006a .LLST5
     /tmp/ccHCLNhp.s:216    .text:0000000000000134 .LBB33
     /tmp/ccHCLNhp.s:231    .text:000000000000013c .LBE33
     /tmp/ccHCLNhp.s:234    .text:000000000000013c .LBB35
     /tmp/ccHCLNhp.s:245    .text:0000000000000140 .LBE35
     /tmp/ccHCLNhp.s:2911   .debug_loc:000000000000008e .LLST6
     /tmp/ccHCLNhp.s:134    .text:00000000000000a0 .LVL6
     /tmp/ccHCLNhp.s:138    .text:00000000000000a8 .LVL7
     /tmp/ccHCLNhp.s:149    .text:00000000000000c0 .LVL8
     /tmp/ccHCLNhp.s:180    .text:00000000000000f0 .LVL12
     /tmp/ccHCLNhp.s:187    .text:0000000000000108 .LVL13
     /tmp/ccHCLNhp.s:194    .text:0000000000000120 .LVL14
     /tmp/ccHCLNhp.s:214    .text:0000000000000134 .LVL16
     /tmp/ccHCLNhp.s:3146   .debug_str:0000000000000579 .LASF177
     /tmp/ccHCLNhp.s:3258   .debug_str:0000000000000960 .LASF178
     /tmp/ccHCLNhp.s:37     .text:000000000000001c .LFB45
     /tmp/ccHCLNhp.s:104    .text:0000000000000078 .LFE45
     /tmp/ccHCLNhp.s:2950   .debug_ranges:0000000000000000 .Ldebug_ranges0
     /tmp/ccHCLNhp.s:2919   .debug_loc:00000000000000b2 .LLST0
     /tmp/ccHCLNhp.s:53     .text:0000000000000030 .LBB20
     /tmp/ccHCLNhp.s:63     .text:0000000000000040 .LBE20
     /tmp/ccHCLNhp.s:2930   .debug_loc:00000000000000e8 .LLST1
     /tmp/ccHCLNhp.s:65     .text:0000000000000040 .LBB22
     /tmp/ccHCLNhp.s:69     .text:0000000000000040 .LBE22
     /tmp/ccHCLNhp.s:88     .text:000000000000005c .LBB24
     /tmp/ccHCLNhp.s:97     .text:000000000000006c .LBE24
     /tmp/ccHCLNhp.s:75     .text:0000000000000054 .LVL4
     /tmp/ccHCLNhp.s:84     .text:000000000000005c .LVL5
     /tmp/ccHCLNhp.s:3066   .debug_str:0000000000000337 .LASF179
     /tmp/ccHCLNhp.s:2994   .debug_str:0000000000000100 .LASF180
     /tmp/ccHCLNhp.s:10     .text:0000000000000000 .LFB44
     /tmp/ccHCLNhp.s:31     .text:000000000000001c .LFE44
     /tmp/ccHCLNhp.s:27     .text:0000000000000018 .LVL0
     /tmp/ccHCLNhp.s:3122   .debug_str:00000000000004c9 .LASF181
     /tmp/ccHCLNhp.s:3068   .debug_str:000000000000033c .LASF201
GAS LISTING /tmp/ccHCLNhp.s 			page 16


     /tmp/ccHCLNhp.s:3342   .debug_str:0000000000000c86 .LASF182
     /tmp/ccHCLNhp.s:3322   .debug_str:0000000000000bf1 .LASF183
     /tmp/ccHCLNhp.s:3180   .debug_str:00000000000006d2 .LASF184
     /tmp/ccHCLNhp.s:3292   .debug_str:0000000000000b01 .LASF186
     /tmp/ccHCLNhp.s:3174   .debug_str:0000000000000691 .LASF185
     /tmp/ccHCLNhp.s:3170   .debug_str:0000000000000670 .LASF187
     /tmp/ccHCLNhp.s:3220   .debug_str:0000000000000813 .LASF188
     /tmp/ccHCLNhp.s:3094   .debug_str:000000000000040f .LASF189
     /tmp/ccHCLNhp.s:3152   .debug_str:00000000000005b0 .LASF190
     /tmp/ccHCLNhp.s:3216   .debug_str:00000000000007eb .LASF191
     /tmp/ccHCLNhp.s:153    .text:00000000000000c4 .LVL9
     /tmp/ccHCLNhp.s:161    .text:00000000000000d0 .LVL10
     /tmp/ccHCLNhp.s:171    .text:00000000000000d8 .LVL11
     /tmp/ccHCLNhp.s:206    .text:0000000000000128 .LVL15
     /tmp/ccHCLNhp.s:233    .text:000000000000013c .LVL17
     /tmp/ccHCLNhp.s:242    .text:0000000000000140 .LVL18
     /tmp/ccHCLNhp.s:49     .text:0000000000000030 .LVL1
     /tmp/ccHCLNhp.s:73     .text:000000000000004c .LVL3
     /tmp/ccHCLNhp.s:61     .text:0000000000000040 .LVL2
     /tmp/ccHCLNhp.s:268    .debug_info:0000000000000000 .Ldebug_info0
     /tmp/ccHCLNhp.s:51     .text:0000000000000030 .LBB19
     /tmp/ccHCLNhp.s:76     .text:0000000000000054 .LBE19
     /tmp/ccHCLNhp.s:80     .text:0000000000000054 .LBB26
     /tmp/ccHCLNhp.s:102    .text:0000000000000078 .LBE26

UNDEFINED SYMBOLS
_Z15thread_dispatchv
_ZN8KConsole2drE
_ZN8KConsole20outputBufferHasSpaceE
_Z10sem_signalP4KSem
_ZN8KConsole13getFromOutputEv
_ZN8KConsole2srE
interruptHandler
_ZN7KMemory16initializeMemoryEv
_ZN8KConsole12initKConsoleEv
_Z13thread_createPP3TCBPFvPvES2_
_ZN3TCB7runningE
_Z8userMainv
_Z11thread_joinP3TCB
