GAS LISTING /tmp/cc1cxfAL.s 			page 1


   1              		.file	"main.cpp"
   2              		.option pic
   3              		.option norelax
   4              		.text
   5              	.Ltext0:
   6              		.align	2
   7              		.globl	main
   9              	main:
  10              	.LFB44:
  11              		.file 1 "src/main.cpp"
   1:src/main.cpp  **** #include "../lib/console.h"
   2:src/main.cpp  **** #include "../lib/hw.h"
   3:src/main.cpp  **** #include "../h/helper.hpp"
   4:src/main.cpp  **** #include "../h/Riscv.hpp"
   5:src/main.cpp  **** #include "../h/syscall_c.hpp"
   6:src/main.cpp  **** #include "../h/syscall_cpp.hpp"
   7:src/main.cpp  **** #include "../h/List.hpp"
   8:src/main.cpp  **** //#include "../h/MemoryAllocator.hpp"
   9:src/main.cpp  **** #include "../h/TCB.hpp"
  10:src/main.cpp  **** #include "../h/ThreadQueue.hpp"
  11:src/main.cpp  **** //#include "../h/KSem.hpp"
  12:src/main.cpp  **** 
  13:src/main.cpp  **** #include "../test/printing.hpp"
  14:src/main.cpp  **** 
  15:src/main.cpp  **** 
  16:src/main.cpp  **** extern "C" void interruptHandler();
  17:src/main.cpp  **** void userMain();
  18:src/main.cpp  **** 
  19:src/main.cpp  **** void testMemory();
  20:src/main.cpp  **** 
  21:src/main.cpp  **** void nit1f(void*);
  22:src/main.cpp  **** 
  23:src/main.cpp  **** void nit2f(void* arg2);
  24:src/main.cpp  **** 
  25:src/main.cpp  **** void nit3f(void*);
  26:src/main.cpp  **** 
  27:src/main.cpp  **** Semaphore* semA;
  28:src/main.cpp  **** 
  29:src/main.cpp  **** void idle(void*) {
  30:src/main.cpp  **** 	while (1) {}
  31:src/main.cpp  **** }
  32:src/main.cpp  **** 
  33:src/main.cpp  **** #pragma GCC optimize("O0")
  34:src/main.cpp  **** 
  35:src/main.cpp  **** int main() {
  12              		.loc 1 35 12
  13              		.cfi_startproc
  14              		.cfi_personality 0x9b,DW.ref.__gxx_personality_v0
  15              		.cfi_lsda 0x1b,.LLSDA44
  16 0000 130101FD 		addi	sp,sp,-48
  17              		.cfi_def_cfa_offset 48
  18 0004 23341102 		sd	ra,40(sp)
  19 0008 23308102 		sd	s0,32(sp)
  20 000c 233C9100 		sd	s1,24(sp)
  21 0010 23382101 		sd	s2,16(sp)
  22              		.cfi_offset 1, -8
  23              		.cfi_offset 8, -16
GAS LISTING /tmp/cc1cxfAL.s 			page 2


  24              		.cfi_offset 9, -24
  25              		.cfi_offset 18, -32
  26 0014 13040103 		addi	s0,sp,48
  27              		.cfi_def_cfa 8, 0
  36:src/main.cpp  **** 	//postavi adresu prekidne rutine u stvec
  37:src/main.cpp  **** 	Riscv::w_stvec((uint64)&interruptHandler);
  28              		.loc 1 37 2
  29              		.loc 1 37 16 is_stmt 0
  30 0018 97070000 		la	a5,interruptHandler
  30      83B70700 
  31 0020 13850700 		mv	a0,a5
  32 0024 97000000 		call	_ZN5Riscv7w_stvecEm
  32      E7800000 
  33              	.LVL0:
  38:src/main.cpp  **** 
  39:src/main.cpp  **** 	//sem_open(&semA, 0);
  40:src/main.cpp  **** 	semA = new Semaphore(1);
  34              		.loc 1 40 2 is_stmt 1
  35              		.loc 1 40 24 is_stmt 0
  36 002c 13050001 		li	a0,16
  37              	.LEHB0:
  38 0030 97000000 		call	_Znwm@plt
  38      E7800000 
  39              	.LVL1:
  40              	.LEHE0:
  41 0038 93070500 		mv	a5,a0
  42 003c 93840700 		mv	s1,a5
  43 0040 93051000 		li	a1,1
  44 0044 13850400 		mv	a0,s1
  45              	.LEHB1:
  46 0048 97000000 		call	_ZN9SemaphoreC1Ej@plt
  46      E7800000 
  47              	.LVL2:
  48              	.LEHE1:
  49              		.loc 1 40 7 discriminator 3
  50 0050 97070000 		lla	a5,semA
  50      93870700 
  51 0058 23B09700 		sd	s1,0(a5)
  41:src/main.cpp  **** 
  42:src/main.cpp  **** 
  43:src/main.cpp  **** 
  44:src/main.cpp  **** 
  45:src/main.cpp  **** 	//testiranje alociranja memorije
  46:src/main.cpp  **** 	//testMemory();
  47:src/main.cpp  **** //	uint64* ptr = new uint64;
  48:src/main.cpp  **** //	*ptr = 6;
  49:src/main.cpp  **** //	printInteger(*ptr);
  50:src/main.cpp  **** 
  51:src/main.cpp  **** 	//testiranje liste
  52:src/main.cpp  **** //	List<uint64>* lista = new List<uint64>();
  53:src/main.cpp  **** //	uint64 num = 10;
  54:src/main.cpp  **** //	lista->addFirst(&num);
  55:src/main.cpp  **** //	println("");
  56:src/main.cpp  **** //	printInteger(*(lista->peekFirst()));
  57:src/main.cpp  **** //	delete lista;
  58:src/main.cpp  **** //	println("");
  59:src/main.cpp  **** 
GAS LISTING /tmp/cc1cxfAL.s 			page 3


  60:src/main.cpp  **** 	//testiranje kreiranja niti
  61:src/main.cpp  **** //	thread_t glavnaNit = nullptr;
  62:src/main.cpp  **** //	thread_t nit1 = nullptr;
  63:src/main.cpp  **** //	thread_t nit2 = nullptr;
  64:src/main.cpp  **** //	thread_t nit3 = nullptr;
  65:src/main.cpp  **** //	thread_t idleNit = nullptr;
  66:src/main.cpp  **** //	thread_create(&glavnaNit, nullptr, nullptr);
  67:src/main.cpp  **** //	TCB::running = glavnaNit;
  68:src/main.cpp  **** //	uint64* arg = new uint64;
  69:src/main.cpp  **** //	*arg = 666;
  70:src/main.cpp  **** //	ThreadQueue* q = new ThreadQueue();
  71:src/main.cpp  **** //	q->putLast(nit3);
  72:src/main.cpp  **** //	q->putLast(nit2);
  73:src/main.cpp  **** //	q->putLast(nit1);
  74:src/main.cpp  **** //	thread_t nitred3 = q->getFirst();
  75:src/main.cpp  **** //	thread_t nitred2 = q->getFirst();
  76:src/main.cpp  **** //	thread_t nitred1 = q->getFirst();
  77:src/main.cpp  **** //	thread_create(&idleNit, idle, nullptr);
  78:src/main.cpp  **** //	thread_create(&nitred1, nit1f, nullptr);
  79:src/main.cpp  **** //	thread_create(&nitred2, nit2f, arg);
  80:src/main.cpp  **** //	thread_create(&nitred3, nit3f, nullptr);
  81:src/main.cpp  **** //
  82:src/main.cpp  **** //	//omoguci prekide
  83:src/main.cpp  **** //	Riscv::ms_sstatus(Riscv::SSTATUS_SIE);
  84:src/main.cpp  **** //
  85:src/main.cpp  **** ////	while (!nitred1->isFinished() || !nitred2->isFinished()) {
  86:src/main.cpp  **** ////		thread_dispatch();
  87:src/main.cpp  **** ////	}
  88:src/main.cpp  **** //	thread_join(nitred1);
  89:src/main.cpp  **** //	thread_join(nitred2);
  90:src/main.cpp  **** //	thread_join(nitred3);
  91:src/main.cpp  **** //
  92:src/main.cpp  **** //	printString("\nGotove user niti\n");
  93:src/main.cpp  **** //	delete q;
  94:src/main.cpp  **** //	//zabrani prekide
  95:src/main.cpp  **** //	Riscv::mc_sstatus(Riscv::SSTATUS_SIE);
  96:src/main.cpp  **** //	printString("\nSad cu da izadjem\n");
  97:src/main.cpp  **** 
  98:src/main.cpp  **** //testiranje svega
  99:src/main.cpp  **** 	thread_t mainHandle;
  52              		.loc 1 99 2 is_stmt 1 discriminator 3
 100:src/main.cpp  **** 	thread_t userHandle;
  53              		.loc 1 100 2 discriminator 3
 101:src/main.cpp  **** 	thread_create(&mainHandle, nullptr, nullptr);
  54              		.loc 1 101 2 discriminator 3
  55              		.loc 1 101 15 is_stmt 0 discriminator 3
  56 005c 930784FD 		addi	a5,s0,-40
  57 0060 13060000 		li	a2,0
  58 0064 93050000 		li	a1,0
  59 0068 13850700 		mv	a0,a5
  60              	.LEHB2:
  61 006c 97000000 		call	_Z13thread_createPP3TCBPFvPvES2_@plt
  61      E7800000 
  62              	.LVL3:
 102:src/main.cpp  **** 	TCB::running = mainHandle;
  63              		.loc 1 102 2 is_stmt 1 discriminator 3
  64              		.loc 1 102 15 is_stmt 0 discriminator 3
GAS LISTING /tmp/cc1cxfAL.s 			page 4


  65 0074 033784FD 		ld	a4,-40(s0)
  66 0078 97070000 		la	a5,_ZN3TCB7runningE
  66      83B70700 
  67 0080 23B0E700 		sd	a4,0(a5)
 103:src/main.cpp  **** 	thread_create(&userHandle, (TCB::Body)userMain, nullptr);
  68              		.loc 1 103 2 is_stmt 1 discriminator 3
  69              		.loc 1 103 15 is_stmt 0 discriminator 3
  70 0084 930704FD 		addi	a5,s0,-48
  71 0088 13060000 		li	a2,0
  72 008c 97050000 		la	a1,_Z8userMainv
  72      83B50500 
  73 0094 13850700 		mv	a0,a5
  74 0098 97000000 		call	_Z13thread_createPP3TCBPFvPvES2_@plt
  74      E7800000 
  75              	.LVL4:
  76              	.L3:
 104:src/main.cpp  **** 	while (!userHandle->isFinished()) {
  77              		.loc 1 104 2 is_stmt 1
  78              		.loc 1 104 9
  79              		.loc 1 104 32 is_stmt 0
  80 00a0 833704FD 		ld	a5,-48(s0)
  81 00a4 13850700 		mv	a0,a5
  82 00a8 97000000 		call	_ZN3TCB10isFinishedEv
  82      E7800000 
  83              	.LVL5:
  84 00b0 93070500 		mv	a5,a0
  85              		.loc 1 104 9
  86 00b4 93C71700 		xori	a5,a5,1
  87 00b8 93F7F70F 		andi	a5,a5,0xff
  88 00bc 63880700 		beqz	a5,.L2
 105:src/main.cpp  **** 		thread_dispatch();
  89              		.loc 1 105 3 is_stmt 1
  90              		.loc 1 105 18 is_stmt 0
  91 00c0 97000000 		call	_Z15thread_dispatchv@plt
  91      E7800000 
  92              	.LVL6:
 104:src/main.cpp  **** 	while (!userHandle->isFinished()) {
  93              		.loc 1 104 2
  94 00c8 6FF09FFD 		j	.L3
  95              	.L2:
 106:src/main.cpp  **** 	}
 107:src/main.cpp  **** 	Riscv::mc_sstatus(Riscv::SSTATUS_SIE);
  96              		.loc 1 107 2 is_stmt 1
  97              		.loc 1 107 19 is_stmt 0
  98 00cc 13052000 		li	a0,2
  99 00d0 97000000 		call	_ZN5Riscv10mc_sstatusEm
  99      E7800000 
 100              	.LVL7:
 108:src/main.cpp  **** 	return 0;
 101              		.loc 1 108 2 is_stmt 1
 102              		.loc 1 108 9 is_stmt 0
 103 00d8 93070000 		li	a5,0
 104 00dc 6F004002 		j	.L7
 105              	.L6:
 106 00e0 13090500 		mv	s2,a0
  40:src/main.cpp  **** 
 107              		.loc 1 40 24
GAS LISTING /tmp/cc1cxfAL.s 			page 5


 108 00e4 13850400 		mv	a0,s1
 109 00e8 97000000 		call	_ZdlPv@plt
 109      E7800000 
 110              	.LVL8:
 111 00f0 93070900 		mv	a5,s2
 112 00f4 13850700 		mv	a0,a5
 113 00f8 97000000 		call	_Unwind_Resume@plt
 113      E7800000 
 114              	.LVL9:
 115              	.LEHE2:
 116              	.L7:
 109:src/main.cpp  **** }...
 117              		.loc 1 109 1
 118 0100 13850700 		mv	a0,a5
 119 0104 83308102 		ld	ra,40(sp)
 120              		.cfi_restore 1
 121 0108 03340102 		ld	s0,32(sp)
 122              		.cfi_restore 8
 123              		.cfi_def_cfa 2, 48
 124 010c 83348101 		ld	s1,24(sp)
 125              		.cfi_restore 9
 126 0110 03390101 		ld	s2,16(sp)
 127              		.cfi_restore 18
 128 0114 13010103 		addi	sp,sp,48
 129              		.cfi_def_cfa_offset 0
 130 0118 67800000 		jr	ra
 131              		.cfi_endproc
 132              	.LFE44:
 133              		.globl	__gxx_personality_v0
 134              		.section	.gcc_except_table,"a",@progbits
 135              	.LLSDA44:
 136 0000 FF       		.byte	0xff
 137 0001 FF       		.byte	0xff
 138 0002 03       		.byte	0x3
 139 0003 27       		.byte	0x27
 140 0004 00000000 		.4byte	.LEHB0-.LFB44
 141 0008 00000000 		.4byte	.LEHE0-.LEHB0
 142 000c 00000000 		.4byte	0
 143 0010 00       		.byte	0
 144 0011 00000000 		.4byte	.LEHB1-.LFB44
 145 0015 00000000 		.4byte	.LEHE1-.LEHB1
 146 0019 00000000 		.4byte	.L6-.LFB44
 147 001d 00       		.byte	0
 148 001e 00000000 		.4byte	.LEHB2-.LFB44
 149 0022 00000000 		.4byte	.LEHE2-.LEHB2
 150 0026 00000000 		.4byte	0
 151 002a 00       		.byte	0
 152              		.text
 154              		.section	.text._ZN5Riscv7w_stvecEm,"axG",@progbits,_ZN5Riscv7w_stvecEm,comdat
 155              		.align	2
 156              		.weak	_ZN5Riscv7w_stvecEm
 158              	_ZN5Riscv7w_stvecEm:
 159              	.LFB5:
 160              		.file 2 "src/../h/Riscv.hpp"
   1:src/../h/Riscv.hpp **** //
   2:src/../h/Riscv.hpp **** // Created by os on 5/17/23.
   3:src/../h/Riscv.hpp **** //
GAS LISTING /tmp/cc1cxfAL.s 			page 6


   4:src/../h/Riscv.hpp **** 
   5:src/../h/Riscv.hpp **** #ifndef PROJEKAT2023_RISCV_HPP
   6:src/../h/Riscv.hpp **** #define PROJEKAT2023_RISCV_HPP
   7:src/../h/Riscv.hpp **** 
   8:src/../h/Riscv.hpp **** #include "../lib/hw.h"
   9:src/../h/Riscv.hpp **** 
  10:src/../h/Riscv.hpp **** class Riscv {
  11:src/../h/Riscv.hpp **** public:
  12:src/../h/Riscv.hpp **** 
  13:src/../h/Riscv.hpp **** 	static void popSppSpie();
  14:src/../h/Riscv.hpp **** 
  15:src/../h/Riscv.hpp **** 	//stavljanje registara x3-x31 na stek
  16:src/../h/Riscv.hpp **** 	static void pushRegisters();    //implementacija u asm
  17:src/../h/Riscv.hpp **** 
  18:src/../h/Riscv.hpp **** 	//skidanje registara x3-x31 sa steka
  19:src/../h/Riscv.hpp **** 	static void popRegisters();     //implementacija u asm
  20:src/../h/Riscv.hpp **** 
  21:src/../h/Riscv.hpp **** 	//read scause
  22:src/../h/Riscv.hpp **** 	static uint64 r_scause();
  23:src/../h/Riscv.hpp **** 
  24:src/../h/Riscv.hpp **** 	//write scause
  25:src/../h/Riscv.hpp **** 	static void w_scause(uint64 scause);
  26:src/../h/Riscv.hpp **** 
  27:src/../h/Riscv.hpp **** 	//read sepc
  28:src/../h/Riscv.hpp **** 	static uint64 r_sepc();
  29:src/../h/Riscv.hpp **** 
  30:src/../h/Riscv.hpp **** 	//write sepc
  31:src/../h/Riscv.hpp **** 	static void w_sepc(uint64 sepc);
  32:src/../h/Riscv.hpp **** 
  33:src/../h/Riscv.hpp **** 	//read stvec
  34:src/../h/Riscv.hpp **** 	static uint64 r_stvec();
  35:src/../h/Riscv.hpp **** 
  36:src/../h/Riscv.hpp **** 	//write stvec
  37:src/../h/Riscv.hpp **** 	static void w_stvec(uint64 stvec);
  38:src/../h/Riscv.hpp **** 
  39:src/../h/Riscv.hpp **** 	enum BitMaskSip {
  40:src/../h/Riscv.hpp **** 		//postoji zahtev za softverski prekid
  41:src/../h/Riscv.hpp **** 		SIP_SSIP = (1 << 1),
  42:src/../h/Riscv.hpp **** 		//postoji prekid od tajmera
  43:src/../h/Riscv.hpp **** 		SIP_STIP = (1 << 5),
  44:src/../h/Riscv.hpp **** 		//postoji zahtev za spoljasnji hardverski prekid
  45:src/../h/Riscv.hpp **** 		SIP_SEIP = (1 << 9)
  46:src/../h/Riscv.hpp **** 	};
  47:src/../h/Riscv.hpp **** 
  48:src/../h/Riscv.hpp **** 	//mask set sip
  49:src/../h/Riscv.hpp **** 	static void ms_sip(uint64 mask);
  50:src/../h/Riscv.hpp **** 
  51:src/../h/Riscv.hpp **** 	//mask clear sip
  52:src/../h/Riscv.hpp **** 	static void mc_sip(uint64 mask);
  53:src/../h/Riscv.hpp **** 
  54:src/../h/Riscv.hpp **** 	//read sip
  55:src/../h/Riscv.hpp **** 	static uint64 r_sip();
  56:src/../h/Riscv.hpp **** 
  57:src/../h/Riscv.hpp **** 	//write sip
  58:src/../h/Riscv.hpp **** 	static void w_sip(uint64 sip);
  59:src/../h/Riscv.hpp **** 
  60:src/../h/Riscv.hpp **** 	//kada se pozove sret, SIE dobija vrednost SPIE, SPIE se postavlja na 1,
GAS LISTING /tmp/cc1cxfAL.s 			page 7


  61:src/../h/Riscv.hpp **** 	//rezim se postavlja na osnovu SPP bita, SPP se postavlja na 0
  62:src/../h/Riscv.hpp **** 	enum BitMaskSstatus {
  63:src/../h/Riscv.hpp **** 		//1 - dozvoljeni prekidi; 0- nedozvoljeni prekidi; igonrise se u korisnickom rezimu
  64:src/../h/Riscv.hpp **** 		SSTATUS_SIE = (1 << 1),
  65:src/../h/Riscv.hpp **** 		//prethodna vrednost bita SIE
  66:src/../h/Riscv.hpp **** 		SSTATUS_SPIE = (1 << 5),
  67:src/../h/Riscv.hpp **** 		//iz kog rezima se desio skok; 0 - iz korisnickog; 1 - iz sistemskog
  68:src/../h/Riscv.hpp **** 		SSTATUS_SPP = (1 << 8)
  69:src/../h/Riscv.hpp **** 	};
  70:src/../h/Riscv.hpp **** 
  71:src/../h/Riscv.hpp **** 	//mask set sstatus
  72:src/../h/Riscv.hpp **** 	static void ms_sstatus(uint64 mask);
  73:src/../h/Riscv.hpp **** 
  74:src/../h/Riscv.hpp **** 	//mask clear sstatus
  75:src/../h/Riscv.hpp **** 	static void mc_sstatus(uint64 mask);
  76:src/../h/Riscv.hpp **** 
  77:src/../h/Riscv.hpp **** 	//read sstatus
  78:src/../h/Riscv.hpp **** 	static uint64 r_sstatus();
  79:src/../h/Riscv.hpp **** 
  80:src/../h/Riscv.hpp **** 	//write sstatus
  81:src/../h/Riscv.hpp **** 	static void w_sstatus(uint64 sstatus);
  82:src/../h/Riscv.hpp **** 
  83:src/../h/Riscv.hpp **** 	//upisuje kod sistemskog poziva u registar a0
  84:src/../h/Riscv.hpp **** 	static void loadOpCode(uint64 opCode);
  85:src/../h/Riscv.hpp **** 
  86:src/../h/Riscv.hpp **** };
  87:src/../h/Riscv.hpp **** 
  88:src/../h/Riscv.hpp **** inline uint64 Riscv::r_scause() {
  89:src/../h/Riscv.hpp **** 	uint64 volatile scause;
  90:src/../h/Riscv.hpp **** 	__asm__ volatile("csrr %[scause], scause": [scause] "=r"(scause));
  91:src/../h/Riscv.hpp **** 	return scause;
  92:src/../h/Riscv.hpp **** }
  93:src/../h/Riscv.hpp **** 
  94:src/../h/Riscv.hpp **** inline void Riscv::w_scause(uint64 scause) {
  95:src/../h/Riscv.hpp **** 	__asm__ volatile("csrw scause, %[scause]": :[scause] "r"(scause));
  96:src/../h/Riscv.hpp **** }
  97:src/../h/Riscv.hpp **** 
  98:src/../h/Riscv.hpp **** inline uint64 Riscv::r_sepc() {
  99:src/../h/Riscv.hpp **** 	uint64 volatile sepc;
 100:src/../h/Riscv.hpp **** 	__asm__ volatile("csrr %[sepc], sepc": [sepc] "=r"(sepc));
 101:src/../h/Riscv.hpp **** 	return sepc;
 102:src/../h/Riscv.hpp **** }
 103:src/../h/Riscv.hpp **** 
 104:src/../h/Riscv.hpp **** inline void Riscv::w_sepc(uint64 sepc) {
 105:src/../h/Riscv.hpp **** 	__asm__ volatile("csrw sepc, %[sepc]": :[sepc] "r"(sepc));
 106:src/../h/Riscv.hpp **** }
 107:src/../h/Riscv.hpp **** 
 108:src/../h/Riscv.hpp **** inline uint64 Riscv::r_stvec() {
 109:src/../h/Riscv.hpp **** 	uint64 volatile stvec;
 110:src/../h/Riscv.hpp **** 	__asm__ volatile("csrr %[stvec], stvec": [stvec] "=r"(stvec));
 111:src/../h/Riscv.hpp **** 	return stvec;
 112:src/../h/Riscv.hpp **** }
 113:src/../h/Riscv.hpp **** 
 114:src/../h/Riscv.hpp **** inline void Riscv::w_stvec(uint64 stvec) {
 161              		.loc 2 114 42 is_stmt 1
 162              		.cfi_startproc
 163              	.LVL10:
GAS LISTING /tmp/cc1cxfAL.s 			page 8


 164 0000 130101FF 		addi	sp,sp,-16
 165              		.cfi_def_cfa_offset 16
 166 0004 23348100 		sd	s0,8(sp)
 167              		.cfi_offset 8, -8
 168 0008 13040101 		addi	s0,sp,16
 169              		.cfi_def_cfa 8, 0
 115:src/../h/Riscv.hpp **** 	__asm__ volatile("csrw stvec, %[stvec]": :[stvec] "r"(stvec));
 170              		.loc 2 115 2
 171              		.loc 2 115 63 is_stmt 0
 172              	#APP
 173              	# 115 "src/../h/Riscv.hpp" 1
 116              	}
 174              		csrw stvec, a0
 175              	# 0 "" 2
 176              		.loc 2 116 1
 177              	#NO_APP
 178 0010 03348100 		ld	s0,8(sp)
 179              		.cfi_restore 8
 180              		.cfi_def_cfa 2, 16
 181 0014 13010101 		addi	sp,sp,16
 182              		.cfi_def_cfa_offset 0
 183 0018 67800000 		jr	ra
 184              		.cfi_endproc
 185              	.LFE5:
 187              		.section	.text._ZN5Riscv10mc_sstatusEm,"axG",@progbits,_ZN5Riscv10mc_sstatusEm,comdat
 188              		.align	2
 189              		.weak	_ZN5Riscv10mc_sstatusEm
 191              	_ZN5Riscv10mc_sstatusEm:
 192              	.LFB11:
 117:src/../h/Riscv.hpp **** 
 118:src/../h/Riscv.hpp **** inline void Riscv::ms_sip(uint64 mask) {
 119:src/../h/Riscv.hpp **** 	__asm__ volatile("csrs sip, %[mask]": :[mask] "r"(mask));
 120:src/../h/Riscv.hpp **** }
 121:src/../h/Riscv.hpp **** 
 122:src/../h/Riscv.hpp **** inline void Riscv::mc_sip(uint64 mask) {
 123:src/../h/Riscv.hpp **** 	__asm__ volatile("csrc sip, %[mask]": :[mask] "r"(mask));
 124:src/../h/Riscv.hpp **** }
 125:src/../h/Riscv.hpp **** 
 126:src/../h/Riscv.hpp **** inline uint64 Riscv::r_sip() {
 127:src/../h/Riscv.hpp **** 	uint64 volatile sip;
 128:src/../h/Riscv.hpp **** 	__asm__ volatile("csrr %[sip], sip": [sip] "=r"(sip));
 129:src/../h/Riscv.hpp **** 	return sip;
 130:src/../h/Riscv.hpp **** }
 131:src/../h/Riscv.hpp **** 
 132:src/../h/Riscv.hpp **** inline void Riscv::w_sip(uint64 sip) {
 133:src/../h/Riscv.hpp **** 	__asm__ volatile("csrw sip, %[sip]": :[sip] "r"(sip));
 134:src/../h/Riscv.hpp **** }
 135:src/../h/Riscv.hpp **** 
 136:src/../h/Riscv.hpp **** inline void Riscv::ms_sstatus(uint64 mask) {
 137:src/../h/Riscv.hpp **** 	__asm__ volatile("csrs sstatus, %[mask]": :[mask] "r"(mask));
 138:src/../h/Riscv.hpp **** }
 139:src/../h/Riscv.hpp **** 
 140:src/../h/Riscv.hpp **** inline void Riscv::mc_sstatus(uint64 mask) {
 193              		.loc 2 140 44 is_stmt 1
 194              		.cfi_startproc
 195              	.LVL11:
 196 0000 130101FF 		addi	sp,sp,-16
GAS LISTING /tmp/cc1cxfAL.s 			page 9


 197              		.cfi_def_cfa_offset 16
 198 0004 23348100 		sd	s0,8(sp)
 199              		.cfi_offset 8, -8
 200 0008 13040101 		addi	s0,sp,16
 201              		.cfi_def_cfa 8, 0
 141:src/../h/Riscv.hpp **** 	__asm__ volatile("csrc sstatus, %[mask]": :[mask] "r"(mask));
 202              		.loc 2 141 2
 203              		.loc 2 141 62 is_stmt 0
 204              	#APP
 205              	# 141 "src/../h/Riscv.hpp" 1
 142              	}
 206              		csrc sstatus, a0
 207              	# 0 "" 2
 208              		.loc 2 142 1
 209              	#NO_APP
 210 0010 03348100 		ld	s0,8(sp)
 211              		.cfi_restore 8
 212              		.cfi_def_cfa 2, 16
 213 0014 13010101 		addi	sp,sp,16
 214              		.cfi_def_cfa_offset 0
 215 0018 67800000 		jr	ra
 216              		.cfi_endproc
 217              	.LFE11:
 219              		.section	.text._ZN3TCB10isFinishedEv,"axG",@progbits,_ZN3TCB10isFinishedEv,comdat
 220              		.align	2
 221              		.weak	_ZN3TCB10isFinishedEv
 223              	_ZN3TCB10isFinishedEv:
 224              	.LFB34:
 225              		.file 3 "src/../h/TCB.hpp"
   1:src/../h/TCB.hpp **** //
   2:src/../h/TCB.hpp **** // Created by os on 5/23/23.
   3:src/../h/TCB.hpp **** //
   4:src/../h/TCB.hpp **** 
   5:src/../h/TCB.hpp **** #ifndef PROJEKAT2023_TCB_HPP
   6:src/../h/TCB.hpp **** #define PROJEKAT2023_TCB_HPP
   7:src/../h/TCB.hpp **** 
   8:src/../h/TCB.hpp **** #include "../lib/hw.h"
   9:src/../h/TCB.hpp **** #include "../h/ThreadQueue.hpp"
  10:src/../h/TCB.hpp **** 
  11:src/../h/TCB.hpp **** class TCB {
  12:src/../h/TCB.hpp **** public:
  13:src/../h/TCB.hpp **** 	friend class Scheduler;
  14:src/../h/TCB.hpp **** 
  15:src/../h/TCB.hpp **** 	using Body = void (*)(void*);
  16:src/../h/TCB.hpp **** 
  17:src/../h/TCB.hpp **** 	static TCB* createThread(Body function, void* args, uint64* stack);
  18:src/../h/TCB.hpp **** 	static void start(TCB* newTcb);
  19:src/../h/TCB.hpp **** 
  20:src/../h/TCB.hpp **** 	bool isFinished() { return finished; }
 226              		.loc 3 20 7 is_stmt 1
 227              		.cfi_startproc
 228              	.LVL12:
 229 0000 130101FF 		addi	sp,sp,-16
 230              		.cfi_def_cfa_offset 16
 231 0004 23348100 		sd	s0,8(sp)
 232              		.cfi_offset 8, -8
 233 0008 13040101 		addi	s0,sp,16
GAS LISTING /tmp/cc1cxfAL.s 			page 10


 234              		.cfi_def_cfa 8, 0
 235              		.loc 3 20 22
 236              		.loc 3 20 39 is_stmt 0
 237 000c 03450503 		lbu	a0,48(a0)
 238              	.LVL13:
 239 0010 03348100 		ld	s0,8(sp)
 240              		.cfi_restore 8
 241              		.cfi_def_cfa 2, 16
 242 0014 13010101 		addi	sp,sp,16
 243              		.cfi_def_cfa_offset 0
 244 0018 67800000 		jr	ra
 245              		.cfi_endproc
 246              	.LFE34:
 248              		.text
 249              		.align	2
 250              		.globl	_Z4idlePv
 252              	_Z4idlePv:
 253              	.LFB43:
  29:src/main.cpp  **** void idle(void*) {
 254              		.loc 1 29 18 is_stmt 1
 255              		.cfi_startproc
 256 011c 130101FF 		addi	sp,sp,-16
 257              		.cfi_def_cfa_offset 16
 258 0120 23348100 		sd	s0,8(sp)
 259              		.cfi_offset 8, -8
 260 0124 13040101 		addi	s0,sp,16
 261              		.cfi_def_cfa 8, 0
 262              	.L15:
  30:src/main.cpp  **** 	while (1) {}
 263              		.loc 1 30 2 discriminator 1
  30:src/main.cpp  **** 	while (1) {}
 264              		.loc 1 30 2 discriminator 1
 265 0128 6F000000 		j	.L15
 266              		.cfi_endproc
 267              	.LFE43:
 269              		.globl	semA
 270              		.bss
 271              		.align	3
 274              	semA:
 275 0000 00000000 		.zero	8
 275      00000000 
 276              		.text
 277              	.Letext0:
 278              		.file 4 "src/../lib/hw.h"
 279              		.file 5 "src/../h/syscall_c.hpp"
 280              		.file 6 "src/../h/../h/ThreadQueue.hpp"
 281              		.file 7 "src/../h/syscall_cpp.hpp"
 2739              		.align	3
 2742              	DW.ref.__gxx_personality_v0:
 2743 0000 00000000 		.dword	__gxx_personality_v0
 2743      00000000 
 2744              		.ident	"GCC: (Ubuntu 9.4.0-1ubuntu1~20.04) 9.4.0"
 2745              		.section	.note.GNU-stack,"",@progbits
GAS LISTING /tmp/cc1cxfAL.s 			page 11

