GAS LISTING /tmp/ccScOB5D.s 			page 1


   1              		.file	"main.cpp"
   2              		.option pic
   3              		.option norelax
   4              		.text
   5              	.Ltext0:
   6              		.section	.rodata
   7              		.align	3
   8              	.LC0:
   9 0000 0A50726F 		.string	"\nProsao while\n"
   9      73616F20 
   9      7768696C 
   9      650A00
  10 000f 00       		.align	3
  11              	.LC1:
  12 0010 0A536164 		.string	"\nSad cu da izadjem\n"
  12      20637520 
  12      64612069 
  12      7A61646A 
  12      656D0A00 
  13              		.text
  14              		.align	2
  15              		.globl	main
  17              	main:
  18              	.LFB44:
  19              		.file 1 "src/main.cpp"
   1:src/main.cpp  **** #include "../lib/console.h"
   2:src/main.cpp  **** #include "../lib/hw.h"
   3:src/main.cpp  **** #include "../h/helper.hpp"
   4:src/main.cpp  **** #include "../h/Riscv.hpp"
   5:src/main.cpp  **** #include "../h/syscall_c.hpp"
   6:src/main.cpp  **** #include "../h/syscall_cpp.hpp"
   7:src/main.cpp  **** #include "../h/List.hpp"
   8:src/main.cpp  **** //#include "../h/MemoryAllocator.hpp"
   9:src/main.cpp  **** #include "../h/TCB.hpp"
  10:src/main.cpp  **** #include "../h/ThreadQueue.hpp"
  11:src/main.cpp  **** //#include "../h/KSem.hpp"
  12:src/main.cpp  **** 
  13:src/main.cpp  **** 
  14:src/main.cpp  **** extern "C" void interruptHandler();
  15:src/main.cpp  **** //void userMain();
  16:src/main.cpp  **** 
  17:src/main.cpp  **** void testMemory();
  18:src/main.cpp  **** 
  19:src/main.cpp  **** void nit1f(void*);
  20:src/main.cpp  **** 
  21:src/main.cpp  **** void nit2f(void* arg2);
  22:src/main.cpp  **** 
  23:src/main.cpp  **** void nit3f(void*);
  24:src/main.cpp  **** 
  25:src/main.cpp  **** Semaphore* semA;
  26:src/main.cpp  **** 
  27:src/main.cpp  **** void idle(void*) {
  28:src/main.cpp  **** 	while (1) {}
  29:src/main.cpp  **** }
  30:src/main.cpp  **** 
  31:src/main.cpp  **** 
  32:src/main.cpp  **** #pragma GCC optimize("O0")
GAS LISTING /tmp/ccScOB5D.s 			page 2


  33:src/main.cpp  **** 
  34:src/main.cpp  **** int main() {
  20              		.loc 1 34 12
  21              		.cfi_startproc
  22              		.cfi_personality 0x9b,DW.ref.__gxx_personality_v0
  23              		.cfi_lsda 0x1b,.LLSDA44
  24 0000 130101F9 		addi	sp,sp,-112
  25              		.cfi_def_cfa_offset 112
  26 0004 23341106 		sd	ra,104(sp)
  27 0008 23308106 		sd	s0,96(sp)
  28 000c 233C9104 		sd	s1,88(sp)
  29 0010 23382105 		sd	s2,80(sp)
  30              		.cfi_offset 1, -8
  31              		.cfi_offset 8, -16
  32              		.cfi_offset 9, -24
  33              		.cfi_offset 18, -32
  34 0014 13040107 		addi	s0,sp,112
  35              		.cfi_def_cfa 8, 0
  35:src/main.cpp  **** 	//postavi adresu prekidne rutine u stvec
  36:src/main.cpp  **** 	Riscv::w_stvec((uint64)&interruptHandler);
  36              		.loc 1 36 2
  37              		.loc 1 36 16 is_stmt 0
  38 0018 97070000 		la	a5,interruptHandler
  38      83B70700 
  39 0020 13850700 		mv	a0,a5
  40 0024 97000000 		call	_ZN5Riscv7w_stvecEm
  40      E7800000 
  41              	.LVL0:
  37:src/main.cpp  **** 
  38:src/main.cpp  **** 	//sem_open(&semA, 0);
  39:src/main.cpp  **** 	semA = new Semaphore(0);
  42              		.loc 1 39 2 is_stmt 1
  43              		.loc 1 39 24 is_stmt 0
  44 002c 13050001 		li	a0,16
  45              	.LEHB0:
  46 0030 97000000 		call	_Znwm@plt
  46      E7800000 
  47              	.LVL1:
  48              	.LEHE0:
  49 0038 93070500 		mv	a5,a0
  50 003c 93840700 		mv	s1,a5
  51 0040 93050000 		li	a1,0
  52 0044 13850400 		mv	a0,s1
  53              	.LEHB1:
  54 0048 97000000 		call	_ZN9SemaphoreC1Ej@plt
  54      E7800000 
  55              	.LVL2:
  56              	.LEHE1:
  57              		.loc 1 39 7 discriminator 3
  58 0050 97070000 		lla	a5,semA
  58      93870700 
  59 0058 23B09700 		sd	s1,0(a5)
  40:src/main.cpp  **** 
  41:src/main.cpp  **** 
  42:src/main.cpp  **** 
  43:src/main.cpp  **** 
  44:src/main.cpp  **** 	//testiranje alociranja memorije
GAS LISTING /tmp/ccScOB5D.s 			page 3


  45:src/main.cpp  **** 	//testMemory();
  46:src/main.cpp  **** //	uint64* ptr = new uint64;
  47:src/main.cpp  **** //	*ptr = 6;
  48:src/main.cpp  **** //	printInteger(*ptr);
  49:src/main.cpp  **** 
  50:src/main.cpp  **** 	//testiranje liste
  51:src/main.cpp  **** //	List<uint64>* lista = new List<uint64>();
  52:src/main.cpp  **** //	uint64 num = 10;
  53:src/main.cpp  **** //	lista->addFirst(&num);
  54:src/main.cpp  **** //	println("");
  55:src/main.cpp  **** //	printInteger(*(lista->peekFirst()));
  56:src/main.cpp  **** //	delete lista;
  57:src/main.cpp  **** //	println("");
  58:src/main.cpp  **** 
  59:src/main.cpp  **** 	//testiranje kreiranja niti
  60:src/main.cpp  **** 	thread_t glavnaNit = nullptr;
  60              		.loc 1 60 2 is_stmt 1 discriminator 3
  61              		.loc 1 60 11 is_stmt 0 discriminator 3
  62 005c 233804FA 		sd	zero,-80(s0)
  61:src/main.cpp  **** 	thread_t nit1 = nullptr;
  63              		.loc 1 61 2 is_stmt 1 discriminator 3
  64              		.loc 1 61 11 is_stmt 0 discriminator 3
  65 0060 233C04FC 		sd	zero,-40(s0)
  66              	.LVL3:
  62:src/main.cpp  **** 	thread_t nit2 = nullptr;
  67              		.loc 1 62 2 is_stmt 1 discriminator 3
  68              		.loc 1 62 11 is_stmt 0 discriminator 3
  69 0064 233804FC 		sd	zero,-48(s0)
  70              	.LVL4:
  63:src/main.cpp  **** 	thread_t nit3 = nullptr;
  71              		.loc 1 63 2 is_stmt 1 discriminator 3
  72              		.loc 1 63 11 is_stmt 0 discriminator 3
  73 0068 233404FC 		sd	zero,-56(s0)
  74              	.LVL5:
  64:src/main.cpp  **** 	thread_t idleNit = nullptr;
  75              		.loc 1 64 2 is_stmt 1 discriminator 3
  76              		.loc 1 64 11 is_stmt 0 discriminator 3
  77 006c 233404FA 		sd	zero,-88(s0)
  65:src/main.cpp  **** 	thread_create(&glavnaNit, nullptr, nullptr);
  78              		.loc 1 65 2 is_stmt 1 discriminator 3
  79              		.loc 1 65 15 is_stmt 0 discriminator 3
  80 0070 930704FB 		addi	a5,s0,-80
  81              	.LVL6:
  82 0074 13060000 		li	a2,0
  83 0078 93050000 		li	a1,0
  84 007c 13850700 		mv	a0,a5
  85              	.LEHB2:
  86 0080 97000000 		call	_Z13thread_createPP3TCBPFvPvES2_@plt
  86      E7800000 
  87              	.LVL7:
  66:src/main.cpp  **** 	TCB::running = glavnaNit;
  88              		.loc 1 66 2 is_stmt 1 discriminator 3
  89              		.loc 1 66 15 is_stmt 0 discriminator 3
  90 0088 033704FB 		ld	a4,-80(s0)
  91 008c 97070000 		la	a5,_ZN3TCB7runningE
  91      83B70700 
  92 0094 23B0E700 		sd	a4,0(a5)
GAS LISTING /tmp/ccScOB5D.s 			page 4


  67:src/main.cpp  **** 	uint64* arg = new uint64;
  93              		.loc 1 67 2 is_stmt 1 discriminator 3
  94              		.loc 1 67 20 is_stmt 0 discriminator 3
  95 0098 13058000 		li	a0,8
  96 009c 97000000 		call	_Znwm@plt
  96      E7800000 
  97              	.LVL8:
  98 00a4 93070500 		mv	a5,a0
  99 00a8 2330F4FC 		sd	a5,-64(s0)
 100              	.LVL9:
  68:src/main.cpp  **** 	*arg = 666;
 101              		.loc 1 68 2 is_stmt 1 discriminator 3
 102              		.loc 1 68 7 is_stmt 0 discriminator 3
 103 00ac 833704FC 		ld	a5,-64(s0)
 104 00b0 1307A029 		li	a4,666
 105 00b4 23B0E700 		sd	a4,0(a5)
  69:src/main.cpp  **** 	ThreadQueue* q = new ThreadQueue();
 106              		.loc 1 69 2 is_stmt 1 discriminator 3
 107              		.loc 1 69 35 is_stmt 0 discriminator 3
 108 00b8 13050001 		li	a0,16
 109              	.LVL10:
 110 00bc 97000000 		call	_ZN11ThreadQueuenwEm
 110      E7800000 
 111              	.LVL11:
 112 00c4 93040500 		mv	s1,a0
 113 00c8 13850400 		mv	a0,s1
 114 00cc 97000000 		call	_ZN11ThreadQueueC1Ev
 114      E7800000 
 115              	.LVL12:
 116 00d4 233C94FA 		sd	s1,-72(s0)
 117              	.LVL13:
  70:src/main.cpp  **** 	q->putLast(nit3);
 118              		.loc 1 70 2 is_stmt 1 discriminator 3
 119              		.loc 1 70 12 is_stmt 0 discriminator 3
 120 00d8 833584FC 		ld	a1,-56(s0)
 121 00dc 033584FB 		ld	a0,-72(s0)
 122 00e0 97000000 		call	_ZN11ThreadQueue7putLastEP3TCB@plt
 122      E7800000 
 123              	.LVL14:
  71:src/main.cpp  **** 	q->putLast(nit2);
 124              		.loc 1 71 2 is_stmt 1 discriminator 3
 125              		.loc 1 71 12 is_stmt 0 discriminator 3
 126 00e8 833504FD 		ld	a1,-48(s0)
 127 00ec 033584FB 		ld	a0,-72(s0)
 128 00f0 97000000 		call	_ZN11ThreadQueue7putLastEP3TCB@plt
 128      E7800000 
 129              	.LVL15:
  72:src/main.cpp  **** 	q->putLast(nit1);
 130              		.loc 1 72 2 is_stmt 1 discriminator 3
 131              		.loc 1 72 12 is_stmt 0 discriminator 3
 132 00f8 833584FD 		ld	a1,-40(s0)
 133 00fc 033584FB 		ld	a0,-72(s0)
 134 0100 97000000 		call	_ZN11ThreadQueue7putLastEP3TCB@plt
 134      E7800000 
 135              	.LVL16:
  73:src/main.cpp  **** 	thread_t nitred3 = q->getFirst();
 136              		.loc 1 73 2 is_stmt 1 discriminator 3
GAS LISTING /tmp/ccScOB5D.s 			page 5


 137              		.loc 1 73 32 is_stmt 0 discriminator 3
 138 0108 033584FB 		ld	a0,-72(s0)
 139 010c 97000000 		call	_ZN11ThreadQueue8getFirstEv@plt
 139      E7800000 
 140              	.LVL17:
 141 0114 93070500 		mv	a5,a0
 142              		.loc 1 73 33 discriminator 3
 143 0118 2330F4FA 		sd	a5,-96(s0)
  74:src/main.cpp  **** 	thread_t nitred2 = q->getFirst();
 144              		.loc 1 74 2 is_stmt 1 discriminator 3
 145              		.loc 1 74 32 is_stmt 0 discriminator 3
 146 011c 033584FB 		ld	a0,-72(s0)
 147 0120 97000000 		call	_ZN11ThreadQueue8getFirstEv@plt
 147      E7800000 
 148              	.LVL18:
 149 0128 93070500 		mv	a5,a0
 150              		.loc 1 74 33 discriminator 3
 151 012c 233CF4F8 		sd	a5,-104(s0)
  75:src/main.cpp  **** 	thread_t nitred1 = q->getFirst();
 152              		.loc 1 75 2 is_stmt 1 discriminator 3
 153              		.loc 1 75 32 is_stmt 0 discriminator 3
 154 0130 033584FB 		ld	a0,-72(s0)
 155 0134 97000000 		call	_ZN11ThreadQueue8getFirstEv@plt
 155      E7800000 
 156              	.LVL19:
 157 013c 93070500 		mv	a5,a0
 158              		.loc 1 75 33 discriminator 3
 159 0140 2338F4F8 		sd	a5,-112(s0)
  76:src/main.cpp  **** 	thread_create(&idleNit, idle, nullptr);
 160              		.loc 1 76 2 is_stmt 1 discriminator 3
 161              		.loc 1 76 15 is_stmt 0 discriminator 3
 162 0144 930784FA 		addi	a5,s0,-88
 163 0148 13060000 		li	a2,0
 164 014c 97050000 		lla	a1,_Z4idlePv
 164      93850500 
 165 0154 13850700 		mv	a0,a5
 166 0158 97000000 		call	_Z13thread_createPP3TCBPFvPvES2_@plt
 166      E7800000 
 167              	.LVL20:
  77:src/main.cpp  **** 	thread_create(&nitred1, nit1f, nullptr);
 168              		.loc 1 77 2 is_stmt 1 discriminator 3
 169              		.loc 1 77 15 is_stmt 0 discriminator 3
 170 0160 930704F9 		addi	a5,s0,-112
 171 0164 13060000 		li	a2,0
 172 0168 97050000 		la	a1,_Z5nit1fPv
 172      83B50500 
 173 0170 13850700 		mv	a0,a5
 174 0174 97000000 		call	_Z13thread_createPP3TCBPFvPvES2_@plt
 174      E7800000 
 175              	.LVL21:
  78:src/main.cpp  **** 	thread_create(&nitred2, nit2f, arg);
 176              		.loc 1 78 2 is_stmt 1 discriminator 3
 177              		.loc 1 78 15 is_stmt 0 discriminator 3
 178 017c 930784F9 		addi	a5,s0,-104
 179 0180 033604FC 		ld	a2,-64(s0)
 180 0184 97050000 		la	a1,_Z5nit2fPv
 180      83B50500 
GAS LISTING /tmp/ccScOB5D.s 			page 6


 181 018c 13850700 		mv	a0,a5
 182 0190 97000000 		call	_Z13thread_createPP3TCBPFvPvES2_@plt
 182      E7800000 
 183              	.LVL22:
  79:src/main.cpp  **** 	thread_create(&nitred3, nit3f, nullptr);
 184              		.loc 1 79 2 is_stmt 1 discriminator 3
 185              		.loc 1 79 15 is_stmt 0 discriminator 3
 186 0198 930704FA 		addi	a5,s0,-96
 187 019c 13060000 		li	a2,0
 188 01a0 97050000 		la	a1,_Z5nit3fPv
 188      83B50500 
 189 01a8 13850700 		mv	a0,a5
 190 01ac 97000000 		call	_Z13thread_createPP3TCBPFvPvES2_@plt
 190      E7800000 
 191              	.LVL23:
  80:src/main.cpp  **** 
  81:src/main.cpp  **** 	//omoguci prekide
  82:src/main.cpp  **** 	Riscv::ms_sstatus(Riscv::SSTATUS_SIE);
 192              		.loc 1 82 2 is_stmt 1 discriminator 3
 193              		.loc 1 82 19 is_stmt 0 discriminator 3
 194 01b4 13052000 		li	a0,2
 195 01b8 97000000 		call	_ZN5Riscv10ms_sstatusEm
 195      E7800000 
 196              	.LVL24:
  83:src/main.cpp  **** 
  84:src/main.cpp  **** //	while (!nitred1->isFinished() || !nitred2->isFinished()) {
  85:src/main.cpp  **** //		thread_dispatch();
  86:src/main.cpp  **** //	}
  87:src/main.cpp  **** 	thread_join(nitred1);
 197              		.loc 1 87 2 is_stmt 1 discriminator 3
 198              		.loc 1 87 13 is_stmt 0 discriminator 3
 199 01c0 833704F9 		ld	a5,-112(s0)
 200 01c4 13850700 		mv	a0,a5
 201 01c8 97000000 		call	_Z11thread_joinP3TCB@plt
 201      E7800000 
 202              	.LVL25:
  88:src/main.cpp  **** 	thread_join(nitred2);
 203              		.loc 1 88 2 is_stmt 1 discriminator 3
 204              		.loc 1 88 13 is_stmt 0 discriminator 3
 205 01d0 833784F9 		ld	a5,-104(s0)
 206 01d4 13850700 		mv	a0,a5
 207 01d8 97000000 		call	_Z11thread_joinP3TCB@plt
 207      E7800000 
 208              	.LVL26:
  89:src/main.cpp  **** 	thread_join(nitred3);
 209              		.loc 1 89 2 is_stmt 1 discriminator 3
 210              		.loc 1 89 13 is_stmt 0 discriminator 3
 211 01e0 833704FA 		ld	a5,-96(s0)
 212 01e4 13850700 		mv	a0,a5
 213 01e8 97000000 		call	_Z11thread_joinP3TCB@plt
 213      E7800000 
 214              	.LVL27:
  90:src/main.cpp  **** 
  91:src/main.cpp  **** 	printString("\nProsao while\n");
 215              		.loc 1 91 2 is_stmt 1 discriminator 3
 216              		.loc 1 91 13 is_stmt 0 discriminator 3
 217 01f0 17050000 		lla	a0,.LC0
GAS LISTING /tmp/ccScOB5D.s 			page 7


 217      13050500 
 218 01f8 97000000 		call	_Z11printStringPKc@plt
 218      E7800000 
 219              	.LVL28:
  92:src/main.cpp  **** 	delete q;
 220              		.loc 1 92 2 is_stmt 1 discriminator 3
 221              		.loc 1 92 9 is_stmt 0 discriminator 3
 222 0200 833484FB 		ld	s1,-72(s0)
 223              	.LVL29:
 224              		.loc 1 92 10 discriminator 3
 225 0204 638E0400 		beqz	s1,.L2
 226              		.loc 1 92 9 discriminator 1
 227 0208 13850400 		mv	a0,s1
 228 020c 97000000 		call	_ZN11ThreadQueueD1Ev
 228      E7800000 
 229              	.LVL30:
 230 0214 13850400 		mv	a0,s1
 231 0218 97000000 		call	_ZN11ThreadQueuedlEPv
 231      E7800000 
 232              	.LVL31:
 233              	.L2:
  93:src/main.cpp  **** 	//zabrani prekide
  94:src/main.cpp  **** 	Riscv::mc_sstatus(Riscv::SSTATUS_SIE);
 234              		.loc 1 94 2 is_stmt 1
 235              		.loc 1 94 19 is_stmt 0
 236 0220 13052000 		li	a0,2
 237 0224 97000000 		call	_ZN5Riscv10mc_sstatusEm
 237      E7800000 
 238              	.LVL32:
  95:src/main.cpp  **** 	printString("\nSad cu da izadjem\n");
 239              		.loc 1 95 2 is_stmt 1
 240              		.loc 1 95 13 is_stmt 0
 241 022c 17050000 		lla	a0,.LC1
 241      13050500 
 242 0234 97000000 		call	_Z11printStringPKc@plt
 242      E7800000 
 243              	.LVL33:
  96:src/main.cpp  **** 
  97:src/main.cpp  **** //testiranje svega
  98:src/main.cpp  **** //	thread_t mainHandle;
  99:src/main.cpp  **** //	thread_t userHandle;
 100:src/main.cpp  **** //	thread_create(&mainHandle, nullptr, nullptr);
 101:src/main.cpp  **** //	TCB::running = mainHandle;
 102:src/main.cpp  **** //	thread_create(&userHandle, (TCB::Body)userMain, nullptr);
 103:src/main.cpp  **** //	while (!userHandle->isFinished()) {
 104:src/main.cpp  **** //		thread_dispatch();
 105:src/main.cpp  **** //	}
 106:src/main.cpp  **** //	Riscv::mc_sstatus(Riscv::SSTATUS_SIE);
 107:src/main.cpp  **** 	return 0;
 244              		.loc 1 107 2 is_stmt 1
 245              		.loc 1 107 9 is_stmt 0
 246 023c 93070000 		li	a5,0
 247 0240 6F004002 		j	.L6
 248              	.LVL34:
 249              	.L5:
 250 0244 13090500 		mv	s2,a0
  39:src/main.cpp  **** 
GAS LISTING /tmp/ccScOB5D.s 			page 8


 251              		.loc 1 39 24
 252 0248 13850400 		mv	a0,s1
 253 024c 97000000 		call	_ZdlPv@plt
 253      E7800000 
 254              	.LVL35:
 255 0254 93070900 		mv	a5,s2
 256 0258 13850700 		mv	a0,a5
 257 025c 97000000 		call	_Unwind_Resume@plt
 257      E7800000 
 258              	.LVL36:
 259              	.LEHE2:
 260              	.L6:
 108:src/main.cpp  **** }...
 261              		.loc 1 108 1
 262 0264 13850700 		mv	a0,a5
 263 0268 83308106 		ld	ra,104(sp)
 264              		.cfi_restore 1
 265 026c 03340106 		ld	s0,96(sp)
 266              		.cfi_restore 8
 267              		.cfi_def_cfa 2, 112
 268              	.LVL37:
 269 0270 83348105 		ld	s1,88(sp)
 270              		.cfi_restore 9
 271 0274 03390105 		ld	s2,80(sp)
 272              		.cfi_restore 18
 273 0278 13010107 		addi	sp,sp,112
 274              		.cfi_def_cfa_offset 0
 275              	.LVL38:
 276 027c 67800000 		jr	ra
 277              		.cfi_endproc
 278              	.LFE44:
 279              		.globl	__gxx_personality_v0
 280              		.section	.gcc_except_table,"a",@progbits
 281              	.LLSDA44:
 282 0000 FF       		.byte	0xff
 283 0001 FF       		.byte	0xff
 284 0002 03       		.byte	0x3
 285 0003 27       		.byte	0x27
 286 0004 00000000 		.4byte	.LEHB0-.LFB44
 287 0008 00000000 		.4byte	.LEHE0-.LEHB0
 288 000c 00000000 		.4byte	0
 289 0010 00       		.byte	0
 290 0011 00000000 		.4byte	.LEHB1-.LFB44
 291 0015 00000000 		.4byte	.LEHE1-.LEHB1
 292 0019 00000000 		.4byte	.L5-.LFB44
 293 001d 00       		.byte	0
 294 001e 00000000 		.4byte	.LEHB2-.LFB44
 295 0022 00000000 		.4byte	.LEHE2-.LEHB2
 296 0026 00000000 		.4byte	0
 297 002a 00       		.byte	0
 298              		.text
 300              		.align	2
 301              		.globl	_Z4idlePv
 303              	_Z4idlePv:
 304              	.LFB43:
  27:src/main.cpp  **** void idle(void*) {
 305              		.loc 1 27 18 is_stmt 1
GAS LISTING /tmp/ccScOB5D.s 			page 9


 306              		.cfi_startproc
 307 0280 130101FF 		addi	sp,sp,-16
 308              		.cfi_def_cfa_offset 16
 309 0284 23348100 		sd	s0,8(sp)
 310              		.cfi_offset 8, -8
 311 0288 13040101 		addi	s0,sp,16
 312              		.cfi_def_cfa 8, 0
 313              	.L8:
  28:src/main.cpp  **** 	while (1) {}
 314              		.loc 1 28 2 discriminator 1
  28:src/main.cpp  **** 	while (1) {}
 315              		.loc 1 28 2 discriminator 1
 316 028c 6F000000 		j	.L8
 317              		.cfi_endproc
 318              	.LFE43:
 320              		.section	.text._ZN5Riscv7w_stvecEm,"axG",@progbits,_ZN5Riscv7w_stvecEm,comdat
 321              		.align	2
 322              		.weak	_ZN5Riscv7w_stvecEm
 324              	_ZN5Riscv7w_stvecEm:
 325              	.LFB5:
 326              		.file 2 "src/../h/Riscv.hpp"
   1:src/../h/Riscv.hpp **** //
   2:src/../h/Riscv.hpp **** // Created by os on 5/17/23.
   3:src/../h/Riscv.hpp **** //
   4:src/../h/Riscv.hpp **** 
   5:src/../h/Riscv.hpp **** #ifndef PROJEKAT2023_RISCV_HPP
   6:src/../h/Riscv.hpp **** #define PROJEKAT2023_RISCV_HPP
   7:src/../h/Riscv.hpp **** 
   8:src/../h/Riscv.hpp **** #include "../lib/hw.h"
   9:src/../h/Riscv.hpp **** 
  10:src/../h/Riscv.hpp **** class Riscv {
  11:src/../h/Riscv.hpp **** public:
  12:src/../h/Riscv.hpp **** 
  13:src/../h/Riscv.hpp **** 	static void popSppSpie();
  14:src/../h/Riscv.hpp **** 
  15:src/../h/Riscv.hpp **** 	//stavljanje registara x3-x31 na stek
  16:src/../h/Riscv.hpp **** 	static void pushRegisters();    //implementacija u asm
  17:src/../h/Riscv.hpp **** 
  18:src/../h/Riscv.hpp **** 	//skidanje registara x3-x31 sa steka
  19:src/../h/Riscv.hpp **** 	static void popRegisters();     //implementacija u asm
  20:src/../h/Riscv.hpp **** 
  21:src/../h/Riscv.hpp **** 	//read scause
  22:src/../h/Riscv.hpp **** 	static uint64 r_scause();
  23:src/../h/Riscv.hpp **** 
  24:src/../h/Riscv.hpp **** 	//write scause
  25:src/../h/Riscv.hpp **** 	static void w_scause(uint64 scause);
  26:src/../h/Riscv.hpp **** 
  27:src/../h/Riscv.hpp **** 	//read sepc
  28:src/../h/Riscv.hpp **** 	static uint64 r_sepc();
  29:src/../h/Riscv.hpp **** 
  30:src/../h/Riscv.hpp **** 	//write sepc
  31:src/../h/Riscv.hpp **** 	static void w_sepc(uint64 sepc);
  32:src/../h/Riscv.hpp **** 
  33:src/../h/Riscv.hpp **** 	//read stvec
  34:src/../h/Riscv.hpp **** 	static uint64 r_stvec();
  35:src/../h/Riscv.hpp **** 
  36:src/../h/Riscv.hpp **** 	//write stvec
GAS LISTING /tmp/ccScOB5D.s 			page 10


  37:src/../h/Riscv.hpp **** 	static void w_stvec(uint64 stvec);
  38:src/../h/Riscv.hpp **** 
  39:src/../h/Riscv.hpp **** 	enum BitMaskSip {
  40:src/../h/Riscv.hpp **** 		//postoji zahtev za softverski prekid
  41:src/../h/Riscv.hpp **** 		SIP_SSIP = (1 << 1),
  42:src/../h/Riscv.hpp **** 		//postoji prekid od tajmera
  43:src/../h/Riscv.hpp **** 		SIP_STIP = (1 << 5),
  44:src/../h/Riscv.hpp **** 		//postoji zahtev za spoljasnji hardverski prekid
  45:src/../h/Riscv.hpp **** 		SIP_SEIP = (1 << 9)
  46:src/../h/Riscv.hpp **** 	};
  47:src/../h/Riscv.hpp **** 
  48:src/../h/Riscv.hpp **** 	//mask set sip
  49:src/../h/Riscv.hpp **** 	static void ms_sip(uint64 mask);
  50:src/../h/Riscv.hpp **** 
  51:src/../h/Riscv.hpp **** 	//mask clear sip
  52:src/../h/Riscv.hpp **** 	static void mc_sip(uint64 mask);
  53:src/../h/Riscv.hpp **** 
  54:src/../h/Riscv.hpp **** 	//read sip
  55:src/../h/Riscv.hpp **** 	static uint64 r_sip();
  56:src/../h/Riscv.hpp **** 
  57:src/../h/Riscv.hpp **** 	//write sip
  58:src/../h/Riscv.hpp **** 	static void w_sip(uint64 sip);
  59:src/../h/Riscv.hpp **** 
  60:src/../h/Riscv.hpp **** 	//kada se pozove sret, SIE dobija vrednost SPIE, SPIE se postavlja na 1,
  61:src/../h/Riscv.hpp **** 	//rezim se postavlja na osnovu SPP bita, SPP se postavlja na 0
  62:src/../h/Riscv.hpp **** 	enum BitMaskSstatus {
  63:src/../h/Riscv.hpp **** 		//1 - dozvoljeni prekidi; 0- nedozvoljeni prekidi; igonrise se u korisnickom rezimu
  64:src/../h/Riscv.hpp **** 		SSTATUS_SIE = (1 << 1),
  65:src/../h/Riscv.hpp **** 		//prethodna vrednost bita SIE
  66:src/../h/Riscv.hpp **** 		SSTATUS_SPIE = (1 << 5),
  67:src/../h/Riscv.hpp **** 		//iz kog rezima se desio skok; 0 - iz korisnickog; 1 - iz sistemskog
  68:src/../h/Riscv.hpp **** 		SSTATUS_SPP = (1 << 8)
  69:src/../h/Riscv.hpp **** 	};
  70:src/../h/Riscv.hpp **** 
  71:src/../h/Riscv.hpp **** 	//mask set sstatus
  72:src/../h/Riscv.hpp **** 	static void ms_sstatus(uint64 mask);
  73:src/../h/Riscv.hpp **** 
  74:src/../h/Riscv.hpp **** 	//mask clear sstatus
  75:src/../h/Riscv.hpp **** 	static void mc_sstatus(uint64 mask);
  76:src/../h/Riscv.hpp **** 
  77:src/../h/Riscv.hpp **** 	//read sstatus
  78:src/../h/Riscv.hpp **** 	static uint64 r_sstatus();
  79:src/../h/Riscv.hpp **** 
  80:src/../h/Riscv.hpp **** 	//write sstatus
  81:src/../h/Riscv.hpp **** 	static void w_sstatus(uint64 sstatus);
  82:src/../h/Riscv.hpp **** 
  83:src/../h/Riscv.hpp **** 	//upisuje kod sistemskog poziva u registar a0
  84:src/../h/Riscv.hpp **** 	static void loadOpCode(uint64 opCode);
  85:src/../h/Riscv.hpp **** 
  86:src/../h/Riscv.hpp **** };
  87:src/../h/Riscv.hpp **** 
  88:src/../h/Riscv.hpp **** inline uint64 Riscv::r_scause() {
  89:src/../h/Riscv.hpp **** 	uint64 volatile scause;
  90:src/../h/Riscv.hpp **** 	__asm__ volatile("csrr %[scause], scause": [scause] "=r"(scause));
  91:src/../h/Riscv.hpp **** 	return scause;
  92:src/../h/Riscv.hpp **** }
  93:src/../h/Riscv.hpp **** 
GAS LISTING /tmp/ccScOB5D.s 			page 11


  94:src/../h/Riscv.hpp **** inline void Riscv::w_scause(uint64 scause) {
  95:src/../h/Riscv.hpp **** 	__asm__ volatile("csrw scause, %[scause]": :[scause] "r"(scause));
  96:src/../h/Riscv.hpp **** }
  97:src/../h/Riscv.hpp **** 
  98:src/../h/Riscv.hpp **** inline uint64 Riscv::r_sepc() {
  99:src/../h/Riscv.hpp **** 	uint64 volatile sepc;
 100:src/../h/Riscv.hpp **** 	__asm__ volatile("csrr %[sepc], sepc": [sepc] "=r"(sepc));
 101:src/../h/Riscv.hpp **** 	return sepc;
 102:src/../h/Riscv.hpp **** }
 103:src/../h/Riscv.hpp **** 
 104:src/../h/Riscv.hpp **** inline void Riscv::w_sepc(uint64 sepc) {
 105:src/../h/Riscv.hpp **** 	__asm__ volatile("csrw sepc, %[sepc]": :[sepc] "r"(sepc));
 106:src/../h/Riscv.hpp **** }
 107:src/../h/Riscv.hpp **** 
 108:src/../h/Riscv.hpp **** inline uint64 Riscv::r_stvec() {
 109:src/../h/Riscv.hpp **** 	uint64 volatile stvec;
 110:src/../h/Riscv.hpp **** 	__asm__ volatile("csrr %[stvec], stvec": [stvec] "=r"(stvec));
 111:src/../h/Riscv.hpp **** 	return stvec;
 112:src/../h/Riscv.hpp **** }
 113:src/../h/Riscv.hpp **** 
 114:src/../h/Riscv.hpp **** inline void Riscv::w_stvec(uint64 stvec) {
 327              		.loc 2 114 42
 328              		.cfi_startproc
 329              	.LVL39:
 330 0000 130101FF 		addi	sp,sp,-16
 331              		.cfi_def_cfa_offset 16
 332 0004 23348100 		sd	s0,8(sp)
 333              		.cfi_offset 8, -8
 334 0008 13040101 		addi	s0,sp,16
 335              		.cfi_def_cfa 8, 0
 115:src/../h/Riscv.hpp **** 	__asm__ volatile("csrw stvec, %[stvec]": :[stvec] "r"(stvec));
 336              		.loc 2 115 2
 337              		.loc 2 115 63 is_stmt 0
 338              	#APP
 339              	# 115 "src/../h/Riscv.hpp" 1
 116              	}
 340              		csrw stvec, a0
 341              	# 0 "" 2
 342              		.loc 2 116 1
 343              	#NO_APP
 344 0010 03348100 		ld	s0,8(sp)
 345              		.cfi_restore 8
 346              		.cfi_def_cfa 2, 16
 347 0014 13010101 		addi	sp,sp,16
 348              		.cfi_def_cfa_offset 0
 349 0018 67800000 		jr	ra
 350              		.cfi_endproc
 351              	.LFE5:
 353              		.section	.text._ZN5Riscv10ms_sstatusEm,"axG",@progbits,_ZN5Riscv10ms_sstatusEm,comdat
 354              		.align	2
 355              		.weak	_ZN5Riscv10ms_sstatusEm
 357              	_ZN5Riscv10ms_sstatusEm:
 358              	.LFB10:
 117:src/../h/Riscv.hpp **** 
 118:src/../h/Riscv.hpp **** inline void Riscv::ms_sip(uint64 mask) {
 119:src/../h/Riscv.hpp **** 	__asm__ volatile("csrs sip, %[mask]": :[mask] "r"(mask));
 120:src/../h/Riscv.hpp **** }
GAS LISTING /tmp/ccScOB5D.s 			page 12


 121:src/../h/Riscv.hpp **** 
 122:src/../h/Riscv.hpp **** inline void Riscv::mc_sip(uint64 mask) {
 123:src/../h/Riscv.hpp **** 	__asm__ volatile("csrc sip, %[mask]": :[mask] "r"(mask));
 124:src/../h/Riscv.hpp **** }
 125:src/../h/Riscv.hpp **** 
 126:src/../h/Riscv.hpp **** inline uint64 Riscv::r_sip() {
 127:src/../h/Riscv.hpp **** 	uint64 volatile sip;
 128:src/../h/Riscv.hpp **** 	__asm__ volatile("csrr %[sip], sip": [sip] "=r"(sip));
 129:src/../h/Riscv.hpp **** 	return sip;
 130:src/../h/Riscv.hpp **** }
 131:src/../h/Riscv.hpp **** 
 132:src/../h/Riscv.hpp **** inline void Riscv::w_sip(uint64 sip) {
 133:src/../h/Riscv.hpp **** 	__asm__ volatile("csrw sip, %[sip]": :[sip] "r"(sip));
 134:src/../h/Riscv.hpp **** }
 135:src/../h/Riscv.hpp **** 
 136:src/../h/Riscv.hpp **** inline void Riscv::ms_sstatus(uint64 mask) {
 359              		.loc 2 136 44 is_stmt 1
 360              		.cfi_startproc
 361              	.LVL40:
 362 0000 130101FF 		addi	sp,sp,-16
 363              		.cfi_def_cfa_offset 16
 364 0004 23348100 		sd	s0,8(sp)
 365              		.cfi_offset 8, -8
 366 0008 13040101 		addi	s0,sp,16
 367              		.cfi_def_cfa 8, 0
 137:src/../h/Riscv.hpp **** 	__asm__ volatile("csrs sstatus, %[mask]": :[mask] "r"(mask));
 368              		.loc 2 137 2
 369              		.loc 2 137 62 is_stmt 0
 370              	#APP
 371              	# 137 "src/../h/Riscv.hpp" 1
 138              	}
 372              		csrs sstatus, a0
 373              	# 0 "" 2
 374              		.loc 2 138 1
 375              	#NO_APP
 376 0010 03348100 		ld	s0,8(sp)
 377              		.cfi_restore 8
 378              		.cfi_def_cfa 2, 16
 379 0014 13010101 		addi	sp,sp,16
 380              		.cfi_def_cfa_offset 0
 381 0018 67800000 		jr	ra
 382              		.cfi_endproc
 383              	.LFE10:
 385              		.section	.text._ZN5Riscv10mc_sstatusEm,"axG",@progbits,_ZN5Riscv10mc_sstatusEm,comdat
 386              		.align	2
 387              		.weak	_ZN5Riscv10mc_sstatusEm
 389              	_ZN5Riscv10mc_sstatusEm:
 390              	.LFB11:
 139:src/../h/Riscv.hpp **** 
 140:src/../h/Riscv.hpp **** inline void Riscv::mc_sstatus(uint64 mask) {
 391              		.loc 2 140 44 is_stmt 1
 392              		.cfi_startproc
 393              	.LVL41:
 394 0000 130101FF 		addi	sp,sp,-16
 395              		.cfi_def_cfa_offset 16
 396 0004 23348100 		sd	s0,8(sp)
 397              		.cfi_offset 8, -8
GAS LISTING /tmp/ccScOB5D.s 			page 13


 398 0008 13040101 		addi	s0,sp,16
 399              		.cfi_def_cfa 8, 0
 141:src/../h/Riscv.hpp **** 	__asm__ volatile("csrc sstatus, %[mask]": :[mask] "r"(mask));
 400              		.loc 2 141 2
 401              		.loc 2 141 62 is_stmt 0
 402              	#APP
 403              	# 141 "src/../h/Riscv.hpp" 1
 142              	}
 404              		csrc sstatus, a0
 405              	# 0 "" 2
 406              		.loc 2 142 1
 407              	#NO_APP
 408 0010 03348100 		ld	s0,8(sp)
 409              		.cfi_restore 8
 410              		.cfi_def_cfa 2, 16
 411 0014 13010101 		addi	sp,sp,16
 412              		.cfi_def_cfa_offset 0
 413 0018 67800000 		jr	ra
 414              		.cfi_endproc
 415              	.LFE11:
 417              		.section	.text._ZN11ThreadQueueC2Ev,"axG",@progbits,_ZN11ThreadQueueC5Ev,comdat
 418              		.align	2
 419              		.weak	_ZN11ThreadQueueC2Ev
 421              	_ZN11ThreadQueueC2Ev:
 422              	.LFB26:
 423              		.file 3 "src/../h/../h/ThreadQueue.hpp"
   1:src/../h/../h/ThreadQueue.hpp **** //
   2:src/../h/../h/ThreadQueue.hpp **** // Created by os on 6/4/23.
   3:src/../h/../h/ThreadQueue.hpp **** //
   4:src/../h/../h/ThreadQueue.hpp **** 
   5:src/../h/../h/ThreadQueue.hpp **** #ifndef PROJEKAT2023_THREADQUEUE_HPP
   6:src/../h/../h/ThreadQueue.hpp **** #define PROJEKAT2023_THREADQUEUE_HPP
   7:src/../h/../h/ThreadQueue.hpp **** 
   8:src/../h/../h/ThreadQueue.hpp **** #include "../h/MemoryAllocator.hpp"
   9:src/../h/../h/ThreadQueue.hpp **** #include "../h/syscall_c.hpp"
  10:src/../h/../h/ThreadQueue.hpp **** 
  11:src/../h/../h/ThreadQueue.hpp **** class TCB;
  12:src/../h/../h/ThreadQueue.hpp **** 
  13:src/../h/../h/ThreadQueue.hpp **** class ThreadQueue {
  14:src/../h/../h/ThreadQueue.hpp **** private:
  15:src/../h/../h/ThreadQueue.hpp **** 	struct Node {
  16:src/../h/../h/ThreadQueue.hpp **** 		TCB* data;
  17:src/../h/../h/ThreadQueue.hpp **** 		Node* next;
  18:src/../h/../h/ThreadQueue.hpp **** 
  19:src/../h/../h/ThreadQueue.hpp **** 		Node(TCB* d) : data(d), next(nullptr) {}
  20:src/../h/../h/ThreadQueue.hpp **** 
  21:src/../h/../h/ThreadQueue.hpp **** 		static void* operator new(size_t size) {
  22:src/../h/../h/ThreadQueue.hpp **** 			return mem_alloc(size);
  23:src/../h/../h/ThreadQueue.hpp **** 		}
  24:src/../h/../h/ThreadQueue.hpp **** 
  25:src/../h/../h/ThreadQueue.hpp **** 		static void operator delete(void* ptr) {
  26:src/../h/../h/ThreadQueue.hpp **** 			mem_free(ptr);
  27:src/../h/../h/ThreadQueue.hpp **** 		}
  28:src/../h/../h/ThreadQueue.hpp **** 	};
  29:src/../h/../h/ThreadQueue.hpp **** 
  30:src/../h/../h/ThreadQueue.hpp **** 	Node* front;
  31:src/../h/../h/ThreadQueue.hpp **** 	Node* back;
GAS LISTING /tmp/ccScOB5D.s 			page 14


  32:src/../h/../h/ThreadQueue.hpp **** 
  33:src/../h/../h/ThreadQueue.hpp **** public:
  34:src/../h/../h/ThreadQueue.hpp **** 	ThreadQueue() : front(nullptr), back(nullptr) {}
 424              		.loc 3 34 2 is_stmt 1
 425              		.cfi_startproc
 426              	.LVL42:
 427 0000 130101FF 		addi	sp,sp,-16
 428              		.cfi_def_cfa_offset 16
 429 0004 23348100 		sd	s0,8(sp)
 430              		.cfi_offset 8, -8
 431 0008 13040101 		addi	s0,sp,16
 432              		.cfi_def_cfa 8, 0
 433              	.LBB9:
 434              		.loc 3 34 46 is_stmt 0
 435 000c 23300500 		sd	zero,0(a0)
 436 0010 23340500 		sd	zero,8(a0)
 437              	.LBE9:
 438              		.loc 3 34 49
 439 0014 03348100 		ld	s0,8(sp)
 440              		.cfi_restore 8
 441              		.cfi_def_cfa 2, 16
 442 0018 13010101 		addi	sp,sp,16
 443              		.cfi_def_cfa_offset 0
 444 001c 67800000 		jr	ra
 445              		.cfi_endproc
 446              	.LFE26:
 448              		.weak	_ZN11ThreadQueueC1Ev
 449              		.set	_ZN11ThreadQueueC1Ev,_ZN11ThreadQueueC2Ev
 450              		.section	.text._ZN11ThreadQueueD2Ev,"axG",@progbits,_ZN11ThreadQueueD5Ev,comdat
 451              		.align	2
 452              		.weak	_ZN11ThreadQueueD2Ev
 454              	_ZN11ThreadQueueD2Ev:
 455              	.LFB29:
  35:src/../h/../h/ThreadQueue.hpp **** 
  36:src/../h/../h/ThreadQueue.hpp **** 	ThreadQueue(const ThreadQueue&) = delete;
  37:src/../h/../h/ThreadQueue.hpp **** 
  38:src/../h/../h/ThreadQueue.hpp **** 	ThreadQueue& operator=(const ThreadQueue&) = delete;
  39:src/../h/../h/ThreadQueue.hpp **** 
  40:src/../h/../h/ThreadQueue.hpp **** 	~ThreadQueue() {
 456              		.loc 3 40 2 is_stmt 1
 457              		.cfi_startproc
 458              		.cfi_personality 0x9b,DW.ref.__gxx_personality_v0
 459              		.cfi_lsda 0x1b,.LLSDA29
 460              	.LVL43:
 461 0000 130101FE 		addi	sp,sp,-32
 462              		.cfi_def_cfa_offset 32
 463 0004 233C1100 		sd	ra,24(sp)
 464 0008 23388100 		sd	s0,16(sp)
 465 000c 23349100 		sd	s1,8(sp)
 466              		.cfi_offset 1, -8
 467              		.cfi_offset 8, -16
 468              		.cfi_offset 9, -24
 469 0010 13040102 		addi	s0,sp,32
 470              		.cfi_def_cfa 8, 0
 471 0014 93040500 		mv	s1,a0
 472              	.LVL44:
 473              	.L20:
GAS LISTING /tmp/ccScOB5D.s 			page 15


 474              	.LBB10:
  41:src/../h/../h/ThreadQueue.hpp **** 		while (!isEmpty()) {
 475              		.loc 3 41 3
 476              		.loc 3 41 10
 477              	.LBB11:
 478              	.LBB12:
  42:src/../h/../h/ThreadQueue.hpp **** 			Node* node = front;
  43:src/../h/../h/ThreadQueue.hpp **** 			front = front->next;
  44:src/../h/../h/ThreadQueue.hpp **** 			delete node;
  45:src/../h/../h/ThreadQueue.hpp **** 		}
  46:src/../h/../h/ThreadQueue.hpp **** 	}
  47:src/../h/../h/ThreadQueue.hpp **** 
  48:src/../h/../h/ThreadQueue.hpp **** 	bool isEmpty() const {
  49:src/../h/../h/ThreadQueue.hpp **** 		return front == nullptr;
 479              		.loc 3 49 3
 480              		.loc 3 49 10 is_stmt 0
 481 0018 03B50400 		ld	a0,0(s1)
 482              	.LVL45:
 483              	.LBE12:
 484              	.LBE11:
  41:src/../h/../h/ThreadQueue.hpp **** 		while (!isEmpty()) {
 485              		.loc 3 41 10
 486 001c 630E0500 		beqz	a0,.L18
 487              	.LBB13:
  42:src/../h/../h/ThreadQueue.hpp **** 			Node* node = front;
 488              		.loc 3 42 4 is_stmt 1
 489              	.LVL46:
  43:src/../h/../h/ThreadQueue.hpp **** 			delete node;
 490              		.loc 3 43 4
  43:src/../h/../h/ThreadQueue.hpp **** 			delete node;
 491              		.loc 3 43 19 is_stmt 0
 492 0020 83378500 		ld	a5,8(a0)
  43:src/../h/../h/ThreadQueue.hpp **** 			delete node;
 493              		.loc 3 43 10
 494 0024 23B0F400 		sd	a5,0(s1)
  44:src/../h/../h/ThreadQueue.hpp **** 		}
 495              		.loc 3 44 4 is_stmt 1
  44:src/../h/../h/ThreadQueue.hpp **** 		}
 496              		.loc 3 44 15 is_stmt 0
 497 0028 E30805FE 		beqz	a0,.L20
 498              	.LVL47:
 499              	.LBB14:
 500              	.LBB15:
  26:src/../h/../h/ThreadQueue.hpp **** 		}
 501              		.loc 3 26 4 is_stmt 1 discriminator 1
  26:src/../h/../h/ThreadQueue.hpp **** 		}
 502              		.loc 3 26 12 is_stmt 0 discriminator 1
 503 002c 97000000 		call	_Z8mem_freePv@plt
 503      E7800000 
 504              	.LVL48:
  27:src/../h/../h/ThreadQueue.hpp **** 	};
 505              		.loc 3 27 3 discriminator 1
 506 0034 6FF05FFE 		j	.L20
 507              	.L18:
 508              	.LBE15:
 509              	.LBE14:
 510              	.LBE13:
GAS LISTING /tmp/ccScOB5D.s 			page 16


 511              	.LBE10:
  46:src/../h/../h/ThreadQueue.hpp **** 
 512              		.loc 3 46 2
 513 0038 83308101 		ld	ra,24(sp)
 514              		.cfi_restore 1
 515 003c 03340101 		ld	s0,16(sp)
 516              		.cfi_restore 8
 517              		.cfi_def_cfa 2, 32
 518 0040 83348100 		ld	s1,8(sp)
 519              		.cfi_restore 9
 520              	.LVL49:
 521 0044 13010102 		addi	sp,sp,32
 522              		.cfi_def_cfa_offset 0
 523 0048 67800000 		jr	ra
 524              		.cfi_endproc
 525              	.LFE29:
 526              		.section	.gcc_except_table
 527              	.LLSDA29:
 528 002b FF       		.byte	0xff
 529 002c FF       		.byte	0xff
 530 002d 03       		.byte	0x3
 531 002e 00       		.byte	0
 532              		.section	.text._ZN11ThreadQueueD2Ev,"axG",@progbits,_ZN11ThreadQueueD5Ev,comdat
 534              		.weak	_ZN11ThreadQueueD1Ev
 535              		.set	_ZN11ThreadQueueD1Ev,_ZN11ThreadQueueD2Ev
 536              		.section	.text._ZN11ThreadQueuenwEm,"axG",@progbits,_ZN11ThreadQueuenwEm,comdat
 537              		.align	2
 538              		.weak	_ZN11ThreadQueuenwEm
 540              	_ZN11ThreadQueuenwEm:
 541              	.LFB32:
  50:src/../h/../h/ThreadQueue.hpp **** 	}
  51:src/../h/../h/ThreadQueue.hpp **** 
  52:src/../h/../h/ThreadQueue.hpp **** 	void putLast(TCB* tcb);
  53:src/../h/../h/ThreadQueue.hpp **** 
  54:src/../h/../h/ThreadQueue.hpp **** 	TCB* getFirst();
  55:src/../h/../h/ThreadQueue.hpp **** 
  56:src/../h/../h/ThreadQueue.hpp **** 	static void* operator new(size_t size) {
 542              		.loc 3 56 15 is_stmt 1
 543              		.cfi_startproc
 544              	.LVL50:
 545 0000 130101FF 		addi	sp,sp,-16
 546              		.cfi_def_cfa_offset 16
 547 0004 23341100 		sd	ra,8(sp)
 548 0008 23308100 		sd	s0,0(sp)
 549              		.cfi_offset 1, -8
 550              		.cfi_offset 8, -16
 551 000c 13040101 		addi	s0,sp,16
 552              		.cfi_def_cfa 8, 0
  57:src/../h/../h/ThreadQueue.hpp **** 		return mem_alloc(size);
 553              		.loc 3 57 3
 554              		.loc 3 57 19 is_stmt 0
 555 0010 97000000 		call	_Z9mem_allocm@plt
 555      E7800000 
 556              	.LVL51:
  58:src/../h/../h/ThreadQueue.hpp **** 	}
 557              		.loc 3 58 2
 558 0018 83308100 		ld	ra,8(sp)
GAS LISTING /tmp/ccScOB5D.s 			page 17


 559              		.cfi_restore 1
 560 001c 03340100 		ld	s0,0(sp)
 561              		.cfi_restore 8
 562              		.cfi_def_cfa 2, 16
 563 0020 13010101 		addi	sp,sp,16
 564              		.cfi_def_cfa_offset 0
 565 0024 67800000 		jr	ra
 566              		.cfi_endproc
 567              	.LFE32:
 569              		.section	.text._ZN11ThreadQueuedlEPv,"axG",@progbits,_ZN11ThreadQueuedlEPv,comdat
 570              		.align	2
 571              		.weak	_ZN11ThreadQueuedlEPv
 573              	_ZN11ThreadQueuedlEPv:
 574              	.LFB33:
  59:src/../h/../h/ThreadQueue.hpp **** 
  60:src/../h/../h/ThreadQueue.hpp **** 	static void operator delete(void* ptr) {
 575              		.loc 3 60 14 is_stmt 1
 576              		.cfi_startproc
 577              	.LVL52:
 578 0000 130101FF 		addi	sp,sp,-16
 579              		.cfi_def_cfa_offset 16
 580 0004 23341100 		sd	ra,8(sp)
 581 0008 23308100 		sd	s0,0(sp)
 582              		.cfi_offset 1, -8
 583              		.cfi_offset 8, -16
 584 000c 13040101 		addi	s0,sp,16
 585              		.cfi_def_cfa 8, 0
  61:src/../h/../h/ThreadQueue.hpp **** 		mem_free(ptr);
 586              		.loc 3 61 3
 587              		.loc 3 61 11 is_stmt 0
 588 0010 97000000 		call	_Z8mem_freePv@plt
 588      E7800000 
 589              	.LVL53:
  62:src/../h/../h/ThreadQueue.hpp **** 	}
 590              		.loc 3 62 2
 591 0018 83308100 		ld	ra,8(sp)
 592              		.cfi_restore 1
 593 001c 03340100 		ld	s0,0(sp)
 594              		.cfi_restore 8
 595              		.cfi_def_cfa 2, 16
 596 0020 13010101 		addi	sp,sp,16
 597              		.cfi_def_cfa_offset 0
 598 0024 67800000 		jr	ra
 599              		.cfi_endproc
 600              	.LFE33:
 602              		.globl	semA
 603              		.bss
 604              		.align	3
 607              	semA:
 608 0000 00000000 		.zero	8
 608      00000000 
 609              		.text
 610              	.Letext0:
 611              		.file 4 "src/../lib/hw.h"
 612              		.file 5 "src/../h/syscall_c.hpp"
 613              		.file 6 "src/../h/TCB.hpp"
 614              		.file 7 "src/../h/syscall_cpp.hpp"
GAS LISTING /tmp/ccScOB5D.s 			page 18


 615              		.file 8 "src/../h/helper.hpp"
 4086              		.align	3
 4089              	DW.ref.__gxx_personality_v0:
 4090 0000 00000000 		.dword	__gxx_personality_v0
 4090      00000000 
 4091              		.ident	"GCC: (Ubuntu 9.4.0-1ubuntu1~20.04) 9.4.0"
 4092              		.section	.note.GNU-stack,"",@progbits
GAS LISTING /tmp/ccScOB5D.s 			page 19


DEFINED SYMBOLS
                            *ABS*:0000000000000000 main.cpp
     /tmp/ccScOB5D.s:17     .text:0000000000000000 main
     /tmp/ccScOB5D.s:21     .text:0000000000000000 .L0 
     /tmp/ccScOB5D.s:4089   .data.rel.local.DW.ref.__gxx_personality_v0:0000000000000000 DW.ref.__gxx_personality_v0
     /tmp/ccScOB5D.s:24     .text:0000000000000000 .L0 
     /tmp/ccScOB5D.s:25     .text:0000000000000004 .L0 
     /tmp/ccScOB5D.s:30     .text:0000000000000014 .L0 
     /tmp/ccScOB5D.s:31     .text:0000000000000014 .L0 
     /tmp/ccScOB5D.s:32     .text:0000000000000014 .L0 
     /tmp/ccScOB5D.s:33     .text:0000000000000014 .L0 
     /tmp/ccScOB5D.s:35     .text:0000000000000018 .L0 
     /tmp/ccScOB5D.s:37     .text:0000000000000018 .L0 
     /tmp/ccScOB5D.s:38     .text:0000000000000018 .L0 
     /tmp/ccScOB5D.s:324    .text._ZN5Riscv7w_stvecEm:0000000000000000 _ZN5Riscv7w_stvecEm
     /tmp/ccScOB5D.s:43     .text:000000000000002c .L0 
     /tmp/ccScOB5D.s:44     .text:000000000000002c .L0 
     /tmp/ccScOB5D.s:607    .bss:0000000000000000 semA
     /tmp/ccScOB5D.s:58     .text:0000000000000050 .L0 
     /tmp/ccScOB5D.s:61     .text:000000000000005c .L0 
     /tmp/ccScOB5D.s:62     .text:000000000000005c .L0 
     /tmp/ccScOB5D.s:64     .text:0000000000000060 .L0 
     /tmp/ccScOB5D.s:65     .text:0000000000000060 .L0 
     /tmp/ccScOB5D.s:68     .text:0000000000000064 .L0 
     /tmp/ccScOB5D.s:69     .text:0000000000000064 .L0 
     /tmp/ccScOB5D.s:72     .text:0000000000000068 .L0 
     /tmp/ccScOB5D.s:73     .text:0000000000000068 .L0 
     /tmp/ccScOB5D.s:76     .text:000000000000006c .L0 
     /tmp/ccScOB5D.s:77     .text:000000000000006c .L0 
     /tmp/ccScOB5D.s:79     .text:0000000000000070 .L0 
     /tmp/ccScOB5D.s:80     .text:0000000000000070 .L0 
     /tmp/ccScOB5D.s:89     .text:0000000000000088 .L0 
     /tmp/ccScOB5D.s:90     .text:0000000000000088 .L0 
     /tmp/ccScOB5D.s:94     .text:0000000000000098 .L0 
     /tmp/ccScOB5D.s:95     .text:0000000000000098 .L0 
     /tmp/ccScOB5D.s:102    .text:00000000000000ac .L0 
     /tmp/ccScOB5D.s:103    .text:00000000000000ac .L0 
     /tmp/ccScOB5D.s:107    .text:00000000000000b8 .L0 
     /tmp/ccScOB5D.s:108    .text:00000000000000b8 .L0 
     /tmp/ccScOB5D.s:540    .text._ZN11ThreadQueuenwEm:0000000000000000 _ZN11ThreadQueuenwEm
     /tmp/ccScOB5D.s:421    .text._ZN11ThreadQueueC2Ev:0000000000000000 _ZN11ThreadQueueC1Ev
     /tmp/ccScOB5D.s:119    .text:00000000000000d8 .L0 
     /tmp/ccScOB5D.s:120    .text:00000000000000d8 .L0 
     /tmp/ccScOB5D.s:125    .text:00000000000000e8 .L0 
     /tmp/ccScOB5D.s:126    .text:00000000000000e8 .L0 
     /tmp/ccScOB5D.s:131    .text:00000000000000f8 .L0 
     /tmp/ccScOB5D.s:132    .text:00000000000000f8 .L0 
     /tmp/ccScOB5D.s:137    .text:0000000000000108 .L0 
     /tmp/ccScOB5D.s:138    .text:0000000000000108 .L0 
     /tmp/ccScOB5D.s:143    .text:0000000000000118 .L0 
     /tmp/ccScOB5D.s:145    .text:000000000000011c .L0 
     /tmp/ccScOB5D.s:146    .text:000000000000011c .L0 
     /tmp/ccScOB5D.s:151    .text:000000000000012c .L0 
     /tmp/ccScOB5D.s:153    .text:0000000000000130 .L0 
     /tmp/ccScOB5D.s:154    .text:0000000000000130 .L0 
     /tmp/ccScOB5D.s:159    .text:0000000000000140 .L0 
     /tmp/ccScOB5D.s:161    .text:0000000000000144 .L0 
GAS LISTING /tmp/ccScOB5D.s 			page 20


     /tmp/ccScOB5D.s:162    .text:0000000000000144 .L0 
     /tmp/ccScOB5D.s:303    .text:0000000000000280 _Z4idlePv
     /tmp/ccScOB5D.s:169    .text:0000000000000160 .L0 
     /tmp/ccScOB5D.s:170    .text:0000000000000160 .L0 
     /tmp/ccScOB5D.s:177    .text:000000000000017c .L0 
     /tmp/ccScOB5D.s:178    .text:000000000000017c .L0 
     /tmp/ccScOB5D.s:185    .text:0000000000000198 .L0 
     /tmp/ccScOB5D.s:186    .text:0000000000000198 .L0 
     /tmp/ccScOB5D.s:193    .text:00000000000001b4 .L0 
     /tmp/ccScOB5D.s:194    .text:00000000000001b4 .L0 
     /tmp/ccScOB5D.s:357    .text._ZN5Riscv10ms_sstatusEm:0000000000000000 _ZN5Riscv10ms_sstatusEm
     /tmp/ccScOB5D.s:198    .text:00000000000001c0 .L0 
     /tmp/ccScOB5D.s:199    .text:00000000000001c0 .L0 
     /tmp/ccScOB5D.s:204    .text:00000000000001d0 .L0 
     /tmp/ccScOB5D.s:205    .text:00000000000001d0 .L0 
     /tmp/ccScOB5D.s:210    .text:00000000000001e0 .L0 
     /tmp/ccScOB5D.s:211    .text:00000000000001e0 .L0 
     /tmp/ccScOB5D.s:216    .text:00000000000001f0 .L0 
     /tmp/ccScOB5D.s:217    .text:00000000000001f0 .L0 
     /tmp/ccScOB5D.s:221    .text:0000000000000200 .L0 
     /tmp/ccScOB5D.s:222    .text:0000000000000200 .L0 
     /tmp/ccScOB5D.s:225    .text:0000000000000204 .L0 
     /tmp/ccScOB5D.s:227    .text:0000000000000208 .L0 
     /tmp/ccScOB5D.s:454    .text._ZN11ThreadQueueD2Ev:0000000000000000 _ZN11ThreadQueueD1Ev
     /tmp/ccScOB5D.s:573    .text._ZN11ThreadQueuedlEPv:0000000000000000 _ZN11ThreadQueuedlEPv
     /tmp/ccScOB5D.s:235    .text:0000000000000220 .L0 
     /tmp/ccScOB5D.s:236    .text:0000000000000220 .L0 
     /tmp/ccScOB5D.s:389    .text._ZN5Riscv10mc_sstatusEm:0000000000000000 _ZN5Riscv10mc_sstatusEm
     /tmp/ccScOB5D.s:240    .text:000000000000022c .L0 
     /tmp/ccScOB5D.s:241    .text:000000000000022c .L0 
     /tmp/ccScOB5D.s:245    .text:000000000000023c .L0 
     /tmp/ccScOB5D.s:246    .text:000000000000023c .L0 
     /tmp/ccScOB5D.s:252    .text:0000000000000248 .L0 
     /tmp/ccScOB5D.s:262    .text:0000000000000264 .L0 
     /tmp/ccScOB5D.s:264    .text:000000000000026c .L0 
     /tmp/ccScOB5D.s:266    .text:0000000000000270 .L0 
     /tmp/ccScOB5D.s:267    .text:0000000000000270 .L0 
     /tmp/ccScOB5D.s:270    .text:0000000000000274 .L0 
     /tmp/ccScOB5D.s:272    .text:0000000000000278 .L0 
     /tmp/ccScOB5D.s:274    .text:000000000000027c .L0 
     /tmp/ccScOB5D.s:277    .text:0000000000000280 .L0 
     /tmp/ccScOB5D.s:306    .text:0000000000000280 .L0 
     /tmp/ccScOB5D.s:307    .text:0000000000000280 .L0 
     /tmp/ccScOB5D.s:308    .text:0000000000000284 .L0 
     /tmp/ccScOB5D.s:310    .text:0000000000000288 .L0 
     /tmp/ccScOB5D.s:312    .text:000000000000028c .L0 
     /tmp/ccScOB5D.s:315    .text:000000000000028c .L0 
     /tmp/ccScOB5D.s:316    .text:000000000000028c .L0 
     /tmp/ccScOB5D.s:317    .text:0000000000000290 .L0 
     /tmp/ccScOB5D.s:328    .text._ZN5Riscv7w_stvecEm:0000000000000000 .L0 
     /tmp/ccScOB5D.s:330    .text._ZN5Riscv7w_stvecEm:0000000000000000 .L0 
     /tmp/ccScOB5D.s:331    .text._ZN5Riscv7w_stvecEm:0000000000000004 .L0 
     /tmp/ccScOB5D.s:333    .text._ZN5Riscv7w_stvecEm:0000000000000008 .L0 
     /tmp/ccScOB5D.s:335    .text._ZN5Riscv7w_stvecEm:000000000000000c .L0 
     /tmp/ccScOB5D.s:337    .text._ZN5Riscv7w_stvecEm:000000000000000c .L0 
  src/../h/Riscv.hpp:115    .text._ZN5Riscv7w_stvecEm:000000000000000c .L0 
     /tmp/ccScOB5D.s:344    .text._ZN5Riscv7w_stvecEm:0000000000000010 .L0 
GAS LISTING /tmp/ccScOB5D.s 			page 21


     /tmp/ccScOB5D.s:345    .text._ZN5Riscv7w_stvecEm:0000000000000014 .L0 
     /tmp/ccScOB5D.s:346    .text._ZN5Riscv7w_stvecEm:0000000000000014 .L0 
     /tmp/ccScOB5D.s:348    .text._ZN5Riscv7w_stvecEm:0000000000000018 .L0 
     /tmp/ccScOB5D.s:350    .text._ZN5Riscv7w_stvecEm:000000000000001c .L0 
     /tmp/ccScOB5D.s:360    .text._ZN5Riscv10ms_sstatusEm:0000000000000000 .L0 
     /tmp/ccScOB5D.s:362    .text._ZN5Riscv10ms_sstatusEm:0000000000000000 .L0 
     /tmp/ccScOB5D.s:363    .text._ZN5Riscv10ms_sstatusEm:0000000000000004 .L0 
     /tmp/ccScOB5D.s:365    .text._ZN5Riscv10ms_sstatusEm:0000000000000008 .L0 
     /tmp/ccScOB5D.s:367    .text._ZN5Riscv10ms_sstatusEm:000000000000000c .L0 
     /tmp/ccScOB5D.s:369    .text._ZN5Riscv10ms_sstatusEm:000000000000000c .L0 
  src/../h/Riscv.hpp:137    .text._ZN5Riscv10ms_sstatusEm:000000000000000c .L0 
     /tmp/ccScOB5D.s:376    .text._ZN5Riscv10ms_sstatusEm:0000000000000010 .L0 
     /tmp/ccScOB5D.s:377    .text._ZN5Riscv10ms_sstatusEm:0000000000000014 .L0 
     /tmp/ccScOB5D.s:378    .text._ZN5Riscv10ms_sstatusEm:0000000000000014 .L0 
     /tmp/ccScOB5D.s:380    .text._ZN5Riscv10ms_sstatusEm:0000000000000018 .L0 
     /tmp/ccScOB5D.s:382    .text._ZN5Riscv10ms_sstatusEm:000000000000001c .L0 
     /tmp/ccScOB5D.s:392    .text._ZN5Riscv10mc_sstatusEm:0000000000000000 .L0 
     /tmp/ccScOB5D.s:394    .text._ZN5Riscv10mc_sstatusEm:0000000000000000 .L0 
     /tmp/ccScOB5D.s:395    .text._ZN5Riscv10mc_sstatusEm:0000000000000004 .L0 
     /tmp/ccScOB5D.s:397    .text._ZN5Riscv10mc_sstatusEm:0000000000000008 .L0 
     /tmp/ccScOB5D.s:399    .text._ZN5Riscv10mc_sstatusEm:000000000000000c .L0 
     /tmp/ccScOB5D.s:401    .text._ZN5Riscv10mc_sstatusEm:000000000000000c .L0 
  src/../h/Riscv.hpp:141    .text._ZN5Riscv10mc_sstatusEm:000000000000000c .L0 
     /tmp/ccScOB5D.s:408    .text._ZN5Riscv10mc_sstatusEm:0000000000000010 .L0 
     /tmp/ccScOB5D.s:409    .text._ZN5Riscv10mc_sstatusEm:0000000000000014 .L0 
     /tmp/ccScOB5D.s:410    .text._ZN5Riscv10mc_sstatusEm:0000000000000014 .L0 
     /tmp/ccScOB5D.s:412    .text._ZN5Riscv10mc_sstatusEm:0000000000000018 .L0 
     /tmp/ccScOB5D.s:414    .text._ZN5Riscv10mc_sstatusEm:000000000000001c .L0 
     /tmp/ccScOB5D.s:421    .text._ZN11ThreadQueueC2Ev:0000000000000000 _ZN11ThreadQueueC2Ev
     /tmp/ccScOB5D.s:425    .text._ZN11ThreadQueueC2Ev:0000000000000000 .L0 
     /tmp/ccScOB5D.s:427    .text._ZN11ThreadQueueC2Ev:0000000000000000 .L0 
     /tmp/ccScOB5D.s:428    .text._ZN11ThreadQueueC2Ev:0000000000000004 .L0 
     /tmp/ccScOB5D.s:430    .text._ZN11ThreadQueueC2Ev:0000000000000008 .L0 
     /tmp/ccScOB5D.s:432    .text._ZN11ThreadQueueC2Ev:000000000000000c .L0 
     /tmp/ccScOB5D.s:435    .text._ZN11ThreadQueueC2Ev:000000000000000c .L0 
     /tmp/ccScOB5D.s:439    .text._ZN11ThreadQueueC2Ev:0000000000000014 .L0 
     /tmp/ccScOB5D.s:440    .text._ZN11ThreadQueueC2Ev:0000000000000018 .L0 
     /tmp/ccScOB5D.s:441    .text._ZN11ThreadQueueC2Ev:0000000000000018 .L0 
     /tmp/ccScOB5D.s:443    .text._ZN11ThreadQueueC2Ev:000000000000001c .L0 
     /tmp/ccScOB5D.s:445    .text._ZN11ThreadQueueC2Ev:0000000000000020 .L0 
     /tmp/ccScOB5D.s:454    .text._ZN11ThreadQueueD2Ev:0000000000000000 _ZN11ThreadQueueD2Ev
     /tmp/ccScOB5D.s:457    .text._ZN11ThreadQueueD2Ev:0000000000000000 .L0 
     /tmp/ccScOB5D.s:461    .text._ZN11ThreadQueueD2Ev:0000000000000000 .L0 
     /tmp/ccScOB5D.s:462    .text._ZN11ThreadQueueD2Ev:0000000000000004 .L0 
     /tmp/ccScOB5D.s:466    .text._ZN11ThreadQueueD2Ev:0000000000000010 .L0 
     /tmp/ccScOB5D.s:467    .text._ZN11ThreadQueueD2Ev:0000000000000010 .L0 
     /tmp/ccScOB5D.s:468    .text._ZN11ThreadQueueD2Ev:0000000000000010 .L0 
     /tmp/ccScOB5D.s:470    .text._ZN11ThreadQueueD2Ev:0000000000000014 .L0 
     /tmp/ccScOB5D.s:476    .text._ZN11ThreadQueueD2Ev:0000000000000018 .L0 
     /tmp/ccScOB5D.s:479    .text._ZN11ThreadQueueD2Ev:0000000000000018 .L0 
     /tmp/ccScOB5D.s:480    .text._ZN11ThreadQueueD2Ev:0000000000000018 .L0 
     /tmp/ccScOB5D.s:481    .text._ZN11ThreadQueueD2Ev:0000000000000018 .L0 
     /tmp/ccScOB5D.s:486    .text._ZN11ThreadQueueD2Ev:000000000000001c .L0 
     /tmp/ccScOB5D.s:490    .text._ZN11ThreadQueueD2Ev:0000000000000020 .L0 
     /tmp/ccScOB5D.s:491    .text._ZN11ThreadQueueD2Ev:0000000000000020 .L0 
     /tmp/ccScOB5D.s:492    .text._ZN11ThreadQueueD2Ev:0000000000000020 .L0 
     /tmp/ccScOB5D.s:494    .text._ZN11ThreadQueueD2Ev:0000000000000024 .L0 
GAS LISTING /tmp/ccScOB5D.s 			page 22


     /tmp/ccScOB5D.s:496    .text._ZN11ThreadQueueD2Ev:0000000000000028 .L0 
     /tmp/ccScOB5D.s:497    .text._ZN11ThreadQueueD2Ev:0000000000000028 .L0 
     /tmp/ccScOB5D.s:502    .text._ZN11ThreadQueueD2Ev:000000000000002c .L0 
     /tmp/ccScOB5D.s:503    .text._ZN11ThreadQueueD2Ev:000000000000002c .L0 
     /tmp/ccScOB5D.s:506    .text._ZN11ThreadQueueD2Ev:0000000000000034 .L0 
     /tmp/ccScOB5D.s:513    .text._ZN11ThreadQueueD2Ev:0000000000000038 .L0 
     /tmp/ccScOB5D.s:514    .text._ZN11ThreadQueueD2Ev:000000000000003c .L0 
     /tmp/ccScOB5D.s:516    .text._ZN11ThreadQueueD2Ev:0000000000000040 .L0 
     /tmp/ccScOB5D.s:517    .text._ZN11ThreadQueueD2Ev:0000000000000040 .L0 
     /tmp/ccScOB5D.s:519    .text._ZN11ThreadQueueD2Ev:0000000000000044 .L0 
     /tmp/ccScOB5D.s:522    .text._ZN11ThreadQueueD2Ev:0000000000000048 .L0 
     /tmp/ccScOB5D.s:524    .text._ZN11ThreadQueueD2Ev:000000000000004c .L0 
     /tmp/ccScOB5D.s:543    .text._ZN11ThreadQueuenwEm:0000000000000000 .L0 
     /tmp/ccScOB5D.s:545    .text._ZN11ThreadQueuenwEm:0000000000000000 .L0 
     /tmp/ccScOB5D.s:546    .text._ZN11ThreadQueuenwEm:0000000000000004 .L0 
     /tmp/ccScOB5D.s:549    .text._ZN11ThreadQueuenwEm:000000000000000c .L0 
     /tmp/ccScOB5D.s:550    .text._ZN11ThreadQueuenwEm:000000000000000c .L0 
     /tmp/ccScOB5D.s:552    .text._ZN11ThreadQueuenwEm:0000000000000010 .L0 
     /tmp/ccScOB5D.s:554    .text._ZN11ThreadQueuenwEm:0000000000000010 .L0 
     /tmp/ccScOB5D.s:555    .text._ZN11ThreadQueuenwEm:0000000000000010 .L0 
     /tmp/ccScOB5D.s:558    .text._ZN11ThreadQueuenwEm:0000000000000018 .L0 
     /tmp/ccScOB5D.s:559    .text._ZN11ThreadQueuenwEm:000000000000001c .L0 
     /tmp/ccScOB5D.s:561    .text._ZN11ThreadQueuenwEm:0000000000000020 .L0 
     /tmp/ccScOB5D.s:562    .text._ZN11ThreadQueuenwEm:0000000000000020 .L0 
     /tmp/ccScOB5D.s:564    .text._ZN11ThreadQueuenwEm:0000000000000024 .L0 
     /tmp/ccScOB5D.s:566    .text._ZN11ThreadQueuenwEm:0000000000000028 .L0 
     /tmp/ccScOB5D.s:576    .text._ZN11ThreadQueuedlEPv:0000000000000000 .L0 
     /tmp/ccScOB5D.s:578    .text._ZN11ThreadQueuedlEPv:0000000000000000 .L0 
     /tmp/ccScOB5D.s:579    .text._ZN11ThreadQueuedlEPv:0000000000000004 .L0 
     /tmp/ccScOB5D.s:582    .text._ZN11ThreadQueuedlEPv:000000000000000c .L0 
     /tmp/ccScOB5D.s:583    .text._ZN11ThreadQueuedlEPv:000000000000000c .L0 
     /tmp/ccScOB5D.s:585    .text._ZN11ThreadQueuedlEPv:0000000000000010 .L0 
     /tmp/ccScOB5D.s:587    .text._ZN11ThreadQueuedlEPv:0000000000000010 .L0 
     /tmp/ccScOB5D.s:588    .text._ZN11ThreadQueuedlEPv:0000000000000010 .L0 
     /tmp/ccScOB5D.s:591    .text._ZN11ThreadQueuedlEPv:0000000000000018 .L0 
     /tmp/ccScOB5D.s:592    .text._ZN11ThreadQueuedlEPv:000000000000001c .L0 
     /tmp/ccScOB5D.s:594    .text._ZN11ThreadQueuedlEPv:0000000000000020 .L0 
     /tmp/ccScOB5D.s:595    .text._ZN11ThreadQueuedlEPv:0000000000000020 .L0 
     /tmp/ccScOB5D.s:597    .text._ZN11ThreadQueuedlEPv:0000000000000024 .L0 
     /tmp/ccScOB5D.s:599    .text._ZN11ThreadQueuedlEPv:0000000000000028 .L0 
     /tmp/ccScOB5D.s:616    .text:0000000000000290 .L0 
     /tmp/ccScOB5D.s:353    .text._ZN5Riscv7w_stvecEm:000000000000001c .L0 
     /tmp/ccScOB5D.s:385    .text._ZN5Riscv10ms_sstatusEm:000000000000001c .L0 
     /tmp/ccScOB5D.s:417    .text._ZN5Riscv10mc_sstatusEm:000000000000001c .L0 
     /tmp/ccScOB5D.s:450    .text._ZN11ThreadQueueC2Ev:0000000000000020 .L0 
     /tmp/ccScOB5D.s:536    .text._ZN11ThreadQueueD2Ev:000000000000004c .L0 
     /tmp/ccScOB5D.s:569    .text._ZN11ThreadQueuenwEm:0000000000000028 .L0 
     /tmp/ccScOB5D.s:603    .text._ZN11ThreadQueuedlEPv:0000000000000028 .L0 
     /tmp/ccScOB5D.s:38     .text:0000000000000018 .L0 
     /tmp/ccScOB5D.s:58     .text:0000000000000050 .L0 
     /tmp/ccScOB5D.s:91     .text:000000000000008c .L0 
     /tmp/ccScOB5D.s:164    .text:000000000000014c .L0 
     /tmp/ccScOB5D.s:172    .text:0000000000000168 .L0 
     /tmp/ccScOB5D.s:180    .text:0000000000000184 .L0 
     /tmp/ccScOB5D.s:188    .text:00000000000001a0 .L0 
     /tmp/ccScOB5D.s:8      .rodata:0000000000000000 .LC0
     /tmp/ccScOB5D.s:217    .text:00000000000001f0 .L0 
GAS LISTING /tmp/ccScOB5D.s 			page 23


     /tmp/ccScOB5D.s:11     .rodata:0000000000000010 .LC1
     /tmp/ccScOB5D.s:241    .text:000000000000022c .L0 
     /tmp/ccScOB5D.s:233    .text:0000000000000220 .L2
     /tmp/ccScOB5D.s:260    .text:0000000000000264 .L6
     /tmp/ccScOB5D.s:313    .text:000000000000028c .L8
     /tmp/ccScOB5D.s:45     .text:0000000000000030 .LEHB0
     /tmp/ccScOB5D.s:18     .text:0000000000000000 .LFB44
     /tmp/ccScOB5D.s:48     .text:0000000000000038 .LEHE0
     /tmp/ccScOB5D.s:53     .text:0000000000000048 .LEHB1
     /tmp/ccScOB5D.s:56     .text:0000000000000050 .LEHE1
     /tmp/ccScOB5D.s:249    .text:0000000000000244 .L5
     /tmp/ccScOB5D.s:85     .text:0000000000000080 .LEHB2
     /tmp/ccScOB5D.s:259    .text:0000000000000264 .LEHE2
     /tmp/ccScOB5D.s:507    .text._ZN11ThreadQueueD2Ev:0000000000000038 .L18
     /tmp/ccScOB5D.s:473    .text._ZN11ThreadQueueD2Ev:0000000000000018 .L20
     /tmp/ccScOB5D.s:2272   .debug_abbrev:0000000000000000 .Ldebug_abbrev0
     /tmp/ccScOB5D.s:4011   .debug_str:000000000000079d .LASF160
     /tmp/ccScOB5D.s:3827   .debug_str:00000000000002e9 .LASF161
     /tmp/ccScOB5D.s:3967   .debug_str:000000000000068c .LASF162
     /tmp/ccScOB5D.s:3717   .debug_ranges:0000000000000000 .Ldebug_ranges0
     /tmp/ccScOB5D.s:3737   .debug_line:0000000000000000 .Ldebug_line0
     /tmp/ccScOB5D.s:3859   .debug_str:00000000000003cb .LASF0
     /tmp/ccScOB5D.s:3883   .debug_str:000000000000045c .LASF1
     /tmp/ccScOB5D.s:3949   .debug_str:0000000000000610 .LASF2
     /tmp/ccScOB5D.s:3959   .debug_str:000000000000065d .LASF4
     /tmp/ccScOB5D.s:3869   .debug_str:0000000000000403 .LASF3
     /tmp/ccScOB5D.s:3749   .debug_str:0000000000000062 .LASF5
     /tmp/ccScOB5D.s:3929   .debug_str:0000000000000598 .LASF6
     /tmp/ccScOB5D.s:3927   .debug_str:0000000000000585 .LASF7
     /tmp/ccScOB5D.s:3873   .debug_str:0000000000000427 .LASF8
     /tmp/ccScOB5D.s:3835   .debug_str:0000000000000305 .LASF9
     /tmp/ccScOB5D.s:3845   .debug_str:0000000000000366 .LASF10
     /tmp/ccScOB5D.s:3775   .debug_str:0000000000000128 .LASF11
     /tmp/ccScOB5D.s:3823   .debug_str:00000000000002d2 .LASF12
     /tmp/ccScOB5D.s:3785   .debug_str:0000000000000180 .LASF13
     /tmp/ccScOB5D.s:3773   .debug_str:0000000000000118 .LASF14
     /tmp/ccScOB5D.s:3987   .debug_str:0000000000000718 .LASF15
     /tmp/ccScOB5D.s:3811   .debug_str:000000000000025c .LASF16
     /tmp/ccScOB5D.s:3979   .debug_str:00000000000006db .LASF17
     /tmp/ccScOB5D.s:4053   .debug_str:0000000000000956 .LASF56
     /tmp/ccScOB5D.s:4039   .debug_str:000000000000090d .LASF163
     /tmp/ccScOB5D.s:3815   .debug_str:000000000000028d .LASF18
     /tmp/ccScOB5D.s:4009   .debug_str:0000000000000790 .LASF19
     /tmp/ccScOB5D.s:3799   .debug_str:000000000000020a .LASF20
     /tmp/ccScOB5D.s:3849   .debug_str:0000000000000382 .LASF21
     /tmp/ccScOB5D.s:3857   .debug_str:00000000000003b3 .LASF23
     /tmp/ccScOB5D.s:3965   .debug_str:000000000000067e .LASF22
     /tmp/ccScOB5D.s:3813   .debug_str:0000000000000272 .LASF24
     /tmp/ccScOB5D.s:3863   .debug_str:00000000000003e8 .LASF25
     /tmp/ccScOB5D.s:4061   .debug_str:000000000000099d .LASF26
     /tmp/ccScOB5D.s:4029   .debug_str:00000000000008e1 .LASF27
     /tmp/ccScOB5D.s:4023   .debug_str:00000000000008aa .LASF29
     /tmp/ccScOB5D.s:3945   .debug_str:00000000000005fc .LASF31
     /tmp/ccScOB5D.s:3919   .debug_str:000000000000053e .LASF33
     /tmp/ccScOB5D.s:3933   .debug_str:00000000000005a7 .LASF28
     /tmp/ccScOB5D.s:3935   .debug_str:00000000000005ae .LASF30
     /tmp/ccScOB5D.s:3909   .debug_str:00000000000004f6 .LASF32
GAS LISTING /tmp/ccScOB5D.s 			page 24


     /tmp/ccScOB5D.s:3875   .debug_str:000000000000043a .LASF34
     /tmp/ccScOB5D.s:4063   .debug_str:00000000000009b7 .LASF35
     /tmp/ccScOB5D.s:4013   .debug_str:0000000000000861 .LASF36
     /tmp/ccScOB5D.s:3907   .debug_str:00000000000004ee .LASF37
     /tmp/ccScOB5D.s:3917   .debug_str:000000000000052a .LASF38
     /tmp/ccScOB5D.s:3983   .debug_str:0000000000000704 .LASF39
     /tmp/ccScOB5D.s:3961   .debug_str:0000000000000664 .LASF40
     /tmp/ccScOB5D.s:3963   .debug_str:0000000000000677 .LASF41
     /tmp/ccScOB5D.s:3779   .debug_str:000000000000013c .LASF42
     /tmp/ccScOB5D.s:3809   .debug_str:0000000000000256 .LASF43
     /tmp/ccScOB5D.s:3853   .debug_str:0000000000000398 .LASF44
     /tmp/ccScOB5D.s:3865   .debug_str:00000000000003f5 .LASF45
     /tmp/ccScOB5D.s:3801   .debug_str:0000000000000216 .LASF46
     /tmp/ccScOB5D.s:3751   .debug_str:0000000000000069 .LASF47
     /tmp/ccScOB5D.s:3953   .debug_str:0000000000000628 .LASF48
     /tmp/ccScOB5D.s:3947   .debug_str:0000000000000605 .LASF49
     /tmp/ccScOB5D.s:4077   .debug_str:0000000000000a12 .LASF50
     /tmp/ccScOB5D.s:4055   .debug_str:000000000000095c .LASF51
     /tmp/ccScOB5D.s:4065   .debug_str:00000000000009bf .LASF52
     /tmp/ccScOB5D.s:4049   .debug_str:0000000000000936 .LASF53
     /tmp/ccScOB5D.s:3899   .debug_str:00000000000004aa .LASF54
     /tmp/ccScOB5D.s:4017   .debug_str:000000000000087f .LASF97
     /tmp/ccScOB5D.s:3791   .debug_str:00000000000001c0 .LASF99
     /tmp/ccScOB5D.s:4047   .debug_str:000000000000092d .LASF55
     /tmp/ccScOB5D.s:3997   .debug_str:0000000000000758 .LASF106
     /tmp/ccScOB5D.s:3985   .debug_str:000000000000070b .LASF59
     /tmp/ccScOB5D.s:4059   .debug_str:000000000000097b .LASF61
     /tmp/ccScOB5D.s:3923   .debug_str:0000000000000574 .LASF164
     /tmp/ccScOB5D.s:4073   .debug_str:0000000000000a06 .LASF57
     /tmp/ccScOB5D.s:3871   .debug_str:0000000000000415 .LASF58
     /tmp/ccScOB5D.s:3999   .debug_str:0000000000000760 .LASF63
     /tmp/ccScOB5D.s:3991   .debug_str:0000000000000738 .LASF65
     /tmp/ccScOB5D.s:3761   .debug_str:00000000000000bd .LASF60
     /tmp/ccScOB5D.s:4025   .debug_str:00000000000008bf .LASF62
     /tmp/ccScOB5D.s:3951   .debug_str:000000000000061e .LASF64
     /tmp/ccScOB5D.s:3989   .debug_str:0000000000000724 .LASF66
     /tmp/ccScOB5D.s:4003   .debug_str:0000000000000778 .LASF67
     /tmp/ccScOB5D.s:3819   .debug_str:00000000000002a3 .LASF68
     /tmp/ccScOB5D.s:3889   .debug_str:000000000000047d .LASF69
     /tmp/ccScOB5D.s:3937   .debug_str:00000000000005c1 .LASF70
     /tmp/ccScOB5D.s:3805   .debug_str:0000000000000240 .LASF71
     /tmp/ccScOB5D.s:3957   .debug_str:0000000000000645 .LASF72
     /tmp/ccScOB5D.s:4027   .debug_str:00000000000008d6 .LASF73
     /tmp/ccScOB5D.s:3803   .debug_str:0000000000000228 .LASF74
     /tmp/ccScOB5D.s:4081   .debug_str:0000000000000a37 .LASF75
     /tmp/ccScOB5D.s:3821   .debug_str:00000000000002b9 .LASF76
     /tmp/ccScOB5D.s:3887   .debug_str:0000000000000477 .LASF77
     /tmp/ccScOB5D.s:3943   .debug_str:00000000000005ec .LASF78
     /tmp/ccScOB5D.s:3807   .debug_str:000000000000024d .LASF79
     /tmp/ccScOB5D.s:3781   .debug_str:000000000000014f .LASF80
     /tmp/ccScOB5D.s:3893   .debug_str:000000000000048f .LASF81
     /tmp/ccScOB5D.s:3755   .debug_str:0000000000000090 .LASF82
     /tmp/ccScOB5D.s:4007   .debug_str:0000000000000788 .LASF83
     /tmp/ccScOB5D.s:3769   .debug_str:00000000000000f8 .LASF84
     /tmp/ccScOB5D.s:4021   .debug_str:00000000000008a2 .LASF85
     /tmp/ccScOB5D.s:3771   .debug_str:0000000000000109 .LASF86
     /tmp/ccScOB5D.s:4075   .debug_str:0000000000000a0c .LASF87
GAS LISTING /tmp/ccScOB5D.s 			page 25


     /tmp/ccScOB5D.s:4033   .debug_str:00000000000008f0 .LASF88
     /tmp/ccScOB5D.s:4015   .debug_str:0000000000000875 .LASF89
     /tmp/ccScOB5D.s:3977   .debug_str:00000000000006d2 .LASF90
     /tmp/ccScOB5D.s:3931   .debug_str:000000000000059f .LASF91
     /tmp/ccScOB5D.s:3851   .debug_str:000000000000038d .LASF92
     /tmp/ccScOB5D.s:3975   .debug_str:00000000000006c2 .LASF93
     /tmp/ccScOB5D.s:3925   .debug_str:0000000000000579 .LASF94
     /tmp/ccScOB5D.s:3739   .debug_str:0000000000000000 .LASF95
     /tmp/ccScOB5D.s:3741   .debug_str:000000000000000d .LASF96
     /tmp/ccScOB5D.s:4069   .debug_str:00000000000009e1 .LASF165
     /tmp/ccScOB5D.s:3793   .debug_str:00000000000001d8 .LASF98
     /tmp/ccScOB5D.s:3743   .debug_str:000000000000001b .LASF100
     /tmp/ccScOB5D.s:4079   .debug_str:0000000000000a2a .LASF101
     /tmp/ccScOB5D.s:3841   .debug_str:0000000000000342 .LASF102
     /tmp/ccScOB5D.s:3861   .debug_str:00000000000003d8 .LASF112
     /tmp/ccScOB5D.s:3897   .debug_str:000000000000049d .LASF113
     /tmp/ccScOB5D.s:4005   .debug_str:0000000000000783 .LASF103
     /tmp/ccScOB5D.s:3939   .debug_str:00000000000005d9 .LASF104
     /tmp/ccScOB5D.s:3911   .debug_str:00000000000004fd .LASF105
     /tmp/ccScOB5D.s:4045   .debug_str:0000000000000928 .LASF107
     /tmp/ccScOB5D.s:3877   .debug_str:000000000000044d .LASF108
     /tmp/ccScOB5D.s:3777   .debug_str:0000000000000137 .LASF109
     /tmp/ccScOB5D.s:3783   .debug_str:0000000000000162 .LASF110
     /tmp/ccScOB5D.s:3795   .debug_str:00000000000001e6 .LASF111
     /tmp/ccScOB5D.s:3787   .debug_str:0000000000000190 .LASF114
     /tmp/ccScOB5D.s:3759   .debug_str:00000000000000b7 .LASF115
     /tmp/ccScOB5D.s:3879   .debug_str:0000000000000452 .LASF116
     /tmp/ccScOB5D.s:3757   .debug_str:00000000000000a2 .LASF117
     /tmp/ccScOB5D.s:3839   .debug_str:000000000000032a .LASF118
     /tmp/ccScOB5D.s:3797   .debug_str:0000000000000200 .LASF166
     /tmp/ccScOB5D.s:4019   .debug_str:000000000000088a .LASF167
     /tmp/ccScOB5D.s:4001   .debug_str:000000000000076b .LASF119
     /tmp/ccScOB5D.s:4057   .debug_str:0000000000000966 .LASF120
     /tmp/ccScOB5D.s:3867   .debug_str:00000000000003fb .LASF121
     /tmp/ccScOB5D.s:3753   .debug_str:0000000000000074 .LASF122
     /tmp/ccScOB5D.s:3885   .debug_str:000000000000046f .LASF123
     /tmp/ccScOB5D.s:3905   .debug_str:00000000000004cf .LASF124
     /tmp/ccScOB5D.s:3765   .debug_str:00000000000000d3 .LASF125
     /tmp/ccScOB5D.s:3767   .debug_str:00000000000000dc .LASF126
     /tmp/ccScOB5D.s:3789   .debug_str:00000000000001ab .LASF127
     /tmp/ccScOB5D.s:4051   .debug_str:0000000000000940 .LASF128
     /tmp/ccScOB5D.s:4035   .debug_str:00000000000008f5 .LASF168
     /tmp/ccScOB5D.s:3903   .debug_str:00000000000004ca .LASF129
     /tmp/ccScOB5D.s:3833   .debug_str:0000000000000300 .LASF130
     /tmp/ccScOB5D.s:278    .text:0000000000000280 .LFE44
     /tmp/ccScOB5D.s:3817   .debug_str:0000000000000299 .LASF131
     /tmp/ccScOB5D.s:3891   .debug_str:000000000000048a .LASF132
     /tmp/ccScOB5D.s:3466   .debug_loc:0000000000000000 .LLST0
     /tmp/ccScOB5D.s:3993   .debug_str:000000000000074e .LASF133
     /tmp/ccScOB5D.s:3499   .debug_loc:000000000000008a .LLST1
     /tmp/ccScOB5D.s:3995   .debug_str:0000000000000753 .LASF134
     /tmp/ccScOB5D.s:3532   .debug_loc:0000000000000114 .LLST2
     /tmp/ccScOB5D.s:3825   .debug_str:00000000000002e1 .LASF135
     /tmp/ccScOB5D.s:3565   .debug_loc:000000000000019d .LLST3
     /tmp/ccScOB5D.s:3596   .debug_loc:0000000000000223 .LLST4
     /tmp/ccScOB5D.s:3973   .debug_str:00000000000006ba .LASF136
     /tmp/ccScOB5D.s:3971   .debug_str:00000000000006b2 .LASF137
GAS LISTING /tmp/ccScOB5D.s 			page 26


     /tmp/ccScOB5D.s:3969   .debug_str:00000000000006aa .LASF138
     /tmp/ccScOB5D.s:41     .text:000000000000002c .LVL0
     /tmp/ccScOB5D.s:47     .text:0000000000000038 .LVL1
     /tmp/ccScOB5D.s:55     .text:0000000000000050 .LVL2
     /tmp/ccScOB5D.s:87     .text:0000000000000088 .LVL7
     /tmp/ccScOB5D.s:97     .text:00000000000000a4 .LVL8
     /tmp/ccScOB5D.s:111    .text:00000000000000c4 .LVL11
     /tmp/ccScOB5D.s:115    .text:00000000000000d4 .LVL12
     /tmp/ccScOB5D.s:123    .text:00000000000000e8 .LVL14
     /tmp/ccScOB5D.s:129    .text:00000000000000f8 .LVL15
     /tmp/ccScOB5D.s:135    .text:0000000000000108 .LVL16
     /tmp/ccScOB5D.s:140    .text:0000000000000114 .LVL17
     /tmp/ccScOB5D.s:148    .text:0000000000000128 .LVL18
     /tmp/ccScOB5D.s:156    .text:000000000000013c .LVL19
     /tmp/ccScOB5D.s:167    .text:0000000000000160 .LVL20
     /tmp/ccScOB5D.s:175    .text:000000000000017c .LVL21
     /tmp/ccScOB5D.s:183    .text:0000000000000198 .LVL22
     /tmp/ccScOB5D.s:191    .text:00000000000001b4 .LVL23
     /tmp/ccScOB5D.s:196    .text:00000000000001c0 .LVL24
     /tmp/ccScOB5D.s:202    .text:00000000000001d0 .LVL25
     /tmp/ccScOB5D.s:208    .text:00000000000001e0 .LVL26
     /tmp/ccScOB5D.s:214    .text:00000000000001f0 .LVL27
     /tmp/ccScOB5D.s:219    .text:0000000000000200 .LVL28
     /tmp/ccScOB5D.s:229    .text:0000000000000214 .LVL30
     /tmp/ccScOB5D.s:232    .text:0000000000000220 .LVL31
     /tmp/ccScOB5D.s:238    .text:000000000000022c .LVL32
     /tmp/ccScOB5D.s:243    .text:000000000000023c .LVL33
     /tmp/ccScOB5D.s:254    .text:0000000000000254 .LVL35
     /tmp/ccScOB5D.s:258    .text:0000000000000264 .LVL36
     /tmp/ccScOB5D.s:3829   .debug_str:00000000000002f6 .LASF139
     /tmp/ccScOB5D.s:3763   .debug_str:00000000000000c9 .LASF140
     /tmp/ccScOB5D.s:304    .text:0000000000000280 .LFB43
     /tmp/ccScOB5D.s:318    .text:0000000000000290 .LFE43
     /tmp/ccScOB5D.s:574    .text._ZN11ThreadQueuedlEPv:0000000000000000 .LFB33
     /tmp/ccScOB5D.s:600    .text._ZN11ThreadQueuedlEPv:0000000000000028 .LFE33
     /tmp/ccScOB5D.s:3623   .debug_loc:0000000000000299 .LLST10
     /tmp/ccScOB5D.s:589    .text._ZN11ThreadQueuedlEPv:0000000000000018 .LVL53
     /tmp/ccScOB5D.s:541    .text._ZN11ThreadQueuenwEm:0000000000000000 .LFB32
     /tmp/ccScOB5D.s:567    .text._ZN11ThreadQueuenwEm:0000000000000028 .LFE32
     /tmp/ccScOB5D.s:3881   .debug_str:0000000000000457 .LASF141
     /tmp/ccScOB5D.s:3637   .debug_loc:00000000000002d2 .LLST9
     /tmp/ccScOB5D.s:556    .text._ZN11ThreadQueuenwEm:0000000000000018 .LVL51
     /tmp/ccScOB5D.s:3831   .debug_str:00000000000002fb .LASF142
     /tmp/ccScOB5D.s:3747   .debug_str:0000000000000058 .LASF143
     /tmp/ccScOB5D.s:3955   .debug_str:0000000000000640 .LASF169
     /tmp/ccScOB5D.s:3837   .debug_str:0000000000000315 .LASF144
     /tmp/ccScOB5D.s:455    .text._ZN11ThreadQueueD2Ev:0000000000000000 .LFB29
     /tmp/ccScOB5D.s:525    .text._ZN11ThreadQueueD2Ev:000000000000004c .LFE29
     /tmp/ccScOB5D.s:3651   .debug_loc:000000000000030b .LLST5
     /tmp/ccScOB5D.s:477    .text._ZN11ThreadQueueD2Ev:0000000000000018 .LBB11
     /tmp/ccScOB5D.s:484    .text._ZN11ThreadQueueD2Ev:000000000000001c .LBE11
     /tmp/ccScOB5D.s:3669   .debug_loc:0000000000000357 .LLST6
     /tmp/ccScOB5D.s:487    .text._ZN11ThreadQueueD2Ev:0000000000000020 .LBB13
     /tmp/ccScOB5D.s:510    .text._ZN11ThreadQueueD2Ev:0000000000000038 .LBE13
     /tmp/ccScOB5D.s:3676   .debug_loc:000000000000037a .LLST7
     /tmp/ccScOB5D.s:499    .text._ZN11ThreadQueueD2Ev:000000000000002c .LBB14
     /tmp/ccScOB5D.s:509    .text._ZN11ThreadQueueD2Ev:0000000000000038 .LBE14
GAS LISTING /tmp/ccScOB5D.s 			page 27


     /tmp/ccScOB5D.s:3683   .debug_loc:000000000000039d .LLST8
     /tmp/ccScOB5D.s:504    .text._ZN11ThreadQueueD2Ev:0000000000000034 .LVL48
     /tmp/ccScOB5D.s:3745   .debug_str:0000000000000043 .LASF145
     /tmp/ccScOB5D.s:422    .text._ZN11ThreadQueueC2Ev:0000000000000000 .LFB26
     /tmp/ccScOB5D.s:446    .text._ZN11ThreadQueueC2Ev:0000000000000020 .LFE26
     /tmp/ccScOB5D.s:390    .text._ZN5Riscv10mc_sstatusEm:0000000000000000 .LFB11
     /tmp/ccScOB5D.s:415    .text._ZN5Riscv10mc_sstatusEm:000000000000001c .LFE11
     /tmp/ccScOB5D.s:4041   .debug_str:000000000000091c .LASF146
     /tmp/ccScOB5D.s:358    .text._ZN5Riscv10ms_sstatusEm:0000000000000000 .LFB10
     /tmp/ccScOB5D.s:383    .text._ZN5Riscv10ms_sstatusEm:000000000000001c .LFE10
     /tmp/ccScOB5D.s:325    .text._ZN5Riscv7w_stvecEm:0000000000000000 .LFB5
     /tmp/ccScOB5D.s:351    .text._ZN5Riscv7w_stvecEm:000000000000001c .LFE5
     /tmp/ccScOB5D.s:3895   .debug_str:0000000000000497 .LASF147
     /tmp/ccScOB5D.s:4031   .debug_str:00000000000008ea .LASF148
     /tmp/ccScOB5D.s:3921   .debug_str:0000000000000553 .LASF149
     /tmp/ccScOB5D.s:4037   .debug_str:00000000000008ff .LASF150
     /tmp/ccScOB5D.s:3915   .debug_str:0000000000000515 .LASF151
     /tmp/ccScOB5D.s:3913   .debug_str:0000000000000509 .LASF152
     /tmp/ccScOB5D.s:3981   .debug_str:00000000000006f1 .LASF153
     /tmp/ccScOB5D.s:4067   .debug_str:00000000000009d5 .LASF154
     /tmp/ccScOB5D.s:4043   .debug_str:0000000000000921 .LASF155
     /tmp/ccScOB5D.s:4071   .debug_str:00000000000009f7 .LASF170
     /tmp/ccScOB5D.s:3843   .debug_str:000000000000034e .LASF171
     /tmp/ccScOB5D.s:3941   .debug_str:00000000000005de .LASF156
     /tmp/ccScOB5D.s:3855   .debug_str:00000000000003aa .LASF157
     /tmp/ccScOB5D.s:3847   .debug_str:0000000000000374 .LASF158
     /tmp/ccScOB5D.s:3901   .debug_str:00000000000004c0 .LASF159
     /tmp/ccScOB5D.s:66     .text:0000000000000064 .LVL3
     /tmp/ccScOB5D.s:81     .text:0000000000000074 .LVL6
     /tmp/ccScOB5D.s:248    .text:0000000000000244 .LVL34
     /tmp/ccScOB5D.s:268    .text:0000000000000270 .LVL37
     /tmp/ccScOB5D.s:275    .text:000000000000027c .LVL38
     /tmp/ccScOB5D.s:70     .text:0000000000000068 .LVL4
     /tmp/ccScOB5D.s:74     .text:000000000000006c .LVL5
     /tmp/ccScOB5D.s:100    .text:00000000000000ac .LVL9
     /tmp/ccScOB5D.s:109    .text:00000000000000bc .LVL10
     /tmp/ccScOB5D.s:117    .text:00000000000000d8 .LVL13
     /tmp/ccScOB5D.s:223    .text:0000000000000204 .LVL29
     /tmp/ccScOB5D.s:577    .text._ZN11ThreadQueuedlEPv:0000000000000000 .LVL52
     /tmp/ccScOB5D.s:544    .text._ZN11ThreadQueuenwEm:0000000000000000 .LVL50
     /tmp/ccScOB5D.s:460    .text._ZN11ThreadQueueD2Ev:0000000000000000 .LVL43
     /tmp/ccScOB5D.s:472    .text._ZN11ThreadQueueD2Ev:0000000000000018 .LVL44
     /tmp/ccScOB5D.s:520    .text._ZN11ThreadQueueD2Ev:0000000000000044 .LVL49
     /tmp/ccScOB5D.s:482    .text._ZN11ThreadQueueD2Ev:000000000000001c .LVL45
     /tmp/ccScOB5D.s:489    .text._ZN11ThreadQueueD2Ev:0000000000000020 .LVL46
     /tmp/ccScOB5D.s:498    .text._ZN11ThreadQueueD2Ev:000000000000002c .LVL47
     /tmp/ccScOB5D.s:617    .debug_info:0000000000000000 .Ldebug_info0
     /tmp/ccScOB5D.s:5      .text:0000000000000000 .Ltext0
     /tmp/ccScOB5D.s:610    .text:0000000000000290 .Letext0
     /tmp/ccScOB5D.s:281    .gcc_except_table:0000000000000000 .LLSDA44
     /tmp/ccScOB5D.s:527    .gcc_except_table:000000000000002b .LLSDA29
                           .group:0000000000000000 _ZN11ThreadQueueC5Ev
                           .group:0000000000000000 _ZN11ThreadQueueD5Ev

UNDEFINED SYMBOLS
interruptHandler
_Znwm
GAS LISTING /tmp/ccScOB5D.s 			page 28


_ZN9SemaphoreC1Ej
_Z13thread_createPP3TCBPFvPvES2_
_ZN3TCB7runningE
_ZN11ThreadQueue7putLastEP3TCB
_ZN11ThreadQueue8getFirstEv
_Z5nit1fPv
_Z5nit2fPv
_Z5nit3fPv
_Z11thread_joinP3TCB
_Z11printStringPKc
_ZdlPv
_Unwind_Resume
__gxx_personality_v0
_Z8mem_freePv
_Z9mem_allocm
