GAS LISTING /tmp/ccYvzosu.s 			page 1


   1              		.file	"main.cpp"
   2              		.option pic
   3              		.option norelax
   4              		.text
   5              	.Ltext0:
   6              		.section	.rodata
   7              		.align	3
   8              	.LC0:
   9 0000 0A50726F 		.string	"\nProsao while\n"
   9      73616F20 
   9      7768696C 
   9      650A00
  10 000f 00       		.align	3
  11              	.LC1:
  12 0010 0A536164 		.string	"\nSad cu da izadjem\n"
  12      20637520 
  12      64612069 
  12      7A61646A 
  12      656D0A00 
  13              		.text
  14              		.align	2
  15              		.globl	main
  17              	main:
  18              	.LFB28:
  19              		.file 1 "src/main.cpp"
   1:src/main.cpp  **** #include "../lib/console.h"
   2:src/main.cpp  **** #include "../lib/hw.h"
   3:src/main.cpp  **** #include "../h/helper.hpp"
   4:src/main.cpp  **** #include "../h/Riscv.hpp"
   5:src/main.cpp  **** #include "../h/syscall_c.hpp"
   6:src/main.cpp  **** #include "../h/syscall_cpp.hpp"
   7:src/main.cpp  **** #include "../h/List.hpp"
   8:src/main.cpp  **** //#include "../h/MemoryAllocator.hpp"
   9:src/main.cpp  **** #include "../h/TCB.hpp"
  10:src/main.cpp  **** 
  11:src/main.cpp  **** 
  12:src/main.cpp  **** extern "C" void interruptHandler();
  13:src/main.cpp  **** //void userMain();
  14:src/main.cpp  **** 
  15:src/main.cpp  **** void testMemory();
  16:src/main.cpp  **** //uint64 temp;
  17:src/main.cpp  **** //
  18:src/main.cpp  **** //void f() {
  19:src/main.cpp  **** //	__putc('a');
  20:src/main.cpp  **** //	__putc('\n');
  21:src/main.cpp  **** //	uint64 var = temp;
  22:src/main.cpp  **** //	__asm__ volatile ("mv ra, %[savedPC]": : [savedPC] "r"(var));
  23:src/main.cpp  **** //
  24:src/main.cpp  **** //	__asm__ volatile ("sd ra, 8(sp)");
  25:src/main.cpp  **** //}
  26:src/main.cpp  **** //
  27:src/main.cpp  **** //void dispatch() {
  28:src/main.cpp  **** //	__asm__ volatile ("mv %[savedPC], ra":[savedPC] "=r"(temp));
  29:src/main.cpp  **** //	__asm__ volatile("mv ra, %[fAddress]": : [fAddress] "r"(&f));
  30:src/main.cpp  **** //}
  31:src/main.cpp  **** 
  32:src/main.cpp  **** void nit1f(void*) {
GAS LISTING /tmp/ccYvzosu.s 			page 2


  33:src/main.cpp  **** 	printString("\nusao u nit 1\n");
  34:src/main.cpp  **** 	__asm__ volatile("li t1, 100");
  35:src/main.cpp  **** 	//thread_dispatch();
  36:src/main.cpp  **** 	volatile uint64 t1;
  37:src/main.cpp  **** 	__asm__ volatile("mv %0, t1":"=r"(t1));
  38:src/main.cpp  **** 	printString("\nopet u niti 1\n");
  39:src/main.cpp  **** 	printString("\nt1 = ");
  40:src/main.cpp  **** 
  41:src/main.cpp  **** 	printInteger(t1);
  42:src/main.cpp  **** 
  43:src/main.cpp  **** 	for(int i=0;i<1000000;i++){
  44:src/main.cpp  **** 		if(i%1200==0) {
  45:src/main.cpp  **** 			printString("Nit1: ");
  46:src/main.cpp  **** 			printInteger(i);
  47:src/main.cpp  **** 			printString("\n");
  48:src/main.cpp  **** 		}
  49:src/main.cpp  **** 		if(i%120203==0){
  50:src/main.cpp  **** 			//printString("\nyield n1\n");
  51:src/main.cpp  **** 			//thread_dispatch();
  52:src/main.cpp  **** 		}
  53:src/main.cpp  **** 	}
  54:src/main.cpp  **** 
  55:src/main.cpp  **** 	printString("\nGotova nit 1\n");
  56:src/main.cpp  **** }
  57:src/main.cpp  **** void nit2f(void* arg2) {
  58:src/main.cpp  **** 	printString("\nusao u nit 2\n");
  59:src/main.cpp  **** 
  60:src/main.cpp  **** 	printInteger(*(uint64*)arg2);
  61:src/main.cpp  **** 	*(uint64*)arg2+=10;
  62:src/main.cpp  **** 	__asm__ volatile("li t1, 200");
  63:src/main.cpp  **** 	//thread_dispatch();
  64:src/main.cpp  **** 	volatile uint64 t1;
  65:src/main.cpp  **** 	__asm__ volatile("mv %0, t1":"=r"(t1));
  66:src/main.cpp  **** 	printString("\nopet u niti 2\n");
  67:src/main.cpp  **** 	printString("\nt1 = ");
  68:src/main.cpp  **** 	printInteger(t1);
  69:src/main.cpp  **** 	printString("\n");
  70:src/main.cpp  **** 	for(int i=0;i<1000000;i++){
  71:src/main.cpp  **** 		if(i%3500==0) {
  72:src/main.cpp  **** 			printString("Nit2: ");
  73:src/main.cpp  **** 			printInteger(i);
  74:src/main.cpp  **** 			printString("\n");
  75:src/main.cpp  **** 		}
  76:src/main.cpp  **** 		if(i%54203==0){
  77:src/main.cpp  **** 			printString("\nyield n2\n");
  78:src/main.cpp  **** 			thread_dispatch();
  79:src/main.cpp  **** 		}
  80:src/main.cpp  **** 	}
  81:src/main.cpp  **** 	printString("\nPokusavam da ugasim nit 2\n");
  82:src/main.cpp  **** 	//thread_exit();
  83:src/main.cpp  **** 	printString("\nNisam uspeo da ugasim nit 2\n");
  84:src/main.cpp  **** 	printInteger(*(uint64*)arg2);
  85:src/main.cpp  **** 	printString("\nGotova nit 2\n");
  86:src/main.cpp  **** }
  87:src/main.cpp  **** #pragma GCC optimize("O0")
  88:src/main.cpp  **** 
  89:src/main.cpp  **** int main() {
GAS LISTING /tmp/ccYvzosu.s 			page 3


  20              		.loc 1 89 12
  21              		.cfi_startproc
  22 0000 130101FD 		addi	sp,sp,-48
  23              		.cfi_def_cfa_offset 48
  24 0004 23341102 		sd	ra,40(sp)
  25 0008 23308102 		sd	s0,32(sp)
  26              		.cfi_offset 1, -8
  27              		.cfi_offset 8, -16
  28 000c 13040103 		addi	s0,sp,48
  29              		.cfi_def_cfa 8, 0
  90:src/main.cpp  **** 
  91:src/main.cpp  **** 	//zabrani prekide
  92:src/main.cpp  **** 	Riscv::mc_sstatus(Riscv::SSTATUS_SIE);
  30              		.loc 1 92 2
  31              		.loc 1 92 19 is_stmt 0
  32 0010 13052000 		li	a0,2
  33 0014 97000000 		call	_ZN5Riscv10mc_sstatusEm
  33      E7800000 
  34              	.LVL0:
  93:src/main.cpp  **** 
  94:src/main.cpp  **** 	//postavi adresu prekidne rutine u stvec
  95:src/main.cpp  **** 	Riscv::w_stvec((uint64)&interruptHandler);
  35              		.loc 1 95 2 is_stmt 1
  36              		.loc 1 95 16 is_stmt 0
  37 001c 97070000 		la	a5,interruptHandler
  37      83B70700 
  38 0024 13850700 		mv	a0,a5
  39 0028 97000000 		call	_ZN5Riscv7w_stvecEm
  39      E7800000 
  40              	.LVL1:
  96:src/main.cpp  **** 
  97:src/main.cpp  **** 
  98:src/main.cpp  **** 
  99:src/main.cpp  **** 
 100:src/main.cpp  **** 	//testiranje alociranja memorije
 101:src/main.cpp  **** 	//testMemory();
 102:src/main.cpp  **** //	uint64* ptr = new uint64;
 103:src/main.cpp  **** //	*ptr = 6;
 104:src/main.cpp  **** //	printInteger(*ptr);
 105:src/main.cpp  **** 
 106:src/main.cpp  **** 	//testiranje liste
 107:src/main.cpp  **** //	List<uint64>* lista = new List<uint64>();
 108:src/main.cpp  **** //	uint64 num = 10;
 109:src/main.cpp  **** //	lista->addFirst(&num);
 110:src/main.cpp  **** //	println("");
 111:src/main.cpp  **** //	printInteger(*(lista->peekFirst()));
 112:src/main.cpp  **** //	delete lista;
 113:src/main.cpp  **** //	println("");
 114:src/main.cpp  **** 
 115:src/main.cpp  **** 	//testiranje kreiranja niti
 116:src/main.cpp  **** 	thread_t glavnaNit = nullptr;
  41              		.loc 1 116 2 is_stmt 1
  42              		.loc 1 116 11 is_stmt 0
  43 0030 233004FE 		sd	zero,-32(s0)
 117:src/main.cpp  **** 	thread_t nit1 = nullptr;
  44              		.loc 1 117 2 is_stmt 1
  45              		.loc 1 117 11 is_stmt 0
GAS LISTING /tmp/ccYvzosu.s 			page 4


  46 0034 233C04FC 		sd	zero,-40(s0)
 118:src/main.cpp  **** 	thread_t nit2 = nullptr;
  47              		.loc 1 118 2 is_stmt 1
  48              		.loc 1 118 11 is_stmt 0
  49 0038 233804FC 		sd	zero,-48(s0)
 119:src/main.cpp  **** 	thread_create(&glavnaNit, nullptr, nullptr);
  50              		.loc 1 119 2 is_stmt 1
  51              		.loc 1 119 15 is_stmt 0
  52 003c 930704FE 		addi	a5,s0,-32
  53 0040 13060000 		li	a2,0
  54 0044 93050000 		li	a1,0
  55 0048 13850700 		mv	a0,a5
  56 004c 97000000 		call	_Z13thread_createPP3TCBPFvPvES2_@plt
  56      E7800000 
  57              	.LVL2:
 120:src/main.cpp  **** 	TCB::running = glavnaNit;
  58              		.loc 1 120 2 is_stmt 1
  59              		.loc 1 120 15 is_stmt 0
  60 0054 033704FE 		ld	a4,-32(s0)
  61 0058 97070000 		la	a5,_ZN3TCB7runningE
  61      83B70700 
  62 0060 23B0E700 		sd	a4,0(a5)
 121:src/main.cpp  **** 	uint64* arg = new uint64;
  63              		.loc 1 121 2 is_stmt 1
  64              		.loc 1 121 20 is_stmt 0
  65 0064 13058000 		li	a0,8
  66 0068 97000000 		call	_Znwm@plt
  66      E7800000 
  67              	.LVL3:
  68 0070 93070500 		mv	a5,a0
  69 0074 2334F4FE 		sd	a5,-24(s0)
  70              	.LVL4:
 122:src/main.cpp  **** 	*arg = 666;
  71              		.loc 1 122 2 is_stmt 1
  72              		.loc 1 122 7 is_stmt 0
  73 0078 833784FE 		ld	a5,-24(s0)
  74 007c 1307A029 		li	a4,666
  75 0080 23B0E700 		sd	a4,0(a5)
 123:src/main.cpp  **** 	thread_create(&nit1, nit1f, nullptr);
  76              		.loc 1 123 2 is_stmt 1
  77              		.loc 1 123 15 is_stmt 0
  78 0084 930784FD 		addi	a5,s0,-40
  79 0088 13060000 		li	a2,0
  80 008c 97050000 		lla	a1,_Z5nit1fPv
  80      93850500 
  81 0094 13850700 		mv	a0,a5
  82              	.LVL5:
  83 0098 97000000 		call	_Z13thread_createPP3TCBPFvPvES2_@plt
  83      E7800000 
  84              	.LVL6:
 124:src/main.cpp  **** 	thread_create(&nit2, nit2f, arg);
  85              		.loc 1 124 2 is_stmt 1
  86              		.loc 1 124 15 is_stmt 0
  87 00a0 930704FD 		addi	a5,s0,-48
  88 00a4 033684FE 		ld	a2,-24(s0)
  89 00a8 97050000 		lla	a1,_Z5nit2fPv
  89      93850500 
GAS LISTING /tmp/ccYvzosu.s 			page 5


  90 00b0 13850700 		mv	a0,a5
  91 00b4 97000000 		call	_Z13thread_createPP3TCBPFvPvES2_@plt
  91      E7800000 
  92              	.LVL7:
 125:src/main.cpp  **** 
 126:src/main.cpp  **** 	//omoguci prekide
 127:src/main.cpp  **** 	Riscv::ms_sstatus(Riscv::SSTATUS_SIE);
  93              		.loc 1 127 2 is_stmt 1
  94              		.loc 1 127 19 is_stmt 0
  95 00bc 13052000 		li	a0,2
  96 00c0 97000000 		call	_ZN5Riscv10ms_sstatusEm
  96      E7800000 
  97              	.LVL8:
  98              	.L6:
 128:src/main.cpp  **** 
 129:src/main.cpp  **** 	while(!nit1->isFinished() || !nit2->isFinished()){
  99              		.loc 1 129 2 is_stmt 1
 100              		.loc 1 129 28
 101              		.loc 1 129 25 is_stmt 0
 102 00c8 833784FD 		ld	a5,-40(s0)
 103 00cc 13850700 		mv	a0,a5
 104 00d0 97000000 		call	_ZN3TCB10isFinishedEv
 104      E7800000 
 105              	.LVL9:
 106 00d8 93070500 		mv	a5,a0
 107              		.loc 1 129 8
 108 00dc 93C71700 		xori	a5,a5,1
 109 00e0 93F7F70F 		andi	a5,a5,0xff
 110              		.loc 1 129 28
 111 00e4 63920702 		bnez	a5,.L2
 112              		.loc 1 129 48 discriminator 2
 113 00e8 833704FD 		ld	a5,-48(s0)
 114 00ec 13850700 		mv	a0,a5
 115 00f0 97000000 		call	_ZN3TCB10isFinishedEv
 115      E7800000 
 116              	.LVL10:
 117 00f8 93070500 		mv	a5,a0
 118              		.loc 1 129 31 discriminator 2
 119 00fc 93C71700 		xori	a5,a5,1
 120 0100 93F7F70F 		andi	a5,a5,0xff
 121              		.loc 1 129 28 discriminator 2
 122 0104 63860700 		beqz	a5,.L3
 123              	.L2:
 124              		.loc 1 129 28 discriminator 3
 125 0108 93071000 		li	a5,1
 126 010c 6F008000 		j	.L4
 127              	.L3:
 128              		.loc 1 129 28 discriminator 4
 129 0110 93070000 		li	a5,0
 130              	.L4:
 131              		.loc 1 129 28 discriminator 6
 132 0114 63880700 		beqz	a5,.L5
 130:src/main.cpp  **** 		thread_dispatch();
 133              		.loc 1 130 3 is_stmt 1
 134              		.loc 1 130 18 is_stmt 0
 135 0118 97000000 		call	_Z15thread_dispatchv@plt
 135      E7800000 
GAS LISTING /tmp/ccYvzosu.s 			page 6


 136              	.LVL11:
 129:src/main.cpp  **** 		thread_dispatch();
 137              		.loc 1 129 2
 138 0120 6FF09FFA 		j	.L6
 139              	.L5:
 131:src/main.cpp  **** 	}
 132:src/main.cpp  **** 	printString("\nProsao while\n");
 140              		.loc 1 132 2 is_stmt 1
 141              		.loc 1 132 13 is_stmt 0
 142 0124 17050000 		lla	a0,.LC0
 142      13050500 
 143 012c 97000000 		call	_Z11printStringPKc@plt
 143      E7800000 
 144              	.LVL12:
 133:src/main.cpp  **** 
 134:src/main.cpp  **** 	//zabrani prekide
 135:src/main.cpp  **** 	Riscv::mc_sstatus(Riscv::SSTATUS_SIE);
 145              		.loc 1 135 2 is_stmt 1
 146              		.loc 1 135 19 is_stmt 0
 147 0134 13052000 		li	a0,2
 148 0138 97000000 		call	_ZN5Riscv10mc_sstatusEm
 148      E7800000 
 149              	.LVL13:
 136:src/main.cpp  **** 	printString("\nSad cu da izadjem\n");
 150              		.loc 1 136 2 is_stmt 1
 151              		.loc 1 136 13 is_stmt 0
 152 0140 17050000 		lla	a0,.LC1
 152      13050500 
 153 0148 97000000 		call	_Z11printStringPKc@plt
 153      E7800000 
 154              	.LVL14:
 137:src/main.cpp  **** 
 138:src/main.cpp  **** //testiranje svega
 139:src/main.cpp  **** //	thread_t mainHandle;
 140:src/main.cpp  **** //	thread_t userHandle;
 141:src/main.cpp  **** //	thread_create(&mainHandle, nullptr, nullptr);
 142:src/main.cpp  **** //	TCB::running = mainHandle;
 143:src/main.cpp  **** //	thread_create(&userHandle, (TCB::Body)userMain, nullptr);
 144:src/main.cpp  **** //	while (!userHandle->isFinished()) {
 145:src/main.cpp  **** //		thread_dispatch();
 146:src/main.cpp  **** //	}
 147:src/main.cpp  **** //	Riscv::mc_sstatus(Riscv::SSTATUS_SIE);
 148:src/main.cpp  **** 	return 0;
 155              		.loc 1 148 2 is_stmt 1
 156              		.loc 1 148 9 is_stmt 0
 157 0150 93070000 		li	a5,0
 149:src/main.cpp  **** }...
 158              		.loc 1 149 1
 159 0154 13850700 		mv	a0,a5
 160 0158 83308102 		ld	ra,40(sp)
 161              		.cfi_restore 1
 162 015c 03340102 		ld	s0,32(sp)
 163              		.cfi_restore 8
 164              		.cfi_def_cfa 2, 48
 165              	.LVL15:
 166 0160 13010103 		addi	sp,sp,48
 167              		.cfi_def_cfa_offset 0
GAS LISTING /tmp/ccYvzosu.s 			page 7


 168              	.LVL16:
 169 0164 67800000 		jr	ra
 170              		.cfi_endproc
 171              	.LFE28:
 173              		.align	2
 174              		.globl	_Z5nit1fPv
 176              	_Z5nit1fPv:
 177              	.LFB26:
  32:src/main.cpp  **** void nit1f(void*) {
 178              		.loc 1 32 19 is_stmt 1
 179              		.cfi_startproc
 180 0168 130101FD 		addi	sp,sp,-48
 181              		.cfi_def_cfa_offset 48
 182 016c 23341102 		sd	ra,40(sp)
 183 0170 23308102 		sd	s0,32(sp)
 184 0174 233C9100 		sd	s1,24(sp)
 185              		.cfi_offset 1, -8
 186              		.cfi_offset 8, -16
 187              		.cfi_offset 9, -24
 188 0178 13040103 		addi	s0,sp,48
 189              		.cfi_def_cfa 8, 0
  33:src/main.cpp  **** 	printString("\nusao u nit 1\n");
 190              		.loc 1 33 2
  33:src/main.cpp  **** 	printString("\nusao u nit 1\n");
 191              		.loc 1 33 13 is_stmt 0
 192 017c 17050000 		lla	a0,.LANCHOR0
 192      13050500 
 193 0184 97000000 		call	_Z11printStringPKc@plt
 193      E7800000 
 194              	.LVL17:
  34:src/main.cpp  **** 	__asm__ volatile("li t1, 100");
 195              		.loc 1 34 2 is_stmt 1
  34:src/main.cpp  **** 	__asm__ volatile("li t1, 100");
 196              		.loc 1 34 32 is_stmt 0
 197              	#APP
 198              	# 34 "src/main.cpp" 1
  36:src/main.cpp  **** 	volatile uint64 t1;
 199              		li t1, 100
 200              	# 0 "" 2
 201              		.loc 1 36 2 is_stmt 1
  37:src/main.cpp  **** 	__asm__ volatile("mv %0, t1":"=r"(t1));
 202              		.loc 1 37 2
  37:src/main.cpp  **** 	__asm__ volatile("mv %0, t1":"=r"(t1));
 203              		.loc 1 37 40 is_stmt 0
 204              	# 37 "src/main.cpp" 1
 205              		mv a5, t1
 206              	# 0 "" 2
 207              	#NO_APP
 208 0194 233CF4FC 		sd	a5,-40(s0)
  38:src/main.cpp  **** 	printString("\nopet u niti 1\n");
 209              		.loc 1 38 2 is_stmt 1
  38:src/main.cpp  **** 	printString("\nopet u niti 1\n");
 210              		.loc 1 38 13 is_stmt 0
 211 0198 17050000 		lla	a0,.LANCHOR0+16
 211      13050500 
 212 01a0 97000000 		call	_Z11printStringPKc@plt
 212      E7800000 
GAS LISTING /tmp/ccYvzosu.s 			page 8


 213              	.LVL18:
  39:src/main.cpp  **** 	printString("\nt1 = ");
 214              		.loc 1 39 2 is_stmt 1
  39:src/main.cpp  **** 	printString("\nt1 = ");
 215              		.loc 1 39 13 is_stmt 0
 216 01a8 17050000 		lla	a0,.LANCHOR0+32
 216      13050500 
 217 01b0 97000000 		call	_Z11printStringPKc@plt
 217      E7800000 
 218              	.LVL19:
  41:src/main.cpp  **** 	printInteger(t1);
 219              		.loc 1 41 2 is_stmt 1
  41:src/main.cpp  **** 	printInteger(t1);
 220              		.loc 1 41 14 is_stmt 0
 221 01b8 033584FD 		ld	a0,-40(s0)
 222 01bc 97000000 		call	_Z12printIntegerm@plt
 222      E7800000 
 223              	.LVL20:
  43:src/main.cpp  **** 	for(int i=0;i<1000000;i++){
 224              		.loc 1 43 2 is_stmt 1
 225              	.LBB2:
  43:src/main.cpp  **** 	for(int i=0;i<1000000;i++){
 226              		.loc 1 43 10 is_stmt 0
 227 01c4 93040000 		li	s1,0
 228 01c8 6F004003 		j	.L11
 229              	.LVL21:
 230              	.L13:
  45:src/main.cpp  **** 			printString("Nit1: ");
 231              		.loc 1 45 4 is_stmt 1
  45:src/main.cpp  **** 			printString("Nit1: ");
 232              		.loc 1 45 15 is_stmt 0
 233 01cc 17050000 		lla	a0,.LANCHOR0+40
 233      13050500 
 234 01d4 97000000 		call	_Z11printStringPKc@plt
 234      E7800000 
 235              	.LVL22:
  46:src/main.cpp  **** 			printInteger(i);
 236              		.loc 1 46 4 is_stmt 1
  46:src/main.cpp  **** 			printInteger(i);
 237              		.loc 1 46 16 is_stmt 0
 238 01dc 13850400 		mv	a0,s1
 239 01e0 97000000 		call	_Z12printIntegerm@plt
 239      E7800000 
 240              	.LVL23:
  47:src/main.cpp  **** 			printString("\n");
 241              		.loc 1 47 4 is_stmt 1
  47:src/main.cpp  **** 			printString("\n");
 242              		.loc 1 47 15 is_stmt 0
 243 01e8 17050000 		lla	a0,.LANCHOR0+48
 243      13050500 
 244 01f0 97000000 		call	_Z11printStringPKc@plt
 244      E7800000 
 245              	.LVL24:
 246              	.L10:
  49:src/main.cpp  **** 		if(i%120203==0){
 247              		.loc 1 49 3 is_stmt 1
  43:src/main.cpp  **** 	for(int i=0;i<1000000;i++){
GAS LISTING /tmp/ccYvzosu.s 			page 9


 248              		.loc 1 43 2
 249 01f8 9B841400 		addiw	s1,s1,1
 250              	.LVL25:
 251              	.L11:
  43:src/main.cpp  **** 	for(int i=0;i<1000000;i++){
 252              		.loc 1 43 15 discriminator 1
 253 01fc B7470F00 		li	a5,999424
 254 0200 9387F723 		addi	a5,a5,575
 255 0204 63CA9700 		bgt	s1,a5,.L9
  44:src/main.cpp  **** 		if(i%1200==0) {
 256              		.loc 1 44 3
  44:src/main.cpp  **** 		if(i%1200==0) {
 257              		.loc 1 44 7 is_stmt 0
 258 0208 9307004B 		li	a5,1200
 259 020c BBE7F402 		remw	a5,s1,a5
  44:src/main.cpp  **** 		if(i%1200==0) {
 260              		.loc 1 44 3
 261 0210 E39407FE 		bnez	a5,.L10
 262 0214 6FF09FFB 		j	.L13
 263              	.L9:
 264              	.LBE2:
  55:src/main.cpp  **** 	printString("\nGotova nit 1\n");
 265              		.loc 1 55 2 is_stmt 1
  55:src/main.cpp  **** 	printString("\nGotova nit 1\n");
 266              		.loc 1 55 13 is_stmt 0
 267 0218 17050000 		lla	a0,.LANCHOR0+56
 267      13050500 
 268 0220 97000000 		call	_Z11printStringPKc@plt
 268      E7800000 
 269              	.LVL26:
  56:src/main.cpp  **** }
 270              		.loc 1 56 1
 271 0228 83308102 		ld	ra,40(sp)
 272              		.cfi_restore 1
 273 022c 03340102 		ld	s0,32(sp)
 274              		.cfi_restore 8
 275              		.cfi_def_cfa 2, 48
 276 0230 83348101 		ld	s1,24(sp)
 277              		.cfi_restore 9
 278              	.LVL27:
 279 0234 13010103 		addi	sp,sp,48
 280              		.cfi_def_cfa_offset 0
 281 0238 67800000 		jr	ra
 282              		.cfi_endproc
 283              	.LFE26:
 285              		.align	2
 286              		.globl	_Z5nit2fPv
 288              	_Z5nit2fPv:
 289              	.LFB27:
  57:src/main.cpp  **** void nit2f(void* arg2) {
 290              		.loc 1 57 24 is_stmt 1
 291              		.cfi_startproc
 292              	.LVL28:
 293 023c 130101FD 		addi	sp,sp,-48
 294              		.cfi_def_cfa_offset 48
 295 0240 23341102 		sd	ra,40(sp)
 296 0244 23308102 		sd	s0,32(sp)
GAS LISTING /tmp/ccYvzosu.s 			page 10


 297 0248 233C9100 		sd	s1,24(sp)
 298 024c 23382101 		sd	s2,16(sp)
 299              		.cfi_offset 1, -8
 300              		.cfi_offset 8, -16
 301              		.cfi_offset 9, -24
 302              		.cfi_offset 18, -32
 303 0250 13040103 		addi	s0,sp,48
 304              		.cfi_def_cfa 8, 0
 305 0254 13090500 		mv	s2,a0
  58:src/main.cpp  **** 	printString("\nusao u nit 2\n");
 306              		.loc 1 58 2
  58:src/main.cpp  **** 	printString("\nusao u nit 2\n");
 307              		.loc 1 58 13 is_stmt 0
 308 0258 17050000 		lla	a0,.LANCHOR0+72
 308      13050500 
 309              	.LVL29:
 310 0260 97000000 		call	_Z11printStringPKc@plt
 310      E7800000 
 311              	.LVL30:
  60:src/main.cpp  **** 	printInteger(*(uint64*)arg2);
 312              		.loc 1 60 2 is_stmt 1
  60:src/main.cpp  **** 	printInteger(*(uint64*)arg2);
 313              		.loc 1 60 14 is_stmt 0
 314 0268 03350900 		ld	a0,0(s2)
 315 026c 97000000 		call	_Z12printIntegerm@plt
 315      E7800000 
 316              	.LVL31:
  61:src/main.cpp  **** 	*(uint64*)arg2+=10;
 317              		.loc 1 61 2 is_stmt 1
  61:src/main.cpp  **** 	*(uint64*)arg2+=10;
 318              		.loc 1 61 16 is_stmt 0
 319 0274 83370900 		ld	a5,0(s2)
 320 0278 9387A700 		addi	a5,a5,10
 321 027c 2330F900 		sd	a5,0(s2)
  62:src/main.cpp  **** 	__asm__ volatile("li t1, 200");
 322              		.loc 1 62 2 is_stmt 1
  62:src/main.cpp  **** 	__asm__ volatile("li t1, 200");
 323              		.loc 1 62 32 is_stmt 0
 324              	#APP
 325              	# 62 "src/main.cpp" 1
  64:src/main.cpp  **** 	volatile uint64 t1;
 326              		li t1, 200
 327              	# 0 "" 2
 328              		.loc 1 64 2 is_stmt 1
  65:src/main.cpp  **** 	__asm__ volatile("mv %0, t1":"=r"(t1));
 329              		.loc 1 65 2
  65:src/main.cpp  **** 	__asm__ volatile("mv %0, t1":"=r"(t1));
 330              		.loc 1 65 40 is_stmt 0
 331              	# 65 "src/main.cpp" 1
 332              		mv a5, t1
 333              	# 0 "" 2
 334              	#NO_APP
 335 0288 233CF4FC 		sd	a5,-40(s0)
  66:src/main.cpp  **** 	printString("\nopet u niti 2\n");
 336              		.loc 1 66 2 is_stmt 1
  66:src/main.cpp  **** 	printString("\nopet u niti 2\n");
 337              		.loc 1 66 13 is_stmt 0
GAS LISTING /tmp/ccYvzosu.s 			page 11


 338 028c 17050000 		lla	a0,.LANCHOR0+88
 338      13050500 
 339 0294 97000000 		call	_Z11printStringPKc@plt
 339      E7800000 
 340              	.LVL32:
  67:src/main.cpp  **** 	printString("\nt1 = ");
 341              		.loc 1 67 2 is_stmt 1
  67:src/main.cpp  **** 	printString("\nt1 = ");
 342              		.loc 1 67 13 is_stmt 0
 343 029c 17050000 		lla	a0,.LANCHOR0+32
 343      13050500 
 344 02a4 97000000 		call	_Z11printStringPKc@plt
 344      E7800000 
 345              	.LVL33:
  68:src/main.cpp  **** 	printInteger(t1);
 346              		.loc 1 68 2 is_stmt 1
  68:src/main.cpp  **** 	printInteger(t1);
 347              		.loc 1 68 14 is_stmt 0
 348 02ac 033584FD 		ld	a0,-40(s0)
 349 02b0 97000000 		call	_Z12printIntegerm@plt
 349      E7800000 
 350              	.LVL34:
  69:src/main.cpp  **** 	printString("\n");
 351              		.loc 1 69 2 is_stmt 1
  69:src/main.cpp  **** 	printString("\n");
 352              		.loc 1 69 13 is_stmt 0
 353 02b8 17050000 		lla	a0,.LANCHOR0+48
 353      13050500 
 354 02c0 97000000 		call	_Z11printStringPKc@plt
 354      E7800000 
 355              	.LVL35:
  70:src/main.cpp  **** 	for(int i=0;i<1000000;i++){
 356              		.loc 1 70 2 is_stmt 1
 357              	.LBB3:
  70:src/main.cpp  **** 	for(int i=0;i<1000000;i++){
 358              		.loc 1 70 10 is_stmt 0
 359 02c8 93040000 		li	s1,0
 360 02cc 6F004004 		j	.L18
 361              	.LVL36:
 362              	.L21:
  72:src/main.cpp  **** 			printString("Nit2: ");
 363              		.loc 1 72 4 is_stmt 1
  72:src/main.cpp  **** 			printString("Nit2: ");
 364              		.loc 1 72 15 is_stmt 0
 365 02d0 17050000 		lla	a0,.LANCHOR0+104
 365      13050500 
 366 02d8 97000000 		call	_Z11printStringPKc@plt
 366      E7800000 
 367              	.LVL37:
  73:src/main.cpp  **** 			printInteger(i);
 368              		.loc 1 73 4 is_stmt 1
  73:src/main.cpp  **** 			printInteger(i);
 369              		.loc 1 73 16 is_stmt 0
 370 02e0 13850400 		mv	a0,s1
 371 02e4 97000000 		call	_Z12printIntegerm@plt
 371      E7800000 
 372              	.LVL38:
GAS LISTING /tmp/ccYvzosu.s 			page 12


  74:src/main.cpp  **** 			printString("\n");
 373              		.loc 1 74 4 is_stmt 1
  74:src/main.cpp  **** 			printString("\n");
 374              		.loc 1 74 15 is_stmt 0
 375 02ec 17050000 		lla	a0,.LANCHOR0+48
 375      13050500 
 376 02f4 97000000 		call	_Z11printStringPKc@plt
 376      E7800000 
 377              	.LVL39:
 378              	.L16:
  76:src/main.cpp  **** 		if(i%54203==0){
 379              		.loc 1 76 3 is_stmt 1
  76:src/main.cpp  **** 		if(i%54203==0){
 380              		.loc 1 76 7 is_stmt 0
 381 02fc B7D70000 		li	a5,53248
 382 0300 9B87B73B 		addiw	a5,a5,955
 383 0304 BBE7F402 		remw	a5,s1,a5
  76:src/main.cpp  **** 		if(i%54203==0){
 384              		.loc 1 76 3
 385 0308 63840702 		beqz	a5,.L20
 386              	.L17:
  70:src/main.cpp  **** 	for(int i=0;i<1000000;i++){
 387              		.loc 1 70 2 is_stmt 1 discriminator 2
 388 030c 9B841400 		addiw	s1,s1,1
 389              	.LVL40:
 390              	.L18:
  70:src/main.cpp  **** 	for(int i=0;i<1000000;i++){
 391              		.loc 1 70 15 discriminator 1
 392 0310 B7470F00 		li	a5,999424
 393 0314 9387F723 		addi	a5,a5,575
 394 0318 63CA9702 		bgt	s1,a5,.L15
  71:src/main.cpp  **** 		if(i%3500==0) {
 395              		.loc 1 71 3
  71:src/main.cpp  **** 		if(i%3500==0) {
 396              		.loc 1 71 7 is_stmt 0
 397 031c B7170000 		li	a5,4096
 398 0320 9B87C7DA 		addiw	a5,a5,-596
 399 0324 BBE7F402 		remw	a5,s1,a5
  71:src/main.cpp  **** 		if(i%3500==0) {
 400              		.loc 1 71 3
 401 0328 E39A07FC 		bnez	a5,.L16
 402 032c 6FF05FFA 		j	.L21
 403              	.L20:
  77:src/main.cpp  **** 			printString("\nyield n2\n");
 404              		.loc 1 77 4 is_stmt 1
  77:src/main.cpp  **** 			printString("\nyield n2\n");
 405              		.loc 1 77 15 is_stmt 0
 406 0330 17050000 		lla	a0,.LANCHOR0+112
 406      13050500 
 407 0338 97000000 		call	_Z11printStringPKc@plt
 407      E7800000 
 408              	.LVL41:
  78:src/main.cpp  **** 			thread_dispatch();
 409              		.loc 1 78 4 is_stmt 1
  78:src/main.cpp  **** 			thread_dispatch();
 410              		.loc 1 78 19 is_stmt 0
 411 0340 97000000 		call	_Z15thread_dispatchv@plt
GAS LISTING /tmp/ccYvzosu.s 			page 13


 411      E7800000 
 412              	.LVL42:
 413 0348 6FF05FFC 		j	.L17
 414              	.L15:
 415              	.LBE3:
  81:src/main.cpp  **** 	printString("\nPokusavam da ugasim nit 2\n");
 416              		.loc 1 81 2 is_stmt 1
  81:src/main.cpp  **** 	printString("\nPokusavam da ugasim nit 2\n");
 417              		.loc 1 81 13 is_stmt 0
 418 034c 17050000 		lla	a0,.LANCHOR0+128
 418      13050500 
 419 0354 97000000 		call	_Z11printStringPKc@plt
 419      E7800000 
 420              	.LVL43:
  83:src/main.cpp  **** 	printString("\nNisam uspeo da ugasim nit 2\n");
 421              		.loc 1 83 2 is_stmt 1
  83:src/main.cpp  **** 	printString("\nNisam uspeo da ugasim nit 2\n");
 422              		.loc 1 83 13 is_stmt 0
 423 035c 17050000 		lla	a0,.LANCHOR0+160
 423      13050500 
 424 0364 97000000 		call	_Z11printStringPKc@plt
 424      E7800000 
 425              	.LVL44:
  84:src/main.cpp  **** 	printInteger(*(uint64*)arg2);
 426              		.loc 1 84 2 is_stmt 1
  84:src/main.cpp  **** 	printInteger(*(uint64*)arg2);
 427              		.loc 1 84 14 is_stmt 0
 428 036c 03350900 		ld	a0,0(s2)
 429 0370 97000000 		call	_Z12printIntegerm@plt
 429      E7800000 
 430              	.LVL45:
  85:src/main.cpp  **** 	printString("\nGotova nit 2\n");
 431              		.loc 1 85 2 is_stmt 1
  85:src/main.cpp  **** 	printString("\nGotova nit 2\n");
 432              		.loc 1 85 13 is_stmt 0
 433 0378 17050000 		lla	a0,.LANCHOR0+192
 433      13050500 
 434 0380 97000000 		call	_Z11printStringPKc@plt
 434      E7800000 
 435              	.LVL46:
  86:src/main.cpp  **** }
 436              		.loc 1 86 1
 437 0388 83308102 		ld	ra,40(sp)
 438              		.cfi_restore 1
 439 038c 03340102 		ld	s0,32(sp)
 440              		.cfi_restore 8
 441              		.cfi_def_cfa 2, 48
 442 0390 83348101 		ld	s1,24(sp)
 443              		.cfi_restore 9
 444              	.LVL47:
 445 0394 03390101 		ld	s2,16(sp)
 446              		.cfi_restore 18
 447              	.LVL48:
 448 0398 13010103 		addi	sp,sp,48
 449              		.cfi_def_cfa_offset 0
 450 039c 67800000 		jr	ra
 451              		.cfi_endproc
GAS LISTING /tmp/ccYvzosu.s 			page 14


 452              	.LFE27:
 454              		.section	.text._ZN5Riscv7w_stvecEm,"axG",@progbits,_ZN5Riscv7w_stvecEm,comdat
 455              		.align	2
 456              		.weak	_ZN5Riscv7w_stvecEm
 458              	_ZN5Riscv7w_stvecEm:
 459              	.LFB5:
 460              		.file 2 "src/../h/Riscv.hpp"
   1:src/../h/Riscv.hpp **** //
   2:src/../h/Riscv.hpp **** // Created by os on 5/17/23.
   3:src/../h/Riscv.hpp **** //
   4:src/../h/Riscv.hpp **** 
   5:src/../h/Riscv.hpp **** #ifndef PROJEKAT2023_RISCV_HPP
   6:src/../h/Riscv.hpp **** #define PROJEKAT2023_RISCV_HPP
   7:src/../h/Riscv.hpp **** 
   8:src/../h/Riscv.hpp **** #include "../lib/hw.h"
   9:src/../h/Riscv.hpp **** 
  10:src/../h/Riscv.hpp **** class Riscv {
  11:src/../h/Riscv.hpp **** public:
  12:src/../h/Riscv.hpp **** 
  13:src/../h/Riscv.hpp **** 	static void popSppSpie();
  14:src/../h/Riscv.hpp **** 
  15:src/../h/Riscv.hpp **** 	//stavljanje registara x3-x31 na stek
  16:src/../h/Riscv.hpp **** 	static void pushRegisters();    //implementacija u asm
  17:src/../h/Riscv.hpp **** 
  18:src/../h/Riscv.hpp **** 	//skidanje registara x3-x31 sa steka
  19:src/../h/Riscv.hpp **** 	static void popRegisters();     //implementacija u asm
  20:src/../h/Riscv.hpp **** 
  21:src/../h/Riscv.hpp **** 	//read scause
  22:src/../h/Riscv.hpp **** 	static uint64 r_scause();
  23:src/../h/Riscv.hpp **** 
  24:src/../h/Riscv.hpp **** 	//write scause
  25:src/../h/Riscv.hpp **** 	static void w_scause(uint64 scause);
  26:src/../h/Riscv.hpp **** 
  27:src/../h/Riscv.hpp **** 	//read sepc
  28:src/../h/Riscv.hpp **** 	static uint64 r_sepc();
  29:src/../h/Riscv.hpp **** 
  30:src/../h/Riscv.hpp **** 	//write sepc
  31:src/../h/Riscv.hpp **** 	static void w_sepc(uint64 sepc);
  32:src/../h/Riscv.hpp **** 
  33:src/../h/Riscv.hpp **** 	//read stvec
  34:src/../h/Riscv.hpp **** 	static uint64 r_stvec();
  35:src/../h/Riscv.hpp **** 
  36:src/../h/Riscv.hpp **** 	//write stvec
  37:src/../h/Riscv.hpp **** 	static void w_stvec(uint64 stvec);
  38:src/../h/Riscv.hpp **** 
  39:src/../h/Riscv.hpp **** 	enum BitMaskSip {
  40:src/../h/Riscv.hpp **** 		//postoji zahtev za softverski prekid
  41:src/../h/Riscv.hpp **** 		SIP_SSIP = (1 << 1),
  42:src/../h/Riscv.hpp **** 		//postoji prekid od tajmera
  43:src/../h/Riscv.hpp **** 		SIP_STIP = (1 << 5),
  44:src/../h/Riscv.hpp **** 		//postoji zahtev za spoljasnji hardverski prekid
  45:src/../h/Riscv.hpp **** 		SIP_SEIP = (1 << 9)
  46:src/../h/Riscv.hpp **** 	};
  47:src/../h/Riscv.hpp **** 
  48:src/../h/Riscv.hpp **** 	//mask set sip
  49:src/../h/Riscv.hpp **** 	static void ms_sip(uint64 mask);
  50:src/../h/Riscv.hpp **** 
GAS LISTING /tmp/ccYvzosu.s 			page 15


  51:src/../h/Riscv.hpp **** 	//mask clear sip
  52:src/../h/Riscv.hpp **** 	static void mc_sip(uint64 mask);
  53:src/../h/Riscv.hpp **** 
  54:src/../h/Riscv.hpp **** 	//read sip
  55:src/../h/Riscv.hpp **** 	static uint64 r_sip();
  56:src/../h/Riscv.hpp **** 
  57:src/../h/Riscv.hpp **** 	//write sip
  58:src/../h/Riscv.hpp **** 	static void w_sip(uint64 sip);
  59:src/../h/Riscv.hpp **** 
  60:src/../h/Riscv.hpp **** 	//kada se pozove sret, SIE dobija vrednost SPIE, SPIE se postavlja na 1,
  61:src/../h/Riscv.hpp **** 	//rezim se postavlja na osnovu SPP bita, SPP se postavlja na 0
  62:src/../h/Riscv.hpp **** 	enum BitMaskSstatus {
  63:src/../h/Riscv.hpp **** 		//1 - dozvoljeni prekidi; 0- nedozvoljeni prekidi; igonrise se u korisnickom rezimu
  64:src/../h/Riscv.hpp **** 		SSTATUS_SIE = (1 << 1),
  65:src/../h/Riscv.hpp **** 		//prethodna vrednost bita SIE
  66:src/../h/Riscv.hpp **** 		SSTATUS_SPIE = (1 << 5),
  67:src/../h/Riscv.hpp **** 		//iz kog rezima se desio skok; 0 - iz korisnickog; 1 - iz sistemskog
  68:src/../h/Riscv.hpp **** 		SSTATUS_SPP = (1 << 8)
  69:src/../h/Riscv.hpp **** 	};
  70:src/../h/Riscv.hpp **** 
  71:src/../h/Riscv.hpp **** 	//mask set sstatus
  72:src/../h/Riscv.hpp **** 	static void ms_sstatus(uint64 mask);
  73:src/../h/Riscv.hpp **** 
  74:src/../h/Riscv.hpp **** 	//mask clear sstatus
  75:src/../h/Riscv.hpp **** 	static void mc_sstatus(uint64 mask);
  76:src/../h/Riscv.hpp **** 
  77:src/../h/Riscv.hpp **** 	//read sstatus
  78:src/../h/Riscv.hpp **** 	static uint64 r_sstatus();
  79:src/../h/Riscv.hpp **** 
  80:src/../h/Riscv.hpp **** 	//write sstatus
  81:src/../h/Riscv.hpp **** 	static void w_sstatus(uint64 sstatus);
  82:src/../h/Riscv.hpp **** 
  83:src/../h/Riscv.hpp **** 	//upisuje kod sistemskog poziva u registar a0
  84:src/../h/Riscv.hpp **** 	static void loadOpCode(uint64 opCode);
  85:src/../h/Riscv.hpp **** 
  86:src/../h/Riscv.hpp **** };
  87:src/../h/Riscv.hpp **** 
  88:src/../h/Riscv.hpp **** inline uint64 Riscv::r_scause() {
  89:src/../h/Riscv.hpp **** 	uint64 volatile scause;
  90:src/../h/Riscv.hpp **** 	__asm__ volatile("csrr %[scause], scause": [scause] "=r"(scause));
  91:src/../h/Riscv.hpp **** 	return scause;
  92:src/../h/Riscv.hpp **** }
  93:src/../h/Riscv.hpp **** 
  94:src/../h/Riscv.hpp **** inline void Riscv::w_scause(uint64 scause) {
  95:src/../h/Riscv.hpp **** 	__asm__ volatile("csrw scause, %[scause]": :[scause] "r"(scause));
  96:src/../h/Riscv.hpp **** }
  97:src/../h/Riscv.hpp **** 
  98:src/../h/Riscv.hpp **** inline uint64 Riscv::r_sepc() {
  99:src/../h/Riscv.hpp **** 	uint64 volatile sepc;
 100:src/../h/Riscv.hpp **** 	__asm__ volatile("csrr %[sepc], sepc": [sepc] "=r"(sepc));
 101:src/../h/Riscv.hpp **** 	return sepc;
 102:src/../h/Riscv.hpp **** }
 103:src/../h/Riscv.hpp **** 
 104:src/../h/Riscv.hpp **** inline void Riscv::w_sepc(uint64 sepc) {
 105:src/../h/Riscv.hpp **** 	__asm__ volatile("csrw sepc, %[sepc]": :[sepc] "r"(sepc));
 106:src/../h/Riscv.hpp **** }
 107:src/../h/Riscv.hpp **** 
GAS LISTING /tmp/ccYvzosu.s 			page 16


 108:src/../h/Riscv.hpp **** inline uint64 Riscv::r_stvec() {
 109:src/../h/Riscv.hpp **** 	uint64 volatile stvec;
 110:src/../h/Riscv.hpp **** 	__asm__ volatile("csrr %[stvec], stvec": [stvec] "=r"(stvec));
 111:src/../h/Riscv.hpp **** 	return stvec;
 112:src/../h/Riscv.hpp **** }
 113:src/../h/Riscv.hpp **** 
 114:src/../h/Riscv.hpp **** inline void Riscv::w_stvec(uint64 stvec) {
 461              		.loc 2 114 42 is_stmt 1
 462              		.cfi_startproc
 463              	.LVL49:
 464 0000 130101FF 		addi	sp,sp,-16
 465              		.cfi_def_cfa_offset 16
 466 0004 23348100 		sd	s0,8(sp)
 467              		.cfi_offset 8, -8
 468 0008 13040101 		addi	s0,sp,16
 469              		.cfi_def_cfa 8, 0
 115:src/../h/Riscv.hpp **** 	__asm__ volatile("csrw stvec, %[stvec]": :[stvec] "r"(stvec));
 470              		.loc 2 115 2
 471              		.loc 2 115 63 is_stmt 0
 472              	#APP
 473              	# 115 "src/../h/Riscv.hpp" 1
 116              	}
 474              		csrw stvec, a0
 475              	# 0 "" 2
 476              		.loc 2 116 1
 477              	#NO_APP
 478 0010 03348100 		ld	s0,8(sp)
 479              		.cfi_restore 8
 480              		.cfi_def_cfa 2, 16
 481 0014 13010101 		addi	sp,sp,16
 482              		.cfi_def_cfa_offset 0
 483 0018 67800000 		jr	ra
 484              		.cfi_endproc
 485              	.LFE5:
 487              		.section	.text._ZN5Riscv10ms_sstatusEm,"axG",@progbits,_ZN5Riscv10ms_sstatusEm,comdat
 488              		.align	2
 489              		.weak	_ZN5Riscv10ms_sstatusEm
 491              	_ZN5Riscv10ms_sstatusEm:
 492              	.LFB10:
 117:src/../h/Riscv.hpp **** 
 118:src/../h/Riscv.hpp **** inline void Riscv::ms_sip(uint64 mask) {
 119:src/../h/Riscv.hpp **** 	__asm__ volatile("csrs sip, %[mask]": :[mask] "r"(mask));
 120:src/../h/Riscv.hpp **** }
 121:src/../h/Riscv.hpp **** 
 122:src/../h/Riscv.hpp **** inline void Riscv::mc_sip(uint64 mask) {
 123:src/../h/Riscv.hpp **** 	__asm__ volatile("csrc sip, %[mask]": :[mask] "r"(mask));
 124:src/../h/Riscv.hpp **** }
 125:src/../h/Riscv.hpp **** 
 126:src/../h/Riscv.hpp **** inline uint64 Riscv::r_sip() {
 127:src/../h/Riscv.hpp **** 	uint64 volatile sip;
 128:src/../h/Riscv.hpp **** 	__asm__ volatile("csrr %[sip], sip": [sip] "=r"(sip));
 129:src/../h/Riscv.hpp **** 	return sip;
 130:src/../h/Riscv.hpp **** }
 131:src/../h/Riscv.hpp **** 
 132:src/../h/Riscv.hpp **** inline void Riscv::w_sip(uint64 sip) {
 133:src/../h/Riscv.hpp **** 	__asm__ volatile("csrw sip, %[sip]": :[sip] "r"(sip));
 134:src/../h/Riscv.hpp **** }
GAS LISTING /tmp/ccYvzosu.s 			page 17


 135:src/../h/Riscv.hpp **** 
 136:src/../h/Riscv.hpp **** inline void Riscv::ms_sstatus(uint64 mask) {
 493              		.loc 2 136 44 is_stmt 1
 494              		.cfi_startproc
 495              	.LVL50:
 496 0000 130101FF 		addi	sp,sp,-16
 497              		.cfi_def_cfa_offset 16
 498 0004 23348100 		sd	s0,8(sp)
 499              		.cfi_offset 8, -8
 500 0008 13040101 		addi	s0,sp,16
 501              		.cfi_def_cfa 8, 0
 137:src/../h/Riscv.hpp **** 	__asm__ volatile("csrs sstatus, %[mask]": :[mask] "r"(mask));
 502              		.loc 2 137 2
 503              		.loc 2 137 62 is_stmt 0
 504              	#APP
 505              	# 137 "src/../h/Riscv.hpp" 1
 138              	}
 506              		csrs sstatus, a0
 507              	# 0 "" 2
 508              		.loc 2 138 1
 509              	#NO_APP
 510 0010 03348100 		ld	s0,8(sp)
 511              		.cfi_restore 8
 512              		.cfi_def_cfa 2, 16
 513 0014 13010101 		addi	sp,sp,16
 514              		.cfi_def_cfa_offset 0
 515 0018 67800000 		jr	ra
 516              		.cfi_endproc
 517              	.LFE10:
 519              		.section	.text._ZN5Riscv10mc_sstatusEm,"axG",@progbits,_ZN5Riscv10mc_sstatusEm,comdat
 520              		.align	2
 521              		.weak	_ZN5Riscv10mc_sstatusEm
 523              	_ZN5Riscv10mc_sstatusEm:
 524              	.LFB11:
 139:src/../h/Riscv.hpp **** 
 140:src/../h/Riscv.hpp **** inline void Riscv::mc_sstatus(uint64 mask) {
 525              		.loc 2 140 44 is_stmt 1
 526              		.cfi_startproc
 527              	.LVL51:
 528 0000 130101FF 		addi	sp,sp,-16
 529              		.cfi_def_cfa_offset 16
 530 0004 23348100 		sd	s0,8(sp)
 531              		.cfi_offset 8, -8
 532 0008 13040101 		addi	s0,sp,16
 533              		.cfi_def_cfa 8, 0
 141:src/../h/Riscv.hpp **** 	__asm__ volatile("csrc sstatus, %[mask]": :[mask] "r"(mask));
 534              		.loc 2 141 2
 535              		.loc 2 141 62 is_stmt 0
 536              	#APP
 537              	# 141 "src/../h/Riscv.hpp" 1
 142              	}
 538              		csrc sstatus, a0
 539              	# 0 "" 2
 540              		.loc 2 142 1
 541              	#NO_APP
 542 0010 03348100 		ld	s0,8(sp)
 543              		.cfi_restore 8
GAS LISTING /tmp/ccYvzosu.s 			page 18


 544              		.cfi_def_cfa 2, 16
 545 0014 13010101 		addi	sp,sp,16
 546              		.cfi_def_cfa_offset 0
 547 0018 67800000 		jr	ra
 548              		.cfi_endproc
 549              	.LFE11:
 551              		.section	.text._ZN3TCB10isFinishedEv,"axG",@progbits,_ZN3TCB10isFinishedEv,comdat
 552              		.align	2
 553              		.weak	_ZN3TCB10isFinishedEv
 555              	_ZN3TCB10isFinishedEv:
 556              	.LFB17:
 557              		.file 3 "src/../h/TCB.hpp"
   1:src/../h/TCB.hpp **** //
   2:src/../h/TCB.hpp **** // Created by os on 5/23/23.
   3:src/../h/TCB.hpp **** //
   4:src/../h/TCB.hpp **** 
   5:src/../h/TCB.hpp **** #ifndef PROJEKAT2023_TCB_HPP
   6:src/../h/TCB.hpp **** #define PROJEKAT2023_TCB_HPP
   7:src/../h/TCB.hpp **** 
   8:src/../h/TCB.hpp **** #include "../lib/hw.h"
   9:src/../h/TCB.hpp **** 
  10:src/../h/TCB.hpp **** class TCB {
  11:src/../h/TCB.hpp **** public:
  12:src/../h/TCB.hpp **** 	friend class Scheduler;
  13:src/../h/TCB.hpp **** 	using Body = void (*)(void*);
  14:src/../h/TCB.hpp **** 
  15:src/../h/TCB.hpp **** 	static TCB* createThread(Body function, void* args, uint64* stack);
  16:src/../h/TCB.hpp **** 
  17:src/../h/TCB.hpp **** 	bool isFinished() { return finished; }
 558              		.loc 3 17 7 is_stmt 1
 559              		.cfi_startproc
 560              	.LVL52:
 561 0000 130101FF 		addi	sp,sp,-16
 562              		.cfi_def_cfa_offset 16
 563 0004 23348100 		sd	s0,8(sp)
 564              		.cfi_offset 8, -8
 565 0008 13040101 		addi	s0,sp,16
 566              		.cfi_def_cfa 8, 0
 567              		.loc 3 17 22
 568              		.loc 3 17 39 is_stmt 0
 569 000c 03450503 		lbu	a0,48(a0)
 570              	.LVL53:
 571 0010 03348100 		ld	s0,8(sp)
 572              		.cfi_restore 8
 573              		.cfi_def_cfa 2, 16
 574 0014 13010101 		addi	sp,sp,16
 575              		.cfi_def_cfa_offset 0
 576 0018 67800000 		jr	ra
 577              		.cfi_endproc
 578              	.LFE17:
 580              		.section	.rodata
 581 0024 00000000 		.align	3
 582              		.set	.LANCHOR0,. + 0
 583              	.LC2:
 584 0028 0A757361 		.string	"\nusao u nit 1\n"
 584      6F207520 
 584      6E697420 
GAS LISTING /tmp/ccYvzosu.s 			page 19


 584      310A00
 585 0037 00       		.zero	1
 586              	.LC3:
 587 0038 0A6F7065 		.string	"\nopet u niti 1\n"
 587      74207520 
 587      6E697469 
 587      20310A00 
 588              	.LC4:
 589 0048 0A743120 		.string	"\nt1 = "
 589      3D2000
 590 004f 00       		.zero	1
 591              	.LC5:
 592 0050 4E697431 		.string	"Nit1: "
 592      3A2000
 593 0057 00       		.zero	1
 594              	.LC6:
 595 0058 0A00     		.string	"\n"
 596 005a 00000000 		.zero	6
 596      0000
 597              	.LC7:
 598 0060 0A476F74 		.string	"\nGotova nit 1\n"
 598      6F766120 
 598      6E697420 
 598      310A00
 599 006f 00       		.zero	1
 600              	.LC8:
 601 0070 0A757361 		.string	"\nusao u nit 2\n"
 601      6F207520 
 601      6E697420 
 601      320A00
 602 007f 00       		.zero	1
 603              	.LC9:
 604 0080 0A6F7065 		.string	"\nopet u niti 2\n"
 604      74207520 
 604      6E697469 
 604      20320A00 
 605              	.LC10:
 606 0090 4E697432 		.string	"Nit2: "
 606      3A2000
 607 0097 00       		.zero	1
 608              	.LC11:
 609 0098 0A796965 		.string	"\nyield n2\n"
 609      6C64206E 
 609      320A00
 610 00a3 00000000 		.zero	5
 610      00
 611              	.LC12:
 612 00a8 0A506F6B 		.string	"\nPokusavam da ugasim nit 2\n"
 612      75736176 
 612      616D2064 
 612      61207567 
 612      6173696D 
 613 00c4 00000000 		.zero	4
 614              	.LC13:
 615 00c8 0A4E6973 		.string	"\nNisam uspeo da ugasim nit 2\n"
 615      616D2075 
 615      7370656F 
GAS LISTING /tmp/ccYvzosu.s 			page 20


 615      20646120 
 615      75676173 
 616 00e6 0000     		.zero	2
 617              	.LC14:
 618 00e8 0A476F74 		.string	"\nGotova nit 2\n"
 618      6F766120 
 618      6E697420 
 618      320A00
 619              		.text
 620              	.Letext0:
 621              		.file 4 "src/../lib/hw.h"
 622              		.file 5 "src/../h/syscall_c.hpp"
 623              		.file 6 "src/../h/syscall_cpp.hpp"
 624              		.file 7 "src/../h/helper.hpp"
GAS LISTING /tmp/ccYvzosu.s 			page 21


DEFINED SYMBOLS
                            *ABS*:0000000000000000 main.cpp
     /tmp/ccYvzosu.s:17     .text:0000000000000000 main
     /tmp/ccYvzosu.s:21     .text:0000000000000000 .L0 
     /tmp/ccYvzosu.s:22     .text:0000000000000000 .L0 
     /tmp/ccYvzosu.s:23     .text:0000000000000004 .L0 
     /tmp/ccYvzosu.s:26     .text:000000000000000c .L0 
     /tmp/ccYvzosu.s:27     .text:000000000000000c .L0 
     /tmp/ccYvzosu.s:29     .text:0000000000000010 .L0 
     /tmp/ccYvzosu.s:31     .text:0000000000000010 .L0 
     /tmp/ccYvzosu.s:32     .text:0000000000000010 .L0 
     /tmp/ccYvzosu.s:523    .text._ZN5Riscv10mc_sstatusEm:0000000000000000 _ZN5Riscv10mc_sstatusEm
     /tmp/ccYvzosu.s:36     .text:000000000000001c .L0 
     /tmp/ccYvzosu.s:37     .text:000000000000001c .L0 
     /tmp/ccYvzosu.s:458    .text._ZN5Riscv7w_stvecEm:0000000000000000 _ZN5Riscv7w_stvecEm
     /tmp/ccYvzosu.s:42     .text:0000000000000030 .L0 
     /tmp/ccYvzosu.s:43     .text:0000000000000030 .L0 
     /tmp/ccYvzosu.s:45     .text:0000000000000034 .L0 
     /tmp/ccYvzosu.s:46     .text:0000000000000034 .L0 
     /tmp/ccYvzosu.s:48     .text:0000000000000038 .L0 
     /tmp/ccYvzosu.s:49     .text:0000000000000038 .L0 
     /tmp/ccYvzosu.s:51     .text:000000000000003c .L0 
     /tmp/ccYvzosu.s:52     .text:000000000000003c .L0 
     /tmp/ccYvzosu.s:59     .text:0000000000000054 .L0 
     /tmp/ccYvzosu.s:60     .text:0000000000000054 .L0 
     /tmp/ccYvzosu.s:64     .text:0000000000000064 .L0 
     /tmp/ccYvzosu.s:65     .text:0000000000000064 .L0 
     /tmp/ccYvzosu.s:72     .text:0000000000000078 .L0 
     /tmp/ccYvzosu.s:73     .text:0000000000000078 .L0 
     /tmp/ccYvzosu.s:77     .text:0000000000000084 .L0 
     /tmp/ccYvzosu.s:78     .text:0000000000000084 .L0 
     /tmp/ccYvzosu.s:176    .text:0000000000000168 _Z5nit1fPv
     /tmp/ccYvzosu.s:86     .text:00000000000000a0 .L0 
     /tmp/ccYvzosu.s:87     .text:00000000000000a0 .L0 
     /tmp/ccYvzosu.s:288    .text:000000000000023c _Z5nit2fPv
     /tmp/ccYvzosu.s:94     .text:00000000000000bc .L0 
     /tmp/ccYvzosu.s:95     .text:00000000000000bc .L0 
     /tmp/ccYvzosu.s:491    .text._ZN5Riscv10ms_sstatusEm:0000000000000000 _ZN5Riscv10ms_sstatusEm
     /tmp/ccYvzosu.s:100    .text:00000000000000c8 .L0 
     /tmp/ccYvzosu.s:101    .text:00000000000000c8 .L0 
     /tmp/ccYvzosu.s:102    .text:00000000000000c8 .L0 
     /tmp/ccYvzosu.s:555    .text._ZN3TCB10isFinishedEv:0000000000000000 _ZN3TCB10isFinishedEv
     /tmp/ccYvzosu.s:108    .text:00000000000000dc .L0 
     /tmp/ccYvzosu.s:111    .text:00000000000000e4 .L0 
     /tmp/ccYvzosu.s:113    .text:00000000000000e8 .L0 
     /tmp/ccYvzosu.s:119    .text:00000000000000fc .L0 
     /tmp/ccYvzosu.s:122    .text:0000000000000104 .L0 
     /tmp/ccYvzosu.s:125    .text:0000000000000108 .L0 
     /tmp/ccYvzosu.s:129    .text:0000000000000110 .L0 
     /tmp/ccYvzosu.s:132    .text:0000000000000114 .L0 
     /tmp/ccYvzosu.s:134    .text:0000000000000118 .L0 
     /tmp/ccYvzosu.s:135    .text:0000000000000118 .L0 
     /tmp/ccYvzosu.s:138    .text:0000000000000120 .L0 
     /tmp/ccYvzosu.s:141    .text:0000000000000124 .L0 
     /tmp/ccYvzosu.s:142    .text:0000000000000124 .L0 
     /tmp/ccYvzosu.s:146    .text:0000000000000134 .L0 
     /tmp/ccYvzosu.s:147    .text:0000000000000134 .L0 
GAS LISTING /tmp/ccYvzosu.s 			page 22


     /tmp/ccYvzosu.s:151    .text:0000000000000140 .L0 
     /tmp/ccYvzosu.s:152    .text:0000000000000140 .L0 
     /tmp/ccYvzosu.s:156    .text:0000000000000150 .L0 
     /tmp/ccYvzosu.s:157    .text:0000000000000150 .L0 
     /tmp/ccYvzosu.s:159    .text:0000000000000154 .L0 
     /tmp/ccYvzosu.s:161    .text:000000000000015c .L0 
     /tmp/ccYvzosu.s:163    .text:0000000000000160 .L0 
     /tmp/ccYvzosu.s:164    .text:0000000000000160 .L0 
     /tmp/ccYvzosu.s:167    .text:0000000000000164 .L0 
     /tmp/ccYvzosu.s:170    .text:0000000000000168 .L0 
     /tmp/ccYvzosu.s:179    .text:0000000000000168 .L0 
     /tmp/ccYvzosu.s:180    .text:0000000000000168 .L0 
     /tmp/ccYvzosu.s:181    .text:000000000000016c .L0 
     /tmp/ccYvzosu.s:185    .text:0000000000000178 .L0 
     /tmp/ccYvzosu.s:186    .text:0000000000000178 .L0 
     /tmp/ccYvzosu.s:187    .text:0000000000000178 .L0 
     /tmp/ccYvzosu.s:189    .text:000000000000017c .L0 
     /tmp/ccYvzosu.s:191    .text:000000000000017c .L0 
     /tmp/ccYvzosu.s:192    .text:000000000000017c .L0 
     /tmp/ccYvzosu.s:196    .text:000000000000018c .L0 
        src/main.cpp:34     .text:000000000000018c .L0 
     /tmp/ccYvzosu.s:202    .text:0000000000000190 .L0 
     /tmp/ccYvzosu.s:203    .text:0000000000000190 .L0 
        src/main.cpp:37     .text:0000000000000190 .L0 
     /tmp/ccYvzosu.s:210    .text:0000000000000198 .L0 
     /tmp/ccYvzosu.s:211    .text:0000000000000198 .L0 
     /tmp/ccYvzosu.s:215    .text:00000000000001a8 .L0 
     /tmp/ccYvzosu.s:216    .text:00000000000001a8 .L0 
     /tmp/ccYvzosu.s:220    .text:00000000000001b8 .L0 
     /tmp/ccYvzosu.s:221    .text:00000000000001b8 .L0 
     /tmp/ccYvzosu.s:226    .text:00000000000001c4 .L0 
     /tmp/ccYvzosu.s:227    .text:00000000000001c4 .L0 
     /tmp/ccYvzosu.s:232    .text:00000000000001cc .L0 
     /tmp/ccYvzosu.s:233    .text:00000000000001cc .L0 
     /tmp/ccYvzosu.s:237    .text:00000000000001dc .L0 
     /tmp/ccYvzosu.s:238    .text:00000000000001dc .L0 
     /tmp/ccYvzosu.s:242    .text:00000000000001e8 .L0 
     /tmp/ccYvzosu.s:243    .text:00000000000001e8 .L0 
     /tmp/ccYvzosu.s:248    .text:00000000000001f8 .L0 
     /tmp/ccYvzosu.s:249    .text:00000000000001f8 .L0 
     /tmp/ccYvzosu.s:253    .text:00000000000001fc .L0 
     /tmp/ccYvzosu.s:257    .text:0000000000000208 .L0 
     /tmp/ccYvzosu.s:258    .text:0000000000000208 .L0 
     /tmp/ccYvzosu.s:261    .text:0000000000000210 .L0 
     /tmp/ccYvzosu.s:266    .text:0000000000000218 .L0 
     /tmp/ccYvzosu.s:267    .text:0000000000000218 .L0 
     /tmp/ccYvzosu.s:271    .text:0000000000000228 .L0 
     /tmp/ccYvzosu.s:272    .text:000000000000022c .L0 
     /tmp/ccYvzosu.s:274    .text:0000000000000230 .L0 
     /tmp/ccYvzosu.s:275    .text:0000000000000230 .L0 
     /tmp/ccYvzosu.s:277    .text:0000000000000234 .L0 
     /tmp/ccYvzosu.s:280    .text:0000000000000238 .L0 
     /tmp/ccYvzosu.s:282    .text:000000000000023c .L0 
     /tmp/ccYvzosu.s:291    .text:000000000000023c .L0 
     /tmp/ccYvzosu.s:293    .text:000000000000023c .L0 
     /tmp/ccYvzosu.s:294    .text:0000000000000240 .L0 
     /tmp/ccYvzosu.s:299    .text:0000000000000250 .L0 
GAS LISTING /tmp/ccYvzosu.s 			page 23


     /tmp/ccYvzosu.s:300    .text:0000000000000250 .L0 
     /tmp/ccYvzosu.s:301    .text:0000000000000250 .L0 
     /tmp/ccYvzosu.s:302    .text:0000000000000250 .L0 
     /tmp/ccYvzosu.s:304    .text:0000000000000254 .L0 
     /tmp/ccYvzosu.s:307    .text:0000000000000258 .L0 
     /tmp/ccYvzosu.s:308    .text:0000000000000258 .L0 
     /tmp/ccYvzosu.s:313    .text:0000000000000268 .L0 
     /tmp/ccYvzosu.s:314    .text:0000000000000268 .L0 
     /tmp/ccYvzosu.s:318    .text:0000000000000274 .L0 
     /tmp/ccYvzosu.s:319    .text:0000000000000274 .L0 
     /tmp/ccYvzosu.s:323    .text:0000000000000280 .L0 
        src/main.cpp:62     .text:0000000000000280 .L0 
     /tmp/ccYvzosu.s:329    .text:0000000000000284 .L0 
     /tmp/ccYvzosu.s:330    .text:0000000000000284 .L0 
        src/main.cpp:65     .text:0000000000000284 .L0 
     /tmp/ccYvzosu.s:337    .text:000000000000028c .L0 
     /tmp/ccYvzosu.s:338    .text:000000000000028c .L0 
     /tmp/ccYvzosu.s:342    .text:000000000000029c .L0 
     /tmp/ccYvzosu.s:343    .text:000000000000029c .L0 
     /tmp/ccYvzosu.s:347    .text:00000000000002ac .L0 
     /tmp/ccYvzosu.s:348    .text:00000000000002ac .L0 
     /tmp/ccYvzosu.s:352    .text:00000000000002b8 .L0 
     /tmp/ccYvzosu.s:353    .text:00000000000002b8 .L0 
     /tmp/ccYvzosu.s:358    .text:00000000000002c8 .L0 
     /tmp/ccYvzosu.s:359    .text:00000000000002c8 .L0 
     /tmp/ccYvzosu.s:364    .text:00000000000002d0 .L0 
     /tmp/ccYvzosu.s:365    .text:00000000000002d0 .L0 
     /tmp/ccYvzosu.s:369    .text:00000000000002e0 .L0 
     /tmp/ccYvzosu.s:370    .text:00000000000002e0 .L0 
     /tmp/ccYvzosu.s:374    .text:00000000000002ec .L0 
     /tmp/ccYvzosu.s:375    .text:00000000000002ec .L0 
     /tmp/ccYvzosu.s:380    .text:00000000000002fc .L0 
     /tmp/ccYvzosu.s:381    .text:00000000000002fc .L0 
     /tmp/ccYvzosu.s:385    .text:0000000000000308 .L0 
     /tmp/ccYvzosu.s:388    .text:000000000000030c .L0 
     /tmp/ccYvzosu.s:392    .text:0000000000000310 .L0 
     /tmp/ccYvzosu.s:396    .text:000000000000031c .L0 
     /tmp/ccYvzosu.s:397    .text:000000000000031c .L0 
     /tmp/ccYvzosu.s:401    .text:0000000000000328 .L0 
     /tmp/ccYvzosu.s:405    .text:0000000000000330 .L0 
     /tmp/ccYvzosu.s:406    .text:0000000000000330 .L0 
     /tmp/ccYvzosu.s:410    .text:0000000000000340 .L0 
     /tmp/ccYvzosu.s:411    .text:0000000000000340 .L0 
     /tmp/ccYvzosu.s:417    .text:000000000000034c .L0 
     /tmp/ccYvzosu.s:418    .text:000000000000034c .L0 
     /tmp/ccYvzosu.s:422    .text:000000000000035c .L0 
     /tmp/ccYvzosu.s:423    .text:000000000000035c .L0 
     /tmp/ccYvzosu.s:427    .text:000000000000036c .L0 
     /tmp/ccYvzosu.s:428    .text:000000000000036c .L0 
     /tmp/ccYvzosu.s:432    .text:0000000000000378 .L0 
     /tmp/ccYvzosu.s:433    .text:0000000000000378 .L0 
     /tmp/ccYvzosu.s:437    .text:0000000000000388 .L0 
     /tmp/ccYvzosu.s:438    .text:000000000000038c .L0 
     /tmp/ccYvzosu.s:440    .text:0000000000000390 .L0 
     /tmp/ccYvzosu.s:441    .text:0000000000000390 .L0 
     /tmp/ccYvzosu.s:443    .text:0000000000000394 .L0 
     /tmp/ccYvzosu.s:446    .text:0000000000000398 .L0 
GAS LISTING /tmp/ccYvzosu.s 			page 24


     /tmp/ccYvzosu.s:449    .text:000000000000039c .L0 
     /tmp/ccYvzosu.s:451    .text:00000000000003a0 .L0 
     /tmp/ccYvzosu.s:462    .text._ZN5Riscv7w_stvecEm:0000000000000000 .L0 
     /tmp/ccYvzosu.s:464    .text._ZN5Riscv7w_stvecEm:0000000000000000 .L0 
     /tmp/ccYvzosu.s:465    .text._ZN5Riscv7w_stvecEm:0000000000000004 .L0 
     /tmp/ccYvzosu.s:467    .text._ZN5Riscv7w_stvecEm:0000000000000008 .L0 
     /tmp/ccYvzosu.s:469    .text._ZN5Riscv7w_stvecEm:000000000000000c .L0 
     /tmp/ccYvzosu.s:471    .text._ZN5Riscv7w_stvecEm:000000000000000c .L0 
  src/../h/Riscv.hpp:115    .text._ZN5Riscv7w_stvecEm:000000000000000c .L0 
     /tmp/ccYvzosu.s:478    .text._ZN5Riscv7w_stvecEm:0000000000000010 .L0 
     /tmp/ccYvzosu.s:479    .text._ZN5Riscv7w_stvecEm:0000000000000014 .L0 
     /tmp/ccYvzosu.s:480    .text._ZN5Riscv7w_stvecEm:0000000000000014 .L0 
     /tmp/ccYvzosu.s:482    .text._ZN5Riscv7w_stvecEm:0000000000000018 .L0 
     /tmp/ccYvzosu.s:484    .text._ZN5Riscv7w_stvecEm:000000000000001c .L0 
     /tmp/ccYvzosu.s:494    .text._ZN5Riscv10ms_sstatusEm:0000000000000000 .L0 
     /tmp/ccYvzosu.s:496    .text._ZN5Riscv10ms_sstatusEm:0000000000000000 .L0 
     /tmp/ccYvzosu.s:497    .text._ZN5Riscv10ms_sstatusEm:0000000000000004 .L0 
     /tmp/ccYvzosu.s:499    .text._ZN5Riscv10ms_sstatusEm:0000000000000008 .L0 
     /tmp/ccYvzosu.s:501    .text._ZN5Riscv10ms_sstatusEm:000000000000000c .L0 
     /tmp/ccYvzosu.s:503    .text._ZN5Riscv10ms_sstatusEm:000000000000000c .L0 
  src/../h/Riscv.hpp:137    .text._ZN5Riscv10ms_sstatusEm:000000000000000c .L0 
     /tmp/ccYvzosu.s:510    .text._ZN5Riscv10ms_sstatusEm:0000000000000010 .L0 
     /tmp/ccYvzosu.s:511    .text._ZN5Riscv10ms_sstatusEm:0000000000000014 .L0 
     /tmp/ccYvzosu.s:512    .text._ZN5Riscv10ms_sstatusEm:0000000000000014 .L0 
     /tmp/ccYvzosu.s:514    .text._ZN5Riscv10ms_sstatusEm:0000000000000018 .L0 
     /tmp/ccYvzosu.s:516    .text._ZN5Riscv10ms_sstatusEm:000000000000001c .L0 
     /tmp/ccYvzosu.s:526    .text._ZN5Riscv10mc_sstatusEm:0000000000000000 .L0 
     /tmp/ccYvzosu.s:528    .text._ZN5Riscv10mc_sstatusEm:0000000000000000 .L0 
     /tmp/ccYvzosu.s:529    .text._ZN5Riscv10mc_sstatusEm:0000000000000004 .L0 
     /tmp/ccYvzosu.s:531    .text._ZN5Riscv10mc_sstatusEm:0000000000000008 .L0 
     /tmp/ccYvzosu.s:533    .text._ZN5Riscv10mc_sstatusEm:000000000000000c .L0 
     /tmp/ccYvzosu.s:535    .text._ZN5Riscv10mc_sstatusEm:000000000000000c .L0 
  src/../h/Riscv.hpp:141    .text._ZN5Riscv10mc_sstatusEm:000000000000000c .L0 
     /tmp/ccYvzosu.s:542    .text._ZN5Riscv10mc_sstatusEm:0000000000000010 .L0 
     /tmp/ccYvzosu.s:543    .text._ZN5Riscv10mc_sstatusEm:0000000000000014 .L0 
     /tmp/ccYvzosu.s:544    .text._ZN5Riscv10mc_sstatusEm:0000000000000014 .L0 
     /tmp/ccYvzosu.s:546    .text._ZN5Riscv10mc_sstatusEm:0000000000000018 .L0 
     /tmp/ccYvzosu.s:548    .text._ZN5Riscv10mc_sstatusEm:000000000000001c .L0 
     /tmp/ccYvzosu.s:559    .text._ZN3TCB10isFinishedEv:0000000000000000 .L0 
     /tmp/ccYvzosu.s:561    .text._ZN3TCB10isFinishedEv:0000000000000000 .L0 
     /tmp/ccYvzosu.s:562    .text._ZN3TCB10isFinishedEv:0000000000000004 .L0 
     /tmp/ccYvzosu.s:564    .text._ZN3TCB10isFinishedEv:0000000000000008 .L0 
     /tmp/ccYvzosu.s:566    .text._ZN3TCB10isFinishedEv:000000000000000c .L0 
     /tmp/ccYvzosu.s:568    .text._ZN3TCB10isFinishedEv:000000000000000c .L0 
     /tmp/ccYvzosu.s:569    .text._ZN3TCB10isFinishedEv:000000000000000c .L0 
     /tmp/ccYvzosu.s:572    .text._ZN3TCB10isFinishedEv:0000000000000014 .L0 
     /tmp/ccYvzosu.s:573    .text._ZN3TCB10isFinishedEv:0000000000000014 .L0 
     /tmp/ccYvzosu.s:575    .text._ZN3TCB10isFinishedEv:0000000000000018 .L0 
     /tmp/ccYvzosu.s:577    .text._ZN3TCB10isFinishedEv:000000000000001c .L0 
     /tmp/ccYvzosu.s:582    .rodata:0000000000000028 .LANCHOR0
     /tmp/ccYvzosu.s:625    .text:00000000000003a0 .L0 
     /tmp/ccYvzosu.s:487    .text._ZN5Riscv7w_stvecEm:000000000000001c .L0 
     /tmp/ccYvzosu.s:519    .text._ZN5Riscv10ms_sstatusEm:000000000000001c .L0 
     /tmp/ccYvzosu.s:551    .text._ZN5Riscv10mc_sstatusEm:000000000000001c .L0 
     /tmp/ccYvzosu.s:580    .text._ZN3TCB10isFinishedEv:000000000000001c .L0 
     /tmp/ccYvzosu.s:37     .text:000000000000001c .L0 
     /tmp/ccYvzosu.s:61     .text:0000000000000058 .L0 
GAS LISTING /tmp/ccYvzosu.s 			page 25


     /tmp/ccYvzosu.s:80     .text:000000000000008c .L0 
     /tmp/ccYvzosu.s:89     .text:00000000000000a8 .L0 
     /tmp/ccYvzosu.s:8      .rodata:0000000000000000 .LC0
     /tmp/ccYvzosu.s:142    .text:0000000000000124 .L0 
     /tmp/ccYvzosu.s:11     .rodata:0000000000000010 .LC1
     /tmp/ccYvzosu.s:152    .text:0000000000000140 .L0 
     /tmp/ccYvzosu.s:192    .text:000000000000017c .L0 
     /tmp/ccYvzosu.s:211    .text:0000000000000198 .L0 
     /tmp/ccYvzosu.s:216    .text:00000000000001a8 .L0 
     /tmp/ccYvzosu.s:233    .text:00000000000001cc .L0 
     /tmp/ccYvzosu.s:243    .text:00000000000001e8 .L0 
     /tmp/ccYvzosu.s:267    .text:0000000000000218 .L0 
     /tmp/ccYvzosu.s:308    .text:0000000000000258 .L0 
     /tmp/ccYvzosu.s:338    .text:000000000000028c .L0 
     /tmp/ccYvzosu.s:343    .text:000000000000029c .L0 
     /tmp/ccYvzosu.s:353    .text:00000000000002b8 .L0 
     /tmp/ccYvzosu.s:365    .text:00000000000002d0 .L0 
     /tmp/ccYvzosu.s:375    .text:00000000000002ec .L0 
     /tmp/ccYvzosu.s:406    .text:0000000000000330 .L0 
     /tmp/ccYvzosu.s:418    .text:000000000000034c .L0 
     /tmp/ccYvzosu.s:423    .text:000000000000035c .L0 
     /tmp/ccYvzosu.s:433    .text:0000000000000378 .L0 
     /tmp/ccYvzosu.s:123    .text:0000000000000108 .L2
     /tmp/ccYvzosu.s:127    .text:0000000000000110 .L3
     /tmp/ccYvzosu.s:130    .text:0000000000000114 .L4
     /tmp/ccYvzosu.s:139    .text:0000000000000124 .L5
     /tmp/ccYvzosu.s:98     .text:00000000000000c8 .L6
     /tmp/ccYvzosu.s:251    .text:00000000000001fc .L11
     /tmp/ccYvzosu.s:263    .text:0000000000000218 .L9
     /tmp/ccYvzosu.s:246    .text:00000000000001f8 .L10
     /tmp/ccYvzosu.s:230    .text:00000000000001cc .L13
     /tmp/ccYvzosu.s:390    .text:0000000000000310 .L18
     /tmp/ccYvzosu.s:403    .text:0000000000000330 .L20
     /tmp/ccYvzosu.s:414    .text:000000000000034c .L15
     /tmp/ccYvzosu.s:378    .text:00000000000002fc .L16
     /tmp/ccYvzosu.s:362    .text:00000000000002d0 .L21
     /tmp/ccYvzosu.s:386    .text:000000000000030c .L17
     /tmp/ccYvzosu.s:1869   .debug_abbrev:0000000000000000 .Ldebug_abbrev0
     /tmp/ccYvzosu.s:3076   .debug_str:00000000000005e8 .LASF119
     /tmp/ccYvzosu.s:2978   .debug_str:0000000000000335 .LASF120
     /tmp/ccYvzosu.s:2954   .debug_str:000000000000025d .LASF121
     /tmp/ccYvzosu.s:2840   .debug_ranges:0000000000000000 .Ldebug_ranges0
     /tmp/ccYvzosu.s:2854   .debug_line:0000000000000000 .Ldebug_line0
     /tmp/ccYvzosu.s:3004   .debug_str:00000000000003f0 .LASF0
     /tmp/ccYvzosu.s:3018   .debug_str:0000000000000428 .LASF1
     /tmp/ccYvzosu.s:2994   .debug_str:00000000000003a9 .LASF2
     /tmp/ccYvzosu.s:2966   .debug_str:00000000000002fa .LASF4
     /tmp/ccYvzosu.s:3056   .debug_str:0000000000000553 .LASF3
     /tmp/ccYvzosu.s:2884   .debug_str:000000000000009b .LASF5
     /tmp/ccYvzosu.s:2918   .debug_str:000000000000016a .LASF6
     /tmp/ccYvzosu.s:3022   .debug_str:000000000000045c .LASF7
     /tmp/ccYvzosu.s:3002   .debug_str:00000000000003dd .LASF8
     /tmp/ccYvzosu.s:3084   .debug_str:00000000000006de .LASF9
     /tmp/ccYvzosu.s:2952   .debug_str:000000000000024f .LASF10
     /tmp/ccYvzosu.s:3034   .debug_str:00000000000004b1 .LASF11
     /tmp/ccYvzosu.s:3078   .debug_str:00000000000006ac .LASF12
     /tmp/ccYvzosu.s:2888   .debug_str:00000000000000ae .LASF13
GAS LISTING /tmp/ccYvzosu.s 			page 26


     /tmp/ccYvzosu.s:2864   .debug_str:0000000000000033 .LASF14
     /tmp/ccYvzosu.s:2894   .debug_str:00000000000000cd .LASF15
     /tmp/ccYvzosu.s:3050   .debug_str:000000000000051f .LASF16
     /tmp/ccYvzosu.s:2910   .debug_str:000000000000011a .LASF17
     /tmp/ccYvzosu.s:3016   .debug_str:0000000000000422 .LASF56
     /tmp/ccYvzosu.s:2914   .debug_str:0000000000000144 .LASF122
     /tmp/ccYvzosu.s:2906   .debug_str:0000000000000103 .LASF18
     /tmp/ccYvzosu.s:2980   .debug_str:0000000000000342 .LASF19
     /tmp/ccYvzosu.s:2886   .debug_str:00000000000000a2 .LASF20
     /tmp/ccYvzosu.s:3048   .debug_str:0000000000000514 .LASF21
     /tmp/ccYvzosu.s:3102   .debug_str:0000000000000773 .LASF23
     /tmp/ccYvzosu.s:2880   .debug_str:0000000000000081 .LASF22
     /tmp/ccYvzosu.s:2930   .debug_str:00000000000001b6 .LASF24
     /tmp/ccYvzosu.s:3068   .debug_str:00000000000005af .LASF25
     /tmp/ccYvzosu.s:2862   .debug_str:0000000000000019 .LASF26
     /tmp/ccYvzosu.s:2866   .debug_str:0000000000000043 .LASF27
     /tmp/ccYvzosu.s:3066   .debug_str:000000000000059a .LASF29
     /tmp/ccYvzosu.s:2928   .debug_str:00000000000001ad .LASF31
     /tmp/ccYvzosu.s:2926   .debug_str:0000000000000198 .LASF33
     /tmp/ccYvzosu.s:3058   .debug_str:0000000000000565 .LASF28
     /tmp/ccYvzosu.s:3040   .debug_str:00000000000004de .LASF30
     /tmp/ccYvzosu.s:3074   .debug_str:00000000000005e1 .LASF32
     /tmp/ccYvzosu.s:3070   .debug_str:00000000000005bc .LASF34
     /tmp/ccYvzosu.s:2942   .debug_str:0000000000000219 .LASF35
     /tmp/ccYvzosu.s:2912   .debug_str:0000000000000130 .LASF36
     /tmp/ccYvzosu.s:2860   .debug_str:0000000000000011 .LASF37
     /tmp/ccYvzosu.s:2958   .debug_str:0000000000000291 .LASF38
     /tmp/ccYvzosu.s:3006   .debug_str:00000000000003fd .LASF39
     /tmp/ccYvzosu.s:3098   .debug_str:000000000000073e .LASF40
     /tmp/ccYvzosu.s:2876   .debug_str:000000000000006a .LASF41
     /tmp/ccYvzosu.s:2940   .debug_str:0000000000000206 .LASF42
     /tmp/ccYvzosu.s:2948   .debug_str:000000000000023e .LASF43
     /tmp/ccYvzosu.s:3072   .debug_str:00000000000005cf .LASF44
     /tmp/ccYvzosu.s:2874   .debug_str:0000000000000064 .LASF45
     /tmp/ccYvzosu.s:3112   .debug_str:00000000000007cc .LASF46
     /tmp/ccYvzosu.s:3106   .debug_str:00000000000007a1 .LASF47
     /tmp/ccYvzosu.s:3054   .debug_str:000000000000053b .LASF48
     /tmp/ccYvzosu.s:2972   .debug_str:0000000000000315 .LASF49
     /tmp/ccYvzosu.s:2982   .debug_str:000000000000034f .LASF50
     /tmp/ccYvzosu.s:2892   .debug_str:00000000000000c3 .LASF51
     /tmp/ccYvzosu.s:2962   .debug_str:00000000000002bc .LASF52
     /tmp/ccYvzosu.s:2998   .debug_str:00000000000003c3 .LASF53
     /tmp/ccYvzosu.s:2956   .debug_str:000000000000027b .LASF54
     /tmp/ccYvzosu.s:2896   .debug_str:00000000000000d9 .LASF91
     /tmp/ccYvzosu.s:3108   .debug_str:00000000000007ac .LASF93
     /tmp/ccYvzosu.s:2856   .debug_str:0000000000000000 .LASF55
     /tmp/ccYvzosu.s:2872   .debug_str:000000000000005c .LASF123
     /tmp/ccYvzosu.s:2976   .debug_str:0000000000000328 .LASF57
     /tmp/ccYvzosu.s:3100   .debug_str:0000000000000751 .LASF59
     /tmp/ccYvzosu.s:3044   .debug_str:0000000000000502 .LASF124
     /tmp/ccYvzosu.s:3024   .debug_str:000000000000046f .LASF61
     /tmp/ccYvzosu.s:2984   .debug_str:0000000000000367 .LASF63
     /tmp/ccYvzosu.s:2996   .debug_str:00000000000003b7 .LASF58
     /tmp/ccYvzosu.s:2916   .debug_str:0000000000000153 .LASF60
     /tmp/ccYvzosu.s:2870   .debug_str:0000000000000052 .LASF62
     /tmp/ccYvzosu.s:3030   .debug_str:0000000000000485 .LASF64
     /tmp/ccYvzosu.s:2968   .debug_str:0000000000000301 .LASF65
GAS LISTING /tmp/ccYvzosu.s 			page 27


     /tmp/ccYvzosu.s:3080   .debug_str:00000000000006bb .LASF66
     /tmp/ccYvzosu.s:2990   .debug_str:000000000000038d .LASF67
     /tmp/ccYvzosu.s:3032   .debug_str:0000000000000499 .LASF68
     /tmp/ccYvzosu.s:3082   .debug_str:00000000000006d1 .LASF69
     /tmp/ccYvzosu.s:3086   .debug_str:00000000000006ee .LASF70
     /tmp/ccYvzosu.s:3064   .debug_str:000000000000058e .LASF71
     /tmp/ccYvzosu.s:2960   .debug_str:00000000000002a5 .LASF72
     /tmp/ccYvzosu.s:2950   .debug_str:0000000000000244 .LASF73
     /tmp/ccYvzosu.s:2944   .debug_str:0000000000000221 .LASF74
     /tmp/ccYvzosu.s:3052   .debug_str:0000000000000535 .LASF75
     /tmp/ccYvzosu.s:3000   .debug_str:00000000000003cd .LASF76
     /tmp/ccYvzosu.s:3008   .debug_str:0000000000000404 .LASF77
     /tmp/ccYvzosu.s:2934   .debug_str:00000000000001d9 .LASF78
     /tmp/ccYvzosu.s:3110   .debug_str:00000000000007c4 .LASF79
     /tmp/ccYvzosu.s:3060   .debug_str:000000000000056c .LASF80
     /tmp/ccYvzosu.s:2932   .debug_str:00000000000001d1 .LASF81
     /tmp/ccYvzosu.s:3042   .debug_str:00000000000004f1 .LASF82
     /tmp/ccYvzosu.s:2974   .debug_str:0000000000000320 .LASF83
     /tmp/ccYvzosu.s:2992   .debug_str:000000000000039a .LASF84
     /tmp/ccYvzosu.s:3010   .debug_str:000000000000040d .LASF85
     /tmp/ccYvzosu.s:3012   .debug_str:0000000000000413 .LASF86
     /tmp/ccYvzosu.s:3014   .debug_str:0000000000000418 .LASF87
     /tmp/ccYvzosu.s:2970   .debug_str:000000000000030c .LASF88
     /tmp/ccYvzosu.s:2858   .debug_str:0000000000000009 .LASF89
     /tmp/ccYvzosu.s:2878   .debug_str:0000000000000071 .LASF90
     /tmp/ccYvzosu.s:3104   .debug_str:000000000000078b .LASF125
     /tmp/ccYvzosu.s:3090   .debug_str:000000000000070c .LASF92
     /tmp/ccYvzosu.s:2964   .debug_str:00000000000002d2 .LASF94
     /tmp/ccYvzosu.s:3094   .debug_str:0000000000000727 .LASF95
     /tmp/ccYvzosu.s:2882   .debug_str:000000000000008f .LASF96
     /tmp/ccYvzosu.s:3062   .debug_str:000000000000057e .LASF126
     /tmp/ccYvzosu.s:3046   .debug_str:0000000000000507 .LASF127
     /tmp/ccYvzosu.s:3026   .debug_str:000000000000047a .LASF97
     /tmp/ccYvzosu.s:2936   .debug_str:00000000000001ec .LASF98
     /tmp/ccYvzosu.s:2890   .debug_str:00000000000000be .LASF99
     /tmp/ccYvzosu.s:18     .text:0000000000000000 .LFB28
     /tmp/ccYvzosu.s:171    .text:0000000000000168 .LFE28
     /tmp/ccYvzosu.s:3096   .debug_str:0000000000000734 .LASF100
     /tmp/ccYvzosu.s:2902   .debug_str:00000000000000f9 .LASF101
     /tmp/ccYvzosu.s:2904   .debug_str:00000000000000fe .LASF102
     /tmp/ccYvzosu.s:2741   .debug_loc:0000000000000000 .LLST0
     /tmp/ccYvzosu.s:34     .text:000000000000001c .LVL0
     /tmp/ccYvzosu.s:40     .text:0000000000000030 .LVL1
     /tmp/ccYvzosu.s:57     .text:0000000000000054 .LVL2
     /tmp/ccYvzosu.s:67     .text:0000000000000070 .LVL3
     /tmp/ccYvzosu.s:84     .text:00000000000000a0 .LVL6
     /tmp/ccYvzosu.s:92     .text:00000000000000bc .LVL7
     /tmp/ccYvzosu.s:97     .text:00000000000000c8 .LVL8
     /tmp/ccYvzosu.s:105    .text:00000000000000d8 .LVL9
     /tmp/ccYvzosu.s:116    .text:00000000000000f8 .LVL10
     /tmp/ccYvzosu.s:136    .text:0000000000000120 .LVL11
     /tmp/ccYvzosu.s:144    .text:0000000000000134 .LVL12
     /tmp/ccYvzosu.s:149    .text:0000000000000140 .LVL13
     /tmp/ccYvzosu.s:154    .text:0000000000000150 .LVL14
     /tmp/ccYvzosu.s:2922   .debug_str:0000000000000184 .LASF103
     /tmp/ccYvzosu.s:2988   .debug_str:0000000000000382 .LASF104
     /tmp/ccYvzosu.s:289    .text:000000000000023c .LFB27
GAS LISTING /tmp/ccYvzosu.s 			page 28


     /tmp/ccYvzosu.s:452    .text:00000000000003a0 .LFE27
     /tmp/ccYvzosu.s:2946   .debug_str:0000000000000239 .LASF107
     /tmp/ccYvzosu.s:2763   .debug_loc:000000000000005f .LLST2
     /tmp/ccYvzosu.s:357    .text:00000000000002c8 .LBB3
     /tmp/ccYvzosu.s:415    .text:000000000000034c .LBE3
     /tmp/ccYvzosu.s:2781   .debug_loc:00000000000000ab .LLST3
     /tmp/ccYvzosu.s:367    .text:00000000000002e0 .LVL37
     /tmp/ccYvzosu.s:372    .text:00000000000002ec .LVL38
     /tmp/ccYvzosu.s:377    .text:00000000000002fc .LVL39
     /tmp/ccYvzosu.s:408    .text:0000000000000340 .LVL41
     /tmp/ccYvzosu.s:412    .text:0000000000000348 .LVL42
     /tmp/ccYvzosu.s:311    .text:0000000000000268 .LVL30
     /tmp/ccYvzosu.s:316    .text:0000000000000274 .LVL31
     /tmp/ccYvzosu.s:340    .text:000000000000029c .LVL32
     /tmp/ccYvzosu.s:345    .text:00000000000002ac .LVL33
     /tmp/ccYvzosu.s:350    .text:00000000000002b8 .LVL34
     /tmp/ccYvzosu.s:355    .text:00000000000002c8 .LVL35
     /tmp/ccYvzosu.s:420    .text:000000000000035c .LVL43
     /tmp/ccYvzosu.s:425    .text:000000000000036c .LVL44
     /tmp/ccYvzosu.s:430    .text:0000000000000378 .LVL45
     /tmp/ccYvzosu.s:435    .text:0000000000000388 .LVL46
     /tmp/ccYvzosu.s:3088   .debug_str:0000000000000706 .LASF105
     /tmp/ccYvzosu.s:2908   .debug_str:000000000000010f .LASF106
     /tmp/ccYvzosu.s:177    .text:0000000000000168 .LFB26
     /tmp/ccYvzosu.s:283    .text:000000000000023c .LFE26
     /tmp/ccYvzosu.s:225    .text:00000000000001c4 .LBB2
     /tmp/ccYvzosu.s:264    .text:0000000000000218 .LBE2
     /tmp/ccYvzosu.s:2793   .debug_loc:00000000000000e2 .LLST1
     /tmp/ccYvzosu.s:235    .text:00000000000001dc .LVL22
     /tmp/ccYvzosu.s:240    .text:00000000000001e8 .LVL23
     /tmp/ccYvzosu.s:245    .text:00000000000001f8 .LVL24
     /tmp/ccYvzosu.s:194    .text:000000000000018c .LVL17
     /tmp/ccYvzosu.s:213    .text:00000000000001a8 .LVL18
     /tmp/ccYvzosu.s:218    .text:00000000000001b8 .LVL19
     /tmp/ccYvzosu.s:223    .text:00000000000001c4 .LVL20
     /tmp/ccYvzosu.s:269    .text:0000000000000228 .LVL26
     /tmp/ccYvzosu.s:556    .text._ZN3TCB10isFinishedEv:0000000000000000 .LFB17
     /tmp/ccYvzosu.s:578    .text._ZN3TCB10isFinishedEv:000000000000001c .LFE17
     /tmp/ccYvzosu.s:2986   .debug_str:000000000000037d .LASF128
     /tmp/ccYvzosu.s:2805   .debug_loc:0000000000000119 .LLST4
     /tmp/ccYvzosu.s:524    .text._ZN5Riscv10mc_sstatusEm:0000000000000000 .LFB11
     /tmp/ccYvzosu.s:549    .text._ZN5Riscv10mc_sstatusEm:000000000000001c .LFE11
     /tmp/ccYvzosu.s:2898   .debug_str:00000000000000e4 .LASF108
     /tmp/ccYvzosu.s:492    .text._ZN5Riscv10ms_sstatusEm:0000000000000000 .LFB10
     /tmp/ccYvzosu.s:517    .text._ZN5Riscv10ms_sstatusEm:000000000000001c .LFE10
     /tmp/ccYvzosu.s:459    .text._ZN5Riscv7w_stvecEm:0000000000000000 .LFB5
     /tmp/ccYvzosu.s:485    .text._ZN5Riscv7w_stvecEm:000000000000001c .LFE5
     /tmp/ccYvzosu.s:3028   .debug_str:000000000000047f .LASF109
     /tmp/ccYvzosu.s:3020   .debug_str:000000000000043b .LASF110
     /tmp/ccYvzosu.s:2924   .debug_str:000000000000018a .LASF112
     /tmp/ccYvzosu.s:2868   .debug_str:000000000000004c .LASF111
     /tmp/ccYvzosu.s:2938   .debug_str:00000000000001f1 .LASF113
     /tmp/ccYvzosu.s:2900   .debug_str:00000000000000e9 .LASF114
     /tmp/ccYvzosu.s:2920   .debug_str:0000000000000171 .LASF115
     /tmp/ccYvzosu.s:3036   .debug_str:00000000000004c0 .LASF116
     /tmp/ccYvzosu.s:3038   .debug_str:00000000000004cc .LASF117
     /tmp/ccYvzosu.s:3092   .debug_str:000000000000071a .LASF118
GAS LISTING /tmp/ccYvzosu.s 			page 29


     /tmp/ccYvzosu.s:70     .text:0000000000000078 .LVL4
     /tmp/ccYvzosu.s:82     .text:0000000000000098 .LVL5
     /tmp/ccYvzosu.s:165    .text:0000000000000160 .LVL15
     /tmp/ccYvzosu.s:168    .text:0000000000000164 .LVL16
     /tmp/ccYvzosu.s:292    .text:000000000000023c .LVL28
     /tmp/ccYvzosu.s:309    .text:0000000000000260 .LVL29
     /tmp/ccYvzosu.s:447    .text:0000000000000398 .LVL48
     /tmp/ccYvzosu.s:361    .text:00000000000002d0 .LVL36
     /tmp/ccYvzosu.s:444    .text:0000000000000394 .LVL47
     /tmp/ccYvzosu.s:229    .text:00000000000001cc .LVL21
     /tmp/ccYvzosu.s:278    .text:0000000000000234 .LVL27
     /tmp/ccYvzosu.s:560    .text._ZN3TCB10isFinishedEv:0000000000000000 .LVL52
     /tmp/ccYvzosu.s:570    .text._ZN3TCB10isFinishedEv:0000000000000010 .LVL53
     /tmp/ccYvzosu.s:626    .debug_info:0000000000000000 .Ldebug_info0
     /tmp/ccYvzosu.s:5      .text:0000000000000000 .Ltext0
     /tmp/ccYvzosu.s:620    .text:00000000000003a0 .Letext0

UNDEFINED SYMBOLS
interruptHandler
_Z13thread_createPP3TCBPFvPvES2_
_ZN3TCB7runningE
_Znwm
_Z15thread_dispatchv
_Z11printStringPKc
_Z12printIntegerm
