GAS LISTING /tmp/ccER7Jua.s 			page 1


   1              		.file	"main.cpp"
   2              		.option pic
   3              		.option norelax
   4              		.text
   5              	.Ltext0:
   6              		.align	2
   7              		.globl	_Z4idlePv
   9              	_Z4idlePv:
  10              	.LFB51:
  11              		.file 1 "src/main.cpp"
   1:src/main.cpp  **** #include "../lib/hw.h"
   2:src/main.cpp  **** #include "../h/Riscv.hpp"
   3:src/main.cpp  **** #include "../h/KMemory.hpp"
   4:src/main.cpp  **** #include "../h/KConsole.hpp"
   5:src/main.cpp  **** #include "../h/TCB.hpp"
   6:src/main.cpp  **** #include "../h/syscall_c.hpp"
   7:src/main.cpp  **** #include "../h/syscall_cpp.hpp"
   8:src/main.cpp  **** 
   9:src/main.cpp  **** extern "C" void interruptHandler();
  10:src/main.cpp  **** 
  11:src/main.cpp  **** void userMain();
  12:src/main.cpp  **** 
  13:src/main.cpp  **** void idle(void*) {
  12              		.loc 1 13 18
  13              		.cfi_startproc
  14 0000 130101FF 		addi	sp,sp,-16
  15              		.cfi_def_cfa_offset 16
  16 0004 23341100 		sd	ra,8(sp)
  17 0008 23308100 		sd	s0,0(sp)
  18              		.cfi_offset 1, -8
  19              		.cfi_offset 8, -16
  20 000c 13040101 		addi	s0,sp,16
  21              		.cfi_def_cfa 8, 0
  22              	.L2:
  14:src/main.cpp  ****     while (1) { thread_dispatch(); }
  23              		.loc 1 14 5 discriminator 1
  24              		.loc 1 14 17 discriminator 1
  25              		.loc 1 14 32 is_stmt 0 discriminator 1
  26 0010 97000000 		call	_Z15thread_dispatchv@plt
  26      E7800000 
  27              	.LVL0:
  28              		.loc 1 14 5 is_stmt 1 discriminator 1
  29 0018 6FF09FFF 		j	.L2
  30              		.cfi_endproc
  31              	.LFE51:
  33              		.align	2
  34              		.globl	_Z22kernelConsumerFunctionPv
  36              	_Z22kernelConsumerFunctionPv:
  37              	.LFB52:
  15:src/main.cpp  **** }
  16:src/main.cpp  **** 
  17:src/main.cpp  **** //salje na izlaz karakter iz izlaznog bafera KConsole
  18:src/main.cpp  **** void kernelConsumerFunction(void*) {
  38              		.loc 1 18 36
  39              		.cfi_startproc
  40 001c 130101FF 		addi	sp,sp,-16
  41              		.cfi_def_cfa_offset 16
GAS LISTING /tmp/ccER7Jua.s 			page 2


  42 0020 23341100 		sd	ra,8(sp)
  43 0024 23308100 		sd	s0,0(sp)
  44              		.cfi_offset 1, -8
  45              		.cfi_offset 8, -16
  46 0028 13040101 		addi	s0,sp,16
  47              		.cfi_def_cfa 8, 0
  48 002c 6F008002 		j	.L6
  49              	.LVL1:
  50              	.L8:
  51              	.LBB19:
  19:src/main.cpp  ****     while (1) {
  20:src/main.cpp  ****         char c = KConsole::getFromOutput();
  21:src/main.cpp  ****         while (!(KConsole::getSRvalue() & CONSOLE_TX_STATUS_BIT)) {}
  22:src/main.cpp  ****         KConsole::setDRvalue(c);
  52              		.loc 1 22 9
  53              	.LBB20:
  54              	.LBB21:
  55              		.file 2 "src/../h/KConsole.hpp"
   1:src/../h/KConsole.hpp **** //
   2:src/../h/KConsole.hpp **** // Created by os on 6/7/23.
   3:src/../h/KConsole.hpp **** //
   4:src/../h/KConsole.hpp **** 
   5:src/../h/KConsole.hpp **** #ifndef PROJEKAT2023_KCONSOLE_HPP
   6:src/../h/KConsole.hpp **** #define PROJEKAT2023_KCONSOLE_HPP
   7:src/../h/KConsole.hpp **** 
   8:src/../h/KConsole.hpp **** #include "../lib/hw.h"
   9:src/../h/KConsole.hpp **** 
  10:src/../h/KConsole.hpp **** class KSem;
  11:src/../h/KConsole.hpp **** 
  12:src/../h/KConsole.hpp **** typedef KSem* sem_t;
  13:src/../h/KConsole.hpp **** 
  14:src/../h/KConsole.hpp **** class KConsole {
  15:src/../h/KConsole.hpp **** public:
  16:src/../h/KConsole.hpp ****     static void initKConsole();
  17:src/../h/KConsole.hpp **** 
  18:src/../h/KConsole.hpp ****     //stavlja karakter u izlazni bafer konzole
  19:src/../h/KConsole.hpp ****     static void kputc(char c);
  20:src/../h/KConsole.hpp **** 
  21:src/../h/KConsole.hpp ****     //uzima karakter iz ulaznog bafera konzole
  22:src/../h/KConsole.hpp ****     static char kgetc();
  23:src/../h/KConsole.hpp **** 
  24:src/../h/KConsole.hpp ****     //vraca karakter iz izlaznog bafera; ako je bafer prazan, blokira se dok se ne napuni
  25:src/../h/KConsole.hpp ****     static char getFromOutput();
  26:src/../h/KConsole.hpp **** 
  27:src/../h/KConsole.hpp ****     //stavlja karakter u ulazni bafer; ako je bafer pun, ignorise se
  28:src/../h/KConsole.hpp ****     static void placeInInput(char c);
  29:src/../h/KConsole.hpp **** 
  30:src/../h/KConsole.hpp ****     //ispis svih preostalih karaktera u izlaznom baferu
  31:src/../h/KConsole.hpp ****     static void flush() {
  32:src/../h/KConsole.hpp ****         __asm__ volatile("li a0, 0x43");
  33:src/../h/KConsole.hpp ****         __asm__ volatile("ecall");
  34:src/../h/KConsole.hpp ****     }
  35:src/../h/KConsole.hpp **** 
  36:src/../h/KConsole.hpp ****     static uint8 getSRvalue() { return *sr; }
  37:src/../h/KConsole.hpp **** 
  38:src/../h/KConsole.hpp ****     static uint8 getDRvalue() { return *dr; }
  39:src/../h/KConsole.hpp **** 
GAS LISTING /tmp/ccER7Jua.s 			page 3


  40:src/../h/KConsole.hpp ****     static void setDRvalue(char c) { *dr = c; }
  56              		.loc 2 40 38
  57 0030 97070000 		la	a5,_ZN8KConsole2drE
  57      83B70700 
  58 0038 83B70700 		ld	a5,0(a5)
  59              		.loc 2 40 42 is_stmt 0
  60 003c 2380A700 		sb	a0,0(a5)
  61              	.LVL2:
  62              	.LBE21:
  63              	.LBE20:
  23:src/main.cpp  ****         sem_signal(KConsole::getOutputBufferHasSpace());
  64              		.loc 1 23 9 is_stmt 1
  65              	.LBB22:
  66              	.LBB23:
  41:src/../h/KConsole.hpp **** 
  42:src/../h/KConsole.hpp ****     static sem_t getOutputBufferHasSpace() { return outputBufferHasSpace; }
  67              		.loc 2 42 46
  68              	.LBE23:
  69              	.LBE22:
  70              		.loc 1 23 19 is_stmt 0
  71 0040 97070000 		la	a5,_ZN8KConsole20outputBufferHasSpaceE
  71      83B70700 
  72 0048 03B50700 		ld	a0,0(a5)
  73              	.LVL3:
  74 004c 97000000 		call	_Z10sem_signalP4KSem@plt
  74      E7800000 
  75              	.LVL4:
  76              	.LBE19:
  19:src/main.cpp  ****         char c = KConsole::getFromOutput();
  77              		.loc 1 19 5 is_stmt 1
  78              	.L6:
  19:src/main.cpp  ****         char c = KConsole::getFromOutput();
  79              		.loc 1 19 5
  80              	.LBB26:
  20:src/main.cpp  ****         while (!(KConsole::getSRvalue() & CONSOLE_TX_STATUS_BIT)) {}
  81              		.loc 1 20 9
  20:src/main.cpp  ****         while (!(KConsole::getSRvalue() & CONSOLE_TX_STATUS_BIT)) {}
  82              		.loc 1 20 41 is_stmt 0
  83 0054 97000000 		call	_ZN8KConsole13getFromOutputEv@plt
  83      E7800000 
  84              	.LVL5:
  85              	.L5:
  21:src/main.cpp  ****         KConsole::setDRvalue(c);
  86              		.loc 1 21 9 is_stmt 1
  21:src/main.cpp  ****         KConsole::setDRvalue(c);
  87              		.loc 1 21 16
  88              	.LBB24:
  89              	.LBB25:
  36:src/../h/KConsole.hpp **** 
  90              		.loc 2 36 33
  36:src/../h/KConsole.hpp **** 
  91              		.loc 2 36 40 is_stmt 0
  92 005c 97070000 		la	a5,_ZN8KConsole2srE
  92      83B70700 
  93 0064 83B70700 		ld	a5,0(a5)
  36:src/../h/KConsole.hpp **** 
  94              		.loc 2 36 41
GAS LISTING /tmp/ccER7Jua.s 			page 4


  95 0068 83C70700 		lbu	a5,0(a5)
  96              	.LBE25:
  97              	.LBE24:
  21:src/main.cpp  ****         KConsole::setDRvalue(c);
  98              		.loc 1 21 16
  99 006c 93F70702 		andi	a5,a5,32
 100 0070 E38607FE 		beqz	a5,.L5
 101 0074 6FF0DFFB 		j	.L8
 102              	.LBE26:
 103              		.cfi_endproc
 104              	.LFE52:
 106              		.align	2
 107              		.globl	_Z5main3v
 109              	_Z5main3v:
 110              	.LFB53:
  24:src/main.cpp  ****     }
  25:src/main.cpp  **** }
  26:src/main.cpp  **** 
  27:src/main.cpp  **** int main3() {
 111              		.loc 1 27 13 is_stmt 1
 112              		.cfi_startproc
 113 0078 130101FC 		addi	sp,sp,-64
 114              		.cfi_def_cfa_offset 64
 115 007c 233C1102 		sd	ra,56(sp)
 116 0080 23388102 		sd	s0,48(sp)
 117 0084 23349102 		sd	s1,40(sp)
 118              		.cfi_offset 1, -8
 119              		.cfi_offset 8, -16
 120              		.cfi_offset 9, -24
 121 0088 13040104 		addi	s0,sp,64
 122              		.cfi_def_cfa 8, 0
  28:src/main.cpp  ****     //postavljanje adrese prekidne rutine u stvec
  29:src/main.cpp  ****     __asm__ volatile("csrw stvec, %[handler]": :[handler] "r"(&interruptHandler));
 123              		.loc 1 29 5
 124              		.loc 1 29 82 is_stmt 0
 125 008c 97070000 		la	a5,interruptHandler
 125      83B70700 
 126              	#APP
 127              	# 29 "src/main.cpp" 1
  30              	
  31:src/main.cpp  ****     //inicijalizacija alokatora memorije
  32:src/main.cpp  ****     KMemory::initializeMemory();
 128              		csrw stvec, a5
 129              	# 0 "" 2
 130              		.loc 1 32 5 is_stmt 1
 131              		.loc 1 32 30 is_stmt 0
 132              	#NO_APP
 133 0098 97000000 		call	_ZN7KMemory16initializeMemoryEv@plt
 133      E7800000 
 134              	.LVL6:
  33:src/main.cpp  **** 
  34:src/main.cpp  ****     //inicijalizacija komunikacije sa konzolom
  35:src/main.cpp  ****     KConsole::initKConsole();
 135              		.loc 1 35 5 is_stmt 1
 136              		.loc 1 35 27 is_stmt 0
 137 00a0 97000000 		call	_ZN8KConsole12initKConsoleEv@plt
 137      E7800000 
GAS LISTING /tmp/ccER7Jua.s 			page 5


 138              	.LVL7:
  36:src/main.cpp  **** 
  37:src/main.cpp  ****     //pravljenje niti
  38:src/main.cpp  ****     thread_t mainHandle;
 139              		.loc 1 38 5 is_stmt 1
  39:src/main.cpp  ****     thread_t userHandle;
 140              		.loc 1 39 5
  40:src/main.cpp  ****     thread_t idleHandle;
 141              		.loc 1 40 5
  41:src/main.cpp  ****     thread_t consoleOutputHandle;
 142              		.loc 1 41 5
  42:src/main.cpp  ****     thread_create(&mainHandle, (TCB::Body)main, nullptr);
 143              		.loc 1 42 5
 144              		.loc 1 42 18 is_stmt 0
 145 00a8 13060000 		li	a2,0
 146 00ac 97050000 		la	a1,main
 146      83B50500 
 147 00b4 130584FD 		addi	a0,s0,-40
 148 00b8 97000000 		call	_Z13thread_createPP3TCBPFvPvES2_@plt
 148      E7800000 
 149              	.LVL8:
  43:src/main.cpp  ****     TCB::setRunning(mainHandle);
 150              		.loc 1 43 5 is_stmt 1
 151              		.loc 1 43 20 is_stmt 0
 152 00c0 833784FD 		ld	a5,-40(s0)
 153              	.LVL9:
 154              	.LBB27:
 155              	.LBB28:
 156              		.file 3 "src/../h/TCB.hpp"
   1:src/../h/TCB.hpp **** //
   2:src/../h/TCB.hpp **** // Created by os on 5/23/23.
   3:src/../h/TCB.hpp **** //
   4:src/../h/TCB.hpp **** 
   5:src/../h/TCB.hpp **** #ifndef PROJEKAT2023_TCB_HPP
   6:src/../h/TCB.hpp **** #define PROJEKAT2023_TCB_HPP
   7:src/../h/TCB.hpp **** 
   8:src/../h/TCB.hpp **** #include "../lib/hw.h"
   9:src/../h/TCB.hpp **** #include "../h/ThreadQueue.hpp"
  10:src/../h/TCB.hpp **** 
  11:src/../h/TCB.hpp **** int main();
  12:src/../h/TCB.hpp **** 
  13:src/../h/TCB.hpp **** class TCB {
  14:src/../h/TCB.hpp **** public:
  15:src/../h/TCB.hpp ****     friend class Scheduler;
  16:src/../h/TCB.hpp **** 
  17:src/../h/TCB.hpp ****     using Body = void (*)(void*);
  18:src/../h/TCB.hpp **** 
  19:src/../h/TCB.hpp ****     enum ThreadStatus {
  20:src/../h/TCB.hpp ****         CREATED, ACTIVE, BLOCKED, JOINING, SLEEPING, FINISHED
  21:src/../h/TCB.hpp ****     };
  22:src/../h/TCB.hpp **** 
  23:src/../h/TCB.hpp ****     static TCB* createThread(Body function, void* args, uint64* stack);
  24:src/../h/TCB.hpp **** 
  25:src/../h/TCB.hpp ****     void setStatus(ThreadStatus stat) { this->status = stat; }
  26:src/../h/TCB.hpp **** 
  27:src/../h/TCB.hpp ****     ThreadStatus getStatus() { return this->status; }
  28:src/../h/TCB.hpp **** 
GAS LISTING /tmp/ccER7Jua.s 			page 6


  29:src/../h/TCB.hpp ****     uint64 getTimeSlice() { return timeSlice; }
  30:src/../h/TCB.hpp **** 
  31:src/../h/TCB.hpp ****     Body getBody() { return threadFunction; }
  32:src/../h/TCB.hpp **** 
  33:src/../h/TCB.hpp ****     static TCB* getRunning() { return running; }
  34:src/../h/TCB.hpp **** 
  35:src/../h/TCB.hpp ****     static void setRunning(TCB* newRunning) { running = newRunning; }
 157              		.loc 3 35 47 is_stmt 1
 158              		.loc 3 35 55 is_stmt 0
 159 00c4 17070000 		la	a4,_ZN3TCB7runningE
 159      03370700 
 160 00cc 2330F700 		sd	a5,0(a4)
 161              	.LVL10:
 162              	.LBE28:
 163              	.LBE27:
  44:src/main.cpp  ****     mainHandle->setStatus(TCB::ACTIVE);
 164              		.loc 1 44 5 is_stmt 1
 165              	.LBB29:
 166              	.LBB30:
  25:src/../h/TCB.hpp **** 
 167              		.loc 3 25 41
  25:src/../h/TCB.hpp **** 
 168              		.loc 3 25 54 is_stmt 0
 169 00d0 13071000 		li	a4,1
 170 00d4 23ACE704 		sw	a4,88(a5)
 171              	.LVL11:
 172              	.LBE30:
 173              	.LBE29:
  45:src/main.cpp  ****     thread_create(&userHandle, (TCB::Body)userMain, nullptr);
 174              		.loc 1 45 5 is_stmt 1
 175              		.loc 1 45 18 is_stmt 0
 176 00d8 13060000 		li	a2,0
 177 00dc 97050000 		la	a1,_Z8userMainv
 177      83B50500 
 178 00e4 130504FD 		addi	a0,s0,-48
 179 00e8 97000000 		call	_Z13thread_createPP3TCBPFvPvES2_@plt
 179      E7800000 
 180              	.LVL12:
  46:src/main.cpp  ****     thread_create(&consoleOutputHandle, kernelConsumerFunction, nullptr);
 181              		.loc 1 46 5 is_stmt 1
 182              		.loc 1 46 18 is_stmt 0
 183 00f0 13060000 		li	a2,0
 184 00f4 97050000 		lla	a1,_Z22kernelConsumerFunctionPv
 184      93850500 
 185 00fc 130504FC 		addi	a0,s0,-64
 186 0100 97000000 		call	_Z13thread_createPP3TCBPFvPvES2_@plt
 186      E7800000 
 187              	.LVL13:
  47:src/main.cpp  ****     thread_create(&idleHandle, idle, nullptr);
 188              		.loc 1 47 5 is_stmt 1
 189              		.loc 1 47 18 is_stmt 0
 190 0108 13060000 		li	a2,0
 191 010c 97050000 		lla	a1,_Z4idlePv
 191      93850500 
 192 0114 130584FC 		addi	a0,s0,-56
 193 0118 97000000 		call	_Z13thread_createPP3TCBPFvPvES2_@plt
 193      E7800000 
GAS LISTING /tmp/ccER7Jua.s 			page 7


 194              	.LVL14:
  48:src/main.cpp  **** 
  49:src/main.cpp  ****     //omogucavanje prekida
  50:src/main.cpp  ****     Riscv::ms_sstatus(Riscv::SSTATUS_SIE);
 195              		.loc 1 50 5 is_stmt 1
 196              	.LBB31:
 197              	.LBB32:
 198              		.file 4 "src/../h/Riscv.hpp"
   1:src/../h/Riscv.hpp **** //
   2:src/../h/Riscv.hpp **** // Created by os on 5/17/23.
   3:src/../h/Riscv.hpp **** //
   4:src/../h/Riscv.hpp **** 
   5:src/../h/Riscv.hpp **** #ifndef PROJEKAT2023_RISCV_HPP
   6:src/../h/Riscv.hpp **** #define PROJEKAT2023_RISCV_HPP
   7:src/../h/Riscv.hpp **** 
   8:src/../h/Riscv.hpp **** #include "../lib/hw.h"
   9:src/../h/Riscv.hpp **** 
  10:src/../h/Riscv.hpp **** class Riscv {
  11:src/../h/Riscv.hpp **** public:
  12:src/../h/Riscv.hpp **** 
  13:src/../h/Riscv.hpp **** 	static void returnFromInterrupt();
  14:src/../h/Riscv.hpp **** 
  15:src/../h/Riscv.hpp **** 	//read scause
  16:src/../h/Riscv.hpp **** 	static uint64 r_scause();
  17:src/../h/Riscv.hpp **** 
  18:src/../h/Riscv.hpp **** 	//write scause
  19:src/../h/Riscv.hpp **** 	static void w_scause(uint64 scause);
  20:src/../h/Riscv.hpp **** 
  21:src/../h/Riscv.hpp **** 	//read sepc
  22:src/../h/Riscv.hpp **** 	static uint64 r_sepc();
  23:src/../h/Riscv.hpp **** 
  24:src/../h/Riscv.hpp **** 	//write sepc
  25:src/../h/Riscv.hpp **** 	static void w_sepc(uint64 sepc);
  26:src/../h/Riscv.hpp **** 
  27:src/../h/Riscv.hpp **** 	//read stvec
  28:src/../h/Riscv.hpp **** 	static uint64 r_stvec();
  29:src/../h/Riscv.hpp **** 
  30:src/../h/Riscv.hpp **** 	//write stvec
  31:src/../h/Riscv.hpp **** 	static void w_stvec(uint64 stvec);
  32:src/../h/Riscv.hpp **** 
  33:src/../h/Riscv.hpp **** 	enum BitMaskSip {
  34:src/../h/Riscv.hpp **** 		//postoji zahtev za softverski prekid
  35:src/../h/Riscv.hpp **** 		SIP_SSIP = (1 << 1),
  36:src/../h/Riscv.hpp **** 		//postoji prekid od tajmera
  37:src/../h/Riscv.hpp **** 		SIP_STIP = (1 << 5),
  38:src/../h/Riscv.hpp **** 		//postoji zahtev za spoljasnji hardverski prekid
  39:src/../h/Riscv.hpp **** 		SIP_SEIP = (1 << 9)
  40:src/../h/Riscv.hpp **** 	};
  41:src/../h/Riscv.hpp **** 
  42:src/../h/Riscv.hpp **** 	//mask set sip
  43:src/../h/Riscv.hpp **** 	static void ms_sip(uint64 mask);
  44:src/../h/Riscv.hpp **** 
  45:src/../h/Riscv.hpp **** 	//mask clear sip
  46:src/../h/Riscv.hpp **** 	static void mc_sip(uint64 mask);
  47:src/../h/Riscv.hpp **** 
  48:src/../h/Riscv.hpp **** 	//read sip
  49:src/../h/Riscv.hpp **** 	static uint64 r_sip();
GAS LISTING /tmp/ccER7Jua.s 			page 8


  50:src/../h/Riscv.hpp **** 
  51:src/../h/Riscv.hpp **** 	//write sip
  52:src/../h/Riscv.hpp **** 	static void w_sip(uint64 sip);
  53:src/../h/Riscv.hpp **** 
  54:src/../h/Riscv.hpp **** 	//kada se pozove sret, SIE dobija vrednost SPIE, SPIE se postavlja na 1,
  55:src/../h/Riscv.hpp **** 	//rezim se postavlja na osnovu SPP bita, SPP se postavlja na 0
  56:src/../h/Riscv.hpp **** 	enum BitMaskSstatus {
  57:src/../h/Riscv.hpp **** 		//1 - dozvoljeni prekidi; 0- nedozvoljeni prekidi; igonrise se u korisnickom rezimu
  58:src/../h/Riscv.hpp **** 		SSTATUS_SIE = (1 << 1),
  59:src/../h/Riscv.hpp **** 		//prethodna vrednost bita SIE
  60:src/../h/Riscv.hpp **** 		SSTATUS_SPIE = (1 << 5),
  61:src/../h/Riscv.hpp **** 		//iz kog rezima se desio skok; 0 - iz korisnickog; 1 - iz sistemskog
  62:src/../h/Riscv.hpp **** 		SSTATUS_SPP = (1 << 8)
  63:src/../h/Riscv.hpp **** 	};
  64:src/../h/Riscv.hpp **** 
  65:src/../h/Riscv.hpp **** 	//mask set sstatus
  66:src/../h/Riscv.hpp **** 	static void ms_sstatus(uint64 mask);
  67:src/../h/Riscv.hpp **** 
  68:src/../h/Riscv.hpp **** 	//mask clear sstatus
  69:src/../h/Riscv.hpp **** 	static void mc_sstatus(uint64 mask);
  70:src/../h/Riscv.hpp **** 
  71:src/../h/Riscv.hpp **** 	//read sstatus
  72:src/../h/Riscv.hpp **** 	static uint64 r_sstatus();
  73:src/../h/Riscv.hpp **** 
  74:src/../h/Riscv.hpp **** 	//write sstatus
  75:src/../h/Riscv.hpp **** 	static void w_sstatus(uint64 sstatus);
  76:src/../h/Riscv.hpp **** 
  77:src/../h/Riscv.hpp **** };
  78:src/../h/Riscv.hpp **** 
  79:src/../h/Riscv.hpp **** inline uint64 Riscv::r_scause() {
  80:src/../h/Riscv.hpp **** 	uint64 volatile scause;
  81:src/../h/Riscv.hpp **** 	__asm__ volatile("csrr %[scause], scause": [scause] "=r"(scause));
  82:src/../h/Riscv.hpp **** 	return scause;
  83:src/../h/Riscv.hpp **** }
  84:src/../h/Riscv.hpp **** 
  85:src/../h/Riscv.hpp **** inline void Riscv::w_scause(uint64 scause) {
  86:src/../h/Riscv.hpp **** 	__asm__ volatile("csrw scause, %[scause]": :[scause] "r"(scause));
  87:src/../h/Riscv.hpp **** }
  88:src/../h/Riscv.hpp **** 
  89:src/../h/Riscv.hpp **** inline uint64 Riscv::r_sepc() {
  90:src/../h/Riscv.hpp **** 	uint64 volatile sepc;
  91:src/../h/Riscv.hpp **** 	__asm__ volatile("csrr %[sepc], sepc": [sepc] "=r"(sepc));
  92:src/../h/Riscv.hpp **** 	return sepc;
  93:src/../h/Riscv.hpp **** }
  94:src/../h/Riscv.hpp **** 
  95:src/../h/Riscv.hpp **** inline void Riscv::w_sepc(uint64 sepc) {
  96:src/../h/Riscv.hpp **** 	__asm__ volatile("csrw sepc, %[sepc]": :[sepc] "r"(sepc));
  97:src/../h/Riscv.hpp **** }
  98:src/../h/Riscv.hpp **** 
  99:src/../h/Riscv.hpp **** inline uint64 Riscv::r_stvec() {
 100:src/../h/Riscv.hpp **** 	uint64 volatile stvec;
 101:src/../h/Riscv.hpp **** 	__asm__ volatile("csrr %[stvec], stvec": [stvec] "=r"(stvec));
 102:src/../h/Riscv.hpp **** 	return stvec;
 103:src/../h/Riscv.hpp **** }
 104:src/../h/Riscv.hpp **** 
 105:src/../h/Riscv.hpp **** inline void Riscv::w_stvec(uint64 stvec) {
 106:src/../h/Riscv.hpp **** 	__asm__ volatile("csrw stvec, %[stvec]": :[stvec] "r"(stvec));
GAS LISTING /tmp/ccER7Jua.s 			page 9


 107:src/../h/Riscv.hpp **** }
 108:src/../h/Riscv.hpp **** 
 109:src/../h/Riscv.hpp **** inline void Riscv::ms_sip(uint64 mask) {
 110:src/../h/Riscv.hpp **** 	__asm__ volatile("csrs sip, %[mask]": :[mask] "r"(mask));
 111:src/../h/Riscv.hpp **** }
 112:src/../h/Riscv.hpp **** 
 113:src/../h/Riscv.hpp **** inline void Riscv::mc_sip(uint64 mask) {
 114:src/../h/Riscv.hpp **** 	__asm__ volatile("csrc sip, %[mask]": :[mask] "r"(mask));
 115:src/../h/Riscv.hpp **** }
 116:src/../h/Riscv.hpp **** 
 117:src/../h/Riscv.hpp **** inline uint64 Riscv::r_sip() {
 118:src/../h/Riscv.hpp **** 	uint64 volatile sip;
 119:src/../h/Riscv.hpp **** 	__asm__ volatile("csrr %[sip], sip": [sip] "=r"(sip));
 120:src/../h/Riscv.hpp **** 	return sip;
 121:src/../h/Riscv.hpp **** }
 122:src/../h/Riscv.hpp **** 
 123:src/../h/Riscv.hpp **** inline void Riscv::w_sip(uint64 sip) {
 124:src/../h/Riscv.hpp **** 	__asm__ volatile("csrw sip, %[sip]": :[sip] "r"(sip));
 125:src/../h/Riscv.hpp **** }
 126:src/../h/Riscv.hpp **** 
 127:src/../h/Riscv.hpp **** inline void Riscv::ms_sstatus(uint64 mask) {
 128:src/../h/Riscv.hpp **** 	__asm__ volatile("csrs sstatus, %[mask]": :[mask] "r"(mask));
 199              		.loc 4 128 2
 200              		.loc 4 128 62 is_stmt 0
 201 0120 93042000 		li	s1,2
 202              	#APP
 203              	# 128 "src/../h/Riscv.hpp" 1
 129              	}
 204              		csrs sstatus, s1
 205              	# 0 "" 2
 206              	.LVL15:
 207              	#NO_APP
 208              	.LBE32:
 209              	.LBE31:
  51:src/main.cpp  **** 
  52:src/main.cpp  ****     //cekanje da se userMain zavrsi
  53:src/main.cpp  ****     thread_join(userHandle);
 210              		.loc 1 53 5 is_stmt 1
 211              		.loc 1 53 16 is_stmt 0
 212 0128 033504FD 		ld	a0,-48(s0)
 213 012c 97000000 		call	_Z11thread_joinP3TCB@plt
 213      E7800000 
 214              	.LVL16:
  54:src/main.cpp  **** 
  55:src/main.cpp  ****     //flush output bafera za konzolu
  56:src/main.cpp  ****     KConsole::flush();
 215              		.loc 1 56 5 is_stmt 1
 216              	.LBB33:
 217              	.LBB34:
  32:src/../h/KConsole.hpp ****         __asm__ volatile("ecall");
 218              		.loc 2 32 9
  32:src/../h/KConsole.hpp ****         __asm__ volatile("ecall");
 219              		.loc 2 32 40 is_stmt 0
 220              	#APP
 221              	# 32 "src/../h/KConsole.hpp" 1
  33:src/../h/KConsole.hpp ****     }
 222              		li a0, 0x43
GAS LISTING /tmp/ccER7Jua.s 			page 10


 223              	# 0 "" 2
 224              		.loc 2 33 9 is_stmt 1
  33:src/../h/KConsole.hpp ****     }
 225              		.loc 2 33 34 is_stmt 0
 226              	# 33 "src/../h/KConsole.hpp" 1
 227              		ecall
 228              	# 0 "" 2
 229              	#NO_APP
 230              	.LBE34:
 231              	.LBE33:
  57:src/main.cpp  **** 
  58:src/main.cpp  ****     //maskiranje svih prekida
  59:src/main.cpp  ****     Riscv::mc_sstatus(Riscv::SSTATUS_SIE);
 232              		.loc 1 59 5 is_stmt 1
 233              	.LVL17:
 234              	.LBB35:
 235              	.LBB36:
 130:src/../h/Riscv.hpp **** 
 131:src/../h/Riscv.hpp **** inline void Riscv::mc_sstatus(uint64 mask) {
 132:src/../h/Riscv.hpp **** 	__asm__ volatile("csrc sstatus, %[mask]": :[mask] "r"(mask));
 236              		.loc 4 132 2
 237              		.loc 4 132 62 is_stmt 0
 238              	#APP
 239              	# 132 "src/../h/Riscv.hpp" 1
 133              	}
 240              		csrc sstatus, s1
 241              	# 0 "" 2
 242              	.LVL18:
 243              	#NO_APP
 244              	.LBE36:
 245              	.LBE35:
  60:src/main.cpp  **** 
  61:src/main.cpp  ****     return 0;
 246              		.loc 1 61 5 is_stmt 1
  62:src/main.cpp  **** }...
 247              		.loc 1 62 1 is_stmt 0
 248 0140 13050000 		li	a0,0
 249 0144 83308103 		ld	ra,56(sp)
 250              		.cfi_restore 1
 251 0148 03340103 		ld	s0,48(sp)
 252              		.cfi_restore 8
 253              		.cfi_def_cfa 2, 64
 254 014c 83348102 		ld	s1,40(sp)
 255              		.cfi_restore 9
 256 0150 13010104 		addi	sp,sp,64
 257              		.cfi_def_cfa_offset 0
 258 0154 67800000 		jr	ra
 259              		.cfi_endproc
 260              	.LFE53:
 262              	.Letext0:
 263              		.file 5 "src/../lib/hw.h"
 264              		.file 6 "src/../h/KMemory.hpp"
 265              		.file 7 "src/../h/../h/../h/syscall_c.hpp"
 266              		.file 8 "src/../h/../h/ThreadQueue.hpp"
GAS LISTING /tmp/ccER7Jua.s 			page 11


DEFINED SYMBOLS
                            *ABS*:0000000000000000 main.cpp
     /tmp/ccER7Jua.s:9      .text:0000000000000000 _Z4idlePv
     /tmp/ccER7Jua.s:13     .text:0000000000000000 .L0 
     /tmp/ccER7Jua.s:14     .text:0000000000000000 .L0 
     /tmp/ccER7Jua.s:15     .text:0000000000000004 .L0 
     /tmp/ccER7Jua.s:18     .text:000000000000000c .L0 
     /tmp/ccER7Jua.s:19     .text:000000000000000c .L0 
     /tmp/ccER7Jua.s:21     .text:0000000000000010 .L0 
     /tmp/ccER7Jua.s:24     .text:0000000000000010 .L0 
     /tmp/ccER7Jua.s:25     .text:0000000000000010 .L0 
     /tmp/ccER7Jua.s:26     .text:0000000000000010 .L0 
     /tmp/ccER7Jua.s:29     .text:0000000000000018 .L0 
     /tmp/ccER7Jua.s:30     .text:000000000000001c .L0 
     /tmp/ccER7Jua.s:36     .text:000000000000001c _Z22kernelConsumerFunctionPv
     /tmp/ccER7Jua.s:39     .text:000000000000001c .L0 
     /tmp/ccER7Jua.s:40     .text:000000000000001c .L0 
     /tmp/ccER7Jua.s:41     .text:0000000000000020 .L0 
     /tmp/ccER7Jua.s:44     .text:0000000000000028 .L0 
     /tmp/ccER7Jua.s:45     .text:0000000000000028 .L0 
     /tmp/ccER7Jua.s:47     .text:000000000000002c .L0 
     /tmp/ccER7Jua.s:56     .text:0000000000000030 .L0 
     /tmp/ccER7Jua.s:57     .text:0000000000000030 .L0 
     /tmp/ccER7Jua.s:60     .text:000000000000003c .L0 
     /tmp/ccER7Jua.s:67     .text:0000000000000040 .L0 
     /tmp/ccER7Jua.s:70     .text:0000000000000040 .L0 
     /tmp/ccER7Jua.s:71     .text:0000000000000040 .L0 
     /tmp/ccER7Jua.s:79     .text:0000000000000054 .L0 
     /tmp/ccER7Jua.s:81     .text:0000000000000054 .L0 
     /tmp/ccER7Jua.s:82     .text:0000000000000054 .L0 
     /tmp/ccER7Jua.s:83     .text:0000000000000054 .L0 
     /tmp/ccER7Jua.s:87     .text:000000000000005c .L0 
     /tmp/ccER7Jua.s:90     .text:000000000000005c .L0 
     /tmp/ccER7Jua.s:91     .text:000000000000005c .L0 
     /tmp/ccER7Jua.s:92     .text:000000000000005c .L0 
     /tmp/ccER7Jua.s:95     .text:0000000000000068 .L0 
     /tmp/ccER7Jua.s:99     .text:000000000000006c .L0 
     /tmp/ccER7Jua.s:103    .text:0000000000000078 .L0 
     /tmp/ccER7Jua.s:109    .text:0000000000000078 _Z5main3v
     /tmp/ccER7Jua.s:112    .text:0000000000000078 .L0 
     /tmp/ccER7Jua.s:113    .text:0000000000000078 .L0 
     /tmp/ccER7Jua.s:114    .text:000000000000007c .L0 
     /tmp/ccER7Jua.s:118    .text:0000000000000088 .L0 
     /tmp/ccER7Jua.s:119    .text:0000000000000088 .L0 
     /tmp/ccER7Jua.s:120    .text:0000000000000088 .L0 
     /tmp/ccER7Jua.s:122    .text:000000000000008c .L0 
     /tmp/ccER7Jua.s:124    .text:000000000000008c .L0 
     /tmp/ccER7Jua.s:125    .text:000000000000008c .L0 
     /tmp/ccER7Jua.s:131    .text:0000000000000098 .L0 
     /tmp/ccER7Jua.s:133    .text:0000000000000098 .L0 
     /tmp/ccER7Jua.s:136    .text:00000000000000a0 .L0 
     /tmp/ccER7Jua.s:137    .text:00000000000000a0 .L0 
     /tmp/ccER7Jua.s:140    .text:00000000000000a8 .L0 
     /tmp/ccER7Jua.s:141    .text:00000000000000a8 .L0 
     /tmp/ccER7Jua.s:142    .text:00000000000000a8 .L0 
     /tmp/ccER7Jua.s:143    .text:00000000000000a8 .L0 
     /tmp/ccER7Jua.s:144    .text:00000000000000a8 .L0 
GAS LISTING /tmp/ccER7Jua.s 			page 12


     /tmp/ccER7Jua.s:145    .text:00000000000000a8 .L0 
     /tmp/ccER7Jua.s:151    .text:00000000000000c0 .L0 
     /tmp/ccER7Jua.s:152    .text:00000000000000c0 .L0 
     /tmp/ccER7Jua.s:158    .text:00000000000000c4 .L0 
     /tmp/ccER7Jua.s:159    .text:00000000000000c4 .L0 
     /tmp/ccER7Jua.s:167    .text:00000000000000d0 .L0 
     /tmp/ccER7Jua.s:168    .text:00000000000000d0 .L0 
     /tmp/ccER7Jua.s:169    .text:00000000000000d0 .L0 
     /tmp/ccER7Jua.s:175    .text:00000000000000d8 .L0 
     /tmp/ccER7Jua.s:176    .text:00000000000000d8 .L0 
     /tmp/ccER7Jua.s:182    .text:00000000000000f0 .L0 
     /tmp/ccER7Jua.s:183    .text:00000000000000f0 .L0 
     /tmp/ccER7Jua.s:189    .text:0000000000000108 .L0 
     /tmp/ccER7Jua.s:190    .text:0000000000000108 .L0 
     /tmp/ccER7Jua.s:199    .text:0000000000000120 .L0 
     /tmp/ccER7Jua.s:200    .text:0000000000000120 .L0 
     /tmp/ccER7Jua.s:201    .text:0000000000000120 .L0 
     /tmp/ccER7Jua.s:211    .text:0000000000000128 .L0 
     /tmp/ccER7Jua.s:212    .text:0000000000000128 .L0 
     /tmp/ccER7Jua.s:218    .text:0000000000000134 .L0 
     /tmp/ccER7Jua.s:219    .text:0000000000000134 .L0 
src/../h/KConsole.hpp:32     .text:0000000000000134 .L0 
     /tmp/ccER7Jua.s:225    .text:0000000000000138 .L0 
src/../h/KConsole.hpp:33     .text:0000000000000138 .L0 
     /tmp/ccER7Jua.s:236    .text:000000000000013c .L0 
     /tmp/ccER7Jua.s:237    .text:000000000000013c .L0 
  src/../h/Riscv.hpp:132    .text:000000000000013c .L0 
     /tmp/ccER7Jua.s:247    .text:0000000000000140 .L0 
     /tmp/ccER7Jua.s:248    .text:0000000000000140 .L0 
     /tmp/ccER7Jua.s:250    .text:0000000000000148 .L0 
     /tmp/ccER7Jua.s:252    .text:000000000000014c .L0 
     /tmp/ccER7Jua.s:253    .text:000000000000014c .L0 
     /tmp/ccER7Jua.s:255    .text:0000000000000150 .L0 
     /tmp/ccER7Jua.s:257    .text:0000000000000154 .L0 
     /tmp/ccER7Jua.s:259    .text:0000000000000158 .L0 
     /tmp/ccER7Jua.s:267    .text:0000000000000158 .L0 
     /tmp/ccER7Jua.s:57     .text:0000000000000030 .L0 
     /tmp/ccER7Jua.s:71     .text:0000000000000040 .L0 
     /tmp/ccER7Jua.s:92     .text:000000000000005c .L0 
     /tmp/ccER7Jua.s:125    .text:000000000000008c .L0 
     /tmp/ccER7Jua.s:146    .text:00000000000000ac .L0 
     /tmp/ccER7Jua.s:159    .text:00000000000000c4 .L0 
     /tmp/ccER7Jua.s:177    .text:00000000000000dc .L0 
     /tmp/ccER7Jua.s:184    .text:00000000000000f4 .L0 
     /tmp/ccER7Jua.s:191    .text:000000000000010c .L0 
     /tmp/ccER7Jua.s:22     .text:0000000000000010 .L2
     /tmp/ccER7Jua.s:78     .text:0000000000000054 .L6
     /tmp/ccER7Jua.s:85     .text:000000000000005c .L5
     /tmp/ccER7Jua.s:50     .text:0000000000000030 .L8
     /tmp/ccER7Jua.s:1849   .debug_abbrev:0000000000000000 .Ldebug_abbrev0
     /tmp/ccER7Jua.s:3309   .debug_str:0000000000000a3d .LASF203
     /tmp/ccER7Jua.s:3077   .debug_str:000000000000036b .LASF204
     /tmp/ccER7Jua.s:3267   .debug_str:000000000000091c .LASF205
     /tmp/ccER7Jua.s:5      .text:0000000000000000 .Ltext0
     /tmp/ccER7Jua.s:262    .text:0000000000000158 .Letext0
     /tmp/ccER7Jua.s:2965   .debug_line:0000000000000000 .Ldebug_line0
     /tmp/ccER7Jua.s:3115   .debug_str:000000000000048f .LASF0
GAS LISTING /tmp/ccER7Jua.s 			page 13


     /tmp/ccER7Jua.s:3141   .debug_str:0000000000000535 .LASF1
     /tmp/ccER7Jua.s:3249   .debug_str:0000000000000897 .LASF2
     /tmp/ccER7Jua.s:3061   .debug_str:00000000000002d8 .LASF3
     /tmp/ccER7Jua.s:3261   .debug_str:00000000000008fb .LASF4
     /tmp/ccER7Jua.s:3127   .debug_str:00000000000004d7 .LASF5
     /tmp/ccER7Jua.s:2983   .debug_str:0000000000000085 .LASF6
     /tmp/ccER7Jua.s:3215   .debug_str:0000000000000799 .LASF7
     /tmp/ccER7Jua.s:3209   .debug_str:0000000000000771 .LASF8
     /tmp/ccER7Jua.s:3131   .debug_str:00000000000004f6 .LASF9
     /tmp/ccER7Jua.s:3089   .debug_str:00000000000003b4 .LASF10
     /tmp/ccER7Jua.s:3101   .debug_str:000000000000041b .LASF11
     /tmp/ccER7Jua.s:3015   .debug_str:0000000000000160 .LASF12
     /tmp/ccER7Jua.s:3075   .debug_str:000000000000035c .LASF13
     /tmp/ccER7Jua.s:3029   .debug_str:00000000000001cb .LASF14
     /tmp/ccER7Jua.s:3013   .debug_str:0000000000000150 .LASF15
     /tmp/ccER7Jua.s:3289   .debug_str:00000000000009c9 .LASF16
     /tmp/ccER7Jua.s:3057   .debug_str:00000000000002a4 .LASF17
     /tmp/ccER7Jua.s:3281   .debug_str:000000000000099a .LASF18
     /tmp/ccER7Jua.s:3357   .debug_str:0000000000000c3f .LASF48
     /tmp/ccER7Jua.s:3339   .debug_str:0000000000000be5 .LASF108
     /tmp/ccER7Jua.s:3067   .debug_str:0000000000000302 .LASF19
     /tmp/ccER7Jua.s:3307   .debug_str:0000000000000a30 .LASF20
     /tmp/ccER7Jua.s:3039   .debug_str:0000000000000233 .LASF21
     /tmp/ccER7Jua.s:3167   .debug_str:00000000000005f5 .LASF50
     /tmp/ccER7Jua.s:3329   .debug_str:0000000000000b99 .LASF52
     /tmp/ccER7Jua.s:3327   .debug_str:0000000000000b90 .LASF22
     /tmp/ccER7Jua.s:3319   .debug_str:0000000000000b3f .LASF24
     /tmp/ccER7Jua.s:3245   .debug_str:0000000000000883 .LASF26
     /tmp/ccER7Jua.s:3195   .debug_str:00000000000006e5 .LASF28
     /tmp/ccER7Jua.s:3221   .debug_str:00000000000007b2 .LASF23
     /tmp/ccER7Jua.s:3229   .debug_str:00000000000007eb .LASF25
     /tmp/ccER7Jua.s:3181   .debug_str:000000000000067b .LASF27
     /tmp/ccER7Jua.s:3133   .debug_str:0000000000000509 .LASF29
     /tmp/ccER7Jua.s:3369   .debug_str:0000000000000ca6 .LASF30
     /tmp/ccER7Jua.s:3311   .debug_str:0000000000000b01 .LASF31
     /tmp/ccER7Jua.s:3179   .debug_str:0000000000000673 .LASF32
     /tmp/ccER7Jua.s:3193   .debug_str:00000000000006d1 .LASF33
     /tmp/ccER7Jua.s:3285   .debug_str:00000000000009b5 .LASF34
     /tmp/ccER7Jua.s:3263   .debug_str:0000000000000902 .LASF35
     /tmp/ccER7Jua.s:3265   .debug_str:0000000000000915 .LASF36
     /tmp/ccER7Jua.s:3023   .debug_str:00000000000001a0 .LASF37
     /tmp/ccER7Jua.s:3055   .debug_str:000000000000029e .LASF38
     /tmp/ccER7Jua.s:3109   .debug_str:0000000000000466 .LASF39
     /tmp/ccER7Jua.s:3121   .debug_str:00000000000004bb .LASF40
     /tmp/ccER7Jua.s:3043   .debug_str:0000000000000246 .LASF41
     /tmp/ccER7Jua.s:2985   .debug_str:000000000000008c .LASF42
     /tmp/ccER7Jua.s:3253   .debug_str:00000000000008af .LASF43
     /tmp/ccER7Jua.s:3247   .debug_str:000000000000088c .LASF44
     /tmp/ccER7Jua.s:3381   .debug_str:0000000000000d08 .LASF45
     /tmp/ccER7Jua.s:3359   .debug_str:0000000000000c45 .LASF46
     /tmp/ccER7Jua.s:3373   .debug_str:0000000000000cb8 .LASF47
     /tmp/ccER7Jua.s:3353   .debug_str:0000000000000c1f .LASF63
     /tmp/ccER7Jua.s:3165   .debug_str:00000000000005df .LASF65
     /tmp/ccER7Jua.s:3065   .debug_str:00000000000002fa .LASF49
     /tmp/ccER7Jua.s:3009   .debug_str:0000000000000130 .LASF51
     /tmp/ccER7Jua.s:3223   .debug_str:00000000000007b9 .LASF53
     /tmp/ccER7Jua.s:3079   .debug_str:0000000000000378 .LASF54
GAS LISTING /tmp/ccER7Jua.s 			page 14


     /tmp/ccER7Jua.s:3091   .debug_str:00000000000003c4 .LASF56
     /tmp/ccER7Jua.s:3083   .debug_str:0000000000000385 .LASF55
     /tmp/ccER7Jua.s:3119   .debug_str:00000000000004a6 .LASF57
     /tmp/ccER7Jua.s:3113   .debug_str:0000000000000483 .LASF58
     /tmp/ccER7Jua.s:3163   .debug_str:00000000000005d3 .LASF59
     /tmp/ccER7Jua.s:3255   .debug_str:00000000000008c7 .LASF60
     /tmp/ccER7Jua.s:3227   .debug_str:00000000000007e1 .LASF61
     /tmp/ccER7Jua.s:3213   .debug_str:000000000000078a .LASF62
     /tmp/ccER7Jua.s:3203   .debug_str:000000000000073f .LASF64
     /tmp/ccER7Jua.s:2987   .debug_str:0000000000000097 .LASF66
     /tmp/ccER7Jua.s:3157   .debug_str:00000000000005a5 .LASF67
     /tmp/ccER7Jua.s:3007   .debug_str:000000000000012a .LASF68
     /tmp/ccER7Jua.s:3283   .debug_str:00000000000009b0 .LASF206
     /tmp/ccER7Jua.s:3153   .debug_str:0000000000000588 .LASF69
     /tmp/ccER7Jua.s:3047   .debug_str:0000000000000270 .LASF70
     /tmp/ccER7Jua.s:3321   .debug_str:0000000000000b54 .LASF71
     /tmp/ccER7Jua.s:3269   .debug_str:000000000000093a .LASF72
     /tmp/ccER7Jua.s:3187   .debug_str:000000000000069a .LASF73
     /tmp/ccER7Jua.s:3211   .debug_str:0000000000000784 .LASF74
     /tmp/ccER7Jua.s:3177   .debug_str:000000000000065e .LASF75
     /tmp/ccER7Jua.s:3125   .debug_str:00000000000004c9 .LASF76
     /tmp/ccER7Jua.s:3207   .debug_str:0000000000000753 .LASF77
     /tmp/ccER7Jua.s:3107   .debug_str:0000000000000459 .LASF78
     /tmp/ccER7Jua.s:3241   .debug_str:0000000000000856 .LASF79
     /tmp/ccER7Jua.s:3331   .debug_str:0000000000000bba .LASF80
     /tmp/ccER7Jua.s:3005   .debug_str:0000000000000115 .LASF81
     /tmp/ccER7Jua.s:2981   .debug_str:000000000000007a .LASF82
     /tmp/ccER7Jua.s:3361   .debug_str:0000000000000c4f .LASF83
     /tmp/ccER7Jua.s:2969   .debug_str:000000000000001b .LASF84
     /tmp/ccER7Jua.s:3087   .debug_str:0000000000000399 .LASF85
     /tmp/ccER7Jua.s:3293   .debug_str:00000000000009da .LASF86
     /tmp/ccER7Jua.s:2967   .debug_str:0000000000000000 .LASF87
     /tmp/ccER7Jua.s:3151   .debug_str:0000000000000570 .LASF88
     /tmp/ccER7Jua.s:3073   .debug_str:0000000000000334 .LASF89
     /tmp/ccER7Jua.s:3257   .debug_str:00000000000008df .LASF90
     /tmp/ccER7Jua.s:3019   .debug_str:0000000000000174 .LASF91
     /tmp/ccER7Jua.s:3021   .debug_str:0000000000000192 .LASF92
     /tmp/ccER7Jua.s:3377   .debug_str:0000000000000ce4 .LASF93
     /tmp/ccER7Jua.s:3303   .debug_str:0000000000000a17 .LASF94
     /tmp/ccER7Jua.s:2995   .debug_str:00000000000000da .LASF95
     /tmp/ccER7Jua.s:3099   .debug_str:0000000000000406 .LASF96
     /tmp/ccER7Jua.s:3297   .debug_str:00000000000009ed .LASF97
     /tmp/ccER7Jua.s:3085   .debug_str:000000000000038b .LASF98
     /tmp/ccER7Jua.s:2973   .debug_str:000000000000002e .LASF207
     /tmp/ccER7Jua.s:3333   .debug_str:0000000000000bc0 .LASF99
     /tmp/ccER7Jua.s:3053   .debug_str:0000000000000291 .LASF100
     /tmp/ccER7Jua.s:3117   .debug_str:000000000000049c .LASF101
     /tmp/ccER7Jua.s:3217   .debug_str:00000000000007a0 .LASF102
     /tmp/ccER7Jua.s:3143   .debug_str:0000000000000548 .LASF103
     /tmp/ccER7Jua.s:3337   .debug_str:0000000000000bda .LASF104
     /tmp/ccER7Jua.s:3271   .debug_str:0000000000000940 .LASF105
     /tmp/ccER7Jua.s:3299   .debug_str:00000000000009fa .LASF106
     /tmp/ccER7Jua.s:3351   .debug_str:0000000000000c16 .LASF107
     /tmp/ccER7Jua.s:3273   .debug_str:0000000000000950 .LASF109
     /tmp/ccER7Jua.s:3219   .debug_str:00000000000007aa .LASF110
     /tmp/ccER7Jua.s:3041   .debug_str:000000000000023f .LASF111
     /tmp/ccER7Jua.s:2971   .debug_str:0000000000000026 .LASF112
GAS LISTING /tmp/ccER7Jua.s 			page 15


     /tmp/ccER7Jua.s:3093   .debug_str:00000000000003da .LASF113
     /tmp/ccER7Jua.s:3137   .debug_str:0000000000000521 .LASF114
     /tmp/ccER7Jua.s:3003   .debug_str:000000000000010c .LASF115
     /tmp/ccER7Jua.s:3295   .debug_str:00000000000009e5 .LASF157
     /tmp/ccER7Jua.s:3287   .debug_str:00000000000009bc .LASF116
     /tmp/ccER7Jua.s:3365   .debug_str:0000000000000c7f .LASF117
     /tmp/ccER7Jua.s:3201   .debug_str:000000000000073a .LASF208
     /tmp/ccER7Jua.s:3371   .debug_str:0000000000000cae .LASF118
     /tmp/ccER7Jua.s:3103   .debug_str:0000000000000429 .LASF119
     /tmp/ccER7Jua.s:3235   .debug_str:0000000000000827 .LASF120
     /tmp/ccER7Jua.s:3155   .debug_str:0000000000000591 .LASF122
     /tmp/ccER7Jua.s:3147   .debug_str:000000000000055b .LASF121
     /tmp/ccER7Jua.s:3233   .debug_str:000000000000080f .LASF123
     /tmp/ccER7Jua.s:3225   .debug_str:00000000000007d9 .LASF124
     /tmp/ccER7Jua.s:3159   .debug_str:00000000000005aa .LASF125
     /tmp/ccER7Jua.s:3051   .debug_str:0000000000000286 .LASF126
     /tmp/ccER7Jua.s:3279   .debug_str:0000000000000984 .LASF127
     /tmp/ccER7Jua.s:2975   .debug_str:0000000000000037 .LASF128
     /tmp/ccER7Jua.s:3301   .debug_str:00000000000009ff .LASF129
     /tmp/ccER7Jua.s:3325   .debug_str:0000000000000b7c .LASF130
     /tmp/ccER7Jua.s:3197   .debug_str:00000000000006fa .LASF131
     /tmp/ccER7Jua.s:3323   .debug_str:0000000000000b71 .LASF132
     /tmp/ccER7Jua.s:3045   .debug_str:0000000000000258 .LASF133
     /tmp/ccER7Jua.s:3385   .debug_str:0000000000000d2d .LASF134
     /tmp/ccER7Jua.s:3071   .debug_str:000000000000031b .LASF135
     /tmp/ccER7Jua.s:3049   .debug_str:000000000000027d .LASF136
     /tmp/ccER7Jua.s:3025   .debug_str:00000000000001b3 .LASF137
     /tmp/ccER7Jua.s:3149   .debug_str:0000000000000568 .LASF138
     /tmp/ccER7Jua.s:2989   .debug_str:00000000000000ad .LASF139
     /tmp/ccER7Jua.s:3383   .debug_str:0000000000000d20 .LASF140
     /tmp/ccER7Jua.s:3097   .debug_str:00000000000003fa .LASF141
     /tmp/ccER7Jua.s:2977   .debug_str:0000000000000042 .LASF142
     /tmp/ccER7Jua.s:3191   .debug_str:00000000000006c4 .LASF143
     /tmp/ccER7Jua.s:3375   .debug_str:0000000000000cce .LASF209
     /tmp/ccER7Jua.s:3317   .debug_str:0000000000000b37 .LASF144
     /tmp/ccER7Jua.s:3011   .debug_str:0000000000000141 .LASF145
     /tmp/ccER7Jua.s:3379   .debug_str:0000000000000d02 .LASF146
     /tmp/ccER7Jua.s:3291   .debug_str:00000000000009d5 .LASF147
     /tmp/ccER7Jua.s:3313   .debug_str:0000000000000b15 .LASF148
     /tmp/ccER7Jua.s:3243   .debug_str:0000000000000873 .LASF149
     /tmp/ccER7Jua.s:3205   .debug_str:0000000000000747 .LASF150
     /tmp/ccER7Jua.s:3069   .debug_str:000000000000030e .LASF151
     /tmp/ccER7Jua.s:3259   .debug_str:00000000000008ed .LASF152
     /tmp/ccER7Jua.s:3347   .debug_str:0000000000000c0a .LASF153
     /tmp/ccER7Jua.s:3305   .debug_str:0000000000000a28 .LASF154
     /tmp/ccER7Jua.s:3231   .debug_str:00000000000007fe .LASF155
     /tmp/ccER7Jua.s:3035   .debug_str:000000000000020b .LASF163
     /tmp/ccER7Jua.s:2979   .debug_str:0000000000000052 .LASF164
     /tmp/ccER7Jua.s:3183   .debug_str:0000000000000682 .LASF156
     /tmp/ccER7Jua.s:3349   .debug_str:0000000000000c11 .LASF158
     /tmp/ccER7Jua.s:3135   .debug_str:000000000000051c .LASF159
     /tmp/ccER7Jua.s:3017   .debug_str:000000000000016f .LASF160
     /tmp/ccER7Jua.s:3059   .debug_str:00000000000002ba .LASF161
     /tmp/ccER7Jua.s:3037   .debug_str:0000000000000219 .LASF162
     /tmp/ccER7Jua.s:3031   .debug_str:00000000000001db .LASF165
     /tmp/ccER7Jua.s:2993   .debug_str:00000000000000d4 .LASF166
     /tmp/ccER7Jua.s:3173   .debug_str:000000000000063a .LASF167
GAS LISTING /tmp/ccER7Jua.s 			page 16


     /tmp/ccER7Jua.s:2991   .debug_str:00000000000000bf .LASF168
     /tmp/ccER7Jua.s:3095   .debug_str:00000000000003e2 .LASF169
     /tmp/ccER7Jua.s:3251   .debug_str:00000000000008a5 .LASF180
     /tmp/ccER7Jua.s:3315   .debug_str:0000000000000b1f .LASF182
     /tmp/ccER7Jua.s:3129   .debug_str:00000000000004e9 .LASF170
     /tmp/ccER7Jua.s:3363   .debug_str:0000000000000c6a .LASF171
     /tmp/ccER7Jua.s:3123   .debug_str:00000000000004c1 .LASF172
     /tmp/ccER7Jua.s:3063   .debug_str:00000000000002de .LASF173
     /tmp/ccER7Jua.s:3145   .debug_str:0000000000000553 .LASF174
     /tmp/ccER7Jua.s:3175   .debug_str:000000000000063f .LASF175
     /tmp/ccER7Jua.s:3001   .debug_str:0000000000000103 .LASF176
     /tmp/ccER7Jua.s:3171   .debug_str:000000000000061e .LASF177
     /tmp/ccER7Jua.s:3033   .debug_str:00000000000001f6 .LASF178
     /tmp/ccER7Jua.s:3355   .debug_str:0000000000000c29 .LASF179
     /tmp/ccER7Jua.s:3343   .debug_str:0000000000000bff .LASF181
     /tmp/ccER7Jua.s:3275   .debug_str:000000000000095d .LASF183
     /tmp/ccER7Jua.s:110    .text:0000000000000078 .LFB53
     /tmp/ccER7Jua.s:260    .text:0000000000000158 .LFE53
     /tmp/ccER7Jua.s:3111   .debug_str:0000000000000478 .LASF184
     /tmp/ccER7Jua.s:3341   .debug_str:0000000000000bf4 .LASF185
     /tmp/ccER7Jua.s:2997   .debug_str:00000000000000ee .LASF186
     /tmp/ccER7Jua.s:3387   .debug_str:0000000000000d3b .LASF187
     /tmp/ccER7Jua.s:154    .text:00000000000000c4 .LBB27
     /tmp/ccER7Jua.s:163    .text:00000000000000d0 .LBE27
     /tmp/ccER7Jua.s:2888   .debug_loc:0000000000000000 .LLST2
     /tmp/ccER7Jua.s:165    .text:00000000000000d0 .LBB29
     /tmp/ccER7Jua.s:173    .text:00000000000000d8 .LBE29
     /tmp/ccER7Jua.s:2895   .debug_loc:0000000000000023 .LLST3
     /tmp/ccER7Jua.s:2903   .debug_loc:0000000000000047 .LLST4
     /tmp/ccER7Jua.s:196    .text:0000000000000120 .LBB31
     /tmp/ccER7Jua.s:209    .text:0000000000000128 .LBE31
     /tmp/ccER7Jua.s:2910   .debug_loc:000000000000006a .LLST5
     /tmp/ccER7Jua.s:216    .text:0000000000000134 .LBB33
     /tmp/ccER7Jua.s:231    .text:000000000000013c .LBE33
     /tmp/ccER7Jua.s:234    .text:000000000000013c .LBB35
     /tmp/ccER7Jua.s:245    .text:0000000000000140 .LBE35
     /tmp/ccER7Jua.s:2918   .debug_loc:000000000000008e .LLST6
     /tmp/ccER7Jua.s:134    .text:00000000000000a0 .LVL6
     /tmp/ccER7Jua.s:138    .text:00000000000000a8 .LVL7
     /tmp/ccER7Jua.s:149    .text:00000000000000c0 .LVL8
     /tmp/ccER7Jua.s:180    .text:00000000000000f0 .LVL12
     /tmp/ccER7Jua.s:187    .text:0000000000000108 .LVL13
     /tmp/ccER7Jua.s:194    .text:0000000000000120 .LVL14
     /tmp/ccER7Jua.s:214    .text:0000000000000134 .LVL16
     /tmp/ccER7Jua.s:3161   .debug_str:00000000000005bc .LASF188
     /tmp/ccER7Jua.s:3277   .debug_str:0000000000000967 .LASF189
     /tmp/ccER7Jua.s:37     .text:000000000000001c .LFB52
     /tmp/ccER7Jua.s:104    .text:0000000000000078 .LFE52
     /tmp/ccER7Jua.s:2957   .debug_ranges:0000000000000000 .Ldebug_ranges0
     /tmp/ccER7Jua.s:2926   .debug_loc:00000000000000b2 .LLST0
     /tmp/ccER7Jua.s:53     .text:0000000000000030 .LBB20
     /tmp/ccER7Jua.s:63     .text:0000000000000040 .LBE20
     /tmp/ccER7Jua.s:2937   .debug_loc:00000000000000e8 .LLST1
     /tmp/ccER7Jua.s:65     .text:0000000000000040 .LBB22
     /tmp/ccER7Jua.s:69     .text:0000000000000040 .LBE22
     /tmp/ccER7Jua.s:88     .text:000000000000005c .LBB24
     /tmp/ccER7Jua.s:97     .text:000000000000006c .LBE24
GAS LISTING /tmp/ccER7Jua.s 			page 17


     /tmp/ccER7Jua.s:75     .text:0000000000000054 .LVL4
     /tmp/ccER7Jua.s:84     .text:000000000000005c .LVL5
     /tmp/ccER7Jua.s:3367   .debug_str:0000000000000ca1 .LASF190
     /tmp/ccER7Jua.s:2999   .debug_str:00000000000000f9 .LASF191
     /tmp/ccER7Jua.s:10     .text:0000000000000000 .LFB51
     /tmp/ccER7Jua.s:31     .text:000000000000001c .LFE51
     /tmp/ccER7Jua.s:27     .text:0000000000000018 .LVL0
     /tmp/ccER7Jua.s:3139   .debug_str:000000000000052a .LASF192
     /tmp/ccER7Jua.s:3081   .debug_str:0000000000000380 .LASF210
     /tmp/ccER7Jua.s:3027   .debug_str:00000000000001c6 .LASF193
     /tmp/ccER7Jua.s:3345   .debug_str:0000000000000c05 .LASF194
     /tmp/ccER7Jua.s:3199   .debug_str:0000000000000719 .LASF195
     /tmp/ccER7Jua.s:3335   .debug_str:0000000000000bcc .LASF197
     /tmp/ccER7Jua.s:3189   .debug_str:00000000000006af .LASF196
     /tmp/ccER7Jua.s:3185   .debug_str:000000000000068e .LASF198
     /tmp/ccER7Jua.s:3239   .debug_str:0000000000000841 .LASF199
     /tmp/ccER7Jua.s:3105   .debug_str:000000000000044e .LASF200
     /tmp/ccER7Jua.s:3169   .debug_str:0000000000000609 .LASF201
     /tmp/ccER7Jua.s:3237   .debug_str:0000000000000831 .LASF202
     /tmp/ccER7Jua.s:153    .text:00000000000000c4 .LVL9
     /tmp/ccER7Jua.s:161    .text:00000000000000d0 .LVL10
     /tmp/ccER7Jua.s:171    .text:00000000000000d8 .LVL11
     /tmp/ccER7Jua.s:206    .text:0000000000000128 .LVL15
     /tmp/ccER7Jua.s:233    .text:000000000000013c .LVL17
     /tmp/ccER7Jua.s:242    .text:0000000000000140 .LVL18
     /tmp/ccER7Jua.s:49     .text:0000000000000030 .LVL1
     /tmp/ccER7Jua.s:73     .text:000000000000004c .LVL3
     /tmp/ccER7Jua.s:61     .text:0000000000000040 .LVL2
     /tmp/ccER7Jua.s:268    .debug_info:0000000000000000 .Ldebug_info0
     /tmp/ccER7Jua.s:51     .text:0000000000000030 .LBB19
     /tmp/ccER7Jua.s:76     .text:0000000000000054 .LBE19
     /tmp/ccER7Jua.s:80     .text:0000000000000054 .LBB26
     /tmp/ccER7Jua.s:102    .text:0000000000000078 .LBE26

UNDEFINED SYMBOLS
_Z15thread_dispatchv
_ZN8KConsole2drE
_ZN8KConsole20outputBufferHasSpaceE
_Z10sem_signalP4KSem
_ZN8KConsole13getFromOutputEv
_ZN8KConsole2srE
interruptHandler
_ZN7KMemory16initializeMemoryEv
_ZN8KConsole12initKConsoleEv
main
_Z13thread_createPP3TCBPFvPvES2_
_ZN3TCB7runningE
_Z8userMainv
_Z11thread_joinP3TCB
