GAS LISTING /tmp/ccCuyS6K.s 			page 1


   1              		.file	"main.cpp"
   2              		.option pic
   3              		.option norelax
   4              		.text
   5              	.Ltext0:
   6              		.section	.rodata
   7              		.align	3
   8              	.LC0:
   9 0000 0A50726F 		.string	"\nProsao while\n"
   9      73616F20 
   9      7768696C 
   9      650A00
  10 000f 00       		.align	3
  11              	.LC1:
  12 0010 0A536164 		.string	"\nSad cu da izadjem\n"
  12      20637520 
  12      64612069 
  12      7A61646A 
  12      656D0A00 
  13              		.text
  14              		.align	2
  15              		.globl	main
  17              	main:
  18              	.LFB29:
  19              		.file 1 "src/main.cpp"
   1:src/main.cpp  **** #include "../lib/console.h"
   2:src/main.cpp  **** #include "../lib/hw.h"
   3:src/main.cpp  **** #include "../h/helper.hpp"
   4:src/main.cpp  **** #include "../h/Riscv.hpp"
   5:src/main.cpp  **** #include "../h/syscall_c.hpp"
   6:src/main.cpp  **** #include "../h/syscall_cpp.hpp"
   7:src/main.cpp  **** #include "../h/List.hpp"
   8:src/main.cpp  **** //#include "../h/MemoryAllocator.hpp"
   9:src/main.cpp  **** #include "../h/TCB.hpp"
  10:src/main.cpp  **** 
  11:src/main.cpp  **** 
  12:src/main.cpp  **** extern "C" void interruptHandler();
  13:src/main.cpp  **** //void userMain();
  14:src/main.cpp  **** 
  15:src/main.cpp  **** void testMemory();
  16:src/main.cpp  **** //uint64 temp;
  17:src/main.cpp  **** //
  18:src/main.cpp  **** //void f() {
  19:src/main.cpp  **** //	__putc('a');
  20:src/main.cpp  **** //	__putc('\n');
  21:src/main.cpp  **** //	uint64 var = temp;
  22:src/main.cpp  **** //	__asm__ volatile ("mv ra, %[savedPC]": : [savedPC] "r"(var));
  23:src/main.cpp  **** //
  24:src/main.cpp  **** //	__asm__ volatile ("sd ra, 8(sp)");
  25:src/main.cpp  **** //}
  26:src/main.cpp  **** //
  27:src/main.cpp  **** //void dispatch() {
  28:src/main.cpp  **** //	__asm__ volatile ("mv %[savedPC], ra":[savedPC] "=r"(temp));
  29:src/main.cpp  **** //	__asm__ volatile("mv ra, %[fAddress]": : [fAddress] "r"(&f));
  30:src/main.cpp  **** //}
  31:src/main.cpp  **** 
  32:src/main.cpp  **** void nit1f(void*) {
GAS LISTING /tmp/ccCuyS6K.s 			page 2


  33:src/main.cpp  **** 	printString("\nusao u nit 1\n");
  34:src/main.cpp  **** 	__asm__ volatile("li t1, 100");
  35:src/main.cpp  **** 	//thread_dispatch();
  36:src/main.cpp  **** 	volatile uint64 t1;
  37:src/main.cpp  **** 	__asm__ volatile("mv %0, t1":"=r"(t1));
  38:src/main.cpp  **** 	printString("\nopet u niti 1\n");
  39:src/main.cpp  **** 	printString("\nt1 = ");
  40:src/main.cpp  **** 
  41:src/main.cpp  **** 	printInteger(t1);
  42:src/main.cpp  **** 
  43:src/main.cpp  **** 	for (int i = 0; i < 1000000; i++) {
  44:src/main.cpp  **** 		if (i % 1200 == 0) {
  45:src/main.cpp  **** 			printString("Nit1: ");
  46:src/main.cpp  **** 			printInteger(i);
  47:src/main.cpp  **** 			printString("\n");
  48:src/main.cpp  **** 		}
  49:src/main.cpp  **** 		if (i % 120203 == 0) {
  50:src/main.cpp  **** 			//printString("\nyield n1\n");
  51:src/main.cpp  **** 			//thread_dispatch();
  52:src/main.cpp  **** 		}
  53:src/main.cpp  **** 	}
  54:src/main.cpp  **** 
  55:src/main.cpp  **** 	printString("\nGotova nit 1\n");
  56:src/main.cpp  **** }
  57:src/main.cpp  **** 
  58:src/main.cpp  **** void nit2f(void* arg2) {
  59:src/main.cpp  **** 	printString("\nusao u nit 2\n");
  60:src/main.cpp  **** 
  61:src/main.cpp  **** 	printInteger(*(uint64*)arg2);
  62:src/main.cpp  **** 	*(uint64*)arg2 += 10;
  63:src/main.cpp  **** 	__asm__ volatile("li t1, 200");
  64:src/main.cpp  **** 	//thread_dispatch();
  65:src/main.cpp  **** 	volatile uint64 t1;
  66:src/main.cpp  **** 	__asm__ volatile("mv %0, t1":"=r"(t1));
  67:src/main.cpp  **** 	printString("\nopet u niti 2\n");
  68:src/main.cpp  **** 	printString("\nt1 = ");
  69:src/main.cpp  **** 	printInteger(t1);
  70:src/main.cpp  **** 	printString("\n");
  71:src/main.cpp  **** 	for (int i = 0; i < 1000000; i++) {
  72:src/main.cpp  **** 		if (i % 100000 == 0) {
  73:src/main.cpp  **** 			printString("Nit2: ");
  74:src/main.cpp  **** 			printInteger(i);
  75:src/main.cpp  **** 			printString("\n");
  76:src/main.cpp  **** 			time_sleep(20);
  77:src/main.cpp  **** 		}
  78:src/main.cpp  **** //		if (i % 54203 == 0) {
  79:src/main.cpp  **** //			printString("\nyield n2\n");
  80:src/main.cpp  **** //			thread_dispatch();
  81:src/main.cpp  **** //		}
  82:src/main.cpp  **** 	}
  83:src/main.cpp  **** 	printString("\nPokusavam da ugasim nit 2\n");
  84:src/main.cpp  **** 	//thread_exit();
  85:src/main.cpp  **** 	printString("\nNisam uspeo da ugasim nit 2\n");
  86:src/main.cpp  **** 	printInteger(*(uint64*)arg2);
  87:src/main.cpp  **** 	printString("\nGotova nit 2\n");
  88:src/main.cpp  **** }
  89:src/main.cpp  **** 
GAS LISTING /tmp/ccCuyS6K.s 			page 3


  90:src/main.cpp  **** void nit3f(void*) {
  91:src/main.cpp  **** 	for (int i = 0; i < 20; i++) {
  92:src/main.cpp  **** 		printInteger(i);
  93:src/main.cpp  **** 		printString("\n");
  94:src/main.cpp  **** 		time_sleep(10);
  95:src/main.cpp  **** 	}
  96:src/main.cpp  **** }
  97:src/main.cpp  **** 
  98:src/main.cpp  **** #pragma GCC optimize("O0")
  99:src/main.cpp  **** 
 100:src/main.cpp  **** int main() {
  20              		.loc 1 100 12
  21              		.cfi_startproc
  22 0000 130101FC 		addi	sp,sp,-64
  23              		.cfi_def_cfa_offset 64
  24 0004 233C1102 		sd	ra,56(sp)
  25 0008 23388102 		sd	s0,48(sp)
  26              		.cfi_offset 1, -8
  27              		.cfi_offset 8, -16
  28 000c 13040104 		addi	s0,sp,64
  29              		.cfi_def_cfa 8, 0
 101:src/main.cpp  **** 
 102:src/main.cpp  **** 	//zabrani prekide
 103:src/main.cpp  **** 	Riscv::mc_sstatus(Riscv::SSTATUS_SIE);
  30              		.loc 1 103 2
  31              		.loc 1 103 19 is_stmt 0
  32 0010 13052000 		li	a0,2
  33 0014 97000000 		call	_ZN5Riscv10mc_sstatusEm
  33      E7800000 
  34              	.LVL0:
 104:src/main.cpp  **** 
 105:src/main.cpp  **** 	//postavi adresu prekidne rutine u stvec
 106:src/main.cpp  **** 	Riscv::w_stvec((uint64)&interruptHandler);
  35              		.loc 1 106 2 is_stmt 1
  36              		.loc 1 106 16 is_stmt 0
  37 001c 97070000 		la	a5,interruptHandler
  37      83B70700 
  38 0024 13850700 		mv	a0,a5
  39 0028 97000000 		call	_ZN5Riscv7w_stvecEm
  39      E7800000 
  40              	.LVL1:
 107:src/main.cpp  **** 
 108:src/main.cpp  **** 
 109:src/main.cpp  **** 
 110:src/main.cpp  **** 
 111:src/main.cpp  **** 	//testiranje alociranja memorije
 112:src/main.cpp  **** 	//testMemory();
 113:src/main.cpp  **** //	uint64* ptr = new uint64;
 114:src/main.cpp  **** //	*ptr = 6;
 115:src/main.cpp  **** //	printInteger(*ptr);
 116:src/main.cpp  **** 
 117:src/main.cpp  **** 	//testiranje liste
 118:src/main.cpp  **** //	List<uint64>* lista = new List<uint64>();
 119:src/main.cpp  **** //	uint64 num = 10;
 120:src/main.cpp  **** //	lista->addFirst(&num);
 121:src/main.cpp  **** //	println("");
 122:src/main.cpp  **** //	printInteger(*(lista->peekFirst()));
GAS LISTING /tmp/ccCuyS6K.s 			page 4


 123:src/main.cpp  **** //	delete lista;
 124:src/main.cpp  **** //	println("");
 125:src/main.cpp  **** 
 126:src/main.cpp  **** 	//testiranje kreiranja niti
 127:src/main.cpp  **** 	thread_t glavnaNit = nullptr;
  41              		.loc 1 127 2 is_stmt 1
  42              		.loc 1 127 11 is_stmt 0
  43 0030 233004FE 		sd	zero,-32(s0)
 128:src/main.cpp  **** 	thread_t nit1 = nullptr;
  44              		.loc 1 128 2 is_stmt 1
  45              		.loc 1 128 11 is_stmt 0
  46 0034 233C04FC 		sd	zero,-40(s0)
 129:src/main.cpp  **** 	thread_t nit2 = nullptr;
  47              		.loc 1 129 2 is_stmt 1
  48              		.loc 1 129 11 is_stmt 0
  49 0038 233804FC 		sd	zero,-48(s0)
 130:src/main.cpp  **** 	thread_t nit3;
  50              		.loc 1 130 2 is_stmt 1
 131:src/main.cpp  **** 	thread_create(&glavnaNit, nullptr, nullptr);
  51              		.loc 1 131 2
  52              		.loc 1 131 15 is_stmt 0
  53 003c 930704FE 		addi	a5,s0,-32
  54 0040 13060000 		li	a2,0
  55 0044 93050000 		li	a1,0
  56 0048 13850700 		mv	a0,a5
  57 004c 97000000 		call	_Z13thread_createPP3TCBPFvPvES2_@plt
  57      E7800000 
  58              	.LVL2:
 132:src/main.cpp  **** 	TCB::running = glavnaNit;
  59              		.loc 1 132 2 is_stmt 1
  60              		.loc 1 132 15 is_stmt 0
  61 0054 033704FE 		ld	a4,-32(s0)
  62 0058 97070000 		la	a5,_ZN3TCB7runningE
  62      83B70700 
  63 0060 23B0E700 		sd	a4,0(a5)
 133:src/main.cpp  **** 	uint64* arg = new uint64;
  64              		.loc 1 133 2 is_stmt 1
  65              		.loc 1 133 20 is_stmt 0
  66 0064 13058000 		li	a0,8
  67 0068 97000000 		call	_Znwm@plt
  67      E7800000 
  68              	.LVL3:
  69 0070 93070500 		mv	a5,a0
  70 0074 2334F4FE 		sd	a5,-24(s0)
  71              	.LVL4:
 134:src/main.cpp  **** 	*arg = 666;
  72              		.loc 1 134 2 is_stmt 1
  73              		.loc 1 134 7 is_stmt 0
  74 0078 833784FE 		ld	a5,-24(s0)
  75 007c 1307A029 		li	a4,666
  76 0080 23B0E700 		sd	a4,0(a5)
 135:src/main.cpp  **** 	thread_create(&nit1, nit1f, nullptr);
  77              		.loc 1 135 2 is_stmt 1
  78              		.loc 1 135 15 is_stmt 0
  79 0084 930784FD 		addi	a5,s0,-40
  80 0088 13060000 		li	a2,0
  81 008c 97050000 		lla	a1,_Z5nit1fPv
GAS LISTING /tmp/ccCuyS6K.s 			page 5


  81      93850500 
  82 0094 13850700 		mv	a0,a5
  83              	.LVL5:
  84 0098 97000000 		call	_Z13thread_createPP3TCBPFvPvES2_@plt
  84      E7800000 
  85              	.LVL6:
 136:src/main.cpp  **** 	thread_create(&nit2, nit2f, arg);
  86              		.loc 1 136 2 is_stmt 1
  87              		.loc 1 136 15 is_stmt 0
  88 00a0 930704FD 		addi	a5,s0,-48
  89 00a4 033684FE 		ld	a2,-24(s0)
  90 00a8 97050000 		lla	a1,_Z5nit2fPv
  90      93850500 
  91 00b0 13850700 		mv	a0,a5
  92 00b4 97000000 		call	_Z13thread_createPP3TCBPFvPvES2_@plt
  92      E7800000 
  93              	.LVL7:
 137:src/main.cpp  **** 	thread_create(&nit3, nit3f, nullptr);
  94              		.loc 1 137 2 is_stmt 1
  95              		.loc 1 137 15 is_stmt 0
  96 00bc 930784FC 		addi	a5,s0,-56
  97 00c0 13060000 		li	a2,0
  98 00c4 97050000 		lla	a1,_Z5nit3fPv
  98      93850500 
  99 00cc 13850700 		mv	a0,a5
 100 00d0 97000000 		call	_Z13thread_createPP3TCBPFvPvES2_@plt
 100      E7800000 
 101              	.LVL8:
 138:src/main.cpp  **** 
 139:src/main.cpp  **** 	//omoguci prekide
 140:src/main.cpp  **** 	Riscv::ms_sstatus(Riscv::SSTATUS_SIE);
 102              		.loc 1 140 2 is_stmt 1
 103              		.loc 1 140 19 is_stmt 0
 104 00d8 13052000 		li	a0,2
 105 00dc 97000000 		call	_ZN5Riscv10ms_sstatusEm
 105      E7800000 
 106              	.LVL9:
 107              	.L6:
 141:src/main.cpp  **** 
 142:src/main.cpp  **** 	while (!nit1->isFinished() || !nit2->isFinished()) {
 108              		.loc 1 142 2 is_stmt 1
 109              		.loc 1 142 29
 110              		.loc 1 142 26 is_stmt 0
 111 00e4 833784FD 		ld	a5,-40(s0)
 112 00e8 13850700 		mv	a0,a5
 113 00ec 97000000 		call	_ZN3TCB10isFinishedEv
 113      E7800000 
 114              	.LVL10:
 115 00f4 93070500 		mv	a5,a0
 116              		.loc 1 142 9
 117 00f8 93C71700 		xori	a5,a5,1
 118 00fc 93F7F70F 		andi	a5,a5,0xff
 119              		.loc 1 142 29
 120 0100 63920702 		bnez	a5,.L2
 121              		.loc 1 142 49 discriminator 2
 122 0104 833704FD 		ld	a5,-48(s0)
 123 0108 13850700 		mv	a0,a5
GAS LISTING /tmp/ccCuyS6K.s 			page 6


 124 010c 97000000 		call	_ZN3TCB10isFinishedEv
 124      E7800000 
 125              	.LVL11:
 126 0114 93070500 		mv	a5,a0
 127              		.loc 1 142 32 discriminator 2
 128 0118 93C71700 		xori	a5,a5,1
 129 011c 93F7F70F 		andi	a5,a5,0xff
 130              		.loc 1 142 29 discriminator 2
 131 0120 63860700 		beqz	a5,.L3
 132              	.L2:
 133              		.loc 1 142 29 discriminator 3
 134 0124 93071000 		li	a5,1
 135 0128 6F008000 		j	.L4
 136              	.L3:
 137              		.loc 1 142 29 discriminator 4
 138 012c 93070000 		li	a5,0
 139              	.L4:
 140              		.loc 1 142 29 discriminator 6
 141 0130 63880700 		beqz	a5,.L5
 143:src/main.cpp  **** 		thread_dispatch();
 142              		.loc 1 143 3 is_stmt 1
 143              		.loc 1 143 18 is_stmt 0
 144 0134 97000000 		call	_Z15thread_dispatchv@plt
 144      E7800000 
 145              	.LVL12:
 142:src/main.cpp  **** 		thread_dispatch();
 146              		.loc 1 142 2
 147 013c 6FF09FFA 		j	.L6
 148              	.L5:
 144:src/main.cpp  **** 	}
 145:src/main.cpp  **** 
 146:src/main.cpp  **** 	printString("\nProsao while\n");
 149              		.loc 1 146 2 is_stmt 1
 150              		.loc 1 146 13 is_stmt 0
 151 0140 17050000 		lla	a0,.LC0
 151      13050500 
 152 0148 97000000 		call	_Z11printStringPKc@plt
 152      E7800000 
 153              	.LVL13:
 147:src/main.cpp  **** 
 148:src/main.cpp  **** 	//zabrani prekide
 149:src/main.cpp  **** 	Riscv::mc_sstatus(Riscv::SSTATUS_SIE);
 154              		.loc 1 149 2 is_stmt 1
 155              		.loc 1 149 19 is_stmt 0
 156 0150 13052000 		li	a0,2
 157 0154 97000000 		call	_ZN5Riscv10mc_sstatusEm
 157      E7800000 
 158              	.LVL14:
 150:src/main.cpp  **** 	printString("\nSad cu da izadjem\n");
 159              		.loc 1 150 2 is_stmt 1
 160              		.loc 1 150 13 is_stmt 0
 161 015c 17050000 		lla	a0,.LC1
 161      13050500 
 162 0164 97000000 		call	_Z11printStringPKc@plt
 162      E7800000 
 163              	.LVL15:
 151:src/main.cpp  **** 
GAS LISTING /tmp/ccCuyS6K.s 			page 7


 152:src/main.cpp  **** //testiranje svega
 153:src/main.cpp  **** //	thread_t mainHandle;
 154:src/main.cpp  **** //	thread_t userHandle;
 155:src/main.cpp  **** //	thread_create(&mainHandle, nullptr, nullptr);
 156:src/main.cpp  **** //	TCB::running = mainHandle;
 157:src/main.cpp  **** //	thread_create(&userHandle, (TCB::Body)userMain, nullptr);
 158:src/main.cpp  **** //	while (!userHandle->isFinished()) {
 159:src/main.cpp  **** //		thread_dispatch();
 160:src/main.cpp  **** //	}
 161:src/main.cpp  **** //	Riscv::mc_sstatus(Riscv::SSTATUS_SIE);
 162:src/main.cpp  **** 	return 0;
 164              		.loc 1 162 2 is_stmt 1
 165              		.loc 1 162 9 is_stmt 0
 166 016c 93070000 		li	a5,0
 163:src/main.cpp  **** }...
 167              		.loc 1 163 1
 168 0170 13850700 		mv	a0,a5
 169 0174 83308103 		ld	ra,56(sp)
 170              		.cfi_restore 1
 171 0178 03340103 		ld	s0,48(sp)
 172              		.cfi_restore 8
 173              		.cfi_def_cfa 2, 64
 174              	.LVL16:
 175 017c 13010104 		addi	sp,sp,64
 176              		.cfi_def_cfa_offset 0
 177              	.LVL17:
 178 0180 67800000 		jr	ra
 179              		.cfi_endproc
 180              	.LFE29:
 182              		.align	2
 183              		.globl	_Z5nit1fPv
 185              	_Z5nit1fPv:
 186              	.LFB26:
  32:src/main.cpp  **** void nit1f(void*) {
 187              		.loc 1 32 19 is_stmt 1
 188              		.cfi_startproc
 189 0184 130101FD 		addi	sp,sp,-48
 190              		.cfi_def_cfa_offset 48
 191 0188 23341102 		sd	ra,40(sp)
 192 018c 23308102 		sd	s0,32(sp)
 193 0190 233C9100 		sd	s1,24(sp)
 194              		.cfi_offset 1, -8
 195              		.cfi_offset 8, -16
 196              		.cfi_offset 9, -24
 197 0194 13040103 		addi	s0,sp,48
 198              		.cfi_def_cfa 8, 0
  33:src/main.cpp  **** 	printString("\nusao u nit 1\n");
 199              		.loc 1 33 2
  33:src/main.cpp  **** 	printString("\nusao u nit 1\n");
 200              		.loc 1 33 13 is_stmt 0
 201 0198 17050000 		lla	a0,.LANCHOR0
 201      13050500 
 202 01a0 97000000 		call	_Z11printStringPKc@plt
 202      E7800000 
 203              	.LVL18:
  34:src/main.cpp  **** 	__asm__ volatile("li t1, 100");
 204              		.loc 1 34 2 is_stmt 1
GAS LISTING /tmp/ccCuyS6K.s 			page 8


  34:src/main.cpp  **** 	__asm__ volatile("li t1, 100");
 205              		.loc 1 34 32 is_stmt 0
 206              	#APP
 207              	# 34 "src/main.cpp" 1
  36:src/main.cpp  **** 	volatile uint64 t1;
 208              		li t1, 100
 209              	# 0 "" 2
 210              		.loc 1 36 2 is_stmt 1
  37:src/main.cpp  **** 	__asm__ volatile("mv %0, t1":"=r"(t1));
 211              		.loc 1 37 2
  37:src/main.cpp  **** 	__asm__ volatile("mv %0, t1":"=r"(t1));
 212              		.loc 1 37 40 is_stmt 0
 213              	# 37 "src/main.cpp" 1
 214              		mv a5, t1
 215              	# 0 "" 2
 216              	#NO_APP
 217 01b0 233CF4FC 		sd	a5,-40(s0)
  38:src/main.cpp  **** 	printString("\nopet u niti 1\n");
 218              		.loc 1 38 2 is_stmt 1
  38:src/main.cpp  **** 	printString("\nopet u niti 1\n");
 219              		.loc 1 38 13 is_stmt 0
 220 01b4 17050000 		lla	a0,.LANCHOR0+16
 220      13050500 
 221 01bc 97000000 		call	_Z11printStringPKc@plt
 221      E7800000 
 222              	.LVL19:
  39:src/main.cpp  **** 	printString("\nt1 = ");
 223              		.loc 1 39 2 is_stmt 1
  39:src/main.cpp  **** 	printString("\nt1 = ");
 224              		.loc 1 39 13 is_stmt 0
 225 01c4 17050000 		lla	a0,.LANCHOR0+32
 225      13050500 
 226 01cc 97000000 		call	_Z11printStringPKc@plt
 226      E7800000 
 227              	.LVL20:
  41:src/main.cpp  **** 	printInteger(t1);
 228              		.loc 1 41 2 is_stmt 1
  41:src/main.cpp  **** 	printInteger(t1);
 229              		.loc 1 41 14 is_stmt 0
 230 01d4 033584FD 		ld	a0,-40(s0)
 231 01d8 97000000 		call	_Z12printIntegerm@plt
 231      E7800000 
 232              	.LVL21:
  43:src/main.cpp  **** 	for (int i = 0; i < 1000000; i++) {
 233              		.loc 1 43 2 is_stmt 1
 234              	.LBB2:
  43:src/main.cpp  **** 	for (int i = 0; i < 1000000; i++) {
 235              		.loc 1 43 11 is_stmt 0
 236 01e0 93040000 		li	s1,0
 237 01e4 6F004003 		j	.L11
 238              	.LVL22:
 239              	.L13:
  45:src/main.cpp  **** 			printString("Nit1: ");
 240              		.loc 1 45 4 is_stmt 1
  45:src/main.cpp  **** 			printString("Nit1: ");
 241              		.loc 1 45 15 is_stmt 0
 242 01e8 17050000 		lla	a0,.LANCHOR0+40
GAS LISTING /tmp/ccCuyS6K.s 			page 9


 242      13050500 
 243 01f0 97000000 		call	_Z11printStringPKc@plt
 243      E7800000 
 244              	.LVL23:
  46:src/main.cpp  **** 			printInteger(i);
 245              		.loc 1 46 4 is_stmt 1
  46:src/main.cpp  **** 			printInteger(i);
 246              		.loc 1 46 16 is_stmt 0
 247 01f8 13850400 		mv	a0,s1
 248 01fc 97000000 		call	_Z12printIntegerm@plt
 248      E7800000 
 249              	.LVL24:
  47:src/main.cpp  **** 			printString("\n");
 250              		.loc 1 47 4 is_stmt 1
  47:src/main.cpp  **** 			printString("\n");
 251              		.loc 1 47 15 is_stmt 0
 252 0204 17050000 		lla	a0,.LANCHOR0+48
 252      13050500 
 253 020c 97000000 		call	_Z11printStringPKc@plt
 253      E7800000 
 254              	.LVL25:
 255              	.L10:
  49:src/main.cpp  **** 		if (i % 120203 == 0) {
 256              		.loc 1 49 3 is_stmt 1
  43:src/main.cpp  **** 	for (int i = 0; i < 1000000; i++) {
 257              		.loc 1 43 2
 258 0214 9B841400 		addiw	s1,s1,1
 259              	.LVL26:
 260              	.L11:
  43:src/main.cpp  **** 	for (int i = 0; i < 1000000; i++) {
 261              		.loc 1 43 20 discriminator 1
 262 0218 B7470F00 		li	a5,999424
 263 021c 9387F723 		addi	a5,a5,575
 264 0220 63CA9700 		bgt	s1,a5,.L9
  44:src/main.cpp  **** 		if (i % 1200 == 0) {
 265              		.loc 1 44 3
  44:src/main.cpp  **** 		if (i % 1200 == 0) {
 266              		.loc 1 44 9 is_stmt 0
 267 0224 9307004B 		li	a5,1200
 268 0228 BBE7F402 		remw	a5,s1,a5
  44:src/main.cpp  **** 		if (i % 1200 == 0) {
 269              		.loc 1 44 3
 270 022c E39407FE 		bnez	a5,.L10
 271 0230 6FF09FFB 		j	.L13
 272              	.L9:
 273              	.LBE2:
  55:src/main.cpp  **** 	printString("\nGotova nit 1\n");
 274              		.loc 1 55 2 is_stmt 1
  55:src/main.cpp  **** 	printString("\nGotova nit 1\n");
 275              		.loc 1 55 13 is_stmt 0
 276 0234 17050000 		lla	a0,.LANCHOR0+56
 276      13050500 
 277 023c 97000000 		call	_Z11printStringPKc@plt
 277      E7800000 
 278              	.LVL27:
  56:src/main.cpp  **** }
 279              		.loc 1 56 1
GAS LISTING /tmp/ccCuyS6K.s 			page 10


 280 0244 83308102 		ld	ra,40(sp)
 281              		.cfi_restore 1
 282 0248 03340102 		ld	s0,32(sp)
 283              		.cfi_restore 8
 284              		.cfi_def_cfa 2, 48
 285 024c 83348101 		ld	s1,24(sp)
 286              		.cfi_restore 9
 287              	.LVL28:
 288 0250 13010103 		addi	sp,sp,48
 289              		.cfi_def_cfa_offset 0
 290 0254 67800000 		jr	ra
 291              		.cfi_endproc
 292              	.LFE26:
 294              		.align	2
 295              		.globl	_Z5nit2fPv
 297              	_Z5nit2fPv:
 298              	.LFB27:
  58:src/main.cpp  **** void nit2f(void* arg2) {
 299              		.loc 1 58 24 is_stmt 1
 300              		.cfi_startproc
 301              	.LVL29:
 302 0258 130101FD 		addi	sp,sp,-48
 303              		.cfi_def_cfa_offset 48
 304 025c 23341102 		sd	ra,40(sp)
 305 0260 23308102 		sd	s0,32(sp)
 306 0264 233C9100 		sd	s1,24(sp)
 307 0268 23382101 		sd	s2,16(sp)
 308              		.cfi_offset 1, -8
 309              		.cfi_offset 8, -16
 310              		.cfi_offset 9, -24
 311              		.cfi_offset 18, -32
 312 026c 13040103 		addi	s0,sp,48
 313              		.cfi_def_cfa 8, 0
 314 0270 13090500 		mv	s2,a0
  59:src/main.cpp  **** 	printString("\nusao u nit 2\n");
 315              		.loc 1 59 2
  59:src/main.cpp  **** 	printString("\nusao u nit 2\n");
 316              		.loc 1 59 13 is_stmt 0
 317 0274 17050000 		lla	a0,.LANCHOR0+72
 317      13050500 
 318              	.LVL30:
 319 027c 97000000 		call	_Z11printStringPKc@plt
 319      E7800000 
 320              	.LVL31:
  61:src/main.cpp  **** 	printInteger(*(uint64*)arg2);
 321              		.loc 1 61 2 is_stmt 1
  61:src/main.cpp  **** 	printInteger(*(uint64*)arg2);
 322              		.loc 1 61 14 is_stmt 0
 323 0284 03350900 		ld	a0,0(s2)
 324 0288 97000000 		call	_Z12printIntegerm@plt
 324      E7800000 
 325              	.LVL32:
  62:src/main.cpp  **** 	*(uint64*)arg2 += 10;
 326              		.loc 1 62 2 is_stmt 1
  62:src/main.cpp  **** 	*(uint64*)arg2 += 10;
 327              		.loc 1 62 17 is_stmt 0
 328 0290 83370900 		ld	a5,0(s2)
GAS LISTING /tmp/ccCuyS6K.s 			page 11


 329 0294 9387A700 		addi	a5,a5,10
 330 0298 2330F900 		sd	a5,0(s2)
  63:src/main.cpp  **** 	__asm__ volatile("li t1, 200");
 331              		.loc 1 63 2 is_stmt 1
  63:src/main.cpp  **** 	__asm__ volatile("li t1, 200");
 332              		.loc 1 63 32 is_stmt 0
 333              	#APP
 334              	# 63 "src/main.cpp" 1
  65:src/main.cpp  **** 	volatile uint64 t1;
 335              		li t1, 200
 336              	# 0 "" 2
 337              		.loc 1 65 2 is_stmt 1
  66:src/main.cpp  **** 	__asm__ volatile("mv %0, t1":"=r"(t1));
 338              		.loc 1 66 2
  66:src/main.cpp  **** 	__asm__ volatile("mv %0, t1":"=r"(t1));
 339              		.loc 1 66 40 is_stmt 0
 340              	# 66 "src/main.cpp" 1
 341              		mv a5, t1
 342              	# 0 "" 2
 343              	#NO_APP
 344 02a4 233CF4FC 		sd	a5,-40(s0)
  67:src/main.cpp  **** 	printString("\nopet u niti 2\n");
 345              		.loc 1 67 2 is_stmt 1
  67:src/main.cpp  **** 	printString("\nopet u niti 2\n");
 346              		.loc 1 67 13 is_stmt 0
 347 02a8 17050000 		lla	a0,.LANCHOR0+88
 347      13050500 
 348 02b0 97000000 		call	_Z11printStringPKc@plt
 348      E7800000 
 349              	.LVL33:
  68:src/main.cpp  **** 	printString("\nt1 = ");
 350              		.loc 1 68 2 is_stmt 1
  68:src/main.cpp  **** 	printString("\nt1 = ");
 351              		.loc 1 68 13 is_stmt 0
 352 02b8 17050000 		lla	a0,.LANCHOR0+32
 352      13050500 
 353 02c0 97000000 		call	_Z11printStringPKc@plt
 353      E7800000 
 354              	.LVL34:
  69:src/main.cpp  **** 	printInteger(t1);
 355              		.loc 1 69 2 is_stmt 1
  69:src/main.cpp  **** 	printInteger(t1);
 356              		.loc 1 69 14 is_stmt 0
 357 02c8 033584FD 		ld	a0,-40(s0)
 358 02cc 97000000 		call	_Z12printIntegerm@plt
 358      E7800000 
 359              	.LVL35:
  70:src/main.cpp  **** 	printString("\n");
 360              		.loc 1 70 2 is_stmt 1
  70:src/main.cpp  **** 	printString("\n");
 361              		.loc 1 70 13 is_stmt 0
 362 02d4 17050000 		lla	a0,.LANCHOR0+48
 362      13050500 
 363 02dc 97000000 		call	_Z11printStringPKc@plt
 363      E7800000 
 364              	.LVL36:
  71:src/main.cpp  **** 	for (int i = 0; i < 1000000; i++) {
GAS LISTING /tmp/ccCuyS6K.s 			page 12


 365              		.loc 1 71 2 is_stmt 1
 366              	.LBB3:
  71:src/main.cpp  **** 	for (int i = 0; i < 1000000; i++) {
 367              		.loc 1 71 11 is_stmt 0
 368 02e4 93040000 		li	s1,0
 369 02e8 6F000004 		j	.L17
 370              	.LVL37:
 371              	.L19:
  73:src/main.cpp  **** 			printString("Nit2: ");
 372              		.loc 1 73 4 is_stmt 1
  73:src/main.cpp  **** 			printString("Nit2: ");
 373              		.loc 1 73 15 is_stmt 0
 374 02ec 17050000 		lla	a0,.LANCHOR0+104
 374      13050500 
 375 02f4 97000000 		call	_Z11printStringPKc@plt
 375      E7800000 
 376              	.LVL38:
  74:src/main.cpp  **** 			printInteger(i);
 377              		.loc 1 74 4 is_stmt 1
  74:src/main.cpp  **** 			printInteger(i);
 378              		.loc 1 74 16 is_stmt 0
 379 02fc 13850400 		mv	a0,s1
 380 0300 97000000 		call	_Z12printIntegerm@plt
 380      E7800000 
 381              	.LVL39:
  75:src/main.cpp  **** 			printString("\n");
 382              		.loc 1 75 4 is_stmt 1
  75:src/main.cpp  **** 			printString("\n");
 383              		.loc 1 75 15 is_stmt 0
 384 0308 17050000 		lla	a0,.LANCHOR0+48
 384      13050500 
 385 0310 97000000 		call	_Z11printStringPKc@plt
 385      E7800000 
 386              	.LVL40:
  76:src/main.cpp  **** 			time_sleep(20);
 387              		.loc 1 76 4 is_stmt 1
  76:src/main.cpp  **** 			time_sleep(20);
 388              		.loc 1 76 14 is_stmt 0
 389 0318 13054001 		li	a0,20
 390 031c 97000000 		call	_Z10time_sleepm@plt
 390      E7800000 
 391              	.LVL41:
 392              	.L16:
  71:src/main.cpp  **** 	for (int i = 0; i < 1000000; i++) {
 393              		.loc 1 71 2 is_stmt 1 discriminator 2
 394 0324 9B841400 		addiw	s1,s1,1
 395              	.LVL42:
 396              	.L17:
  71:src/main.cpp  **** 	for (int i = 0; i < 1000000; i++) {
 397              		.loc 1 71 20 discriminator 1
 398 0328 B7470F00 		li	a5,999424
 399 032c 9387F723 		addi	a5,a5,575
 400 0330 63CC9700 		bgt	s1,a5,.L15
  72:src/main.cpp  **** 		if (i % 100000 == 0) {
 401              		.loc 1 72 3
  72:src/main.cpp  **** 		if (i % 100000 == 0) {
 402              		.loc 1 72 9 is_stmt 0
GAS LISTING /tmp/ccCuyS6K.s 			page 13


 403 0334 B7870100 		li	a5,98304
 404 0338 9B87076A 		addiw	a5,a5,1696
 405 033c BBE7F402 		remw	a5,s1,a5
  72:src/main.cpp  **** 		if (i % 100000 == 0) {
 406              		.loc 1 72 3
 407 0340 E39207FE 		bnez	a5,.L16
 408 0344 6FF09FFA 		j	.L19
 409              	.L15:
 410              	.LBE3:
  83:src/main.cpp  **** 	printString("\nPokusavam da ugasim nit 2\n");
 411              		.loc 1 83 2 is_stmt 1
  83:src/main.cpp  **** 	printString("\nPokusavam da ugasim nit 2\n");
 412              		.loc 1 83 13 is_stmt 0
 413 0348 17050000 		lla	a0,.LANCHOR0+112
 413      13050500 
 414 0350 97000000 		call	_Z11printStringPKc@plt
 414      E7800000 
 415              	.LVL43:
  85:src/main.cpp  **** 	printString("\nNisam uspeo da ugasim nit 2\n");
 416              		.loc 1 85 2 is_stmt 1
  85:src/main.cpp  **** 	printString("\nNisam uspeo da ugasim nit 2\n");
 417              		.loc 1 85 13 is_stmt 0
 418 0358 17050000 		lla	a0,.LANCHOR0+144
 418      13050500 
 419 0360 97000000 		call	_Z11printStringPKc@plt
 419      E7800000 
 420              	.LVL44:
  86:src/main.cpp  **** 	printInteger(*(uint64*)arg2);
 421              		.loc 1 86 2 is_stmt 1
  86:src/main.cpp  **** 	printInteger(*(uint64*)arg2);
 422              		.loc 1 86 14 is_stmt 0
 423 0368 03350900 		ld	a0,0(s2)
 424 036c 97000000 		call	_Z12printIntegerm@plt
 424      E7800000 
 425              	.LVL45:
  87:src/main.cpp  **** 	printString("\nGotova nit 2\n");
 426              		.loc 1 87 2 is_stmt 1
  87:src/main.cpp  **** 	printString("\nGotova nit 2\n");
 427              		.loc 1 87 13 is_stmt 0
 428 0374 17050000 		lla	a0,.LANCHOR0+176
 428      13050500 
 429 037c 97000000 		call	_Z11printStringPKc@plt
 429      E7800000 
 430              	.LVL46:
  88:src/main.cpp  **** }
 431              		.loc 1 88 1
 432 0384 83308102 		ld	ra,40(sp)
 433              		.cfi_restore 1
 434 0388 03340102 		ld	s0,32(sp)
 435              		.cfi_restore 8
 436              		.cfi_def_cfa 2, 48
 437 038c 83348101 		ld	s1,24(sp)
 438              		.cfi_restore 9
 439              	.LVL47:
 440 0390 03390101 		ld	s2,16(sp)
 441              		.cfi_restore 18
 442              	.LVL48:
GAS LISTING /tmp/ccCuyS6K.s 			page 14


 443 0394 13010103 		addi	sp,sp,48
 444              		.cfi_def_cfa_offset 0
 445 0398 67800000 		jr	ra
 446              		.cfi_endproc
 447              	.LFE27:
 449              		.align	2
 450              		.globl	_Z5nit3fPv
 452              	_Z5nit3fPv:
 453              	.LFB28:
  90:src/main.cpp  **** void nit3f(void*) {
 454              		.loc 1 90 19 is_stmt 1
 455              		.cfi_startproc
 456 039c 130101FE 		addi	sp,sp,-32
 457              		.cfi_def_cfa_offset 32
 458 03a0 233C1100 		sd	ra,24(sp)
 459 03a4 23388100 		sd	s0,16(sp)
 460 03a8 23349100 		sd	s1,8(sp)
 461              		.cfi_offset 1, -8
 462              		.cfi_offset 8, -16
 463              		.cfi_offset 9, -24
 464 03ac 13040102 		addi	s0,sp,32
 465              		.cfi_def_cfa 8, 0
  91:src/main.cpp  **** 	for (int i = 0; i < 20; i++) {
 466              		.loc 1 91 2
 467              	.LVL49:
 468              	.LBB4:
  91:src/main.cpp  **** 	for (int i = 0; i < 20; i++) {
 469              		.loc 1 91 11 is_stmt 0
 470 03b0 93040000 		li	s1,0
 471 03b4 6F000003 		j	.L22
 472              	.LVL50:
 473              	.L24:
  92:src/main.cpp  **** 		printInteger(i);
 474              		.loc 1 92 3 is_stmt 1 discriminator 2
  92:src/main.cpp  **** 		printInteger(i);
 475              		.loc 1 92 15 is_stmt 0 discriminator 2
 476 03b8 13850400 		mv	a0,s1
 477 03bc 97000000 		call	_Z12printIntegerm@plt
 477      E7800000 
 478              	.LVL51:
  93:src/main.cpp  **** 		printString("\n");
 479              		.loc 1 93 3 is_stmt 1 discriminator 2
  93:src/main.cpp  **** 		printString("\n");
 480              		.loc 1 93 14 is_stmt 0 discriminator 2
 481 03c4 17050000 		lla	a0,.LANCHOR0+48
 481      13050500 
 482 03cc 97000000 		call	_Z11printStringPKc@plt
 482      E7800000 
 483              	.LVL52:
  94:src/main.cpp  **** 		time_sleep(10);
 484              		.loc 1 94 3 is_stmt 1 discriminator 2
  94:src/main.cpp  **** 		time_sleep(10);
 485              		.loc 1 94 13 is_stmt 0 discriminator 2
 486 03d4 1305A000 		li	a0,10
 487 03d8 97000000 		call	_Z10time_sleepm@plt
 487      E7800000 
 488              	.LVL53:
GAS LISTING /tmp/ccCuyS6K.s 			page 15


  91:src/main.cpp  **** 	for (int i = 0; i < 20; i++) {
 489              		.loc 1 91 2 is_stmt 1 discriminator 2
 490 03e0 9B841400 		addiw	s1,s1,1
 491              	.LVL54:
 492              	.L22:
  91:src/main.cpp  **** 	for (int i = 0; i < 20; i++) {
 493              		.loc 1 91 20 discriminator 3
 494 03e4 93073001 		li	a5,19
 495 03e8 E3D897FC 		ble	s1,a5,.L24
 496              	.LBE4:
  96:src/main.cpp  **** }
 497              		.loc 1 96 1 is_stmt 0
 498 03ec 83308101 		ld	ra,24(sp)
 499              		.cfi_restore 1
 500 03f0 03340101 		ld	s0,16(sp)
 501              		.cfi_restore 8
 502              		.cfi_def_cfa 2, 32
 503 03f4 83348100 		ld	s1,8(sp)
 504              		.cfi_restore 9
 505              	.LVL55:
 506 03f8 13010102 		addi	sp,sp,32
 507              		.cfi_def_cfa_offset 0
 508 03fc 67800000 		jr	ra
 509              		.cfi_endproc
 510              	.LFE28:
 512              		.section	.text._ZN5Riscv7w_stvecEm,"axG",@progbits,_ZN5Riscv7w_stvecEm,comdat
 513              		.align	2
 514              		.weak	_ZN5Riscv7w_stvecEm
 516              	_ZN5Riscv7w_stvecEm:
 517              	.LFB5:
 518              		.file 2 "src/../h/Riscv.hpp"
   1:src/../h/Riscv.hpp **** //
   2:src/../h/Riscv.hpp **** // Created by os on 5/17/23.
   3:src/../h/Riscv.hpp **** //
   4:src/../h/Riscv.hpp **** 
   5:src/../h/Riscv.hpp **** #ifndef PROJEKAT2023_RISCV_HPP
   6:src/../h/Riscv.hpp **** #define PROJEKAT2023_RISCV_HPP
   7:src/../h/Riscv.hpp **** 
   8:src/../h/Riscv.hpp **** #include "../lib/hw.h"
   9:src/../h/Riscv.hpp **** 
  10:src/../h/Riscv.hpp **** class Riscv {
  11:src/../h/Riscv.hpp **** public:
  12:src/../h/Riscv.hpp **** 
  13:src/../h/Riscv.hpp **** 	static void popSppSpie();
  14:src/../h/Riscv.hpp **** 
  15:src/../h/Riscv.hpp **** 	//stavljanje registara x3-x31 na stek
  16:src/../h/Riscv.hpp **** 	static void pushRegisters();    //implementacija u asm
  17:src/../h/Riscv.hpp **** 
  18:src/../h/Riscv.hpp **** 	//skidanje registara x3-x31 sa steka
  19:src/../h/Riscv.hpp **** 	static void popRegisters();     //implementacija u asm
  20:src/../h/Riscv.hpp **** 
  21:src/../h/Riscv.hpp **** 	//read scause
  22:src/../h/Riscv.hpp **** 	static uint64 r_scause();
  23:src/../h/Riscv.hpp **** 
  24:src/../h/Riscv.hpp **** 	//write scause
  25:src/../h/Riscv.hpp **** 	static void w_scause(uint64 scause);
  26:src/../h/Riscv.hpp **** 
GAS LISTING /tmp/ccCuyS6K.s 			page 16


  27:src/../h/Riscv.hpp **** 	//read sepc
  28:src/../h/Riscv.hpp **** 	static uint64 r_sepc();
  29:src/../h/Riscv.hpp **** 
  30:src/../h/Riscv.hpp **** 	//write sepc
  31:src/../h/Riscv.hpp **** 	static void w_sepc(uint64 sepc);
  32:src/../h/Riscv.hpp **** 
  33:src/../h/Riscv.hpp **** 	//read stvec
  34:src/../h/Riscv.hpp **** 	static uint64 r_stvec();
  35:src/../h/Riscv.hpp **** 
  36:src/../h/Riscv.hpp **** 	//write stvec
  37:src/../h/Riscv.hpp **** 	static void w_stvec(uint64 stvec);
  38:src/../h/Riscv.hpp **** 
  39:src/../h/Riscv.hpp **** 	enum BitMaskSip {
  40:src/../h/Riscv.hpp **** 		//postoji zahtev za softverski prekid
  41:src/../h/Riscv.hpp **** 		SIP_SSIP = (1 << 1),
  42:src/../h/Riscv.hpp **** 		//postoji prekid od tajmera
  43:src/../h/Riscv.hpp **** 		SIP_STIP = (1 << 5),
  44:src/../h/Riscv.hpp **** 		//postoji zahtev za spoljasnji hardverski prekid
  45:src/../h/Riscv.hpp **** 		SIP_SEIP = (1 << 9)
  46:src/../h/Riscv.hpp **** 	};
  47:src/../h/Riscv.hpp **** 
  48:src/../h/Riscv.hpp **** 	//mask set sip
  49:src/../h/Riscv.hpp **** 	static void ms_sip(uint64 mask);
  50:src/../h/Riscv.hpp **** 
  51:src/../h/Riscv.hpp **** 	//mask clear sip
  52:src/../h/Riscv.hpp **** 	static void mc_sip(uint64 mask);
  53:src/../h/Riscv.hpp **** 
  54:src/../h/Riscv.hpp **** 	//read sip
  55:src/../h/Riscv.hpp **** 	static uint64 r_sip();
  56:src/../h/Riscv.hpp **** 
  57:src/../h/Riscv.hpp **** 	//write sip
  58:src/../h/Riscv.hpp **** 	static void w_sip(uint64 sip);
  59:src/../h/Riscv.hpp **** 
  60:src/../h/Riscv.hpp **** 	//kada se pozove sret, SIE dobija vrednost SPIE, SPIE se postavlja na 1,
  61:src/../h/Riscv.hpp **** 	//rezim se postavlja na osnovu SPP bita, SPP se postavlja na 0
  62:src/../h/Riscv.hpp **** 	enum BitMaskSstatus {
  63:src/../h/Riscv.hpp **** 		//1 - dozvoljeni prekidi; 0- nedozvoljeni prekidi; igonrise se u korisnickom rezimu
  64:src/../h/Riscv.hpp **** 		SSTATUS_SIE = (1 << 1),
  65:src/../h/Riscv.hpp **** 		//prethodna vrednost bita SIE
  66:src/../h/Riscv.hpp **** 		SSTATUS_SPIE = (1 << 5),
  67:src/../h/Riscv.hpp **** 		//iz kog rezima se desio skok; 0 - iz korisnickog; 1 - iz sistemskog
  68:src/../h/Riscv.hpp **** 		SSTATUS_SPP = (1 << 8)
  69:src/../h/Riscv.hpp **** 	};
  70:src/../h/Riscv.hpp **** 
  71:src/../h/Riscv.hpp **** 	//mask set sstatus
  72:src/../h/Riscv.hpp **** 	static void ms_sstatus(uint64 mask);
  73:src/../h/Riscv.hpp **** 
  74:src/../h/Riscv.hpp **** 	//mask clear sstatus
  75:src/../h/Riscv.hpp **** 	static void mc_sstatus(uint64 mask);
  76:src/../h/Riscv.hpp **** 
  77:src/../h/Riscv.hpp **** 	//read sstatus
  78:src/../h/Riscv.hpp **** 	static uint64 r_sstatus();
  79:src/../h/Riscv.hpp **** 
  80:src/../h/Riscv.hpp **** 	//write sstatus
  81:src/../h/Riscv.hpp **** 	static void w_sstatus(uint64 sstatus);
  82:src/../h/Riscv.hpp **** 
  83:src/../h/Riscv.hpp **** 	//upisuje kod sistemskog poziva u registar a0
GAS LISTING /tmp/ccCuyS6K.s 			page 17


  84:src/../h/Riscv.hpp **** 	static void loadOpCode(uint64 opCode);
  85:src/../h/Riscv.hpp **** 
  86:src/../h/Riscv.hpp **** };
  87:src/../h/Riscv.hpp **** 
  88:src/../h/Riscv.hpp **** inline uint64 Riscv::r_scause() {
  89:src/../h/Riscv.hpp **** 	uint64 volatile scause;
  90:src/../h/Riscv.hpp **** 	__asm__ volatile("csrr %[scause], scause": [scause] "=r"(scause));
  91:src/../h/Riscv.hpp **** 	return scause;
  92:src/../h/Riscv.hpp **** }
  93:src/../h/Riscv.hpp **** 
  94:src/../h/Riscv.hpp **** inline void Riscv::w_scause(uint64 scause) {
  95:src/../h/Riscv.hpp **** 	__asm__ volatile("csrw scause, %[scause]": :[scause] "r"(scause));
  96:src/../h/Riscv.hpp **** }
  97:src/../h/Riscv.hpp **** 
  98:src/../h/Riscv.hpp **** inline uint64 Riscv::r_sepc() {
  99:src/../h/Riscv.hpp **** 	uint64 volatile sepc;
 100:src/../h/Riscv.hpp **** 	__asm__ volatile("csrr %[sepc], sepc": [sepc] "=r"(sepc));
 101:src/../h/Riscv.hpp **** 	return sepc;
 102:src/../h/Riscv.hpp **** }
 103:src/../h/Riscv.hpp **** 
 104:src/../h/Riscv.hpp **** inline void Riscv::w_sepc(uint64 sepc) {
 105:src/../h/Riscv.hpp **** 	__asm__ volatile("csrw sepc, %[sepc]": :[sepc] "r"(sepc));
 106:src/../h/Riscv.hpp **** }
 107:src/../h/Riscv.hpp **** 
 108:src/../h/Riscv.hpp **** inline uint64 Riscv::r_stvec() {
 109:src/../h/Riscv.hpp **** 	uint64 volatile stvec;
 110:src/../h/Riscv.hpp **** 	__asm__ volatile("csrr %[stvec], stvec": [stvec] "=r"(stvec));
 111:src/../h/Riscv.hpp **** 	return stvec;
 112:src/../h/Riscv.hpp **** }
 113:src/../h/Riscv.hpp **** 
 114:src/../h/Riscv.hpp **** inline void Riscv::w_stvec(uint64 stvec) {
 519              		.loc 2 114 42 is_stmt 1
 520              		.cfi_startproc
 521              	.LVL56:
 522 0000 130101FF 		addi	sp,sp,-16
 523              		.cfi_def_cfa_offset 16
 524 0004 23348100 		sd	s0,8(sp)
 525              		.cfi_offset 8, -8
 526 0008 13040101 		addi	s0,sp,16
 527              		.cfi_def_cfa 8, 0
 115:src/../h/Riscv.hpp **** 	__asm__ volatile("csrw stvec, %[stvec]": :[stvec] "r"(stvec));
 528              		.loc 2 115 2
 529              		.loc 2 115 63 is_stmt 0
 530              	#APP
 531              	# 115 "src/../h/Riscv.hpp" 1
 116              	}
 532              		csrw stvec, a0
 533              	# 0 "" 2
 534              		.loc 2 116 1
 535              	#NO_APP
 536 0010 03348100 		ld	s0,8(sp)
 537              		.cfi_restore 8
 538              		.cfi_def_cfa 2, 16
 539 0014 13010101 		addi	sp,sp,16
 540              		.cfi_def_cfa_offset 0
 541 0018 67800000 		jr	ra
 542              		.cfi_endproc
GAS LISTING /tmp/ccCuyS6K.s 			page 18


 543              	.LFE5:
 545              		.section	.text._ZN5Riscv10ms_sstatusEm,"axG",@progbits,_ZN5Riscv10ms_sstatusEm,comdat
 546              		.align	2
 547              		.weak	_ZN5Riscv10ms_sstatusEm
 549              	_ZN5Riscv10ms_sstatusEm:
 550              	.LFB10:
 117:src/../h/Riscv.hpp **** 
 118:src/../h/Riscv.hpp **** inline void Riscv::ms_sip(uint64 mask) {
 119:src/../h/Riscv.hpp **** 	__asm__ volatile("csrs sip, %[mask]": :[mask] "r"(mask));
 120:src/../h/Riscv.hpp **** }
 121:src/../h/Riscv.hpp **** 
 122:src/../h/Riscv.hpp **** inline void Riscv::mc_sip(uint64 mask) {
 123:src/../h/Riscv.hpp **** 	__asm__ volatile("csrc sip, %[mask]": :[mask] "r"(mask));
 124:src/../h/Riscv.hpp **** }
 125:src/../h/Riscv.hpp **** 
 126:src/../h/Riscv.hpp **** inline uint64 Riscv::r_sip() {
 127:src/../h/Riscv.hpp **** 	uint64 volatile sip;
 128:src/../h/Riscv.hpp **** 	__asm__ volatile("csrr %[sip], sip": [sip] "=r"(sip));
 129:src/../h/Riscv.hpp **** 	return sip;
 130:src/../h/Riscv.hpp **** }
 131:src/../h/Riscv.hpp **** 
 132:src/../h/Riscv.hpp **** inline void Riscv::w_sip(uint64 sip) {
 133:src/../h/Riscv.hpp **** 	__asm__ volatile("csrw sip, %[sip]": :[sip] "r"(sip));
 134:src/../h/Riscv.hpp **** }
 135:src/../h/Riscv.hpp **** 
 136:src/../h/Riscv.hpp **** inline void Riscv::ms_sstatus(uint64 mask) {
 551              		.loc 2 136 44 is_stmt 1
 552              		.cfi_startproc
 553              	.LVL57:
 554 0000 130101FF 		addi	sp,sp,-16
 555              		.cfi_def_cfa_offset 16
 556 0004 23348100 		sd	s0,8(sp)
 557              		.cfi_offset 8, -8
 558 0008 13040101 		addi	s0,sp,16
 559              		.cfi_def_cfa 8, 0
 137:src/../h/Riscv.hpp **** 	__asm__ volatile("csrs sstatus, %[mask]": :[mask] "r"(mask));
 560              		.loc 2 137 2
 561              		.loc 2 137 62 is_stmt 0
 562              	#APP
 563              	# 137 "src/../h/Riscv.hpp" 1
 138              	}
 564              		csrs sstatus, a0
 565              	# 0 "" 2
 566              		.loc 2 138 1
 567              	#NO_APP
 568 0010 03348100 		ld	s0,8(sp)
 569              		.cfi_restore 8
 570              		.cfi_def_cfa 2, 16
 571 0014 13010101 		addi	sp,sp,16
 572              		.cfi_def_cfa_offset 0
 573 0018 67800000 		jr	ra
 574              		.cfi_endproc
 575              	.LFE10:
 577              		.section	.text._ZN5Riscv10mc_sstatusEm,"axG",@progbits,_ZN5Riscv10mc_sstatusEm,comdat
 578              		.align	2
 579              		.weak	_ZN5Riscv10mc_sstatusEm
 581              	_ZN5Riscv10mc_sstatusEm:
GAS LISTING /tmp/ccCuyS6K.s 			page 19


 582              	.LFB11:
 139:src/../h/Riscv.hpp **** 
 140:src/../h/Riscv.hpp **** inline void Riscv::mc_sstatus(uint64 mask) {
 583              		.loc 2 140 44 is_stmt 1
 584              		.cfi_startproc
 585              	.LVL58:
 586 0000 130101FF 		addi	sp,sp,-16
 587              		.cfi_def_cfa_offset 16
 588 0004 23348100 		sd	s0,8(sp)
 589              		.cfi_offset 8, -8
 590 0008 13040101 		addi	s0,sp,16
 591              		.cfi_def_cfa 8, 0
 141:src/../h/Riscv.hpp **** 	__asm__ volatile("csrc sstatus, %[mask]": :[mask] "r"(mask));
 592              		.loc 2 141 2
 593              		.loc 2 141 62 is_stmt 0
 594              	#APP
 595              	# 141 "src/../h/Riscv.hpp" 1
 142              	}
 596              		csrc sstatus, a0
 597              	# 0 "" 2
 598              		.loc 2 142 1
 599              	#NO_APP
 600 0010 03348100 		ld	s0,8(sp)
 601              		.cfi_restore 8
 602              		.cfi_def_cfa 2, 16
 603 0014 13010101 		addi	sp,sp,16
 604              		.cfi_def_cfa_offset 0
 605 0018 67800000 		jr	ra
 606              		.cfi_endproc
 607              	.LFE11:
 609              		.section	.text._ZN3TCB10isFinishedEv,"axG",@progbits,_ZN3TCB10isFinishedEv,comdat
 610              		.align	2
 611              		.weak	_ZN3TCB10isFinishedEv
 613              	_ZN3TCB10isFinishedEv:
 614              	.LFB17:
 615              		.file 3 "src/../h/TCB.hpp"
   1:src/../h/TCB.hpp **** //
   2:src/../h/TCB.hpp **** // Created by os on 5/23/23.
   3:src/../h/TCB.hpp **** //
   4:src/../h/TCB.hpp **** 
   5:src/../h/TCB.hpp **** #ifndef PROJEKAT2023_TCB_HPP
   6:src/../h/TCB.hpp **** #define PROJEKAT2023_TCB_HPP
   7:src/../h/TCB.hpp **** 
   8:src/../h/TCB.hpp **** #include "../lib/hw.h"
   9:src/../h/TCB.hpp **** 
  10:src/../h/TCB.hpp **** class TCB {
  11:src/../h/TCB.hpp **** public:
  12:src/../h/TCB.hpp **** 	friend class Scheduler;
  13:src/../h/TCB.hpp **** 
  14:src/../h/TCB.hpp **** 	using Body = void (*)(void*);
  15:src/../h/TCB.hpp **** 
  16:src/../h/TCB.hpp **** 	static TCB* createThread(Body function, void* args, uint64* stack);
  17:src/../h/TCB.hpp **** 
  18:src/../h/TCB.hpp **** 	bool isFinished() { return finished; }
 616              		.loc 3 18 7 is_stmt 1
 617              		.cfi_startproc
 618              	.LVL59:
GAS LISTING /tmp/ccCuyS6K.s 			page 20


 619 0000 130101FF 		addi	sp,sp,-16
 620              		.cfi_def_cfa_offset 16
 621 0004 23348100 		sd	s0,8(sp)
 622              		.cfi_offset 8, -8
 623 0008 13040101 		addi	s0,sp,16
 624              		.cfi_def_cfa 8, 0
 625              		.loc 3 18 22
 626              		.loc 3 18 39 is_stmt 0
 627 000c 03450503 		lbu	a0,48(a0)
 628              	.LVL60:
 629 0010 03348100 		ld	s0,8(sp)
 630              		.cfi_restore 8
 631              		.cfi_def_cfa 2, 16
 632 0014 13010101 		addi	sp,sp,16
 633              		.cfi_def_cfa_offset 0
 634 0018 67800000 		jr	ra
 635              		.cfi_endproc
 636              	.LFE17:
 638              		.section	.rodata
 639 0024 00000000 		.align	3
 640              		.set	.LANCHOR0,. + 0
 641              	.LC2:
 642 0028 0A757361 		.string	"\nusao u nit 1\n"
 642      6F207520 
 642      6E697420 
 642      310A00
 643 0037 00       		.zero	1
 644              	.LC3:
 645 0038 0A6F7065 		.string	"\nopet u niti 1\n"
 645      74207520 
 645      6E697469 
 645      20310A00 
 646              	.LC4:
 647 0048 0A743120 		.string	"\nt1 = "
 647      3D2000
 648 004f 00       		.zero	1
 649              	.LC5:
 650 0050 4E697431 		.string	"Nit1: "
 650      3A2000
 651 0057 00       		.zero	1
 652              	.LC6:
 653 0058 0A00     		.string	"\n"
 654 005a 00000000 		.zero	6
 654      0000
 655              	.LC7:
 656 0060 0A476F74 		.string	"\nGotova nit 1\n"
 656      6F766120 
 656      6E697420 
 656      310A00
 657 006f 00       		.zero	1
 658              	.LC8:
 659 0070 0A757361 		.string	"\nusao u nit 2\n"
 659      6F207520 
 659      6E697420 
 659      320A00
 660 007f 00       		.zero	1
 661              	.LC9:
GAS LISTING /tmp/ccCuyS6K.s 			page 21


 662 0080 0A6F7065 		.string	"\nopet u niti 2\n"
 662      74207520 
 662      6E697469 
 662      20320A00 
 663              	.LC10:
 664 0090 4E697432 		.string	"Nit2: "
 664      3A2000
 665 0097 00       		.zero	1
 666              	.LC11:
 667 0098 0A506F6B 		.string	"\nPokusavam da ugasim nit 2\n"
 667      75736176 
 667      616D2064 
 667      61207567 
 667      6173696D 
 668 00b4 00000000 		.zero	4
 669              	.LC12:
 670 00b8 0A4E6973 		.string	"\nNisam uspeo da ugasim nit 2\n"
 670      616D2075 
 670      7370656F 
 670      20646120 
 670      75676173 
 671 00d6 0000     		.zero	2
 672              	.LC13:
 673 00d8 0A476F74 		.string	"\nGotova nit 2\n"
 673      6F766120 
 673      6E697420 
 673      320A00
 674              		.text
 675              	.Letext0:
 676              		.file 4 "src/../lib/hw.h"
 677              		.file 5 "src/../h/syscall_c.hpp"
 678              		.file 6 "src/../h/syscall_cpp.hpp"
 679              		.file 7 "src/../h/helper.hpp"
GAS LISTING /tmp/ccCuyS6K.s 			page 22


DEFINED SYMBOLS
                            *ABS*:0000000000000000 main.cpp
     /tmp/ccCuyS6K.s:17     .text:0000000000000000 main
     /tmp/ccCuyS6K.s:21     .text:0000000000000000 .L0 
     /tmp/ccCuyS6K.s:22     .text:0000000000000000 .L0 
     /tmp/ccCuyS6K.s:23     .text:0000000000000004 .L0 
     /tmp/ccCuyS6K.s:26     .text:000000000000000c .L0 
     /tmp/ccCuyS6K.s:27     .text:000000000000000c .L0 
     /tmp/ccCuyS6K.s:29     .text:0000000000000010 .L0 
     /tmp/ccCuyS6K.s:31     .text:0000000000000010 .L0 
     /tmp/ccCuyS6K.s:32     .text:0000000000000010 .L0 
     /tmp/ccCuyS6K.s:581    .text._ZN5Riscv10mc_sstatusEm:0000000000000000 _ZN5Riscv10mc_sstatusEm
     /tmp/ccCuyS6K.s:36     .text:000000000000001c .L0 
     /tmp/ccCuyS6K.s:37     .text:000000000000001c .L0 
     /tmp/ccCuyS6K.s:516    .text._ZN5Riscv7w_stvecEm:0000000000000000 _ZN5Riscv7w_stvecEm
     /tmp/ccCuyS6K.s:42     .text:0000000000000030 .L0 
     /tmp/ccCuyS6K.s:43     .text:0000000000000030 .L0 
     /tmp/ccCuyS6K.s:45     .text:0000000000000034 .L0 
     /tmp/ccCuyS6K.s:46     .text:0000000000000034 .L0 
     /tmp/ccCuyS6K.s:48     .text:0000000000000038 .L0 
     /tmp/ccCuyS6K.s:49     .text:0000000000000038 .L0 
     /tmp/ccCuyS6K.s:51     .text:000000000000003c .L0 
     /tmp/ccCuyS6K.s:52     .text:000000000000003c .L0 
     /tmp/ccCuyS6K.s:53     .text:000000000000003c .L0 
     /tmp/ccCuyS6K.s:60     .text:0000000000000054 .L0 
     /tmp/ccCuyS6K.s:61     .text:0000000000000054 .L0 
     /tmp/ccCuyS6K.s:65     .text:0000000000000064 .L0 
     /tmp/ccCuyS6K.s:66     .text:0000000000000064 .L0 
     /tmp/ccCuyS6K.s:73     .text:0000000000000078 .L0 
     /tmp/ccCuyS6K.s:74     .text:0000000000000078 .L0 
     /tmp/ccCuyS6K.s:78     .text:0000000000000084 .L0 
     /tmp/ccCuyS6K.s:79     .text:0000000000000084 .L0 
     /tmp/ccCuyS6K.s:185    .text:0000000000000184 _Z5nit1fPv
     /tmp/ccCuyS6K.s:87     .text:00000000000000a0 .L0 
     /tmp/ccCuyS6K.s:88     .text:00000000000000a0 .L0 
     /tmp/ccCuyS6K.s:297    .text:0000000000000258 _Z5nit2fPv
     /tmp/ccCuyS6K.s:95     .text:00000000000000bc .L0 
     /tmp/ccCuyS6K.s:96     .text:00000000000000bc .L0 
     /tmp/ccCuyS6K.s:452    .text:000000000000039c _Z5nit3fPv
     /tmp/ccCuyS6K.s:103    .text:00000000000000d8 .L0 
     /tmp/ccCuyS6K.s:104    .text:00000000000000d8 .L0 
     /tmp/ccCuyS6K.s:549    .text._ZN5Riscv10ms_sstatusEm:0000000000000000 _ZN5Riscv10ms_sstatusEm
     /tmp/ccCuyS6K.s:109    .text:00000000000000e4 .L0 
     /tmp/ccCuyS6K.s:110    .text:00000000000000e4 .L0 
     /tmp/ccCuyS6K.s:111    .text:00000000000000e4 .L0 
     /tmp/ccCuyS6K.s:613    .text._ZN3TCB10isFinishedEv:0000000000000000 _ZN3TCB10isFinishedEv
     /tmp/ccCuyS6K.s:117    .text:00000000000000f8 .L0 
     /tmp/ccCuyS6K.s:120    .text:0000000000000100 .L0 
     /tmp/ccCuyS6K.s:122    .text:0000000000000104 .L0 
     /tmp/ccCuyS6K.s:128    .text:0000000000000118 .L0 
     /tmp/ccCuyS6K.s:131    .text:0000000000000120 .L0 
     /tmp/ccCuyS6K.s:134    .text:0000000000000124 .L0 
     /tmp/ccCuyS6K.s:138    .text:000000000000012c .L0 
     /tmp/ccCuyS6K.s:141    .text:0000000000000130 .L0 
     /tmp/ccCuyS6K.s:143    .text:0000000000000134 .L0 
     /tmp/ccCuyS6K.s:144    .text:0000000000000134 .L0 
     /tmp/ccCuyS6K.s:147    .text:000000000000013c .L0 
GAS LISTING /tmp/ccCuyS6K.s 			page 23


     /tmp/ccCuyS6K.s:150    .text:0000000000000140 .L0 
     /tmp/ccCuyS6K.s:151    .text:0000000000000140 .L0 
     /tmp/ccCuyS6K.s:155    .text:0000000000000150 .L0 
     /tmp/ccCuyS6K.s:156    .text:0000000000000150 .L0 
     /tmp/ccCuyS6K.s:160    .text:000000000000015c .L0 
     /tmp/ccCuyS6K.s:161    .text:000000000000015c .L0 
     /tmp/ccCuyS6K.s:165    .text:000000000000016c .L0 
     /tmp/ccCuyS6K.s:166    .text:000000000000016c .L0 
     /tmp/ccCuyS6K.s:168    .text:0000000000000170 .L0 
     /tmp/ccCuyS6K.s:170    .text:0000000000000178 .L0 
     /tmp/ccCuyS6K.s:172    .text:000000000000017c .L0 
     /tmp/ccCuyS6K.s:173    .text:000000000000017c .L0 
     /tmp/ccCuyS6K.s:176    .text:0000000000000180 .L0 
     /tmp/ccCuyS6K.s:179    .text:0000000000000184 .L0 
     /tmp/ccCuyS6K.s:188    .text:0000000000000184 .L0 
     /tmp/ccCuyS6K.s:189    .text:0000000000000184 .L0 
     /tmp/ccCuyS6K.s:190    .text:0000000000000188 .L0 
     /tmp/ccCuyS6K.s:194    .text:0000000000000194 .L0 
     /tmp/ccCuyS6K.s:195    .text:0000000000000194 .L0 
     /tmp/ccCuyS6K.s:196    .text:0000000000000194 .L0 
     /tmp/ccCuyS6K.s:198    .text:0000000000000198 .L0 
     /tmp/ccCuyS6K.s:200    .text:0000000000000198 .L0 
     /tmp/ccCuyS6K.s:201    .text:0000000000000198 .L0 
     /tmp/ccCuyS6K.s:205    .text:00000000000001a8 .L0 
        src/main.cpp:34     .text:00000000000001a8 .L0 
     /tmp/ccCuyS6K.s:211    .text:00000000000001ac .L0 
     /tmp/ccCuyS6K.s:212    .text:00000000000001ac .L0 
        src/main.cpp:37     .text:00000000000001ac .L0 
     /tmp/ccCuyS6K.s:219    .text:00000000000001b4 .L0 
     /tmp/ccCuyS6K.s:220    .text:00000000000001b4 .L0 
     /tmp/ccCuyS6K.s:224    .text:00000000000001c4 .L0 
     /tmp/ccCuyS6K.s:225    .text:00000000000001c4 .L0 
     /tmp/ccCuyS6K.s:229    .text:00000000000001d4 .L0 
     /tmp/ccCuyS6K.s:230    .text:00000000000001d4 .L0 
     /tmp/ccCuyS6K.s:235    .text:00000000000001e0 .L0 
     /tmp/ccCuyS6K.s:236    .text:00000000000001e0 .L0 
     /tmp/ccCuyS6K.s:241    .text:00000000000001e8 .L0 
     /tmp/ccCuyS6K.s:242    .text:00000000000001e8 .L0 
     /tmp/ccCuyS6K.s:246    .text:00000000000001f8 .L0 
     /tmp/ccCuyS6K.s:247    .text:00000000000001f8 .L0 
     /tmp/ccCuyS6K.s:251    .text:0000000000000204 .L0 
     /tmp/ccCuyS6K.s:252    .text:0000000000000204 .L0 
     /tmp/ccCuyS6K.s:257    .text:0000000000000214 .L0 
     /tmp/ccCuyS6K.s:258    .text:0000000000000214 .L0 
     /tmp/ccCuyS6K.s:262    .text:0000000000000218 .L0 
     /tmp/ccCuyS6K.s:266    .text:0000000000000224 .L0 
     /tmp/ccCuyS6K.s:267    .text:0000000000000224 .L0 
     /tmp/ccCuyS6K.s:270    .text:000000000000022c .L0 
     /tmp/ccCuyS6K.s:275    .text:0000000000000234 .L0 
     /tmp/ccCuyS6K.s:276    .text:0000000000000234 .L0 
     /tmp/ccCuyS6K.s:280    .text:0000000000000244 .L0 
     /tmp/ccCuyS6K.s:281    .text:0000000000000248 .L0 
     /tmp/ccCuyS6K.s:283    .text:000000000000024c .L0 
     /tmp/ccCuyS6K.s:284    .text:000000000000024c .L0 
     /tmp/ccCuyS6K.s:286    .text:0000000000000250 .L0 
     /tmp/ccCuyS6K.s:289    .text:0000000000000254 .L0 
     /tmp/ccCuyS6K.s:291    .text:0000000000000258 .L0 
GAS LISTING /tmp/ccCuyS6K.s 			page 24


     /tmp/ccCuyS6K.s:300    .text:0000000000000258 .L0 
     /tmp/ccCuyS6K.s:302    .text:0000000000000258 .L0 
     /tmp/ccCuyS6K.s:303    .text:000000000000025c .L0 
     /tmp/ccCuyS6K.s:308    .text:000000000000026c .L0 
     /tmp/ccCuyS6K.s:309    .text:000000000000026c .L0 
     /tmp/ccCuyS6K.s:310    .text:000000000000026c .L0 
     /tmp/ccCuyS6K.s:311    .text:000000000000026c .L0 
     /tmp/ccCuyS6K.s:313    .text:0000000000000270 .L0 
     /tmp/ccCuyS6K.s:316    .text:0000000000000274 .L0 
     /tmp/ccCuyS6K.s:317    .text:0000000000000274 .L0 
     /tmp/ccCuyS6K.s:322    .text:0000000000000284 .L0 
     /tmp/ccCuyS6K.s:323    .text:0000000000000284 .L0 
     /tmp/ccCuyS6K.s:327    .text:0000000000000290 .L0 
     /tmp/ccCuyS6K.s:328    .text:0000000000000290 .L0 
     /tmp/ccCuyS6K.s:332    .text:000000000000029c .L0 
        src/main.cpp:63     .text:000000000000029c .L0 
     /tmp/ccCuyS6K.s:338    .text:00000000000002a0 .L0 
     /tmp/ccCuyS6K.s:339    .text:00000000000002a0 .L0 
        src/main.cpp:66     .text:00000000000002a0 .L0 
     /tmp/ccCuyS6K.s:346    .text:00000000000002a8 .L0 
     /tmp/ccCuyS6K.s:347    .text:00000000000002a8 .L0 
     /tmp/ccCuyS6K.s:351    .text:00000000000002b8 .L0 
     /tmp/ccCuyS6K.s:352    .text:00000000000002b8 .L0 
     /tmp/ccCuyS6K.s:356    .text:00000000000002c8 .L0 
     /tmp/ccCuyS6K.s:357    .text:00000000000002c8 .L0 
     /tmp/ccCuyS6K.s:361    .text:00000000000002d4 .L0 
     /tmp/ccCuyS6K.s:362    .text:00000000000002d4 .L0 
     /tmp/ccCuyS6K.s:367    .text:00000000000002e4 .L0 
     /tmp/ccCuyS6K.s:368    .text:00000000000002e4 .L0 
     /tmp/ccCuyS6K.s:373    .text:00000000000002ec .L0 
     /tmp/ccCuyS6K.s:374    .text:00000000000002ec .L0 
     /tmp/ccCuyS6K.s:378    .text:00000000000002fc .L0 
     /tmp/ccCuyS6K.s:379    .text:00000000000002fc .L0 
     /tmp/ccCuyS6K.s:383    .text:0000000000000308 .L0 
     /tmp/ccCuyS6K.s:384    .text:0000000000000308 .L0 
     /tmp/ccCuyS6K.s:388    .text:0000000000000318 .L0 
     /tmp/ccCuyS6K.s:389    .text:0000000000000318 .L0 
     /tmp/ccCuyS6K.s:394    .text:0000000000000324 .L0 
     /tmp/ccCuyS6K.s:398    .text:0000000000000328 .L0 
     /tmp/ccCuyS6K.s:402    .text:0000000000000334 .L0 
     /tmp/ccCuyS6K.s:403    .text:0000000000000334 .L0 
     /tmp/ccCuyS6K.s:407    .text:0000000000000340 .L0 
     /tmp/ccCuyS6K.s:412    .text:0000000000000348 .L0 
     /tmp/ccCuyS6K.s:413    .text:0000000000000348 .L0 
     /tmp/ccCuyS6K.s:417    .text:0000000000000358 .L0 
     /tmp/ccCuyS6K.s:418    .text:0000000000000358 .L0 
     /tmp/ccCuyS6K.s:422    .text:0000000000000368 .L0 
     /tmp/ccCuyS6K.s:423    .text:0000000000000368 .L0 
     /tmp/ccCuyS6K.s:427    .text:0000000000000374 .L0 
     /tmp/ccCuyS6K.s:428    .text:0000000000000374 .L0 
     /tmp/ccCuyS6K.s:432    .text:0000000000000384 .L0 
     /tmp/ccCuyS6K.s:433    .text:0000000000000388 .L0 
     /tmp/ccCuyS6K.s:435    .text:000000000000038c .L0 
     /tmp/ccCuyS6K.s:436    .text:000000000000038c .L0 
     /tmp/ccCuyS6K.s:438    .text:0000000000000390 .L0 
     /tmp/ccCuyS6K.s:441    .text:0000000000000394 .L0 
     /tmp/ccCuyS6K.s:444    .text:0000000000000398 .L0 
GAS LISTING /tmp/ccCuyS6K.s 			page 25


     /tmp/ccCuyS6K.s:446    .text:000000000000039c .L0 
     /tmp/ccCuyS6K.s:455    .text:000000000000039c .L0 
     /tmp/ccCuyS6K.s:456    .text:000000000000039c .L0 
     /tmp/ccCuyS6K.s:457    .text:00000000000003a0 .L0 
     /tmp/ccCuyS6K.s:461    .text:00000000000003ac .L0 
     /tmp/ccCuyS6K.s:462    .text:00000000000003ac .L0 
     /tmp/ccCuyS6K.s:463    .text:00000000000003ac .L0 
     /tmp/ccCuyS6K.s:465    .text:00000000000003b0 .L0 
     /tmp/ccCuyS6K.s:469    .text:00000000000003b0 .L0 
     /tmp/ccCuyS6K.s:470    .text:00000000000003b0 .L0 
     /tmp/ccCuyS6K.s:475    .text:00000000000003b8 .L0 
     /tmp/ccCuyS6K.s:476    .text:00000000000003b8 .L0 
     /tmp/ccCuyS6K.s:480    .text:00000000000003c4 .L0 
     /tmp/ccCuyS6K.s:481    .text:00000000000003c4 .L0 
     /tmp/ccCuyS6K.s:485    .text:00000000000003d4 .L0 
     /tmp/ccCuyS6K.s:486    .text:00000000000003d4 .L0 
     /tmp/ccCuyS6K.s:490    .text:00000000000003e0 .L0 
     /tmp/ccCuyS6K.s:494    .text:00000000000003e4 .L0 
     /tmp/ccCuyS6K.s:498    .text:00000000000003ec .L0 
     /tmp/ccCuyS6K.s:499    .text:00000000000003f0 .L0 
     /tmp/ccCuyS6K.s:501    .text:00000000000003f4 .L0 
     /tmp/ccCuyS6K.s:502    .text:00000000000003f4 .L0 
     /tmp/ccCuyS6K.s:504    .text:00000000000003f8 .L0 
     /tmp/ccCuyS6K.s:507    .text:00000000000003fc .L0 
     /tmp/ccCuyS6K.s:509    .text:0000000000000400 .L0 
     /tmp/ccCuyS6K.s:520    .text._ZN5Riscv7w_stvecEm:0000000000000000 .L0 
     /tmp/ccCuyS6K.s:522    .text._ZN5Riscv7w_stvecEm:0000000000000000 .L0 
     /tmp/ccCuyS6K.s:523    .text._ZN5Riscv7w_stvecEm:0000000000000004 .L0 
     /tmp/ccCuyS6K.s:525    .text._ZN5Riscv7w_stvecEm:0000000000000008 .L0 
     /tmp/ccCuyS6K.s:527    .text._ZN5Riscv7w_stvecEm:000000000000000c .L0 
     /tmp/ccCuyS6K.s:529    .text._ZN5Riscv7w_stvecEm:000000000000000c .L0 
  src/../h/Riscv.hpp:115    .text._ZN5Riscv7w_stvecEm:000000000000000c .L0 
     /tmp/ccCuyS6K.s:536    .text._ZN5Riscv7w_stvecEm:0000000000000010 .L0 
     /tmp/ccCuyS6K.s:537    .text._ZN5Riscv7w_stvecEm:0000000000000014 .L0 
     /tmp/ccCuyS6K.s:538    .text._ZN5Riscv7w_stvecEm:0000000000000014 .L0 
     /tmp/ccCuyS6K.s:540    .text._ZN5Riscv7w_stvecEm:0000000000000018 .L0 
     /tmp/ccCuyS6K.s:542    .text._ZN5Riscv7w_stvecEm:000000000000001c .L0 
     /tmp/ccCuyS6K.s:552    .text._ZN5Riscv10ms_sstatusEm:0000000000000000 .L0 
     /tmp/ccCuyS6K.s:554    .text._ZN5Riscv10ms_sstatusEm:0000000000000000 .L0 
     /tmp/ccCuyS6K.s:555    .text._ZN5Riscv10ms_sstatusEm:0000000000000004 .L0 
     /tmp/ccCuyS6K.s:557    .text._ZN5Riscv10ms_sstatusEm:0000000000000008 .L0 
     /tmp/ccCuyS6K.s:559    .text._ZN5Riscv10ms_sstatusEm:000000000000000c .L0 
     /tmp/ccCuyS6K.s:561    .text._ZN5Riscv10ms_sstatusEm:000000000000000c .L0 
  src/../h/Riscv.hpp:137    .text._ZN5Riscv10ms_sstatusEm:000000000000000c .L0 
     /tmp/ccCuyS6K.s:568    .text._ZN5Riscv10ms_sstatusEm:0000000000000010 .L0 
     /tmp/ccCuyS6K.s:569    .text._ZN5Riscv10ms_sstatusEm:0000000000000014 .L0 
     /tmp/ccCuyS6K.s:570    .text._ZN5Riscv10ms_sstatusEm:0000000000000014 .L0 
     /tmp/ccCuyS6K.s:572    .text._ZN5Riscv10ms_sstatusEm:0000000000000018 .L0 
     /tmp/ccCuyS6K.s:574    .text._ZN5Riscv10ms_sstatusEm:000000000000001c .L0 
     /tmp/ccCuyS6K.s:584    .text._ZN5Riscv10mc_sstatusEm:0000000000000000 .L0 
     /tmp/ccCuyS6K.s:586    .text._ZN5Riscv10mc_sstatusEm:0000000000000000 .L0 
     /tmp/ccCuyS6K.s:587    .text._ZN5Riscv10mc_sstatusEm:0000000000000004 .L0 
     /tmp/ccCuyS6K.s:589    .text._ZN5Riscv10mc_sstatusEm:0000000000000008 .L0 
     /tmp/ccCuyS6K.s:591    .text._ZN5Riscv10mc_sstatusEm:000000000000000c .L0 
     /tmp/ccCuyS6K.s:593    .text._ZN5Riscv10mc_sstatusEm:000000000000000c .L0 
  src/../h/Riscv.hpp:141    .text._ZN5Riscv10mc_sstatusEm:000000000000000c .L0 
     /tmp/ccCuyS6K.s:600    .text._ZN5Riscv10mc_sstatusEm:0000000000000010 .L0 
GAS LISTING /tmp/ccCuyS6K.s 			page 26


     /tmp/ccCuyS6K.s:601    .text._ZN5Riscv10mc_sstatusEm:0000000000000014 .L0 
     /tmp/ccCuyS6K.s:602    .text._ZN5Riscv10mc_sstatusEm:0000000000000014 .L0 
     /tmp/ccCuyS6K.s:604    .text._ZN5Riscv10mc_sstatusEm:0000000000000018 .L0 
     /tmp/ccCuyS6K.s:606    .text._ZN5Riscv10mc_sstatusEm:000000000000001c .L0 
     /tmp/ccCuyS6K.s:617    .text._ZN3TCB10isFinishedEv:0000000000000000 .L0 
     /tmp/ccCuyS6K.s:619    .text._ZN3TCB10isFinishedEv:0000000000000000 .L0 
     /tmp/ccCuyS6K.s:620    .text._ZN3TCB10isFinishedEv:0000000000000004 .L0 
     /tmp/ccCuyS6K.s:622    .text._ZN3TCB10isFinishedEv:0000000000000008 .L0 
     /tmp/ccCuyS6K.s:624    .text._ZN3TCB10isFinishedEv:000000000000000c .L0 
     /tmp/ccCuyS6K.s:626    .text._ZN3TCB10isFinishedEv:000000000000000c .L0 
     /tmp/ccCuyS6K.s:627    .text._ZN3TCB10isFinishedEv:000000000000000c .L0 
     /tmp/ccCuyS6K.s:630    .text._ZN3TCB10isFinishedEv:0000000000000014 .L0 
     /tmp/ccCuyS6K.s:631    .text._ZN3TCB10isFinishedEv:0000000000000014 .L0 
     /tmp/ccCuyS6K.s:633    .text._ZN3TCB10isFinishedEv:0000000000000018 .L0 
     /tmp/ccCuyS6K.s:635    .text._ZN3TCB10isFinishedEv:000000000000001c .L0 
     /tmp/ccCuyS6K.s:640    .rodata:0000000000000028 .LANCHOR0
     /tmp/ccCuyS6K.s:680    .text:0000000000000400 .L0 
     /tmp/ccCuyS6K.s:545    .text._ZN5Riscv7w_stvecEm:000000000000001c .L0 
     /tmp/ccCuyS6K.s:577    .text._ZN5Riscv10ms_sstatusEm:000000000000001c .L0 
     /tmp/ccCuyS6K.s:609    .text._ZN5Riscv10mc_sstatusEm:000000000000001c .L0 
     /tmp/ccCuyS6K.s:638    .text._ZN3TCB10isFinishedEv:000000000000001c .L0 
     /tmp/ccCuyS6K.s:37     .text:000000000000001c .L0 
     /tmp/ccCuyS6K.s:62     .text:0000000000000058 .L0 
     /tmp/ccCuyS6K.s:81     .text:000000000000008c .L0 
     /tmp/ccCuyS6K.s:90     .text:00000000000000a8 .L0 
     /tmp/ccCuyS6K.s:98     .text:00000000000000c4 .L0 
     /tmp/ccCuyS6K.s:8      .rodata:0000000000000000 .LC0
     /tmp/ccCuyS6K.s:151    .text:0000000000000140 .L0 
     /tmp/ccCuyS6K.s:11     .rodata:0000000000000010 .LC1
     /tmp/ccCuyS6K.s:161    .text:000000000000015c .L0 
     /tmp/ccCuyS6K.s:201    .text:0000000000000198 .L0 
     /tmp/ccCuyS6K.s:220    .text:00000000000001b4 .L0 
     /tmp/ccCuyS6K.s:225    .text:00000000000001c4 .L0 
     /tmp/ccCuyS6K.s:242    .text:00000000000001e8 .L0 
     /tmp/ccCuyS6K.s:252    .text:0000000000000204 .L0 
     /tmp/ccCuyS6K.s:276    .text:0000000000000234 .L0 
     /tmp/ccCuyS6K.s:317    .text:0000000000000274 .L0 
     /tmp/ccCuyS6K.s:347    .text:00000000000002a8 .L0 
     /tmp/ccCuyS6K.s:352    .text:00000000000002b8 .L0 
     /tmp/ccCuyS6K.s:362    .text:00000000000002d4 .L0 
     /tmp/ccCuyS6K.s:374    .text:00000000000002ec .L0 
     /tmp/ccCuyS6K.s:384    .text:0000000000000308 .L0 
     /tmp/ccCuyS6K.s:413    .text:0000000000000348 .L0 
     /tmp/ccCuyS6K.s:418    .text:0000000000000358 .L0 
     /tmp/ccCuyS6K.s:428    .text:0000000000000374 .L0 
     /tmp/ccCuyS6K.s:481    .text:00000000000003c4 .L0 
     /tmp/ccCuyS6K.s:132    .text:0000000000000124 .L2
     /tmp/ccCuyS6K.s:136    .text:000000000000012c .L3
     /tmp/ccCuyS6K.s:139    .text:0000000000000130 .L4
     /tmp/ccCuyS6K.s:148    .text:0000000000000140 .L5
     /tmp/ccCuyS6K.s:107    .text:00000000000000e4 .L6
     /tmp/ccCuyS6K.s:260    .text:0000000000000218 .L11
     /tmp/ccCuyS6K.s:272    .text:0000000000000234 .L9
     /tmp/ccCuyS6K.s:255    .text:0000000000000214 .L10
     /tmp/ccCuyS6K.s:239    .text:00000000000001e8 .L13
     /tmp/ccCuyS6K.s:396    .text:0000000000000328 .L17
     /tmp/ccCuyS6K.s:409    .text:0000000000000348 .L15
GAS LISTING /tmp/ccCuyS6K.s 			page 27


     /tmp/ccCuyS6K.s:392    .text:0000000000000324 .L16
     /tmp/ccCuyS6K.s:371    .text:00000000000002ec .L19
     /tmp/ccCuyS6K.s:492    .text:00000000000003e4 .L22
     /tmp/ccCuyS6K.s:473    .text:00000000000003b8 .L24
     /tmp/ccCuyS6K.s:2017   .debug_abbrev:0000000000000000 .Ldebug_abbrev0
     /tmp/ccCuyS6K.s:3251   .debug_str:00000000000005f4 .LASF124
     /tmp/ccCuyS6K.s:3149   .debug_str:0000000000000335 .LASF125
     /tmp/ccCuyS6K.s:3127   .debug_str:0000000000000290 .LASF126
     /tmp/ccCuyS6K.s:3009   .debug_ranges:0000000000000000 .Ldebug_ranges0
     /tmp/ccCuyS6K.s:3023   .debug_line:0000000000000000 .Ldebug_line0
     /tmp/ccCuyS6K.s:3177   .debug_str:00000000000003f0 .LASF0
     /tmp/ccCuyS6K.s:3191   .debug_str:0000000000000428 .LASF1
     /tmp/ccCuyS6K.s:3163   .debug_str:000000000000039e .LASF2
     /tmp/ccCuyS6K.s:3137   .debug_str:00000000000002fa .LASF4
     /tmp/ccCuyS6K.s:3231   .debug_str:0000000000000565 .LASF3
     /tmp/ccCuyS6K.s:3055   .debug_str:00000000000000a6 .LASF5
     /tmp/ccCuyS6K.s:3089   .debug_str:0000000000000175 .LASF6
     /tmp/ccCuyS6K.s:3195   .debug_str:000000000000045c .LASF7
     /tmp/ccCuyS6K.s:3175   .debug_str:00000000000003dd .LASF8
     /tmp/ccCuyS6K.s:3261   .debug_str:00000000000006f5 .LASF9
     /tmp/ccCuyS6K.s:3125   .debug_str:0000000000000282 .LASF10
     /tmp/ccCuyS6K.s:3207   .debug_str:00000000000004b8 .LASF11
     /tmp/ccCuyS6K.s:3253   .debug_str:00000000000006b8 .LASF12
     /tmp/ccCuyS6K.s:3059   .debug_str:00000000000000b9 .LASF13
     /tmp/ccCuyS6K.s:3033   .debug_str:0000000000000033 .LASF14
     /tmp/ccCuyS6K.s:3065   .debug_str:00000000000000d8 .LASF15
     /tmp/ccCuyS6K.s:3225   .debug_str:0000000000000531 .LASF16
     /tmp/ccCuyS6K.s:3081   .debug_str:0000000000000125 .LASF17
     /tmp/ccCuyS6K.s:3189   .debug_str:0000000000000422 .LASF56
     /tmp/ccCuyS6K.s:3085   .debug_str:000000000000014f .LASF127
     /tmp/ccCuyS6K.s:3077   .debug_str:000000000000010e .LASF18
     /tmp/ccCuyS6K.s:3151   .debug_str:0000000000000342 .LASF19
     /tmp/ccCuyS6K.s:3057   .debug_str:00000000000000ad .LASF20
     /tmp/ccCuyS6K.s:3223   .debug_str:0000000000000526 .LASF21
     /tmp/ccCuyS6K.s:3279   .debug_str:000000000000078a .LASF23
     /tmp/ccCuyS6K.s:3051   .debug_str:000000000000008c .LASF22
     /tmp/ccCuyS6K.s:3101   .debug_str:00000000000001c1 .LASF24
     /tmp/ccCuyS6K.s:3243   .debug_str:00000000000005bb .LASF25
     /tmp/ccCuyS6K.s:3031   .debug_str:0000000000000019 .LASF26
     /tmp/ccCuyS6K.s:3035   .debug_str:0000000000000043 .LASF27
     /tmp/ccCuyS6K.s:3241   .debug_str:00000000000005a6 .LASF29
     /tmp/ccCuyS6K.s:3099   .debug_str:00000000000001b8 .LASF31
     /tmp/ccCuyS6K.s:3097   .debug_str:00000000000001a3 .LASF33
     /tmp/ccCuyS6K.s:3233   .debug_str:0000000000000577 .LASF28
     /tmp/ccCuyS6K.s:3213   .debug_str:00000000000004e5 .LASF30
     /tmp/ccCuyS6K.s:3249   .debug_str:00000000000005ed .LASF32
     /tmp/ccCuyS6K.s:3245   .debug_str:00000000000005c8 .LASF34
     /tmp/ccCuyS6K.s:3113   .debug_str:0000000000000224 .LASF35
     /tmp/ccCuyS6K.s:3083   .debug_str:000000000000013b .LASF36
     /tmp/ccCuyS6K.s:3029   .debug_str:0000000000000011 .LASF37
     /tmp/ccCuyS6K.s:3131   .debug_str:00000000000002c4 .LASF38
     /tmp/ccCuyS6K.s:3179   .debug_str:00000000000003fd .LASF39
     /tmp/ccCuyS6K.s:3275   .debug_str:0000000000000755 .LASF40
     /tmp/ccCuyS6K.s:3047   .debug_str:0000000000000075 .LASF41
     /tmp/ccCuyS6K.s:3111   .debug_str:0000000000000211 .LASF42
     /tmp/ccCuyS6K.s:3121   .debug_str:0000000000000271 .LASF43
     /tmp/ccCuyS6K.s:3247   .debug_str:00000000000005db .LASF44
GAS LISTING /tmp/ccCuyS6K.s 			page 28


     /tmp/ccCuyS6K.s:3045   .debug_str:000000000000006f .LASF45
     /tmp/ccCuyS6K.s:3291   .debug_str:00000000000007f3 .LASF46
     /tmp/ccCuyS6K.s:3285   .debug_str:00000000000007c8 .LASF47
     /tmp/ccCuyS6K.s:3229   .debug_str:000000000000054d .LASF48
     /tmp/ccCuyS6K.s:3143   .debug_str:0000000000000315 .LASF49
     /tmp/ccCuyS6K.s:3153   .debug_str:000000000000034f .LASF50
     /tmp/ccCuyS6K.s:3063   .debug_str:00000000000000ce .LASF51
     /tmp/ccCuyS6K.s:3133   .debug_str:00000000000002d8 .LASF52
     /tmp/ccCuyS6K.s:3167   .debug_str:00000000000003b8 .LASF53
     /tmp/ccCuyS6K.s:3129   .debug_str:00000000000002ae .LASF54
     /tmp/ccCuyS6K.s:3067   .debug_str:00000000000000e4 .LASF91
     /tmp/ccCuyS6K.s:3287   .debug_str:00000000000007d3 .LASF93
     /tmp/ccCuyS6K.s:3025   .debug_str:0000000000000000 .LASF55
     /tmp/ccCuyS6K.s:3041   .debug_str:000000000000005c .LASF128
     /tmp/ccCuyS6K.s:3147   .debug_str:0000000000000328 .LASF57
     /tmp/ccCuyS6K.s:3277   .debug_str:0000000000000768 .LASF59
     /tmp/ccCuyS6K.s:3217   .debug_str:0000000000000509 .LASF129
     /tmp/ccCuyS6K.s:3197   .debug_str:000000000000046f .LASF61
     /tmp/ccCuyS6K.s:3155   .debug_str:0000000000000367 .LASF63
     /tmp/ccCuyS6K.s:3165   .debug_str:00000000000003ac .LASF58
     /tmp/ccCuyS6K.s:3087   .debug_str:000000000000015e .LASF60
     /tmp/ccCuyS6K.s:3039   .debug_str:0000000000000052 .LASF62
     /tmp/ccCuyS6K.s:3203   .debug_str:000000000000048c .LASF64
     /tmp/ccCuyS6K.s:3139   .debug_str:0000000000000301 .LASF65
     /tmp/ccCuyS6K.s:3257   .debug_str:00000000000006d2 .LASF66
     /tmp/ccCuyS6K.s:3159   .debug_str:0000000000000382 .LASF67
     /tmp/ccCuyS6K.s:3205   .debug_str:00000000000004a0 .LASF68
     /tmp/ccCuyS6K.s:3259   .debug_str:00000000000006e8 .LASF69
     /tmp/ccCuyS6K.s:3263   .debug_str:0000000000000705 .LASF70
     /tmp/ccCuyS6K.s:3123   .debug_str:0000000000000277 .LASF71
     /tmp/ccCuyS6K.s:3115   .debug_str:000000000000022c .LASF72
     /tmp/ccCuyS6K.s:3227   .debug_str:0000000000000547 .LASF73
     /tmp/ccCuyS6K.s:3169   .debug_str:00000000000003c2 .LASF74
     /tmp/ccCuyS6K.s:3181   .debug_str:0000000000000404 .LASF75
     /tmp/ccCuyS6K.s:3105   .debug_str:00000000000001e4 .LASF76
     /tmp/ccCuyS6K.s:3289   .debug_str:00000000000007eb .LASF77
     /tmp/ccCuyS6K.s:3235   .debug_str:000000000000057e .LASF78
     /tmp/ccCuyS6K.s:3103   .debug_str:00000000000001dc .LASF79
     /tmp/ccCuyS6K.s:3215   .debug_str:00000000000004f8 .LASF80
     /tmp/ccCuyS6K.s:3145   .debug_str:0000000000000320 .LASF81
     /tmp/ccCuyS6K.s:3161   .debug_str:000000000000038f .LASF82
     /tmp/ccCuyS6K.s:3183   .debug_str:000000000000040d .LASF83
     /tmp/ccCuyS6K.s:3185   .debug_str:0000000000000413 .LASF84
     /tmp/ccCuyS6K.s:3187   .debug_str:0000000000000418 .LASF85
     /tmp/ccCuyS6K.s:3141   .debug_str:000000000000030c .LASF86
     /tmp/ccCuyS6K.s:3027   .debug_str:0000000000000009 .LASF87
     /tmp/ccCuyS6K.s:3049   .debug_str:000000000000007c .LASF88
     /tmp/ccCuyS6K.s:3135   .debug_str:00000000000002ee .LASF89
     /tmp/ccCuyS6K.s:3201   .debug_str:000000000000047f .LASF90
     /tmp/ccCuyS6K.s:3281   .debug_str:00000000000007a2 .LASF130
     /tmp/ccCuyS6K.s:3267   .debug_str:0000000000000723 .LASF92
     /tmp/ccCuyS6K.s:3119   .debug_str:0000000000000249 .LASF94
     /tmp/ccCuyS6K.s:3271   .debug_str:000000000000073e .LASF95
     /tmp/ccCuyS6K.s:3053   .debug_str:000000000000009a .LASF96
     /tmp/ccCuyS6K.s:3239   .debug_str:0000000000000596 .LASF131
     /tmp/ccCuyS6K.s:3219   .debug_str:000000000000050e .LASF132
     /tmp/ccCuyS6K.s:3199   .debug_str:000000000000047a .LASF97
GAS LISTING /tmp/ccCuyS6K.s 			page 29


     /tmp/ccCuyS6K.s:3107   .debug_str:00000000000001f7 .LASF98
     /tmp/ccCuyS6K.s:3061   .debug_str:00000000000000c9 .LASF99
     /tmp/ccCuyS6K.s:18     .text:0000000000000000 .LFB29
     /tmp/ccCuyS6K.s:180    .text:0000000000000184 .LFE29
     /tmp/ccCuyS6K.s:3273   .debug_str:000000000000074b .LASF100
     /tmp/ccCuyS6K.s:3073   .debug_str:0000000000000104 .LASF101
     /tmp/ccCuyS6K.s:3075   .debug_str:0000000000000109 .LASF102
     /tmp/ccCuyS6K.s:3171   .debug_str:00000000000003d2 .LASF103
     /tmp/ccCuyS6K.s:2898   .debug_loc:0000000000000000 .LLST0
     /tmp/ccCuyS6K.s:34     .text:000000000000001c .LVL0
     /tmp/ccCuyS6K.s:40     .text:0000000000000030 .LVL1
     /tmp/ccCuyS6K.s:58     .text:0000000000000054 .LVL2
     /tmp/ccCuyS6K.s:68     .text:0000000000000070 .LVL3
     /tmp/ccCuyS6K.s:85     .text:00000000000000a0 .LVL6
     /tmp/ccCuyS6K.s:93     .text:00000000000000bc .LVL7
     /tmp/ccCuyS6K.s:101    .text:00000000000000d8 .LVL8
     /tmp/ccCuyS6K.s:106    .text:00000000000000e4 .LVL9
     /tmp/ccCuyS6K.s:114    .text:00000000000000f4 .LVL10
     /tmp/ccCuyS6K.s:125    .text:0000000000000114 .LVL11
     /tmp/ccCuyS6K.s:145    .text:000000000000013c .LVL12
     /tmp/ccCuyS6K.s:153    .text:0000000000000150 .LVL13
     /tmp/ccCuyS6K.s:158    .text:000000000000015c .LVL14
     /tmp/ccCuyS6K.s:163    .text:000000000000016c .LVL15
     /tmp/ccCuyS6K.s:3237   .debug_str:0000000000000590 .LASF104
     /tmp/ccCuyS6K.s:3221   .debug_str:000000000000051b .LASF105
     /tmp/ccCuyS6K.s:453    .text:000000000000039c .LFB28
     /tmp/ccCuyS6K.s:510    .text:0000000000000400 .LFE28
     /tmp/ccCuyS6K.s:468    .text:00000000000003b0 .LBB4
     /tmp/ccCuyS6K.s:496    .text:00000000000003ec .LBE4
     /tmp/ccCuyS6K.s:2920   .debug_loc:000000000000005f .LLST4
     /tmp/ccCuyS6K.s:478    .text:00000000000003c4 .LVL51
     /tmp/ccCuyS6K.s:483    .text:00000000000003d4 .LVL52
     /tmp/ccCuyS6K.s:488    .text:00000000000003e0 .LVL53
     /tmp/ccCuyS6K.s:3093   .debug_str:000000000000018f .LASF106
     /tmp/ccCuyS6K.s:3255   .debug_str:00000000000006c7 .LASF107
     /tmp/ccCuyS6K.s:298    .text:0000000000000258 .LFB27
     /tmp/ccCuyS6K.s:447    .text:000000000000039c .LFE27
     /tmp/ccCuyS6K.s:3117   .debug_str:0000000000000244 .LASF110
     /tmp/ccCuyS6K.s:2932   .debug_loc:0000000000000096 .LLST2
     /tmp/ccCuyS6K.s:366    .text:00000000000002e4 .LBB3
     /tmp/ccCuyS6K.s:410    .text:0000000000000348 .LBE3
     /tmp/ccCuyS6K.s:2950   .debug_loc:00000000000000e2 .LLST3
     /tmp/ccCuyS6K.s:376    .text:00000000000002fc .LVL38
     /tmp/ccCuyS6K.s:381    .text:0000000000000308 .LVL39
     /tmp/ccCuyS6K.s:386    .text:0000000000000318 .LVL40
     /tmp/ccCuyS6K.s:391    .text:0000000000000324 .LVL41
     /tmp/ccCuyS6K.s:320    .text:0000000000000284 .LVL31
     /tmp/ccCuyS6K.s:325    .text:0000000000000290 .LVL32
     /tmp/ccCuyS6K.s:349    .text:00000000000002b8 .LVL33
     /tmp/ccCuyS6K.s:354    .text:00000000000002c8 .LVL34
     /tmp/ccCuyS6K.s:359    .text:00000000000002d4 .LVL35
     /tmp/ccCuyS6K.s:364    .text:00000000000002e4 .LVL36
     /tmp/ccCuyS6K.s:415    .text:0000000000000358 .LVL43
     /tmp/ccCuyS6K.s:420    .text:0000000000000368 .LVL44
     /tmp/ccCuyS6K.s:425    .text:0000000000000374 .LVL45
     /tmp/ccCuyS6K.s:430    .text:0000000000000384 .LVL46
     /tmp/ccCuyS6K.s:3265   .debug_str:000000000000071d .LASF108
GAS LISTING /tmp/ccCuyS6K.s 			page 30


     /tmp/ccCuyS6K.s:3079   .debug_str:000000000000011a .LASF109
     /tmp/ccCuyS6K.s:186    .text:0000000000000184 .LFB26
     /tmp/ccCuyS6K.s:292    .text:0000000000000258 .LFE26
     /tmp/ccCuyS6K.s:234    .text:00000000000001e0 .LBB2
     /tmp/ccCuyS6K.s:273    .text:0000000000000234 .LBE2
     /tmp/ccCuyS6K.s:2962   .debug_loc:0000000000000119 .LLST1
     /tmp/ccCuyS6K.s:244    .text:00000000000001f8 .LVL23
     /tmp/ccCuyS6K.s:249    .text:0000000000000204 .LVL24
     /tmp/ccCuyS6K.s:254    .text:0000000000000214 .LVL25
     /tmp/ccCuyS6K.s:203    .text:00000000000001a8 .LVL18
     /tmp/ccCuyS6K.s:222    .text:00000000000001c4 .LVL19
     /tmp/ccCuyS6K.s:227    .text:00000000000001d4 .LVL20
     /tmp/ccCuyS6K.s:232    .text:00000000000001e0 .LVL21
     /tmp/ccCuyS6K.s:278    .text:0000000000000244 .LVL27
     /tmp/ccCuyS6K.s:614    .text._ZN3TCB10isFinishedEv:0000000000000000 .LFB17
     /tmp/ccCuyS6K.s:636    .text._ZN3TCB10isFinishedEv:000000000000001c .LFE17
     /tmp/ccCuyS6K.s:3157   .debug_str:000000000000037d .LASF133
     /tmp/ccCuyS6K.s:2974   .debug_loc:0000000000000150 .LLST5
     /tmp/ccCuyS6K.s:582    .text._ZN5Riscv10mc_sstatusEm:0000000000000000 .LFB11
     /tmp/ccCuyS6K.s:607    .text._ZN5Riscv10mc_sstatusEm:000000000000001c .LFE11
     /tmp/ccCuyS6K.s:3069   .debug_str:00000000000000ef .LASF111
     /tmp/ccCuyS6K.s:550    .text._ZN5Riscv10ms_sstatusEm:0000000000000000 .LFB10
     /tmp/ccCuyS6K.s:575    .text._ZN5Riscv10ms_sstatusEm:000000000000001c .LFE10
     /tmp/ccCuyS6K.s:517    .text._ZN5Riscv7w_stvecEm:0000000000000000 .LFB5
     /tmp/ccCuyS6K.s:543    .text._ZN5Riscv7w_stvecEm:000000000000001c .LFE5
     /tmp/ccCuyS6K.s:3173   .debug_str:00000000000003d7 .LASF112
     /tmp/ccCuyS6K.s:3193   .debug_str:000000000000043b .LASF113
     /tmp/ccCuyS6K.s:3095   .debug_str:0000000000000195 .LASF115
     /tmp/ccCuyS6K.s:3037   .debug_str:000000000000004c .LASF114
     /tmp/ccCuyS6K.s:3109   .debug_str:00000000000001fc .LASF116
     /tmp/ccCuyS6K.s:3071   .debug_str:00000000000000f4 .LASF117
     /tmp/ccCuyS6K.s:3091   .debug_str:000000000000017c .LASF118
     /tmp/ccCuyS6K.s:3209   .debug_str:00000000000004c7 .LASF119
     /tmp/ccCuyS6K.s:3211   .debug_str:00000000000004d3 .LASF120
     /tmp/ccCuyS6K.s:3269   .debug_str:0000000000000731 .LASF121
     /tmp/ccCuyS6K.s:3283   .debug_str:00000000000007b8 .LASF122
     /tmp/ccCuyS6K.s:3043   .debug_str:0000000000000064 .LASF123
     /tmp/ccCuyS6K.s:71     .text:0000000000000078 .LVL4
     /tmp/ccCuyS6K.s:83     .text:0000000000000098 .LVL5
     /tmp/ccCuyS6K.s:174    .text:000000000000017c .LVL16
     /tmp/ccCuyS6K.s:177    .text:0000000000000180 .LVL17
     /tmp/ccCuyS6K.s:467    .text:00000000000003b0 .LVL49
     /tmp/ccCuyS6K.s:472    .text:00000000000003b8 .LVL50
     /tmp/ccCuyS6K.s:505    .text:00000000000003f8 .LVL55
     /tmp/ccCuyS6K.s:301    .text:0000000000000258 .LVL29
     /tmp/ccCuyS6K.s:318    .text:000000000000027c .LVL30
     /tmp/ccCuyS6K.s:442    .text:0000000000000394 .LVL48
     /tmp/ccCuyS6K.s:370    .text:00000000000002ec .LVL37
     /tmp/ccCuyS6K.s:439    .text:0000000000000390 .LVL47
     /tmp/ccCuyS6K.s:238    .text:00000000000001e8 .LVL22
     /tmp/ccCuyS6K.s:287    .text:0000000000000250 .LVL28
     /tmp/ccCuyS6K.s:618    .text._ZN3TCB10isFinishedEv:0000000000000000 .LVL59
     /tmp/ccCuyS6K.s:628    .text._ZN3TCB10isFinishedEv:0000000000000010 .LVL60
     /tmp/ccCuyS6K.s:681    .debug_info:0000000000000000 .Ldebug_info0
     /tmp/ccCuyS6K.s:5      .text:0000000000000000 .Ltext0
     /tmp/ccCuyS6K.s:675    .text:0000000000000400 .Letext0

GAS LISTING /tmp/ccCuyS6K.s 			page 31


UNDEFINED SYMBOLS
interruptHandler
_Z13thread_createPP3TCBPFvPvES2_
_ZN3TCB7runningE
_Znwm
_Z15thread_dispatchv
_Z11printStringPKc
_Z12printIntegerm
_Z10time_sleepm
