GAS LISTING /tmp/ccrRIQ4i.s 			page 1


   1              		.file	"MemoryAllocator.cpp"
   2              		.option pic
   3              		.option norelax
   4              		.text
   5              	.Ltext0:
   6              		.align	2
   7              		.globl	_ZN15MemoryAllocator7kmallocEmNS_7PurposeE
   9              	_ZN15MemoryAllocator7kmallocEmNS_7PurposeE:
  10              	.LFB18:
  11              		.file 1 "src/MemoryAllocator.cpp"
   1:src/MemoryAllocator.cpp **** //
   2:src/MemoryAllocator.cpp **** // Created by os on 5/12/23.
   3:src/MemoryAllocator.cpp **** //
   4:src/MemoryAllocator.cpp **** 
   5:src/MemoryAllocator.cpp **** #include "../h/MemoryAllocator.hpp"
   6:src/MemoryAllocator.cpp **** #include "../h/helper.hpp"
   7:src/MemoryAllocator.cpp **** #include "../h/Riscv.hpp"
   8:src/MemoryAllocator.cpp **** #include "../test/printing.hpp"
   9:src/MemoryAllocator.cpp **** 
  10:src/MemoryAllocator.cpp **** bool MemoryAllocator::initialized = false;
  11:src/MemoryAllocator.cpp **** MemoryAllocator::FreeMemSegment* MemoryAllocator::freeMemHead = nullptr;
  12:src/MemoryAllocator.cpp **** MemoryAllocator::UsedMemSegment* MemoryAllocator::usedMemHead = nullptr;
  13:src/MemoryAllocator.cpp **** 
  14:src/MemoryAllocator.cpp **** #pragma GCC optimize("O0")
  15:src/MemoryAllocator.cpp **** 
  16:src/MemoryAllocator.cpp **** void* MemoryAllocator::kmalloc(size_t size, Purpose pur) {
  12              		.loc 1 16 58
  13              		.cfi_startproc
  14              	.LVL0:
  15 0000 130101FA 		addi	sp,sp,-96
  16              		.cfi_def_cfa_offset 96
  17 0004 233C8104 		sd	s0,88(sp)
  18              		.cfi_offset 8, -8
  19 0008 13040106 		addi	s0,sp,96
  20              		.cfi_def_cfa 8, 0
  21 000c 2334A4FA 		sd	a0,-88(s0)
  22 0010 93870500 		mv	a5,a1
  23 0014 2322F4FA 		sw	a5,-92(s0)
  17:src/MemoryAllocator.cpp ****     //size je u broju bajtova, ukljucuje i mesto potrebno za zaglavlje UsedMemSegment
  18:src/MemoryAllocator.cpp ****     if (size <= 0) return nullptr;
  24              		.loc 1 18 5
  25 0018 833784FA 		ld	a5,-88(s0)
  26 001c 63960700 		bnez	a5,.L2
  27              		.loc 1 18 20 discriminator 1
  28              		.loc 1 18 27 is_stmt 0 discriminator 1
  29 0020 93070000 		li	a5,0
  30 0024 6F004027 		j	.L3
  31              	.L2:
  19:src/MemoryAllocator.cpp **** //    uint64 status = Riscv::r_sstatus();
  20:src/MemoryAllocator.cpp **** //    uint64 greska = status & Riscv::SSTATUS_SIE;
  21:src/MemoryAllocator.cpp **** //    if(greska>0) {
  22:src/MemoryAllocator.cpp **** //        printString("Greska");
  23:src/MemoryAllocator.cpp **** //    }
  24:src/MemoryAllocator.cpp **** 
  25:src/MemoryAllocator.cpp ****     //alokacija uvek zaokruzena na blokove
  26:src/MemoryAllocator.cpp ****     //size += sizeof(UsedMemSegment); ;prebaceno u mem_alloc
  27:src/MemoryAllocator.cpp ****     size_t blocks = size / MEM_BLOCK_SIZE + (size % MEM_BLOCK_SIZE ? 1 : 0);
GAS LISTING /tmp/ccrRIQ4i.s 			page 2


  32              		.loc 1 27 5 is_stmt 1
  33              		.loc 1 27 26 is_stmt 0
  34 0028 833784FA 		ld	a5,-88(s0)
  35 002c 13D76700 		srli	a4,a5,6
  36              		.loc 1 27 51
  37 0030 833784FA 		ld	a5,-88(s0)
  38 0034 93F7F703 		andi	a5,a5,63
  39              		.loc 1 27 68
  40 0038 63860700 		beqz	a5,.L4
  41              		.loc 1 27 68 discriminator 1
  42 003c 93071000 		li	a5,1
  43 0040 6F008000 		j	.L5
  44              	.L4:
  45              		.loc 1 27 68 discriminator 2
  46 0044 93070000 		li	a5,0
  47              	.L5:
  48              		.loc 1 27 12 discriminator 4
  49 0048 B387E700 		add	a5,a5,a4
  50 004c 2338F4FC 		sd	a5,-48(s0)
  51              	.LVL1:
  28:src/MemoryAllocator.cpp ****     size = blocks * MEM_BLOCK_SIZE;
  52              		.loc 1 28 5 is_stmt 1 discriminator 4
  53              		.loc 1 28 10 is_stmt 0 discriminator 4
  54 0050 833704FD 		ld	a5,-48(s0)
  55 0054 93976700 		slli	a5,a5,6
  56              	.LVL2:
  57 0058 2334F4FA 		sd	a5,-88(s0)
  58              	.LVL3:
  29:src/MemoryAllocator.cpp **** 
  30:src/MemoryAllocator.cpp ****     //trazenje slobodnog segmenta po first-fit algoritmu
  31:src/MemoryAllocator.cpp ****     for (FreeMemSegment* current = freeMemHead; current; current = current->next) {
  59              		.loc 1 31 5 is_stmt 1 discriminator 4
  60              	.LBB2:
  61              		.loc 1 31 26 is_stmt 0 discriminator 4
  62 005c 97070000 		lla	a5,_ZN15MemoryAllocator11freeMemHeadE
  62      93870700 
  63              	.LVL4:
  64 0064 83B70700 		ld	a5,0(a5)
  65 0068 2334F4FE 		sd	a5,-24(s0)
  66              	.LVL5:
  67              	.L19:
  68              		.loc 1 31 49 is_stmt 1 discriminator 1
  69 006c 833784FE 		ld	a5,-24(s0)
  70 0070 63820722 		beqz	a5,.L6
  71              	.LBB3:
  32:src/MemoryAllocator.cpp ****         if (current->size < size) continue;
  72              		.loc 1 32 9
  73              		.loc 1 32 22 is_stmt 0
  74 0074 833784FE 		ld	a5,-24(s0)
  75 0078 83B70701 		ld	a5,16(a5)
  76              		.loc 1 32 9
  77 007c 033784FA 		ld	a4,-88(s0)
  78 0080 63E0E720 		bgtu	a4,a5,.L21
  33:src/MemoryAllocator.cpp **** 
  34:src/MemoryAllocator.cpp ****         //pravljenje novog slobodnog fragmenta od ostatka fragmenta
  35:src/MemoryAllocator.cpp ****         FreeMemSegment* remainderFree = (FreeMemSegment*) ((char*) current + size);
  79              		.loc 1 35 9 is_stmt 1
GAS LISTING /tmp/ccrRIQ4i.s 			page 3


  80              		.loc 1 35 25 is_stmt 0
  81 0084 033784FE 		ld	a4,-24(s0)
  82 0088 833784FA 		ld	a5,-88(s0)
  83 008c B307F700 		add	a5,a4,a5
  84 0090 2334F4FC 		sd	a5,-56(s0)
  85              	.LVL6:
  36:src/MemoryAllocator.cpp ****         size_t remainingSize = current->size - size;
  86              		.loc 1 36 9 is_stmt 1
  87              		.loc 1 36 41 is_stmt 0
  88 0094 833784FE 		ld	a5,-24(s0)
  89              	.LVL7:
  90 0098 03B70701 		ld	a4,16(a5)
  91              		.loc 1 36 16
  92 009c 833784FA 		ld	a5,-88(s0)
  93 00a0 B307F740 		sub	a5,a4,a5
  94 00a4 2330F4FC 		sd	a5,-64(s0)
  95              	.LVL8:
  37:src/MemoryAllocator.cpp ****         if (remainingSize <= sizeof(UsedMemSegment)) {
  96              		.loc 1 37 9 is_stmt 1
  97 00a8 033704FC 		ld	a4,-64(s0)
  98 00ac 93070002 		li	a5,32
  99              	.LVL9:
 100 00b0 63E0E708 		bgtu	a4,a5,.L9
  38:src/MemoryAllocator.cpp ****             //ne preostaje dovoljno veliki slobodni segment;dodeljujemo ceo trenutno alociranom
  39:src/MemoryAllocator.cpp ****             size += remainingSize;
 101              		.loc 1 39 13
 102              		.loc 1 39 18 is_stmt 0
 103 00b4 033784FA 		ld	a4,-88(s0)
 104              	.LVL10:
 105 00b8 833704FC 		ld	a5,-64(s0)
 106 00bc B307F700 		add	a5,a4,a5
 107 00c0 2334F4FA 		sd	a5,-88(s0)
 108              	.LVL11:
  40:src/MemoryAllocator.cpp ****             if (current->prev) current->prev->next = current->next;
 109              		.loc 1 40 13 is_stmt 1
 110              		.loc 1 40 26 is_stmt 0
 111 00c4 833784FE 		ld	a5,-24(s0)
 112              	.LVL12:
 113 00c8 83B78700 		ld	a5,8(a5)
 114              		.loc 1 40 13
 115 00cc 638C0700 		beqz	a5,.L10
 116              		.loc 1 40 32 is_stmt 1 discriminator 1
 117              		.loc 1 40 41 is_stmt 0 discriminator 1
 118 00d0 833784FE 		ld	a5,-24(s0)
 119 00d4 83B78700 		ld	a5,8(a5)
 120              		.loc 1 40 63 discriminator 1
 121 00d8 033784FE 		ld	a4,-24(s0)
 122 00dc 03370700 		ld	a4,0(a4)
 123              		.loc 1 40 52 discriminator 1
 124 00e0 23B0E700 		sd	a4,0(a5)
 125              	.L10:
  41:src/MemoryAllocator.cpp ****             if (current->next) current->next->prev = current->prev;
 126              		.loc 1 41 13 is_stmt 1
 127              		.loc 1 41 26 is_stmt 0
 128 00e4 833784FE 		ld	a5,-24(s0)
 129 00e8 83B70700 		ld	a5,0(a5)
 130              		.loc 1 41 13
GAS LISTING /tmp/ccrRIQ4i.s 			page 4


 131 00ec 638C0700 		beqz	a5,.L11
 132              		.loc 1 41 32 is_stmt 1 discriminator 1
 133              		.loc 1 41 41 is_stmt 0 discriminator 1
 134 00f0 833784FE 		ld	a5,-24(s0)
 135 00f4 83B70700 		ld	a5,0(a5)
 136              		.loc 1 41 63 discriminator 1
 137 00f8 033784FE 		ld	a4,-24(s0)
 138 00fc 03378700 		ld	a4,8(a4)
 139              		.loc 1 41 52 discriminator 1
 140 0100 23B4E700 		sd	a4,8(a5)
 141              	.L11:
  42:src/MemoryAllocator.cpp ****             if (freeMemHead == current) { freeMemHead = current->next; }
 142              		.loc 1 42 13 is_stmt 1
 143              		.loc 1 42 29 is_stmt 0
 144 0104 97070000 		lla	a5,_ZN15MemoryAllocator11freeMemHeadE
 144      93870700 
 145 010c 83B70700 		ld	a5,0(a5)
 146              		.loc 1 42 13
 147 0110 033784FE 		ld	a4,-24(s0)
 148 0114 6312F70A 		bne	a4,a5,.L12
 149              		.loc 1 42 43 is_stmt 1 discriminator 1
 150              		.loc 1 42 66 is_stmt 0 discriminator 1
 151 0118 833784FE 		ld	a5,-24(s0)
 152 011c 03B70700 		ld	a4,0(a5)
 153              		.loc 1 42 55 discriminator 1
 154 0120 97070000 		lla	a5,_ZN15MemoryAllocator11freeMemHeadE
 154      93870700 
 155 0128 23B0E700 		sd	a4,0(a5)
 156 012c 6F00C008 		j	.L12
 157              	.LVL13:
 158              	.L9:
  43:src/MemoryAllocator.cpp ****         } else {
  44:src/MemoryAllocator.cpp ****             remainderFree->size = remainingSize;
 159              		.loc 1 44 13 is_stmt 1
 160              		.loc 1 44 33 is_stmt 0
 161 0130 833784FC 		ld	a5,-56(s0)
 162 0134 033704FC 		ld	a4,-64(s0)
 163              	.LVL14:
 164 0138 23B8E700 		sd	a4,16(a5)
  45:src/MemoryAllocator.cpp ****             remainderFree->prev = current->prev;
 165              		.loc 1 45 13 is_stmt 1
 166              		.loc 1 45 44 is_stmt 0
 167 013c 833784FE 		ld	a5,-24(s0)
 168 0140 03B78700 		ld	a4,8(a5)
 169              		.loc 1 45 33
 170 0144 833784FC 		ld	a5,-56(s0)
 171 0148 23B4E700 		sd	a4,8(a5)
  46:src/MemoryAllocator.cpp ****             if (current->prev) current->prev->next = remainderFree;
 172              		.loc 1 46 13 is_stmt 1
 173              		.loc 1 46 26 is_stmt 0
 174 014c 833784FE 		ld	a5,-24(s0)
 175 0150 83B78700 		ld	a5,8(a5)
 176              		.loc 1 46 13
 177 0154 638A0700 		beqz	a5,.L13
 178              		.loc 1 46 32 is_stmt 1 discriminator 1
 179              		.loc 1 46 41 is_stmt 0 discriminator 1
 180 0158 833784FE 		ld	a5,-24(s0)
GAS LISTING /tmp/ccrRIQ4i.s 			page 5


 181 015c 83B78700 		ld	a5,8(a5)
 182              		.loc 1 46 52 discriminator 1
 183 0160 033784FC 		ld	a4,-56(s0)
 184 0164 23B0E700 		sd	a4,0(a5)
 185              	.L13:
  47:src/MemoryAllocator.cpp ****             remainderFree->next = current->next;
 186              		.loc 1 47 13 is_stmt 1
 187              		.loc 1 47 44 is_stmt 0
 188 0168 833784FE 		ld	a5,-24(s0)
 189 016c 03B70700 		ld	a4,0(a5)
 190              		.loc 1 47 33
 191 0170 833784FC 		ld	a5,-56(s0)
 192 0174 23B0E700 		sd	a4,0(a5)
  48:src/MemoryAllocator.cpp ****             if (current->next) current->next->prev = remainderFree;
 193              		.loc 1 48 13 is_stmt 1
 194              		.loc 1 48 26 is_stmt 0
 195 0178 833784FE 		ld	a5,-24(s0)
 196 017c 83B70700 		ld	a5,0(a5)
 197              		.loc 1 48 13
 198 0180 638A0700 		beqz	a5,.L14
 199              		.loc 1 48 32 is_stmt 1 discriminator 1
 200              		.loc 1 48 41 is_stmt 0 discriminator 1
 201 0184 833784FE 		ld	a5,-24(s0)
 202 0188 83B70700 		ld	a5,0(a5)
 203              		.loc 1 48 52 discriminator 1
 204 018c 033784FC 		ld	a4,-56(s0)
 205 0190 23B4E700 		sd	a4,8(a5)
 206              	.L14:
  49:src/MemoryAllocator.cpp ****             if (freeMemHead == current) { freeMemHead = remainderFree; }
 207              		.loc 1 49 13 is_stmt 1
 208              		.loc 1 49 29 is_stmt 0
 209 0194 97070000 		lla	a5,_ZN15MemoryAllocator11freeMemHeadE
 209      93870700 
 210 019c 83B70700 		ld	a5,0(a5)
 211              		.loc 1 49 13
 212 01a0 033784FE 		ld	a4,-24(s0)
 213 01a4 631AF700 		bne	a4,a5,.L12
 214              		.loc 1 49 43 is_stmt 1 discriminator 1
 215              		.loc 1 49 55 is_stmt 0 discriminator 1
 216 01a8 97070000 		lla	a5,_ZN15MemoryAllocator11freeMemHeadE
 216      93870700 
 217 01b0 033784FC 		ld	a4,-56(s0)
 218 01b4 23B0E700 		sd	a4,0(a5)
 219              	.L12:
  50:src/MemoryAllocator.cpp ****         }
  51:src/MemoryAllocator.cpp ****         //ubacivanje novog fragmenta u listu zauzetih fragmenata
  52:src/MemoryAllocator.cpp ****         UsedMemSegment* newFragment = (UsedMemSegment*) current;
 220              		.loc 1 52 9 is_stmt 1
 221              		.loc 1 52 25 is_stmt 0
 222 01b8 833784FE 		ld	a5,-24(s0)
 223 01bc 233CF4FA 		sd	a5,-72(s0)
 224              	.LVL15:
  53:src/MemoryAllocator.cpp ****         newFragment->size = size;
 225              		.loc 1 53 9 is_stmt 1
 226              		.loc 1 53 27 is_stmt 0
 227 01c0 833784FB 		ld	a5,-72(s0)
 228 01c4 033784FA 		ld	a4,-88(s0)
GAS LISTING /tmp/ccrRIQ4i.s 			page 6


 229 01c8 23B4E700 		sd	a4,8(a5)
  54:src/MemoryAllocator.cpp ****         newFragment->purpose = pur;
 230              		.loc 1 54 9 is_stmt 1
 231              		.loc 1 54 30 is_stmt 0
 232 01cc 833784FB 		ld	a5,-72(s0)
 233 01d0 032744FA 		lw	a4,-92(s0)
 234 01d4 23A8E700 		sw	a4,16(a5)
  55:src/MemoryAllocator.cpp ****         newFragment->usableFirstAddress = (char*) newFragment + sizeof(UsedMemSegment);
 235              		.loc 1 55 9 is_stmt 1
 236              		.loc 1 55 63 is_stmt 0
 237 01d8 833784FB 		ld	a5,-72(s0)
 238 01dc 13870702 		addi	a4,a5,32
 239              		.loc 1 55 41
 240 01e0 833784FB 		ld	a5,-72(s0)
 241 01e4 23BCE700 		sd	a4,24(a5)
  56:src/MemoryAllocator.cpp ****         UsedMemSegment* prevUsed = nullptr;
 242              		.loc 1 56 9 is_stmt 1
 243              		.loc 1 56 25 is_stmt 0
 244 01e8 233004FE 		sd	zero,-32(s0)
 245              	.LVL16:
  57:src/MemoryAllocator.cpp ****         for (UsedMemSegment* cur = usedMemHead;
 246              		.loc 1 57 9 is_stmt 1
 247              	.LBB4:
 248              		.loc 1 57 30 is_stmt 0
 249 01ec 97070000 		lla	a5,_ZN15MemoryAllocator11usedMemHeadE
 249      93870700 
 250              	.LVL17:
 251 01f4 83B70700 		ld	a5,0(a5)
 252 01f8 233CF4FC 		sd	a5,-40(s0)
 253              	.LVL18:
 254              	.L16:
  58:src/MemoryAllocator.cpp ****              cur && ((char*) cur < (char*) newFragment); cur = cur->next) {
 255              		.loc 1 58 18 is_stmt 1 discriminator 3
 256 01fc 833784FD 		ld	a5,-40(s0)
 257 0200 63840702 		beqz	a5,.L15
 258              		.loc 1 58 18 is_stmt 0 discriminator 1
 259 0204 033784FD 		ld	a4,-40(s0)
 260 0208 833784FB 		ld	a5,-72(s0)
 261 020c 637EF700 		bgeu	a4,a5,.L15
  59:src/MemoryAllocator.cpp ****             prevUsed = cur;
 262              		.loc 1 59 13 is_stmt 1 discriminator 2
 263              		.loc 1 59 22 is_stmt 0 discriminator 2
 264 0210 833784FD 		ld	a5,-40(s0)
 265 0214 2330F4FE 		sd	a5,-32(s0)
 266              	.LVL19:
  57:src/MemoryAllocator.cpp ****         for (UsedMemSegment* cur = usedMemHead;
 267              		.loc 1 57 9 is_stmt 1 discriminator 2
  58:src/MemoryAllocator.cpp ****              cur && ((char*) cur < (char*) newFragment); cur = cur->next) {
 268              		.loc 1 58 62 is_stmt 0 discriminator 2
 269 0218 833784FD 		ld	a5,-40(s0)
 270 021c 83B70700 		ld	a5,0(a5)
 271 0220 233CF4FC 		sd	a5,-40(s0)
 272              	.LVL20:
  57:src/MemoryAllocator.cpp ****         for (UsedMemSegment* cur = usedMemHead;
 273              		.loc 1 57 9 discriminator 2
 274 0224 6FF09FFD 		j	.L16
 275              	.LVL21:
GAS LISTING /tmp/ccrRIQ4i.s 			page 7


 276              	.L15:
 277              	.LBE4:
  60:src/MemoryAllocator.cpp ****         }
  61:src/MemoryAllocator.cpp ****         if (!prevUsed) {
 278              		.loc 1 61 9 is_stmt 1
 279 0228 833704FE 		ld	a5,-32(s0)
 280 022c 63960702 		bnez	a5,.L17
  62:src/MemoryAllocator.cpp ****             newFragment->next = usedMemHead;
 281              		.loc 1 62 13
 282              		.loc 1 62 31 is_stmt 0
 283 0230 97070000 		lla	a5,_ZN15MemoryAllocator11usedMemHeadE
 283      93870700 
 284 0238 03B70700 		ld	a4,0(a5)
 285 023c 833784FB 		ld	a5,-72(s0)
 286 0240 23B0E700 		sd	a4,0(a5)
  63:src/MemoryAllocator.cpp ****             usedMemHead = newFragment;
 287              		.loc 1 63 13 is_stmt 1
 288              		.loc 1 63 25 is_stmt 0
 289 0244 97070000 		lla	a5,_ZN15MemoryAllocator11usedMemHeadE
 289      93870700 
 290 024c 033784FB 		ld	a4,-72(s0)
 291 0250 23B0E700 		sd	a4,0(a5)
 292 0254 6F000002 		j	.L18
 293              	.L17:
  64:src/MemoryAllocator.cpp ****         } else {
  65:src/MemoryAllocator.cpp ****             newFragment->next = prevUsed->next;
 294              		.loc 1 65 13 is_stmt 1
 295              		.loc 1 65 43 is_stmt 0
 296 0258 833704FE 		ld	a5,-32(s0)
 297 025c 03B70700 		ld	a4,0(a5)
 298              		.loc 1 65 31
 299 0260 833784FB 		ld	a5,-72(s0)
 300 0264 23B0E700 		sd	a4,0(a5)
  66:src/MemoryAllocator.cpp ****             prevUsed->next = newFragment;
 301              		.loc 1 66 13 is_stmt 1
 302              		.loc 1 66 28 is_stmt 0
 303 0268 833704FE 		ld	a5,-32(s0)
 304 026c 033784FB 		ld	a4,-72(s0)
 305 0270 23B0E700 		sd	a4,0(a5)
 306              	.L18:
  67:src/MemoryAllocator.cpp ****         }
  68:src/MemoryAllocator.cpp ****         //return (char*)newFragment + sizeof(UsedMemSegment);
  69:src/MemoryAllocator.cpp ****         return newFragment->usableFirstAddress;
 307              		.loc 1 69 9 is_stmt 1
 308              		.loc 1 69 29 is_stmt 0
 309 0274 833784FB 		ld	a5,-72(s0)
 310 0278 83B78701 		ld	a5,24(a5)
 311 027c 6F00C001 		j	.L3
 312              	.LVL22:
 313              	.L21:
  32:src/MemoryAllocator.cpp **** 
 314              		.loc 1 32 35
 315 0280 13000000 		nop
 316              	.LBE3:
  31:src/MemoryAllocator.cpp ****         if (current->size < size) continue;
 317              		.loc 1 31 5 is_stmt 1
  31:src/MemoryAllocator.cpp ****         if (current->size < size) continue;
GAS LISTING /tmp/ccrRIQ4i.s 			page 8


 318              		.loc 1 31 66 is_stmt 0
 319 0284 833784FE 		ld	a5,-24(s0)
 320 0288 83B70700 		ld	a5,0(a5)
 321 028c 2334F4FE 		sd	a5,-24(s0)
 322              	.LVL23:
  31:src/MemoryAllocator.cpp ****         if (current->size < size) continue;
 323              		.loc 1 31 5
 324 0290 6FF0DFDD 		j	.L19
 325              	.L6:
 326              	.LBE2:
  70:src/MemoryAllocator.cpp ****     }
  71:src/MemoryAllocator.cpp ****     return nullptr;
 327              		.loc 1 71 5 is_stmt 1
 328              		.loc 1 71 12 is_stmt 0
 329 0294 93070000 		li	a5,0
 330              	.LVL24:
 331              	.L3:
  72:src/MemoryAllocator.cpp **** }
 332              		.loc 1 72 1
 333 0298 13850700 		mv	a0,a5
 334 029c 03348105 		ld	s0,88(sp)
 335              		.cfi_restore 8
 336              		.cfi_def_cfa 2, 96
 337              	.LVL25:
 338 02a0 13010106 		addi	sp,sp,96
 339              		.cfi_def_cfa_offset 0
 340              	.LVL26:
 341 02a4 67800000 		jr	ra
 342              		.cfi_endproc
 343              	.LFE18:
 345              		.align	2
 346              		.globl	_ZN15MemoryAllocator5kfreeEPv
 348              	_ZN15MemoryAllocator5kfreeEPv:
 349              	.LFB19:
  73:src/MemoryAllocator.cpp **** 
  74:src/MemoryAllocator.cpp **** #pragma GCC optimize("O0")
  75:src/MemoryAllocator.cpp **** 
  76:src/MemoryAllocator.cpp **** int MemoryAllocator::kfree(void* ptr) {
 350              		.loc 1 76 39 is_stmt 1
 351              		.cfi_startproc
 352              	.LVL27:
 353 02a8 130101FB 		addi	sp,sp,-80
 354              		.cfi_def_cfa_offset 80
 355 02ac 23341104 		sd	ra,72(sp)
 356 02b0 23308104 		sd	s0,64(sp)
 357              		.cfi_offset 1, -8
 358              		.cfi_offset 8, -16
 359 02b4 13040105 		addi	s0,sp,80
 360              		.cfi_def_cfa 8, 0
 361 02b8 233CA4FA 		sd	a0,-72(s0)
  77:src/MemoryAllocator.cpp ****     if (!ptr) return 0;
 362              		.loc 1 77 5
 363 02bc 833784FB 		ld	a5,-72(s0)
 364 02c0 63960700 		bnez	a5,.L23
 365              		.loc 1 77 15 discriminator 1
 366              		.loc 1 77 22 is_stmt 0 discriminator 1
 367 02c4 93070000 		li	a5,0
GAS LISTING /tmp/ccrRIQ4i.s 			page 9


 368 02c8 6F00401D 		j	.L24
 369              	.L23:
  78:src/MemoryAllocator.cpp ****     if (!usedMemHead) return -1;
 370              		.loc 1 78 5 is_stmt 1
 371              		.loc 1 78 9 is_stmt 0
 372 02cc 97070000 		lla	a5,_ZN15MemoryAllocator11usedMemHeadE
 372      93870700 
 373 02d4 83B70700 		ld	a5,0(a5)
 374              		.loc 1 78 5
 375 02d8 63960700 		bnez	a5,.L25
 376              		.loc 1 78 23 is_stmt 1 discriminator 1
 377              		.loc 1 78 31 is_stmt 0 discriminator 1
 378 02dc 9307F0FF 		li	a5,-1
 379 02e0 6F00C01B 		j	.L24
 380              	.L25:
  79:src/MemoryAllocator.cpp ****     //ptr pokazuje na usableFirstAddress, pre toga je zaglavlje segmenta
  80:src/MemoryAllocator.cpp ****     ptr = (char*) ptr - sizeof(UsedMemSegment);
 381              		.loc 1 80 5 is_stmt 1
 382              		.loc 1 80 9 is_stmt 0
 383 02e4 833784FB 		ld	a5,-72(s0)
 384 02e8 938707FE 		addi	a5,a5,-32
 385 02ec 233CF4FA 		sd	a5,-72(s0)
 386              	.LVL28:
  81:src/MemoryAllocator.cpp **** 
  82:src/MemoryAllocator.cpp ****     //trazenje adrese ptr u listi zauzetih segmenata
  83:src/MemoryAllocator.cpp ****     UsedMemSegment* currentUsed = usedMemHead;
 387              		.loc 1 83 5 is_stmt 1
 388              		.loc 1 83 21 is_stmt 0
 389 02f0 97070000 		lla	a5,_ZN15MemoryAllocator11usedMemHeadE
 389      93870700 
 390              	.LVL29:
 391 02f8 83B70700 		ld	a5,0(a5)
 392 02fc 2334F4FE 		sd	a5,-24(s0)
 393              	.LVL30:
  84:src/MemoryAllocator.cpp ****     UsedMemSegment* prevUsed = nullptr;
 394              		.loc 1 84 5 is_stmt 1
 395              		.loc 1 84 21 is_stmt 0
 396 0300 233004FE 		sd	zero,-32(s0)
 397              	.LVL31:
 398              	.L27:
  85:src/MemoryAllocator.cpp ****     for (; currentUsed && ((char*) currentUsed != (char*) ptr); currentUsed = currentUsed->next) {
 399              		.loc 1 85 5 is_stmt 1 discriminator 3
 400              		.loc 1 85 24 discriminator 3
 401 0304 833784FE 		ld	a5,-24(s0)
 402 0308 63840702 		beqz	a5,.L26
 403              		.loc 1 85 24 is_stmt 0 discriminator 1
 404 030c 033784FE 		ld	a4,-24(s0)
 405 0310 833784FB 		ld	a5,-72(s0)
 406 0314 630EF700 		beq	a4,a5,.L26
  86:src/MemoryAllocator.cpp ****         prevUsed = currentUsed;
 407              		.loc 1 86 9 is_stmt 1 discriminator 2
 408              		.loc 1 86 18 is_stmt 0 discriminator 2
 409 0318 833784FE 		ld	a5,-24(s0)
 410 031c 2330F4FE 		sd	a5,-32(s0)
 411              	.LVL32:
  85:src/MemoryAllocator.cpp ****     for (; currentUsed && ((char*) currentUsed != (char*) ptr); currentUsed = currentUsed->next) {
 412              		.loc 1 85 5 is_stmt 1 discriminator 2
GAS LISTING /tmp/ccrRIQ4i.s 			page 10


  85:src/MemoryAllocator.cpp ****     for (; currentUsed && ((char*) currentUsed != (char*) ptr); currentUsed = currentUsed->next) {
 413              		.loc 1 85 77 is_stmt 0 discriminator 2
 414 0320 833784FE 		ld	a5,-24(s0)
 415 0324 83B70700 		ld	a5,0(a5)
 416 0328 2334F4FE 		sd	a5,-24(s0)
 417              	.LVL33:
  85:src/MemoryAllocator.cpp ****     for (; currentUsed && ((char*) currentUsed != (char*) ptr); currentUsed = currentUsed->next) {
 418              		.loc 1 85 5 discriminator 2
 419 032c 6FF09FFD 		j	.L27
 420              	.LVL34:
 421              	.L26:
  87:src/MemoryAllocator.cpp ****     }
  88:src/MemoryAllocator.cpp ****     if ((char*) currentUsed != (char*) ptr) return -1;    //adresa ne odgovara segmentu alociranom 
 422              		.loc 1 88 5 is_stmt 1
 423 0330 033784FE 		ld	a4,-24(s0)
 424 0334 833784FB 		ld	a5,-72(s0)
 425 0338 6306F700 		beq	a4,a5,.L28
 426              		.loc 1 88 45 discriminator 1
 427              		.loc 1 88 53 is_stmt 0 discriminator 1
 428 033c 9307F0FF 		li	a5,-1
 429 0340 6F00C015 		j	.L24
 430              	.L28:
  89:src/MemoryAllocator.cpp **** 
  90:src/MemoryAllocator.cpp ****     //prevezivanje liste zauzetih segmenata
  91:src/MemoryAllocator.cpp ****     if (prevUsed) prevUsed->next = currentUsed->next;
 431              		.loc 1 91 5 is_stmt 1
 432 0344 833704FE 		ld	a5,-32(s0)
 433 0348 638C0700 		beqz	a5,.L29
 434              		.loc 1 91 19 discriminator 1
 435              		.loc 1 91 49 is_stmt 0 discriminator 1
 436 034c 833784FE 		ld	a5,-24(s0)
 437 0350 03B70700 		ld	a4,0(a5)
 438              		.loc 1 91 34 discriminator 1
 439 0354 833704FE 		ld	a5,-32(s0)
 440 0358 23B0E700 		sd	a4,0(a5)
 441 035c 6F008001 		j	.L30
 442              	.L29:
  92:src/MemoryAllocator.cpp ****     else usedMemHead = currentUsed->next;
 443              		.loc 1 92 10 is_stmt 1
 444              		.loc 1 92 37 is_stmt 0
 445 0360 833784FE 		ld	a5,-24(s0)
 446 0364 03B70700 		ld	a4,0(a5)
 447              		.loc 1 92 22
 448 0368 97070000 		lla	a5,_ZN15MemoryAllocator11usedMemHeadE
 448      93870700 
 449 0370 23B0E700 		sd	a4,0(a5)
 450              	.L30:
  93:src/MemoryAllocator.cpp **** 
  94:src/MemoryAllocator.cpp ****     //oslobadjanje segmenta i ubacivanje u listu slobodnih
  95:src/MemoryAllocator.cpp ****     FreeMemSegment* prevFree = nullptr;
 451              		.loc 1 95 5 is_stmt 1
 452              		.loc 1 95 21 is_stmt 0
 453 0374 233C04FC 		sd	zero,-40(s0)
 454              	.LVL35:
  96:src/MemoryAllocator.cpp ****     if (!freeMemHead || ((char*) ptr < (char*) freeMemHead)) {
 455              		.loc 1 96 5 is_stmt 1
 456              		.loc 1 96 9 is_stmt 0
GAS LISTING /tmp/ccrRIQ4i.s 			page 11


 457 0378 97070000 		lla	a5,_ZN15MemoryAllocator11freeMemHeadE
 457      93870700 
 458 0380 83B70700 		ld	a5,0(a5)
 459              		.loc 1 96 5
 460 0384 638C0700 		beqz	a5,.L31
 461              		.loc 1 96 40 discriminator 1
 462 0388 97070000 		lla	a5,_ZN15MemoryAllocator11freeMemHeadE
 462      93870700 
 463 0390 83B70700 		ld	a5,0(a5)
 464              		.loc 1 96 22 discriminator 1
 465 0394 033784FB 		ld	a4,-72(s0)
 466 0398 6376F700 		bgeu	a4,a5,.L32
 467              	.L31:
  97:src/MemoryAllocator.cpp ****         prevFree = nullptr;
 468              		.loc 1 97 9 is_stmt 1
 469              		.loc 1 97 18 is_stmt 0
 470 039c 233C04FC 		sd	zero,-40(s0)
 471 03a0 6F000004 		j	.L33
 472              	.L32:
  98:src/MemoryAllocator.cpp ****     } else {
  99:src/MemoryAllocator.cpp ****         for (prevFree = freeMemHead;
 473              		.loc 1 99 9 is_stmt 1
 474              		.loc 1 99 23 is_stmt 0
 475 03a4 97070000 		lla	a5,_ZN15MemoryAllocator11freeMemHeadE
 475      93870700 
 476 03ac 83B70700 		ld	a5,0(a5)
 477 03b0 233CF4FC 		sd	a5,-40(s0)
 478              	.LVL36:
 479              	.L34:
 100:src/MemoryAllocator.cpp ****              prevFree->next && (char*) ptr > (char*) (prevFree->next); prevFree = prevFree->next);
 480              		.loc 1 100 29 is_stmt 1 discriminator 3
 481              		.loc 1 100 24 is_stmt 0 discriminator 3
 482 03b4 833784FD 		ld	a5,-40(s0)
 483 03b8 83B70700 		ld	a5,0(a5)
 484              		.loc 1 100 29 discriminator 3
 485 03bc 63820702 		beqz	a5,.L33
 486              		.loc 1 100 65 discriminator 1
 487 03c0 833784FD 		ld	a5,-40(s0)
 488 03c4 83B70700 		ld	a5,0(a5)
 489              		.loc 1 100 29 discriminator 1
 490 03c8 033784FB 		ld	a4,-72(s0)
 491 03cc 63FAE700 		bleu	a4,a5,.L33
  99:src/MemoryAllocator.cpp ****              prevFree->next && (char*) ptr > (char*) (prevFree->next); prevFree = prevFree->next);
 492              		.loc 1 99 9 is_stmt 1 discriminator 2
 493              		.loc 1 100 81 is_stmt 0 discriminator 2
 494 03d0 833784FD 		ld	a5,-40(s0)
 495 03d4 83B70700 		ld	a5,0(a5)
 496 03d8 233CF4FC 		sd	a5,-40(s0)
 497              	.LVL37:
  99:src/MemoryAllocator.cpp ****              prevFree->next && (char*) ptr > (char*) (prevFree->next); prevFree = prevFree->next);
 498              		.loc 1 99 9 discriminator 2
 499 03dc 6FF09FFD 		j	.L34
 500              	.LVL38:
 501              	.L33:
 101:src/MemoryAllocator.cpp ****     }
 102:src/MemoryAllocator.cpp ****     FreeMemSegment* newFree = (FreeMemSegment*) ptr;
 502              		.loc 1 102 5 is_stmt 1
GAS LISTING /tmp/ccrRIQ4i.s 			page 12


 503              		.loc 1 102 21 is_stmt 0
 504 03e0 833784FB 		ld	a5,-72(s0)
 505 03e4 2338F4FC 		sd	a5,-48(s0)
 506              	.LVL39:
 103:src/MemoryAllocator.cpp ****     size_t segmentSize = ((UsedMemSegment*) ptr)->size;
 507              		.loc 1 103 5 is_stmt 1
 508              		.loc 1 103 12 is_stmt 0
 509 03e8 833784FB 		ld	a5,-72(s0)
 510 03ec 83B78700 		ld	a5,8(a5)
 511              	.LVL40:
 512 03f0 2334F4FC 		sd	a5,-56(s0)
 513              	.LVL41:
 104:src/MemoryAllocator.cpp ****     newFree->size = segmentSize;
 514              		.loc 1 104 5 is_stmt 1
 515              		.loc 1 104 19 is_stmt 0
 516 03f4 833704FD 		ld	a5,-48(s0)
 517              	.LVL42:
 518 03f8 033784FC 		ld	a4,-56(s0)
 519 03fc 23B8E700 		sd	a4,16(a5)
 105:src/MemoryAllocator.cpp ****     newFree->prev = prevFree;
 520              		.loc 1 105 5 is_stmt 1
 521              		.loc 1 105 19 is_stmt 0
 522 0400 833704FD 		ld	a5,-48(s0)
 523 0404 033784FD 		ld	a4,-40(s0)
 524 0408 23B4E700 		sd	a4,8(a5)
 525              	.LVL43:
 106:src/MemoryAllocator.cpp ****     if (prevFree) newFree->next = prevFree->next;
 526              		.loc 1 106 5 is_stmt 1
 527 040c 833784FD 		ld	a5,-40(s0)
 528 0410 638C0700 		beqz	a5,.L35
 529              		.loc 1 106 19 discriminator 1
 530              		.loc 1 106 45 is_stmt 0 discriminator 1
 531 0414 833784FD 		ld	a5,-40(s0)
 532 0418 03B70700 		ld	a4,0(a5)
 533              		.loc 1 106 33 discriminator 1
 534 041c 833704FD 		ld	a5,-48(s0)
 535 0420 23B0E700 		sd	a4,0(a5)
 536 0424 6F008001 		j	.L36
 537              	.LVL44:
 538              	.L35:
 107:src/MemoryAllocator.cpp ****     else newFree->next = freeMemHead;
 539              		.loc 1 107 10 is_stmt 1
 540              		.loc 1 107 24 is_stmt 0
 541 0428 97070000 		lla	a5,_ZN15MemoryAllocator11freeMemHeadE
 541      93870700 
 542 0430 03B70700 		ld	a4,0(a5)
 543              	.LVL45:
 544 0434 833704FD 		ld	a5,-48(s0)
 545 0438 23B0E700 		sd	a4,0(a5)
 546              	.L36:
 108:src/MemoryAllocator.cpp ****     if (newFree->next) newFree->next->prev = newFree;
 547              		.loc 1 108 5 is_stmt 1
 548              		.loc 1 108 18 is_stmt 0
 549 043c 833704FD 		ld	a5,-48(s0)
 550 0440 83B70700 		ld	a5,0(a5)
 551              		.loc 1 108 5
 552 0444 638A0700 		beqz	a5,.L37
GAS LISTING /tmp/ccrRIQ4i.s 			page 13


 553              		.loc 1 108 24 is_stmt 1 discriminator 1
 554              		.loc 1 108 33 is_stmt 0 discriminator 1
 555 0448 833704FD 		ld	a5,-48(s0)
 556 044c 83B70700 		ld	a5,0(a5)
 557              		.loc 1 108 44 discriminator 1
 558 0450 033704FD 		ld	a4,-48(s0)
 559 0454 23B4E700 		sd	a4,8(a5)
 560              	.L37:
 109:src/MemoryAllocator.cpp ****     if (prevFree) prevFree->next = newFree;
 561              		.loc 1 109 5 is_stmt 1
 562 0458 833784FD 		ld	a5,-40(s0)
 563 045c 638A0700 		beqz	a5,.L38
 564              		.loc 1 109 19 discriminator 1
 565              		.loc 1 109 34 is_stmt 0 discriminator 1
 566 0460 833784FD 		ld	a5,-40(s0)
 567 0464 033704FD 		ld	a4,-48(s0)
 568 0468 23B0E700 		sd	a4,0(a5)
 569 046c 6F004001 		j	.L39
 570              	.L38:
 110:src/MemoryAllocator.cpp ****     else freeMemHead = newFree;
 571              		.loc 1 110 10 is_stmt 1
 572              		.loc 1 110 22 is_stmt 0
 573 0470 97070000 		lla	a5,_ZN15MemoryAllocator11freeMemHeadE
 573      93870700 
 574 0478 033704FD 		ld	a4,-48(s0)
 575 047c 23B0E700 		sd	a4,0(a5)
 576              	.L39:
 111:src/MemoryAllocator.cpp **** 
 112:src/MemoryAllocator.cpp ****     //spajanje uzastopnih slobodnih segmenata
 113:src/MemoryAllocator.cpp ****     tryToJoin(newFree);
 577              		.loc 1 113 5 is_stmt 1
 578              		.loc 1 113 14 is_stmt 0
 579 0480 033504FD 		ld	a0,-48(s0)
 580 0484 97000000 		call	_ZN15MemoryAllocator9tryToJoinEPNS_14FreeMemSegmentE
 580      E7800000 
 581              	.LVL46:
 114:src/MemoryAllocator.cpp ****     tryToJoin(prevFree);
 582              		.loc 1 114 5 is_stmt 1
 583              		.loc 1 114 14 is_stmt 0
 584 048c 033584FD 		ld	a0,-40(s0)
 585 0490 97000000 		call	_ZN15MemoryAllocator9tryToJoinEPNS_14FreeMemSegmentE
 585      E7800000 
 586              	.LVL47:
 115:src/MemoryAllocator.cpp ****     return 0;
 587              		.loc 1 115 5 is_stmt 1
 588              		.loc 1 115 12 is_stmt 0
 589 0498 93070000 		li	a5,0
 590              	.LVL48:
 591              	.L24:
 116:src/MemoryAllocator.cpp **** }
 592              		.loc 1 116 1
 593 049c 13850700 		mv	a0,a5
 594 04a0 83308104 		ld	ra,72(sp)
 595              		.cfi_restore 1
 596 04a4 03340104 		ld	s0,64(sp)
 597              		.cfi_restore 8
 598              		.cfi_def_cfa 2, 80
GAS LISTING /tmp/ccrRIQ4i.s 			page 14


 599              	.LVL49:
 600 04a8 13010105 		addi	sp,sp,80
 601              		.cfi_def_cfa_offset 0
 602              	.LVL50:
 603 04ac 67800000 		jr	ra
 604              		.cfi_endproc
 605              	.LFE19:
 607              		.align	2
 608              		.globl	_ZN15MemoryAllocator9tryToJoinEPNS_14FreeMemSegmentE
 610              	_ZN15MemoryAllocator9tryToJoinEPNS_14FreeMemSegmentE:
 611              	.LFB20:
 117:src/MemoryAllocator.cpp **** 
 118:src/MemoryAllocator.cpp **** #pragma GCC optimize("O0")
 119:src/MemoryAllocator.cpp **** 
 120:src/MemoryAllocator.cpp **** int MemoryAllocator::tryToJoin(MemoryAllocator::FreeMemSegment* current) {
 612              		.loc 1 120 74 is_stmt 1
 613              		.cfi_startproc
 614              	.LVL51:
 615 04b0 130101FC 		addi	sp,sp,-64
 616              		.cfi_def_cfa_offset 64
 617 04b4 233C8102 		sd	s0,56(sp)
 618              		.cfi_offset 8, -8
 619 04b8 13040104 		addi	s0,sp,64
 620              		.cfi_def_cfa 8, 0
 621 04bc 2334A4FC 		sd	a0,-56(s0)
 121:src/MemoryAllocator.cpp ****     if (!current) return 0;
 622              		.loc 1 121 5
 623 04c0 833784FC 		ld	a5,-56(s0)
 624 04c4 63960700 		bnez	a5,.L41
 625              		.loc 1 121 19 discriminator 1
 626              		.loc 1 121 26 is_stmt 0 discriminator 1
 627 04c8 93070000 		li	a5,0
 628 04cc 6F00C00B 		j	.L42
 629              	.L41:
 122:src/MemoryAllocator.cpp ****     bool nextExists = current->next != nullptr;
 630              		.loc 1 122 5 is_stmt 1
 631              		.loc 1 122 32 is_stmt 0
 632 04d0 833784FC 		ld	a5,-56(s0)
 633 04d4 83B70700 		ld	a5,0(a5)
 634              		.loc 1 122 10
 635 04d8 B337F000 		snez	a5,a5
 636 04dc A307F4FE 		sb	a5,-17(s0)
 637              	.LVL52:
 123:src/MemoryAllocator.cpp ****     char* nextAddr = (char*) current + current->size;
 638              		.loc 1 123 5 is_stmt 1
 639              		.loc 1 123 49 is_stmt 0
 640 04e0 833784FC 		ld	a5,-56(s0)
 641              	.LVL53:
 642 04e4 83B70701 		ld	a5,16(a5)
 643              		.loc 1 123 11
 644 04e8 033784FC 		ld	a4,-56(s0)
 645 04ec B307F700 		add	a5,a4,a5
 646 04f0 2330F4FE 		sd	a5,-32(s0)
 647              	.LVL54:
 124:src/MemoryAllocator.cpp ****     char* cnext = (char*) current->next;
 648              		.loc 1 124 5 is_stmt 1
 649              		.loc 1 124 11 is_stmt 0
GAS LISTING /tmp/ccrRIQ4i.s 			page 15


 650 04f4 833784FC 		ld	a5,-56(s0)
 651              	.LVL55:
 652 04f8 83B70700 		ld	a5,0(a5)
 653 04fc 233CF4FC 		sd	a5,-40(s0)
 654              	.LVL56:
 125:src/MemoryAllocator.cpp ****     bool nextIsConnected = (nextAddr == cnext);
 655              		.loc 1 125 5 is_stmt 1
 656              		.loc 1 125 10 is_stmt 0
 657 0500 033704FE 		ld	a4,-32(s0)
 658 0504 833784FD 		ld	a5,-40(s0)
 659 0508 B307F740 		sub	a5,a4,a5
 660              	.LVL57:
 661 050c 93B71700 		seqz	a5,a5
 662 0510 A30BF4FC 		sb	a5,-41(s0)
 663              	.LVL58:
 126:src/MemoryAllocator.cpp ****     if (nextExists && nextIsConnected) {
 664              		.loc 1 126 5 is_stmt 1
 665 0514 8347F4FE 		lbu	a5,-17(s0)
 666              	.LVL59:
 667 0518 93F7F70F 		andi	a5,a5,0xff
 668 051c 63840706 		beqz	a5,.L43
 669              		.loc 1 126 20 is_stmt 0 discriminator 1
 670 0520 834774FD 		lbu	a5,-41(s0)
 671 0524 93F7F70F 		andi	a5,a5,0xff
 672 0528 638E0704 		beqz	a5,.L43
 127:src/MemoryAllocator.cpp ****         current->size += current->next->size;
 673              		.loc 1 127 9 is_stmt 1
 674              		.loc 1 127 23 is_stmt 0
 675 052c 833784FC 		ld	a5,-56(s0)
 676 0530 03B70701 		ld	a4,16(a5)
 677              		.loc 1 127 35
 678 0534 833784FC 		ld	a5,-56(s0)
 679 0538 83B70700 		ld	a5,0(a5)
 680              		.loc 1 127 41
 681 053c 83B70701 		ld	a5,16(a5)
 682              		.loc 1 127 23
 683 0540 3307F700 		add	a4,a4,a5
 684 0544 833784FC 		ld	a5,-56(s0)
 685 0548 23B8E700 		sd	a4,16(a5)
 128:src/MemoryAllocator.cpp ****         current->next = current->next->next;
 686              		.loc 1 128 9 is_stmt 1
 687              		.loc 1 128 34 is_stmt 0
 688 054c 833784FC 		ld	a5,-56(s0)
 689 0550 83B70700 		ld	a5,0(a5)
 690              		.loc 1 128 40
 691 0554 03B70700 		ld	a4,0(a5)
 692              		.loc 1 128 23
 693 0558 833784FC 		ld	a5,-56(s0)
 694 055c 23B0E700 		sd	a4,0(a5)
 695              	.LVL60:
 129:src/MemoryAllocator.cpp ****         if (current->next) current->next->prev = current;
 696              		.loc 1 129 9 is_stmt 1
 697              		.loc 1 129 22 is_stmt 0
 698 0560 833784FC 		ld	a5,-56(s0)
 699 0564 83B70700 		ld	a5,0(a5)
 700              		.loc 1 129 9
 701 0568 638A0700 		beqz	a5,.L44
GAS LISTING /tmp/ccrRIQ4i.s 			page 16


 702              		.loc 1 129 28 is_stmt 1 discriminator 1
 703              		.loc 1 129 37 is_stmt 0 discriminator 1
 704 056c 833784FC 		ld	a5,-56(s0)
 705 0570 83B70700 		ld	a5,0(a5)
 706              		.loc 1 129 48 discriminator 1
 707 0574 033784FC 		ld	a4,-56(s0)
 708 0578 23B4E700 		sd	a4,8(a5)
 709              	.L44:
 130:src/MemoryAllocator.cpp ****         return 1;
 710              		.loc 1 130 9 is_stmt 1
 711              		.loc 1 130 16 is_stmt 0
 712 057c 93071000 		li	a5,1
 713 0580 6F008000 		j	.L42
 714              	.LVL61:
 715              	.L43:
 131:src/MemoryAllocator.cpp ****     } else return 0;
 716              		.loc 1 131 12 is_stmt 1
 717              		.loc 1 131 19 is_stmt 0
 718 0584 93070000 		li	a5,0
 719              	.LVL62:
 720              	.L42:
 132:src/MemoryAllocator.cpp **** }
 721              		.loc 1 132 1
 722 0588 13850700 		mv	a0,a5
 723              	.LVL63:
 724 058c 03348103 		ld	s0,56(sp)
 725              		.cfi_restore 8
 726              		.cfi_def_cfa 2, 64
 727              	.LVL64:
 728 0590 13010104 		addi	sp,sp,64
 729              		.cfi_def_cfa_offset 0
 730              	.LVL65:
 731 0594 67800000 		jr	ra
 732              		.cfi_endproc
 733              	.LFE20:
 735              		.align	2
 736              		.globl	_ZN15MemoryAllocator12checkPurposeEPvNS_7PurposeE
 738              	_ZN15MemoryAllocator12checkPurposeEPvNS_7PurposeE:
 739              	.LFB21:
 133:src/MemoryAllocator.cpp **** 
 134:src/MemoryAllocator.cpp **** bool MemoryAllocator::checkPurpose(void* ptr, MemoryAllocator::Purpose p) {
 740              		.loc 1 134 75 is_stmt 1
 741              		.cfi_startproc
 742              	.LVL66:
 743 0598 130101FE 		addi	sp,sp,-32
 744              		.cfi_def_cfa_offset 32
 745 059c 233C8100 		sd	s0,24(sp)
 746              		.cfi_offset 8, -8
 747 05a0 13040102 		addi	s0,sp,32
 748              		.cfi_def_cfa 8, 0
 749 05a4 2334A4FE 		sd	a0,-24(s0)
 750 05a8 93870500 		mv	a5,a1
 751 05ac 2322F4FE 		sw	a5,-28(s0)
 135:src/MemoryAllocator.cpp ****     ptr = (char*) ptr - sizeof(UsedMemSegment);
 752              		.loc 1 135 5
 753              		.loc 1 135 9 is_stmt 0
 754 05b0 833784FE 		ld	a5,-24(s0)
GAS LISTING /tmp/ccrRIQ4i.s 			page 17


 755 05b4 938707FE 		addi	a5,a5,-32
 756 05b8 2334F4FE 		sd	a5,-24(s0)
 757              	.LVL67:
 136:src/MemoryAllocator.cpp ****     return ((UsedMemSegment*) ptr)->purpose == p;
 758              		.loc 1 136 5 is_stmt 1
 759              		.loc 1 136 37 is_stmt 0
 760 05bc 833784FE 		ld	a5,-24(s0)
 761 05c0 03A70701 		lw	a4,16(a5)
 762              		.loc 1 136 48
 763 05c4 832744FE 		lw	a5,-28(s0)
 764              	.LVL68:
 765 05c8 9B870700 		sext.w	a5,a5
 766 05cc B387E740 		sub	a5,a5,a4
 767 05d0 93B71700 		seqz	a5,a5
 768 05d4 93F7F70F 		andi	a5,a5,0xff
 137:src/MemoryAllocator.cpp **** }
 769              		.loc 1 137 1
 770 05d8 13850700 		mv	a0,a5
 771 05dc 03348101 		ld	s0,24(sp)
 772              		.cfi_restore 8
 773              		.cfi_def_cfa 2, 32
 774              	.LVL69:
 775 05e0 13010102 		addi	sp,sp,32
 776              		.cfi_def_cfa_offset 0
 777              	.LVL70:
 778 05e4 67800000 		jr	ra
 779              		.cfi_endproc
 780              	.LFE21:
 782              		.align	2
 783              		.globl	_ZN15MemoryAllocator19initMemoryAllocatorEv
 785              	_ZN15MemoryAllocator19initMemoryAllocatorEv:
 786              	.LFB22:
 138:src/MemoryAllocator.cpp **** 
 139:src/MemoryAllocator.cpp **** void MemoryAllocator::initMemoryAllocator() {
 787              		.loc 1 139 45 is_stmt 1
 788              		.cfi_startproc
 789 05e8 130101FF 		addi	sp,sp,-16
 790              		.cfi_def_cfa_offset 16
 791 05ec 23348100 		sd	s0,8(sp)
 792              		.cfi_offset 8, -8
 793 05f0 13040101 		addi	s0,sp,16
 794              		.cfi_def_cfa 8, 0
 140:src/MemoryAllocator.cpp **** //pocetna inicijalizacija
 141:src/MemoryAllocator.cpp ****     if (!initialized) {
 795              		.loc 1 141 5
 796              		.loc 1 141 9 is_stmt 0
 797 05f4 97070000 		lla	a5,_ZN15MemoryAllocator11initializedE
 797      93870700 
 798 05fc 83C70700 		lbu	a5,0(a5)
 799 0600 93C71700 		xori	a5,a5,1
 800 0604 93F7F70F 		andi	a5,a5,0xff
 801              		.loc 1 141 5
 802 0608 63820708 		beqz	a5,.L49
 142:src/MemoryAllocator.cpp ****         freeMemHead = (FreeMemSegment*) HEAP_START_ADDR;
 803              		.loc 1 142 9 is_stmt 1
 804              		.loc 1 142 21 is_stmt 0
 805 060c 97070000 		la	a5,HEAP_START_ADDR
GAS LISTING /tmp/ccrRIQ4i.s 			page 18


 805      83B70700 
 806 0614 03B70700 		ld	a4,0(a5)
 807 0618 97070000 		lla	a5,_ZN15MemoryAllocator11freeMemHeadE
 807      93870700 
 808 0620 23B0E700 		sd	a4,0(a5)
 143:src/MemoryAllocator.cpp ****         freeMemHead->next = nullptr;
 809              		.loc 1 143 9 is_stmt 1
 810              		.loc 1 143 22 is_stmt 0
 811 0624 97070000 		lla	a5,_ZN15MemoryAllocator11freeMemHeadE
 811      93870700 
 812 062c 83B70700 		ld	a5,0(a5)
 813              		.loc 1 143 27
 814 0630 23B00700 		sd	zero,0(a5)
 144:src/MemoryAllocator.cpp ****         freeMemHead->prev = nullptr;
 815              		.loc 1 144 9 is_stmt 1
 816              		.loc 1 144 22 is_stmt 0
 817 0634 97070000 		lla	a5,_ZN15MemoryAllocator11freeMemHeadE
 817      93870700 
 818 063c 83B70700 		ld	a5,0(a5)
 819              		.loc 1 144 27
 820 0640 23B40700 		sd	zero,8(a5)
 145:src/MemoryAllocator.cpp ****         freeMemHead->size = (char*) HEAP_END_ADDR - (char*) HEAP_START_ADDR;//- sizeof(FreeMemSegme
 821              		.loc 1 145 9 is_stmt 1
 822              		.loc 1 145 29 is_stmt 0
 823 0644 97070000 		la	a5,HEAP_END_ADDR
 823      83B70700 
 824 064c 03B70700 		ld	a4,0(a5)
 825              		.loc 1 145 53
 826 0650 97070000 		la	a5,HEAP_START_ADDR
 826      83B70700 
 827 0658 83B70700 		ld	a5,0(a5)
 828              		.loc 1 145 51
 829 065c 3307F740 		sub	a4,a4,a5
 830              		.loc 1 145 22
 831 0660 97070000 		lla	a5,_ZN15MemoryAllocator11freeMemHeadE
 831      93870700 
 832 0668 83B70700 		ld	a5,0(a5)
 833              		.loc 1 145 27
 834 066c 23B8E700 		sd	a4,16(a5)
 146:src/MemoryAllocator.cpp ****         usedMemHead = nullptr;
 835              		.loc 1 146 9 is_stmt 1
 836              		.loc 1 146 21 is_stmt 0
 837 0670 97070000 		lla	a5,_ZN15MemoryAllocator11usedMemHeadE
 837      93870700 
 838 0678 23B00700 		sd	zero,0(a5)
 147:src/MemoryAllocator.cpp **** 
 148:src/MemoryAllocator.cpp ****         initialized = true;
 839              		.loc 1 148 9 is_stmt 1
 840              		.loc 1 148 21 is_stmt 0
 841 067c 97070000 		lla	a5,_ZN15MemoryAllocator11initializedE
 841      93870700 
 842 0684 13071000 		li	a4,1
 843 0688 2380E700 		sb	a4,0(a5)
 844              	.L49:
 149:src/MemoryAllocator.cpp ****     }
 150:src/MemoryAllocator.cpp **** }
 845              		.loc 1 150 1
GAS LISTING /tmp/ccrRIQ4i.s 			page 19


 846 068c 13000000 		nop
 847 0690 03348100 		ld	s0,8(sp)
 848              		.cfi_restore 8
 849              		.cfi_def_cfa 2, 16
 850 0694 13010101 		addi	sp,sp,16
 851              		.cfi_def_cfa_offset 0
 852 0698 67800000 		jr	ra
 853              		.cfi_endproc
 854              	.LFE22:
 856              		.globl	_ZN15MemoryAllocator11usedMemHeadE
 857              		.bss
 858              		.align	3
 861              	_ZN15MemoryAllocator11usedMemHeadE:
 862 0000 00000000 		.zero	8
 862      00000000 
 863              		.globl	_ZN15MemoryAllocator11freeMemHeadE
 864              		.align	3
 867              	_ZN15MemoryAllocator11freeMemHeadE:
 868 0008 00000000 		.zero	8
 868      00000000 
 869              		.globl	_ZN15MemoryAllocator11initializedE
 872              	_ZN15MemoryAllocator11initializedE:
 873 0010 00       		.zero	1
 874              		.text
 875              	.Letext0:
 876              		.file 2 "src/../h/../lib/hw.h"
 877              		.file 3 "src/../h/MemoryAllocator.hpp"
 878              		.file 4 "src/../test/../h/syscall_c.hpp"
GAS LISTING /tmp/ccrRIQ4i.s 			page 20

