GAS LISTING /tmp/cch5Pmmd.s 			page 1


   1              		.file	"MemoryAllocator.cpp"
   2              		.option pic
   3              		.option norelax
   4              		.text
   5              	.Ltext0:
   6              		.align	2
   7              		.globl	_ZN15MemoryAllocator7kmallocEmNS_7PurposeE
   9              	_ZN15MemoryAllocator7kmallocEmNS_7PurposeE:
  10              	.LFB3:
  11              		.file 1 "src/MemoryAllocator.cpp"
   1:src/MemoryAllocator.cpp **** //
   2:src/MemoryAllocator.cpp **** // Created by os on 5/12/23.
   3:src/MemoryAllocator.cpp **** //
   4:src/MemoryAllocator.cpp **** 
   5:src/MemoryAllocator.cpp **** #include "../h/MemoryAllocator.hpp"
   6:src/MemoryAllocator.cpp **** #include "../h/helper.hpp"
   7:src/MemoryAllocator.cpp **** 
   8:src/MemoryAllocator.cpp **** bool MemoryAllocator::initialized = false;
   9:src/MemoryAllocator.cpp **** MemoryAllocator::FreeMemSegment* MemoryAllocator::freeMemHead = nullptr;
  10:src/MemoryAllocator.cpp **** MemoryAllocator::UsedMemSegment* MemoryAllocator::usedMemHead = nullptr;
  11:src/MemoryAllocator.cpp **** 
  12:src/MemoryAllocator.cpp **** void* MemoryAllocator::kmalloc(size_t size, Purpose pur) {
  12              		.loc 1 12 58
  13              		.cfi_startproc
  14              	.LVL0:
  15 0000 130101FF 		addi	sp,sp,-16
  16              		.cfi_def_cfa_offset 16
  17 0004 23348100 		sd	s0,8(sp)
  18              		.cfi_offset 8, -8
  19 0008 13040101 		addi	s0,sp,16
  20              		.cfi_def_cfa 8, 0
  13:src/MemoryAllocator.cpp **** 	if (size <= 0) return nullptr;
  21              		.loc 1 13 2
  22 000c 63080512 		beqz	a0,.L14
  14:src/MemoryAllocator.cpp **** 
  15:src/MemoryAllocator.cpp **** 	//pocetna inicijalizacija
  16:src/MemoryAllocator.cpp **** 	if (!initialized) {
  23              		.loc 1 16 2
  24              		.loc 1 16 6 is_stmt 0
  25 0010 97070000 		lbu	a5,.LANCHOR0
  25      83C70700 
  26              		.loc 1 16 2
  27 0018 63980704 		bnez	a5,.L3
  17:src/MemoryAllocator.cpp **** 		freeMemHead = (FreeMemSegment*)HEAP_START_ADDR;
  28              		.loc 1 17 3 is_stmt 1
  29              		.loc 1 17 15 is_stmt 0
  30 001c 17060000 		la	a2,HEAP_START_ADDR
  30      03360600 
  31 0024 83370600 		ld	a5,0(a2)
  32 0028 17070000 		lla	a4,.LANCHOR0
  32      13070700 
  33 0030 2334F700 		sd	a5,8(a4)
  18:src/MemoryAllocator.cpp **** 		freeMemHead->next = nullptr;
  34              		.loc 1 18 3 is_stmt 1
  35              		.loc 1 18 21 is_stmt 0
  36 0034 23B00700 		sd	zero,0(a5)
  19:src/MemoryAllocator.cpp **** 		freeMemHead->prev = nullptr;
GAS LISTING /tmp/cch5Pmmd.s 			page 2


  37              		.loc 1 19 3 is_stmt 1
  38              		.loc 1 19 16 is_stmt 0
  39 0038 83368700 		ld	a3,8(a4)
  40              		.loc 1 19 21
  41 003c 23B40600 		sd	zero,8(a3)
  20:src/MemoryAllocator.cpp **** 		freeMemHead->size = (char*)HEAP_END_ADDR - (char*)HEAP_START_ADDR - sizeof(FreeMemSegment);
  42              		.loc 1 20 3 is_stmt 1
  43              		.loc 1 20 23 is_stmt 0
  44 0040 97070000 		la	a5,HEAP_END_ADDR
  44      83B70700 
  45 0048 83B70700 		ld	a5,0(a5)
  46              		.loc 1 20 46
  47 004c 03360600 		ld	a2,0(a2)
  48              		.loc 1 20 44
  49 0050 B387C740 		sub	a5,a5,a2
  50              		.loc 1 20 69
  51 0054 938787FE 		addi	a5,a5,-24
  52              		.loc 1 20 21
  53 0058 23B8F600 		sd	a5,16(a3)
  21:src/MemoryAllocator.cpp **** 		usedMemHead = nullptr;
  54              		.loc 1 21 3 is_stmt 1
  55              		.loc 1 21 15 is_stmt 0
  56 005c 23380700 		sd	zero,16(a4)
  22:src/MemoryAllocator.cpp **** 
  23:src/MemoryAllocator.cpp **** 		initialized = true;
  57              		.loc 1 23 3 is_stmt 1
  58              		.loc 1 23 15 is_stmt 0
  59 0060 93071000 		li	a5,1
  60 0064 2300F700 		sb	a5,0(a4)
  61              	.L3:
  24:src/MemoryAllocator.cpp **** 	}
  25:src/MemoryAllocator.cpp **** 
  26:src/MemoryAllocator.cpp **** 	//alokacija uvek zaokruzena na blokove
  27:src/MemoryAllocator.cpp **** 	//size += sizeof(UsedMemSegment); ;prebaceno u mem_alloc
  28:src/MemoryAllocator.cpp **** 	size_t blocks = size / MEM_BLOCK_SIZE + (size % MEM_BLOCK_SIZE ? 1 : 0);
  62              		.loc 1 28 2 is_stmt 1
  63              		.loc 1 28 23 is_stmt 0
  64 0068 93576500 		srli	a5,a0,6
  65              		.loc 1 28 48
  66 006c 1375F503 		andi	a0,a0,63
  67              	.LVL1:
  68              		.loc 1 28 65
  69 0070 63040500 		beqz	a0,.L4
  70 0074 13051000 		li	a0,1
  71              	.L4:
  72              		.loc 1 28 9 discriminator 4
  73 0078 3385A700 		add	a0,a5,a0
  74              	.LVL2:
  29:src/MemoryAllocator.cpp **** 	size = blocks * MEM_BLOCK_SIZE;
  75              		.loc 1 29 2 is_stmt 1 discriminator 4
  76              		.loc 1 29 7 is_stmt 0 discriminator 4
  77 007c 93176500 		slli	a5,a0,6
  78              	.LVL3:
  30:src/MemoryAllocator.cpp **** 
  31:src/MemoryAllocator.cpp **** 	//trazenje slobodnog segmenta po first-fit algoritmu
  32:src/MemoryAllocator.cpp **** 	for (FreeMemSegment* current = freeMemHead; current; current = current->next) {
  79              		.loc 1 32 2 is_stmt 1 discriminator 4
GAS LISTING /tmp/cch5Pmmd.s 			page 3


  80              	.LBB2:
  81              		.loc 1 32 23 is_stmt 0 discriminator 4
  82 0080 17050000 		ld	a0,.LANCHOR0+8
  82      03350500 
  83              	.LVL4:
  84              	.L6:
  85              		.loc 1 32 46 is_stmt 1 discriminator 1
  86 0088 630C0508 		beqz	a0,.L1
  87              	.LBB3:
  33:src/MemoryAllocator.cpp **** 		if (current->size < size) continue;
  88              		.loc 1 33 3
  89              		.loc 1 33 16 is_stmt 0
  90 008c 03370501 		ld	a4,16(a0)
  91              		.loc 1 33 3
  92 0090 6364F706 		bltu	a4,a5,.L16
  34:src/MemoryAllocator.cpp **** 
  35:src/MemoryAllocator.cpp **** 		//pravljenje novog slobodnog fragmenta od ostatka fragmenta
  36:src/MemoryAllocator.cpp **** 		FreeMemSegment* remainderFree = (FreeMemSegment*)((char*)current + size);
  93              		.loc 1 36 3 is_stmt 1
  94              		.loc 1 36 19 is_stmt 0
  95 0094 B306F500 		add	a3,a0,a5
  96              	.LVL5:
  37:src/MemoryAllocator.cpp **** 		remainderFree->size = current->size - size;
  97              		.loc 1 37 3 is_stmt 1
  98              		.loc 1 37 39 is_stmt 0
  99 0098 3307F740 		sub	a4,a4,a5
 100              		.loc 1 37 23
 101 009c 23B8E600 		sd	a4,16(a3)
  38:src/MemoryAllocator.cpp **** 		remainderFree->prev = current->prev;
 102              		.loc 1 38 3 is_stmt 1
 103              		.loc 1 38 34 is_stmt 0
 104 00a0 03378500 		ld	a4,8(a0)
 105              		.loc 1 38 23
 106 00a4 23B4E600 		sd	a4,8(a3)
  39:src/MemoryAllocator.cpp **** 		if (current->prev) current->prev->next = remainderFree;
 107              		.loc 1 39 3 is_stmt 1
 108 00a8 63040700 		beqz	a4,.L7
 109              		.loc 1 39 22 discriminator 1
 110              		.loc 1 39 42 is_stmt 0 discriminator 1
 111 00ac 2330D700 		sd	a3,0(a4)
 112              	.L7:
  40:src/MemoryAllocator.cpp **** 		remainderFree->next = current->next;
 113              		.loc 1 40 3 is_stmt 1
 114              		.loc 1 40 34 is_stmt 0
 115 00b0 03370500 		ld	a4,0(a0)
 116              		.loc 1 40 23
 117 00b4 23B0E600 		sd	a4,0(a3)
  41:src/MemoryAllocator.cpp **** 		if (current->next) current->next->prev = remainderFree;
 118              		.loc 1 41 3 is_stmt 1
 119 00b8 63040700 		beqz	a4,.L8
 120              		.loc 1 41 22 discriminator 1
 121              		.loc 1 41 42 is_stmt 0 discriminator 1
 122 00bc 2334D700 		sd	a3,8(a4)
 123              	.L8:
  42:src/MemoryAllocator.cpp **** 		if (freeMemHead == current) freeMemHead = remainderFree;
 124              		.loc 1 42 3 is_stmt 1
 125              		.loc 1 42 19 is_stmt 0
GAS LISTING /tmp/cch5Pmmd.s 			page 4


 126 00c0 17070000 		ld	a4,.LANCHOR0+8
 126      03370700 
 127              		.loc 1 42 3
 128 00c8 630CA702 		beq	a4,a0,.L17
 129              	.L9:
  43:src/MemoryAllocator.cpp **** 
  44:src/MemoryAllocator.cpp **** 		//ubacivanje novog fragmenta u listu zauzetih fragmenata
  45:src/MemoryAllocator.cpp **** 		UsedMemSegment* newFragment = (UsedMemSegment*)current;
 130              		.loc 1 45 3 is_stmt 1
 131              	.LVL6:
  46:src/MemoryAllocator.cpp **** 		newFragment->size = size;
 132              		.loc 1 46 3
 133              		.loc 1 46 21 is_stmt 0
 134 00cc 2334F500 		sd	a5,8(a0)
  47:src/MemoryAllocator.cpp **** 		newFragment->purpose = pur;
 135              		.loc 1 47 3 is_stmt 1
 136              		.loc 1 47 24 is_stmt 0
 137 00d0 2328B500 		sw	a1,16(a0)
  48:src/MemoryAllocator.cpp **** 		UsedMemSegment* prevUsed = nullptr;
 138              		.loc 1 48 3 is_stmt 1
 139              	.LVL7:
  49:src/MemoryAllocator.cpp **** 		for (UsedMemSegment* cur = usedMemHead; cur && cur < newFragment; prevUsed = cur, cur = cur->next
 140              		.loc 1 49 3
 141              	.LBB4:
 142              		.loc 1 49 24 is_stmt 0
 143 00d4 97060000 		ld	a3,.LANCHOR0+16
 143      83B60600 
 144              	.LVL8:
 145 00dc 93870600 		mv	a5,a3
 146              	.LVL9:
 147              	.LBE4:
  48:src/MemoryAllocator.cpp **** 		UsedMemSegment* prevUsed = nullptr;
 148              		.loc 1 48 19
 149 00e0 13070000 		li	a4,0
 150              	.LVL10:
 151              	.L11:
 152              	.LBB5:
 153              		.loc 1 49 47 is_stmt 1 discriminator 4
 154 00e4 63840702 		beqz	a5,.L10
 155              		.loc 1 49 47 is_stmt 0 discriminator 2
 156 00e8 63F2A702 		bleu	a0,a5,.L10
 157              		.loc 1 49 3 is_stmt 1 discriminator 3
 158              	.LVL11:
 159              		.loc 1 49 78 is_stmt 0 discriminator 3
 160 00ec 13870700 		mv	a4,a5
 161              		.loc 1 49 89 discriminator 3
 162 00f0 83B70700 		ld	a5,0(a5)
 163              	.LVL12:
 164              		.loc 1 49 3 discriminator 3
 165 00f4 6FF01FFF 		j	.L11
 166              	.LVL13:
 167              	.L16:
 168              	.LBE5:
  33:src/MemoryAllocator.cpp **** 
 169              		.loc 1 33 29 is_stmt 1 discriminator 1
 170              	.LBE3:
  32:src/MemoryAllocator.cpp **** 		if (current->size < size) continue;
GAS LISTING /tmp/cch5Pmmd.s 			page 5


 171              		.loc 1 32 2 discriminator 1
  32:src/MemoryAllocator.cpp **** 		if (current->size < size) continue;
 172              		.loc 1 32 63 is_stmt 0 discriminator 1
 173 00f8 03350500 		ld	a0,0(a0)
 174              	.LVL14:
  32:src/MemoryAllocator.cpp **** 		if (current->size < size) continue;
 175              		.loc 1 32 2 discriminator 1
 176 00fc 6FF0DFF8 		j	.L6
 177              	.LVL15:
 178              	.L17:
 179              	.LBB6:
  42:src/MemoryAllocator.cpp **** 
 180              		.loc 1 42 31 is_stmt 1 discriminator 1
  42:src/MemoryAllocator.cpp **** 
 181              		.loc 1 42 43 is_stmt 0 discriminator 1
 182 0100 17070000 		sd	a3,.LANCHOR0+8,a4
 182      2330D700 
 183 0108 6FF05FFC 		j	.L9
 184              	.LVL16:
 185              	.L10:
  50:src/MemoryAllocator.cpp **** 		if (!prevUsed) {
 186              		.loc 1 50 3 is_stmt 1
 187 010c 63000702 		beqz	a4,.L18
  51:src/MemoryAllocator.cpp **** 			newFragment->next = usedMemHead;
  52:src/MemoryAllocator.cpp **** 			usedMemHead = newFragment;
  53:src/MemoryAllocator.cpp **** 		} else {
  54:src/MemoryAllocator.cpp **** 			newFragment->next = prevUsed->next;
 188              		.loc 1 54 4
 189              		.loc 1 54 34 is_stmt 0
 190 0110 83370700 		ld	a5,0(a4)
 191              	.LVL17:
 192              		.loc 1 54 22
 193 0114 2330F500 		sd	a5,0(a0)
  55:src/MemoryAllocator.cpp **** 			prevUsed->next = newFragment;
 194              		.loc 1 55 4 is_stmt 1
 195              		.loc 1 55 19 is_stmt 0
 196 0118 2330A700 		sd	a0,0(a4)
 197              	.LVL18:
 198              	.L13:
  56:src/MemoryAllocator.cpp **** 		}
  57:src/MemoryAllocator.cpp **** 		return (char*)newFragment + sizeof(UsedMemSegment);
 199              		.loc 1 57 3 is_stmt 1
 200              		.loc 1 57 52 is_stmt 0
 201 011c 13058501 		addi	a0,a0,24
 202              	.LVL19:
 203              	.L1:
 204              	.LBE6:
 205              	.LBE2:
  58:src/MemoryAllocator.cpp **** 	}
  59:src/MemoryAllocator.cpp **** 	return nullptr;
  60:src/MemoryAllocator.cpp **** }
 206              		.loc 1 60 1
 207 0120 03348100 		ld	s0,8(sp)
 208              		.cfi_remember_state
 209              		.cfi_restore 8
 210              		.cfi_def_cfa 2, 16
 211 0124 13010101 		addi	sp,sp,16
GAS LISTING /tmp/cch5Pmmd.s 			page 6


 212              		.cfi_def_cfa_offset 0
 213 0128 67800000 		jr	ra
 214              	.LVL20:
 215              	.L18:
 216              		.cfi_restore_state
 217              	.LBB8:
 218              	.LBB7:
  51:src/MemoryAllocator.cpp **** 			usedMemHead = newFragment;
 219              		.loc 1 51 4 is_stmt 1
  51:src/MemoryAllocator.cpp **** 			usedMemHead = newFragment;
 220              		.loc 1 51 22 is_stmt 0
 221 012c 2330D500 		sd	a3,0(a0)
  52:src/MemoryAllocator.cpp **** 		} else {
 222              		.loc 1 52 4 is_stmt 1
  52:src/MemoryAllocator.cpp **** 		} else {
 223              		.loc 1 52 16 is_stmt 0
 224 0130 97070000 		sd	a0,.LANCHOR0+16,a5
 224      23B0A700 
 225              	.LVL21:
 226 0138 6FF05FFE 		j	.L13
 227              	.LVL22:
 228              	.L14:
 229              	.LBE7:
 230              	.LBE8:
  13:src/MemoryAllocator.cpp **** 
 231              		.loc 1 13 24
 232 013c 13050000 		li	a0,0
 233              	.LVL23:
 234 0140 6FF01FFE 		j	.L1
 235              		.cfi_endproc
 236              	.LFE3:
 238              		.align	2
 239              		.globl	_ZN15MemoryAllocator9tryToJoinEPNS_14FreeMemSegmentE
 241              	_ZN15MemoryAllocator9tryToJoinEPNS_14FreeMemSegmentE:
 242              	.LFB5:
  61:src/MemoryAllocator.cpp **** 
  62:src/MemoryAllocator.cpp **** int MemoryAllocator::kfree(void* ptr) {
  63:src/MemoryAllocator.cpp **** 	if (!ptr) return 0;
  64:src/MemoryAllocator.cpp **** 	if (!usedMemHead) return -1;
  65:src/MemoryAllocator.cpp **** 	ptr = (char*)ptr - sizeof(UsedMemSegment);
  66:src/MemoryAllocator.cpp **** 	//trazenje adrese ptr u listi zauzetih segmenata
  67:src/MemoryAllocator.cpp **** 	UsedMemSegment* currentUsed = usedMemHead;
  68:src/MemoryAllocator.cpp **** 	UsedMemSegment* prevUsed = nullptr;
  69:src/MemoryAllocator.cpp **** 	for (; currentUsed && currentUsed != ptr; prevUsed = currentUsed, currentUsed = currentUsed->next)
  70:src/MemoryAllocator.cpp **** 	if (currentUsed != ptr) return -1;    //adresa ne odgovara segmentu alociranom preko kmalloc
  71:src/MemoryAllocator.cpp **** 
  72:src/MemoryAllocator.cpp **** 	//prevezivanje liste zauzetih segmenata
  73:src/MemoryAllocator.cpp **** 	if (prevUsed) prevUsed->next = currentUsed->next;
  74:src/MemoryAllocator.cpp **** 	else usedMemHead = currentUsed->next;
  75:src/MemoryAllocator.cpp **** 
  76:src/MemoryAllocator.cpp **** 	//oslobadjanje segmenta i ubacivanje u listu slobodnih
  77:src/MemoryAllocator.cpp **** 	FreeMemSegment* prevFree = nullptr;
  78:src/MemoryAllocator.cpp **** 	if (!freeMemHead || ptr < (char*)freeMemHead) {
  79:src/MemoryAllocator.cpp **** 		prevFree = nullptr;
  80:src/MemoryAllocator.cpp **** 	} else {
  81:src/MemoryAllocator.cpp **** 		for (prevFree = freeMemHead;
  82:src/MemoryAllocator.cpp **** 			 prevFree->next != nullptr && ptr > (char*)(prevFree->next); prevFree = prevFree->next);
GAS LISTING /tmp/cch5Pmmd.s 			page 7


  83:src/MemoryAllocator.cpp **** 	}
  84:src/MemoryAllocator.cpp **** 	FreeMemSegment* newFree = (FreeMemSegment*)ptr;
  85:src/MemoryAllocator.cpp **** 	size_t segmentSize = ((UsedMemSegment*)ptr)->size;
  86:src/MemoryAllocator.cpp **** 	newFree->size = segmentSize;
  87:src/MemoryAllocator.cpp **** 	newFree->prev = prevFree;
  88:src/MemoryAllocator.cpp **** 	if (prevFree) newFree->next = prevFree->next;
  89:src/MemoryAllocator.cpp **** 	else newFree->next = freeMemHead;
  90:src/MemoryAllocator.cpp **** 	if (newFree->next) newFree->next->prev = newFree;
  91:src/MemoryAllocator.cpp **** 	if (prevFree) prevFree->next = newFree;
  92:src/MemoryAllocator.cpp **** 	else freeMemHead = newFree;
  93:src/MemoryAllocator.cpp **** 
  94:src/MemoryAllocator.cpp **** 	//spajanje uzastopnih slobodnih segmenata
  95:src/MemoryAllocator.cpp **** 	tryToJoin(newFree);
  96:src/MemoryAllocator.cpp **** 	tryToJoin(prevFree);
  97:src/MemoryAllocator.cpp **** 	return 0;
  98:src/MemoryAllocator.cpp **** }
  99:src/MemoryAllocator.cpp **** 
 100:src/MemoryAllocator.cpp **** int MemoryAllocator::tryToJoin(MemoryAllocator::FreeMemSegment* current) {
 243              		.loc 1 100 74 is_stmt 1
 244              		.cfi_startproc
 245              	.LVL24:
 246 0144 130101FF 		addi	sp,sp,-16
 247              		.cfi_def_cfa_offset 16
 248 0148 23348100 		sd	s0,8(sp)
 249              		.cfi_offset 8, -8
 250 014c 13040101 		addi	s0,sp,16
 251              		.cfi_def_cfa 8, 0
 101:src/MemoryAllocator.cpp **** 	if (!current) return 0;
 252              		.loc 1 101 2
 253 0150 63060504 		beqz	a0,.L22
 102:src/MemoryAllocator.cpp **** 	bool nextExists = current->next != nullptr;
 254              		.loc 1 102 2
 255              		.loc 1 102 29 is_stmt 0
 256 0154 83370500 		ld	a5,0(a0)
 257              	.LVL25:
 103:src/MemoryAllocator.cpp **** 	char* nextAddr = (char*)current + current->size;
 258              		.loc 1 103 2 is_stmt 1
 259              		.loc 1 103 45 is_stmt 0
 260 0158 03370501 		ld	a4,16(a0)
 261              		.loc 1 103 8
 262 015c B306E500 		add	a3,a0,a4
 263              	.LVL26:
 104:src/MemoryAllocator.cpp **** 	char* cnext = (char*)current->next;
 264              		.loc 1 104 2 is_stmt 1
 105:src/MemoryAllocator.cpp **** 	bool nextIsConnected = (nextAddr == cnext);
 265              		.loc 1 105 2
 106:src/MemoryAllocator.cpp **** 	if (nextExists && nextIsConnected) {
 266              		.loc 1 106 2
 267 0160 63820704 		beqz	a5,.L23
 268              		.loc 1 106 17 is_stmt 0 discriminator 1
 269 0164 638AD700 		beq	a5,a3,.L26
 107:src/MemoryAllocator.cpp **** 		current->size += current->next->size;
 108:src/MemoryAllocator.cpp **** 		current->next = current->next->next;
 109:src/MemoryAllocator.cpp **** 		if (current->next) current->next->prev = current;
 110:src/MemoryAllocator.cpp **** 		return 1;
 111:src/MemoryAllocator.cpp **** 	} else return 0;
 270              		.loc 1 111 16
GAS LISTING /tmp/cch5Pmmd.s 			page 8


 271 0168 13050000 		li	a0,0
 272              	.LVL27:
 273              	.L20:
 112:src/MemoryAllocator.cpp **** }
 274              		.loc 1 112 1
 275 016c 03348100 		ld	s0,8(sp)
 276              		.cfi_remember_state
 277              		.cfi_restore 8
 278              		.cfi_def_cfa 2, 16
 279 0170 13010101 		addi	sp,sp,16
 280              		.cfi_def_cfa_offset 0
 281 0174 67800000 		jr	ra
 282              	.LVL28:
 283              	.L26:
 284              		.cfi_restore_state
 107:src/MemoryAllocator.cpp **** 		current->size += current->next->size;
 285              		.loc 1 107 3 is_stmt 1
 107:src/MemoryAllocator.cpp **** 		current->size += current->next->size;
 286              		.loc 1 107 35 is_stmt 0
 287 0178 83B60701 		ld	a3,16(a5)
 288              	.LVL29:
 107:src/MemoryAllocator.cpp **** 		current->size += current->next->size;
 289              		.loc 1 107 17
 290 017c 3307D700 		add	a4,a4,a3
 291              	.LVL30:
 292 0180 2338E500 		sd	a4,16(a0)
 293              	.LVL31:
 108:src/MemoryAllocator.cpp **** 		if (current->next) current->next->prev = current;
 294              		.loc 1 108 3 is_stmt 1
 108:src/MemoryAllocator.cpp **** 		if (current->next) current->next->prev = current;
 295              		.loc 1 108 34 is_stmt 0
 296 0184 83B70700 		ld	a5,0(a5)
 297              	.LVL32:
 108:src/MemoryAllocator.cpp **** 		if (current->next) current->next->prev = current;
 298              		.loc 1 108 17
 299 0188 2330F500 		sd	a5,0(a0)
 300              	.LVL33:
 109:src/MemoryAllocator.cpp **** 		return 1;
 301              		.loc 1 109 3 is_stmt 1
 302 018c 63840700 		beqz	a5,.L21
 109:src/MemoryAllocator.cpp **** 		return 1;
 303              		.loc 1 109 22 discriminator 1
 109:src/MemoryAllocator.cpp **** 		return 1;
 304              		.loc 1 109 42 is_stmt 0 discriminator 1
 305 0190 23B4A700 		sd	a0,8(a5)
 306              	.L21:
 110:src/MemoryAllocator.cpp **** 	} else return 0;
 307              		.loc 1 110 3 is_stmt 1
 110:src/MemoryAllocator.cpp **** 	} else return 0;
 308              		.loc 1 110 10 is_stmt 0
 309 0194 13051000 		li	a0,1
 310              	.LVL34:
 311 0198 6FF05FFD 		j	.L20
 312              	.LVL35:
 313              	.L22:
 101:src/MemoryAllocator.cpp **** 	bool nextExists = current->next != nullptr;
 314              		.loc 1 101 23
GAS LISTING /tmp/cch5Pmmd.s 			page 9


 315 019c 13050000 		li	a0,0
 316              	.LVL36:
 317 01a0 6FF0DFFC 		j	.L20
 318              	.LVL37:
 319              	.L23:
 111:src/MemoryAllocator.cpp **** }
 320              		.loc 1 111 16
 321 01a4 13050000 		li	a0,0
 322              	.LVL38:
 323 01a8 6FF05FFC 		j	.L20
 324              		.cfi_endproc
 325              	.LFE5:
 327              		.align	2
 328              		.globl	_ZN15MemoryAllocator5kfreeEPv
 330              	_ZN15MemoryAllocator5kfreeEPv:
 331              	.LFB4:
  62:src/MemoryAllocator.cpp **** 	if (!ptr) return 0;
 332              		.loc 1 62 39 is_stmt 1
 333              		.cfi_startproc
 334              	.LVL39:
  63:src/MemoryAllocator.cpp **** 	if (!usedMemHead) return -1;
 335              		.loc 1 63 2
 336 01ac 63040510 		beqz	a0,.L40
 337 01b0 93060500 		mv	a3,a0
  64:src/MemoryAllocator.cpp **** 	ptr = (char*)ptr - sizeof(UsedMemSegment);
 338              		.loc 1 64 2
  64:src/MemoryAllocator.cpp **** 	ptr = (char*)ptr - sizeof(UsedMemSegment);
 339              		.loc 1 64 6 is_stmt 0
 340 01b4 97070000 		ld	a5,.LANCHOR0+16
 340      83B70700 
  64:src/MemoryAllocator.cpp **** 	ptr = (char*)ptr - sizeof(UsedMemSegment);
 341              		.loc 1 64 2
 342 01bc 63800710 		beqz	a5,.L41
  65:src/MemoryAllocator.cpp **** 	//trazenje adrese ptr u listi zauzetih segmenata
 343              		.loc 1 65 2 is_stmt 1
  65:src/MemoryAllocator.cpp **** 	//trazenje adrese ptr u listi zauzetih segmenata
 344              		.loc 1 65 6 is_stmt 0
 345 01c0 130585FE 		addi	a0,a0,-24
 346              	.LVL40:
  67:src/MemoryAllocator.cpp **** 	UsedMemSegment* prevUsed = nullptr;
 347              		.loc 1 67 2 is_stmt 1
  68:src/MemoryAllocator.cpp **** 	for (; currentUsed && currentUsed != ptr; prevUsed = currentUsed, currentUsed = currentUsed->next)
 348              		.loc 1 68 2
  68:src/MemoryAllocator.cpp **** 	for (; currentUsed && currentUsed != ptr; prevUsed = currentUsed, currentUsed = currentUsed->next)
 349              		.loc 1 68 18 is_stmt 0
 350 01c4 13070000 		li	a4,0
 351              	.LVL41:
 352              	.L30:
  69:src/MemoryAllocator.cpp **** 	if (currentUsed != ptr) return -1;    //adresa ne odgovara segmentu alociranom preko kmalloc
 353              		.loc 1 69 2 is_stmt 1 discriminator 3
  69:src/MemoryAllocator.cpp **** 	if (currentUsed != ptr) return -1;    //adresa ne odgovara segmentu alociranom preko kmalloc
 354              		.loc 1 69 21 discriminator 3
 355 01c8 638A0700 		beqz	a5,.L29
  69:src/MemoryAllocator.cpp **** 	if (currentUsed != ptr) return -1;    //adresa ne odgovara segmentu alociranom preko kmalloc
 356              		.loc 1 69 21 is_stmt 0 discriminator 1
 357 01cc 6388A700 		beq	a5,a0,.L29
  69:src/MemoryAllocator.cpp **** 	if (currentUsed != ptr) return -1;    //adresa ne odgovara segmentu alociranom preko kmalloc
GAS LISTING /tmp/cch5Pmmd.s 			page 10


 358              		.loc 1 69 2 is_stmt 1 discriminator 2
 359              	.LVL42:
  69:src/MemoryAllocator.cpp **** 	if (currentUsed != ptr) return -1;    //adresa ne odgovara segmentu alociranom preko kmalloc
 360              		.loc 1 69 53 is_stmt 0 discriminator 2
 361 01d0 13870700 		mv	a4,a5
  69:src/MemoryAllocator.cpp **** 	if (currentUsed != ptr) return -1;    //adresa ne odgovara segmentu alociranom preko kmalloc
 362              		.loc 1 69 80 discriminator 2
 363 01d4 83B70700 		ld	a5,0(a5)
 364              	.LVL43:
  69:src/MemoryAllocator.cpp **** 	if (currentUsed != ptr) return -1;    //adresa ne odgovara segmentu alociranom preko kmalloc
 365              		.loc 1 69 2 discriminator 2
 366 01d8 6FF01FFF 		j	.L30
 367              	.L29:
  70:src/MemoryAllocator.cpp **** 
 368              		.loc 1 70 2 is_stmt 1
 369 01dc 6394A70E 		bne	a5,a0,.L42
  62:src/MemoryAllocator.cpp **** 	if (!ptr) return 0;
 370              		.loc 1 62 39 is_stmt 0
 371 01e0 130101FE 		addi	sp,sp,-32
 372              		.cfi_def_cfa_offset 32
 373 01e4 233C1100 		sd	ra,24(sp)
 374 01e8 23388100 		sd	s0,16(sp)
 375 01ec 23349100 		sd	s1,8(sp)
 376              		.cfi_offset 1, -8
 377              		.cfi_offset 8, -16
 378              		.cfi_offset 9, -24
 379 01f0 13040102 		addi	s0,sp,32
 380              		.cfi_def_cfa 8, 0
  73:src/MemoryAllocator.cpp **** 	else usedMemHead = currentUsed->next;
 381              		.loc 1 73 2 is_stmt 1
 382 01f4 63080702 		beqz	a4,.L31
  73:src/MemoryAllocator.cpp **** 	else usedMemHead = currentUsed->next;
 383              		.loc 1 73 16 discriminator 1
  73:src/MemoryAllocator.cpp **** 	else usedMemHead = currentUsed->next;
 384              		.loc 1 73 46 is_stmt 0 discriminator 1
 385 01f8 83B70700 		ld	a5,0(a5)
 386              	.LVL44:
  73:src/MemoryAllocator.cpp **** 	else usedMemHead = currentUsed->next;
 387              		.loc 1 73 31 discriminator 1
 388 01fc 2330F700 		sd	a5,0(a4)
 389              	.LVL45:
 390              	.L32:
  77:src/MemoryAllocator.cpp **** 	if (!freeMemHead || ptr < (char*)freeMemHead) {
 391              		.loc 1 77 2 is_stmt 1
  78:src/MemoryAllocator.cpp **** 		prevFree = nullptr;
 392              		.loc 1 78 2
  78:src/MemoryAllocator.cpp **** 		prevFree = nullptr;
 393              		.loc 1 78 6 is_stmt 0
 394 0200 97070000 		ld	a5,.LANCHOR0+8
 394      83B70700 
  78:src/MemoryAllocator.cpp **** 		prevFree = nullptr;
 395              		.loc 1 78 2
 396 0208 63860702 		beqz	a5,.L43
  78:src/MemoryAllocator.cpp **** 		prevFree = nullptr;
 397              		.loc 1 78 19 discriminator 1
 398 020c 6368F502 		bgtu	a5,a0,.L44
 399              	.LVL46:
GAS LISTING /tmp/cch5Pmmd.s 			page 11


 400              	.L34:
  82:src/MemoryAllocator.cpp **** 	}
 401              		.loc 1 82 31 is_stmt 1 discriminator 3
 402 0210 93840700 		mv	s1,a5
  82:src/MemoryAllocator.cpp **** 	}
 403              		.loc 1 82 15 is_stmt 0 discriminator 3
 404 0214 83B70700 		ld	a5,0(a5)
 405              	.LVL47:
  82:src/MemoryAllocator.cpp **** 	}
 406              		.loc 1 82 31 discriminator 3
 407 0218 63840702 		beqz	a5,.L33
  82:src/MemoryAllocator.cpp **** 	}
 408              		.loc 1 82 31 discriminator 1
 409 021c E3EAA7FE 		bltu	a5,a0,.L34
 410 0220 6F000002 		j	.L33
 411              	.LVL48:
 412              	.L31:
  74:src/MemoryAllocator.cpp **** 
 413              		.loc 1 74 7 is_stmt 1
  74:src/MemoryAllocator.cpp **** 
 414              		.loc 1 74 34 is_stmt 0
 415 0224 83B70700 		ld	a5,0(a5)
 416              	.LVL49:
  74:src/MemoryAllocator.cpp **** 
 417              		.loc 1 74 19
 418 0228 17070000 		sd	a5,.LANCHOR0+16,a4
 418      2330F700 
 419              	.LVL50:
 420 0230 6FF01FFD 		j	.L32
 421              	.LVL51:
 422              	.L43:
  79:src/MemoryAllocator.cpp **** 	} else {
 423              		.loc 1 79 12
 424 0234 93840700 		mv	s1,a5
 425 0238 6F008000 		j	.L33
 426              	.L44:
 427 023c 93040000 		li	s1,0
 428              	.LVL52:
 429              	.L33:
  84:src/MemoryAllocator.cpp **** 	size_t segmentSize = ((UsedMemSegment*)ptr)->size;
 430              		.loc 1 84 2 is_stmt 1
  85:src/MemoryAllocator.cpp **** 	newFree->size = segmentSize;
 431              		.loc 1 85 2
  85:src/MemoryAllocator.cpp **** 	newFree->size = segmentSize;
 432              		.loc 1 85 9 is_stmt 0
 433 0240 83B706FF 		ld	a5,-16(a3)
 434              	.LVL53:
  86:src/MemoryAllocator.cpp **** 	newFree->prev = prevFree;
 435              		.loc 1 86 2 is_stmt 1
  86:src/MemoryAllocator.cpp **** 	newFree->prev = prevFree;
 436              		.loc 1 86 16 is_stmt 0
 437 0244 23BCF6FE 		sd	a5,-8(a3)
  87:src/MemoryAllocator.cpp **** 	if (prevFree) newFree->next = prevFree->next;
 438              		.loc 1 87 2 is_stmt 1
  87:src/MemoryAllocator.cpp **** 	if (prevFree) newFree->next = prevFree->next;
 439              		.loc 1 87 16 is_stmt 0
 440 0248 23B896FE 		sd	s1,-16(a3)
GAS LISTING /tmp/cch5Pmmd.s 			page 12


  88:src/MemoryAllocator.cpp **** 	else newFree->next = freeMemHead;
 441              		.loc 1 88 2 is_stmt 1
 442 024c 63860404 		beqz	s1,.L35
  88:src/MemoryAllocator.cpp **** 	else newFree->next = freeMemHead;
 443              		.loc 1 88 16 discriminator 1
  88:src/MemoryAllocator.cpp **** 	else newFree->next = freeMemHead;
 444              		.loc 1 88 42 is_stmt 0 discriminator 1
 445 0250 83B70400 		ld	a5,0(s1)
 446              	.LVL54:
  88:src/MemoryAllocator.cpp **** 	else newFree->next = freeMemHead;
 447              		.loc 1 88 30 discriminator 1
 448 0254 23B4F6FE 		sd	a5,-24(a3)
 449              	.L36:
  90:src/MemoryAllocator.cpp **** 	if (prevFree) prevFree->next = newFree;
 450              		.loc 1 90 2 is_stmt 1
  90:src/MemoryAllocator.cpp **** 	if (prevFree) prevFree->next = newFree;
 451              		.loc 1 90 15 is_stmt 0
 452 0258 83B786FE 		ld	a5,-24(a3)
  90:src/MemoryAllocator.cpp **** 	if (prevFree) prevFree->next = newFree;
 453              		.loc 1 90 2
 454 025c 63840700 		beqz	a5,.L37
  90:src/MemoryAllocator.cpp **** 	if (prevFree) prevFree->next = newFree;
 455              		.loc 1 90 21 is_stmt 1 discriminator 1
  90:src/MemoryAllocator.cpp **** 	if (prevFree) prevFree->next = newFree;
 456              		.loc 1 90 41 is_stmt 0 discriminator 1
 457 0260 23B4A700 		sd	a0,8(a5)
 458              	.LVL55:
 459              	.L37:
  91:src/MemoryAllocator.cpp **** 	else freeMemHead = newFree;
 460              		.loc 1 91 2 is_stmt 1
 461 0264 63820404 		beqz	s1,.L38
  91:src/MemoryAllocator.cpp **** 	else freeMemHead = newFree;
 462              		.loc 1 91 16 discriminator 1
  91:src/MemoryAllocator.cpp **** 	else freeMemHead = newFree;
 463              		.loc 1 91 31 is_stmt 0 discriminator 1
 464 0268 23B0A400 		sd	a0,0(s1)
 465              	.L39:
  95:src/MemoryAllocator.cpp **** 	tryToJoin(prevFree);
 466              		.loc 1 95 2 is_stmt 1
  95:src/MemoryAllocator.cpp **** 	tryToJoin(prevFree);
 467              		.loc 1 95 11 is_stmt 0
 468 026c 97000000 		call	_ZN15MemoryAllocator9tryToJoinEPNS_14FreeMemSegmentE
 468      E7800000 
 469              	.LVL56:
  96:src/MemoryAllocator.cpp **** 	return 0;
 470              		.loc 1 96 2 is_stmt 1
  96:src/MemoryAllocator.cpp **** 	return 0;
 471              		.loc 1 96 11 is_stmt 0
 472 0274 13850400 		mv	a0,s1
 473 0278 97000000 		call	_ZN15MemoryAllocator9tryToJoinEPNS_14FreeMemSegmentE
 473      E7800000 
 474              	.LVL57:
  97:src/MemoryAllocator.cpp **** }
 475              		.loc 1 97 2 is_stmt 1
  97:src/MemoryAllocator.cpp **** }
 476              		.loc 1 97 9 is_stmt 0
 477 0280 13050000 		li	a0,0
GAS LISTING /tmp/cch5Pmmd.s 			page 13


  98:src/MemoryAllocator.cpp **** 
 478              		.loc 1 98 1
 479 0284 83308101 		ld	ra,24(sp)
 480              		.cfi_remember_state
 481              		.cfi_restore 1
 482 0288 03340101 		ld	s0,16(sp)
 483              		.cfi_restore 8
 484              		.cfi_def_cfa 2, 32
 485 028c 83348100 		ld	s1,8(sp)
 486              		.cfi_restore 9
 487              	.LVL58:
 488 0290 13010102 		addi	sp,sp,32
 489              		.cfi_def_cfa_offset 0
 490 0294 67800000 		jr	ra
 491              	.LVL59:
 492              	.L35:
 493              		.cfi_restore_state
  89:src/MemoryAllocator.cpp **** 	if (newFree->next) newFree->next->prev = newFree;
 494              		.loc 1 89 7 is_stmt 1
  89:src/MemoryAllocator.cpp **** 	if (newFree->next) newFree->next->prev = newFree;
 495              		.loc 1 89 21 is_stmt 0
 496 0298 97070000 		ld	a5,.LANCHOR0+8
 496      83B70700 
 497              	.LVL60:
 498 02a0 23B4F6FE 		sd	a5,-24(a3)
 499 02a4 6FF05FFB 		j	.L36
 500              	.LVL61:
 501              	.L38:
  92:src/MemoryAllocator.cpp **** 
 502              		.loc 1 92 7 is_stmt 1
  92:src/MemoryAllocator.cpp **** 
 503              		.loc 1 92 19 is_stmt 0
 504 02a8 97070000 		sd	a0,.LANCHOR0+8,a5
 504      23B0A700 
 505 02b0 6FF0DFFB 		j	.L39
 506              	.LVL62:
 507              	.L40:
 508              		.cfi_def_cfa_register 2
 509              		.cfi_restore 1
 510              		.cfi_restore 8
 511              		.cfi_restore 9
  63:src/MemoryAllocator.cpp **** 	if (!usedMemHead) return -1;
 512              		.loc 1 63 19
 513 02b4 13050000 		li	a0,0
 514              	.LVL63:
 515 02b8 67800000 		ret
 516              	.LVL64:
 517              	.L41:
  64:src/MemoryAllocator.cpp **** 	ptr = (char*)ptr - sizeof(UsedMemSegment);
 518              		.loc 1 64 28
 519 02bc 1305F0FF 		li	a0,-1
 520              	.LVL65:
 521 02c0 67800000 		ret
 522              	.LVL66:
 523              	.L42:
  70:src/MemoryAllocator.cpp **** 
 524              		.loc 1 70 34
GAS LISTING /tmp/cch5Pmmd.s 			page 14


 525 02c4 1305F0FF 		li	a0,-1
 526              	.LVL67:
  98:src/MemoryAllocator.cpp **** 
 527              		.loc 1 98 1
 528 02c8 67800000 		ret
 529              		.cfi_endproc
 530              	.LFE4:
 532              		.align	2
 533              		.globl	_ZN15MemoryAllocator12checkPurposeEPvNS_7PurposeE
 535              	_ZN15MemoryAllocator12checkPurposeEPvNS_7PurposeE:
 536              	.LFB6:
 113:src/MemoryAllocator.cpp **** 
 114:src/MemoryAllocator.cpp **** bool MemoryAllocator::checkPurpose(void* ptr, MemoryAllocator::Purpose p) {
 537              		.loc 1 114 75 is_stmt 1
 538              		.cfi_startproc
 539              	.LVL68:
 540 02cc 130101FF 		addi	sp,sp,-16
 541              		.cfi_def_cfa_offset 16
 542 02d0 23348100 		sd	s0,8(sp)
 543              		.cfi_offset 8, -8
 544 02d4 13040101 		addi	s0,sp,16
 545              		.cfi_def_cfa 8, 0
 115:src/MemoryAllocator.cpp **** 	ptr = (char*)ptr - sizeof(UsedMemSegment);
 546              		.loc 1 115 2
 547              	.LVL69:
 116:src/MemoryAllocator.cpp **** 	return ((UsedMemSegment*)ptr)->purpose == p;
 548              		.loc 1 116 2
 549              		.loc 1 116 33 is_stmt 0
 550 02d8 032585FF 		lw	a0,-8(a0)
 551              	.LVL70:
 552              		.loc 1 116 44
 553 02dc 3305B540 		sub	a0,a0,a1
 117:src/MemoryAllocator.cpp **** }
 554              		.loc 1 117 1
 555 02e0 13351500 		seqz	a0,a0
 556 02e4 03348100 		ld	s0,8(sp)
 557              		.cfi_restore 8
 558              		.cfi_def_cfa 2, 16
 559 02e8 13010101 		addi	sp,sp,16
 560              		.cfi_def_cfa_offset 0
 561 02ec 67800000 		jr	ra
 562              		.cfi_endproc
 563              	.LFE6:
 565              		.globl	_ZN15MemoryAllocator11usedMemHeadE
 566              		.globl	_ZN15MemoryAllocator11freeMemHeadE
 567              		.globl	_ZN15MemoryAllocator11initializedE
 568              		.bss
 569              		.align	3
 570              		.set	.LANCHOR0,. + 0
 573              	_ZN15MemoryAllocator11initializedE:
 574 0000 00       		.zero	1
 575 0001 00000000 		.zero	7
 575      000000
 578              	_ZN15MemoryAllocator11freeMemHeadE:
 579 0008 00000000 		.zero	8
 579      00000000 
 582              	_ZN15MemoryAllocator11usedMemHeadE:
GAS LISTING /tmp/cch5Pmmd.s 			page 15


 583 0010 00000000 		.zero	8
 583      00000000 
 584              		.text
 585              	.Letext0:
 586              		.file 2 "src/../h/../lib/hw.h"
 587              		.file 3 "src/../h/MemoryAllocator.hpp"
GAS LISTING /tmp/cch5Pmmd.s 			page 16


DEFINED SYMBOLS
                            *ABS*:0000000000000000 MemoryAllocator.cpp
     /tmp/cch5Pmmd.s:9      .text:0000000000000000 _ZN15MemoryAllocator7kmallocEmNS_7PurposeE
     /tmp/cch5Pmmd.s:13     .text:0000000000000000 .L0 
     /tmp/cch5Pmmd.s:15     .text:0000000000000000 .L0 
     /tmp/cch5Pmmd.s:16     .text:0000000000000004 .L0 
     /tmp/cch5Pmmd.s:18     .text:0000000000000008 .L0 
     /tmp/cch5Pmmd.s:20     .text:000000000000000c .L0 
     /tmp/cch5Pmmd.s:22     .text:000000000000000c .L0 
     /tmp/cch5Pmmd.s:24     .text:0000000000000010 .L0 
     /tmp/cch5Pmmd.s:25     .text:0000000000000010 .L0 
     /tmp/cch5Pmmd.s:27     .text:0000000000000018 .L0 
     /tmp/cch5Pmmd.s:29     .text:000000000000001c .L0 
     /tmp/cch5Pmmd.s:30     .text:000000000000001c .L0 
     /tmp/cch5Pmmd.s:35     .text:0000000000000034 .L0 
     /tmp/cch5Pmmd.s:36     .text:0000000000000034 .L0 
     /tmp/cch5Pmmd.s:38     .text:0000000000000038 .L0 
     /tmp/cch5Pmmd.s:39     .text:0000000000000038 .L0 
     /tmp/cch5Pmmd.s:41     .text:000000000000003c .L0 
     /tmp/cch5Pmmd.s:43     .text:0000000000000040 .L0 
     /tmp/cch5Pmmd.s:44     .text:0000000000000040 .L0 
     /tmp/cch5Pmmd.s:47     .text:000000000000004c .L0 
     /tmp/cch5Pmmd.s:49     .text:0000000000000050 .L0 
     /tmp/cch5Pmmd.s:51     .text:0000000000000054 .L0 
     /tmp/cch5Pmmd.s:53     .text:0000000000000058 .L0 
     /tmp/cch5Pmmd.s:55     .text:000000000000005c .L0 
     /tmp/cch5Pmmd.s:56     .text:000000000000005c .L0 
     /tmp/cch5Pmmd.s:58     .text:0000000000000060 .L0 
     /tmp/cch5Pmmd.s:59     .text:0000000000000060 .L0 
     /tmp/cch5Pmmd.s:63     .text:0000000000000068 .L0 
     /tmp/cch5Pmmd.s:64     .text:0000000000000068 .L0 
     /tmp/cch5Pmmd.s:66     .text:000000000000006c .L0 
     /tmp/cch5Pmmd.s:69     .text:0000000000000070 .L0 
     /tmp/cch5Pmmd.s:73     .text:0000000000000078 .L0 
     /tmp/cch5Pmmd.s:76     .text:000000000000007c .L0 
     /tmp/cch5Pmmd.s:77     .text:000000000000007c .L0 
     /tmp/cch5Pmmd.s:81     .text:0000000000000080 .L0 
     /tmp/cch5Pmmd.s:82     .text:0000000000000080 .L0 
     /tmp/cch5Pmmd.s:86     .text:0000000000000088 .L0 
     /tmp/cch5Pmmd.s:89     .text:000000000000008c .L0 
     /tmp/cch5Pmmd.s:90     .text:000000000000008c .L0 
     /tmp/cch5Pmmd.s:92     .text:0000000000000090 .L0 
     /tmp/cch5Pmmd.s:94     .text:0000000000000094 .L0 
     /tmp/cch5Pmmd.s:95     .text:0000000000000094 .L0 
     /tmp/cch5Pmmd.s:98     .text:0000000000000098 .L0 
     /tmp/cch5Pmmd.s:99     .text:0000000000000098 .L0 
     /tmp/cch5Pmmd.s:101    .text:000000000000009c .L0 
     /tmp/cch5Pmmd.s:103    .text:00000000000000a0 .L0 
     /tmp/cch5Pmmd.s:104    .text:00000000000000a0 .L0 
     /tmp/cch5Pmmd.s:106    .text:00000000000000a4 .L0 
     /tmp/cch5Pmmd.s:108    .text:00000000000000a8 .L0 
     /tmp/cch5Pmmd.s:110    .text:00000000000000ac .L0 
     /tmp/cch5Pmmd.s:111    .text:00000000000000ac .L0 
     /tmp/cch5Pmmd.s:114    .text:00000000000000b0 .L0 
     /tmp/cch5Pmmd.s:115    .text:00000000000000b0 .L0 
     /tmp/cch5Pmmd.s:117    .text:00000000000000b4 .L0 
     /tmp/cch5Pmmd.s:119    .text:00000000000000b8 .L0 
GAS LISTING /tmp/cch5Pmmd.s 			page 17


     /tmp/cch5Pmmd.s:121    .text:00000000000000bc .L0 
     /tmp/cch5Pmmd.s:122    .text:00000000000000bc .L0 
     /tmp/cch5Pmmd.s:125    .text:00000000000000c0 .L0 
     /tmp/cch5Pmmd.s:126    .text:00000000000000c0 .L0 
     /tmp/cch5Pmmd.s:128    .text:00000000000000c8 .L0 
     /tmp/cch5Pmmd.s:132    .text:00000000000000cc .L0 
     /tmp/cch5Pmmd.s:133    .text:00000000000000cc .L0 
     /tmp/cch5Pmmd.s:134    .text:00000000000000cc .L0 
     /tmp/cch5Pmmd.s:136    .text:00000000000000d0 .L0 
     /tmp/cch5Pmmd.s:137    .text:00000000000000d0 .L0 
     /tmp/cch5Pmmd.s:140    .text:00000000000000d4 .L0 
     /tmp/cch5Pmmd.s:142    .text:00000000000000d4 .L0 
     /tmp/cch5Pmmd.s:143    .text:00000000000000d4 .L0 
     /tmp/cch5Pmmd.s:149    .text:00000000000000e0 .L0 
     /tmp/cch5Pmmd.s:154    .text:00000000000000e4 .L0 
     /tmp/cch5Pmmd.s:156    .text:00000000000000e8 .L0 
     /tmp/cch5Pmmd.s:159    .text:00000000000000ec .L0 
     /tmp/cch5Pmmd.s:160    .text:00000000000000ec .L0 
     /tmp/cch5Pmmd.s:162    .text:00000000000000f0 .L0 
     /tmp/cch5Pmmd.s:165    .text:00000000000000f4 .L0 
     /tmp/cch5Pmmd.s:171    .text:00000000000000f8 .L0 
     /tmp/cch5Pmmd.s:172    .text:00000000000000f8 .L0 
     /tmp/cch5Pmmd.s:173    .text:00000000000000f8 .L0 
     /tmp/cch5Pmmd.s:176    .text:00000000000000fc .L0 
     /tmp/cch5Pmmd.s:181    .text:0000000000000100 .L0 
     /tmp/cch5Pmmd.s:182    .text:0000000000000100 .L0 
     /tmp/cch5Pmmd.s:187    .text:000000000000010c .L0 
     /tmp/cch5Pmmd.s:189    .text:0000000000000110 .L0 
     /tmp/cch5Pmmd.s:190    .text:0000000000000110 .L0 
     /tmp/cch5Pmmd.s:193    .text:0000000000000114 .L0 
     /tmp/cch5Pmmd.s:195    .text:0000000000000118 .L0 
     /tmp/cch5Pmmd.s:196    .text:0000000000000118 .L0 
     /tmp/cch5Pmmd.s:200    .text:000000000000011c .L0 
     /tmp/cch5Pmmd.s:201    .text:000000000000011c .L0 
     /tmp/cch5Pmmd.s:207    .text:0000000000000120 .L0 
     /tmp/cch5Pmmd.s:208    .text:0000000000000124 .L0 
     /tmp/cch5Pmmd.s:209    .text:0000000000000124 .L0 
     /tmp/cch5Pmmd.s:210    .text:0000000000000124 .L0 
     /tmp/cch5Pmmd.s:212    .text:0000000000000128 .L0 
     /tmp/cch5Pmmd.s:216    .text:000000000000012c .L0 
     /tmp/cch5Pmmd.s:220    .text:000000000000012c .L0 
     /tmp/cch5Pmmd.s:221    .text:000000000000012c .L0 
     /tmp/cch5Pmmd.s:223    .text:0000000000000130 .L0 
     /tmp/cch5Pmmd.s:224    .text:0000000000000130 .L0 
     /tmp/cch5Pmmd.s:232    .text:000000000000013c .L0 
     /tmp/cch5Pmmd.s:235    .text:0000000000000144 .L0 
     /tmp/cch5Pmmd.s:241    .text:0000000000000144 _ZN15MemoryAllocator9tryToJoinEPNS_14FreeMemSegmentE
     /tmp/cch5Pmmd.s:244    .text:0000000000000144 .L0 
     /tmp/cch5Pmmd.s:246    .text:0000000000000144 .L0 
     /tmp/cch5Pmmd.s:247    .text:0000000000000148 .L0 
     /tmp/cch5Pmmd.s:249    .text:000000000000014c .L0 
     /tmp/cch5Pmmd.s:251    .text:0000000000000150 .L0 
     /tmp/cch5Pmmd.s:253    .text:0000000000000150 .L0 
     /tmp/cch5Pmmd.s:255    .text:0000000000000154 .L0 
     /tmp/cch5Pmmd.s:256    .text:0000000000000154 .L0 
     /tmp/cch5Pmmd.s:259    .text:0000000000000158 .L0 
     /tmp/cch5Pmmd.s:260    .text:0000000000000158 .L0 
GAS LISTING /tmp/cch5Pmmd.s 			page 18


     /tmp/cch5Pmmd.s:262    .text:000000000000015c .L0 
     /tmp/cch5Pmmd.s:265    .text:0000000000000160 .L0 
     /tmp/cch5Pmmd.s:266    .text:0000000000000160 .L0 
     /tmp/cch5Pmmd.s:267    .text:0000000000000160 .L0 
     /tmp/cch5Pmmd.s:269    .text:0000000000000164 .L0 
     /tmp/cch5Pmmd.s:271    .text:0000000000000168 .L0 
     /tmp/cch5Pmmd.s:275    .text:000000000000016c .L0 
     /tmp/cch5Pmmd.s:276    .text:0000000000000170 .L0 
     /tmp/cch5Pmmd.s:277    .text:0000000000000170 .L0 
     /tmp/cch5Pmmd.s:278    .text:0000000000000170 .L0 
     /tmp/cch5Pmmd.s:280    .text:0000000000000174 .L0 
     /tmp/cch5Pmmd.s:284    .text:0000000000000178 .L0 
     /tmp/cch5Pmmd.s:286    .text:0000000000000178 .L0 
     /tmp/cch5Pmmd.s:287    .text:0000000000000178 .L0 
     /tmp/cch5Pmmd.s:290    .text:000000000000017c .L0 
     /tmp/cch5Pmmd.s:295    .text:0000000000000184 .L0 
     /tmp/cch5Pmmd.s:296    .text:0000000000000184 .L0 
     /tmp/cch5Pmmd.s:299    .text:0000000000000188 .L0 
     /tmp/cch5Pmmd.s:302    .text:000000000000018c .L0 
     /tmp/cch5Pmmd.s:304    .text:0000000000000190 .L0 
     /tmp/cch5Pmmd.s:305    .text:0000000000000190 .L0 
     /tmp/cch5Pmmd.s:308    .text:0000000000000194 .L0 
     /tmp/cch5Pmmd.s:309    .text:0000000000000194 .L0 
     /tmp/cch5Pmmd.s:315    .text:000000000000019c .L0 
     /tmp/cch5Pmmd.s:321    .text:00000000000001a4 .L0 
     /tmp/cch5Pmmd.s:324    .text:00000000000001ac .L0 
     /tmp/cch5Pmmd.s:330    .text:00000000000001ac _ZN15MemoryAllocator5kfreeEPv
     /tmp/cch5Pmmd.s:333    .text:00000000000001ac .L0 
     /tmp/cch5Pmmd.s:335    .text:00000000000001ac .L0 
     /tmp/cch5Pmmd.s:336    .text:00000000000001ac .L0 
     /tmp/cch5Pmmd.s:339    .text:00000000000001b4 .L0 
     /tmp/cch5Pmmd.s:340    .text:00000000000001b4 .L0 
     /tmp/cch5Pmmd.s:342    .text:00000000000001bc .L0 
     /tmp/cch5Pmmd.s:344    .text:00000000000001c0 .L0 
     /tmp/cch5Pmmd.s:345    .text:00000000000001c0 .L0 
     /tmp/cch5Pmmd.s:348    .text:00000000000001c4 .L0 
     /tmp/cch5Pmmd.s:349    .text:00000000000001c4 .L0 
     /tmp/cch5Pmmd.s:350    .text:00000000000001c4 .L0 
     /tmp/cch5Pmmd.s:354    .text:00000000000001c8 .L0 
     /tmp/cch5Pmmd.s:355    .text:00000000000001c8 .L0 
     /tmp/cch5Pmmd.s:357    .text:00000000000001cc .L0 
     /tmp/cch5Pmmd.s:360    .text:00000000000001d0 .L0 
     /tmp/cch5Pmmd.s:361    .text:00000000000001d0 .L0 
     /tmp/cch5Pmmd.s:363    .text:00000000000001d4 .L0 
     /tmp/cch5Pmmd.s:366    .text:00000000000001d8 .L0 
     /tmp/cch5Pmmd.s:369    .text:00000000000001dc .L0 
     /tmp/cch5Pmmd.s:371    .text:00000000000001e0 .L0 
     /tmp/cch5Pmmd.s:372    .text:00000000000001e4 .L0 
     /tmp/cch5Pmmd.s:376    .text:00000000000001f0 .L0 
     /tmp/cch5Pmmd.s:377    .text:00000000000001f0 .L0 
     /tmp/cch5Pmmd.s:378    .text:00000000000001f0 .L0 
     /tmp/cch5Pmmd.s:380    .text:00000000000001f4 .L0 
     /tmp/cch5Pmmd.s:382    .text:00000000000001f4 .L0 
     /tmp/cch5Pmmd.s:384    .text:00000000000001f8 .L0 
     /tmp/cch5Pmmd.s:385    .text:00000000000001f8 .L0 
     /tmp/cch5Pmmd.s:388    .text:00000000000001fc .L0 
     /tmp/cch5Pmmd.s:392    .text:0000000000000200 .L0 
GAS LISTING /tmp/cch5Pmmd.s 			page 19


     /tmp/cch5Pmmd.s:393    .text:0000000000000200 .L0 
     /tmp/cch5Pmmd.s:394    .text:0000000000000200 .L0 
     /tmp/cch5Pmmd.s:396    .text:0000000000000208 .L0 
     /tmp/cch5Pmmd.s:398    .text:000000000000020c .L0 
     /tmp/cch5Pmmd.s:402    .text:0000000000000210 .L0 
     /tmp/cch5Pmmd.s:404    .text:0000000000000214 .L0 
     /tmp/cch5Pmmd.s:407    .text:0000000000000218 .L0 
     /tmp/cch5Pmmd.s:409    .text:000000000000021c .L0 
     /tmp/cch5Pmmd.s:414    .text:0000000000000224 .L0 
     /tmp/cch5Pmmd.s:415    .text:0000000000000224 .L0 
     /tmp/cch5Pmmd.s:418    .text:0000000000000228 .L0 
     /tmp/cch5Pmmd.s:424    .text:0000000000000234 .L0 
     /tmp/cch5Pmmd.s:431    .text:0000000000000240 .L0 
     /tmp/cch5Pmmd.s:432    .text:0000000000000240 .L0 
     /tmp/cch5Pmmd.s:433    .text:0000000000000240 .L0 
     /tmp/cch5Pmmd.s:436    .text:0000000000000244 .L0 
     /tmp/cch5Pmmd.s:437    .text:0000000000000244 .L0 
     /tmp/cch5Pmmd.s:439    .text:0000000000000248 .L0 
     /tmp/cch5Pmmd.s:440    .text:0000000000000248 .L0 
     /tmp/cch5Pmmd.s:442    .text:000000000000024c .L0 
     /tmp/cch5Pmmd.s:444    .text:0000000000000250 .L0 
     /tmp/cch5Pmmd.s:445    .text:0000000000000250 .L0 
     /tmp/cch5Pmmd.s:448    .text:0000000000000254 .L0 
     /tmp/cch5Pmmd.s:451    .text:0000000000000258 .L0 
     /tmp/cch5Pmmd.s:452    .text:0000000000000258 .L0 
     /tmp/cch5Pmmd.s:454    .text:000000000000025c .L0 
     /tmp/cch5Pmmd.s:456    .text:0000000000000260 .L0 
     /tmp/cch5Pmmd.s:457    .text:0000000000000260 .L0 
     /tmp/cch5Pmmd.s:461    .text:0000000000000264 .L0 
     /tmp/cch5Pmmd.s:463    .text:0000000000000268 .L0 
     /tmp/cch5Pmmd.s:464    .text:0000000000000268 .L0 
     /tmp/cch5Pmmd.s:467    .text:000000000000026c .L0 
     /tmp/cch5Pmmd.s:468    .text:000000000000026c .L0 
     /tmp/cch5Pmmd.s:471    .text:0000000000000274 .L0 
     /tmp/cch5Pmmd.s:472    .text:0000000000000274 .L0 
     /tmp/cch5Pmmd.s:476    .text:0000000000000280 .L0 
     /tmp/cch5Pmmd.s:477    .text:0000000000000280 .L0 
     /tmp/cch5Pmmd.s:479    .text:0000000000000284 .L0 
     /tmp/cch5Pmmd.s:480    .text:0000000000000288 .L0 
     /tmp/cch5Pmmd.s:481    .text:0000000000000288 .L0 
     /tmp/cch5Pmmd.s:483    .text:000000000000028c .L0 
     /tmp/cch5Pmmd.s:484    .text:000000000000028c .L0 
     /tmp/cch5Pmmd.s:486    .text:0000000000000290 .L0 
     /tmp/cch5Pmmd.s:489    .text:0000000000000294 .L0 
     /tmp/cch5Pmmd.s:493    .text:0000000000000298 .L0 
     /tmp/cch5Pmmd.s:495    .text:0000000000000298 .L0 
     /tmp/cch5Pmmd.s:496    .text:0000000000000298 .L0 
     /tmp/cch5Pmmd.s:503    .text:00000000000002a8 .L0 
     /tmp/cch5Pmmd.s:504    .text:00000000000002a8 .L0 
     /tmp/cch5Pmmd.s:508    .text:00000000000002b4 .L0 
     /tmp/cch5Pmmd.s:509    .text:00000000000002b4 .L0 
     /tmp/cch5Pmmd.s:510    .text:00000000000002b4 .L0 
     /tmp/cch5Pmmd.s:511    .text:00000000000002b4 .L0 
     /tmp/cch5Pmmd.s:513    .text:00000000000002b4 .L0 
     /tmp/cch5Pmmd.s:519    .text:00000000000002bc .L0 
     /tmp/cch5Pmmd.s:525    .text:00000000000002c4 .L0 
     /tmp/cch5Pmmd.s:528    .text:00000000000002c8 .L0 
GAS LISTING /tmp/cch5Pmmd.s 			page 20


     /tmp/cch5Pmmd.s:529    .text:00000000000002cc .L0 
     /tmp/cch5Pmmd.s:535    .text:00000000000002cc _ZN15MemoryAllocator12checkPurposeEPvNS_7PurposeE
     /tmp/cch5Pmmd.s:538    .text:00000000000002cc .L0 
     /tmp/cch5Pmmd.s:540    .text:00000000000002cc .L0 
     /tmp/cch5Pmmd.s:541    .text:00000000000002d0 .L0 
     /tmp/cch5Pmmd.s:543    .text:00000000000002d4 .L0 
     /tmp/cch5Pmmd.s:545    .text:00000000000002d8 .L0 
     /tmp/cch5Pmmd.s:548    .text:00000000000002d8 .L0 
     /tmp/cch5Pmmd.s:549    .text:00000000000002d8 .L0 
     /tmp/cch5Pmmd.s:550    .text:00000000000002d8 .L0 
     /tmp/cch5Pmmd.s:553    .text:00000000000002dc .L0 
     /tmp/cch5Pmmd.s:555    .text:00000000000002e0 .L0 
     /tmp/cch5Pmmd.s:557    .text:00000000000002e8 .L0 
     /tmp/cch5Pmmd.s:558    .text:00000000000002e8 .L0 
     /tmp/cch5Pmmd.s:560    .text:00000000000002ec .L0 
     /tmp/cch5Pmmd.s:562    .text:00000000000002f0 .L0 
     /tmp/cch5Pmmd.s:582    .bss:0000000000000010 _ZN15MemoryAllocator11usedMemHeadE
     /tmp/cch5Pmmd.s:578    .bss:0000000000000008 _ZN15MemoryAllocator11freeMemHeadE
     /tmp/cch5Pmmd.s:573    .bss:0000000000000000 _ZN15MemoryAllocator11initializedE
     /tmp/cch5Pmmd.s:570    .bss:0000000000000000 .LANCHOR0
     /tmp/cch5Pmmd.s:588    .text:00000000000002f0 .L0 
     /tmp/cch5Pmmd.s:25     .text:0000000000000010 .L0 
     /tmp/cch5Pmmd.s:30     .text:000000000000001c .L0 
     /tmp/cch5Pmmd.s:32     .text:0000000000000028 .L0 
     /tmp/cch5Pmmd.s:44     .text:0000000000000040 .L0 
     /tmp/cch5Pmmd.s:82     .text:0000000000000080 .L0 
     /tmp/cch5Pmmd.s:126    .text:00000000000000c0 .L0 
     /tmp/cch5Pmmd.s:143    .text:00000000000000d4 .L0 
     /tmp/cch5Pmmd.s:182    .text:0000000000000100 .L0 
     /tmp/cch5Pmmd.s:224    .text:0000000000000130 .L0 
     /tmp/cch5Pmmd.s:340    .text:00000000000001b4 .L0 
     /tmp/cch5Pmmd.s:394    .text:0000000000000200 .L0 
     /tmp/cch5Pmmd.s:418    .text:0000000000000228 .L0 
     /tmp/cch5Pmmd.s:496    .text:0000000000000298 .L0 
     /tmp/cch5Pmmd.s:504    .text:00000000000002a8 .L0 
     /tmp/cch5Pmmd.s:228    .text:000000000000013c .L14
     /tmp/cch5Pmmd.s:61     .text:0000000000000068 .L3
     /tmp/cch5Pmmd.s:71     .text:0000000000000078 .L4
     /tmp/cch5Pmmd.s:203    .text:0000000000000120 .L1
     /tmp/cch5Pmmd.s:167    .text:00000000000000f8 .L16
     /tmp/cch5Pmmd.s:112    .text:00000000000000b0 .L7
     /tmp/cch5Pmmd.s:123    .text:00000000000000c0 .L8
     /tmp/cch5Pmmd.s:178    .text:0000000000000100 .L17
     /tmp/cch5Pmmd.s:185    .text:000000000000010c .L10
     /tmp/cch5Pmmd.s:151    .text:00000000000000e4 .L11
     /tmp/cch5Pmmd.s:84     .text:0000000000000088 .L6
     /tmp/cch5Pmmd.s:129    .text:00000000000000cc .L9
     /tmp/cch5Pmmd.s:215    .text:000000000000012c .L18
     /tmp/cch5Pmmd.s:198    .text:000000000000011c .L13
     /tmp/cch5Pmmd.s:313    .text:000000000000019c .L22
     /tmp/cch5Pmmd.s:319    .text:00000000000001a4 .L23
     /tmp/cch5Pmmd.s:283    .text:0000000000000178 .L26
     /tmp/cch5Pmmd.s:306    .text:0000000000000194 .L21
     /tmp/cch5Pmmd.s:273    .text:000000000000016c .L20
     /tmp/cch5Pmmd.s:507    .text:00000000000002b4 .L40
     /tmp/cch5Pmmd.s:517    .text:00000000000002bc .L41
     /tmp/cch5Pmmd.s:367    .text:00000000000001dc .L29
GAS LISTING /tmp/cch5Pmmd.s 			page 21


     /tmp/cch5Pmmd.s:352    .text:00000000000001c8 .L30
     /tmp/cch5Pmmd.s:523    .text:00000000000002c4 .L42
     /tmp/cch5Pmmd.s:412    .text:0000000000000224 .L31
     /tmp/cch5Pmmd.s:422    .text:0000000000000234 .L43
     /tmp/cch5Pmmd.s:426    .text:000000000000023c .L44
     /tmp/cch5Pmmd.s:429    .text:0000000000000240 .L33
     /tmp/cch5Pmmd.s:400    .text:0000000000000210 .L34
     /tmp/cch5Pmmd.s:390    .text:0000000000000200 .L32
     /tmp/cch5Pmmd.s:492    .text:0000000000000298 .L35
     /tmp/cch5Pmmd.s:459    .text:0000000000000264 .L37
     /tmp/cch5Pmmd.s:501    .text:00000000000002a8 .L38
     /tmp/cch5Pmmd.s:449    .text:0000000000000258 .L36
     /tmp/cch5Pmmd.s:465    .text:000000000000026c .L39
     /tmp/cch5Pmmd.s:1153   .debug_abbrev:0000000000000000 .Ldebug_abbrev0
     /tmp/cch5Pmmd.s:2334   .debug_str:000000000000017c .LASF55
     /tmp/cch5Pmmd.s:2364   .debug_str:0000000000000317 .LASF56
     /tmp/cch5Pmmd.s:2376   .debug_str:000000000000036f .LASF57
     /tmp/cch5Pmmd.s:5      .text:0000000000000000 .Ltext0
     /tmp/cch5Pmmd.s:585    .text:00000000000002f0 .Letext0
     /tmp/cch5Pmmd.s:2272   .debug_line:0000000000000000 .Ldebug_line0
     /tmp/cch5Pmmd.s:2344   .debug_str:000000000000028a .LASF0
     /tmp/cch5Pmmd.s:2318   .debug_str:000000000000010c .LASF1
     /tmp/cch5Pmmd.s:2312   .debug_str:00000000000000e0 .LASF2
     /tmp/cch5Pmmd.s:2288   .debug_str:0000000000000055 .LASF4
     /tmp/cch5Pmmd.s:2316   .debug_str:00000000000000fa .LASF3
     /tmp/cch5Pmmd.s:2280   .debug_str:000000000000002f .LASF5
     /tmp/cch5Pmmd.s:2276   .debug_str:000000000000000c .LASF6
     /tmp/cch5Pmmd.s:2308   .debug_str:00000000000000be .LASF7
     /tmp/cch5Pmmd.s:2358   .debug_str:00000000000002e4 .LASF8
     /tmp/cch5Pmmd.s:2286   .debug_str:0000000000000047 .LASF9
     /tmp/cch5Pmmd.s:2398   .debug_str:0000000000000470 .LASF10
     /tmp/cch5Pmmd.s:2310   .debug_str:00000000000000d1 .LASF11
     /tmp/cch5Pmmd.s:2386   .debug_str:00000000000003de .LASF12
     /tmp/cch5Pmmd.s:2366   .debug_str:000000000000032f .LASF13
     /tmp/cch5Pmmd.s:2320   .debug_str:000000000000011f .LASF14
     /tmp/cch5Pmmd.s:2300   .debug_str:000000000000008f .LASF15
     /tmp/cch5Pmmd.s:2362   .debug_str:0000000000000301 .LASF16
     /tmp/cch5Pmmd.s:2278   .debug_str:000000000000001f .LASF58
     /tmp/cch5Pmmd.s:2368   .debug_str:000000000000033f .LASF59
     /tmp/cch5Pmmd.s:2328   .debug_str:0000000000000156 .LASF17
     /tmp/cch5Pmmd.s:2296   .debug_str:0000000000000076 .LASF18
     /tmp/cch5Pmmd.s:2332   .debug_str:0000000000000175 .LASF19
     /tmp/cch5Pmmd.s:2326   .debug_str:0000000000000151 .LASF20
     /tmp/cch5Pmmd.s:2380   .debug_str:0000000000000395 .LASF21
     /tmp/cch5Pmmd.s:2374   .debug_str:0000000000000360 .LASF25
     /tmp/cch5Pmmd.s:2282   .debug_str:0000000000000036 .LASF22
     /tmp/cch5Pmmd.s:2396   .debug_str:000000000000046b .LASF23
     /tmp/cch5Pmmd.s:2394   .debug_str:0000000000000466 .LASF24
     /tmp/cch5Pmmd.s:2298   .debug_str:0000000000000080 .LASF26
     /tmp/cch5Pmmd.s:2336   .debug_str:0000000000000240 .LASF27
     /tmp/cch5Pmmd.s:2322   .debug_str:000000000000012b .LASF28
     /tmp/cch5Pmmd.s:2338   .debug_str:0000000000000248 .LASF30
     /tmp/cch5Pmmd.s:2306   .debug_str:00000000000000b8 .LASF29
     /tmp/cch5Pmmd.s:2324   .debug_str:0000000000000133 .LASF31
     /tmp/cch5Pmmd.s:2360   .debug_str:00000000000002f4 .LASF32
     /tmp/cch5Pmmd.s:2388   .debug_str:00000000000003ee .LASF33
     /tmp/cch5Pmmd.s:2330   .debug_str:000000000000015c .LASF60
GAS LISTING /tmp/cch5Pmmd.s 			page 22


     /tmp/cch5Pmmd.s:2348   .debug_str:00000000000002a3 .LASF34
     /tmp/cch5Pmmd.s:2284   .debug_str:000000000000003b .LASF35
     /tmp/cch5Pmmd.s:2314   .debug_str:00000000000000ee .LASF36
     /tmp/cch5Pmmd.s:2384   .debug_str:00000000000003d4 .LASF61
     /tmp/cch5Pmmd.s:2382   .debug_str:000000000000039f .LASF62
     /tmp/cch5Pmmd.s:2292   .debug_str:0000000000000065 .LASF37
     /tmp/cch5Pmmd.s:2356   .debug_str:00000000000002c1 .LASF38
     /tmp/cch5Pmmd.s:2392   .debug_str:0000000000000443 .LASF39
     /tmp/cch5Pmmd.s:2390   .debug_str:0000000000000420 .LASF40
     /tmp/cch5Pmmd.s:536    .text:00000000000002cc .LFB6
     /tmp/cch5Pmmd.s:563    .text:00000000000002f0 .LFE6
     /tmp/cch5Pmmd.s:1665   .debug_loc:0000000000000000 .LLST18
     /tmp/cch5Pmmd.s:242    .text:0000000000000144 .LFB5
     /tmp/cch5Pmmd.s:325    .text:00000000000001ac .LFE5
     /tmp/cch5Pmmd.s:2378   .debug_str:000000000000038d .LASF41
     /tmp/cch5Pmmd.s:1687   .debug_loc:0000000000000050 .LLST7
     /tmp/cch5Pmmd.s:2304   .debug_str:00000000000000ad .LASF42
     /tmp/cch5Pmmd.s:1734   .debug_loc:0000000000000104 .LLST8
     /tmp/cch5Pmmd.s:2290   .debug_str:000000000000005c .LASF43
     /tmp/cch5Pmmd.s:1770   .debug_loc:0000000000000171 .LLST9
     /tmp/cch5Pmmd.s:2354   .debug_str:00000000000002bb .LASF44
     /tmp/cch5Pmmd.s:1804   .debug_loc:00000000000001eb .LLST10
     /tmp/cch5Pmmd.s:2372   .debug_str:0000000000000350 .LASF45
     /tmp/cch5Pmmd.s:1824   .debug_loc:0000000000000248 .LLST11
     /tmp/cch5Pmmd.s:2350   .debug_str:00000000000002af .LASF46
     /tmp/cch5Pmmd.s:331    .text:00000000000001ac .LFB4
     /tmp/cch5Pmmd.s:530    .text:00000000000002cc .LFE4
     /tmp/cch5Pmmd.s:1879   .debug_loc:00000000000002d7 .LLST12
     /tmp/cch5Pmmd.s:2346   .debug_str:0000000000000297 .LASF47
     /tmp/cch5Pmmd.s:1928   .debug_loc:000000000000039c .LLST13
     /tmp/cch5Pmmd.s:2370   .debug_str:0000000000000347 .LASF48
     /tmp/cch5Pmmd.s:1952   .debug_loc:000000000000040c .LLST14
     /tmp/cch5Pmmd.s:2340   .debug_str:0000000000000273 .LASF49
     /tmp/cch5Pmmd.s:1980   .debug_loc:000000000000048f .LLST15
     /tmp/cch5Pmmd.s:2302   .debug_str:00000000000000a5 .LASF50
     /tmp/cch5Pmmd.s:2009   .debug_loc:0000000000000513 .LLST16
     /tmp/cch5Pmmd.s:2274   .debug_str:0000000000000000 .LASF51
     /tmp/cch5Pmmd.s:2029   .debug_loc:0000000000000561 .LLST17
     /tmp/cch5Pmmd.s:469    .text:0000000000000274 .LVL56
     /tmp/cch5Pmmd.s:474    .text:0000000000000280 .LVL57
     /tmp/cch5Pmmd.s:10     .text:0000000000000000 .LFB3
     /tmp/cch5Pmmd.s:236    .text:0000000000000144 .LFE3
     /tmp/cch5Pmmd.s:2050   .debug_loc:00000000000005bf .LLST0
     /tmp/cch5Pmmd.s:2352   .debug_str:00000000000002b4 .LASF52
     /tmp/cch5Pmmd.s:2098   .debug_loc:0000000000000683 .LLST1
     /tmp/cch5Pmmd.s:2250   .debug_ranges:0000000000000000 .Ldebug_ranges0
     /tmp/cch5Pmmd.s:2105   .debug_loc:00000000000006a6 .LLST2
     /tmp/cch5Pmmd.s:2342   .debug_str:000000000000027c .LASF53
     /tmp/cch5Pmmd.s:2116   .debug_loc:00000000000006dc .LLST3
     /tmp/cch5Pmmd.s:2294   .debug_str:000000000000006a .LASF54
     /tmp/cch5Pmmd.s:2166   .debug_loc:0000000000000775 .LLST4
     /tmp/cch5Pmmd.s:2181   .debug_loc:00000000000007be .LLST5
     /tmp/cch5Pmmd.s:2209   .debug_loc:0000000000000841 .LLST6
     /tmp/cch5Pmmd.s:539    .text:00000000000002cc .LVL68
     /tmp/cch5Pmmd.s:547    .text:00000000000002d8 .LVL69
     /tmp/cch5Pmmd.s:551    .text:00000000000002dc .LVL70
     /tmp/cch5Pmmd.s:245    .text:0000000000000144 .LVL24
GAS LISTING /tmp/cch5Pmmd.s 			page 23


     /tmp/cch5Pmmd.s:272    .text:000000000000016c .LVL27
     /tmp/cch5Pmmd.s:282    .text:0000000000000178 .LVL28
     /tmp/cch5Pmmd.s:310    .text:0000000000000198 .LVL34
     /tmp/cch5Pmmd.s:312    .text:000000000000019c .LVL35
     /tmp/cch5Pmmd.s:316    .text:00000000000001a0 .LVL36
     /tmp/cch5Pmmd.s:318    .text:00000000000001a4 .LVL37
     /tmp/cch5Pmmd.s:322    .text:00000000000001a8 .LVL38
     /tmp/cch5Pmmd.s:257    .text:0000000000000158 .LVL25
     /tmp/cch5Pmmd.s:297    .text:0000000000000188 .LVL32
     /tmp/cch5Pmmd.s:300    .text:000000000000018c .LVL33
     /tmp/cch5Pmmd.s:263    .text:0000000000000160 .LVL26
     /tmp/cch5Pmmd.s:288    .text:000000000000017c .LVL29
     /tmp/cch5Pmmd.s:291    .text:0000000000000180 .LVL30
     /tmp/cch5Pmmd.s:293    .text:0000000000000184 .LVL31
     /tmp/cch5Pmmd.s:334    .text:00000000000001ac .LVL39
     /tmp/cch5Pmmd.s:346    .text:00000000000001c4 .LVL40
     /tmp/cch5Pmmd.s:491    .text:0000000000000298 .LVL59
     /tmp/cch5Pmmd.s:514    .text:00000000000002b8 .LVL63
     /tmp/cch5Pmmd.s:516    .text:00000000000002bc .LVL64
     /tmp/cch5Pmmd.s:520    .text:00000000000002c0 .LVL65
     /tmp/cch5Pmmd.s:522    .text:00000000000002c4 .LVL66
     /tmp/cch5Pmmd.s:526    .text:00000000000002c8 .LVL67
     /tmp/cch5Pmmd.s:359    .text:00000000000001d0 .LVL42
     /tmp/cch5Pmmd.s:364    .text:00000000000001d8 .LVL43
     /tmp/cch5Pmmd.s:386    .text:00000000000001fc .LVL44
     /tmp/cch5Pmmd.s:411    .text:0000000000000224 .LVL48
     /tmp/cch5Pmmd.s:416    .text:0000000000000228 .LVL49
     /tmp/cch5Pmmd.s:351    .text:00000000000001c8 .LVL41
     /tmp/cch5Pmmd.s:389    .text:0000000000000200 .LVL45
     /tmp/cch5Pmmd.s:419    .text:0000000000000230 .LVL50
     /tmp/cch5Pmmd.s:399    .text:0000000000000210 .LVL46
     /tmp/cch5Pmmd.s:405    .text:0000000000000218 .LVL47
     /tmp/cch5Pmmd.s:421    .text:0000000000000234 .LVL51
     /tmp/cch5Pmmd.s:428    .text:0000000000000240 .LVL52
     /tmp/cch5Pmmd.s:487    .text:0000000000000290 .LVL58
     /tmp/cch5Pmmd.s:506    .text:00000000000002b4 .LVL62
     /tmp/cch5Pmmd.s:434    .text:0000000000000244 .LVL53
     /tmp/cch5Pmmd.s:446    .text:0000000000000254 .LVL54
     /tmp/cch5Pmmd.s:458    .text:0000000000000264 .LVL55
     /tmp/cch5Pmmd.s:497    .text:00000000000002a0 .LVL60
     /tmp/cch5Pmmd.s:500    .text:00000000000002a8 .LVL61
     /tmp/cch5Pmmd.s:14     .text:0000000000000000 .LVL0
     /tmp/cch5Pmmd.s:67     .text:0000000000000070 .LVL1
     /tmp/cch5Pmmd.s:78     .text:0000000000000080 .LVL3
     /tmp/cch5Pmmd.s:146    .text:00000000000000e0 .LVL9
     /tmp/cch5Pmmd.s:166    .text:00000000000000f8 .LVL13
     /tmp/cch5Pmmd.s:184    .text:000000000000010c .LVL16
     /tmp/cch5Pmmd.s:197    .text:000000000000011c .LVL18
     /tmp/cch5Pmmd.s:214    .text:000000000000012c .LVL20
     /tmp/cch5Pmmd.s:227    .text:000000000000013c .LVL22
     /tmp/cch5Pmmd.s:233    .text:0000000000000140 .LVL23
     /tmp/cch5Pmmd.s:74     .text:000000000000007c .LVL2
     /tmp/cch5Pmmd.s:83     .text:0000000000000088 .LVL4
     /tmp/cch5Pmmd.s:202    .text:0000000000000120 .LVL19
     /tmp/cch5Pmmd.s:96     .text:0000000000000098 .LVL5
     /tmp/cch5Pmmd.s:144    .text:00000000000000dc .LVL8
     /tmp/cch5Pmmd.s:177    .text:0000000000000100 .LVL15
GAS LISTING /tmp/cch5Pmmd.s 			page 24


     /tmp/cch5Pmmd.s:131    .text:00000000000000cc .LVL6
     /tmp/cch5Pmmd.s:139    .text:00000000000000d4 .LVL7
     /tmp/cch5Pmmd.s:150    .text:00000000000000e4 .LVL10
     /tmp/cch5Pmmd.s:158    .text:00000000000000ec .LVL11
     /tmp/cch5Pmmd.s:163    .text:00000000000000f4 .LVL12
     /tmp/cch5Pmmd.s:191    .text:0000000000000114 .LVL17
     /tmp/cch5Pmmd.s:225    .text:0000000000000138 .LVL21
     /tmp/cch5Pmmd.s:589    .debug_info:0000000000000000 .Ldebug_info0
     /tmp/cch5Pmmd.s:80     .text:0000000000000080 .LBB2
     /tmp/cch5Pmmd.s:205    .text:0000000000000120 .LBE2
     /tmp/cch5Pmmd.s:217    .text:000000000000012c .LBB8
     /tmp/cch5Pmmd.s:230    .text:000000000000013c .LBE8
     /tmp/cch5Pmmd.s:87     .text:000000000000008c .LBB3
     /tmp/cch5Pmmd.s:170    .text:00000000000000f8 .LBE3
     /tmp/cch5Pmmd.s:179    .text:0000000000000100 .LBB6
     /tmp/cch5Pmmd.s:204    .text:0000000000000120 .LBE6
     /tmp/cch5Pmmd.s:218    .text:000000000000012c .LBB7
     /tmp/cch5Pmmd.s:229    .text:000000000000013c .LBE7
     /tmp/cch5Pmmd.s:141    .text:00000000000000d4 .LBB4
     /tmp/cch5Pmmd.s:147    .text:00000000000000e0 .LBE4
     /tmp/cch5Pmmd.s:152    .text:00000000000000e4 .LBB5
     /tmp/cch5Pmmd.s:168    .text:00000000000000f8 .LBE5

UNDEFINED SYMBOLS
HEAP_START_ADDR
HEAP_END_ADDR
