GAS LISTING /tmp/ccV6QePY.s 			page 1


   1              		.file	"Riscv.cpp"
   2              		.option pic
   3              		.option norelax
   4              		.text
   5              	.Ltext0:
   6              		.align	2
   7              		.globl	_ZN5Riscv19returnFromInterruptEv
   9              	_ZN5Riscv19returnFromInterruptEv:
  10              	.LFB15:
  11              		.file 1 "src/Riscv.cpp"
   1:src/Riscv.cpp **** //
   2:src/Riscv.cpp **** // Created by os on 5/17/23.
   3:src/Riscv.cpp **** //
   4:src/Riscv.cpp **** 
   5:src/Riscv.cpp **** #include "../h/Riscv.hpp"
   6:src/Riscv.cpp **** 
   7:src/Riscv.cpp **** void Riscv::returnFromInterrupt() {
  12              		.loc 1 7 35
  13              		.cfi_startproc
  14 0000 130101FF 		addi	sp,sp,-16
  15              		.cfi_def_cfa_offset 16
  16 0004 23348100 		sd	s0,8(sp)
  17              		.cfi_offset 8, -8
  18 0008 13040101 		addi	s0,sp,16
  19              		.cfi_def_cfa 8, 0
   8:src/Riscv.cpp **** 	//ra pokazuje iza ove funkcije na nastavak wrappera
   9:src/Riscv.cpp **** 	__asm__ volatile("csrw sepc, ra");
  20              		.loc 1 9 2
  21              		.loc 1 9 35 is_stmt 0
  22              	#APP
  23              	# 9 "src/Riscv.cpp" 1
  10              		__asm__ volatile("sret");
  24              		csrw sepc, ra
  25              	# 0 "" 2
  26              		.loc 1 10 2 is_stmt 1
  27              		.loc 1 10 26 is_stmt 0
  28              	# 10 "src/Riscv.cpp" 1
  11              	}...
  29              		sret
  30              	# 0 "" 2
  31              		.loc 1 11 1
  32              	#NO_APP
  33 0014 03348100 		ld	s0,8(sp)
  34              		.cfi_restore 8
  35              		.cfi_def_cfa 2, 16
  36 0018 13010101 		addi	sp,sp,16
  37              		.cfi_def_cfa_offset 0
  38 001c 67800000 		jr	ra
  39              		.cfi_endproc
  40              	.LFE15:
  42              	.Letext0:
  43              		.file 2 "src/../h/../lib/hw.h"
  44              		.file 3 "src/../h/Riscv.hpp"
GAS LISTING /tmp/ccV6QePY.s 			page 2

