GAS LISTING /tmp/ccceZdcG.s 			page 1


   1              		.file	"Scheduler.cpp"
   2              		.option pic
   3              		.option norelax
   4              		.text
   5              	.Ltext0:
   6              		.align	2
   7              		.globl	_ZN9Scheduler3putEP3TCB
   9              	_ZN9Scheduler3putEP3TCB:
  10              	.LFB12:
  11              		.file 1 "src/Scheduler.cpp"
   1:src/Scheduler.cpp **** //
   2:src/Scheduler.cpp **** // Created by os on 5/25/23.
   3:src/Scheduler.cpp **** //
   4:src/Scheduler.cpp **** 
   5:src/Scheduler.cpp **** #include "../h/Scheduler.hpp"
   6:src/Scheduler.cpp **** #include "../h/TCB.hpp"
   7:src/Scheduler.cpp **** 
   8:src/Scheduler.cpp **** //Scheduler* Scheduler::singleton = nullptr;
   9:src/Scheduler.cpp **** TCB* Scheduler::head = nullptr;
  10:src/Scheduler.cpp **** TCB* Scheduler::tail = nullptr;
  11:src/Scheduler.cpp **** 
  12:src/Scheduler.cpp **** void Scheduler::put(TCB* tcb) {
  12              		.loc 1 12 31
  13              		.cfi_startproc
  14              	.LVL0:
  15 0000 130101FF 		addi	sp,sp,-16
  16              		.cfi_def_cfa_offset 16
  17 0004 23348100 		sd	s0,8(sp)
  18              		.cfi_offset 8, -8
  19 0008 13040101 		addi	s0,sp,16
  20              		.cfi_def_cfa 8, 0
  13:src/Scheduler.cpp **** 	if (tail == nullptr) {
  21              		.loc 1 13 2
  22              		.loc 1 13 11 is_stmt 0
  23 000c 97070000 		ld	a5,.LANCHOR0
  23      83B70700 
  24              		.loc 1 13 2
  25 0014 638E0700 		beqz	a5,.L5
  14:src/Scheduler.cpp **** 		head = tail = tcb;
  15:src/Scheduler.cpp **** 	} else {
  16:src/Scheduler.cpp **** 		tail->nextInScheduler = tcb;
  26              		.loc 1 16 3 is_stmt 1
  27              		.loc 1 16 25 is_stmt 0
  28 0018 23BCA702 		sd	a0,56(a5)
  17:src/Scheduler.cpp **** 		tail = tcb;
  29              		.loc 1 17 3 is_stmt 1
  30              		.loc 1 17 8 is_stmt 0
  31 001c 97070000 		sd	a0,.LANCHOR0,a5
  31      23B0A700 
  32              	.L1:
  18:src/Scheduler.cpp **** 	}
  19:src/Scheduler.cpp **** }
  33              		.loc 1 19 1
  34 0024 03348100 		ld	s0,8(sp)
  35              		.cfi_remember_state
  36              		.cfi_restore 8
  37              		.cfi_def_cfa 2, 16
GAS LISTING /tmp/ccceZdcG.s 			page 2


  38 0028 13010101 		addi	sp,sp,16
  39              		.cfi_def_cfa_offset 0
  40 002c 67800000 		jr	ra
  41              	.L5:
  42              		.cfi_restore_state
  14:src/Scheduler.cpp **** 	} else {
  43              		.loc 1 14 3 is_stmt 1
  14:src/Scheduler.cpp **** 	} else {
  44              		.loc 1 14 15 is_stmt 0
  45 0030 97070000 		lla	a5,.LANCHOR0
  45      93870700 
  46 0038 23B0A700 		sd	a0,0(a5)
  14:src/Scheduler.cpp **** 	} else {
  47              		.loc 1 14 8
  48 003c 23B4A700 		sd	a0,8(a5)
  49 0040 6FF05FFE 		j	.L1
  50              		.cfi_endproc
  51              	.LFE12:
  53              		.align	2
  54              		.globl	_ZN9Scheduler3getEv
  56              	_ZN9Scheduler3getEv:
  57              	.LFB13:
  20:src/Scheduler.cpp **** 
  21:src/Scheduler.cpp **** TCB* Scheduler::get() {
  58              		.loc 1 21 23 is_stmt 1
  59              		.cfi_startproc
  60 0044 130101FF 		addi	sp,sp,-16
  61              		.cfi_def_cfa_offset 16
  62 0048 23348100 		sd	s0,8(sp)
  63              		.cfi_offset 8, -8
  64 004c 13040101 		addi	s0,sp,16
  65              		.cfi_def_cfa 8, 0
  22:src/Scheduler.cpp **** 	TCB* firstThread = head;
  66              		.loc 1 22 2
  67              		.loc 1 22 7 is_stmt 0
  68 0050 17070000 		lla	a4,.LANCHOR0
  68      13070700 
  69 0058 03358700 		ld	a0,8(a4)
  70              	.LVL1:
  23:src/Scheduler.cpp **** 	head = head->nextInScheduler;
  71              		.loc 1 23 2 is_stmt 1
  72              		.loc 1 23 15 is_stmt 0
  73 005c 83378503 		ld	a5,56(a0)
  74              		.loc 1 23 7
  75 0060 2334F700 		sd	a5,8(a4)
  24:src/Scheduler.cpp **** 	if (head == nullptr) {
  76              		.loc 1 24 2 is_stmt 1
  77 0064 63880700 		beqz	a5,.L9
  78              	.L6:
  25:src/Scheduler.cpp **** 		tail = head = nullptr;
  26:src/Scheduler.cpp **** 	}
  27:src/Scheduler.cpp **** 	return firstThread;
  28:src/Scheduler.cpp **** }...
  79              		.loc 1 28 1 is_stmt 0
  80 0068 03348100 		ld	s0,8(sp)
  81              		.cfi_remember_state
  82              		.cfi_restore 8
GAS LISTING /tmp/ccceZdcG.s 			page 3


  83              		.cfi_def_cfa 2, 16
  84 006c 13010101 		addi	sp,sp,16
  85              		.cfi_def_cfa_offset 0
  86 0070 67800000 		jr	ra
  87              	.L9:
  88              		.cfi_restore_state
  25:src/Scheduler.cpp **** 		tail = head = nullptr;
  89              		.loc 1 25 3 is_stmt 1
  25:src/Scheduler.cpp **** 		tail = head = nullptr;
  90              		.loc 1 25 15 is_stmt 0
  91 0074 23340700 		sd	zero,8(a4)
  25:src/Scheduler.cpp **** 		tail = head = nullptr;
  92              		.loc 1 25 8
  93 0078 23300700 		sd	zero,0(a4)
  27:src/Scheduler.cpp **** 	return firstThread;
  94              		.loc 1 27 2 is_stmt 1
  27:src/Scheduler.cpp **** 	return firstThread;
  95              		.loc 1 27 9 is_stmt 0
  96 007c 6FF0DFFE 		j	.L6
  97              		.cfi_endproc
  98              	.LFE13:
 100              		.globl	_ZN9Scheduler4tailE
 101              		.globl	_ZN9Scheduler4headE
 102              		.bss
 103              		.align	3
 104              		.set	.LANCHOR0,. + 0
 107              	_ZN9Scheduler4tailE:
 108 0000 00000000 		.zero	8
 108      00000000 
 111              	_ZN9Scheduler4headE:
 112 0008 00000000 		.zero	8
 112      00000000 
 113              		.text
 114              	.Letext0:
 115              		.file 2 "src/../h/Scheduler.hpp"
 116              		.file 3 "src/../h/TCB.hpp"
 117              		.file 4 "src/../h/../lib/hw.h"
GAS LISTING /tmp/ccceZdcG.s 			page 4

