GAS LISTING /tmp/cczh2lMD.s 			page 1


   1              		.file	"Scheduler.cpp"
   2              		.option pic
   3              		.option norelax
   4              		.text
   5              	.Ltext0:
   6              		.align	2
   7              		.globl	_ZN9Scheduler3putEP3TCB
   9              	_ZN9Scheduler3putEP3TCB:
  10              	.LFB29:
  11              		.file 1 "src/Scheduler.cpp"
   1:src/Scheduler.cpp **** //
   2:src/Scheduler.cpp **** // Created by os on 5/25/23.
   3:src/Scheduler.cpp **** //
   4:src/Scheduler.cpp **** 
   5:src/Scheduler.cpp **** #include "../h/Scheduler.hpp"
   6:src/Scheduler.cpp **** #include "../h/TCB.hpp"
   7:src/Scheduler.cpp **** 
   8:src/Scheduler.cpp **** TCB* Scheduler::head = nullptr;
   9:src/Scheduler.cpp **** TCB* Scheduler::tail = nullptr;
  10:src/Scheduler.cpp **** TCB* Scheduler::sleepingHead = nullptr;
  11:src/Scheduler.cpp **** 
  12:src/Scheduler.cpp **** void Scheduler::put(TCB* tcb) {
  12              		.loc 1 12 31
  13              		.cfi_startproc
  14              	.LVL0:
  15 0000 130101FF 		addi	sp,sp,-16
  16              		.cfi_def_cfa_offset 16
  17 0004 23348100 		sd	s0,8(sp)
  18              		.cfi_offset 8, -8
  19 0008 13040101 		addi	s0,sp,16
  20              		.cfi_def_cfa 8, 0
  13:src/Scheduler.cpp ****     if (tail == nullptr) {
  21              		.loc 1 13 5
  22              		.loc 1 13 14 is_stmt 0
  23 000c 97070000 		ld	a5,.LANCHOR0
  23      83B70700 
  24              		.loc 1 13 5
  25 0014 638E0700 		beqz	a5,.L5
  14:src/Scheduler.cpp ****         head = tail = tcb;
  15:src/Scheduler.cpp ****     } else {
  16:src/Scheduler.cpp ****         tail->nextInScheduler = tcb;
  26              		.loc 1 16 9 is_stmt 1
  27              		.loc 1 16 31 is_stmt 0
  28 0018 23B8A702 		sd	a0,48(a5)
  17:src/Scheduler.cpp ****         tail = tcb;
  29              		.loc 1 17 9 is_stmt 1
  30              		.loc 1 17 14 is_stmt 0
  31 001c 97070000 		sd	a0,.LANCHOR0,a5
  31      23B0A700 
  32              	.L1:
  18:src/Scheduler.cpp ****     }
  19:src/Scheduler.cpp **** }
  33              		.loc 1 19 1
  34 0024 03348100 		ld	s0,8(sp)
  35              		.cfi_remember_state
  36              		.cfi_restore 8
  37              		.cfi_def_cfa 2, 16
GAS LISTING /tmp/cczh2lMD.s 			page 2


  38 0028 13010101 		addi	sp,sp,16
  39              		.cfi_def_cfa_offset 0
  40 002c 67800000 		jr	ra
  41              	.L5:
  42              		.cfi_restore_state
  14:src/Scheduler.cpp ****     } else {
  43              		.loc 1 14 9 is_stmt 1
  14:src/Scheduler.cpp ****     } else {
  44              		.loc 1 14 21 is_stmt 0
  45 0030 97070000 		lla	a5,.LANCHOR0
  45      93870700 
  46 0038 23B0A700 		sd	a0,0(a5)
  14:src/Scheduler.cpp ****     } else {
  47              		.loc 1 14 14
  48 003c 23B4A700 		sd	a0,8(a5)
  49 0040 6FF05FFE 		j	.L1
  50              		.cfi_endproc
  51              	.LFE29:
  53              		.align	2
  54              		.globl	_ZN9Scheduler3getEv
  56              	_ZN9Scheduler3getEv:
  57              	.LFB30:
  20:src/Scheduler.cpp **** 
  21:src/Scheduler.cpp **** TCB* Scheduler::get() {
  58              		.loc 1 21 23 is_stmt 1
  59              		.cfi_startproc
  60 0044 130101FF 		addi	sp,sp,-16
  61              		.cfi_def_cfa_offset 16
  62 0048 23348100 		sd	s0,8(sp)
  63              		.cfi_offset 8, -8
  64 004c 13040101 		addi	s0,sp,16
  65              		.cfi_def_cfa 8, 0
  22:src/Scheduler.cpp ****     TCB* firstThread = head;
  66              		.loc 1 22 5
  67              		.loc 1 22 10 is_stmt 0
  68 0050 17070000 		lla	a4,.LANCHOR0
  68      13070700 
  69 0058 03358700 		ld	a0,8(a4)
  70              	.LVL1:
  23:src/Scheduler.cpp ****     head = head->nextInScheduler;
  71              		.loc 1 23 5 is_stmt 1
  72              		.loc 1 23 18 is_stmt 0
  73 005c 83370503 		ld	a5,48(a0)
  74              		.loc 1 23 10
  75 0060 2334F700 		sd	a5,8(a4)
  24:src/Scheduler.cpp ****     if (head == nullptr) {
  76              		.loc 1 24 5 is_stmt 1
  77 0064 638A0700 		beqz	a5,.L9
  78              	.L7:
  25:src/Scheduler.cpp ****         tail = head = nullptr;
  26:src/Scheduler.cpp ****     }
  27:src/Scheduler.cpp ****     firstThread->nextInScheduler = nullptr;
  79              		.loc 1 27 5
  80              		.loc 1 27 34 is_stmt 0
  81 0068 23380502 		sd	zero,48(a0)
  28:src/Scheduler.cpp ****     return firstThread;
  82              		.loc 1 28 5 is_stmt 1
GAS LISTING /tmp/cczh2lMD.s 			page 3


  29:src/Scheduler.cpp **** }
  83              		.loc 1 29 1 is_stmt 0
  84 006c 03348100 		ld	s0,8(sp)
  85              		.cfi_remember_state
  86              		.cfi_restore 8
  87              		.cfi_def_cfa 2, 16
  88 0070 13010101 		addi	sp,sp,16
  89              		.cfi_def_cfa_offset 0
  90 0074 67800000 		jr	ra
  91              	.L9:
  92              		.cfi_restore_state
  25:src/Scheduler.cpp ****         tail = head = nullptr;
  93              		.loc 1 25 9 is_stmt 1
  25:src/Scheduler.cpp ****         tail = head = nullptr;
  94              		.loc 1 25 21 is_stmt 0
  95 0078 23340700 		sd	zero,8(a4)
  25:src/Scheduler.cpp ****         tail = head = nullptr;
  96              		.loc 1 25 14
  97 007c 23300700 		sd	zero,0(a4)
  98 0080 6FF09FFE 		j	.L7
  99              		.cfi_endproc
 100              	.LFE30:
 102              		.align	2
 103              		.globl	_ZN9Scheduler10putToSleepEP3TCBm
 105              	_ZN9Scheduler10putToSleepEP3TCBm:
 106              	.LFB31:
  30:src/Scheduler.cpp **** 
  31:src/Scheduler.cpp **** void Scheduler::putToSleep(TCB* tcb, time_t sleepTime) {
 107              		.loc 1 31 56 is_stmt 1
 108              		.cfi_startproc
 109              	.LVL2:
 110 0084 130101FF 		addi	sp,sp,-16
 111              		.cfi_def_cfa_offset 16
 112 0088 23348100 		sd	s0,8(sp)
 113              		.cfi_offset 8, -8
 114 008c 13040101 		addi	s0,sp,16
 115              		.cfi_def_cfa 8, 0
  32:src/Scheduler.cpp ****     tcb->status = TCB::SLEEPING;
 116              		.loc 1 32 5
 117              		.loc 1 32 17 is_stmt 0
 118 0090 93074000 		li	a5,4
 119 0094 232CF504 		sw	a5,88(a0)
  33:src/Scheduler.cpp ****     if (sleepingHead == nullptr) {
 120              		.loc 1 33 5 is_stmt 1
 121              		.loc 1 33 22 is_stmt 0
 122 0098 17080000 		ld	a6,.LANCHOR0+16
 122      03380800 
 123              		.loc 1 33 5
 124 00a0 63080802 		beqz	a6,.L17
  34:src/Scheduler.cpp ****         sleepingHead = tcb;
  35:src/Scheduler.cpp ****         tcb->timeToSleep = sleepTime;
  36:src/Scheduler.cpp ****         return;
  37:src/Scheduler.cpp ****     }
  38:src/Scheduler.cpp ****     TCB* prevSleeping = nullptr;
  39:src/Scheduler.cpp ****     time_t accumulated = 0;
  40:src/Scheduler.cpp ****     TCB* current = sleepingHead;
 125              		.loc 1 40 10
GAS LISTING /tmp/cczh2lMD.s 			page 4


 126 00a4 93070800 		mv	a5,a6
  39:src/Scheduler.cpp ****     TCB* current = sleepingHead;
 127              		.loc 1 39 12
 128 00a8 93060000 		li	a3,0
  38:src/Scheduler.cpp ****     time_t accumulated = 0;
 129              		.loc 1 38 10
 130 00ac 13060000 		li	a2,0
 131              	.L11:
 132              	.LVL3:
  41:src/Scheduler.cpp ****     for (; current && accumulated + current->timeToSleep < sleepTime; current = current->nextSleepi
 133              		.loc 1 41 5 is_stmt 1 discriminator 3
 134              		.loc 1 41 20 discriminator 3
 135 00b0 63880702 		beqz	a5,.L13
 136              		.loc 1 41 46 is_stmt 0 discriminator 1
 137 00b4 03B78703 		ld	a4,56(a5)
 138              		.loc 1 41 35 discriminator 1
 139 00b8 3307D700 		add	a4,a4,a3
 140              		.loc 1 41 20 discriminator 1
 141 00bc 6372B702 		bgeu	a4,a1,.L13
  42:src/Scheduler.cpp ****         accumulated += current->timeToSleep;
 142              		.loc 1 42 9 is_stmt 1 discriminator 2
 143              	.LVL4:
  43:src/Scheduler.cpp ****         prevSleeping = current;
 144              		.loc 1 43 9 discriminator 2
  41:src/Scheduler.cpp ****     for (; current && accumulated + current->timeToSleep < sleepTime; current = current->nextSleepi
 145              		.loc 1 41 5 discriminator 2
  42:src/Scheduler.cpp ****         accumulated += current->timeToSleep;
 146              		.loc 1 42 21 is_stmt 0 discriminator 2
 147 00c0 93060700 		mv	a3,a4
 148              		.loc 1 43 22 discriminator 2
 149 00c4 13860700 		mv	a2,a5
  41:src/Scheduler.cpp ****     for (; current && accumulated + current->timeToSleep < sleepTime; current = current->nextSleepi
 150              		.loc 1 41 79 discriminator 2
 151 00c8 83B70704 		ld	a5,64(a5)
 152              	.LVL5:
  41:src/Scheduler.cpp ****     for (; current && accumulated + current->timeToSleep < sleepTime; current = current->nextSleepi
 153              		.loc 1 41 5 discriminator 2
 154 00cc 6FF05FFE 		j	.L11
 155              	.LVL6:
 156              	.L17:
  34:src/Scheduler.cpp ****         tcb->timeToSleep = sleepTime;
 157              		.loc 1 34 9 is_stmt 1
  34:src/Scheduler.cpp ****         tcb->timeToSleep = sleepTime;
 158              		.loc 1 34 22 is_stmt 0
 159 00d0 97070000 		sd	a0,.LANCHOR0+16,a5
 159      23B0A700 
  35:src/Scheduler.cpp ****         return;
 160              		.loc 1 35 9 is_stmt 1
  35:src/Scheduler.cpp ****         return;
 161              		.loc 1 35 26 is_stmt 0
 162 00d8 233CB502 		sd	a1,56(a0)
  36:src/Scheduler.cpp ****     }
 163              		.loc 1 36 9 is_stmt 1
 164 00dc 6F00C002 		j	.L10
 165              	.LVL7:
 166              	.L13:
  44:src/Scheduler.cpp ****     }
GAS LISTING /tmp/cczh2lMD.s 			page 5


  45:src/Scheduler.cpp ****     if (!prevSleeping) {
 167              		.loc 1 45 5
 168 00e0 630A0602 		beqz	a2,.L18
  46:src/Scheduler.cpp ****         tcb->nextSleeping = sleepingHead;
  47:src/Scheduler.cpp ****         sleepingHead = tcb;
  48:src/Scheduler.cpp ****         tcb->timeToSleep = sleepTime;
  49:src/Scheduler.cpp ****         tcb->nextSleeping->timeToSleep -= sleepTime;
  50:src/Scheduler.cpp ****         return;
  51:src/Scheduler.cpp ****     }
  52:src/Scheduler.cpp ****     tcb->nextSleeping = current;
 169              		.loc 1 52 5
 170              		.loc 1 52 23 is_stmt 0
 171 00e4 2330F504 		sd	a5,64(a0)
  53:src/Scheduler.cpp ****     prevSleeping->nextSleeping = tcb;
 172              		.loc 1 53 5 is_stmt 1
 173              		.loc 1 53 32 is_stmt 0
 174 00e8 2330A604 		sd	a0,64(a2)
  54:src/Scheduler.cpp ****     tcb->timeToSleep = sleepTime - accumulated;
 175              		.loc 1 54 5 is_stmt 1
 176              		.loc 1 54 34 is_stmt 0
 177 00ec 3387D540 		sub	a4,a1,a3
 178              		.loc 1 54 22
 179 00f0 233CE502 		sd	a4,56(a0)
  55:src/Scheduler.cpp ****     if (current) current->timeToSleep -= sleepTime - accumulated;
 180              		.loc 1 55 5 is_stmt 1
 181 00f4 638A0700 		beqz	a5,.L10
 182              		.loc 1 55 18 discriminator 1
 183              		.loc 1 55 39 is_stmt 0 discriminator 1
 184 00f8 B386B640 		sub	a3,a3,a1
 185              	.LVL8:
 186 00fc 03B78703 		ld	a4,56(a5)
 187 0100 B306D700 		add	a3,a4,a3
 188 0104 23BCD702 		sd	a3,56(a5)
 189              	.LVL9:
 190              	.L10:
  56:src/Scheduler.cpp **** }
 191              		.loc 1 56 1
 192 0108 03348100 		ld	s0,8(sp)
 193              		.cfi_remember_state
 194              		.cfi_restore 8
 195              		.cfi_def_cfa 2, 16
 196 010c 13010101 		addi	sp,sp,16
 197              		.cfi_def_cfa_offset 0
 198 0110 67800000 		jr	ra
 199              	.LVL10:
 200              	.L18:
 201              		.cfi_restore_state
  46:src/Scheduler.cpp ****         sleepingHead = tcb;
 202              		.loc 1 46 9 is_stmt 1
  46:src/Scheduler.cpp ****         sleepingHead = tcb;
 203              		.loc 1 46 27 is_stmt 0
 204 0114 23300505 		sd	a6,64(a0)
  47:src/Scheduler.cpp ****         tcb->timeToSleep = sleepTime;
 205              		.loc 1 47 9 is_stmt 1
  47:src/Scheduler.cpp ****         tcb->timeToSleep = sleepTime;
 206              		.loc 1 47 22 is_stmt 0
 207 0118 97070000 		sd	a0,.LANCHOR0+16,a5
GAS LISTING /tmp/cczh2lMD.s 			page 6


 207      23B0A700 
 208              	.LVL11:
  48:src/Scheduler.cpp ****         tcb->nextSleeping->timeToSleep -= sleepTime;
 209              		.loc 1 48 9 is_stmt 1
  48:src/Scheduler.cpp ****         tcb->nextSleeping->timeToSleep -= sleepTime;
 210              		.loc 1 48 26 is_stmt 0
 211 0120 233CB502 		sd	a1,56(a0)
  49:src/Scheduler.cpp ****         return;
 212              		.loc 1 49 9 is_stmt 1
  49:src/Scheduler.cpp ****         return;
 213              		.loc 1 49 40 is_stmt 0
 214 0124 83368803 		ld	a3,56(a6)
 215              	.LVL12:
 216 0128 B386B640 		sub	a3,a3,a1
 217 012c 233CD802 		sd	a3,56(a6)
  50:src/Scheduler.cpp ****     }
 218              		.loc 1 50 9 is_stmt 1
 219 0130 6FF09FFD 		j	.L10
 220              		.cfi_endproc
 221              	.LFE31:
 223              		.align	2
 224              		.globl	_ZN9Scheduler4wakeEv
 226              	_ZN9Scheduler4wakeEv:
 227              	.LFB32:
  57:src/Scheduler.cpp **** 
  58:src/Scheduler.cpp **** void Scheduler::wake() {
 228              		.loc 1 58 24
 229              		.cfi_startproc
  59:src/Scheduler.cpp ****     if (!sleepingHead) return;
 230              		.loc 1 59 5
 231              		.loc 1 59 9 is_stmt 0
 232 0134 97070000 		ld	a5,.LANCHOR0+16
 232      83B70700 
 233              		.loc 1 59 5
 234 013c 638E0706 		beqz	a5,.L23
  60:src/Scheduler.cpp ****     sleepingHead->timeToSleep--;
 235              		.loc 1 60 5 is_stmt 1
 236              		.loc 1 60 19 is_stmt 0
 237 0140 03B78703 		ld	a4,56(a5)
 238              		.loc 1 60 30
 239 0144 1307F7FF 		addi	a4,a4,-1
 240 0148 23BCE702 		sd	a4,56(a5)
  61:src/Scheduler.cpp ****     while (sleepingHead && sleepingHead->timeToSleep == 0) {
 241              		.loc 1 61 5 is_stmt 1
 242              		.loc 1 61 25
 243              		.loc 1 61 57 is_stmt 0
 244 014c 17050000 		ld	a0,.LANCHOR0+16
 244      03350500 
 245              		.loc 1 61 25
 246 0154 63020506 		beqz	a0,.L23
 247              		.loc 1 61 42
 248 0158 83378503 		ld	a5,56(a0)
 249              		.loc 1 61 25
 250 015c 639E0704 		bnez	a5,.L23
  58:src/Scheduler.cpp ****     if (!sleepingHead) return;
 251              		.loc 1 58 24
 252 0160 130101FF 		addi	sp,sp,-16
GAS LISTING /tmp/cczh2lMD.s 			page 7


 253              		.cfi_def_cfa_offset 16
 254 0164 23341100 		sd	ra,8(sp)
 255 0168 23308100 		sd	s0,0(sp)
 256              		.cfi_offset 1, -8
 257              		.cfi_offset 8, -16
 258 016c 13040101 		addi	s0,sp,16
 259              		.cfi_def_cfa 8, 0
 260 0170 6F00C000 		j	.L26
 261              	.LVL13:
 262              	.L29:
 263              		.loc 1 61 42 discriminator 1
 264 0174 83378503 		ld	a5,56(a0)
 265              		.loc 1 61 25 discriminator 1
 266 0178 63980702 		bnez	a5,.L19
 267              	.L26:
 268              	.LBB2:
  62:src/Scheduler.cpp ****         TCB* thread = sleepingHead;
 269              		.loc 1 62 9 is_stmt 1
 270              	.LVL14:
  63:src/Scheduler.cpp ****         sleepingHead = sleepingHead->nextSleeping;
 271              		.loc 1 63 9
 272              		.loc 1 63 38 is_stmt 0
 273 017c 83370504 		ld	a5,64(a0)
 274              		.loc 1 63 22
 275 0180 17070000 		sd	a5,.LANCHOR0+16,a4
 275      2330F700 
  64:src/Scheduler.cpp ****         thread->nextSleeping = nullptr;
 276              		.loc 1 64 9 is_stmt 1
 277              		.loc 1 64 30 is_stmt 0
 278 0188 23300504 		sd	zero,64(a0)
  65:src/Scheduler.cpp ****         thread->status = TCB::ACTIVE;
 279              		.loc 1 65 9 is_stmt 1
 280              		.loc 1 65 24 is_stmt 0
 281 018c 93071000 		li	a5,1
 282 0190 232CF504 		sw	a5,88(a0)
  66:src/Scheduler.cpp ****         Scheduler::put(thread);
 283              		.loc 1 66 9 is_stmt 1
 284              		.loc 1 66 23 is_stmt 0
 285 0194 97000000 		call	_ZN9Scheduler3putEP3TCB
 285      E7800000 
 286              	.LVL15:
 287              	.LBE2:
  61:src/Scheduler.cpp ****         TCB* thread = sleepingHead;
 288              		.loc 1 61 5 is_stmt 1
  61:src/Scheduler.cpp ****         TCB* thread = sleepingHead;
 289              		.loc 1 61 25
  61:src/Scheduler.cpp ****         TCB* thread = sleepingHead;
 290              		.loc 1 61 57 is_stmt 0
 291 019c 17050000 		ld	a0,.LANCHOR0+16
 291      03350500 
  61:src/Scheduler.cpp ****         TCB* thread = sleepingHead;
 292              		.loc 1 61 25
 293 01a4 E31805FC 		bnez	a0,.L29
 294              	.L19:
  67:src/Scheduler.cpp ****     }
  68:src/Scheduler.cpp **** }
 295              		.loc 1 68 1
GAS LISTING /tmp/cczh2lMD.s 			page 8


 296 01a8 83308100 		ld	ra,8(sp)
 297              		.cfi_restore 1
 298 01ac 03340100 		ld	s0,0(sp)
 299              		.cfi_restore 8
 300              		.cfi_def_cfa 2, 16
 301 01b0 13010101 		addi	sp,sp,16
 302              		.cfi_def_cfa_offset 0
 303 01b4 67800000 		jr	ra
 304              	.L23:
 305 01b8 67800000 		ret
 306              		.cfi_endproc
 307              	.LFE32:
 309              		.globl	_ZN9Scheduler12sleepingHeadE
 310              		.globl	_ZN9Scheduler4tailE
 311              		.globl	_ZN9Scheduler4headE
 312              		.bss
 313              		.align	3
 314              		.set	.LANCHOR0,. + 0
 317              	_ZN9Scheduler4tailE:
 318 0000 00000000 		.zero	8
 318      00000000 
 321              	_ZN9Scheduler4headE:
 322 0008 00000000 		.zero	8
 322      00000000 
 325              	_ZN9Scheduler12sleepingHeadE:
 326 0010 00000000 		.zero	8
 326      00000000 
 327              		.text
 328              	.Letext0:
 329              		.file 2 "src/../h/Scheduler.hpp"
 330              		.file 3 "src/../h/TCB.hpp"
 331              		.file 4 "src/../h/../lib/hw.h"
 332              		.file 5 "src/../h/../h/ThreadQueue.hpp"
 333              		.file 6 "src/../h/../h/../h/syscall_c.hpp"
GAS LISTING /tmp/cczh2lMD.s 			page 9


DEFINED SYMBOLS
                            *ABS*:0000000000000000 Scheduler.cpp
     /tmp/cczh2lMD.s:9      .text:0000000000000000 _ZN9Scheduler3putEP3TCB
     /tmp/cczh2lMD.s:13     .text:0000000000000000 .L0 
     /tmp/cczh2lMD.s:15     .text:0000000000000000 .L0 
     /tmp/cczh2lMD.s:16     .text:0000000000000004 .L0 
     /tmp/cczh2lMD.s:18     .text:0000000000000008 .L0 
     /tmp/cczh2lMD.s:20     .text:000000000000000c .L0 
     /tmp/cczh2lMD.s:22     .text:000000000000000c .L0 
     /tmp/cczh2lMD.s:23     .text:000000000000000c .L0 
     /tmp/cczh2lMD.s:25     .text:0000000000000014 .L0 
     /tmp/cczh2lMD.s:27     .text:0000000000000018 .L0 
     /tmp/cczh2lMD.s:28     .text:0000000000000018 .L0 
     /tmp/cczh2lMD.s:30     .text:000000000000001c .L0 
     /tmp/cczh2lMD.s:31     .text:000000000000001c .L0 
     /tmp/cczh2lMD.s:34     .text:0000000000000024 .L0 
     /tmp/cczh2lMD.s:35     .text:0000000000000028 .L0 
     /tmp/cczh2lMD.s:36     .text:0000000000000028 .L0 
     /tmp/cczh2lMD.s:37     .text:0000000000000028 .L0 
     /tmp/cczh2lMD.s:39     .text:000000000000002c .L0 
     /tmp/cczh2lMD.s:42     .text:0000000000000030 .L0 
     /tmp/cczh2lMD.s:44     .text:0000000000000030 .L0 
     /tmp/cczh2lMD.s:45     .text:0000000000000030 .L0 
     /tmp/cczh2lMD.s:48     .text:000000000000003c .L0 
     /tmp/cczh2lMD.s:50     .text:0000000000000044 .L0 
     /tmp/cczh2lMD.s:56     .text:0000000000000044 _ZN9Scheduler3getEv
     /tmp/cczh2lMD.s:59     .text:0000000000000044 .L0 
     /tmp/cczh2lMD.s:60     .text:0000000000000044 .L0 
     /tmp/cczh2lMD.s:61     .text:0000000000000048 .L0 
     /tmp/cczh2lMD.s:63     .text:000000000000004c .L0 
     /tmp/cczh2lMD.s:65     .text:0000000000000050 .L0 
     /tmp/cczh2lMD.s:67     .text:0000000000000050 .L0 
     /tmp/cczh2lMD.s:68     .text:0000000000000050 .L0 
     /tmp/cczh2lMD.s:72     .text:000000000000005c .L0 
     /tmp/cczh2lMD.s:73     .text:000000000000005c .L0 
     /tmp/cczh2lMD.s:75     .text:0000000000000060 .L0 
     /tmp/cczh2lMD.s:77     .text:0000000000000064 .L0 
     /tmp/cczh2lMD.s:80     .text:0000000000000068 .L0 
     /tmp/cczh2lMD.s:81     .text:0000000000000068 .L0 
     /tmp/cczh2lMD.s:83     .text:000000000000006c .L0 
     /tmp/cczh2lMD.s:84     .text:000000000000006c .L0 
     /tmp/cczh2lMD.s:85     .text:0000000000000070 .L0 
     /tmp/cczh2lMD.s:86     .text:0000000000000070 .L0 
     /tmp/cczh2lMD.s:87     .text:0000000000000070 .L0 
     /tmp/cczh2lMD.s:89     .text:0000000000000074 .L0 
     /tmp/cczh2lMD.s:92     .text:0000000000000078 .L0 
     /tmp/cczh2lMD.s:94     .text:0000000000000078 .L0 
     /tmp/cczh2lMD.s:95     .text:0000000000000078 .L0 
     /tmp/cczh2lMD.s:97     .text:000000000000007c .L0 
     /tmp/cczh2lMD.s:99     .text:0000000000000084 .L0 
     /tmp/cczh2lMD.s:105    .text:0000000000000084 _ZN9Scheduler10putToSleepEP3TCBm
     /tmp/cczh2lMD.s:108    .text:0000000000000084 .L0 
     /tmp/cczh2lMD.s:110    .text:0000000000000084 .L0 
     /tmp/cczh2lMD.s:111    .text:0000000000000088 .L0 
     /tmp/cczh2lMD.s:113    .text:000000000000008c .L0 
     /tmp/cczh2lMD.s:115    .text:0000000000000090 .L0 
     /tmp/cczh2lMD.s:117    .text:0000000000000090 .L0 
GAS LISTING /tmp/cczh2lMD.s 			page 10


     /tmp/cczh2lMD.s:118    .text:0000000000000090 .L0 
     /tmp/cczh2lMD.s:121    .text:0000000000000098 .L0 
     /tmp/cczh2lMD.s:122    .text:0000000000000098 .L0 
     /tmp/cczh2lMD.s:124    .text:00000000000000a0 .L0 
     /tmp/cczh2lMD.s:126    .text:00000000000000a4 .L0 
     /tmp/cczh2lMD.s:128    .text:00000000000000a8 .L0 
     /tmp/cczh2lMD.s:130    .text:00000000000000ac .L0 
     /tmp/cczh2lMD.s:134    .text:00000000000000b0 .L0 
     /tmp/cczh2lMD.s:135    .text:00000000000000b0 .L0 
     /tmp/cczh2lMD.s:137    .text:00000000000000b4 .L0 
     /tmp/cczh2lMD.s:139    .text:00000000000000b8 .L0 
     /tmp/cczh2lMD.s:141    .text:00000000000000bc .L0 
     /tmp/cczh2lMD.s:144    .text:00000000000000c0 .L0 
     /tmp/cczh2lMD.s:145    .text:00000000000000c0 .L0 
     /tmp/cczh2lMD.s:146    .text:00000000000000c0 .L0 
     /tmp/cczh2lMD.s:147    .text:00000000000000c0 .L0 
     /tmp/cczh2lMD.s:149    .text:00000000000000c4 .L0 
     /tmp/cczh2lMD.s:151    .text:00000000000000c8 .L0 
     /tmp/cczh2lMD.s:154    .text:00000000000000cc .L0 
     /tmp/cczh2lMD.s:158    .text:00000000000000d0 .L0 
     /tmp/cczh2lMD.s:159    .text:00000000000000d0 .L0 
     /tmp/cczh2lMD.s:161    .text:00000000000000d8 .L0 
     /tmp/cczh2lMD.s:162    .text:00000000000000d8 .L0 
     /tmp/cczh2lMD.s:164    .text:00000000000000dc .L0 
     /tmp/cczh2lMD.s:168    .text:00000000000000e0 .L0 
     /tmp/cczh2lMD.s:170    .text:00000000000000e4 .L0 
     /tmp/cczh2lMD.s:171    .text:00000000000000e4 .L0 
     /tmp/cczh2lMD.s:173    .text:00000000000000e8 .L0 
     /tmp/cczh2lMD.s:174    .text:00000000000000e8 .L0 
     /tmp/cczh2lMD.s:176    .text:00000000000000ec .L0 
     /tmp/cczh2lMD.s:177    .text:00000000000000ec .L0 
     /tmp/cczh2lMD.s:179    .text:00000000000000f0 .L0 
     /tmp/cczh2lMD.s:181    .text:00000000000000f4 .L0 
     /tmp/cczh2lMD.s:183    .text:00000000000000f8 .L0 
     /tmp/cczh2lMD.s:184    .text:00000000000000f8 .L0 
     /tmp/cczh2lMD.s:192    .text:0000000000000108 .L0 
     /tmp/cczh2lMD.s:193    .text:000000000000010c .L0 
     /tmp/cczh2lMD.s:194    .text:000000000000010c .L0 
     /tmp/cczh2lMD.s:195    .text:000000000000010c .L0 
     /tmp/cczh2lMD.s:197    .text:0000000000000110 .L0 
     /tmp/cczh2lMD.s:201    .text:0000000000000114 .L0 
     /tmp/cczh2lMD.s:203    .text:0000000000000114 .L0 
     /tmp/cczh2lMD.s:204    .text:0000000000000114 .L0 
     /tmp/cczh2lMD.s:206    .text:0000000000000118 .L0 
     /tmp/cczh2lMD.s:207    .text:0000000000000118 .L0 
     /tmp/cczh2lMD.s:210    .text:0000000000000120 .L0 
     /tmp/cczh2lMD.s:211    .text:0000000000000120 .L0 
     /tmp/cczh2lMD.s:213    .text:0000000000000124 .L0 
     /tmp/cczh2lMD.s:214    .text:0000000000000124 .L0 
     /tmp/cczh2lMD.s:219    .text:0000000000000130 .L0 
     /tmp/cczh2lMD.s:220    .text:0000000000000134 .L0 
     /tmp/cczh2lMD.s:226    .text:0000000000000134 _ZN9Scheduler4wakeEv
     /tmp/cczh2lMD.s:229    .text:0000000000000134 .L0 
     /tmp/cczh2lMD.s:230    .text:0000000000000134 .L0 
     /tmp/cczh2lMD.s:231    .text:0000000000000134 .L0 
     /tmp/cczh2lMD.s:232    .text:0000000000000134 .L0 
     /tmp/cczh2lMD.s:234    .text:000000000000013c .L0 
GAS LISTING /tmp/cczh2lMD.s 			page 11


     /tmp/cczh2lMD.s:236    .text:0000000000000140 .L0 
     /tmp/cczh2lMD.s:237    .text:0000000000000140 .L0 
     /tmp/cczh2lMD.s:239    .text:0000000000000144 .L0 
     /tmp/cczh2lMD.s:242    .text:000000000000014c .L0 
     /tmp/cczh2lMD.s:243    .text:000000000000014c .L0 
     /tmp/cczh2lMD.s:244    .text:000000000000014c .L0 
     /tmp/cczh2lMD.s:246    .text:0000000000000154 .L0 
     /tmp/cczh2lMD.s:248    .text:0000000000000158 .L0 
     /tmp/cczh2lMD.s:250    .text:000000000000015c .L0 
     /tmp/cczh2lMD.s:252    .text:0000000000000160 .L0 
     /tmp/cczh2lMD.s:253    .text:0000000000000164 .L0 
     /tmp/cczh2lMD.s:256    .text:000000000000016c .L0 
     /tmp/cczh2lMD.s:257    .text:000000000000016c .L0 
     /tmp/cczh2lMD.s:259    .text:0000000000000170 .L0 
     /tmp/cczh2lMD.s:264    .text:0000000000000174 .L0 
     /tmp/cczh2lMD.s:266    .text:0000000000000178 .L0 
     /tmp/cczh2lMD.s:271    .text:000000000000017c .L0 
     /tmp/cczh2lMD.s:272    .text:000000000000017c .L0 
     /tmp/cczh2lMD.s:273    .text:000000000000017c .L0 
     /tmp/cczh2lMD.s:275    .text:0000000000000180 .L0 
     /tmp/cczh2lMD.s:277    .text:0000000000000188 .L0 
     /tmp/cczh2lMD.s:278    .text:0000000000000188 .L0 
     /tmp/cczh2lMD.s:280    .text:000000000000018c .L0 
     /tmp/cczh2lMD.s:281    .text:000000000000018c .L0 
     /tmp/cczh2lMD.s:284    .text:0000000000000194 .L0 
     /tmp/cczh2lMD.s:285    .text:0000000000000194 .L0 
     /tmp/cczh2lMD.s:289    .text:000000000000019c .L0 
     /tmp/cczh2lMD.s:290    .text:000000000000019c .L0 
     /tmp/cczh2lMD.s:291    .text:000000000000019c .L0 
     /tmp/cczh2lMD.s:293    .text:00000000000001a4 .L0 
     /tmp/cczh2lMD.s:296    .text:00000000000001a8 .L0 
     /tmp/cczh2lMD.s:297    .text:00000000000001ac .L0 
     /tmp/cczh2lMD.s:299    .text:00000000000001b0 .L0 
     /tmp/cczh2lMD.s:300    .text:00000000000001b0 .L0 
     /tmp/cczh2lMD.s:302    .text:00000000000001b4 .L0 
     /tmp/cczh2lMD.s:306    .text:00000000000001bc .L0 
     /tmp/cczh2lMD.s:325    .bss:0000000000000010 _ZN9Scheduler12sleepingHeadE
     /tmp/cczh2lMD.s:317    .bss:0000000000000000 _ZN9Scheduler4tailE
     /tmp/cczh2lMD.s:321    .bss:0000000000000008 _ZN9Scheduler4headE
     /tmp/cczh2lMD.s:314    .bss:0000000000000000 .LANCHOR0
     /tmp/cczh2lMD.s:334    .text:00000000000001bc .L0 
     /tmp/cczh2lMD.s:23     .text:000000000000000c .L0 
     /tmp/cczh2lMD.s:31     .text:000000000000001c .L0 
     /tmp/cczh2lMD.s:45     .text:0000000000000030 .L0 
     /tmp/cczh2lMD.s:68     .text:0000000000000050 .L0 
     /tmp/cczh2lMD.s:122    .text:0000000000000098 .L0 
     /tmp/cczh2lMD.s:159    .text:00000000000000d0 .L0 
     /tmp/cczh2lMD.s:207    .text:0000000000000118 .L0 
     /tmp/cczh2lMD.s:232    .text:0000000000000134 .L0 
     /tmp/cczh2lMD.s:244    .text:000000000000014c .L0 
     /tmp/cczh2lMD.s:275    .text:0000000000000180 .L0 
     /tmp/cczh2lMD.s:291    .text:000000000000019c .L0 
     /tmp/cczh2lMD.s:41     .text:0000000000000030 .L5
     /tmp/cczh2lMD.s:32     .text:0000000000000024 .L1
     /tmp/cczh2lMD.s:91     .text:0000000000000078 .L9
     /tmp/cczh2lMD.s:78     .text:0000000000000068 .L7
     /tmp/cczh2lMD.s:156    .text:00000000000000d0 .L17
GAS LISTING /tmp/cczh2lMD.s 			page 12


     /tmp/cczh2lMD.s:166    .text:00000000000000e0 .L13
     /tmp/cczh2lMD.s:131    .text:00000000000000b0 .L11
     /tmp/cczh2lMD.s:190    .text:0000000000000108 .L10
     /tmp/cczh2lMD.s:200    .text:0000000000000114 .L18
     /tmp/cczh2lMD.s:304    .text:00000000000001b8 .L23
     /tmp/cczh2lMD.s:267    .text:000000000000017c .L26
     /tmp/cczh2lMD.s:294    .text:00000000000001a8 .L19
     /tmp/cczh2lMD.s:262    .text:0000000000000174 .L29
     /tmp/cczh2lMD.s:1269   .debug_abbrev:0000000000000000 .Ldebug_abbrev0
     /tmp/cczh2lMD.s:2419   .debug_str:00000000000005a7 .LASF109
     /tmp/cczh2lMD.s:2445   .debug_str:0000000000000745 .LASF110
     /tmp/cczh2lMD.s:2291   .debug_str:00000000000001d8 .LASF111
     /tmp/cczh2lMD.s:5      .text:0000000000000000 .Ltext0
     /tmp/cczh2lMD.s:328    .text:00000000000001bc .Letext0
     /tmp/cczh2lMD.s:2221   .debug_line:0000000000000000 .Ldebug_line0
     /tmp/cczh2lMD.s:2265   .debug_str:0000000000000134 .LASF62
     /tmp/cczh2lMD.s:2403   .debug_str:0000000000000543 .LASF58
     /tmp/cczh2lMD.s:2375   .debug_str:0000000000000473 .LASF3
     /tmp/cczh2lMD.s:2263   .debug_str:000000000000012f .LASF0
     /tmp/cczh2lMD.s:2321   .debug_str:00000000000002ef .LASF1
     /tmp/cczh2lMD.s:2349   .debug_str:00000000000003b5 .LASF2
     /tmp/cczh2lMD.s:2405   .debug_str:0000000000000555 .LASF6
     /tmp/cczh2lMD.s:2247   .debug_str:00000000000000b7 .LASF56
     /tmp/cczh2lMD.s:2329   .debug_str:000000000000031d .LASF112
     /tmp/cczh2lMD.s:2323   .debug_str:00000000000002f4 .LASF4
     /tmp/cczh2lMD.s:2435   .debug_str:00000000000006d4 .LASF113
     /tmp/cczh2lMD.s:2261   .debug_str:0000000000000124 .LASF5
     /tmp/cczh2lMD.s:2231   .debug_str:0000000000000039 .LASF7
     /tmp/cczh2lMD.s:2451   .debug_str:000000000000076b .LASF30
     /tmp/cczh2lMD.s:2299   .debug_str:0000000000000231 .LASF32
     /tmp/cczh2lMD.s:2245   .debug_str:00000000000000aa .LASF114
     /tmp/cczh2lMD.s:2421   .debug_str:000000000000066b .LASF8
     /tmp/cczh2lMD.s:2447   .debug_str:0000000000000757 .LASF9
     /tmp/cczh2lMD.s:2267   .debug_str:000000000000013b .LASF10
     /tmp/cczh2lMD.s:2237   .debug_str:0000000000000089 .LASF11
     /tmp/cczh2lMD.s:2229   .debug_str:0000000000000030 .LASF12
     /tmp/cczh2lMD.s:2409   .debug_str:0000000000000579 .LASF13
     /tmp/cczh2lMD.s:2227   .debug_str:0000000000000028 .LASF78
     /tmp/cczh2lMD.s:2427   .debug_str:0000000000000697 .LASF14
     /tmp/cczh2lMD.s:2459   .debug_str:000000000000079f .LASF16
     /tmp/cczh2lMD.s:2327   .debug_str:0000000000000313 .LASF20
     /tmp/cczh2lMD.s:2259   .debug_str:0000000000000110 .LASF22
     /tmp/cczh2lMD.s:2307   .debug_str:0000000000000278 .LASF15
     /tmp/cczh2lMD.s:2341   .debug_str:000000000000037f .LASF17
     /tmp/cczh2lMD.s:2241   .debug_str:0000000000000098 .LASF115
     /tmp/cczh2lMD.s:2359   .debug_str:00000000000003f4 .LASF18
     /tmp/cczh2lMD.s:2385   .debug_str:00000000000004b9 .LASF19
     /tmp/cczh2lMD.s:2317   .debug_str:00000000000002d4 .LASF21
     /tmp/cczh2lMD.s:2379   .debug_str:000000000000048a .LASF23
     /tmp/cczh2lMD.s:2431   .debug_str:00000000000006b7 .LASF24
     /tmp/cczh2lMD.s:2437   .debug_str:00000000000006f5 .LASF25
     /tmp/cczh2lMD.s:2337   .debug_str:0000000000000364 .LASF26
     /tmp/cczh2lMD.s:2309   .debug_str:0000000000000285 .LASF27
     /tmp/cczh2lMD.s:2269   .debug_str:0000000000000143 .LASF28
     /tmp/cczh2lMD.s:2283   .debug_str:0000000000000196 .LASF29
     /tmp/cczh2lMD.s:2393   .debug_str:00000000000004fd .LASF31
     /tmp/cczh2lMD.s:2331   .debug_str:0000000000000331 .LASF33
GAS LISTING /tmp/cczh2lMD.s 			page 13


     /tmp/cczh2lMD.s:2399   .debug_str:0000000000000527 .LASF34
     /tmp/cczh2lMD.s:2333   .debug_str:000000000000034a .LASF35
     /tmp/cczh2lMD.s:2343   .debug_str:00000000000003a1 .LASF36
     /tmp/cczh2lMD.s:2277   .debug_str:0000000000000169 .LASF37
     /tmp/cczh2lMD.s:2411   .debug_str:0000000000000582 .LASF38
     /tmp/cczh2lMD.s:2407   .debug_str:0000000000000567 .LASF39
     /tmp/cczh2lMD.s:2273   .debug_str:0000000000000153 .LASF40
     /tmp/cczh2lMD.s:2389   .debug_str:00000000000004d0 .LASF41
     /tmp/cczh2lMD.s:2243   .debug_str:000000000000009d .LASF42
     /tmp/cczh2lMD.s:2415   .debug_str:0000000000000592 .LASF43
     /tmp/cczh2lMD.s:2397   .debug_str:0000000000000517 .LASF44
     /tmp/cczh2lMD.s:2381   .debug_str:00000000000004a2 .LASF45
     /tmp/cczh2lMD.s:2305   .debug_str:0000000000000270 .LASF46
     /tmp/cczh2lMD.s:2325   .debug_str:0000000000000304 .LASF47
     /tmp/cczh2lMD.s:2345   .debug_str:00000000000003aa .LASF48
     /tmp/cczh2lMD.s:2347   .debug_str:00000000000003b0 .LASF49
     /tmp/cczh2lMD.s:2353   .debug_str:00000000000003ca .LASF50
     /tmp/cczh2lMD.s:2235   .debug_str:0000000000000079 .LASF51
     /tmp/cczh2lMD.s:2295   .debug_str:000000000000021e .LASF52
     /tmp/cczh2lMD.s:2371   .debug_str:0000000000000448 .LASF53
     /tmp/cczh2lMD.s:2275   .debug_str:000000000000015b .LASF54
     /tmp/cczh2lMD.s:2365   .debug_str:0000000000000427 .LASF55
     /tmp/cczh2lMD.s:2453   .debug_str:0000000000000770 .LASF57
     /tmp/cczh2lMD.s:2443   .debug_str:0000000000000737 .LASF84
     /tmp/cczh2lMD.s:2293   .debug_str:00000000000001f6 .LASF85
     /tmp/cczh2lMD.s:2449   .debug_str:000000000000075e .LASF59
     /tmp/cczh2lMD.s:2361   .debug_str:00000000000003fa .LASF60
     /tmp/cczh2lMD.s:2319   .debug_str:00000000000002e1 .LASF61
     /tmp/cczh2lMD.s:2297   .debug_str:000000000000022a .LASF63
     /tmp/cczh2lMD.s:2239   .debug_str:0000000000000091 .LASF64
     /tmp/cczh2lMD.s:2367   .debug_str:000000000000042e .LASF65
     /tmp/cczh2lMD.s:2339   .debug_str:000000000000036c .LASF66
     /tmp/cczh2lMD.s:2433   .debug_str:00000000000006c4 .LASF67
     /tmp/cczh2lMD.s:2287   .debug_str:00000000000001c4 .LASF68
     /tmp/cczh2lMD.s:2439   .debug_str:000000000000070d .LASF69
     /tmp/cczh2lMD.s:2425   .debug_str:0000000000000688 .LASF70
     /tmp/cczh2lMD.s:2313   .debug_str:00000000000002af .LASF71
     /tmp/cczh2lMD.s:2223   .debug_str:0000000000000000 .LASF72
     /tmp/cczh2lMD.s:2249   .debug_str:00000000000000cf .LASF73
     /tmp/cczh2lMD.s:2401   .debug_str:000000000000052d .LASF74
     /tmp/cczh2lMD.s:2285   .debug_str:00000000000001ae .LASF75
     /tmp/cczh2lMD.s:2279   .debug_str:000000000000017c .LASF76
     /tmp/cczh2lMD.s:2395   .debug_str:000000000000050b .LASF77
     /tmp/cczh2lMD.s:2271   .debug_str:000000000000014e .LASF79
     /tmp/cczh2lMD.s:2251   .debug_str:00000000000000db .LASF80
     /tmp/cczh2lMD.s:2455   .debug_str:0000000000000786 .LASF81
     /tmp/cczh2lMD.s:2373   .debug_str:0000000000000455 .LASF82
     /tmp/cczh2lMD.s:2363   .debug_str:000000000000040d .LASF83
     /tmp/cczh2lMD.s:2441   .debug_str:000000000000071c .LASF86
     /tmp/cczh2lMD.s:2289   .debug_str:00000000000001d2 .LASF87
     /tmp/cczh2lMD.s:2387   .debug_str:00000000000004cb .LASF88
     /tmp/cczh2lMD.s:2281   .debug_str:0000000000000181 .LASF89
     /tmp/cczh2lMD.s:2225   .debug_str:0000000000000010 .LASF90
     /tmp/cczh2lMD.s:2335   .debug_str:000000000000035a .LASF116
     /tmp/cczh2lMD.s:2311   .debug_str:0000000000000297 .LASF117
     /tmp/cczh2lMD.s:2377   .debug_str:000000000000047d .LASF91
     /tmp/cczh2lMD.s:2315   .debug_str:00000000000002bf .LASF92
GAS LISTING /tmp/cczh2lMD.s 			page 14


     /tmp/cczh2lMD.s:2255   .debug_str:00000000000000ec .LASF93
     /tmp/cczh2lMD.s:2257   .debug_str:00000000000000f4 .LASF94
     /tmp/cczh2lMD.s:2413   .debug_str:000000000000058a .LASF95
     /tmp/cczh2lMD.s:2233   .debug_str:000000000000005a .LASF96
     /tmp/cczh2lMD.s:2417   .debug_str:000000000000059e .LASF97
     /tmp/cczh2lMD.s:2391   .debug_str:00000000000004e1 .LASF98
     /tmp/cczh2lMD.s:2423   .debug_str:0000000000000673 .LASF99
     /tmp/cczh2lMD.s:2429   .debug_str:00000000000006a1 .LASF118
     /tmp/cczh2lMD.s:2357   .debug_str:00000000000003e0 .LASF100
     /tmp/cczh2lMD.s:2457   .debug_str:000000000000078b .LASF101
     /tmp/cczh2lMD.s:2303   .debug_str:0000000000000253 .LASF102
     /tmp/cczh2lMD.s:227    .text:0000000000000134 .LFB32
     /tmp/cczh2lMD.s:307    .text:00000000000001bc .LFE32
     /tmp/cczh2lMD.s:268    .text:000000000000017c .LBB2
     /tmp/cczh2lMD.s:287    .text:000000000000019c .LBE2
     /tmp/cczh2lMD.s:2369   .debug_str:0000000000000441 .LASF103
     /tmp/cczh2lMD.s:2135   .debug_loc:0000000000000000 .LLST3
     /tmp/cczh2lMD.s:286    .text:000000000000019c .LVL15
     /tmp/cczh2lMD.s:106    .text:0000000000000084 .LFB31
     /tmp/cczh2lMD.s:221    .text:0000000000000134 .LFE31
     /tmp/cczh2lMD.s:2383   .debug_str:00000000000004af .LASF104
     /tmp/cczh2lMD.s:2301   .debug_str:0000000000000246 .LASF105
     /tmp/cczh2lMD.s:2142   .debug_loc:0000000000000023 .LLST0
     /tmp/cczh2lMD.s:2355   .debug_str:00000000000003d4 .LASF106
     /tmp/cczh2lMD.s:2165   .debug_loc:0000000000000092 .LLST1
     /tmp/cczh2lMD.s:2351   .debug_str:00000000000003c2 .LASF107
     /tmp/cczh2lMD.s:2184   .debug_loc:00000000000000ee .LLST2
     /tmp/cczh2lMD.s:57     .text:0000000000000044 .LFB30
     /tmp/cczh2lMD.s:100    .text:0000000000000084 .LFE30
     /tmp/cczh2lMD.s:2253   .debug_str:00000000000000e0 .LASF108
     /tmp/cczh2lMD.s:10     .text:0000000000000000 .LFB29
     /tmp/cczh2lMD.s:51     .text:0000000000000044 .LFE29
     /tmp/cczh2lMD.s:270    .text:000000000000017c .LVL14
     /tmp/cczh2lMD.s:132    .text:00000000000000b0 .LVL3
     /tmp/cczh2lMD.s:143    .text:00000000000000c0 .LVL4
     /tmp/cczh2lMD.s:152    .text:00000000000000cc .LVL5
     /tmp/cczh2lMD.s:155    .text:00000000000000d0 .LVL6
     /tmp/cczh2lMD.s:165    .text:00000000000000e0 .LVL7
     /tmp/cczh2lMD.s:189    .text:0000000000000108 .LVL9
     /tmp/cczh2lMD.s:199    .text:0000000000000114 .LVL10
     /tmp/cczh2lMD.s:185    .text:00000000000000fc .LVL8
     /tmp/cczh2lMD.s:215    .text:0000000000000128 .LVL12
     /tmp/cczh2lMD.s:208    .text:0000000000000120 .LVL11
     /tmp/cczh2lMD.s:335    .debug_info:0000000000000000 .Ldebug_info0

NO UNDEFINED SYMBOLS
