GAS LISTING /tmp/ccAXus44.s 			page 1


   1              		.file	"Scheduler.cpp"
   2              		.option pic
   3              		.option norelax
   4              		.text
   5              	.Ltext0:
   6              		.align	2
   7              		.globl	_ZN9Scheduler3putEP3TCB
   9              	_ZN9Scheduler3putEP3TCB:
  10              	.LFB29:
  11              		.file 1 "src/Scheduler.cpp"
   1:src/Scheduler.cpp **** //
   2:src/Scheduler.cpp **** // Created by os on 5/25/23.
   3:src/Scheduler.cpp **** //
   4:src/Scheduler.cpp **** 
   5:src/Scheduler.cpp **** #include "../h/Scheduler.hpp"
   6:src/Scheduler.cpp **** #include "../h/TCB.hpp"
   7:src/Scheduler.cpp **** 
   8:src/Scheduler.cpp **** TCB* Scheduler::head = nullptr;
   9:src/Scheduler.cpp **** TCB* Scheduler::tail = nullptr;
  10:src/Scheduler.cpp **** TCB* Scheduler::sleepingHead = nullptr;
  11:src/Scheduler.cpp **** 
  12:src/Scheduler.cpp **** void Scheduler::put(TCB* tcb) {
  12              		.loc 1 12 31
  13              		.cfi_startproc
  14              	.LVL0:
  15 0000 130101FF 		addi	sp,sp,-16
  16              		.cfi_def_cfa_offset 16
  17 0004 23348100 		sd	s0,8(sp)
  18              		.cfi_offset 8, -8
  19 0008 13040101 		addi	s0,sp,16
  20              		.cfi_def_cfa 8, 0
  13:src/Scheduler.cpp ****     if (tail == nullptr) {
  21              		.loc 1 13 5
  22              		.loc 1 13 14 is_stmt 0
  23 000c 97070000 		ld	a5,.LANCHOR0
  23      83B70700 
  24              		.loc 1 13 5
  25 0014 63820702 		beqz	a5,.L5
  14:src/Scheduler.cpp ****         head = tail = tcb;
  15:src/Scheduler.cpp ****     } else {
  16:src/Scheduler.cpp ****         tail->nextInScheduler = tcb;
  26              		.loc 1 16 9 is_stmt 1
  27              		.loc 1 16 31 is_stmt 0
  28 0018 23B8A702 		sd	a0,48(a5)
  17:src/Scheduler.cpp ****         tail = tcb;
  29              		.loc 1 17 9 is_stmt 1
  30              		.loc 1 17 14 is_stmt 0
  31 001c 97070000 		sd	a0,.LANCHOR0,a5
  31      23B0A700 
  32              	.L3:
  18:src/Scheduler.cpp ****     }
  19:src/Scheduler.cpp ****     tcb->setStatus(TCB::ACTIVE);
  33              		.loc 1 19 5 is_stmt 1
  34              	.LVL1:
  35              	.LBB4:
  36              	.LBB5:
  37              		.file 2 "src/../h/TCB.hpp"
GAS LISTING /tmp/ccAXus44.s 			page 2


   1:src/../h/TCB.hpp **** //
   2:src/../h/TCB.hpp **** // Created by os on 5/23/23.
   3:src/../h/TCB.hpp **** //
   4:src/../h/TCB.hpp **** 
   5:src/../h/TCB.hpp **** #ifndef PROJEKAT2023_TCB_HPP
   6:src/../h/TCB.hpp **** #define PROJEKAT2023_TCB_HPP
   7:src/../h/TCB.hpp **** 
   8:src/../h/TCB.hpp **** #include "../lib/hw.h"
   9:src/../h/TCB.hpp **** #include "../h/ThreadQueue.hpp"
  10:src/../h/TCB.hpp **** 
  11:src/../h/TCB.hpp **** int main();
  12:src/../h/TCB.hpp **** class TCB {
  13:src/../h/TCB.hpp **** public:
  14:src/../h/TCB.hpp ****     friend class Scheduler;
  15:src/../h/TCB.hpp **** 
  16:src/../h/TCB.hpp ****     using Body = void (*)(void*);
  17:src/../h/TCB.hpp **** 
  18:src/../h/TCB.hpp ****     enum ThreadStatus {
  19:src/../h/TCB.hpp ****         CREATED, ACTIVE, BLOCKED, JOINING, SLEEPING, FINISHED
  20:src/../h/TCB.hpp ****     };
  21:src/../h/TCB.hpp **** 
  22:src/../h/TCB.hpp ****     void setStatus(ThreadStatus stat) { this->status = stat; }
  38              		.loc 2 22 41
  39              		.loc 2 22 54 is_stmt 0
  40 0024 93071000 		li	a5,1
  41 0028 232CF504 		sw	a5,88(a0)
  42              	.LVL2:
  43              	.LBE5:
  44              	.LBE4:
  20:src/Scheduler.cpp **** }
  45              		.loc 1 20 1
  46 002c 03348100 		ld	s0,8(sp)
  47              		.cfi_remember_state
  48              		.cfi_restore 8
  49              		.cfi_def_cfa 2, 16
  50 0030 13010101 		addi	sp,sp,16
  51              		.cfi_def_cfa_offset 0
  52 0034 67800000 		jr	ra
  53              	.L5:
  54              		.cfi_restore_state
  14:src/Scheduler.cpp ****     } else {
  55              		.loc 1 14 9 is_stmt 1
  14:src/Scheduler.cpp ****     } else {
  56              		.loc 1 14 21 is_stmt 0
  57 0038 97070000 		lla	a5,.LANCHOR0
  57      93870700 
  58 0040 23B0A700 		sd	a0,0(a5)
  14:src/Scheduler.cpp ****     } else {
  59              		.loc 1 14 14
  60 0044 23B4A700 		sd	a0,8(a5)
  61 0048 6FF0DFFD 		j	.L3
  62              		.cfi_endproc
  63              	.LFE29:
  65              		.align	2
  66              		.globl	_ZN9Scheduler3getEv
  68              	_ZN9Scheduler3getEv:
  69              	.LFB30:
GAS LISTING /tmp/ccAXus44.s 			page 3


  21:src/Scheduler.cpp **** 
  22:src/Scheduler.cpp **** TCB* Scheduler::get() {
  70              		.loc 1 22 23 is_stmt 1
  71              		.cfi_startproc
  72 004c 130101FF 		addi	sp,sp,-16
  73              		.cfi_def_cfa_offset 16
  74 0050 23348100 		sd	s0,8(sp)
  75              		.cfi_offset 8, -8
  76 0054 13040101 		addi	s0,sp,16
  77              		.cfi_def_cfa 8, 0
  23:src/Scheduler.cpp ****     TCB* firstThread = head;
  78              		.loc 1 23 5
  79              		.loc 1 23 10 is_stmt 0
  80 0058 17070000 		lla	a4,.LANCHOR0
  80      13070700 
  81 0060 03358700 		ld	a0,8(a4)
  82              	.LVL3:
  24:src/Scheduler.cpp ****     head = head->nextInScheduler;
  83              		.loc 1 24 5 is_stmt 1
  84              		.loc 1 24 18 is_stmt 0
  85 0064 83370503 		ld	a5,48(a0)
  86              		.loc 1 24 10
  87 0068 2334F700 		sd	a5,8(a4)
  25:src/Scheduler.cpp ****     if (head == nullptr) {
  88              		.loc 1 25 5 is_stmt 1
  89 006c 638A0700 		beqz	a5,.L9
  90              	.L7:
  26:src/Scheduler.cpp ****         tail = head = nullptr;
  27:src/Scheduler.cpp ****     }
  28:src/Scheduler.cpp ****     firstThread->nextInScheduler = nullptr;
  91              		.loc 1 28 5
  92              		.loc 1 28 34 is_stmt 0
  93 0070 23380502 		sd	zero,48(a0)
  29:src/Scheduler.cpp ****     return firstThread;
  94              		.loc 1 29 5 is_stmt 1
  30:src/Scheduler.cpp **** }
  95              		.loc 1 30 1 is_stmt 0
  96 0074 03348100 		ld	s0,8(sp)
  97              		.cfi_remember_state
  98              		.cfi_restore 8
  99              		.cfi_def_cfa 2, 16
 100 0078 13010101 		addi	sp,sp,16
 101              		.cfi_def_cfa_offset 0
 102 007c 67800000 		jr	ra
 103              	.L9:
 104              		.cfi_restore_state
  26:src/Scheduler.cpp ****         tail = head = nullptr;
 105              		.loc 1 26 9 is_stmt 1
  26:src/Scheduler.cpp ****         tail = head = nullptr;
 106              		.loc 1 26 21 is_stmt 0
 107 0080 23340700 		sd	zero,8(a4)
  26:src/Scheduler.cpp ****         tail = head = nullptr;
 108              		.loc 1 26 14
 109 0084 23300700 		sd	zero,0(a4)
 110 0088 6FF09FFE 		j	.L7
 111              		.cfi_endproc
 112              	.LFE30:
GAS LISTING /tmp/ccAXus44.s 			page 4


 114              		.align	2
 115              		.globl	_ZN9Scheduler10putToSleepEP3TCBm
 117              	_ZN9Scheduler10putToSleepEP3TCBm:
 118              	.LFB31:
  31:src/Scheduler.cpp **** 
  32:src/Scheduler.cpp **** void Scheduler::putToSleep(TCB* tcb, time_t sleepTime) {
 119              		.loc 1 32 56 is_stmt 1
 120              		.cfi_startproc
 121              	.LVL4:
 122 008c 130101FF 		addi	sp,sp,-16
 123              		.cfi_def_cfa_offset 16
 124 0090 23348100 		sd	s0,8(sp)
 125              		.cfi_offset 8, -8
 126 0094 13040101 		addi	s0,sp,16
 127              		.cfi_def_cfa 8, 0
  33:src/Scheduler.cpp ****     tcb->status = TCB::SLEEPING;
 128              		.loc 1 33 5
 129              		.loc 1 33 17 is_stmt 0
 130 0098 93074000 		li	a5,4
 131 009c 232CF504 		sw	a5,88(a0)
  34:src/Scheduler.cpp ****     if (sleepingHead == nullptr) {
 132              		.loc 1 34 5 is_stmt 1
 133              		.loc 1 34 22 is_stmt 0
 134 00a0 17080000 		ld	a6,.LANCHOR0+16
 134      03380800 
 135              		.loc 1 34 5
 136 00a8 63080802 		beqz	a6,.L17
  35:src/Scheduler.cpp ****         sleepingHead = tcb;
  36:src/Scheduler.cpp ****         tcb->timeToSleep = sleepTime;
  37:src/Scheduler.cpp ****         return;
  38:src/Scheduler.cpp ****     }
  39:src/Scheduler.cpp ****     TCB* prevSleeping = nullptr;
  40:src/Scheduler.cpp ****     time_t accumulated = 0;
  41:src/Scheduler.cpp ****     TCB* current = sleepingHead;
 137              		.loc 1 41 10
 138 00ac 93070800 		mv	a5,a6
  40:src/Scheduler.cpp ****     TCB* current = sleepingHead;
 139              		.loc 1 40 12
 140 00b0 93060000 		li	a3,0
  39:src/Scheduler.cpp ****     time_t accumulated = 0;
 141              		.loc 1 39 10
 142 00b4 13060000 		li	a2,0
 143              	.L11:
 144              	.LVL5:
  42:src/Scheduler.cpp ****     for (; current && accumulated + current->timeToSleep < sleepTime; current = current->nextSleepi
 145              		.loc 1 42 5 is_stmt 1 discriminator 3
 146              		.loc 1 42 20 discriminator 3
 147 00b8 63880702 		beqz	a5,.L13
 148              		.loc 1 42 46 is_stmt 0 discriminator 1
 149 00bc 03B78703 		ld	a4,56(a5)
 150              		.loc 1 42 35 discriminator 1
 151 00c0 3307D700 		add	a4,a4,a3
 152              		.loc 1 42 20 discriminator 1
 153 00c4 6372B702 		bgeu	a4,a1,.L13
  43:src/Scheduler.cpp ****         accumulated += current->timeToSleep;
 154              		.loc 1 43 9 is_stmt 1 discriminator 2
 155              	.LVL6:
GAS LISTING /tmp/ccAXus44.s 			page 5


  44:src/Scheduler.cpp ****         prevSleeping = current;
 156              		.loc 1 44 9 discriminator 2
  42:src/Scheduler.cpp ****     for (; current && accumulated + current->timeToSleep < sleepTime; current = current->nextSleepi
 157              		.loc 1 42 5 discriminator 2
  43:src/Scheduler.cpp ****         accumulated += current->timeToSleep;
 158              		.loc 1 43 21 is_stmt 0 discriminator 2
 159 00c8 93060700 		mv	a3,a4
 160              		.loc 1 44 22 discriminator 2
 161 00cc 13860700 		mv	a2,a5
  42:src/Scheduler.cpp ****     for (; current && accumulated + current->timeToSleep < sleepTime; current = current->nextSleepi
 162              		.loc 1 42 79 discriminator 2
 163 00d0 83B70704 		ld	a5,64(a5)
 164              	.LVL7:
  42:src/Scheduler.cpp ****     for (; current && accumulated + current->timeToSleep < sleepTime; current = current->nextSleepi
 165              		.loc 1 42 5 discriminator 2
 166 00d4 6FF05FFE 		j	.L11
 167              	.LVL8:
 168              	.L17:
  35:src/Scheduler.cpp ****         tcb->timeToSleep = sleepTime;
 169              		.loc 1 35 9 is_stmt 1
  35:src/Scheduler.cpp ****         tcb->timeToSleep = sleepTime;
 170              		.loc 1 35 22 is_stmt 0
 171 00d8 97070000 		sd	a0,.LANCHOR0+16,a5
 171      23B0A700 
  36:src/Scheduler.cpp ****         return;
 172              		.loc 1 36 9 is_stmt 1
  36:src/Scheduler.cpp ****         return;
 173              		.loc 1 36 26 is_stmt 0
 174 00e0 233CB502 		sd	a1,56(a0)
  37:src/Scheduler.cpp ****     }
 175              		.loc 1 37 9 is_stmt 1
 176 00e4 6F00C002 		j	.L10
 177              	.LVL9:
 178              	.L13:
  45:src/Scheduler.cpp ****     }
  46:src/Scheduler.cpp ****     if (!prevSleeping) {
 179              		.loc 1 46 5
 180 00e8 630A0602 		beqz	a2,.L18
  47:src/Scheduler.cpp ****         tcb->nextSleeping = sleepingHead;
  48:src/Scheduler.cpp ****         sleepingHead = tcb;
  49:src/Scheduler.cpp ****         tcb->timeToSleep = sleepTime;
  50:src/Scheduler.cpp ****         tcb->nextSleeping->timeToSleep -= sleepTime;
  51:src/Scheduler.cpp ****         return;
  52:src/Scheduler.cpp ****     }
  53:src/Scheduler.cpp ****     tcb->nextSleeping = current;
 181              		.loc 1 53 5
 182              		.loc 1 53 23 is_stmt 0
 183 00ec 2330F504 		sd	a5,64(a0)
  54:src/Scheduler.cpp ****     prevSleeping->nextSleeping = tcb;
 184              		.loc 1 54 5 is_stmt 1
 185              		.loc 1 54 32 is_stmt 0
 186 00f0 2330A604 		sd	a0,64(a2)
  55:src/Scheduler.cpp ****     tcb->timeToSleep = sleepTime - accumulated;
 187              		.loc 1 55 5 is_stmt 1
 188              		.loc 1 55 34 is_stmt 0
 189 00f4 3387D540 		sub	a4,a1,a3
 190              		.loc 1 55 22
GAS LISTING /tmp/ccAXus44.s 			page 6


 191 00f8 233CE502 		sd	a4,56(a0)
  56:src/Scheduler.cpp ****     if (current) current->timeToSleep -= sleepTime - accumulated;
 192              		.loc 1 56 5 is_stmt 1
 193 00fc 638A0700 		beqz	a5,.L10
 194              		.loc 1 56 18 discriminator 1
 195              		.loc 1 56 39 is_stmt 0 discriminator 1
 196 0100 B386B640 		sub	a3,a3,a1
 197              	.LVL10:
 198 0104 03B78703 		ld	a4,56(a5)
 199 0108 B306D700 		add	a3,a4,a3
 200 010c 23BCD702 		sd	a3,56(a5)
 201              	.LVL11:
 202              	.L10:
  57:src/Scheduler.cpp **** }
 203              		.loc 1 57 1
 204 0110 03348100 		ld	s0,8(sp)
 205              		.cfi_remember_state
 206              		.cfi_restore 8
 207              		.cfi_def_cfa 2, 16
 208 0114 13010101 		addi	sp,sp,16
 209              		.cfi_def_cfa_offset 0
 210 0118 67800000 		jr	ra
 211              	.LVL12:
 212              	.L18:
 213              		.cfi_restore_state
  47:src/Scheduler.cpp ****         sleepingHead = tcb;
 214              		.loc 1 47 9 is_stmt 1
  47:src/Scheduler.cpp ****         sleepingHead = tcb;
 215              		.loc 1 47 27 is_stmt 0
 216 011c 23300505 		sd	a6,64(a0)
  48:src/Scheduler.cpp ****         tcb->timeToSleep = sleepTime;
 217              		.loc 1 48 9 is_stmt 1
  48:src/Scheduler.cpp ****         tcb->timeToSleep = sleepTime;
 218              		.loc 1 48 22 is_stmt 0
 219 0120 97070000 		sd	a0,.LANCHOR0+16,a5
 219      23B0A700 
 220              	.LVL13:
  49:src/Scheduler.cpp ****         tcb->nextSleeping->timeToSleep -= sleepTime;
 221              		.loc 1 49 9 is_stmt 1
  49:src/Scheduler.cpp ****         tcb->nextSleeping->timeToSleep -= sleepTime;
 222              		.loc 1 49 26 is_stmt 0
 223 0128 233CB502 		sd	a1,56(a0)
  50:src/Scheduler.cpp ****         return;
 224              		.loc 1 50 9 is_stmt 1
  50:src/Scheduler.cpp ****         return;
 225              		.loc 1 50 40 is_stmt 0
 226 012c 83368803 		ld	a3,56(a6)
 227              	.LVL14:
 228 0130 B386B640 		sub	a3,a3,a1
 229 0134 233CD802 		sd	a3,56(a6)
  51:src/Scheduler.cpp ****     }
 230              		.loc 1 51 9 is_stmt 1
 231 0138 6FF09FFD 		j	.L10
 232              		.cfi_endproc
 233              	.LFE31:
 235              		.align	2
 236              		.globl	_ZN9Scheduler4wakeEv
GAS LISTING /tmp/ccAXus44.s 			page 7


 238              	_ZN9Scheduler4wakeEv:
 239              	.LFB32:
  58:src/Scheduler.cpp **** 
  59:src/Scheduler.cpp **** void Scheduler::wake() {
 240              		.loc 1 59 24
 241              		.cfi_startproc
  60:src/Scheduler.cpp ****     if (!sleepingHead) return;
 242              		.loc 1 60 5
 243              		.loc 1 60 9 is_stmt 0
 244 013c 97070000 		ld	a5,.LANCHOR0+16
 244      83B70700 
 245              		.loc 1 60 5
 246 0144 638A0706 		beqz	a5,.L23
  61:src/Scheduler.cpp ****     sleepingHead->timeToSleep--;
 247              		.loc 1 61 5 is_stmt 1
 248              		.loc 1 61 19 is_stmt 0
 249 0148 03B78703 		ld	a4,56(a5)
 250              		.loc 1 61 30
 251 014c 1307F7FF 		addi	a4,a4,-1
 252 0150 23BCE702 		sd	a4,56(a5)
  62:src/Scheduler.cpp ****     while (sleepingHead && sleepingHead->timeToSleep == 0) {
 253              		.loc 1 62 5 is_stmt 1
 254              		.loc 1 62 25
 255              		.loc 1 62 57 is_stmt 0
 256 0154 17050000 		ld	a0,.LANCHOR0+16
 256      03350500 
 257              		.loc 1 62 25
 258 015c 630E0504 		beqz	a0,.L23
 259              		.loc 1 62 42
 260 0160 83378503 		ld	a5,56(a0)
 261              		.loc 1 62 25
 262 0164 639A0704 		bnez	a5,.L23
  59:src/Scheduler.cpp ****     if (!sleepingHead) return;
 263              		.loc 1 59 24
 264 0168 130101FF 		addi	sp,sp,-16
 265              		.cfi_def_cfa_offset 16
 266 016c 23341100 		sd	ra,8(sp)
 267 0170 23308100 		sd	s0,0(sp)
 268              		.cfi_offset 1, -8
 269              		.cfi_offset 8, -16
 270 0174 13040101 		addi	s0,sp,16
 271              		.cfi_def_cfa 8, 0
 272 0178 6F00C000 		j	.L26
 273              	.LVL15:
 274              	.L29:
 275              		.loc 1 62 42 discriminator 1
 276 017c 83378503 		ld	a5,56(a0)
 277              		.loc 1 62 25 discriminator 1
 278 0180 63940702 		bnez	a5,.L19
 279              	.L26:
 280              	.LBB6:
  63:src/Scheduler.cpp ****         TCB* thread = sleepingHead;
 281              		.loc 1 63 9 is_stmt 1
 282              	.LVL16:
  64:src/Scheduler.cpp ****         sleepingHead = sleepingHead->nextSleeping;
 283              		.loc 1 64 9
 284              		.loc 1 64 38 is_stmt 0
GAS LISTING /tmp/ccAXus44.s 			page 8


 285 0184 83370504 		ld	a5,64(a0)
 286              		.loc 1 64 22
 287 0188 17070000 		sd	a5,.LANCHOR0+16,a4
 287      2330F700 
  65:src/Scheduler.cpp ****         thread->nextSleeping = nullptr;
 288              		.loc 1 65 9 is_stmt 1
 289              		.loc 1 65 30 is_stmt 0
 290 0190 23300504 		sd	zero,64(a0)
  66:src/Scheduler.cpp ****         Scheduler::put(thread);
 291              		.loc 1 66 9 is_stmt 1
 292              		.loc 1 66 23 is_stmt 0
 293 0194 97000000 		call	_ZN9Scheduler3putEP3TCB
 293      E7800000 
 294              	.LVL17:
 295              	.LBE6:
  62:src/Scheduler.cpp ****         TCB* thread = sleepingHead;
 296              		.loc 1 62 5 is_stmt 1
  62:src/Scheduler.cpp ****         TCB* thread = sleepingHead;
 297              		.loc 1 62 25
  62:src/Scheduler.cpp ****         TCB* thread = sleepingHead;
 298              		.loc 1 62 57 is_stmt 0
 299 019c 17050000 		ld	a0,.LANCHOR0+16
 299      03350500 
  62:src/Scheduler.cpp ****         TCB* thread = sleepingHead;
 300              		.loc 1 62 25
 301 01a4 E31C05FC 		bnez	a0,.L29
 302              	.L19:
  67:src/Scheduler.cpp ****     }
  68:src/Scheduler.cpp **** }
 303              		.loc 1 68 1
 304 01a8 83308100 		ld	ra,8(sp)
 305              		.cfi_restore 1
 306 01ac 03340100 		ld	s0,0(sp)
 307              		.cfi_restore 8
 308              		.cfi_def_cfa 2, 16
 309 01b0 13010101 		addi	sp,sp,16
 310              		.cfi_def_cfa_offset 0
 311 01b4 67800000 		jr	ra
 312              	.L23:
 313 01b8 67800000 		ret
 314              		.cfi_endproc
 315              	.LFE32:
 317              		.globl	_ZN9Scheduler12sleepingHeadE
 318              		.globl	_ZN9Scheduler4tailE
 319              		.globl	_ZN9Scheduler4headE
 320              		.bss
 321              		.align	3
 322              		.set	.LANCHOR0,. + 0
 325              	_ZN9Scheduler4tailE:
 326 0000 00000000 		.zero	8
 326      00000000 
 329              	_ZN9Scheduler4headE:
 330 0008 00000000 		.zero	8
 330      00000000 
 333              	_ZN9Scheduler12sleepingHeadE:
 334 0010 00000000 		.zero	8
 334      00000000 
GAS LISTING /tmp/ccAXus44.s 			page 9


 335              		.text
 336              	.Letext0:
 337              		.file 3 "src/../h/Scheduler.hpp"
 338              		.file 4 "src/../h/../lib/hw.h"
 339              		.file 5 "src/../h/../h/ThreadQueue.hpp"
 340              		.file 6 "src/../h/../h/../h/syscall_c.hpp"
GAS LISTING /tmp/ccAXus44.s 			page 10


DEFINED SYMBOLS
                            *ABS*:0000000000000000 Scheduler.cpp
     /tmp/ccAXus44.s:9      .text:0000000000000000 _ZN9Scheduler3putEP3TCB
     /tmp/ccAXus44.s:13     .text:0000000000000000 .L0 
     /tmp/ccAXus44.s:15     .text:0000000000000000 .L0 
     /tmp/ccAXus44.s:16     .text:0000000000000004 .L0 
     /tmp/ccAXus44.s:18     .text:0000000000000008 .L0 
     /tmp/ccAXus44.s:20     .text:000000000000000c .L0 
     /tmp/ccAXus44.s:22     .text:000000000000000c .L0 
     /tmp/ccAXus44.s:23     .text:000000000000000c .L0 
     /tmp/ccAXus44.s:25     .text:0000000000000014 .L0 
     /tmp/ccAXus44.s:27     .text:0000000000000018 .L0 
     /tmp/ccAXus44.s:28     .text:0000000000000018 .L0 
     /tmp/ccAXus44.s:30     .text:000000000000001c .L0 
     /tmp/ccAXus44.s:31     .text:000000000000001c .L0 
     /tmp/ccAXus44.s:38     .text:0000000000000024 .L0 
     /tmp/ccAXus44.s:39     .text:0000000000000024 .L0 
     /tmp/ccAXus44.s:40     .text:0000000000000024 .L0 
     /tmp/ccAXus44.s:46     .text:000000000000002c .L0 
     /tmp/ccAXus44.s:47     .text:0000000000000030 .L0 
     /tmp/ccAXus44.s:48     .text:0000000000000030 .L0 
     /tmp/ccAXus44.s:49     .text:0000000000000030 .L0 
     /tmp/ccAXus44.s:51     .text:0000000000000034 .L0 
     /tmp/ccAXus44.s:54     .text:0000000000000038 .L0 
     /tmp/ccAXus44.s:56     .text:0000000000000038 .L0 
     /tmp/ccAXus44.s:57     .text:0000000000000038 .L0 
     /tmp/ccAXus44.s:60     .text:0000000000000044 .L0 
     /tmp/ccAXus44.s:62     .text:000000000000004c .L0 
     /tmp/ccAXus44.s:68     .text:000000000000004c _ZN9Scheduler3getEv
     /tmp/ccAXus44.s:71     .text:000000000000004c .L0 
     /tmp/ccAXus44.s:72     .text:000000000000004c .L0 
     /tmp/ccAXus44.s:73     .text:0000000000000050 .L0 
     /tmp/ccAXus44.s:75     .text:0000000000000054 .L0 
     /tmp/ccAXus44.s:77     .text:0000000000000058 .L0 
     /tmp/ccAXus44.s:79     .text:0000000000000058 .L0 
     /tmp/ccAXus44.s:80     .text:0000000000000058 .L0 
     /tmp/ccAXus44.s:84     .text:0000000000000064 .L0 
     /tmp/ccAXus44.s:85     .text:0000000000000064 .L0 
     /tmp/ccAXus44.s:87     .text:0000000000000068 .L0 
     /tmp/ccAXus44.s:89     .text:000000000000006c .L0 
     /tmp/ccAXus44.s:92     .text:0000000000000070 .L0 
     /tmp/ccAXus44.s:93     .text:0000000000000070 .L0 
     /tmp/ccAXus44.s:95     .text:0000000000000074 .L0 
     /tmp/ccAXus44.s:96     .text:0000000000000074 .L0 
     /tmp/ccAXus44.s:97     .text:0000000000000078 .L0 
     /tmp/ccAXus44.s:98     .text:0000000000000078 .L0 
     /tmp/ccAXus44.s:99     .text:0000000000000078 .L0 
     /tmp/ccAXus44.s:101    .text:000000000000007c .L0 
     /tmp/ccAXus44.s:104    .text:0000000000000080 .L0 
     /tmp/ccAXus44.s:106    .text:0000000000000080 .L0 
     /tmp/ccAXus44.s:107    .text:0000000000000080 .L0 
     /tmp/ccAXus44.s:109    .text:0000000000000084 .L0 
     /tmp/ccAXus44.s:111    .text:000000000000008c .L0 
     /tmp/ccAXus44.s:117    .text:000000000000008c _ZN9Scheduler10putToSleepEP3TCBm
     /tmp/ccAXus44.s:120    .text:000000000000008c .L0 
     /tmp/ccAXus44.s:122    .text:000000000000008c .L0 
     /tmp/ccAXus44.s:123    .text:0000000000000090 .L0 
GAS LISTING /tmp/ccAXus44.s 			page 11


     /tmp/ccAXus44.s:125    .text:0000000000000094 .L0 
     /tmp/ccAXus44.s:127    .text:0000000000000098 .L0 
     /tmp/ccAXus44.s:129    .text:0000000000000098 .L0 
     /tmp/ccAXus44.s:130    .text:0000000000000098 .L0 
     /tmp/ccAXus44.s:133    .text:00000000000000a0 .L0 
     /tmp/ccAXus44.s:134    .text:00000000000000a0 .L0 
     /tmp/ccAXus44.s:136    .text:00000000000000a8 .L0 
     /tmp/ccAXus44.s:138    .text:00000000000000ac .L0 
     /tmp/ccAXus44.s:140    .text:00000000000000b0 .L0 
     /tmp/ccAXus44.s:142    .text:00000000000000b4 .L0 
     /tmp/ccAXus44.s:146    .text:00000000000000b8 .L0 
     /tmp/ccAXus44.s:147    .text:00000000000000b8 .L0 
     /tmp/ccAXus44.s:149    .text:00000000000000bc .L0 
     /tmp/ccAXus44.s:151    .text:00000000000000c0 .L0 
     /tmp/ccAXus44.s:153    .text:00000000000000c4 .L0 
     /tmp/ccAXus44.s:156    .text:00000000000000c8 .L0 
     /tmp/ccAXus44.s:157    .text:00000000000000c8 .L0 
     /tmp/ccAXus44.s:158    .text:00000000000000c8 .L0 
     /tmp/ccAXus44.s:159    .text:00000000000000c8 .L0 
     /tmp/ccAXus44.s:161    .text:00000000000000cc .L0 
     /tmp/ccAXus44.s:163    .text:00000000000000d0 .L0 
     /tmp/ccAXus44.s:166    .text:00000000000000d4 .L0 
     /tmp/ccAXus44.s:170    .text:00000000000000d8 .L0 
     /tmp/ccAXus44.s:171    .text:00000000000000d8 .L0 
     /tmp/ccAXus44.s:173    .text:00000000000000e0 .L0 
     /tmp/ccAXus44.s:174    .text:00000000000000e0 .L0 
     /tmp/ccAXus44.s:176    .text:00000000000000e4 .L0 
     /tmp/ccAXus44.s:180    .text:00000000000000e8 .L0 
     /tmp/ccAXus44.s:182    .text:00000000000000ec .L0 
     /tmp/ccAXus44.s:183    .text:00000000000000ec .L0 
     /tmp/ccAXus44.s:185    .text:00000000000000f0 .L0 
     /tmp/ccAXus44.s:186    .text:00000000000000f0 .L0 
     /tmp/ccAXus44.s:188    .text:00000000000000f4 .L0 
     /tmp/ccAXus44.s:189    .text:00000000000000f4 .L0 
     /tmp/ccAXus44.s:191    .text:00000000000000f8 .L0 
     /tmp/ccAXus44.s:193    .text:00000000000000fc .L0 
     /tmp/ccAXus44.s:195    .text:0000000000000100 .L0 
     /tmp/ccAXus44.s:196    .text:0000000000000100 .L0 
     /tmp/ccAXus44.s:204    .text:0000000000000110 .L0 
     /tmp/ccAXus44.s:205    .text:0000000000000114 .L0 
     /tmp/ccAXus44.s:206    .text:0000000000000114 .L0 
     /tmp/ccAXus44.s:207    .text:0000000000000114 .L0 
     /tmp/ccAXus44.s:209    .text:0000000000000118 .L0 
     /tmp/ccAXus44.s:213    .text:000000000000011c .L0 
     /tmp/ccAXus44.s:215    .text:000000000000011c .L0 
     /tmp/ccAXus44.s:216    .text:000000000000011c .L0 
     /tmp/ccAXus44.s:218    .text:0000000000000120 .L0 
     /tmp/ccAXus44.s:219    .text:0000000000000120 .L0 
     /tmp/ccAXus44.s:222    .text:0000000000000128 .L0 
     /tmp/ccAXus44.s:223    .text:0000000000000128 .L0 
     /tmp/ccAXus44.s:225    .text:000000000000012c .L0 
     /tmp/ccAXus44.s:226    .text:000000000000012c .L0 
     /tmp/ccAXus44.s:231    .text:0000000000000138 .L0 
     /tmp/ccAXus44.s:232    .text:000000000000013c .L0 
     /tmp/ccAXus44.s:238    .text:000000000000013c _ZN9Scheduler4wakeEv
     /tmp/ccAXus44.s:241    .text:000000000000013c .L0 
     /tmp/ccAXus44.s:242    .text:000000000000013c .L0 
GAS LISTING /tmp/ccAXus44.s 			page 12


     /tmp/ccAXus44.s:243    .text:000000000000013c .L0 
     /tmp/ccAXus44.s:244    .text:000000000000013c .L0 
     /tmp/ccAXus44.s:246    .text:0000000000000144 .L0 
     /tmp/ccAXus44.s:248    .text:0000000000000148 .L0 
     /tmp/ccAXus44.s:249    .text:0000000000000148 .L0 
     /tmp/ccAXus44.s:251    .text:000000000000014c .L0 
     /tmp/ccAXus44.s:254    .text:0000000000000154 .L0 
     /tmp/ccAXus44.s:255    .text:0000000000000154 .L0 
     /tmp/ccAXus44.s:256    .text:0000000000000154 .L0 
     /tmp/ccAXus44.s:258    .text:000000000000015c .L0 
     /tmp/ccAXus44.s:260    .text:0000000000000160 .L0 
     /tmp/ccAXus44.s:262    .text:0000000000000164 .L0 
     /tmp/ccAXus44.s:264    .text:0000000000000168 .L0 
     /tmp/ccAXus44.s:265    .text:000000000000016c .L0 
     /tmp/ccAXus44.s:268    .text:0000000000000174 .L0 
     /tmp/ccAXus44.s:269    .text:0000000000000174 .L0 
     /tmp/ccAXus44.s:271    .text:0000000000000178 .L0 
     /tmp/ccAXus44.s:276    .text:000000000000017c .L0 
     /tmp/ccAXus44.s:278    .text:0000000000000180 .L0 
     /tmp/ccAXus44.s:283    .text:0000000000000184 .L0 
     /tmp/ccAXus44.s:284    .text:0000000000000184 .L0 
     /tmp/ccAXus44.s:285    .text:0000000000000184 .L0 
     /tmp/ccAXus44.s:287    .text:0000000000000188 .L0 
     /tmp/ccAXus44.s:289    .text:0000000000000190 .L0 
     /tmp/ccAXus44.s:290    .text:0000000000000190 .L0 
     /tmp/ccAXus44.s:292    .text:0000000000000194 .L0 
     /tmp/ccAXus44.s:293    .text:0000000000000194 .L0 
     /tmp/ccAXus44.s:297    .text:000000000000019c .L0 
     /tmp/ccAXus44.s:298    .text:000000000000019c .L0 
     /tmp/ccAXus44.s:299    .text:000000000000019c .L0 
     /tmp/ccAXus44.s:301    .text:00000000000001a4 .L0 
     /tmp/ccAXus44.s:304    .text:00000000000001a8 .L0 
     /tmp/ccAXus44.s:305    .text:00000000000001ac .L0 
     /tmp/ccAXus44.s:307    .text:00000000000001b0 .L0 
     /tmp/ccAXus44.s:308    .text:00000000000001b0 .L0 
     /tmp/ccAXus44.s:310    .text:00000000000001b4 .L0 
     /tmp/ccAXus44.s:314    .text:00000000000001bc .L0 
     /tmp/ccAXus44.s:333    .bss:0000000000000010 _ZN9Scheduler12sleepingHeadE
     /tmp/ccAXus44.s:325    .bss:0000000000000000 _ZN9Scheduler4tailE
     /tmp/ccAXus44.s:329    .bss:0000000000000008 _ZN9Scheduler4headE
     /tmp/ccAXus44.s:322    .bss:0000000000000000 .LANCHOR0
     /tmp/ccAXus44.s:341    .text:00000000000001bc .L0 
     /tmp/ccAXus44.s:23     .text:000000000000000c .L0 
     /tmp/ccAXus44.s:31     .text:000000000000001c .L0 
     /tmp/ccAXus44.s:57     .text:0000000000000038 .L0 
     /tmp/ccAXus44.s:80     .text:0000000000000058 .L0 
     /tmp/ccAXus44.s:134    .text:00000000000000a0 .L0 
     /tmp/ccAXus44.s:171    .text:00000000000000d8 .L0 
     /tmp/ccAXus44.s:219    .text:0000000000000120 .L0 
     /tmp/ccAXus44.s:244    .text:000000000000013c .L0 
     /tmp/ccAXus44.s:256    .text:0000000000000154 .L0 
     /tmp/ccAXus44.s:287    .text:0000000000000188 .L0 
     /tmp/ccAXus44.s:299    .text:000000000000019c .L0 
     /tmp/ccAXus44.s:53     .text:0000000000000038 .L5
     /tmp/ccAXus44.s:32     .text:0000000000000024 .L3
     /tmp/ccAXus44.s:103    .text:0000000000000080 .L9
     /tmp/ccAXus44.s:90     .text:0000000000000070 .L7
GAS LISTING /tmp/ccAXus44.s 			page 13


     /tmp/ccAXus44.s:168    .text:00000000000000d8 .L17
     /tmp/ccAXus44.s:178    .text:00000000000000e8 .L13
     /tmp/ccAXus44.s:143    .text:00000000000000b8 .L11
     /tmp/ccAXus44.s:202    .text:0000000000000110 .L10
     /tmp/ccAXus44.s:212    .text:000000000000011c .L18
     /tmp/ccAXus44.s:312    .text:00000000000001b8 .L23
     /tmp/ccAXus44.s:279    .text:0000000000000184 .L26
     /tmp/ccAXus44.s:302    .text:00000000000001a8 .L19
     /tmp/ccAXus44.s:274    .text:000000000000017c .L29
     /tmp/ccAXus44.s:1328   .debug_abbrev:0000000000000000 .Ldebug_abbrev0
     /tmp/ccAXus44.s:2522   .debug_str:00000000000005ff .LASF114
     /tmp/ccAXus44.s:2548   .debug_str:000000000000079d .LASF115
     /tmp/ccAXus44.s:2396   .debug_str:000000000000021b .LASF116
     /tmp/ccAXus44.s:5      .text:0000000000000000 .Ltext0
     /tmp/ccAXus44.s:336    .text:00000000000001bc .Letext0
     /tmp/ccAXus44.s:2316   .debug_line:0000000000000000 .Ldebug_line0
     /tmp/ccAXus44.s:2368   .debug_str:000000000000016a .LASF67
     /tmp/ccAXus44.s:2506   .debug_str:000000000000059b .LASF63
     /tmp/ccAXus44.s:2478   .debug_str:00000000000004b0 .LASF3
     /tmp/ccAXus44.s:2364   .debug_str:000000000000015d .LASF0
     /tmp/ccAXus44.s:2428   .debug_str:0000000000000346 .LASF1
     /tmp/ccAXus44.s:2454   .debug_str:00000000000003fc .LASF2
     /tmp/ccAXus44.s:2508   .debug_str:00000000000005ad .LASF6
     /tmp/ccAXus44.s:2348   .debug_str:00000000000000e5 .LASF49
     /tmp/ccAXus44.s:2436   .debug_str:0000000000000374 .LASF117
     /tmp/ccAXus44.s:2430   .debug_str:000000000000034b .LASF4
     /tmp/ccAXus44.s:2538   .debug_str:000000000000072c .LASF29
     /tmp/ccAXus44.s:2362   .debug_str:0000000000000152 .LASF5
     /tmp/ccAXus44.s:2328   .debug_str:0000000000000058 .LASF7
     /tmp/ccAXus44.s:2556   .debug_str:00000000000007cb .LASF37
     /tmp/ccAXus44.s:2404   .debug_str:0000000000000274 .LASF39
     /tmp/ccAXus44.s:2344   .debug_str:00000000000000d3 .LASF118
     /tmp/ccAXus44.s:2524   .debug_str:00000000000006c3 .LASF8
     /tmp/ccAXus44.s:2550   .debug_str:00000000000007af .LASF9
     /tmp/ccAXus44.s:2370   .debug_str:0000000000000171 .LASF10
     /tmp/ccAXus44.s:2336   .debug_str:00000000000000b2 .LASF11
     /tmp/ccAXus44.s:2326   .debug_str:000000000000004f .LASF12
     /tmp/ccAXus44.s:2512   .debug_str:00000000000005d1 .LASF13
     /tmp/ccAXus44.s:2324   .debug_str:0000000000000047 .LASF82
     /tmp/ccAXus44.s:2530   .debug_str:00000000000006ef .LASF14
     /tmp/ccAXus44.s:2566   .debug_str:000000000000080a .LASF16
     /tmp/ccAXus44.s:2434   .debug_str:000000000000036a .LASF20
     /tmp/ccAXus44.s:2360   .debug_str:000000000000013e .LASF22
     /tmp/ccAXus44.s:2412   .debug_str:00000000000002bb .LASF15
     /tmp/ccAXus44.s:2446   .debug_str:00000000000003c6 .LASF17
     /tmp/ccAXus44.s:2340   .debug_str:00000000000000c1 .LASF119
     /tmp/ccAXus44.s:2464   .debug_str:000000000000044f .LASF18
     /tmp/ccAXus44.s:2486   .debug_str:00000000000004ec .LASF19
     /tmp/ccAXus44.s:2424   .debug_str:000000000000032b .LASF21
     /tmp/ccAXus44.s:2482   .debug_str:00000000000004c7 .LASF23
     /tmp/ccAXus44.s:2534   .debug_str:000000000000070f .LASF24
     /tmp/ccAXus44.s:2540   .debug_str:000000000000074d .LASF25
     /tmp/ccAXus44.s:2442   .debug_str:00000000000003ab .LASF26
     /tmp/ccAXus44.s:2414   .debug_str:00000000000002c8 .LASF27
     /tmp/ccAXus44.s:2564   .debug_str:00000000000007ff .LASF28
     /tmp/ccAXus44.s:2496   .debug_str:0000000000000535 .LASF30
     /tmp/ccAXus44.s:2388   .debug_str:00000000000001e6 .LASF31
GAS LISTING /tmp/ccAXus44.s 			page 14


     /tmp/ccAXus44.s:2456   .debug_str:0000000000000409 .LASF32
     /tmp/ccAXus44.s:2418   .debug_str:00000000000002f2 .LASF33
     /tmp/ccAXus44.s:2318   .debug_str:0000000000000000 .LASF34
     /tmp/ccAXus44.s:2372   .debug_str:0000000000000179 .LASF35
     /tmp/ccAXus44.s:2386   .debug_str:00000000000001ce .LASF36
     /tmp/ccAXus44.s:2458   .debug_str:0000000000000421 .LASF38
     /tmp/ccAXus44.s:2438   .debug_str:0000000000000388 .LASF40
     /tmp/ccAXus44.s:2448   .debug_str:00000000000003e8 .LASF41
     /tmp/ccAXus44.s:2380   .debug_str:00000000000001a1 .LASF42
     /tmp/ccAXus44.s:2514   .debug_str:00000000000005da .LASF43
     /tmp/ccAXus44.s:2510   .debug_str:00000000000005bf .LASF44
     /tmp/ccAXus44.s:2342   .debug_str:00000000000000c6 .LASF45
     /tmp/ccAXus44.s:2518   .debug_str:00000000000005ea .LASF46
     /tmp/ccAXus44.s:2500   .debug_str:0000000000000557 .LASF47
     /tmp/ccAXus44.s:2484   .debug_str:00000000000004df .LASF48
     /tmp/ccAXus44.s:2558   .debug_str:00000000000007d0 .LASF50
     /tmp/ccAXus44.s:2410   .debug_str:00000000000002b3 .LASF51
     /tmp/ccAXus44.s:2432   .debug_str:000000000000035b .LASF52
     /tmp/ccAXus44.s:2450   .debug_str:00000000000003f1 .LASF53
     /tmp/ccAXus44.s:2452   .debug_str:00000000000003f7 .LASF54
     /tmp/ccAXus44.s:2330   .debug_str:0000000000000079 .LASF55
     /tmp/ccAXus44.s:2334   .debug_str:00000000000000a2 .LASF56
     /tmp/ccAXus44.s:2400   .debug_str:0000000000000261 .LASF57
     /tmp/ccAXus44.s:2476   .debug_str:00000000000004a3 .LASF58
     /tmp/ccAXus44.s:2376   .debug_str:0000000000000189 .LASF59
     /tmp/ccAXus44.s:2470   .debug_str:0000000000000482 .LASF60
     /tmp/ccAXus44.s:2552   .debug_str:00000000000007b6 .LASF61
     /tmp/ccAXus44.s:2492   .debug_str:0000000000000508 .LASF62
     /tmp/ccAXus44.s:2546   .debug_str:000000000000078f .LASF88
     /tmp/ccAXus44.s:2398   .debug_str:0000000000000239 .LASF89
     /tmp/ccAXus44.s:2554   .debug_str:00000000000007be .LASF64
     /tmp/ccAXus44.s:2466   .debug_str:0000000000000455 .LASF65
     /tmp/ccAXus44.s:2426   .debug_str:0000000000000338 .LASF66
     /tmp/ccAXus44.s:2402   .debug_str:000000000000026d .LASF68
     /tmp/ccAXus44.s:2338   .debug_str:00000000000000ba .LASF69
     /tmp/ccAXus44.s:2472   .debug_str:0000000000000489 .LASF70
     /tmp/ccAXus44.s:2444   .debug_str:00000000000003b3 .LASF71
     /tmp/ccAXus44.s:2536   .debug_str:000000000000071c .LASF72
     /tmp/ccAXus44.s:2392   .debug_str:0000000000000207 .LASF73
     /tmp/ccAXus44.s:2542   .debug_str:0000000000000765 .LASF74
     /tmp/ccAXus44.s:2528   .debug_str:00000000000006e0 .LASF75
     /tmp/ccAXus44.s:2420   .debug_str:0000000000000306 .LASF76
     /tmp/ccAXus44.s:2320   .debug_str:000000000000001f .LASF77
     /tmp/ccAXus44.s:2350   .debug_str:00000000000000fd .LASF78
     /tmp/ccAXus44.s:2504   .debug_str:0000000000000585 .LASF79
     /tmp/ccAXus44.s:2390   .debug_str:00000000000001f1 .LASF80
     /tmp/ccAXus44.s:2498   .debug_str:000000000000054b .LASF81
     /tmp/ccAXus44.s:2374   .debug_str:0000000000000184 .LASF83
     /tmp/ccAXus44.s:2352   .debug_str:0000000000000109 .LASF84
     /tmp/ccAXus44.s:2560   .debug_str:00000000000007e6 .LASF85
     /tmp/ccAXus44.s:2502   .debug_str:0000000000000567 .LASF86
     /tmp/ccAXus44.s:2468   .debug_str:0000000000000468 .LASF87
     /tmp/ccAXus44.s:2544   .debug_str:0000000000000774 .LASF90
     /tmp/ccAXus44.s:2394   .debug_str:0000000000000215 .LASF91
     /tmp/ccAXus44.s:2490   .debug_str:0000000000000503 .LASF92
     /tmp/ccAXus44.s:2384   .debug_str:00000000000001b9 .LASF93
     /tmp/ccAXus44.s:2322   .debug_str:000000000000002f .LASF94
GAS LISTING /tmp/ccAXus44.s 			page 15


     /tmp/ccAXus44.s:2440   .debug_str:00000000000003a1 .LASF120
     /tmp/ccAXus44.s:2416   .debug_str:00000000000002da .LASF121
     /tmp/ccAXus44.s:2480   .debug_str:00000000000004ba .LASF95
     /tmp/ccAXus44.s:2422   .debug_str:0000000000000316 .LASF96
     /tmp/ccAXus44.s:2356   .debug_str:000000000000011a .LASF97
     /tmp/ccAXus44.s:2358   .debug_str:0000000000000122 .LASF98
     /tmp/ccAXus44.s:2516   .debug_str:00000000000005e2 .LASF99
     /tmp/ccAXus44.s:2332   .debug_str:0000000000000083 .LASF100
     /tmp/ccAXus44.s:2520   .debug_str:00000000000005f6 .LASF101
     /tmp/ccAXus44.s:2494   .debug_str:0000000000000519 .LASF102
     /tmp/ccAXus44.s:2526   .debug_str:00000000000006cb .LASF103
     /tmp/ccAXus44.s:2532   .debug_str:00000000000006f9 .LASF122
     /tmp/ccAXus44.s:2382   .debug_str:00000000000001b4 .LASF104
     /tmp/ccAXus44.s:2462   .debug_str:000000000000043b .LASF105
     /tmp/ccAXus44.s:2562   .debug_str:00000000000007eb .LASF106
     /tmp/ccAXus44.s:2408   .debug_str:0000000000000296 .LASF107
     /tmp/ccAXus44.s:239    .text:000000000000013c .LFB32
     /tmp/ccAXus44.s:315    .text:00000000000001bc .LFE32
     /tmp/ccAXus44.s:280    .text:0000000000000184 .LBB6
     /tmp/ccAXus44.s:295    .text:000000000000019c .LBE6
     /tmp/ccAXus44.s:2474   .debug_str:000000000000049c .LASF108
     /tmp/ccAXus44.s:2215   .debug_loc:0000000000000000 .LLST5
     /tmp/ccAXus44.s:294    .text:000000000000019c .LVL17
     /tmp/ccAXus44.s:118    .text:000000000000008c .LFB31
     /tmp/ccAXus44.s:233    .text:000000000000013c .LFE31
     /tmp/ccAXus44.s:2378   .debug_str:0000000000000197 .LASF109
     /tmp/ccAXus44.s:2406   .debug_str:0000000000000289 .LASF110
     /tmp/ccAXus44.s:2222   .debug_loc:0000000000000023 .LLST2
     /tmp/ccAXus44.s:2460   .debug_str:000000000000042f .LASF111
     /tmp/ccAXus44.s:2245   .debug_loc:0000000000000092 .LLST3
     /tmp/ccAXus44.s:2366   .debug_str:0000000000000162 .LASF112
     /tmp/ccAXus44.s:2264   .debug_loc:00000000000000ee .LLST4
     /tmp/ccAXus44.s:69     .text:000000000000004c .LFB30
     /tmp/ccAXus44.s:112    .text:000000000000008c .LFE30
     /tmp/ccAXus44.s:2354   .debug_str:000000000000010e .LASF113
     /tmp/ccAXus44.s:10     .text:0000000000000000 .LFB29
     /tmp/ccAXus44.s:63     .text:000000000000004c .LFE29
     /tmp/ccAXus44.s:35     .text:0000000000000024 .LBB4
     /tmp/ccAXus44.s:44     .text:000000000000002c .LBE4
     /tmp/ccAXus44.s:2288   .debug_loc:000000000000015f .LLST0
     /tmp/ccAXus44.s:2296   .debug_loc:0000000000000183 .LLST1
     /tmp/ccAXus44.s:2488   .debug_str:00000000000004fe .LASF123
     /tmp/ccAXus44.s:2346   .debug_str:00000000000000e0 .LASF124
     /tmp/ccAXus44.s:282    .text:0000000000000184 .LVL16
     /tmp/ccAXus44.s:144    .text:00000000000000b8 .LVL5
     /tmp/ccAXus44.s:155    .text:00000000000000c8 .LVL6
     /tmp/ccAXus44.s:164    .text:00000000000000d4 .LVL7
     /tmp/ccAXus44.s:167    .text:00000000000000d8 .LVL8
     /tmp/ccAXus44.s:177    .text:00000000000000e8 .LVL9
     /tmp/ccAXus44.s:201    .text:0000000000000110 .LVL11
     /tmp/ccAXus44.s:211    .text:000000000000011c .LVL12
     /tmp/ccAXus44.s:197    .text:0000000000000104 .LVL10
     /tmp/ccAXus44.s:227    .text:0000000000000130 .LVL14
     /tmp/ccAXus44.s:220    .text:0000000000000128 .LVL13
     /tmp/ccAXus44.s:34     .text:0000000000000024 .LVL1
     /tmp/ccAXus44.s:42     .text:000000000000002c .LVL2
     /tmp/ccAXus44.s:342    .debug_info:0000000000000000 .Ldebug_info0
GAS LISTING /tmp/ccAXus44.s 			page 16



NO UNDEFINED SYMBOLS
