GAS LISTING /tmp/ccvMqhTO.s 			page 1


   1              		.file	"Scheduler.cpp"
   2              		.option pic
   3              		.option norelax
   4              		.text
   5              	.Ltext0:
   6              		.align	2
   7              		.globl	_ZN9Scheduler3putEP3TCB
   9              	_ZN9Scheduler3putEP3TCB:
  10              	.LFB30:
  11              		.file 1 "src/Scheduler.cpp"
   1:src/Scheduler.cpp **** //
   2:src/Scheduler.cpp **** // Created by os on 5/25/23.
   3:src/Scheduler.cpp **** //
   4:src/Scheduler.cpp **** 
   5:src/Scheduler.cpp **** #include "../h/Scheduler.hpp"
   6:src/Scheduler.cpp **** #include "../h/TCB.hpp"
   7:src/Scheduler.cpp **** 
   8:src/Scheduler.cpp **** //Scheduler* Scheduler::singleton = nullptr;
   9:src/Scheduler.cpp **** TCB* Scheduler::head = nullptr;
  10:src/Scheduler.cpp **** TCB* Scheduler::tail = nullptr;
  11:src/Scheduler.cpp **** TCB* Scheduler::sleepingHead = nullptr;
  12:src/Scheduler.cpp **** 
  13:src/Scheduler.cpp **** void Scheduler::put(TCB* tcb) {
  12              		.loc 1 13 31
  13              		.cfi_startproc
  14              	.LVL0:
  15 0000 130101FF 		addi	sp,sp,-16
  16              		.cfi_def_cfa_offset 16
  17 0004 23348100 		sd	s0,8(sp)
  18              		.cfi_offset 8, -8
  19 0008 13040101 		addi	s0,sp,16
  20              		.cfi_def_cfa 8, 0
  14:src/Scheduler.cpp **** 	if (tail == nullptr) {
  21              		.loc 1 14 2
  22              		.loc 1 14 11 is_stmt 0
  23 000c 97070000 		ld	a5,.LANCHOR0
  23      83B70700 
  24              		.loc 1 14 2
  25 0014 638E0700 		beqz	a5,.L5
  15:src/Scheduler.cpp **** 		head = tail = tcb;
  16:src/Scheduler.cpp **** 	} else {
  17:src/Scheduler.cpp **** 		tail->nextInScheduler = tcb;
  26              		.loc 1 17 3 is_stmt 1
  27              		.loc 1 17 25 is_stmt 0
  28 0018 23BCA702 		sd	a0,56(a5)
  18:src/Scheduler.cpp **** 		tail = tcb;
  29              		.loc 1 18 3 is_stmt 1
  30              		.loc 1 18 8 is_stmt 0
  31 001c 97070000 		sd	a0,.LANCHOR0,a5
  31      23B0A700 
  32              	.L1:
  19:src/Scheduler.cpp **** 	}
  20:src/Scheduler.cpp **** }
  33              		.loc 1 20 1
  34 0024 03348100 		ld	s0,8(sp)
  35              		.cfi_remember_state
  36              		.cfi_restore 8
GAS LISTING /tmp/ccvMqhTO.s 			page 2


  37              		.cfi_def_cfa 2, 16
  38 0028 13010101 		addi	sp,sp,16
  39              		.cfi_def_cfa_offset 0
  40 002c 67800000 		jr	ra
  41              	.L5:
  42              		.cfi_restore_state
  15:src/Scheduler.cpp **** 	} else {
  43              		.loc 1 15 3 is_stmt 1
  15:src/Scheduler.cpp **** 	} else {
  44              		.loc 1 15 15 is_stmt 0
  45 0030 97070000 		lla	a5,.LANCHOR0
  45      93870700 
  46 0038 23B0A700 		sd	a0,0(a5)
  15:src/Scheduler.cpp **** 	} else {
  47              		.loc 1 15 8
  48 003c 23B4A700 		sd	a0,8(a5)
  49 0040 6FF05FFE 		j	.L1
  50              		.cfi_endproc
  51              	.LFE30:
  53              		.align	2
  54              		.globl	_ZN9Scheduler3getEv
  56              	_ZN9Scheduler3getEv:
  57              	.LFB31:
  21:src/Scheduler.cpp **** 
  22:src/Scheduler.cpp **** TCB* Scheduler::get() {
  58              		.loc 1 22 23 is_stmt 1
  59              		.cfi_startproc
  60 0044 130101FF 		addi	sp,sp,-16
  61              		.cfi_def_cfa_offset 16
  62 0048 23348100 		sd	s0,8(sp)
  63              		.cfi_offset 8, -8
  64 004c 13040101 		addi	s0,sp,16
  65              		.cfi_def_cfa 8, 0
  23:src/Scheduler.cpp **** 	TCB* firstThread = head;
  66              		.loc 1 23 2
  67              		.loc 1 23 7 is_stmt 0
  68 0050 17070000 		lla	a4,.LANCHOR0
  68      13070700 
  69 0058 03358700 		ld	a0,8(a4)
  70              	.LVL1:
  24:src/Scheduler.cpp **** 	head = head->nextInScheduler;
  71              		.loc 1 24 2 is_stmt 1
  72              		.loc 1 24 15 is_stmt 0
  73 005c 83378503 		ld	a5,56(a0)
  74              		.loc 1 24 7
  75 0060 2334F700 		sd	a5,8(a4)
  25:src/Scheduler.cpp **** 	if (head == nullptr) {
  76              		.loc 1 25 2 is_stmt 1
  77 0064 638A0700 		beqz	a5,.L9
  78              	.L7:
  26:src/Scheduler.cpp **** 		tail = head = nullptr;
  27:src/Scheduler.cpp **** 	}
  28:src/Scheduler.cpp **** 	firstThread->nextInScheduler = nullptr;
  79              		.loc 1 28 2
  80              		.loc 1 28 31 is_stmt 0
  81 0068 233C0502 		sd	zero,56(a0)
  29:src/Scheduler.cpp **** 	return firstThread;
GAS LISTING /tmp/ccvMqhTO.s 			page 3


  82              		.loc 1 29 2 is_stmt 1
  30:src/Scheduler.cpp **** }
  83              		.loc 1 30 1 is_stmt 0
  84 006c 03348100 		ld	s0,8(sp)
  85              		.cfi_remember_state
  86              		.cfi_restore 8
  87              		.cfi_def_cfa 2, 16
  88 0070 13010101 		addi	sp,sp,16
  89              		.cfi_def_cfa_offset 0
  90 0074 67800000 		jr	ra
  91              	.L9:
  92              		.cfi_restore_state
  26:src/Scheduler.cpp **** 		tail = head = nullptr;
  93              		.loc 1 26 3 is_stmt 1
  26:src/Scheduler.cpp **** 		tail = head = nullptr;
  94              		.loc 1 26 15 is_stmt 0
  95 0078 23340700 		sd	zero,8(a4)
  26:src/Scheduler.cpp **** 		tail = head = nullptr;
  96              		.loc 1 26 8
  97 007c 23300700 		sd	zero,0(a4)
  98 0080 6FF09FFE 		j	.L7
  99              		.cfi_endproc
 100              	.LFE31:
 102              		.align	2
 103              		.globl	_ZN9Scheduler10putToSleepEP3TCBm
 105              	_ZN9Scheduler10putToSleepEP3TCBm:
 106              	.LFB32:
  31:src/Scheduler.cpp **** 
  32:src/Scheduler.cpp **** void Scheduler::putToSleep(TCB* tcb, time_t sleepTime) {
 107              		.loc 1 32 56 is_stmt 1
 108              		.cfi_startproc
 109              	.LVL2:
 110 0084 130101FF 		addi	sp,sp,-16
 111              		.cfi_def_cfa_offset 16
 112 0088 23348100 		sd	s0,8(sp)
 113              		.cfi_offset 8, -8
 114 008c 13040101 		addi	s0,sp,16
 115              		.cfi_def_cfa 8, 0
  33:src/Scheduler.cpp **** 	if (sleepingHead == nullptr) {
 116              		.loc 1 33 2
 117              		.loc 1 33 19 is_stmt 0
 118 0090 17080000 		ld	a6,.LANCHOR0+16
 118      03380800 
 119              		.loc 1 33 2
 120 0098 63080802 		beqz	a6,.L17
  34:src/Scheduler.cpp **** 		sleepingHead = tcb;
  35:src/Scheduler.cpp **** 		tcb->timeToSleep = sleepTime;
  36:src/Scheduler.cpp **** 		return;
  37:src/Scheduler.cpp **** 	}
  38:src/Scheduler.cpp **** 	TCB* prevSleeping = nullptr;
  39:src/Scheduler.cpp **** 	time_t accumulated = 0;
  40:src/Scheduler.cpp **** 	TCB* current = sleepingHead;
 121              		.loc 1 40 7
 122 009c 93070800 		mv	a5,a6
  39:src/Scheduler.cpp **** 	TCB* current = sleepingHead;
 123              		.loc 1 39 9
 124 00a0 93060000 		li	a3,0
GAS LISTING /tmp/ccvMqhTO.s 			page 4


  38:src/Scheduler.cpp **** 	time_t accumulated = 0;
 125              		.loc 1 38 7
 126 00a4 13060000 		li	a2,0
 127              	.L11:
 128              	.LVL3:
  41:src/Scheduler.cpp **** 	for (; current && accumulated + current->timeToSleep < sleepTime; current = current->nextSleeping)
 129              		.loc 1 41 2 is_stmt 1 discriminator 3
 130              		.loc 1 41 17 discriminator 3
 131 00a8 63880702 		beqz	a5,.L13
 132              		.loc 1 41 43 is_stmt 0 discriminator 1
 133 00ac 03B70704 		ld	a4,64(a5)
 134              		.loc 1 41 32 discriminator 1
 135 00b0 3307D700 		add	a4,a4,a3
 136              		.loc 1 41 17 discriminator 1
 137 00b4 6372B702 		bgeu	a4,a1,.L13
  42:src/Scheduler.cpp **** 		accumulated += current->timeToSleep;
 138              		.loc 1 42 3 is_stmt 1 discriminator 2
 139              	.LVL4:
  43:src/Scheduler.cpp **** 		prevSleeping = current;
 140              		.loc 1 43 3 discriminator 2
  41:src/Scheduler.cpp **** 	for (; current && accumulated + current->timeToSleep < sleepTime; current = current->nextSleeping)
 141              		.loc 1 41 2 discriminator 2
  42:src/Scheduler.cpp **** 		accumulated += current->timeToSleep;
 142              		.loc 1 42 15 is_stmt 0 discriminator 2
 143 00b8 93060700 		mv	a3,a4
 144              		.loc 1 43 16 discriminator 2
 145 00bc 13860700 		mv	a2,a5
  41:src/Scheduler.cpp **** 	for (; current && accumulated + current->timeToSleep < sleepTime; current = current->nextSleeping)
 146              		.loc 1 41 76 discriminator 2
 147 00c0 83B78704 		ld	a5,72(a5)
 148              	.LVL5:
  41:src/Scheduler.cpp **** 	for (; current && accumulated + current->timeToSleep < sleepTime; current = current->nextSleeping)
 149              		.loc 1 41 2 discriminator 2
 150 00c4 6FF05FFE 		j	.L11
 151              	.LVL6:
 152              	.L17:
  34:src/Scheduler.cpp **** 		tcb->timeToSleep = sleepTime;
 153              		.loc 1 34 3 is_stmt 1
  34:src/Scheduler.cpp **** 		tcb->timeToSleep = sleepTime;
 154              		.loc 1 34 16 is_stmt 0
 155 00c8 97070000 		sd	a0,.LANCHOR0+16,a5
 155      23B0A700 
  35:src/Scheduler.cpp **** 		return;
 156              		.loc 1 35 3 is_stmt 1
  35:src/Scheduler.cpp **** 		return;
 157              		.loc 1 35 20 is_stmt 0
 158 00d0 2330B504 		sd	a1,64(a0)
  36:src/Scheduler.cpp **** 	}
 159              		.loc 1 36 3 is_stmt 1
 160 00d4 6F00C002 		j	.L10
 161              	.LVL7:
 162              	.L13:
  44:src/Scheduler.cpp **** 	}
  45:src/Scheduler.cpp **** 	if (!prevSleeping) {
 163              		.loc 1 45 2
 164 00d8 630A0602 		beqz	a2,.L18
  46:src/Scheduler.cpp **** 		tcb->nextSleeping = sleepingHead;
GAS LISTING /tmp/ccvMqhTO.s 			page 5


  47:src/Scheduler.cpp **** 		sleepingHead = tcb;
  48:src/Scheduler.cpp **** 		tcb->timeToSleep = sleepTime;
  49:src/Scheduler.cpp **** 		tcb->nextSleeping->timeToSleep -= sleepTime;
  50:src/Scheduler.cpp **** 		return;
  51:src/Scheduler.cpp **** 	}
  52:src/Scheduler.cpp **** 	tcb->nextSleeping = current;
 165              		.loc 1 52 2
 166              		.loc 1 52 20 is_stmt 0
 167 00dc 2334F504 		sd	a5,72(a0)
  53:src/Scheduler.cpp **** 	prevSleeping->nextSleeping = tcb;
 168              		.loc 1 53 2 is_stmt 1
 169              		.loc 1 53 29 is_stmt 0
 170 00e0 2334A604 		sd	a0,72(a2)
  54:src/Scheduler.cpp **** 	tcb->timeToSleep = sleepTime - accumulated;
 171              		.loc 1 54 2 is_stmt 1
 172              		.loc 1 54 31 is_stmt 0
 173 00e4 3387D540 		sub	a4,a1,a3
 174              		.loc 1 54 19
 175 00e8 2330E504 		sd	a4,64(a0)
  55:src/Scheduler.cpp **** 	if (current) current->timeToSleep -= sleepTime - accumulated;
 176              		.loc 1 55 2 is_stmt 1
 177 00ec 638A0700 		beqz	a5,.L10
 178              		.loc 1 55 15 discriminator 1
 179              		.loc 1 55 36 is_stmt 0 discriminator 1
 180 00f0 B386B640 		sub	a3,a3,a1
 181              	.LVL8:
 182 00f4 03B70704 		ld	a4,64(a5)
 183 00f8 B306D700 		add	a3,a4,a3
 184 00fc 23B0D704 		sd	a3,64(a5)
 185              	.LVL9:
 186              	.L10:
  56:src/Scheduler.cpp **** }
 187              		.loc 1 56 1
 188 0100 03348100 		ld	s0,8(sp)
 189              		.cfi_remember_state
 190              		.cfi_restore 8
 191              		.cfi_def_cfa 2, 16
 192 0104 13010101 		addi	sp,sp,16
 193              		.cfi_def_cfa_offset 0
 194 0108 67800000 		jr	ra
 195              	.LVL10:
 196              	.L18:
 197              		.cfi_restore_state
  46:src/Scheduler.cpp **** 		sleepingHead = tcb;
 198              		.loc 1 46 3 is_stmt 1
  46:src/Scheduler.cpp **** 		sleepingHead = tcb;
 199              		.loc 1 46 21 is_stmt 0
 200 010c 23340505 		sd	a6,72(a0)
  47:src/Scheduler.cpp **** 		tcb->timeToSleep = sleepTime;
 201              		.loc 1 47 3 is_stmt 1
  47:src/Scheduler.cpp **** 		tcb->timeToSleep = sleepTime;
 202              		.loc 1 47 16 is_stmt 0
 203 0110 97070000 		sd	a0,.LANCHOR0+16,a5
 203      23B0A700 
 204              	.LVL11:
  48:src/Scheduler.cpp **** 		tcb->nextSleeping->timeToSleep -= sleepTime;
 205              		.loc 1 48 3 is_stmt 1
GAS LISTING /tmp/ccvMqhTO.s 			page 6


  48:src/Scheduler.cpp **** 		tcb->nextSleeping->timeToSleep -= sleepTime;
 206              		.loc 1 48 20 is_stmt 0
 207 0118 2330B504 		sd	a1,64(a0)
  49:src/Scheduler.cpp **** 		return;
 208              		.loc 1 49 3 is_stmt 1
  49:src/Scheduler.cpp **** 		return;
 209              		.loc 1 49 34 is_stmt 0
 210 011c 83360804 		ld	a3,64(a6)
 211              	.LVL12:
 212 0120 B386B640 		sub	a3,a3,a1
 213 0124 2330D804 		sd	a3,64(a6)
  50:src/Scheduler.cpp **** 	}
 214              		.loc 1 50 3 is_stmt 1
 215 0128 6FF09FFD 		j	.L10
 216              		.cfi_endproc
 217              	.LFE32:
 219              		.align	2
 220              		.globl	_ZN9Scheduler4wakeEv
 222              	_ZN9Scheduler4wakeEv:
 223              	.LFB33:
  57:src/Scheduler.cpp **** 
  58:src/Scheduler.cpp **** void Scheduler::wake() {
 224              		.loc 1 58 24
 225              		.cfi_startproc
  59:src/Scheduler.cpp **** 	if (!sleepingHead) return;
 226              		.loc 1 59 2
 227              		.loc 1 59 6 is_stmt 0
 228 012c 97070000 		ld	a5,.LANCHOR0+16
 228      83B70700 
 229              		.loc 1 59 2
 230 0134 638A0706 		beqz	a5,.L23
  60:src/Scheduler.cpp **** 	sleepingHead->timeToSleep--;
 231              		.loc 1 60 2 is_stmt 1
 232              		.loc 1 60 16 is_stmt 0
 233 0138 03B70704 		ld	a4,64(a5)
 234              		.loc 1 60 27
 235 013c 1307F7FF 		addi	a4,a4,-1
 236 0140 23B0E704 		sd	a4,64(a5)
  61:src/Scheduler.cpp **** 	while (sleepingHead && sleepingHead->timeToSleep == 0) {
 237              		.loc 1 61 2 is_stmt 1
 238              		.loc 1 61 22
 239              		.loc 1 61 54 is_stmt 0
 240 0144 17050000 		ld	a0,.LANCHOR0+16
 240      03350500 
 241              		.loc 1 61 22
 242 014c 630E0504 		beqz	a0,.L23
 243              		.loc 1 61 39
 244 0150 83370504 		ld	a5,64(a0)
 245              		.loc 1 61 22
 246 0154 639A0704 		bnez	a5,.L23
  58:src/Scheduler.cpp **** 	if (!sleepingHead) return;
 247              		.loc 1 58 24
 248 0158 130101FF 		addi	sp,sp,-16
 249              		.cfi_def_cfa_offset 16
 250 015c 23341100 		sd	ra,8(sp)
 251 0160 23308100 		sd	s0,0(sp)
 252              		.cfi_offset 1, -8
GAS LISTING /tmp/ccvMqhTO.s 			page 7


 253              		.cfi_offset 8, -16
 254 0164 13040101 		addi	s0,sp,16
 255              		.cfi_def_cfa 8, 0
 256 0168 6F00C000 		j	.L26
 257              	.LVL13:
 258              	.L29:
 259              		.loc 1 61 39 discriminator 1
 260 016c 83370504 		ld	a5,64(a0)
 261              		.loc 1 61 22 discriminator 1
 262 0170 63940702 		bnez	a5,.L19
 263              	.L26:
 264              	.LBB2:
  62:src/Scheduler.cpp **** 		TCB* thread = sleepingHead;
 265              		.loc 1 62 3 is_stmt 1
 266              	.LVL14:
  63:src/Scheduler.cpp **** 		sleepingHead = sleepingHead->nextSleeping;
 267              		.loc 1 63 3
 268              		.loc 1 63 32 is_stmt 0
 269 0174 83378504 		ld	a5,72(a0)
 270              		.loc 1 63 16
 271 0178 17070000 		sd	a5,.LANCHOR0+16,a4
 271      2330F700 
  64:src/Scheduler.cpp **** 		thread->nextSleeping = nullptr;
 272              		.loc 1 64 3 is_stmt 1
 273              		.loc 1 64 24 is_stmt 0
 274 0180 23340504 		sd	zero,72(a0)
  65:src/Scheduler.cpp **** 		Scheduler::put(thread);
 275              		.loc 1 65 3 is_stmt 1
 276              		.loc 1 65 17 is_stmt 0
 277 0184 97000000 		call	_ZN9Scheduler3putEP3TCB
 277      E7800000 
 278              	.LVL15:
 279              	.LBE2:
  61:src/Scheduler.cpp **** 		TCB* thread = sleepingHead;
 280              		.loc 1 61 2 is_stmt 1
  61:src/Scheduler.cpp **** 		TCB* thread = sleepingHead;
 281              		.loc 1 61 22
  61:src/Scheduler.cpp **** 		TCB* thread = sleepingHead;
 282              		.loc 1 61 54 is_stmt 0
 283 018c 17050000 		ld	a0,.LANCHOR0+16
 283      03350500 
  61:src/Scheduler.cpp **** 		TCB* thread = sleepingHead;
 284              		.loc 1 61 22
 285 0194 E31C05FC 		bnez	a0,.L29
 286              	.L19:
  66:src/Scheduler.cpp **** 	}
  67:src/Scheduler.cpp **** }
 287              		.loc 1 67 1
 288 0198 83308100 		ld	ra,8(sp)
 289              		.cfi_restore 1
 290 019c 03340100 		ld	s0,0(sp)
 291              		.cfi_restore 8
 292              		.cfi_def_cfa 2, 16
 293 01a0 13010101 		addi	sp,sp,16
 294              		.cfi_def_cfa_offset 0
 295 01a4 67800000 		jr	ra
 296              	.L23:
GAS LISTING /tmp/ccvMqhTO.s 			page 8


 297 01a8 67800000 		ret
 298              		.cfi_endproc
 299              	.LFE33:
 301              		.globl	_ZN9Scheduler12sleepingHeadE
 302              		.globl	_ZN9Scheduler4tailE
 303              		.globl	_ZN9Scheduler4headE
 304              		.bss
 305              		.align	3
 306              		.set	.LANCHOR0,. + 0
 309              	_ZN9Scheduler4tailE:
 310 0000 00000000 		.zero	8
 310      00000000 
 313              	_ZN9Scheduler4headE:
 314 0008 00000000 		.zero	8
 314      00000000 
 317              	_ZN9Scheduler12sleepingHeadE:
 318 0010 00000000 		.zero	8
 318      00000000 
 319              		.text
 320              	.Letext0:
 321              		.file 2 "src/../h/Scheduler.hpp"
 322              		.file 3 "src/../h/TCB.hpp"
 323              		.file 4 "src/../h/../lib/hw.h"
 324              		.file 5 "src/../h/../h/ThreadQueue.hpp"
 325              		.file 6 "src/../h/../h/../h/syscall_c.hpp"
GAS LISTING /tmp/ccvMqhTO.s 			page 9


DEFINED SYMBOLS
                            *ABS*:0000000000000000 Scheduler.cpp
     /tmp/ccvMqhTO.s:9      .text:0000000000000000 _ZN9Scheduler3putEP3TCB
     /tmp/ccvMqhTO.s:13     .text:0000000000000000 .L0 
     /tmp/ccvMqhTO.s:15     .text:0000000000000000 .L0 
     /tmp/ccvMqhTO.s:16     .text:0000000000000004 .L0 
     /tmp/ccvMqhTO.s:18     .text:0000000000000008 .L0 
     /tmp/ccvMqhTO.s:20     .text:000000000000000c .L0 
     /tmp/ccvMqhTO.s:22     .text:000000000000000c .L0 
     /tmp/ccvMqhTO.s:23     .text:000000000000000c .L0 
     /tmp/ccvMqhTO.s:25     .text:0000000000000014 .L0 
     /tmp/ccvMqhTO.s:27     .text:0000000000000018 .L0 
     /tmp/ccvMqhTO.s:28     .text:0000000000000018 .L0 
     /tmp/ccvMqhTO.s:30     .text:000000000000001c .L0 
     /tmp/ccvMqhTO.s:31     .text:000000000000001c .L0 
     /tmp/ccvMqhTO.s:34     .text:0000000000000024 .L0 
     /tmp/ccvMqhTO.s:35     .text:0000000000000028 .L0 
     /tmp/ccvMqhTO.s:36     .text:0000000000000028 .L0 
     /tmp/ccvMqhTO.s:37     .text:0000000000000028 .L0 
     /tmp/ccvMqhTO.s:39     .text:000000000000002c .L0 
     /tmp/ccvMqhTO.s:42     .text:0000000000000030 .L0 
     /tmp/ccvMqhTO.s:44     .text:0000000000000030 .L0 
     /tmp/ccvMqhTO.s:45     .text:0000000000000030 .L0 
     /tmp/ccvMqhTO.s:48     .text:000000000000003c .L0 
     /tmp/ccvMqhTO.s:50     .text:0000000000000044 .L0 
     /tmp/ccvMqhTO.s:56     .text:0000000000000044 _ZN9Scheduler3getEv
     /tmp/ccvMqhTO.s:59     .text:0000000000000044 .L0 
     /tmp/ccvMqhTO.s:60     .text:0000000000000044 .L0 
     /tmp/ccvMqhTO.s:61     .text:0000000000000048 .L0 
     /tmp/ccvMqhTO.s:63     .text:000000000000004c .L0 
     /tmp/ccvMqhTO.s:65     .text:0000000000000050 .L0 
     /tmp/ccvMqhTO.s:67     .text:0000000000000050 .L0 
     /tmp/ccvMqhTO.s:68     .text:0000000000000050 .L0 
     /tmp/ccvMqhTO.s:72     .text:000000000000005c .L0 
     /tmp/ccvMqhTO.s:73     .text:000000000000005c .L0 
     /tmp/ccvMqhTO.s:75     .text:0000000000000060 .L0 
     /tmp/ccvMqhTO.s:77     .text:0000000000000064 .L0 
     /tmp/ccvMqhTO.s:80     .text:0000000000000068 .L0 
     /tmp/ccvMqhTO.s:81     .text:0000000000000068 .L0 
     /tmp/ccvMqhTO.s:83     .text:000000000000006c .L0 
     /tmp/ccvMqhTO.s:84     .text:000000000000006c .L0 
     /tmp/ccvMqhTO.s:85     .text:0000000000000070 .L0 
     /tmp/ccvMqhTO.s:86     .text:0000000000000070 .L0 
     /tmp/ccvMqhTO.s:87     .text:0000000000000070 .L0 
     /tmp/ccvMqhTO.s:89     .text:0000000000000074 .L0 
     /tmp/ccvMqhTO.s:92     .text:0000000000000078 .L0 
     /tmp/ccvMqhTO.s:94     .text:0000000000000078 .L0 
     /tmp/ccvMqhTO.s:95     .text:0000000000000078 .L0 
     /tmp/ccvMqhTO.s:97     .text:000000000000007c .L0 
     /tmp/ccvMqhTO.s:99     .text:0000000000000084 .L0 
     /tmp/ccvMqhTO.s:105    .text:0000000000000084 _ZN9Scheduler10putToSleepEP3TCBm
     /tmp/ccvMqhTO.s:108    .text:0000000000000084 .L0 
     /tmp/ccvMqhTO.s:110    .text:0000000000000084 .L0 
     /tmp/ccvMqhTO.s:111    .text:0000000000000088 .L0 
     /tmp/ccvMqhTO.s:113    .text:000000000000008c .L0 
     /tmp/ccvMqhTO.s:115    .text:0000000000000090 .L0 
     /tmp/ccvMqhTO.s:117    .text:0000000000000090 .L0 
GAS LISTING /tmp/ccvMqhTO.s 			page 10


     /tmp/ccvMqhTO.s:118    .text:0000000000000090 .L0 
     /tmp/ccvMqhTO.s:120    .text:0000000000000098 .L0 
     /tmp/ccvMqhTO.s:122    .text:000000000000009c .L0 
     /tmp/ccvMqhTO.s:124    .text:00000000000000a0 .L0 
     /tmp/ccvMqhTO.s:126    .text:00000000000000a4 .L0 
     /tmp/ccvMqhTO.s:130    .text:00000000000000a8 .L0 
     /tmp/ccvMqhTO.s:131    .text:00000000000000a8 .L0 
     /tmp/ccvMqhTO.s:133    .text:00000000000000ac .L0 
     /tmp/ccvMqhTO.s:135    .text:00000000000000b0 .L0 
     /tmp/ccvMqhTO.s:137    .text:00000000000000b4 .L0 
     /tmp/ccvMqhTO.s:140    .text:00000000000000b8 .L0 
     /tmp/ccvMqhTO.s:141    .text:00000000000000b8 .L0 
     /tmp/ccvMqhTO.s:142    .text:00000000000000b8 .L0 
     /tmp/ccvMqhTO.s:143    .text:00000000000000b8 .L0 
     /tmp/ccvMqhTO.s:145    .text:00000000000000bc .L0 
     /tmp/ccvMqhTO.s:147    .text:00000000000000c0 .L0 
     /tmp/ccvMqhTO.s:150    .text:00000000000000c4 .L0 
     /tmp/ccvMqhTO.s:154    .text:00000000000000c8 .L0 
     /tmp/ccvMqhTO.s:155    .text:00000000000000c8 .L0 
     /tmp/ccvMqhTO.s:157    .text:00000000000000d0 .L0 
     /tmp/ccvMqhTO.s:158    .text:00000000000000d0 .L0 
     /tmp/ccvMqhTO.s:160    .text:00000000000000d4 .L0 
     /tmp/ccvMqhTO.s:164    .text:00000000000000d8 .L0 
     /tmp/ccvMqhTO.s:166    .text:00000000000000dc .L0 
     /tmp/ccvMqhTO.s:167    .text:00000000000000dc .L0 
     /tmp/ccvMqhTO.s:169    .text:00000000000000e0 .L0 
     /tmp/ccvMqhTO.s:170    .text:00000000000000e0 .L0 
     /tmp/ccvMqhTO.s:172    .text:00000000000000e4 .L0 
     /tmp/ccvMqhTO.s:173    .text:00000000000000e4 .L0 
     /tmp/ccvMqhTO.s:175    .text:00000000000000e8 .L0 
     /tmp/ccvMqhTO.s:177    .text:00000000000000ec .L0 
     /tmp/ccvMqhTO.s:179    .text:00000000000000f0 .L0 
     /tmp/ccvMqhTO.s:180    .text:00000000000000f0 .L0 
     /tmp/ccvMqhTO.s:188    .text:0000000000000100 .L0 
     /tmp/ccvMqhTO.s:189    .text:0000000000000104 .L0 
     /tmp/ccvMqhTO.s:190    .text:0000000000000104 .L0 
     /tmp/ccvMqhTO.s:191    .text:0000000000000104 .L0 
     /tmp/ccvMqhTO.s:193    .text:0000000000000108 .L0 
     /tmp/ccvMqhTO.s:197    .text:000000000000010c .L0 
     /tmp/ccvMqhTO.s:199    .text:000000000000010c .L0 
     /tmp/ccvMqhTO.s:200    .text:000000000000010c .L0 
     /tmp/ccvMqhTO.s:202    .text:0000000000000110 .L0 
     /tmp/ccvMqhTO.s:203    .text:0000000000000110 .L0 
     /tmp/ccvMqhTO.s:206    .text:0000000000000118 .L0 
     /tmp/ccvMqhTO.s:207    .text:0000000000000118 .L0 
     /tmp/ccvMqhTO.s:209    .text:000000000000011c .L0 
     /tmp/ccvMqhTO.s:210    .text:000000000000011c .L0 
     /tmp/ccvMqhTO.s:215    .text:0000000000000128 .L0 
     /tmp/ccvMqhTO.s:216    .text:000000000000012c .L0 
     /tmp/ccvMqhTO.s:222    .text:000000000000012c _ZN9Scheduler4wakeEv
     /tmp/ccvMqhTO.s:225    .text:000000000000012c .L0 
     /tmp/ccvMqhTO.s:226    .text:000000000000012c .L0 
     /tmp/ccvMqhTO.s:227    .text:000000000000012c .L0 
     /tmp/ccvMqhTO.s:228    .text:000000000000012c .L0 
     /tmp/ccvMqhTO.s:230    .text:0000000000000134 .L0 
     /tmp/ccvMqhTO.s:232    .text:0000000000000138 .L0 
     /tmp/ccvMqhTO.s:233    .text:0000000000000138 .L0 
GAS LISTING /tmp/ccvMqhTO.s 			page 11


     /tmp/ccvMqhTO.s:235    .text:000000000000013c .L0 
     /tmp/ccvMqhTO.s:238    .text:0000000000000144 .L0 
     /tmp/ccvMqhTO.s:239    .text:0000000000000144 .L0 
     /tmp/ccvMqhTO.s:240    .text:0000000000000144 .L0 
     /tmp/ccvMqhTO.s:242    .text:000000000000014c .L0 
     /tmp/ccvMqhTO.s:244    .text:0000000000000150 .L0 
     /tmp/ccvMqhTO.s:246    .text:0000000000000154 .L0 
     /tmp/ccvMqhTO.s:248    .text:0000000000000158 .L0 
     /tmp/ccvMqhTO.s:249    .text:000000000000015c .L0 
     /tmp/ccvMqhTO.s:252    .text:0000000000000164 .L0 
     /tmp/ccvMqhTO.s:253    .text:0000000000000164 .L0 
     /tmp/ccvMqhTO.s:255    .text:0000000000000168 .L0 
     /tmp/ccvMqhTO.s:260    .text:000000000000016c .L0 
     /tmp/ccvMqhTO.s:262    .text:0000000000000170 .L0 
     /tmp/ccvMqhTO.s:267    .text:0000000000000174 .L0 
     /tmp/ccvMqhTO.s:268    .text:0000000000000174 .L0 
     /tmp/ccvMqhTO.s:269    .text:0000000000000174 .L0 
     /tmp/ccvMqhTO.s:271    .text:0000000000000178 .L0 
     /tmp/ccvMqhTO.s:273    .text:0000000000000180 .L0 
     /tmp/ccvMqhTO.s:274    .text:0000000000000180 .L0 
     /tmp/ccvMqhTO.s:276    .text:0000000000000184 .L0 
     /tmp/ccvMqhTO.s:277    .text:0000000000000184 .L0 
     /tmp/ccvMqhTO.s:281    .text:000000000000018c .L0 
     /tmp/ccvMqhTO.s:282    .text:000000000000018c .L0 
     /tmp/ccvMqhTO.s:283    .text:000000000000018c .L0 
     /tmp/ccvMqhTO.s:285    .text:0000000000000194 .L0 
     /tmp/ccvMqhTO.s:288    .text:0000000000000198 .L0 
     /tmp/ccvMqhTO.s:289    .text:000000000000019c .L0 
     /tmp/ccvMqhTO.s:291    .text:00000000000001a0 .L0 
     /tmp/ccvMqhTO.s:292    .text:00000000000001a0 .L0 
     /tmp/ccvMqhTO.s:294    .text:00000000000001a4 .L0 
     /tmp/ccvMqhTO.s:298    .text:00000000000001ac .L0 
     /tmp/ccvMqhTO.s:317    .bss:0000000000000010 _ZN9Scheduler12sleepingHeadE
     /tmp/ccvMqhTO.s:309    .bss:0000000000000000 _ZN9Scheduler4tailE
     /tmp/ccvMqhTO.s:313    .bss:0000000000000008 _ZN9Scheduler4headE
     /tmp/ccvMqhTO.s:306    .bss:0000000000000000 .LANCHOR0
     /tmp/ccvMqhTO.s:326    .text:00000000000001ac .L0 
     /tmp/ccvMqhTO.s:23     .text:000000000000000c .L0 
     /tmp/ccvMqhTO.s:31     .text:000000000000001c .L0 
     /tmp/ccvMqhTO.s:45     .text:0000000000000030 .L0 
     /tmp/ccvMqhTO.s:68     .text:0000000000000050 .L0 
     /tmp/ccvMqhTO.s:118    .text:0000000000000090 .L0 
     /tmp/ccvMqhTO.s:155    .text:00000000000000c8 .L0 
     /tmp/ccvMqhTO.s:203    .text:0000000000000110 .L0 
     /tmp/ccvMqhTO.s:228    .text:000000000000012c .L0 
     /tmp/ccvMqhTO.s:240    .text:0000000000000144 .L0 
     /tmp/ccvMqhTO.s:271    .text:0000000000000178 .L0 
     /tmp/ccvMqhTO.s:283    .text:000000000000018c .L0 
     /tmp/ccvMqhTO.s:41     .text:0000000000000030 .L5
     /tmp/ccvMqhTO.s:32     .text:0000000000000024 .L1
     /tmp/ccvMqhTO.s:91     .text:0000000000000078 .L9
     /tmp/ccvMqhTO.s:78     .text:0000000000000068 .L7
     /tmp/ccvMqhTO.s:152    .text:00000000000000c8 .L17
     /tmp/ccvMqhTO.s:162    .text:00000000000000d8 .L13
     /tmp/ccvMqhTO.s:127    .text:00000000000000a8 .L11
     /tmp/ccvMqhTO.s:186    .text:0000000000000100 .L10
     /tmp/ccvMqhTO.s:196    .text:000000000000010c .L18
GAS LISTING /tmp/ccvMqhTO.s 			page 12


     /tmp/ccvMqhTO.s:296    .text:00000000000001a8 .L23
     /tmp/ccvMqhTO.s:263    .text:0000000000000174 .L26
     /tmp/ccvMqhTO.s:286    .text:0000000000000198 .L19
     /tmp/ccvMqhTO.s:258    .text:000000000000016c .L29
     /tmp/ccvMqhTO.s:1258   .debug_abbrev:0000000000000000 .Ldebug_abbrev0
     /tmp/ccvMqhTO.s:2393   .debug_str:00000000000005b0 .LASF108
     /tmp/ccvMqhTO.s:2417   .debug_str:0000000000000752 .LASF109
     /tmp/ccvMqhTO.s:2259   .debug_str:0000000000000191 .LASF110
     /tmp/ccvMqhTO.s:5      .text:0000000000000000 .Ltext0
     /tmp/ccvMqhTO.s:320    .text:00000000000001ac .Letext0
     /tmp/ccvMqhTO.s:2199   .debug_line:0000000000000000 .Ldebug_line0
     /tmp/ccvMqhTO.s:2237   .debug_str:00000000000000fa .LASF58
     /tmp/ccvMqhTO.s:2375   .debug_str:0000000000000538 .LASF54
     /tmp/ccvMqhTO.s:2349   .debug_str:0000000000000478 .LASF3
     /tmp/ccvMqhTO.s:2235   .debug_str:00000000000000f5 .LASF0
     /tmp/ccvMqhTO.s:2293   .debug_str:00000000000002ca .LASF1
     /tmp/ccvMqhTO.s:2319   .debug_str:000000000000038a .LASF2
     /tmp/ccvMqhTO.s:2377   .debug_str:000000000000054a .LASF6
     /tmp/ccvMqhTO.s:2221   .debug_str:000000000000008b .LASF50
     /tmp/ccvMqhTO.s:2299   .debug_str:00000000000002ee .LASF111
     /tmp/ccvMqhTO.s:2295   .debug_str:00000000000002cf .LASF4
     /tmp/ccvMqhTO.s:2407   .debug_str:00000000000006e1 .LASF112
     /tmp/ccvMqhTO.s:2233   .debug_str:00000000000000ea .LASF5
     /tmp/ccvMqhTO.s:2209   .debug_str:000000000000002a .LASF7
     /tmp/ccvMqhTO.s:2423   .debug_str:000000000000077e .LASF26
     /tmp/ccvMqhTO.s:2269   .debug_str:0000000000000201 .LASF28
     /tmp/ccvMqhTO.s:2207   .debug_str:0000000000000022 .LASF74
     /tmp/ccvMqhTO.s:2279   .debug_str:000000000000024f .LASF10
     /tmp/ccvMqhTO.s:2311   .debug_str:0000000000000354 .LASF12
     /tmp/ccvMqhTO.s:2217   .debug_str:0000000000000081 .LASF113
     /tmp/ccvMqhTO.s:2329   .debug_str:00000000000003c9 .LASF8
     /tmp/ccvMqhTO.s:2359   .debug_str:00000000000004be .LASF9
     /tmp/ccvMqhTO.s:2339   .debug_str:0000000000000427 .LASF14
     /tmp/ccvMqhTO.s:2287   .debug_str:0000000000000299 .LASF16
     /tmp/ccvMqhTO.s:2301   .debug_str:0000000000000302 .LASF11
     /tmp/ccvMqhTO.s:2263   .debug_str:00000000000001d7 .LASF13
     /tmp/ccvMqhTO.s:2205   .debug_str:0000000000000018 .LASF15
     /tmp/ccvMqhTO.s:2347   .debug_str:0000000000000464 .LASF17
     /tmp/ccvMqhTO.s:2271   .debug_str:0000000000000216 .LASF18
     /tmp/ccvMqhTO.s:2399   .debug_str:0000000000000698 .LASF19
     /tmp/ccvMqhTO.s:2289   .debug_str:00000000000002af .LASF20
     /tmp/ccvMqhTO.s:2353   .debug_str:000000000000048f .LASF21
     /tmp/ccvMqhTO.s:2403   .debug_str:00000000000006c4 .LASF22
     /tmp/ccvMqhTO.s:2409   .debug_str:0000000000000702 .LASF23
     /tmp/ccvMqhTO.s:2239   .debug_str:0000000000000101 .LASF24
     /tmp/ccvMqhTO.s:2251   .debug_str:000000000000014f .LASF25
     /tmp/ccvMqhTO.s:2367   .debug_str:0000000000000502 .LASF27
     /tmp/ccvMqhTO.s:2303   .debug_str:000000000000030e .LASF29
     /tmp/ccvMqhTO.s:2373   .debug_str:0000000000000532 .LASF30
     /tmp/ccvMqhTO.s:2305   .debug_str:0000000000000327 .LASF31
     /tmp/ccvMqhTO.s:2313   .debug_str:0000000000000376 .LASF32
     /tmp/ccvMqhTO.s:2245   .debug_str:0000000000000122 .LASF33
     /tmp/ccvMqhTO.s:2383   .debug_str:000000000000057e .LASF34
     /tmp/ccvMqhTO.s:2379   .debug_str:000000000000055c .LASF35
     /tmp/ccvMqhTO.s:2241   .debug_str:000000000000010c .LASF36
     /tmp/ccvMqhTO.s:2363   .debug_str:00000000000004d5 .LASF37
     /tmp/ccvMqhTO.s:2277   .debug_str:0000000000000247 .LASF38
GAS LISTING /tmp/ccvMqhTO.s 			page 13


     /tmp/ccvMqhTO.s:2297   .debug_str:00000000000002df .LASF39
     /tmp/ccvMqhTO.s:2315   .debug_str:000000000000037f .LASF40
     /tmp/ccvMqhTO.s:2317   .debug_str:0000000000000385 .LASF41
     /tmp/ccvMqhTO.s:2323   .debug_str:000000000000039f .LASF42
     /tmp/ccvMqhTO.s:2273   .debug_str:0000000000000221 .LASF43
     /tmp/ccvMqhTO.s:2201   .debug_str:0000000000000000 .LASF44
     /tmp/ccvMqhTO.s:2225   .debug_str:00000000000000af .LASF45
     /tmp/ccvMqhTO.s:2213   .debug_str:000000000000006a .LASF46
     /tmp/ccvMqhTO.s:2265   .debug_str:00000000000001ee .LASF47
     /tmp/ccvMqhTO.s:2343   .debug_str:0000000000000439 .LASF48
     /tmp/ccvMqhTO.s:2243   .debug_str:0000000000000114 .LASF49
     /tmp/ccvMqhTO.s:2425   .debug_str:0000000000000783 .LASF51
     /tmp/ccvMqhTO.s:2415   .debug_str:0000000000000744 .LASF96
     /tmp/ccvMqhTO.s:2261   .debug_str:00000000000001af .LASF97
     /tmp/ccvMqhTO.s:2419   .debug_str:0000000000000764 .LASF52
     /tmp/ccvMqhTO.s:2387   .debug_str:000000000000058e .LASF53
     /tmp/ccvMqhTO.s:2381   .debug_str:000000000000056e .LASF80
     /tmp/ccvMqhTO.s:2355   .debug_str:00000000000004a7 .LASF81
     /tmp/ccvMqhTO.s:2421   .debug_str:0000000000000771 .LASF55
     /tmp/ccvMqhTO.s:2331   .debug_str:00000000000003cf .LASF56
     /tmp/ccvMqhTO.s:2291   .debug_str:00000000000002bc .LASF57
     /tmp/ccvMqhTO.s:2267   .debug_str:00000000000001fa .LASF59
     /tmp/ccvMqhTO.s:2215   .debug_str:000000000000007a .LASF60
     /tmp/ccvMqhTO.s:2337   .debug_str:0000000000000414 .LASF61
     /tmp/ccvMqhTO.s:2309   .debug_str:0000000000000341 .LASF62
     /tmp/ccvMqhTO.s:2405   .debug_str:00000000000006d1 .LASF63
     /tmp/ccvMqhTO.s:2255   .debug_str:000000000000017d .LASF64
     /tmp/ccvMqhTO.s:2411   .debug_str:000000000000071a .LASF65
     /tmp/ccvMqhTO.s:2397   .debug_str:0000000000000689 .LASF66
     /tmp/ccvMqhTO.s:2283   .debug_str:0000000000000274 .LASF67
     /tmp/ccvMqhTO.s:2203   .debug_str:0000000000000008 .LASF68
     /tmp/ccvMqhTO.s:2223   .debug_str:00000000000000a3 .LASF69
     /tmp/ccvMqhTO.s:2371   .debug_str:000000000000051c .LASF70
     /tmp/ccvMqhTO.s:2253   .debug_str:0000000000000167 .LASF71
     /tmp/ccvMqhTO.s:2247   .debug_str:0000000000000135 .LASF72
     /tmp/ccvMqhTO.s:2369   .debug_str:0000000000000510 .LASF73
     /tmp/ccvMqhTO.s:2219   .debug_str:0000000000000086 .LASF75
     /tmp/ccvMqhTO.s:2427   .debug_str:0000000000000799 .LASF76
     /tmp/ccvMqhTO.s:2429   .debug_str:000000000000079e .LASF77
     /tmp/ccvMqhTO.s:2345   .debug_str:0000000000000446 .LASF78
     /tmp/ccvMqhTO.s:2333   .debug_str:00000000000003e2 .LASF79
     /tmp/ccvMqhTO.s:2413   .debug_str:0000000000000729 .LASF82
     /tmp/ccvMqhTO.s:2257   .debug_str:000000000000018b .LASF83
     /tmp/ccvMqhTO.s:2361   .debug_str:00000000000004d0 .LASF84
     /tmp/ccvMqhTO.s:2249   .debug_str:000000000000013a .LASF85
     /tmp/ccvMqhTO.s:2335   .debug_str:00000000000003fc .LASF86
     /tmp/ccvMqhTO.s:2307   .debug_str:0000000000000337 .LASF114
     /tmp/ccvMqhTO.s:2281   .debug_str:000000000000025c .LASF115
     /tmp/ccvMqhTO.s:2351   .debug_str:0000000000000482 .LASF87
     /tmp/ccvMqhTO.s:2285   .debug_str:0000000000000284 .LASF88
     /tmp/ccvMqhTO.s:2229   .debug_str:00000000000000c6 .LASF89
     /tmp/ccvMqhTO.s:2231   .debug_str:00000000000000ce .LASF90
     /tmp/ccvMqhTO.s:2385   .debug_str:0000000000000586 .LASF91
     /tmp/ccvMqhTO.s:2211   .debug_str:000000000000004b .LASF92
     /tmp/ccvMqhTO.s:2389   .debug_str:000000000000059a .LASF93
     /tmp/ccvMqhTO.s:2365   .debug_str:00000000000004e6 .LASF94
     /tmp/ccvMqhTO.s:2395   .debug_str:0000000000000674 .LASF95
GAS LISTING /tmp/ccvMqhTO.s 			page 14


     /tmp/ccvMqhTO.s:2401   .debug_str:00000000000006ae .LASF98
     /tmp/ccvMqhTO.s:2327   .debug_str:00000000000003b5 .LASF99
     /tmp/ccvMqhTO.s:2431   .debug_str:00000000000007a3 .LASF100
     /tmp/ccvMqhTO.s:2275   .debug_str:000000000000022a .LASF101
     /tmp/ccvMqhTO.s:223    .text:000000000000012c .LFB33
     /tmp/ccvMqhTO.s:299    .text:00000000000001ac .LFE33
     /tmp/ccvMqhTO.s:264    .text:0000000000000174 .LBB2
     /tmp/ccvMqhTO.s:279    .text:000000000000018c .LBE2
     /tmp/ccvMqhTO.s:2341   .debug_str:0000000000000432 .LASF102
     /tmp/ccvMqhTO.s:2113   .debug_loc:0000000000000000 .LLST3
     /tmp/ccvMqhTO.s:278    .text:000000000000018c .LVL15
     /tmp/ccvMqhTO.s:106    .text:0000000000000084 .LFB32
     /tmp/ccvMqhTO.s:217    .text:000000000000012c .LFE32
     /tmp/ccvMqhTO.s:2357   .debug_str:00000000000004b4 .LASF103
     /tmp/ccvMqhTO.s:2391   .debug_str:00000000000005a3 .LASF104
     /tmp/ccvMqhTO.s:2120   .debug_loc:0000000000000023 .LLST0
     /tmp/ccvMqhTO.s:2325   .debug_str:00000000000003a9 .LASF105
     /tmp/ccvMqhTO.s:2143   .debug_loc:0000000000000092 .LLST1
     /tmp/ccvMqhTO.s:2321   .debug_str:0000000000000397 .LASF106
     /tmp/ccvMqhTO.s:2162   .debug_loc:00000000000000ee .LLST2
     /tmp/ccvMqhTO.s:57     .text:0000000000000044 .LFB31
     /tmp/ccvMqhTO.s:100    .text:0000000000000084 .LFE31
     /tmp/ccvMqhTO.s:2227   .debug_str:00000000000000ba .LASF107
     /tmp/ccvMqhTO.s:10     .text:0000000000000000 .LFB30
     /tmp/ccvMqhTO.s:51     .text:0000000000000044 .LFE30
     /tmp/ccvMqhTO.s:266    .text:0000000000000174 .LVL14
     /tmp/ccvMqhTO.s:128    .text:00000000000000a8 .LVL3
     /tmp/ccvMqhTO.s:139    .text:00000000000000b8 .LVL4
     /tmp/ccvMqhTO.s:148    .text:00000000000000c4 .LVL5
     /tmp/ccvMqhTO.s:151    .text:00000000000000c8 .LVL6
     /tmp/ccvMqhTO.s:161    .text:00000000000000d8 .LVL7
     /tmp/ccvMqhTO.s:185    .text:0000000000000100 .LVL9
     /tmp/ccvMqhTO.s:195    .text:000000000000010c .LVL10
     /tmp/ccvMqhTO.s:181    .text:00000000000000f4 .LVL8
     /tmp/ccvMqhTO.s:211    .text:0000000000000120 .LVL12
     /tmp/ccvMqhTO.s:204    .text:0000000000000118 .LVL11
     /tmp/ccvMqhTO.s:327    .debug_info:0000000000000000 .Ldebug_info0

NO UNDEFINED SYMBOLS
