GAS LISTING /tmp/ccceZdcG.s 			page 1


   1              		.file	"Scheduler.cpp"
   2              		.option pic
   3              		.option norelax
   4              		.text
   5              	.Ltext0:
   6              		.align	2
   7              		.globl	_ZN9Scheduler3putEP3TCB
   9              	_ZN9Scheduler3putEP3TCB:
  10              	.LFB12:
  11              		.file 1 "src/Scheduler.cpp"
   1:src/Scheduler.cpp **** //
   2:src/Scheduler.cpp **** // Created by os on 5/25/23.
   3:src/Scheduler.cpp **** //
   4:src/Scheduler.cpp **** 
   5:src/Scheduler.cpp **** #include "../h/Scheduler.hpp"
   6:src/Scheduler.cpp **** #include "../h/TCB.hpp"
   7:src/Scheduler.cpp **** 
   8:src/Scheduler.cpp **** //Scheduler* Scheduler::singleton = nullptr;
   9:src/Scheduler.cpp **** TCB* Scheduler::head = nullptr;
  10:src/Scheduler.cpp **** TCB* Scheduler::tail = nullptr;
  11:src/Scheduler.cpp **** 
  12:src/Scheduler.cpp **** void Scheduler::put(TCB* tcb) {
  12              		.loc 1 12 31
  13              		.cfi_startproc
  14              	.LVL0:
  15 0000 130101FF 		addi	sp,sp,-16
  16              		.cfi_def_cfa_offset 16
  17 0004 23348100 		sd	s0,8(sp)
  18              		.cfi_offset 8, -8
  19 0008 13040101 		addi	s0,sp,16
  20              		.cfi_def_cfa 8, 0
  13:src/Scheduler.cpp **** 	if (tail == nullptr) {
  21              		.loc 1 13 2
  22              		.loc 1 13 11 is_stmt 0
  23 000c 97070000 		ld	a5,.LANCHOR0
  23      83B70700 
  24              		.loc 1 13 2
  25 0014 638E0700 		beqz	a5,.L5
  14:src/Scheduler.cpp **** 		head = tail = tcb;
  15:src/Scheduler.cpp **** 	} else {
  16:src/Scheduler.cpp **** 		tail->nextInScheduler = tcb;
  26              		.loc 1 16 3 is_stmt 1
  27              		.loc 1 16 25 is_stmt 0
  28 0018 23BCA702 		sd	a0,56(a5)
  17:src/Scheduler.cpp **** 		tail = tcb;
  29              		.loc 1 17 3 is_stmt 1
  30              		.loc 1 17 8 is_stmt 0
  31 001c 97070000 		sd	a0,.LANCHOR0,a5
  31      23B0A700 
  32              	.L1:
  18:src/Scheduler.cpp **** 	}
  19:src/Scheduler.cpp **** }
  33              		.loc 1 19 1
  34 0024 03348100 		ld	s0,8(sp)
  35              		.cfi_remember_state
  36              		.cfi_restore 8
  37              		.cfi_def_cfa 2, 16
GAS LISTING /tmp/ccceZdcG.s 			page 2


  38 0028 13010101 		addi	sp,sp,16
  39              		.cfi_def_cfa_offset 0
  40 002c 67800000 		jr	ra
  41              	.L5:
  42              		.cfi_restore_state
  14:src/Scheduler.cpp **** 	} else {
  43              		.loc 1 14 3 is_stmt 1
  14:src/Scheduler.cpp **** 	} else {
  44              		.loc 1 14 15 is_stmt 0
  45 0030 97070000 		lla	a5,.LANCHOR0
  45      93870700 
  46 0038 23B0A700 		sd	a0,0(a5)
  14:src/Scheduler.cpp **** 	} else {
  47              		.loc 1 14 8
  48 003c 23B4A700 		sd	a0,8(a5)
  49 0040 6FF05FFE 		j	.L1
  50              		.cfi_endproc
  51              	.LFE12:
  53              		.align	2
  54              		.globl	_ZN9Scheduler3getEv
  56              	_ZN9Scheduler3getEv:
  57              	.LFB13:
  20:src/Scheduler.cpp **** 
  21:src/Scheduler.cpp **** TCB* Scheduler::get() {
  58              		.loc 1 21 23 is_stmt 1
  59              		.cfi_startproc
  60 0044 130101FF 		addi	sp,sp,-16
  61              		.cfi_def_cfa_offset 16
  62 0048 23348100 		sd	s0,8(sp)
  63              		.cfi_offset 8, -8
  64 004c 13040101 		addi	s0,sp,16
  65              		.cfi_def_cfa 8, 0
  22:src/Scheduler.cpp **** 	TCB* firstThread = head;
  66              		.loc 1 22 2
  67              		.loc 1 22 7 is_stmt 0
  68 0050 17070000 		lla	a4,.LANCHOR0
  68      13070700 
  69 0058 03358700 		ld	a0,8(a4)
  70              	.LVL1:
  23:src/Scheduler.cpp **** 	head = head->nextInScheduler;
  71              		.loc 1 23 2 is_stmt 1
  72              		.loc 1 23 15 is_stmt 0
  73 005c 83378503 		ld	a5,56(a0)
  74              		.loc 1 23 7
  75 0060 2334F700 		sd	a5,8(a4)
  24:src/Scheduler.cpp **** 	if (head == nullptr) {
  76              		.loc 1 24 2 is_stmt 1
  77 0064 63880700 		beqz	a5,.L9
  78              	.L6:
  25:src/Scheduler.cpp **** 		tail = head = nullptr;
  26:src/Scheduler.cpp **** 	}
  27:src/Scheduler.cpp **** 	return firstThread;
  28:src/Scheduler.cpp **** }...
  79              		.loc 1 28 1 is_stmt 0
  80 0068 03348100 		ld	s0,8(sp)
  81              		.cfi_remember_state
  82              		.cfi_restore 8
GAS LISTING /tmp/ccceZdcG.s 			page 3


  83              		.cfi_def_cfa 2, 16
  84 006c 13010101 		addi	sp,sp,16
  85              		.cfi_def_cfa_offset 0
  86 0070 67800000 		jr	ra
  87              	.L9:
  88              		.cfi_restore_state
  25:src/Scheduler.cpp **** 		tail = head = nullptr;
  89              		.loc 1 25 3 is_stmt 1
  25:src/Scheduler.cpp **** 		tail = head = nullptr;
  90              		.loc 1 25 15 is_stmt 0
  91 0074 23340700 		sd	zero,8(a4)
  25:src/Scheduler.cpp **** 		tail = head = nullptr;
  92              		.loc 1 25 8
  93 0078 23300700 		sd	zero,0(a4)
  27:src/Scheduler.cpp **** 	return firstThread;
  94              		.loc 1 27 2 is_stmt 1
  27:src/Scheduler.cpp **** 	return firstThread;
  95              		.loc 1 27 9 is_stmt 0
  96 007c 6FF0DFFE 		j	.L6
  97              		.cfi_endproc
  98              	.LFE13:
 100              		.globl	_ZN9Scheduler4tailE
 101              		.globl	_ZN9Scheduler4headE
 102              		.bss
 103              		.align	3
 104              		.set	.LANCHOR0,. + 0
 107              	_ZN9Scheduler4tailE:
 108 0000 00000000 		.zero	8
 108      00000000 
 111              	_ZN9Scheduler4headE:
 112 0008 00000000 		.zero	8
 112      00000000 
 113              		.text
 114              	.Letext0:
 115              		.file 2 "src/../h/Scheduler.hpp"
 116              		.file 3 "src/../h/TCB.hpp"
 117              		.file 4 "src/../h/../lib/hw.h"
GAS LISTING /tmp/ccceZdcG.s 			page 4


DEFINED SYMBOLS
                            *ABS*:0000000000000000 Scheduler.cpp
     /tmp/ccceZdcG.s:9      .text:0000000000000000 _ZN9Scheduler3putEP3TCB
     /tmp/ccceZdcG.s:13     .text:0000000000000000 .L0 
     /tmp/ccceZdcG.s:15     .text:0000000000000000 .L0 
     /tmp/ccceZdcG.s:16     .text:0000000000000004 .L0 
     /tmp/ccceZdcG.s:18     .text:0000000000000008 .L0 
     /tmp/ccceZdcG.s:20     .text:000000000000000c .L0 
     /tmp/ccceZdcG.s:22     .text:000000000000000c .L0 
     /tmp/ccceZdcG.s:23     .text:000000000000000c .L0 
     /tmp/ccceZdcG.s:25     .text:0000000000000014 .L0 
     /tmp/ccceZdcG.s:27     .text:0000000000000018 .L0 
     /tmp/ccceZdcG.s:28     .text:0000000000000018 .L0 
     /tmp/ccceZdcG.s:30     .text:000000000000001c .L0 
     /tmp/ccceZdcG.s:31     .text:000000000000001c .L0 
     /tmp/ccceZdcG.s:34     .text:0000000000000024 .L0 
     /tmp/ccceZdcG.s:35     .text:0000000000000028 .L0 
     /tmp/ccceZdcG.s:36     .text:0000000000000028 .L0 
     /tmp/ccceZdcG.s:37     .text:0000000000000028 .L0 
     /tmp/ccceZdcG.s:39     .text:000000000000002c .L0 
     /tmp/ccceZdcG.s:42     .text:0000000000000030 .L0 
     /tmp/ccceZdcG.s:44     .text:0000000000000030 .L0 
     /tmp/ccceZdcG.s:45     .text:0000000000000030 .L0 
     /tmp/ccceZdcG.s:48     .text:000000000000003c .L0 
     /tmp/ccceZdcG.s:50     .text:0000000000000044 .L0 
     /tmp/ccceZdcG.s:56     .text:0000000000000044 _ZN9Scheduler3getEv
     /tmp/ccceZdcG.s:59     .text:0000000000000044 .L0 
     /tmp/ccceZdcG.s:60     .text:0000000000000044 .L0 
     /tmp/ccceZdcG.s:61     .text:0000000000000048 .L0 
     /tmp/ccceZdcG.s:63     .text:000000000000004c .L0 
     /tmp/ccceZdcG.s:65     .text:0000000000000050 .L0 
     /tmp/ccceZdcG.s:67     .text:0000000000000050 .L0 
     /tmp/ccceZdcG.s:68     .text:0000000000000050 .L0 
     /tmp/ccceZdcG.s:72     .text:000000000000005c .L0 
     /tmp/ccceZdcG.s:73     .text:000000000000005c .L0 
     /tmp/ccceZdcG.s:75     .text:0000000000000060 .L0 
     /tmp/ccceZdcG.s:77     .text:0000000000000064 .L0 
     /tmp/ccceZdcG.s:80     .text:0000000000000068 .L0 
     /tmp/ccceZdcG.s:81     .text:000000000000006c .L0 
     /tmp/ccceZdcG.s:82     .text:000000000000006c .L0 
     /tmp/ccceZdcG.s:83     .text:000000000000006c .L0 
     /tmp/ccceZdcG.s:85     .text:0000000000000070 .L0 
     /tmp/ccceZdcG.s:88     .text:0000000000000074 .L0 
     /tmp/ccceZdcG.s:90     .text:0000000000000074 .L0 
     /tmp/ccceZdcG.s:91     .text:0000000000000074 .L0 
     /tmp/ccceZdcG.s:93     .text:0000000000000078 .L0 
     /tmp/ccceZdcG.s:95     .text:000000000000007c .L0 
     /tmp/ccceZdcG.s:96     .text:000000000000007c .L0 
     /tmp/ccceZdcG.s:97     .text:0000000000000080 .L0 
     /tmp/ccceZdcG.s:107    .bss:0000000000000000 _ZN9Scheduler4tailE
     /tmp/ccceZdcG.s:111    .bss:0000000000000008 _ZN9Scheduler4headE
     /tmp/ccceZdcG.s:104    .bss:0000000000000000 .LANCHOR0
     /tmp/ccceZdcG.s:118    .text:0000000000000080 .L0 
     /tmp/ccceZdcG.s:23     .text:000000000000000c .L0 
     /tmp/ccceZdcG.s:31     .text:000000000000001c .L0 
     /tmp/ccceZdcG.s:45     .text:0000000000000030 .L0 
     /tmp/ccceZdcG.s:68     .text:0000000000000050 .L0 
GAS LISTING /tmp/ccceZdcG.s 			page 5


     /tmp/ccceZdcG.s:41     .text:0000000000000030 .L5
     /tmp/ccceZdcG.s:32     .text:0000000000000024 .L1
     /tmp/ccceZdcG.s:87     .text:0000000000000074 .L9
     /tmp/ccceZdcG.s:78     .text:0000000000000068 .L6
     /tmp/ccceZdcG.s:675    .debug_abbrev:0000000000000000 .Ldebug_abbrev0
     /tmp/ccceZdcG.s:1418   .debug_str:00000000000001fe .LASF64
     /tmp/ccceZdcG.s:1432   .debug_str:0000000000000322 .LASF65
     /tmp/ccceZdcG.s:1482   .debug_str:0000000000000473 .LASF66
     /tmp/ccceZdcG.s:5      .text:0000000000000000 .Ltext0
     /tmp/ccceZdcG.s:114    .text:0000000000000080 .Letext0
     /tmp/ccceZdcG.s:1352   .debug_line:0000000000000000 .Ldebug_line0
     /tmp/ccceZdcG.s:1388   .debug_str:000000000000012a .LASF2
     /tmp/ccceZdcG.s:1428   .debug_str:000000000000030b .LASF0
     /tmp/ccceZdcG.s:1484   .debug_str:0000000000000491 .LASF1
     /tmp/ccceZdcG.s:1430   .debug_str:0000000000000310 .LASF18
     /tmp/ccceZdcG.s:1378   .debug_str:00000000000000bc .LASF38
     /tmp/ccceZdcG.s:1370   .debug_str:000000000000008c .LASF67
     /tmp/ccceZdcG.s:1384   .debug_str:00000000000000fa .LASF68
     /tmp/ccceZdcG.s:1454   .debug_str:00000000000003a2 .LASF3
     /tmp/ccceZdcG.s:1354   .debug_str:0000000000000000 .LASF5
     /tmp/ccceZdcG.s:1452   .debug_str:000000000000039d .LASF69
     /tmp/ccceZdcG.s:1392   .debug_str:0000000000000147 .LASF7
     /tmp/ccceZdcG.s:1424   .debug_str:00000000000002e1 .LASF9
     /tmp/ccceZdcG.s:1444   .debug_str:0000000000000371 .LASF4
     /tmp/ccceZdcG.s:1396   .debug_str:000000000000015a .LASF6
     /tmp/ccceZdcG.s:1356   .debug_str:0000000000000022 .LASF8
     /tmp/ccceZdcG.s:1468   .debug_str:0000000000000414 .LASF10
     /tmp/ccceZdcG.s:1500   .debug_str:0000000000000506 .LASF11
     /tmp/ccceZdcG.s:1400   .debug_str:0000000000000181 .LASF12
     /tmp/ccceZdcG.s:1464   .debug_str:00000000000003f7 .LASF13
     /tmp/ccceZdcG.s:1486   .debug_str:0000000000000496 .LASF14
     /tmp/ccceZdcG.s:1476   .debug_str:0000000000000452 .LASF15
     /tmp/ccceZdcG.s:1368   .debug_str:0000000000000074 .LASF16
     /tmp/ccceZdcG.s:1450   .debug_str:0000000000000391 .LASF17
     /tmp/ccceZdcG.s:1492   .debug_str:00000000000004c3 .LASF19
     /tmp/ccceZdcG.s:1416   .debug_str:00000000000001f3 .LASF20
     /tmp/ccceZdcG.s:1460   .debug_str:00000000000003d7 .LASF21
     /tmp/ccceZdcG.s:1434   .debug_str:0000000000000334 .LASF22
     /tmp/ccceZdcG.s:1398   .debug_str:0000000000000171 .LASF24
     /tmp/ccceZdcG.s:1410   .debug_str:00000000000001ce .LASF23
     /tmp/ccceZdcG.s:1422   .debug_str:00000000000002ce .LASF25
     /tmp/ccceZdcG.s:1374   .debug_str:00000000000000ae .LASF26
     /tmp/ccceZdcG.s:1436   .debug_str:000000000000033a .LASF27
     /tmp/ccceZdcG.s:1440   .debug_str:0000000000000359 .LASF28
     /tmp/ccceZdcG.s:1496   .debug_str:00000000000004e6 .LASF29
     /tmp/ccceZdcG.s:1462   .debug_str:00000000000003ef .LASF30
     /tmp/ccceZdcG.s:1478   .debug_str:000000000000045f .LASF31
     /tmp/ccceZdcG.s:1376   .debug_str:00000000000000b6 .LASF32
     /tmp/ccceZdcG.s:1480   .debug_str:000000000000046e .LASF33
     /tmp/ccceZdcG.s:1360   .debug_str:000000000000003f .LASF34
     /tmp/ccceZdcG.s:1408   .debug_str:00000000000001c5 .LASF35
     /tmp/ccceZdcG.s:1394   .debug_str:0000000000000152 .LASF36
     /tmp/ccceZdcG.s:1382   .debug_str:00000000000000ea .LASF37
     /tmp/ccceZdcG.s:1470   .debug_str:0000000000000428 .LASF39
     /tmp/ccceZdcG.s:1412   .debug_str:00000000000001d7 .LASF70
     /tmp/ccceZdcG.s:1386   .debug_str:0000000000000102 .LASF71
     /tmp/ccceZdcG.s:1446   .debug_str:000000000000037d .LASF40
GAS LISTING /tmp/ccceZdcG.s 			page 6


     /tmp/ccceZdcG.s:1494   .debug_str:00000000000004da .LASF41
     /tmp/ccceZdcG.s:1442   .debug_str:0000000000000361 .LASF72
     /tmp/ccceZdcG.s:1474   .debug_str:0000000000000445 .LASF73
     /tmp/ccceZdcG.s:1438   .debug_str:000000000000034c .LASF42
     /tmp/ccceZdcG.s:1406   .debug_str:00000000000001b2 .LASF43
     /tmp/ccceZdcG.s:1414   .debug_str:00000000000001e5 .LASF44
     /tmp/ccceZdcG.s:1472   .debug_str:000000000000043e .LASF46
     /tmp/ccceZdcG.s:1456   .debug_str:00000000000003af .LASF45
     /tmp/ccceZdcG.s:1362   .debug_str:0000000000000049 .LASF47
     /tmp/ccceZdcG.s:1448   .debug_str:000000000000038a .LASF48
     /tmp/ccceZdcG.s:1358   .debug_str:000000000000002c .LASF49
     /tmp/ccceZdcG.s:1390   .debug_str:0000000000000134 .LASF50
     /tmp/ccceZdcG.s:1364   .debug_str:0000000000000050 .LASF51
     /tmp/ccceZdcG.s:1372   .debug_str:00000000000000a0 .LASF52
     /tmp/ccceZdcG.s:1404   .debug_str:00000000000001a3 .LASF53
     /tmp/ccceZdcG.s:1498   .debug_str:00000000000004f7 .LASF54
     /tmp/ccceZdcG.s:1490   .debug_str:00000000000004b3 .LASF55
     /tmp/ccceZdcG.s:1466   .debug_str:0000000000000404 .LASF56
     /tmp/ccceZdcG.s:1402   .debug_str:0000000000000197 .LASF57
     /tmp/ccceZdcG.s:1380   .debug_str:00000000000000d4 .LASF58
     /tmp/ccceZdcG.s:1458   .debug_str:00000000000003c1 .LASF59
     /tmp/ccceZdcG.s:1488   .debug_str:00000000000004ae .LASF60
     /tmp/ccceZdcG.s:1366   .debug_str:0000000000000060 .LASF61
     /tmp/ccceZdcG.s:1426   .debug_str:00000000000002f7 .LASF62
     /tmp/ccceZdcG.s:57     .text:0000000000000044 .LFB13
     /tmp/ccceZdcG.s:98     .text:0000000000000080 .LFE13
     /tmp/ccceZdcG.s:1420   .debug_str:00000000000002c2 .LASF63
     /tmp/ccceZdcG.s:10     .text:0000000000000000 .LFB12
     /tmp/ccceZdcG.s:51     .text:0000000000000044 .LFE12
     /tmp/ccceZdcG.s:119    .debug_info:0000000000000000 .Ldebug_info0

NO UNDEFINED SYMBOLS
