GAS LISTING /tmp/ccDEF7bE.s 			page 1


   1              		.file	"Scheduler.cpp"
   2              		.option pic
   3              		.option norelax
   4              		.text
   5              	.Ltext0:
   6              		.align	2
   7              		.globl	_ZN9Scheduler3putEP3TCB
   9              	_ZN9Scheduler3putEP3TCB:
  10              	.LFB12:
  11              		.file 1 "src/Scheduler.cpp"
   1:src/Scheduler.cpp **** //
   2:src/Scheduler.cpp **** // Created by os on 5/25/23.
   3:src/Scheduler.cpp **** //
   4:src/Scheduler.cpp **** 
   5:src/Scheduler.cpp **** #include "../h/Scheduler.hpp"
   6:src/Scheduler.cpp **** #include "../h/TCB.hpp"
   7:src/Scheduler.cpp **** 
   8:src/Scheduler.cpp **** //Scheduler* Scheduler::singleton = nullptr;
   9:src/Scheduler.cpp **** TCB* Scheduler::head = nullptr;
  10:src/Scheduler.cpp **** TCB* Scheduler::tail = nullptr;
  11:src/Scheduler.cpp **** 
  12:src/Scheduler.cpp **** void Scheduler::put(TCB* tcb) {
  12              		.loc 1 12 31
  13              		.cfi_startproc
  14              	.LVL0:
  15 0000 130101FF 		addi	sp,sp,-16
  16              		.cfi_def_cfa_offset 16
  17 0004 23348100 		sd	s0,8(sp)
  18              		.cfi_offset 8, -8
  19 0008 13040101 		addi	s0,sp,16
  20              		.cfi_def_cfa 8, 0
  13:src/Scheduler.cpp **** 	if (tail == nullptr) {
  21              		.loc 1 13 2
  22              		.loc 1 13 11 is_stmt 0
  23 000c 97070000 		ld	a5,.LANCHOR0
  23      83B70700 
  24              		.loc 1 13 2
  25 0014 638E0700 		beqz	a5,.L5
  14:src/Scheduler.cpp **** 		head = tail = tcb;
  15:src/Scheduler.cpp **** 	} else {
  16:src/Scheduler.cpp **** 		tail->nextInScheduler = tcb;
  26              		.loc 1 16 3 is_stmt 1
  27              		.loc 1 16 25 is_stmt 0
  28 0018 23BCA702 		sd	a0,56(a5)
  17:src/Scheduler.cpp **** 		tail = tcb;
  29              		.loc 1 17 3 is_stmt 1
  30              		.loc 1 17 8 is_stmt 0
  31 001c 97070000 		sd	a0,.LANCHOR0,a5
  31      23B0A700 
  32              	.L1:
  18:src/Scheduler.cpp **** 	}
  19:src/Scheduler.cpp **** }
  33              		.loc 1 19 1
  34 0024 03348100 		ld	s0,8(sp)
  35              		.cfi_remember_state
  36              		.cfi_restore 8
  37              		.cfi_def_cfa 2, 16
GAS LISTING /tmp/ccDEF7bE.s 			page 2


  38 0028 13010101 		addi	sp,sp,16
  39              		.cfi_def_cfa_offset 0
  40 002c 67800000 		jr	ra
  41              	.L5:
  42              		.cfi_restore_state
  14:src/Scheduler.cpp **** 	} else {
  43              		.loc 1 14 3 is_stmt 1
  14:src/Scheduler.cpp **** 	} else {
  44              		.loc 1 14 15 is_stmt 0
  45 0030 97070000 		lla	a5,.LANCHOR0
  45      93870700 
  46 0038 23B0A700 		sd	a0,0(a5)
  14:src/Scheduler.cpp **** 	} else {
  47              		.loc 1 14 8
  48 003c 23B4A700 		sd	a0,8(a5)
  49 0040 6FF05FFE 		j	.L1
  50              		.cfi_endproc
  51              	.LFE12:
  53              		.align	2
  54              		.globl	_ZN9Scheduler3getEv
  56              	_ZN9Scheduler3getEv:
  57              	.LFB13:
  20:src/Scheduler.cpp **** 
  21:src/Scheduler.cpp **** TCB* Scheduler::get() {
  58              		.loc 1 21 23 is_stmt 1
  59              		.cfi_startproc
  60 0044 130101FF 		addi	sp,sp,-16
  61              		.cfi_def_cfa_offset 16
  62 0048 23348100 		sd	s0,8(sp)
  63              		.cfi_offset 8, -8
  64 004c 13040101 		addi	s0,sp,16
  65              		.cfi_def_cfa 8, 0
  22:src/Scheduler.cpp **** 	TCB* firstThread = head;
  66              		.loc 1 22 2
  67              		.loc 1 22 7 is_stmt 0
  68 0050 17070000 		lla	a4,.LANCHOR0
  68      13070700 
  69 0058 03358700 		ld	a0,8(a4)
  70              	.LVL1:
  23:src/Scheduler.cpp **** 	head = head->nextInScheduler;
  71              		.loc 1 23 2 is_stmt 1
  72              		.loc 1 23 15 is_stmt 0
  73 005c 83378503 		ld	a5,56(a0)
  74              		.loc 1 23 7
  75 0060 2334F700 		sd	a5,8(a4)
  24:src/Scheduler.cpp **** 	if (head == nullptr) {
  76              		.loc 1 24 2 is_stmt 1
  77 0064 63880700 		beqz	a5,.L9
  78              	.L6:
  25:src/Scheduler.cpp **** 		tail = head = nullptr;
  26:src/Scheduler.cpp **** 	}
  27:src/Scheduler.cpp **** 	return firstThread;
  28:src/Scheduler.cpp **** }...
  79              		.loc 1 28 1 is_stmt 0
  80 0068 03348100 		ld	s0,8(sp)
  81              		.cfi_remember_state
  82              		.cfi_restore 8
GAS LISTING /tmp/ccDEF7bE.s 			page 3


  83              		.cfi_def_cfa 2, 16
  84 006c 13010101 		addi	sp,sp,16
  85              		.cfi_def_cfa_offset 0
  86 0070 67800000 		jr	ra
  87              	.L9:
  88              		.cfi_restore_state
  25:src/Scheduler.cpp **** 		tail = head = nullptr;
  89              		.loc 1 25 3 is_stmt 1
  25:src/Scheduler.cpp **** 		tail = head = nullptr;
  90              		.loc 1 25 15 is_stmt 0
  91 0074 23340700 		sd	zero,8(a4)
  25:src/Scheduler.cpp **** 		tail = head = nullptr;
  92              		.loc 1 25 8
  93 0078 23300700 		sd	zero,0(a4)
  27:src/Scheduler.cpp **** 	return firstThread;
  94              		.loc 1 27 2 is_stmt 1
  27:src/Scheduler.cpp **** 	return firstThread;
  95              		.loc 1 27 9 is_stmt 0
  96 007c 6FF0DFFE 		j	.L6
  97              		.cfi_endproc
  98              	.LFE13:
 100              		.globl	_ZN9Scheduler4tailE
 101              		.globl	_ZN9Scheduler4headE
 102              		.bss
 103              		.align	3
 104              		.set	.LANCHOR0,. + 0
 107              	_ZN9Scheduler4tailE:
 108 0000 00000000 		.zero	8
 108      00000000 
 111              	_ZN9Scheduler4headE:
 112 0008 00000000 		.zero	8
 112      00000000 
 113              		.text
 114              	.Letext0:
 115              		.file 2 "src/../h/Scheduler.hpp"
 116              		.file 3 "src/../h/TCB.hpp"
 117              		.file 4 "src/../h/../lib/hw.h"
GAS LISTING /tmp/ccDEF7bE.s 			page 4


DEFINED SYMBOLS
                            *ABS*:0000000000000000 Scheduler.cpp
     /tmp/ccDEF7bE.s:9      .text:0000000000000000 _ZN9Scheduler3putEP3TCB
     /tmp/ccDEF7bE.s:13     .text:0000000000000000 .L0 
     /tmp/ccDEF7bE.s:15     .text:0000000000000000 .L0 
     /tmp/ccDEF7bE.s:16     .text:0000000000000004 .L0 
     /tmp/ccDEF7bE.s:18     .text:0000000000000008 .L0 
     /tmp/ccDEF7bE.s:20     .text:000000000000000c .L0 
     /tmp/ccDEF7bE.s:22     .text:000000000000000c .L0 
     /tmp/ccDEF7bE.s:23     .text:000000000000000c .L0 
     /tmp/ccDEF7bE.s:25     .text:0000000000000014 .L0 
     /tmp/ccDEF7bE.s:27     .text:0000000000000018 .L0 
     /tmp/ccDEF7bE.s:28     .text:0000000000000018 .L0 
     /tmp/ccDEF7bE.s:30     .text:000000000000001c .L0 
     /tmp/ccDEF7bE.s:31     .text:000000000000001c .L0 
     /tmp/ccDEF7bE.s:34     .text:0000000000000024 .L0 
     /tmp/ccDEF7bE.s:35     .text:0000000000000028 .L0 
     /tmp/ccDEF7bE.s:36     .text:0000000000000028 .L0 
     /tmp/ccDEF7bE.s:37     .text:0000000000000028 .L0 
     /tmp/ccDEF7bE.s:39     .text:000000000000002c .L0 
     /tmp/ccDEF7bE.s:42     .text:0000000000000030 .L0 
     /tmp/ccDEF7bE.s:44     .text:0000000000000030 .L0 
     /tmp/ccDEF7bE.s:45     .text:0000000000000030 .L0 
     /tmp/ccDEF7bE.s:48     .text:000000000000003c .L0 
     /tmp/ccDEF7bE.s:50     .text:0000000000000044 .L0 
     /tmp/ccDEF7bE.s:56     .text:0000000000000044 _ZN9Scheduler3getEv
     /tmp/ccDEF7bE.s:59     .text:0000000000000044 .L0 
     /tmp/ccDEF7bE.s:60     .text:0000000000000044 .L0 
     /tmp/ccDEF7bE.s:61     .text:0000000000000048 .L0 
     /tmp/ccDEF7bE.s:63     .text:000000000000004c .L0 
     /tmp/ccDEF7bE.s:65     .text:0000000000000050 .L0 
     /tmp/ccDEF7bE.s:67     .text:0000000000000050 .L0 
     /tmp/ccDEF7bE.s:68     .text:0000000000000050 .L0 
     /tmp/ccDEF7bE.s:72     .text:000000000000005c .L0 
     /tmp/ccDEF7bE.s:73     .text:000000000000005c .L0 
     /tmp/ccDEF7bE.s:75     .text:0000000000000060 .L0 
     /tmp/ccDEF7bE.s:77     .text:0000000000000064 .L0 
     /tmp/ccDEF7bE.s:80     .text:0000000000000068 .L0 
     /tmp/ccDEF7bE.s:81     .text:000000000000006c .L0 
     /tmp/ccDEF7bE.s:82     .text:000000000000006c .L0 
     /tmp/ccDEF7bE.s:83     .text:000000000000006c .L0 
     /tmp/ccDEF7bE.s:85     .text:0000000000000070 .L0 
     /tmp/ccDEF7bE.s:88     .text:0000000000000074 .L0 
     /tmp/ccDEF7bE.s:90     .text:0000000000000074 .L0 
     /tmp/ccDEF7bE.s:91     .text:0000000000000074 .L0 
     /tmp/ccDEF7bE.s:93     .text:0000000000000078 .L0 
     /tmp/ccDEF7bE.s:95     .text:000000000000007c .L0 
     /tmp/ccDEF7bE.s:96     .text:000000000000007c .L0 
     /tmp/ccDEF7bE.s:97     .text:0000000000000080 .L0 
     /tmp/ccDEF7bE.s:107    .bss:0000000000000000 _ZN9Scheduler4tailE
     /tmp/ccDEF7bE.s:111    .bss:0000000000000008 _ZN9Scheduler4headE
     /tmp/ccDEF7bE.s:104    .bss:0000000000000000 .LANCHOR0
     /tmp/ccDEF7bE.s:118    .text:0000000000000080 .L0 
     /tmp/ccDEF7bE.s:23     .text:000000000000000c .L0 
     /tmp/ccDEF7bE.s:31     .text:000000000000001c .L0 
     /tmp/ccDEF7bE.s:45     .text:0000000000000030 .L0 
     /tmp/ccDEF7bE.s:68     .text:0000000000000050 .L0 
GAS LISTING /tmp/ccDEF7bE.s 			page 5


     /tmp/ccDEF7bE.s:41     .text:0000000000000030 .L5
     /tmp/ccDEF7bE.s:32     .text:0000000000000024 .L1
     /tmp/ccDEF7bE.s:87     .text:0000000000000074 .L9
     /tmp/ccDEF7bE.s:78     .text:0000000000000068 .L6
     /tmp/ccDEF7bE.s:654    .debug_abbrev:0000000000000000 .Ldebug_abbrev0
     /tmp/ccDEF7bE.s:1353   .debug_str:00000000000001fe .LASF62
     /tmp/ccDEF7bE.s:1367   .debug_str:0000000000000322 .LASF63
     /tmp/ccDEF7bE.s:1411   .debug_str:0000000000000449 .LASF64
     /tmp/ccDEF7bE.s:5      .text:0000000000000000 .Ltext0
     /tmp/ccDEF7bE.s:114    .text:0000000000000080 .Letext0
     /tmp/ccDEF7bE.s:1287   .debug_line:0000000000000000 .Ldebug_line0
     /tmp/ccDEF7bE.s:1323   .debug_str:000000000000012a .LASF2
     /tmp/ccDEF7bE.s:1363   .debug_str:000000000000030b .LASF0
     /tmp/ccDEF7bE.s:1413   .debug_str:0000000000000467 .LASF1
     /tmp/ccDEF7bE.s:1365   .debug_str:0000000000000310 .LASF18
     /tmp/ccDEF7bE.s:1313   .debug_str:00000000000000bc .LASF38
     /tmp/ccDEF7bE.s:1305   .debug_str:000000000000008c .LASF65
     /tmp/ccDEF7bE.s:1319   .debug_str:00000000000000fa .LASF66
     /tmp/ccDEF7bE.s:1385   .debug_str:0000000000000385 .LASF3
     /tmp/ccDEF7bE.s:1289   .debug_str:0000000000000000 .LASF5
     /tmp/ccDEF7bE.s:1383   .debug_str:0000000000000380 .LASF67
     /tmp/ccDEF7bE.s:1327   .debug_str:0000000000000147 .LASF7
     /tmp/ccDEF7bE.s:1359   .debug_str:00000000000002e1 .LASF9
     /tmp/ccDEF7bE.s:1377   .debug_str:0000000000000361 .LASF4
     /tmp/ccDEF7bE.s:1331   .debug_str:000000000000015a .LASF6
     /tmp/ccDEF7bE.s:1291   .debug_str:0000000000000022 .LASF8
     /tmp/ccDEF7bE.s:1399   .debug_str:00000000000003f7 .LASF10
     /tmp/ccDEF7bE.s:1427   .debug_str:00000000000004d0 .LASF11
     /tmp/ccDEF7bE.s:1335   .debug_str:0000000000000181 .LASF12
     /tmp/ccDEF7bE.s:1395   .debug_str:00000000000003da .LASF13
     /tmp/ccDEF7bE.s:1415   .debug_str:000000000000046c .LASF14
     /tmp/ccDEF7bE.s:1405   .debug_str:0000000000000428 .LASF15
     /tmp/ccDEF7bE.s:1303   .debug_str:0000000000000074 .LASF16
     /tmp/ccDEF7bE.s:1381   .debug_str:0000000000000374 .LASF17
     /tmp/ccDEF7bE.s:1421   .debug_str:0000000000000499 .LASF19
     /tmp/ccDEF7bE.s:1351   .debug_str:00000000000001f3 .LASF20
     /tmp/ccDEF7bE.s:1391   .debug_str:00000000000003ba .LASF21
     /tmp/ccDEF7bE.s:1369   .debug_str:0000000000000334 .LASF22
     /tmp/ccDEF7bE.s:1333   .debug_str:0000000000000171 .LASF24
     /tmp/ccDEF7bE.s:1345   .debug_str:00000000000001ce .LASF23
     /tmp/ccDEF7bE.s:1357   .debug_str:00000000000002ce .LASF25
     /tmp/ccDEF7bE.s:1309   .debug_str:00000000000000ae .LASF26
     /tmp/ccDEF7bE.s:1371   .debug_str:000000000000033a .LASF27
     /tmp/ccDEF7bE.s:1375   .debug_str:0000000000000359 .LASF28
     /tmp/ccDEF7bE.s:1423   .debug_str:00000000000004b0 .LASF29
     /tmp/ccDEF7bE.s:1393   .debug_str:00000000000003d2 .LASF30
     /tmp/ccDEF7bE.s:1407   .debug_str:0000000000000435 .LASF31
     /tmp/ccDEF7bE.s:1311   .debug_str:00000000000000b6 .LASF32
     /tmp/ccDEF7bE.s:1409   .debug_str:0000000000000444 .LASF33
     /tmp/ccDEF7bE.s:1295   .debug_str:000000000000003f .LASF34
     /tmp/ccDEF7bE.s:1343   .debug_str:00000000000001c5 .LASF35
     /tmp/ccDEF7bE.s:1329   .debug_str:0000000000000152 .LASF36
     /tmp/ccDEF7bE.s:1317   .debug_str:00000000000000ea .LASF37
     /tmp/ccDEF7bE.s:1401   .debug_str:000000000000040b .LASF39
     /tmp/ccDEF7bE.s:1347   .debug_str:00000000000001d7 .LASF68
     /tmp/ccDEF7bE.s:1321   .debug_str:0000000000000102 .LASF69
     /tmp/ccDEF7bE.s:1373   .debug_str:000000000000034c .LASF40
GAS LISTING /tmp/ccDEF7bE.s 			page 6


     /tmp/ccDEF7bE.s:1341   .debug_str:00000000000001b2 .LASF41
     /tmp/ccDEF7bE.s:1349   .debug_str:00000000000001e5 .LASF42
     /tmp/ccDEF7bE.s:1403   .debug_str:0000000000000421 .LASF44
     /tmp/ccDEF7bE.s:1387   .debug_str:0000000000000392 .LASF43
     /tmp/ccDEF7bE.s:1297   .debug_str:0000000000000049 .LASF45
     /tmp/ccDEF7bE.s:1379   .debug_str:000000000000036d .LASF46
     /tmp/ccDEF7bE.s:1293   .debug_str:000000000000002c .LASF47
     /tmp/ccDEF7bE.s:1325   .debug_str:0000000000000134 .LASF48
     /tmp/ccDEF7bE.s:1299   .debug_str:0000000000000050 .LASF49
     /tmp/ccDEF7bE.s:1307   .debug_str:00000000000000a0 .LASF50
     /tmp/ccDEF7bE.s:1339   .debug_str:00000000000001a3 .LASF51
     /tmp/ccDEF7bE.s:1425   .debug_str:00000000000004c1 .LASF52
     /tmp/ccDEF7bE.s:1419   .debug_str:0000000000000489 .LASF53
     /tmp/ccDEF7bE.s:1397   .debug_str:00000000000003e7 .LASF54
     /tmp/ccDEF7bE.s:1337   .debug_str:0000000000000197 .LASF55
     /tmp/ccDEF7bE.s:1315   .debug_str:00000000000000d4 .LASF56
     /tmp/ccDEF7bE.s:1389   .debug_str:00000000000003a4 .LASF57
     /tmp/ccDEF7bE.s:1417   .debug_str:0000000000000484 .LASF58
     /tmp/ccDEF7bE.s:1301   .debug_str:0000000000000060 .LASF59
     /tmp/ccDEF7bE.s:1361   .debug_str:00000000000002f7 .LASF60
     /tmp/ccDEF7bE.s:57     .text:0000000000000044 .LFB13
     /tmp/ccDEF7bE.s:98     .text:0000000000000080 .LFE13
     /tmp/ccDEF7bE.s:1355   .debug_str:00000000000002c2 .LASF61
     /tmp/ccDEF7bE.s:10     .text:0000000000000000 .LFB12
     /tmp/ccDEF7bE.s:51     .text:0000000000000044 .LFE12
     /tmp/ccDEF7bE.s:119    .debug_info:0000000000000000 .Ldebug_info0

NO UNDEFINED SYMBOLS
