GAS LISTING /tmp/ccikDZkM.s 			page 1


   1              		.file	"Scheduler.cpp"
   2              		.option pic
   3              		.option norelax
   4              		.text
   5              	.Ltext0:
   6              		.align	2
   8              	_Z41__static_initialization_and_destruction_0ii:
   9              	.LFB29:
  10              		.file 1 "src/Scheduler.cpp"
   1:src/Scheduler.cpp **** //
   2:src/Scheduler.cpp **** // Created by os on 5/25/23.
   3:src/Scheduler.cpp **** //
   4:src/Scheduler.cpp **** 
   5:src/Scheduler.cpp **** #include "../h/Scheduler.hpp"
   6:src/Scheduler.cpp **** List<TCB> Scheduler::readyThreads;
   7:src/Scheduler.cpp **** 
   8:src/Scheduler.cpp **** void Scheduler::put(TCB* thread) {
   9:src/Scheduler.cpp **** 	readyThreads.addLast(thread);
  10:src/Scheduler.cpp **** }
  11:src/Scheduler.cpp **** 
  12:src/Scheduler.cpp **** TCB* Scheduler::get() {
  13:src/Scheduler.cpp **** 	return readyThreads.removeFirst();
  14:src/Scheduler.cpp **** }
  11              		.loc 1 14 1
  12              		.cfi_startproc
  13              	.LVL0:
  14 0000 130101FF 		addi	sp,sp,-16
  15              		.cfi_def_cfa_offset 16
  16 0004 23348100 		sd	s0,8(sp)
  17              		.cfi_offset 8, -8
  18 0008 13040101 		addi	s0,sp,16
  19              		.cfi_def_cfa 8, 0
  20              		.loc 1 14 1 is_stmt 0
  21 000c 93071000 		li	a5,1
  22 0010 6308F500 		beq	a0,a5,.L4
  23              	.L1:
  24 0014 03348100 		ld	s0,8(sp)
  25              		.cfi_remember_state
  26              		.cfi_restore 8
  27              		.cfi_def_cfa 2, 16
  28 0018 13010101 		addi	sp,sp,16
  29              		.cfi_def_cfa_offset 0
  30 001c 67800000 		jr	ra
  31              	.L4:
  32              		.cfi_restore_state
  33              		.loc 1 14 1 discriminator 1
  34 0020 B7070100 		li	a5,65536
  35 0024 9387F7FF 		addi	a5,a5,-1
  36 0028 E396F5FE 		bne	a1,a5,.L1
  37              	.LVL1:
  38              	.LBB8:
  39              	.LBB9:
  40              	.LBB10:
  41              		.file 2 "src/../h/../h/List.hpp"
   1:src/../h/../h/List.hpp **** #ifndef LIST_HPP
   2:src/../h/../h/List.hpp **** #define LIST_HPP
   3:src/../h/../h/List.hpp **** 
GAS LISTING /tmp/ccikDZkM.s 			page 2


   4:src/../h/../h/List.hpp **** #include "../h/MemoryAllocator.hpp"
   5:src/../h/../h/List.hpp **** #include "../lib/hw.h"
   6:src/../h/../h/List.hpp **** 
   7:src/../h/../h/List.hpp **** template<typename T>
   8:src/../h/../h/List.hpp **** class List {
   9:src/../h/../h/List.hpp **** private:
  10:src/../h/../h/List.hpp **** 	struct Elem {
  11:src/../h/../h/List.hpp **** 		T* data;
  12:src/../h/../h/List.hpp **** 		Elem* next;
  13:src/../h/../h/List.hpp **** 
  14:src/../h/../h/List.hpp **** 		Elem(T* data, Elem* next) : data(data), next(next) {}
  15:src/../h/../h/List.hpp **** 	};
  16:src/../h/../h/List.hpp **** 
  17:src/../h/../h/List.hpp **** 	Elem* head, * tail;
  18:src/../h/../h/List.hpp **** 	uint64 numOfElements;
  19:src/../h/../h/List.hpp **** public:
  20:src/../h/../h/List.hpp **** 	List() : head(nullptr), tail(nullptr), numOfElements(0) {}
  42              		.loc 2 20 56
  43 002c 97070000 		lla	a5,.LANCHOR0
  43      93870700 
  44 0034 23B00700 		sd	zero,0(a5)
  45 0038 23B40700 		sd	zero,8(a5)
  46 003c 23B80700 		sd	zero,16(a5)
  47              	.LVL2:
  48              	.LBE10:
  49              	.LBE9:
  50              	.LBE8:
  51              		.loc 1 14 1
  52 0040 6FF05FFD 		j	.L1
  53              		.cfi_endproc
  54              	.LFE29:
  56              		.align	2
  57              		.globl	_ZN9Scheduler3putEP3TCB
  59              	_ZN9Scheduler3putEP3TCB:
  60              	.LFB19:
   8:src/Scheduler.cpp **** 	readyThreads.addLast(thread);
  61              		.loc 1 8 34 is_stmt 1
  62              		.cfi_startproc
  63              	.LVL3:
  64 0044 130101FE 		addi	sp,sp,-32
  65              		.cfi_def_cfa_offset 32
  66 0048 233C1100 		sd	ra,24(sp)
  67 004c 23388100 		sd	s0,16(sp)
  68 0050 23349100 		sd	s1,8(sp)
  69              		.cfi_offset 1, -8
  70              		.cfi_offset 8, -16
  71              		.cfi_offset 9, -24
  72 0054 13040102 		addi	s0,sp,32
  73              		.cfi_def_cfa 8, 0
  74 0058 93040500 		mv	s1,a0
   9:src/Scheduler.cpp **** }
  75              		.loc 1 9 2
  76              	.LVL4:
  77              	.LBB16:
  78              	.LBB17:
  21:src/../h/../h/List.hpp **** 
  22:src/../h/../h/List.hpp **** 	List(const List<T>&) = delete;
GAS LISTING /tmp/ccikDZkM.s 			page 3


  23:src/../h/../h/List.hpp **** 
  24:src/../h/../h/List.hpp **** 	List<T>& operator=(const List<T>&) = delete;
  25:src/../h/../h/List.hpp **** 
  26:src/../h/../h/List.hpp **** 	uint64 getNumOfElems() { return numOfElements; }
  27:src/../h/../h/List.hpp **** 
  28:src/../h/../h/List.hpp **** 	void addFirst(T* data) {
  29:src/../h/../h/List.hpp **** 		Elem* elem = new Elem(data, head);
  30:src/../h/../h/List.hpp **** 		head = elem;
  31:src/../h/../h/List.hpp **** 		if (!tail) { tail = head; }
  32:src/../h/../h/List.hpp **** 		numOfElements++;
  33:src/../h/../h/List.hpp **** 	}
  34:src/../h/../h/List.hpp **** 
  35:src/../h/../h/List.hpp **** 	void addLast(T* data) {
  36:src/../h/../h/List.hpp **** 		Elem* elem = new Elem(data, nullptr);
  79              		.loc 2 36 16 is_stmt 0
  80 005c 13050001 		li	a0,16
  81              	.LVL5:
  82 0060 97000000 		call	_Znwm@plt
  82      E7800000 
  83              	.LVL6:
  84              	.LBB18:
  85              	.LBB19:
  14:src/../h/../h/List.hpp **** 	};
  86              		.loc 2 14 52
  87 0068 23309500 		sd	s1,0(a0)
  88 006c 23340500 		sd	zero,8(a0)
  89              	.LVL7:
  90              	.LBE19:
  91              	.LBE18:
  37:src/../h/../h/List.hpp **** 		if (tail) {
  92              		.loc 2 37 7
  93 0070 97070000 		ld	a5,.LANCHOR0+8
  93      83B70700 
  94              		.loc 2 37 3
  95 0078 638C0702 		beqz	a5,.L6
  38:src/../h/../h/List.hpp **** 			tail->next = elem;
  96              		.loc 2 38 4
  97 007c 23B4A700 		sd	a0,8(a5)
  39:src/../h/../h/List.hpp **** 			tail = elem;
  98              		.loc 2 39 4
  99 0080 97070000 		sd	a0,.LANCHOR0+8,a5
  99      23B0A700 
 100              	.L7:
  40:src/../h/../h/List.hpp **** 		} else {
  41:src/../h/../h/List.hpp **** 			head = tail = elem;
  42:src/../h/../h/List.hpp **** 		}
  43:src/../h/../h/List.hpp **** 		numOfElements++;
 101              		.loc 2 43 3
 102 0088 17070000 		lla	a4,.LANCHOR0
 102      13070700 
 103 0090 83370701 		ld	a5,16(a4)
 104 0094 93871700 		addi	a5,a5,1
 105 0098 2338F700 		sd	a5,16(a4)
 106              	.LVL8:
 107              	.LBE17:
 108              	.LBE16:
  10:src/Scheduler.cpp **** 
GAS LISTING /tmp/ccikDZkM.s 			page 4


 109              		.loc 1 10 1
 110 009c 83308101 		ld	ra,24(sp)
 111              		.cfi_remember_state
 112              		.cfi_restore 1
 113 00a0 03340101 		ld	s0,16(sp)
 114              		.cfi_restore 8
 115              		.cfi_def_cfa 2, 32
 116 00a4 83348100 		ld	s1,8(sp)
 117              		.cfi_restore 9
 118              	.LVL9:
 119 00a8 13010102 		addi	sp,sp,32
 120              		.cfi_def_cfa_offset 0
 121 00ac 67800000 		jr	ra
 122              	.LVL10:
 123              	.L6:
 124              		.cfi_restore_state
 125              	.LBB21:
 126              	.LBB20:
  41:src/../h/../h/List.hpp **** 		}
 127              		.loc 2 41 4
 128 00b0 97070000 		lla	a5,.LANCHOR0
 128      93870700 
 129 00b8 23B4A700 		sd	a0,8(a5)
 130 00bc 23B0A700 		sd	a0,0(a5)
 131 00c0 6FF09FFC 		j	.L7
 132              	.LBE20:
 133              	.LBE21:
 134              		.cfi_endproc
 135              	.LFE19:
 137              		.align	2
 138              		.globl	_ZN9Scheduler3getEv
 140              	_ZN9Scheduler3getEv:
 141              	.LFB20:
  12:src/Scheduler.cpp **** 	return readyThreads.removeFirst();
 142              		.loc 1 12 23 is_stmt 1
 143              		.cfi_startproc
 144 00c4 130101FE 		addi	sp,sp,-32
 145              		.cfi_def_cfa_offset 32
 146 00c8 233C1100 		sd	ra,24(sp)
 147 00cc 23388100 		sd	s0,16(sp)
 148 00d0 23349100 		sd	s1,8(sp)
 149              		.cfi_offset 1, -8
 150              		.cfi_offset 8, -16
 151              		.cfi_offset 9, -24
 152 00d4 13040102 		addi	s0,sp,32
 153              		.cfi_def_cfa 8, 0
  13:src/Scheduler.cpp **** }
 154              		.loc 1 13 2
 155              	.LVL11:
 156              	.LBB24:
 157              	.LBB25:
  44:src/../h/../h/List.hpp **** 	}
  45:src/../h/../h/List.hpp **** 
  46:src/../h/../h/List.hpp **** 	T* removeFirst() {
  47:src/../h/../h/List.hpp **** 		if (!head) { return nullptr; }
 158              		.loc 2 47 8 is_stmt 0
 159 00d8 17050000 		ld	a0,.LANCHOR0
GAS LISTING /tmp/ccikDZkM.s 			page 5


 159      03350500 
 160              		.loc 2 47 3
 161 00e0 630C0504 		beqz	a0,.L12
 162              	.LVL12:
  48:src/../h/../h/List.hpp **** 
  49:src/../h/../h/List.hpp **** 		Elem* elem = head;
  50:src/../h/../h/List.hpp **** 		head = head->next;
 163              		.loc 2 50 16
 164 00e4 83378500 		ld	a5,8(a0)
 165              		.loc 2 50 3
 166 00e8 17070000 		sd	a5,.LANCHOR0,a4
 166      2330F700 
  51:src/../h/../h/List.hpp **** 		if (!head) { tail = nullptr; }
 167              		.loc 2 51 3
 168 00f0 638E0702 		beqz	a5,.L14
 169              	.L11:
  52:src/../h/../h/List.hpp **** 
  53:src/../h/../h/List.hpp **** 		T* ret = elem->data;
 170              		.loc 2 53 6
 171 00f4 83340500 		ld	s1,0(a0)
 172              	.LVL13:
  54:src/../h/../h/List.hpp **** 		delete elem;
 173              		.loc 2 54 3
 174 00f8 97000000 		call	_ZdlPv@plt
 174      E7800000 
 175              	.LVL14:
  55:src/../h/../h/List.hpp **** 		numOfElements--;
 176              		.loc 2 55 3
 177 0100 17070000 		lla	a4,.LANCHOR0
 177      13070700 
 178 0108 83370701 		ld	a5,16(a4)
 179 010c 9387F7FF 		addi	a5,a5,-1
 180 0110 2338F700 		sd	a5,16(a4)
 181              	.LVL15:
 182              	.L9:
 183              	.LBE25:
 184              	.LBE24:
 185              		.loc 1 14 1
 186 0114 13850400 		mv	a0,s1
 187 0118 83308101 		ld	ra,24(sp)
 188              		.cfi_remember_state
 189              		.cfi_restore 1
 190 011c 03340101 		ld	s0,16(sp)
 191              		.cfi_restore 8
 192              		.cfi_def_cfa 2, 32
 193 0120 83348100 		ld	s1,8(sp)
 194              		.cfi_restore 9
 195 0124 13010102 		addi	sp,sp,32
 196              		.cfi_def_cfa_offset 0
 197 0128 67800000 		jr	ra
 198              	.LVL16:
 199              	.L14:
 200              		.cfi_restore_state
 201              	.LBB27:
 202              	.LBB26:
  51:src/../h/../h/List.hpp **** 
 203              		.loc 2 51 16
GAS LISTING /tmp/ccikDZkM.s 			page 6


 204 012c 97070000 		sd	zero,.LANCHOR0+8,a5
 204      23B00700 
 205 0134 6FF01FFC 		j	.L11
 206              	.LVL17:
 207              	.L12:
  47:src/../h/../h/List.hpp **** 
 208              		.loc 2 47 23
 209 0138 93040500 		mv	s1,a0
 210              	.LVL18:
 211              	.LBE26:
 212              	.LBE27:
  13:src/Scheduler.cpp **** }
 213              		.loc 1 13 34
 214 013c 6FF09FFD 		j	.L9
 215              		.cfi_endproc
 216              	.LFE20:
 218              		.align	2
 220              	_GLOBAL__sub_I__ZN9Scheduler12readyThreadsE:
 221              	.LFB30:
 222              		.loc 1 14 1 is_stmt 1
 223              		.cfi_startproc
 224 0140 130101FF 		addi	sp,sp,-16
 225              		.cfi_def_cfa_offset 16
 226 0144 23341100 		sd	ra,8(sp)
 227 0148 23308100 		sd	s0,0(sp)
 228              		.cfi_offset 1, -8
 229              		.cfi_offset 8, -16
 230 014c 13040101 		addi	s0,sp,16
 231              		.cfi_def_cfa 8, 0
 232              		.loc 1 14 1 is_stmt 0
 233 0150 B7050100 		li	a1,65536
 234 0154 9385F5FF 		addi	a1,a1,-1
 235 0158 13051000 		li	a0,1
 236 015c 97000000 		call	_Z41__static_initialization_and_destruction_0ii
 236      E7800000 
 237              	.LVL19:
 238 0164 83308100 		ld	ra,8(sp)
 239              		.cfi_restore 1
 240 0168 03340100 		ld	s0,0(sp)
 241              		.cfi_restore 8
 242              		.cfi_def_cfa 2, 16
 243 016c 13010101 		addi	sp,sp,16
 244              		.cfi_def_cfa_offset 0
 245 0170 67800000 		jr	ra
 246              		.cfi_endproc
 247              	.LFE30:
 249              		.section	.init_array,"aw"
 250              		.align	3
 251 0000 00000000 		.dword	_GLOBAL__sub_I__ZN9Scheduler12readyThreadsE
 251      00000000 
 252              		.globl	_ZN9Scheduler12readyThreadsE
 253              		.bss
 254              		.align	3
 255              		.set	.LANCHOR0,. + 0
 258              	_ZN9Scheduler12readyThreadsE:
 259 0000 00000000 		.zero	24
 259      00000000 
GAS LISTING /tmp/ccikDZkM.s 			page 7


 259      00000000 
 259      00000000 
 259      00000000 
 260              		.text
 261              	.Letext0:
 262              		.file 3 "src/../h/../h/../h/../lib/hw.h"
 263              		.file 4 "src/../h/Scheduler.hpp"
GAS LISTING /tmp/ccikDZkM.s 			page 8


DEFINED SYMBOLS
                            *ABS*:0000000000000000 Scheduler.cpp
     /tmp/ccikDZkM.s:8      .text:0000000000000000 _Z41__static_initialization_and_destruction_0ii
     /tmp/ccikDZkM.s:12     .text:0000000000000000 .L0 
     /tmp/ccikDZkM.s:14     .text:0000000000000000 .L0 
     /tmp/ccikDZkM.s:15     .text:0000000000000004 .L0 
     /tmp/ccikDZkM.s:17     .text:0000000000000008 .L0 
     /tmp/ccikDZkM.s:19     .text:000000000000000c .L0 
     /tmp/ccikDZkM.s:21     .text:000000000000000c .L0 
     /tmp/ccikDZkM.s:25     .text:0000000000000018 .L0 
     /tmp/ccikDZkM.s:26     .text:0000000000000018 .L0 
     /tmp/ccikDZkM.s:27     .text:0000000000000018 .L0 
     /tmp/ccikDZkM.s:29     .text:000000000000001c .L0 
     /tmp/ccikDZkM.s:32     .text:0000000000000020 .L0 
     /tmp/ccikDZkM.s:34     .text:0000000000000020 .L0 
     /tmp/ccikDZkM.s:43     .text:000000000000002c .L0 
     /tmp/ccikDZkM.s:52     .text:0000000000000040 .L0 
     /tmp/ccikDZkM.s:53     .text:0000000000000044 .L0 
     /tmp/ccikDZkM.s:59     .text:0000000000000044 _ZN9Scheduler3putEP3TCB
     /tmp/ccikDZkM.s:62     .text:0000000000000044 .L0 
     /tmp/ccikDZkM.s:64     .text:0000000000000044 .L0 
     /tmp/ccikDZkM.s:65     .text:0000000000000048 .L0 
     /tmp/ccikDZkM.s:69     .text:0000000000000054 .L0 
     /tmp/ccikDZkM.s:70     .text:0000000000000054 .L0 
     /tmp/ccikDZkM.s:71     .text:0000000000000054 .L0 
     /tmp/ccikDZkM.s:73     .text:0000000000000058 .L0 
     /tmp/ccikDZkM.s:79     .text:000000000000005c .L0 
     /tmp/ccikDZkM.s:80     .text:000000000000005c .L0 
     /tmp/ccikDZkM.s:87     .text:0000000000000068 .L0 
     /tmp/ccikDZkM.s:93     .text:0000000000000070 .L0 
     /tmp/ccikDZkM.s:95     .text:0000000000000078 .L0 
     /tmp/ccikDZkM.s:97     .text:000000000000007c .L0 
     /tmp/ccikDZkM.s:99     .text:0000000000000080 .L0 
     /tmp/ccikDZkM.s:102    .text:0000000000000088 .L0 
     /tmp/ccikDZkM.s:110    .text:000000000000009c .L0 
     /tmp/ccikDZkM.s:111    .text:00000000000000a0 .L0 
     /tmp/ccikDZkM.s:112    .text:00000000000000a0 .L0 
     /tmp/ccikDZkM.s:114    .text:00000000000000a4 .L0 
     /tmp/ccikDZkM.s:115    .text:00000000000000a4 .L0 
     /tmp/ccikDZkM.s:117    .text:00000000000000a8 .L0 
     /tmp/ccikDZkM.s:120    .text:00000000000000ac .L0 
     /tmp/ccikDZkM.s:124    .text:00000000000000b0 .L0 
     /tmp/ccikDZkM.s:128    .text:00000000000000b0 .L0 
     /tmp/ccikDZkM.s:134    .text:00000000000000c4 .L0 
     /tmp/ccikDZkM.s:140    .text:00000000000000c4 _ZN9Scheduler3getEv
     /tmp/ccikDZkM.s:143    .text:00000000000000c4 .L0 
     /tmp/ccikDZkM.s:144    .text:00000000000000c4 .L0 
     /tmp/ccikDZkM.s:145    .text:00000000000000c8 .L0 
     /tmp/ccikDZkM.s:149    .text:00000000000000d4 .L0 
     /tmp/ccikDZkM.s:150    .text:00000000000000d4 .L0 
     /tmp/ccikDZkM.s:151    .text:00000000000000d4 .L0 
     /tmp/ccikDZkM.s:153    .text:00000000000000d8 .L0 
     /tmp/ccikDZkM.s:158    .text:00000000000000d8 .L0 
     /tmp/ccikDZkM.s:159    .text:00000000000000d8 .L0 
     /tmp/ccikDZkM.s:161    .text:00000000000000e0 .L0 
     /tmp/ccikDZkM.s:164    .text:00000000000000e4 .L0 
     /tmp/ccikDZkM.s:166    .text:00000000000000e8 .L0 
GAS LISTING /tmp/ccikDZkM.s 			page 9


     /tmp/ccikDZkM.s:168    .text:00000000000000f0 .L0 
     /tmp/ccikDZkM.s:171    .text:00000000000000f4 .L0 
     /tmp/ccikDZkM.s:174    .text:00000000000000f8 .L0 
     /tmp/ccikDZkM.s:177    .text:0000000000000100 .L0 
     /tmp/ccikDZkM.s:186    .text:0000000000000114 .L0 
     /tmp/ccikDZkM.s:188    .text:000000000000011c .L0 
     /tmp/ccikDZkM.s:189    .text:000000000000011c .L0 
     /tmp/ccikDZkM.s:191    .text:0000000000000120 .L0 
     /tmp/ccikDZkM.s:192    .text:0000000000000120 .L0 
     /tmp/ccikDZkM.s:194    .text:0000000000000124 .L0 
     /tmp/ccikDZkM.s:196    .text:0000000000000128 .L0 
     /tmp/ccikDZkM.s:200    .text:000000000000012c .L0 
     /tmp/ccikDZkM.s:204    .text:000000000000012c .L0 
     /tmp/ccikDZkM.s:209    .text:0000000000000138 .L0 
     /tmp/ccikDZkM.s:214    .text:000000000000013c .L0 
     /tmp/ccikDZkM.s:215    .text:0000000000000140 .L0 
     /tmp/ccikDZkM.s:220    .text:0000000000000140 _GLOBAL__sub_I__ZN9Scheduler12readyThreadsE
     /tmp/ccikDZkM.s:223    .text:0000000000000140 .L0 
     /tmp/ccikDZkM.s:224    .text:0000000000000140 .L0 
     /tmp/ccikDZkM.s:225    .text:0000000000000144 .L0 
     /tmp/ccikDZkM.s:228    .text:000000000000014c .L0 
     /tmp/ccikDZkM.s:229    .text:000000000000014c .L0 
     /tmp/ccikDZkM.s:231    .text:0000000000000150 .L0 
     /tmp/ccikDZkM.s:233    .text:0000000000000150 .L0 
     /tmp/ccikDZkM.s:239    .text:0000000000000168 .L0 
     /tmp/ccikDZkM.s:241    .text:000000000000016c .L0 
     /tmp/ccikDZkM.s:242    .text:000000000000016c .L0 
     /tmp/ccikDZkM.s:244    .text:0000000000000170 .L0 
     /tmp/ccikDZkM.s:246    .text:0000000000000174 .L0 
     /tmp/ccikDZkM.s:258    .bss:0000000000000000 _ZN9Scheduler12readyThreadsE
     /tmp/ccikDZkM.s:255    .bss:0000000000000000 .LANCHOR0
     /tmp/ccikDZkM.s:264    .text:0000000000000174 .L0 
     /tmp/ccikDZkM.s:43     .text:000000000000002c .L0 
     /tmp/ccikDZkM.s:93     .text:0000000000000070 .L0 
     /tmp/ccikDZkM.s:99     .text:0000000000000080 .L0 
     /tmp/ccikDZkM.s:102    .text:0000000000000088 .L0 
     /tmp/ccikDZkM.s:128    .text:00000000000000b0 .L0 
     /tmp/ccikDZkM.s:159    .text:00000000000000d8 .L0 
     /tmp/ccikDZkM.s:166    .text:00000000000000e8 .L0 
     /tmp/ccikDZkM.s:177    .text:0000000000000100 .L0 
     /tmp/ccikDZkM.s:204    .text:000000000000012c .L0 
     /tmp/ccikDZkM.s:31     .text:0000000000000020 .L4
     /tmp/ccikDZkM.s:23     .text:0000000000000014 .L1
     /tmp/ccikDZkM.s:123    .text:00000000000000b0 .L6
     /tmp/ccikDZkM.s:100    .text:0000000000000088 .L7
     /tmp/ccikDZkM.s:207    .text:0000000000000138 .L12
     /tmp/ccikDZkM.s:199    .text:000000000000012c .L14
     /tmp/ccikDZkM.s:169    .text:00000000000000f4 .L11
     /tmp/ccikDZkM.s:182    .text:0000000000000114 .L9
     /tmp/ccikDZkM.s:980    .debug_abbrev:0000000000000000 .Ldebug_abbrev0
     /tmp/ccikDZkM.s:2037   .debug_str:000000000000042d .LASF64
     /tmp/ccikDZkM.s:2047   .debug_str:0000000000000521 .LASF65
     /tmp/ccikDZkM.s:1957   .debug_str:00000000000001b9 .LASF66
     /tmp/ccikDZkM.s:5      .text:0000000000000000 .Ltext0
     /tmp/ccikDZkM.s:261    .text:0000000000000174 .Letext0
     /tmp/ccikDZkM.s:1909   .debug_line:0000000000000000 .Ldebug_line0
     /tmp/ccikDZkM.s:1993   .debug_str:00000000000002d1 .LASF0
GAS LISTING /tmp/ccikDZkM.s 			page 10


     /tmp/ccikDZkM.s:1999   .debug_str:00000000000002f7 .LASF1
     /tmp/ccikDZkM.s:1983   .debug_str:0000000000000282 .LASF2
     /tmp/ccikDZkM.s:1965   .debug_str:0000000000000207 .LASF4
     /tmp/ccikDZkM.s:2025   .debug_str:00000000000003bc .LASF3
     /tmp/ccikDZkM.s:1921   .debug_str:0000000000000066 .LASF5
     /tmp/ccikDZkM.s:2001   .debug_str:000000000000030a .LASF6
     /tmp/ccikDZkM.s:1991   .debug_str:00000000000002be .LASF7
     /tmp/ccikDZkM.s:2045   .debug_str:0000000000000511 .LASF8
     /tmp/ccikDZkM.s:1955   .debug_str:00000000000001ab .LASF9
     /tmp/ccikDZkM.s:2007   .debug_str:000000000000032e .LASF10
     /tmp/ccikDZkM.s:2041   .debug_str:00000000000004fd .LASF11
     /tmp/ccikDZkM.s:1923   .debug_str:000000000000006d .LASF12
     /tmp/ccikDZkM.s:1915   .debug_str:000000000000002b .LASF13
     /tmp/ccikDZkM.s:1933   .debug_str:00000000000000d0 .LASF14
     /tmp/ccikDZkM.s:2019   .debug_str:000000000000039b .LASF15
     /tmp/ccikDZkM.s:1941   .debug_str:000000000000013a .LASF16
     /tmp/ccikDZkM.s:1949   .debug_str:000000000000018e .LASF17
     /tmp/ccikDZkM.s:2005   .debug_str:0000000000000324 .LASF18
     /tmp/ccikDZkM.s:1931   .debug_str:00000000000000b8 .LASF67
     /tmp/ccikDZkM.s:1961   .debug_str:00000000000001ee .LASF68
     /tmp/ccikDZkM.s:1911   .debug_str:0000000000000000 .LASF69
     /tmp/ccikDZkM.s:1979   .debug_str:0000000000000269 .LASF23
     /tmp/ccikDZkM.s:1977   .debug_str:000000000000025f .LASF19
     /tmp/ccikDZkM.s:2043   .debug_str:000000000000050c .LASF22
     /tmp/ccikDZkM.s:2015   .debug_str:000000000000037f .LASF20
     /tmp/ccikDZkM.s:2053   .debug_str:000000000000055a .LASF21
     /tmp/ccikDZkM.s:1987   .debug_str:0000000000000295 .LASF24
     /tmp/ccikDZkM.s:1943   .debug_str:0000000000000150 .LASF25
     /tmp/ccikDZkM.s:1985   .debug_str:0000000000000290 .LASF26
     /tmp/ccikDZkM.s:1995   .debug_str:00000000000002de .LASF27
     /tmp/ccikDZkM.s:1963   .debug_str:0000000000000202 .LASF28
     /tmp/ccikDZkM.s:2033   .debug_str:0000000000000411 .LASF33
     /tmp/ccikDZkM.s:2017   .debug_str:0000000000000384 .LASF30
     /tmp/ccikDZkM.s:1989   .debug_str:00000000000002b4 .LASF70
     /tmp/ccikDZkM.s:1959   .debug_str:00000000000001d7 .LASF71
     /tmp/ccikDZkM.s:1919   .debug_str:0000000000000058 .LASF29
     /tmp/ccikDZkM.s:2031   .debug_str:00000000000003f1 .LASF31
     /tmp/ccikDZkM.s:2035   .debug_str:0000000000000424 .LASF32
     /tmp/ccikDZkM.s:1947   .debug_str:0000000000000171 .LASF34
     /tmp/ccikDZkM.s:1953   .debug_str:00000000000001a3 .LASF35
     /tmp/ccikDZkM.s:1945   .debug_str:0000000000000155 .LASF36
     /tmp/ccikDZkM.s:2039   .debug_str:00000000000004f1 .LASF37
     /tmp/ccikDZkM.s:1913   .debug_str:000000000000000d .LASF38
     /tmp/ccikDZkM.s:1929   .debug_str:00000000000000ae .LASF39
     /tmp/ccikDZkM.s:1971   .debug_str:000000000000022c .LASF40
     /tmp/ccikDZkM.s:1997   .debug_str:00000000000002ec .LASF41
     /tmp/ccikDZkM.s:1917   .debug_str:000000000000003b .LASF42
     /tmp/ccikDZkM.s:1973   .debug_str:0000000000000247 .LASF43
     /tmp/ccikDZkM.s:2051   .debug_str:0000000000000540 .LASF44
     /tmp/ccikDZkM.s:2049   .debug_str:0000000000000533 .LASF45
     /tmp/ccikDZkM.s:2027   .debug_str:00000000000003ce .LASF46
     /tmp/ccikDZkM.s:1951   .debug_str:0000000000000193 .LASF47
     /tmp/ccikDZkM.s:2013   .debug_str:000000000000036c .LASF48
     /tmp/ccikDZkM.s:2029   .debug_str:00000000000003e1 .LASF49
     /tmp/ccikDZkM.s:1925   .debug_str:000000000000007d .LASF51
     /tmp/ccikDZkM.s:1967   .debug_str:000000000000020e .LASF50
     /tmp/ccikDZkM.s:2055   .debug_str:000000000000055f .LASF52
GAS LISTING /tmp/ccikDZkM.s 			page 11


     /tmp/ccikDZkM.s:1927   .debug_str:0000000000000091 .LASF72
     /tmp/ccikDZkM.s:1939   .debug_str:000000000000010e .LASF53
     /tmp/ccikDZkM.s:221    .text:0000000000000140 .LFB30
     /tmp/ccikDZkM.s:247    .text:0000000000000174 .LFE30
     /tmp/ccikDZkM.s:237    .text:0000000000000164 .LVL19
     /tmp/ccikDZkM.s:2009   .debug_str:000000000000033d .LASF54
     /tmp/ccikDZkM.s:9      .text:0000000000000000 .LFB29
     /tmp/ccikDZkM.s:54     .text:0000000000000044 .LFE29
     /tmp/ccikDZkM.s:1975   .debug_str:0000000000000250 .LASF55
     /tmp/ccikDZkM.s:1969   .debug_str:0000000000000221 .LASF56
     /tmp/ccikDZkM.s:38     .text:000000000000002c .LBB8
     /tmp/ccikDZkM.s:50     .text:0000000000000040 .LBE8
     /tmp/ccikDZkM.s:1766   .debug_loc:0000000000000000 .LLST0
     /tmp/ccikDZkM.s:2011   .debug_str:0000000000000367 .LASF57
     /tmp/ccikDZkM.s:1937   .debug_str:00000000000000ef .LASF59
     /tmp/ccikDZkM.s:2021   .debug_str:00000000000003b1 .LASF58
     /tmp/ccikDZkM.s:1935   .debug_str:00000000000000dc .LASF60
     /tmp/ccikDZkM.s:141    .text:00000000000000c4 .LFB20
     /tmp/ccikDZkM.s:216    .text:0000000000000140 .LFE20
     /tmp/ccikDZkM.s:156    .text:00000000000000d8 .LBB24
     /tmp/ccikDZkM.s:1895   .debug_ranges:0000000000000000 .Ldebug_ranges0
     /tmp/ccikDZkM.s:1775   .debug_loc:000000000000002c .LLST7
     /tmp/ccikDZkM.s:1790   .debug_loc:0000000000000074 .LLST8
     /tmp/ccikDZkM.s:1801   .debug_loc:00000000000000aa .LLST9
     /tmp/ccikDZkM.s:175    .text:0000000000000100 .LVL14
     /tmp/ccikDZkM.s:60     .text:0000000000000044 .LFB19
     /tmp/ccikDZkM.s:135    .text:00000000000000c4 .LFE19
     /tmp/ccikDZkM.s:2003   .debug_str:000000000000031d .LASF61
     /tmp/ccikDZkM.s:1808   .debug_loc:00000000000000cd .LLST1
     /tmp/ccikDZkM.s:77     .text:000000000000005c .LBB16
     /tmp/ccikDZkM.s:1830   .debug_loc:000000000000012c .LLST2
     /tmp/ccikDZkM.s:1845   .debug_loc:0000000000000175 .LLST3
     /tmp/ccikDZkM.s:84     .text:0000000000000068 .LBB18
     /tmp/ccikDZkM.s:91     .text:0000000000000070 .LBE18
     /tmp/ccikDZkM.s:1860   .debug_loc:00000000000001bd .LLST4
     /tmp/ccikDZkM.s:1868   .debug_loc:00000000000001e1 .LLST5
     /tmp/ccikDZkM.s:1875   .debug_loc:0000000000000204 .LLST6
     /tmp/ccikDZkM.s:83     .text:0000000000000068 .LVL6
     /tmp/ccikDZkM.s:1981   .debug_str:000000000000027b .LASF62
     /tmp/ccikDZkM.s:2023   .debug_str:00000000000003b6 .LASF63
     /tmp/ccikDZkM.s:37     .text:000000000000002c .LVL1
     /tmp/ccikDZkM.s:47     .text:0000000000000040 .LVL2
     /tmp/ccikDZkM.s:155    .text:00000000000000d8 .LVL11
     /tmp/ccikDZkM.s:181    .text:0000000000000114 .LVL15
     /tmp/ccikDZkM.s:198    .text:000000000000012c .LVL16
     /tmp/ccikDZkM.s:210    .text:000000000000013c .LVL18
     /tmp/ccikDZkM.s:162    .text:00000000000000e4 .LVL12
     /tmp/ccikDZkM.s:206    .text:0000000000000138 .LVL17
     /tmp/ccikDZkM.s:172    .text:00000000000000f8 .LVL13
     /tmp/ccikDZkM.s:63     .text:0000000000000044 .LVL3
     /tmp/ccikDZkM.s:81     .text:0000000000000060 .LVL5
     /tmp/ccikDZkM.s:118    .text:00000000000000a8 .LVL9
     /tmp/ccikDZkM.s:122    .text:00000000000000b0 .LVL10
     /tmp/ccikDZkM.s:76     .text:000000000000005c .LVL4
     /tmp/ccikDZkM.s:106    .text:000000000000009c .LVL8
     /tmp/ccikDZkM.s:89     .text:0000000000000070 .LVL7
     /tmp/ccikDZkM.s:265    .debug_info:0000000000000000 .Ldebug_info0
GAS LISTING /tmp/ccikDZkM.s 			page 12


     /tmp/ccikDZkM.s:108    .text:000000000000009c .LBE16
     /tmp/ccikDZkM.s:125    .text:00000000000000b0 .LBB21
     /tmp/ccikDZkM.s:133    .text:00000000000000c4 .LBE21
     /tmp/ccikDZkM.s:184    .text:0000000000000114 .LBE24
     /tmp/ccikDZkM.s:201    .text:000000000000012c .LBB27
     /tmp/ccikDZkM.s:212    .text:000000000000013c .LBE27

UNDEFINED SYMBOLS
_Znwm
_ZdlPv
