GAS LISTING /tmp/ccguRtlB.s 			page 1


   1              		.file	"Scheduler.cpp"
   2              		.option pic
   3              		.option norelax
   4              		.text
   5              	.Ltext0:
   6              		.align	2
   7              		.globl	_ZN9Scheduler3putEP3TCB
   9              	_ZN9Scheduler3putEP3TCB:
  10              	.LFB13:
  11              		.file 1 "src/Scheduler.cpp"
   1:src/Scheduler.cpp **** //
   2:src/Scheduler.cpp **** // Created by os on 5/25/23.
   3:src/Scheduler.cpp **** //
   4:src/Scheduler.cpp **** 
   5:src/Scheduler.cpp **** #include "../h/Scheduler.hpp"
   6:src/Scheduler.cpp **** #include "../h/TCB.hpp"
   7:src/Scheduler.cpp **** 
   8:src/Scheduler.cpp **** //Scheduler* Scheduler::singleton = nullptr;
   9:src/Scheduler.cpp **** TCB* Scheduler::head = nullptr;
  10:src/Scheduler.cpp **** TCB* Scheduler::tail = nullptr;
  11:src/Scheduler.cpp **** TCB* Scheduler::sleepingHead = nullptr;
  12:src/Scheduler.cpp **** 
  13:src/Scheduler.cpp **** void Scheduler::put(TCB* tcb) {
  12              		.loc 1 13 31
  13              		.cfi_startproc
  14              	.LVL0:
  15 0000 130101FF 		addi	sp,sp,-16
  16              		.cfi_def_cfa_offset 16
  17 0004 23348100 		sd	s0,8(sp)
  18              		.cfi_offset 8, -8
  19 0008 13040101 		addi	s0,sp,16
  20              		.cfi_def_cfa 8, 0
  14:src/Scheduler.cpp **** 	if (tail == nullptr) {
  21              		.loc 1 14 2
  22              		.loc 1 14 11 is_stmt 0
  23 000c 97070000 		ld	a5,.LANCHOR0
  23      83B70700 
  24              		.loc 1 14 2
  25 0014 638E0700 		beqz	a5,.L5
  15:src/Scheduler.cpp **** 		head = tail = tcb;
  16:src/Scheduler.cpp **** 	} else {
  17:src/Scheduler.cpp **** 		tail->nextInScheduler = tcb;
  26              		.loc 1 17 3 is_stmt 1
  27              		.loc 1 17 25 is_stmt 0
  28 0018 23BCA702 		sd	a0,56(a5)
  18:src/Scheduler.cpp **** 		tail = tcb;
  29              		.loc 1 18 3 is_stmt 1
  30              		.loc 1 18 8 is_stmt 0
  31 001c 97070000 		sd	a0,.LANCHOR0,a5
  31      23B0A700 
  32              	.L1:
  19:src/Scheduler.cpp **** 	}
  20:src/Scheduler.cpp **** }
  33              		.loc 1 20 1
  34 0024 03348100 		ld	s0,8(sp)
  35              		.cfi_remember_state
  36              		.cfi_restore 8
GAS LISTING /tmp/ccguRtlB.s 			page 2


  37              		.cfi_def_cfa 2, 16
  38 0028 13010101 		addi	sp,sp,16
  39              		.cfi_def_cfa_offset 0
  40 002c 67800000 		jr	ra
  41              	.L5:
  42              		.cfi_restore_state
  15:src/Scheduler.cpp **** 	} else {
  43              		.loc 1 15 3 is_stmt 1
  15:src/Scheduler.cpp **** 	} else {
  44              		.loc 1 15 15 is_stmt 0
  45 0030 97070000 		lla	a5,.LANCHOR0
  45      93870700 
  46 0038 23B0A700 		sd	a0,0(a5)
  15:src/Scheduler.cpp **** 	} else {
  47              		.loc 1 15 8
  48 003c 23B4A700 		sd	a0,8(a5)
  49 0040 6FF05FFE 		j	.L1
  50              		.cfi_endproc
  51              	.LFE13:
  53              		.align	2
  54              		.globl	_ZN9Scheduler3getEv
  56              	_ZN9Scheduler3getEv:
  57              	.LFB14:
  21:src/Scheduler.cpp **** 
  22:src/Scheduler.cpp **** TCB* Scheduler::get() {
  58              		.loc 1 22 23 is_stmt 1
  59              		.cfi_startproc
  60 0044 130101FF 		addi	sp,sp,-16
  61              		.cfi_def_cfa_offset 16
  62 0048 23348100 		sd	s0,8(sp)
  63              		.cfi_offset 8, -8
  64 004c 13040101 		addi	s0,sp,16
  65              		.cfi_def_cfa 8, 0
  23:src/Scheduler.cpp **** 	TCB* firstThread = head;
  66              		.loc 1 23 2
  67              		.loc 1 23 7 is_stmt 0
  68 0050 17070000 		lla	a4,.LANCHOR0
  68      13070700 
  69 0058 03358700 		ld	a0,8(a4)
  70              	.LVL1:
  24:src/Scheduler.cpp **** 	head = head->nextInScheduler;
  71              		.loc 1 24 2 is_stmt 1
  72              		.loc 1 24 15 is_stmt 0
  73 005c 83378503 		ld	a5,56(a0)
  74              		.loc 1 24 7
  75 0060 2334F700 		sd	a5,8(a4)
  25:src/Scheduler.cpp **** 	if (head == nullptr) {
  76              		.loc 1 25 2 is_stmt 1
  77 0064 638A0700 		beqz	a5,.L9
  78              	.L7:
  26:src/Scheduler.cpp **** 		tail = head = nullptr;
  27:src/Scheduler.cpp **** 	}
  28:src/Scheduler.cpp **** 	firstThread->nextInScheduler = nullptr;
  79              		.loc 1 28 2
  80              		.loc 1 28 31 is_stmt 0
  81 0068 233C0502 		sd	zero,56(a0)
  29:src/Scheduler.cpp **** 	return firstThread;
GAS LISTING /tmp/ccguRtlB.s 			page 3


  82              		.loc 1 29 2 is_stmt 1
  30:src/Scheduler.cpp **** }
  83              		.loc 1 30 1 is_stmt 0
  84 006c 03348100 		ld	s0,8(sp)
  85              		.cfi_remember_state
  86              		.cfi_restore 8
  87              		.cfi_def_cfa 2, 16
  88 0070 13010101 		addi	sp,sp,16
  89              		.cfi_def_cfa_offset 0
  90 0074 67800000 		jr	ra
  91              	.L9:
  92              		.cfi_restore_state
  26:src/Scheduler.cpp **** 		tail = head = nullptr;
  93              		.loc 1 26 3 is_stmt 1
  26:src/Scheduler.cpp **** 		tail = head = nullptr;
  94              		.loc 1 26 15 is_stmt 0
  95 0078 23340700 		sd	zero,8(a4)
  26:src/Scheduler.cpp **** 		tail = head = nullptr;
  96              		.loc 1 26 8
  97 007c 23300700 		sd	zero,0(a4)
  98 0080 6FF09FFE 		j	.L7
  99              		.cfi_endproc
 100              	.LFE14:
 102              		.align	2
 103              		.globl	_ZN9Scheduler10putToSleepEP3TCBm
 105              	_ZN9Scheduler10putToSleepEP3TCBm:
 106              	.LFB15:
  31:src/Scheduler.cpp **** 
  32:src/Scheduler.cpp **** void Scheduler::putToSleep(TCB* tcb, time_t sleepTime) {
 107              		.loc 1 32 56 is_stmt 1
 108              		.cfi_startproc
 109              	.LVL2:
 110 0084 130101FF 		addi	sp,sp,-16
 111              		.cfi_def_cfa_offset 16
 112 0088 23348100 		sd	s0,8(sp)
 113              		.cfi_offset 8, -8
 114 008c 13040101 		addi	s0,sp,16
 115              		.cfi_def_cfa 8, 0
  33:src/Scheduler.cpp **** 	if (sleepingHead == nullptr) {
 116              		.loc 1 33 2
 117              		.loc 1 33 19 is_stmt 0
 118 0090 17080000 		ld	a6,.LANCHOR0+16
 118      03380800 
 119              		.loc 1 33 2
 120 0098 63080802 		beqz	a6,.L17
  34:src/Scheduler.cpp **** 		sleepingHead = tcb;
  35:src/Scheduler.cpp **** 		tcb->timeToSleep = sleepTime;
  36:src/Scheduler.cpp **** 		return;
  37:src/Scheduler.cpp **** 	}
  38:src/Scheduler.cpp **** 	TCB* prevSleeping = nullptr;
  39:src/Scheduler.cpp **** 	time_t accumulated = 0;
  40:src/Scheduler.cpp **** 	TCB* current = sleepingHead;
 121              		.loc 1 40 7
 122 009c 93070800 		mv	a5,a6
  39:src/Scheduler.cpp **** 	TCB* current = sleepingHead;
 123              		.loc 1 39 9
 124 00a0 93060000 		li	a3,0
GAS LISTING /tmp/ccguRtlB.s 			page 4


  38:src/Scheduler.cpp **** 	time_t accumulated = 0;
 125              		.loc 1 38 7
 126 00a4 13060000 		li	a2,0
 127              	.L11:
 128              	.LVL3:
  41:src/Scheduler.cpp **** 	for (; current && accumulated + current->timeToSleep < sleepTime; current = current->nextSleeping)
 129              		.loc 1 41 2 is_stmt 1 discriminator 3
 130              		.loc 1 41 17 discriminator 3
 131 00a8 63880702 		beqz	a5,.L13
 132              		.loc 1 41 43 is_stmt 0 discriminator 1
 133 00ac 03B70704 		ld	a4,64(a5)
 134              		.loc 1 41 32 discriminator 1
 135 00b0 3307D700 		add	a4,a4,a3
 136              		.loc 1 41 17 discriminator 1
 137 00b4 6372B702 		bgeu	a4,a1,.L13
  42:src/Scheduler.cpp **** 		accumulated += current->timeToSleep;
 138              		.loc 1 42 3 is_stmt 1 discriminator 2
 139              	.LVL4:
  43:src/Scheduler.cpp **** 		prevSleeping = current;
 140              		.loc 1 43 3 discriminator 2
  41:src/Scheduler.cpp **** 	for (; current && accumulated + current->timeToSleep < sleepTime; current = current->nextSleeping)
 141              		.loc 1 41 2 discriminator 2
  42:src/Scheduler.cpp **** 		accumulated += current->timeToSleep;
 142              		.loc 1 42 15 is_stmt 0 discriminator 2
 143 00b8 93060700 		mv	a3,a4
 144              		.loc 1 43 16 discriminator 2
 145 00bc 13860700 		mv	a2,a5
  41:src/Scheduler.cpp **** 	for (; current && accumulated + current->timeToSleep < sleepTime; current = current->nextSleeping)
 146              		.loc 1 41 76 discriminator 2
 147 00c0 83B78704 		ld	a5,72(a5)
 148              	.LVL5:
  41:src/Scheduler.cpp **** 	for (; current && accumulated + current->timeToSleep < sleepTime; current = current->nextSleeping)
 149              		.loc 1 41 2 discriminator 2
 150 00c4 6FF05FFE 		j	.L11
 151              	.LVL6:
 152              	.L17:
  34:src/Scheduler.cpp **** 		tcb->timeToSleep = sleepTime;
 153              		.loc 1 34 3 is_stmt 1
  34:src/Scheduler.cpp **** 		tcb->timeToSleep = sleepTime;
 154              		.loc 1 34 16 is_stmt 0
 155 00c8 97070000 		sd	a0,.LANCHOR0+16,a5
 155      23B0A700 
  35:src/Scheduler.cpp **** 		return;
 156              		.loc 1 35 3 is_stmt 1
  35:src/Scheduler.cpp **** 		return;
 157              		.loc 1 35 20 is_stmt 0
 158 00d0 2330B504 		sd	a1,64(a0)
  36:src/Scheduler.cpp **** 	}
 159              		.loc 1 36 3 is_stmt 1
 160 00d4 6F00C002 		j	.L10
 161              	.LVL7:
 162              	.L13:
  44:src/Scheduler.cpp **** 	}
  45:src/Scheduler.cpp **** 	if (!prevSleeping) {
 163              		.loc 1 45 2
 164 00d8 630A0602 		beqz	a2,.L18
  46:src/Scheduler.cpp **** 		tcb->nextSleeping = sleepingHead;
GAS LISTING /tmp/ccguRtlB.s 			page 5


  47:src/Scheduler.cpp **** 		sleepingHead = tcb;
  48:src/Scheduler.cpp **** 		tcb->timeToSleep = sleepTime;
  49:src/Scheduler.cpp **** 		tcb->nextSleeping->timeToSleep -= sleepTime;
  50:src/Scheduler.cpp **** 		return;
  51:src/Scheduler.cpp **** 	}
  52:src/Scheduler.cpp **** 	tcb->nextSleeping = current;
 165              		.loc 1 52 2
 166              		.loc 1 52 20 is_stmt 0
 167 00dc 2334F504 		sd	a5,72(a0)
  53:src/Scheduler.cpp **** 	prevSleeping->nextSleeping = tcb;
 168              		.loc 1 53 2 is_stmt 1
 169              		.loc 1 53 29 is_stmt 0
 170 00e0 2334A604 		sd	a0,72(a2)
  54:src/Scheduler.cpp **** 	tcb->timeToSleep = sleepTime - accumulated;
 171              		.loc 1 54 2 is_stmt 1
 172              		.loc 1 54 31 is_stmt 0
 173 00e4 3387D540 		sub	a4,a1,a3
 174              		.loc 1 54 19
 175 00e8 2330E504 		sd	a4,64(a0)
  55:src/Scheduler.cpp **** 	if (current) current->timeToSleep -= sleepTime - accumulated;
 176              		.loc 1 55 2 is_stmt 1
 177 00ec 638A0700 		beqz	a5,.L10
 178              		.loc 1 55 15 discriminator 1
 179              		.loc 1 55 36 is_stmt 0 discriminator 1
 180 00f0 B386B640 		sub	a3,a3,a1
 181              	.LVL8:
 182 00f4 03B70704 		ld	a4,64(a5)
 183 00f8 B306D700 		add	a3,a4,a3
 184 00fc 23B0D704 		sd	a3,64(a5)
 185              	.LVL9:
 186              	.L10:
  56:src/Scheduler.cpp **** }
 187              		.loc 1 56 1
 188 0100 03348100 		ld	s0,8(sp)
 189              		.cfi_remember_state
 190              		.cfi_restore 8
 191              		.cfi_def_cfa 2, 16
 192 0104 13010101 		addi	sp,sp,16
 193              		.cfi_def_cfa_offset 0
 194 0108 67800000 		jr	ra
 195              	.LVL10:
 196              	.L18:
 197              		.cfi_restore_state
  46:src/Scheduler.cpp **** 		sleepingHead = tcb;
 198              		.loc 1 46 3 is_stmt 1
  46:src/Scheduler.cpp **** 		sleepingHead = tcb;
 199              		.loc 1 46 21 is_stmt 0
 200 010c 23340505 		sd	a6,72(a0)
  47:src/Scheduler.cpp **** 		tcb->timeToSleep = sleepTime;
 201              		.loc 1 47 3 is_stmt 1
  47:src/Scheduler.cpp **** 		tcb->timeToSleep = sleepTime;
 202              		.loc 1 47 16 is_stmt 0
 203 0110 97070000 		sd	a0,.LANCHOR0+16,a5
 203      23B0A700 
 204              	.LVL11:
  48:src/Scheduler.cpp **** 		tcb->nextSleeping->timeToSleep -= sleepTime;
 205              		.loc 1 48 3 is_stmt 1
GAS LISTING /tmp/ccguRtlB.s 			page 6


  48:src/Scheduler.cpp **** 		tcb->nextSleeping->timeToSleep -= sleepTime;
 206              		.loc 1 48 20 is_stmt 0
 207 0118 2330B504 		sd	a1,64(a0)
  49:src/Scheduler.cpp **** 		return;
 208              		.loc 1 49 3 is_stmt 1
  49:src/Scheduler.cpp **** 		return;
 209              		.loc 1 49 34 is_stmt 0
 210 011c 83360804 		ld	a3,64(a6)
 211              	.LVL12:
 212 0120 B386B640 		sub	a3,a3,a1
 213 0124 2330D804 		sd	a3,64(a6)
  50:src/Scheduler.cpp **** 	}
 214              		.loc 1 50 3 is_stmt 1
 215 0128 6FF09FFD 		j	.L10
 216              		.cfi_endproc
 217              	.LFE15:
 219              		.align	2
 220              		.globl	_ZN9Scheduler4wakeEv
 222              	_ZN9Scheduler4wakeEv:
 223              	.LFB16:
  57:src/Scheduler.cpp **** 
  58:src/Scheduler.cpp **** void Scheduler::wake() {
 224              		.loc 1 58 24
 225              		.cfi_startproc
  59:src/Scheduler.cpp **** 	if (!sleepingHead) return;
 226              		.loc 1 59 2
 227              		.loc 1 59 6 is_stmt 0
 228 012c 97070000 		ld	a5,.LANCHOR0+16
 228      83B70700 
 229              		.loc 1 59 2
 230 0134 638A0706 		beqz	a5,.L23
  60:src/Scheduler.cpp **** 	sleepingHead->timeToSleep--;
 231              		.loc 1 60 2 is_stmt 1
 232              		.loc 1 60 16 is_stmt 0
 233 0138 03B70704 		ld	a4,64(a5)
 234              		.loc 1 60 27
 235 013c 1307F7FF 		addi	a4,a4,-1
 236 0140 23B0E704 		sd	a4,64(a5)
  61:src/Scheduler.cpp **** 	while (sleepingHead && sleepingHead->timeToSleep == 0) {
 237              		.loc 1 61 2 is_stmt 1
 238              		.loc 1 61 22
 239              		.loc 1 61 54 is_stmt 0
 240 0144 17050000 		ld	a0,.LANCHOR0+16
 240      03350500 
 241              		.loc 1 61 22
 242 014c 630E0504 		beqz	a0,.L23
 243              		.loc 1 61 39
 244 0150 83370504 		ld	a5,64(a0)
 245              		.loc 1 61 22
 246 0154 639A0704 		bnez	a5,.L23
  58:src/Scheduler.cpp **** 	if (!sleepingHead) return;
 247              		.loc 1 58 24
 248 0158 130101FF 		addi	sp,sp,-16
 249              		.cfi_def_cfa_offset 16
 250 015c 23341100 		sd	ra,8(sp)
 251 0160 23308100 		sd	s0,0(sp)
 252              		.cfi_offset 1, -8
GAS LISTING /tmp/ccguRtlB.s 			page 7


 253              		.cfi_offset 8, -16
 254 0164 13040101 		addi	s0,sp,16
 255              		.cfi_def_cfa 8, 0
 256 0168 6F00C000 		j	.L26
 257              	.LVL13:
 258              	.L29:
 259              		.loc 1 61 39 discriminator 1
 260 016c 83370504 		ld	a5,64(a0)
 261              		.loc 1 61 22 discriminator 1
 262 0170 63940702 		bnez	a5,.L19
 263              	.L26:
 264              	.LBB2:
  62:src/Scheduler.cpp **** 		TCB* thread = sleepingHead;
 265              		.loc 1 62 3 is_stmt 1
 266              	.LVL14:
  63:src/Scheduler.cpp **** 		sleepingHead = sleepingHead->nextSleeping;
 267              		.loc 1 63 3
 268              		.loc 1 63 32 is_stmt 0
 269 0174 83378504 		ld	a5,72(a0)
 270              		.loc 1 63 16
 271 0178 17070000 		sd	a5,.LANCHOR0+16,a4
 271      2330F700 
  64:src/Scheduler.cpp **** 		thread->nextSleeping = nullptr;
 272              		.loc 1 64 3 is_stmt 1
 273              		.loc 1 64 24 is_stmt 0
 274 0180 23340504 		sd	zero,72(a0)
  65:src/Scheduler.cpp **** 		Scheduler::put(thread);
 275              		.loc 1 65 3 is_stmt 1
 276              		.loc 1 65 17 is_stmt 0
 277 0184 97000000 		call	_ZN9Scheduler3putEP3TCB
 277      E7800000 
 278              	.LVL15:
 279              	.LBE2:
  61:src/Scheduler.cpp **** 		TCB* thread = sleepingHead;
 280              		.loc 1 61 2 is_stmt 1
  61:src/Scheduler.cpp **** 		TCB* thread = sleepingHead;
 281              		.loc 1 61 22
  61:src/Scheduler.cpp **** 		TCB* thread = sleepingHead;
 282              		.loc 1 61 54 is_stmt 0
 283 018c 17050000 		ld	a0,.LANCHOR0+16
 283      03350500 
  61:src/Scheduler.cpp **** 		TCB* thread = sleepingHead;
 284              		.loc 1 61 22
 285 0194 E31C05FC 		bnez	a0,.L29
 286              	.L19:
  66:src/Scheduler.cpp **** 	}
  67:src/Scheduler.cpp **** }
 287              		.loc 1 67 1
 288 0198 83308100 		ld	ra,8(sp)
 289              		.cfi_restore 1
 290 019c 03340100 		ld	s0,0(sp)
 291              		.cfi_restore 8
 292              		.cfi_def_cfa 2, 16
 293 01a0 13010101 		addi	sp,sp,16
 294              		.cfi_def_cfa_offset 0
 295 01a4 67800000 		jr	ra
 296              	.L23:
GAS LISTING /tmp/ccguRtlB.s 			page 8


 297 01a8 67800000 		ret
 298              		.cfi_endproc
 299              	.LFE16:
 301              		.globl	_ZN9Scheduler12sleepingHeadE
 302              		.globl	_ZN9Scheduler4tailE
 303              		.globl	_ZN9Scheduler4headE
 304              		.bss
 305              		.align	3
 306              		.set	.LANCHOR0,. + 0
 309              	_ZN9Scheduler4tailE:
 310 0000 00000000 		.zero	8
 310      00000000 
 313              	_ZN9Scheduler4headE:
 314 0008 00000000 		.zero	8
 314      00000000 
 317              	_ZN9Scheduler12sleepingHeadE:
 318 0010 00000000 		.zero	8
 318      00000000 
 319              		.text
 320              	.Letext0:
 321              		.file 2 "src/../h/Scheduler.hpp"
 322              		.file 3 "src/../h/TCB.hpp"
 323              		.file 4 "src/../h/../lib/hw.h"
GAS LISTING /tmp/ccguRtlB.s 			page 9


DEFINED SYMBOLS
                            *ABS*:0000000000000000 Scheduler.cpp
     /tmp/ccguRtlB.s:9      .text:0000000000000000 _ZN9Scheduler3putEP3TCB
     /tmp/ccguRtlB.s:13     .text:0000000000000000 .L0 
     /tmp/ccguRtlB.s:15     .text:0000000000000000 .L0 
     /tmp/ccguRtlB.s:16     .text:0000000000000004 .L0 
     /tmp/ccguRtlB.s:18     .text:0000000000000008 .L0 
     /tmp/ccguRtlB.s:20     .text:000000000000000c .L0 
     /tmp/ccguRtlB.s:22     .text:000000000000000c .L0 
     /tmp/ccguRtlB.s:23     .text:000000000000000c .L0 
     /tmp/ccguRtlB.s:25     .text:0000000000000014 .L0 
     /tmp/ccguRtlB.s:27     .text:0000000000000018 .L0 
     /tmp/ccguRtlB.s:28     .text:0000000000000018 .L0 
     /tmp/ccguRtlB.s:30     .text:000000000000001c .L0 
     /tmp/ccguRtlB.s:31     .text:000000000000001c .L0 
     /tmp/ccguRtlB.s:34     .text:0000000000000024 .L0 
     /tmp/ccguRtlB.s:35     .text:0000000000000028 .L0 
     /tmp/ccguRtlB.s:36     .text:0000000000000028 .L0 
     /tmp/ccguRtlB.s:37     .text:0000000000000028 .L0 
     /tmp/ccguRtlB.s:39     .text:000000000000002c .L0 
     /tmp/ccguRtlB.s:42     .text:0000000000000030 .L0 
     /tmp/ccguRtlB.s:44     .text:0000000000000030 .L0 
     /tmp/ccguRtlB.s:45     .text:0000000000000030 .L0 
     /tmp/ccguRtlB.s:48     .text:000000000000003c .L0 
     /tmp/ccguRtlB.s:50     .text:0000000000000044 .L0 
     /tmp/ccguRtlB.s:56     .text:0000000000000044 _ZN9Scheduler3getEv
     /tmp/ccguRtlB.s:59     .text:0000000000000044 .L0 
     /tmp/ccguRtlB.s:60     .text:0000000000000044 .L0 
     /tmp/ccguRtlB.s:61     .text:0000000000000048 .L0 
     /tmp/ccguRtlB.s:63     .text:000000000000004c .L0 
     /tmp/ccguRtlB.s:65     .text:0000000000000050 .L0 
     /tmp/ccguRtlB.s:67     .text:0000000000000050 .L0 
     /tmp/ccguRtlB.s:68     .text:0000000000000050 .L0 
     /tmp/ccguRtlB.s:72     .text:000000000000005c .L0 
     /tmp/ccguRtlB.s:73     .text:000000000000005c .L0 
     /tmp/ccguRtlB.s:75     .text:0000000000000060 .L0 
     /tmp/ccguRtlB.s:77     .text:0000000000000064 .L0 
     /tmp/ccguRtlB.s:80     .text:0000000000000068 .L0 
     /tmp/ccguRtlB.s:81     .text:0000000000000068 .L0 
     /tmp/ccguRtlB.s:83     .text:000000000000006c .L0 
     /tmp/ccguRtlB.s:84     .text:000000000000006c .L0 
     /tmp/ccguRtlB.s:85     .text:0000000000000070 .L0 
     /tmp/ccguRtlB.s:86     .text:0000000000000070 .L0 
     /tmp/ccguRtlB.s:87     .text:0000000000000070 .L0 
     /tmp/ccguRtlB.s:89     .text:0000000000000074 .L0 
     /tmp/ccguRtlB.s:92     .text:0000000000000078 .L0 
     /tmp/ccguRtlB.s:94     .text:0000000000000078 .L0 
     /tmp/ccguRtlB.s:95     .text:0000000000000078 .L0 
     /tmp/ccguRtlB.s:97     .text:000000000000007c .L0 
     /tmp/ccguRtlB.s:99     .text:0000000000000084 .L0 
     /tmp/ccguRtlB.s:105    .text:0000000000000084 _ZN9Scheduler10putToSleepEP3TCBm
     /tmp/ccguRtlB.s:108    .text:0000000000000084 .L0 
     /tmp/ccguRtlB.s:110    .text:0000000000000084 .L0 
     /tmp/ccguRtlB.s:111    .text:0000000000000088 .L0 
     /tmp/ccguRtlB.s:113    .text:000000000000008c .L0 
     /tmp/ccguRtlB.s:115    .text:0000000000000090 .L0 
     /tmp/ccguRtlB.s:117    .text:0000000000000090 .L0 
GAS LISTING /tmp/ccguRtlB.s 			page 10


     /tmp/ccguRtlB.s:118    .text:0000000000000090 .L0 
     /tmp/ccguRtlB.s:120    .text:0000000000000098 .L0 
     /tmp/ccguRtlB.s:122    .text:000000000000009c .L0 
     /tmp/ccguRtlB.s:124    .text:00000000000000a0 .L0 
     /tmp/ccguRtlB.s:126    .text:00000000000000a4 .L0 
     /tmp/ccguRtlB.s:130    .text:00000000000000a8 .L0 
     /tmp/ccguRtlB.s:131    .text:00000000000000a8 .L0 
     /tmp/ccguRtlB.s:133    .text:00000000000000ac .L0 
     /tmp/ccguRtlB.s:135    .text:00000000000000b0 .L0 
     /tmp/ccguRtlB.s:137    .text:00000000000000b4 .L0 
     /tmp/ccguRtlB.s:140    .text:00000000000000b8 .L0 
     /tmp/ccguRtlB.s:141    .text:00000000000000b8 .L0 
     /tmp/ccguRtlB.s:142    .text:00000000000000b8 .L0 
     /tmp/ccguRtlB.s:143    .text:00000000000000b8 .L0 
     /tmp/ccguRtlB.s:145    .text:00000000000000bc .L0 
     /tmp/ccguRtlB.s:147    .text:00000000000000c0 .L0 
     /tmp/ccguRtlB.s:150    .text:00000000000000c4 .L0 
     /tmp/ccguRtlB.s:154    .text:00000000000000c8 .L0 
     /tmp/ccguRtlB.s:155    .text:00000000000000c8 .L0 
     /tmp/ccguRtlB.s:157    .text:00000000000000d0 .L0 
     /tmp/ccguRtlB.s:158    .text:00000000000000d0 .L0 
     /tmp/ccguRtlB.s:160    .text:00000000000000d4 .L0 
     /tmp/ccguRtlB.s:164    .text:00000000000000d8 .L0 
     /tmp/ccguRtlB.s:166    .text:00000000000000dc .L0 
     /tmp/ccguRtlB.s:167    .text:00000000000000dc .L0 
     /tmp/ccguRtlB.s:169    .text:00000000000000e0 .L0 
     /tmp/ccguRtlB.s:170    .text:00000000000000e0 .L0 
     /tmp/ccguRtlB.s:172    .text:00000000000000e4 .L0 
     /tmp/ccguRtlB.s:173    .text:00000000000000e4 .L0 
     /tmp/ccguRtlB.s:175    .text:00000000000000e8 .L0 
     /tmp/ccguRtlB.s:177    .text:00000000000000ec .L0 
     /tmp/ccguRtlB.s:179    .text:00000000000000f0 .L0 
     /tmp/ccguRtlB.s:180    .text:00000000000000f0 .L0 
     /tmp/ccguRtlB.s:188    .text:0000000000000100 .L0 
     /tmp/ccguRtlB.s:189    .text:0000000000000104 .L0 
     /tmp/ccguRtlB.s:190    .text:0000000000000104 .L0 
     /tmp/ccguRtlB.s:191    .text:0000000000000104 .L0 
     /tmp/ccguRtlB.s:193    .text:0000000000000108 .L0 
     /tmp/ccguRtlB.s:197    .text:000000000000010c .L0 
     /tmp/ccguRtlB.s:199    .text:000000000000010c .L0 
     /tmp/ccguRtlB.s:200    .text:000000000000010c .L0 
     /tmp/ccguRtlB.s:202    .text:0000000000000110 .L0 
     /tmp/ccguRtlB.s:203    .text:0000000000000110 .L0 
     /tmp/ccguRtlB.s:206    .text:0000000000000118 .L0 
     /tmp/ccguRtlB.s:207    .text:0000000000000118 .L0 
     /tmp/ccguRtlB.s:209    .text:000000000000011c .L0 
     /tmp/ccguRtlB.s:210    .text:000000000000011c .L0 
     /tmp/ccguRtlB.s:215    .text:0000000000000128 .L0 
     /tmp/ccguRtlB.s:216    .text:000000000000012c .L0 
     /tmp/ccguRtlB.s:222    .text:000000000000012c _ZN9Scheduler4wakeEv
     /tmp/ccguRtlB.s:225    .text:000000000000012c .L0 
     /tmp/ccguRtlB.s:226    .text:000000000000012c .L0 
     /tmp/ccguRtlB.s:227    .text:000000000000012c .L0 
     /tmp/ccguRtlB.s:228    .text:000000000000012c .L0 
     /tmp/ccguRtlB.s:230    .text:0000000000000134 .L0 
     /tmp/ccguRtlB.s:232    .text:0000000000000138 .L0 
     /tmp/ccguRtlB.s:233    .text:0000000000000138 .L0 
GAS LISTING /tmp/ccguRtlB.s 			page 11


     /tmp/ccguRtlB.s:235    .text:000000000000013c .L0 
     /tmp/ccguRtlB.s:238    .text:0000000000000144 .L0 
     /tmp/ccguRtlB.s:239    .text:0000000000000144 .L0 
     /tmp/ccguRtlB.s:240    .text:0000000000000144 .L0 
     /tmp/ccguRtlB.s:242    .text:000000000000014c .L0 
     /tmp/ccguRtlB.s:244    .text:0000000000000150 .L0 
     /tmp/ccguRtlB.s:246    .text:0000000000000154 .L0 
     /tmp/ccguRtlB.s:248    .text:0000000000000158 .L0 
     /tmp/ccguRtlB.s:249    .text:000000000000015c .L0 
     /tmp/ccguRtlB.s:252    .text:0000000000000164 .L0 
     /tmp/ccguRtlB.s:253    .text:0000000000000164 .L0 
     /tmp/ccguRtlB.s:255    .text:0000000000000168 .L0 
     /tmp/ccguRtlB.s:260    .text:000000000000016c .L0 
     /tmp/ccguRtlB.s:262    .text:0000000000000170 .L0 
     /tmp/ccguRtlB.s:267    .text:0000000000000174 .L0 
     /tmp/ccguRtlB.s:268    .text:0000000000000174 .L0 
     /tmp/ccguRtlB.s:269    .text:0000000000000174 .L0 
     /tmp/ccguRtlB.s:271    .text:0000000000000178 .L0 
     /tmp/ccguRtlB.s:273    .text:0000000000000180 .L0 
     /tmp/ccguRtlB.s:274    .text:0000000000000180 .L0 
     /tmp/ccguRtlB.s:276    .text:0000000000000184 .L0 
     /tmp/ccguRtlB.s:277    .text:0000000000000184 .L0 
     /tmp/ccguRtlB.s:281    .text:000000000000018c .L0 
     /tmp/ccguRtlB.s:282    .text:000000000000018c .L0 
     /tmp/ccguRtlB.s:283    .text:000000000000018c .L0 
     /tmp/ccguRtlB.s:285    .text:0000000000000194 .L0 
     /tmp/ccguRtlB.s:288    .text:0000000000000198 .L0 
     /tmp/ccguRtlB.s:289    .text:000000000000019c .L0 
     /tmp/ccguRtlB.s:291    .text:00000000000001a0 .L0 
     /tmp/ccguRtlB.s:292    .text:00000000000001a0 .L0 
     /tmp/ccguRtlB.s:294    .text:00000000000001a4 .L0 
     /tmp/ccguRtlB.s:298    .text:00000000000001ac .L0 
     /tmp/ccguRtlB.s:317    .bss:0000000000000010 _ZN9Scheduler12sleepingHeadE
     /tmp/ccguRtlB.s:309    .bss:0000000000000000 _ZN9Scheduler4tailE
     /tmp/ccguRtlB.s:313    .bss:0000000000000008 _ZN9Scheduler4headE
     /tmp/ccguRtlB.s:306    .bss:0000000000000000 .LANCHOR0
     /tmp/ccguRtlB.s:324    .text:00000000000001ac .L0 
     /tmp/ccguRtlB.s:23     .text:000000000000000c .L0 
     /tmp/ccguRtlB.s:31     .text:000000000000001c .L0 
     /tmp/ccguRtlB.s:45     .text:0000000000000030 .L0 
     /tmp/ccguRtlB.s:68     .text:0000000000000050 .L0 
     /tmp/ccguRtlB.s:118    .text:0000000000000090 .L0 
     /tmp/ccguRtlB.s:155    .text:00000000000000c8 .L0 
     /tmp/ccguRtlB.s:203    .text:0000000000000110 .L0 
     /tmp/ccguRtlB.s:228    .text:000000000000012c .L0 
     /tmp/ccguRtlB.s:240    .text:0000000000000144 .L0 
     /tmp/ccguRtlB.s:271    .text:0000000000000178 .L0 
     /tmp/ccguRtlB.s:283    .text:000000000000018c .L0 
     /tmp/ccguRtlB.s:41     .text:0000000000000030 .L5
     /tmp/ccguRtlB.s:32     .text:0000000000000024 .L1
     /tmp/ccguRtlB.s:91     .text:0000000000000078 .L9
     /tmp/ccguRtlB.s:78     .text:0000000000000068 .L7
     /tmp/ccguRtlB.s:152    .text:00000000000000c8 .L17
     /tmp/ccguRtlB.s:162    .text:00000000000000d8 .L13
     /tmp/ccguRtlB.s:127    .text:00000000000000a8 .L11
     /tmp/ccguRtlB.s:186    .text:0000000000000100 .L10
     /tmp/ccguRtlB.s:196    .text:000000000000010c .L18
GAS LISTING /tmp/ccguRtlB.s 			page 12


     /tmp/ccguRtlB.s:296    .text:00000000000001a8 .L23
     /tmp/ccguRtlB.s:263    .text:0000000000000174 .L26
     /tmp/ccguRtlB.s:286    .text:0000000000000198 .L19
     /tmp/ccguRtlB.s:258    .text:000000000000016c .L29
     /tmp/ccguRtlB.s:1000   .debug_abbrev:0000000000000000 .Ldebug_abbrev0
     /tmp/ccguRtlB.s:1971   .debug_str:0000000000000419 .LASF76
     /tmp/ccguRtlB.s:1991   .debug_str:000000000000057f .LASF77
     /tmp/ccguRtlB.s:1871   .debug_str:0000000000000115 .LASF78
     /tmp/ccguRtlB.s:5      .text:0000000000000000 .Ltext0
     /tmp/ccguRtlB.s:320    .text:00000000000001ac .Letext0
     /tmp/ccguRtlB.s:1827   .debug_line:0000000000000000 .Ldebug_line0
     /tmp/ccguRtlB.s:1855   .debug_str:00000000000000a7 .LASF52
     /tmp/ccguRtlB.s:1957   .debug_str:00000000000003b2 .LASF48
     /tmp/ccguRtlB.s:1943   .debug_str:0000000000000339 .LASF3
     /tmp/ccguRtlB.s:1853   .debug_str:00000000000000a2 .LASF0
     /tmp/ccguRtlB.s:1899   .debug_str:0000000000000204 .LASF1
     /tmp/ccguRtlB.s:1921   .debug_str:00000000000002a1 .LASF2
     /tmp/ccguRtlB.s:1959   .debug_str:00000000000003c4 .LASF6
     /tmp/ccguRtlB.s:1847   .debug_str:0000000000000073 .LASF44
     /tmp/ccguRtlB.s:1905   .debug_str:0000000000000228 .LASF79
     /tmp/ccguRtlB.s:1901   .debug_str:0000000000000209 .LASF4
     /tmp/ccguRtlB.s:1983   .debug_str:0000000000000529 .LASF80
     /tmp/ccguRtlB.s:1851   .debug_str:0000000000000097 .LASF5
     /tmp/ccguRtlB.s:1837   .debug_str:000000000000002a .LASF7
     /tmp/ccguRtlB.s:1997   .debug_str:00000000000005ab .LASF24
     /tmp/ccguRtlB.s:1881   .debug_str:0000000000000185 .LASF26
     /tmp/ccguRtlB.s:1835   .debug_str:0000000000000022 .LASF81
     /tmp/ccguRtlB.s:1889   .debug_str:00000000000001b6 .LASF8
     /tmp/ccguRtlB.s:1913   .debug_str:000000000000026b .LASF10
     /tmp/ccguRtlB.s:1843   .debug_str:0000000000000062 .LASF82
     /tmp/ccguRtlB.s:1935   .debug_str:0000000000000306 .LASF12
     /tmp/ccguRtlB.s:1893   .debug_str:00000000000001d3 .LASF14
     /tmp/ccguRtlB.s:1907   .debug_str:000000000000023c .LASF9
     /tmp/ccguRtlB.s:1875   .debug_str:000000000000015b .LASF11
     /tmp/ccguRtlB.s:1833   .debug_str:0000000000000018 .LASF13
     /tmp/ccguRtlB.s:1941   .debug_str:0000000000000325 .LASF15
     /tmp/ccguRtlB.s:1883   .debug_str:000000000000019a .LASF16
     /tmp/ccguRtlB.s:1975   .debug_str:00000000000004ec .LASF17
     /tmp/ccguRtlB.s:1895   .debug_str:00000000000001e9 .LASF18
     /tmp/ccguRtlB.s:1945   .debug_str:0000000000000343 .LASF19
     /tmp/ccguRtlB.s:1979   .debug_str:000000000000050c .LASF20
     /tmp/ccguRtlB.s:1985   .debug_str:000000000000054a .LASF21
     /tmp/ccguRtlB.s:1857   .debug_str:00000000000000ae .LASF22
     /tmp/ccguRtlB.s:1865   .debug_str:00000000000000d9 .LASF23
     /tmp/ccguRtlB.s:1955   .debug_str:00000000000003ac .LASF25
     /tmp/ccguRtlB.s:1909   .debug_str:0000000000000248 .LASF27
     /tmp/ccguRtlB.s:1915   .debug_str:000000000000028d .LASF28
     /tmp/ccguRtlB.s:1861   .debug_str:00000000000000c1 .LASF29
     /tmp/ccguRtlB.s:1965   .debug_str:00000000000003f8 .LASF30
     /tmp/ccguRtlB.s:1961   .debug_str:00000000000003d6 .LASF31
     /tmp/ccguRtlB.s:1859   .debug_str:00000000000000b9 .LASF32
     /tmp/ccguRtlB.s:1951   .debug_str:0000000000000385 .LASF33
     /tmp/ccguRtlB.s:1887   .debug_str:00000000000001ae .LASF34
     /tmp/ccguRtlB.s:1903   .debug_str:0000000000000219 .LASF35
     /tmp/ccguRtlB.s:1917   .debug_str:0000000000000296 .LASF36
     /tmp/ccguRtlB.s:1919   .debug_str:000000000000029c .LASF37
     /tmp/ccguRtlB.s:1925   .debug_str:00000000000002b6 .LASF38
GAS LISTING /tmp/ccguRtlB.s 			page 13


     /tmp/ccguRtlB.s:1885   .debug_str:00000000000001a5 .LASF39
     /tmp/ccguRtlB.s:1829   .debug_str:0000000000000000 .LASF40
     /tmp/ccguRtlB.s:1839   .debug_str:000000000000004b .LASF41
     /tmp/ccguRtlB.s:1877   .debug_str:0000000000000172 .LASF42
     /tmp/ccguRtlB.s:1939   .debug_str:0000000000000318 .LASF43
     /tmp/ccguRtlB.s:1999   .debug_str:00000000000005b0 .LASF45
     /tmp/ccguRtlB.s:1989   .debug_str:0000000000000571 .LASF83
     /tmp/ccguRtlB.s:1873   .debug_str:0000000000000133 .LASF84
     /tmp/ccguRtlB.s:1993   .debug_str:0000000000000591 .LASF46
     /tmp/ccguRtlB.s:1967   .debug_str:0000000000000400 .LASF47
     /tmp/ccguRtlB.s:1963   .debug_str:00000000000003e8 .LASF85
     /tmp/ccguRtlB.s:1947   .debug_str:000000000000035b .LASF86
     /tmp/ccguRtlB.s:1995   .debug_str:000000000000059e .LASF49
     /tmp/ccguRtlB.s:1931   .debug_str:00000000000002e0 .LASF50
     /tmp/ccguRtlB.s:1897   .debug_str:00000000000001f6 .LASF51
     /tmp/ccguRtlB.s:1879   .debug_str:000000000000017e .LASF53
     /tmp/ccguRtlB.s:1841   .debug_str:000000000000005b .LASF54
     /tmp/ccguRtlB.s:1933   .debug_str:00000000000002f3 .LASF55
     /tmp/ccguRtlB.s:1911   .debug_str:0000000000000258 .LASF56
     /tmp/ccguRtlB.s:1981   .debug_str:0000000000000519 .LASF57
     /tmp/ccguRtlB.s:1869   .debug_str:0000000000000107 .LASF58
     /tmp/ccguRtlB.s:1987   .debug_str:0000000000000562 .LASF59
     /tmp/ccguRtlB.s:1973   .debug_str:00000000000004dd .LASF60
     /tmp/ccguRtlB.s:1891   .debug_str:00000000000001c3 .LASF61
     /tmp/ccguRtlB.s:1831   .debug_str:0000000000000008 .LASF62
     /tmp/ccguRtlB.s:1849   .debug_str:000000000000008b .LASF63
     /tmp/ccguRtlB.s:1953   .debug_str:0000000000000396 .LASF64
     /tmp/ccguRtlB.s:1867   .debug_str:00000000000000f1 .LASF65
     /tmp/ccguRtlB.s:1863   .debug_str:00000000000000d4 .LASF66
     /tmp/ccguRtlB.s:1929   .debug_str:00000000000002cc .LASF67
     /tmp/ccguRtlB.s:2001   .debug_str:00000000000005c6 .LASF68
     /tmp/ccguRtlB.s:1949   .debug_str:0000000000000368 .LASF69
     /tmp/ccguRtlB.s:223    .text:000000000000012c .LFB16
     /tmp/ccguRtlB.s:299    .text:00000000000001ac .LFE16
     /tmp/ccguRtlB.s:264    .text:0000000000000174 .LBB2
     /tmp/ccguRtlB.s:279    .text:000000000000018c .LBE2
     /tmp/ccguRtlB.s:1937   .debug_str:0000000000000311 .LASF70
     /tmp/ccguRtlB.s:1741   .debug_loc:0000000000000000 .LLST3
     /tmp/ccguRtlB.s:278    .text:000000000000018c .LVL15
     /tmp/ccguRtlB.s:106    .text:0000000000000084 .LFB15
     /tmp/ccguRtlB.s:217    .text:000000000000012c .LFE15
     /tmp/ccguRtlB.s:1977   .debug_str:0000000000000502 .LASF71
     /tmp/ccguRtlB.s:1969   .debug_str:000000000000040c .LASF72
     /tmp/ccguRtlB.s:1748   .debug_loc:0000000000000023 .LLST0
     /tmp/ccguRtlB.s:1927   .debug_str:00000000000002c0 .LASF73
     /tmp/ccguRtlB.s:1771   .debug_loc:0000000000000092 .LLST1
     /tmp/ccguRtlB.s:1923   .debug_str:00000000000002ae .LASF74
     /tmp/ccguRtlB.s:1790   .debug_loc:00000000000000ee .LLST2
     /tmp/ccguRtlB.s:57     .text:0000000000000044 .LFB14
     /tmp/ccguRtlB.s:100    .text:0000000000000084 .LFE14
     /tmp/ccguRtlB.s:1845   .debug_str:0000000000000067 .LASF75
     /tmp/ccguRtlB.s:10     .text:0000000000000000 .LFB13
     /tmp/ccguRtlB.s:51     .text:0000000000000044 .LFE13
     /tmp/ccguRtlB.s:266    .text:0000000000000174 .LVL14
     /tmp/ccguRtlB.s:128    .text:00000000000000a8 .LVL3
     /tmp/ccguRtlB.s:139    .text:00000000000000b8 .LVL4
     /tmp/ccguRtlB.s:148    .text:00000000000000c4 .LVL5
GAS LISTING /tmp/ccguRtlB.s 			page 14


     /tmp/ccguRtlB.s:151    .text:00000000000000c8 .LVL6
     /tmp/ccguRtlB.s:161    .text:00000000000000d8 .LVL7
     /tmp/ccguRtlB.s:185    .text:0000000000000100 .LVL9
     /tmp/ccguRtlB.s:195    .text:000000000000010c .LVL10
     /tmp/ccguRtlB.s:181    .text:00000000000000f4 .LVL8
     /tmp/ccguRtlB.s:211    .text:0000000000000120 .LVL12
     /tmp/ccguRtlB.s:204    .text:0000000000000118 .LVL11
     /tmp/ccguRtlB.s:325    .debug_info:0000000000000000 .Ldebug_info0

NO UNDEFINED SYMBOLS
