GAS LISTING /tmp/ccgOIs85.s 			page 1


   1              		.file	"syscall_cpp.cpp"
   2              		.option pic
   3              		.option norelax
   4              		.text
   5              	.Ltext0:
   6              		.section	.text._ZN6Thread3runEv,"axG",@progbits,_ZN6Thread3runEv,comdat
   7              		.align	2
   8              		.weak	_ZN6Thread3runEv
  10              	_ZN6Thread3runEv:
  11              	.LFB0:
  12              		.file 1 "src/../h/syscall_cpp.hpp"
   1:src/../h/syscall_cpp.hpp **** #ifndef _syscall_cpp
   2:src/../h/syscall_cpp.hpp **** #define _syscall_cpp
   3:src/../h/syscall_cpp.hpp **** 
   4:src/../h/syscall_cpp.hpp **** #include "../lib/hw.h"
   5:src/../h/syscall_cpp.hpp **** 
   6:src/../h/syscall_cpp.hpp **** void* operator new(size_t);
   7:src/../h/syscall_cpp.hpp **** 
   8:src/../h/syscall_cpp.hpp **** void* operator new[](size_t);
   9:src/../h/syscall_cpp.hpp **** 
  10:src/../h/syscall_cpp.hpp **** void operator delete(void*)
  11:src/../h/syscall_cpp.hpp **** 
  12:src/../h/syscall_cpp.hpp **** noexcept;
  13:src/../h/syscall_cpp.hpp **** 
  14:src/../h/syscall_cpp.hpp **** void operator delete[](void*)
  15:src/../h/syscall_cpp.hpp **** 
  16:src/../h/syscall_cpp.hpp **** noexcept;
  17:src/../h/syscall_cpp.hpp **** 
  18:src/../h/syscall_cpp.hpp **** class TCB;
  19:src/../h/syscall_cpp.hpp **** 
  20:src/../h/syscall_cpp.hpp **** typedef TCB* thread_t;
  21:src/../h/syscall_cpp.hpp **** 
  22:src/../h/syscall_cpp.hpp **** class KSem;
  23:src/../h/syscall_cpp.hpp **** 
  24:src/../h/syscall_cpp.hpp **** typedef KSem* sem_t;
  25:src/../h/syscall_cpp.hpp **** 
  26:src/../h/syscall_cpp.hpp **** class Thread {
  27:src/../h/syscall_cpp.hpp **** public:
  28:src/../h/syscall_cpp.hpp **** 	Thread(void (* body)(void*), void* arg);
  29:src/../h/syscall_cpp.hpp **** 
  30:src/../h/syscall_cpp.hpp **** 	virtual ~Thread();
  31:src/../h/syscall_cpp.hpp **** 
  32:src/../h/syscall_cpp.hpp **** 	int start();
  33:src/../h/syscall_cpp.hpp **** 
  34:src/../h/syscall_cpp.hpp **** 	void join();
  35:src/../h/syscall_cpp.hpp **** 
  36:src/../h/syscall_cpp.hpp **** 	static void dispatch();
  37:src/../h/syscall_cpp.hpp **** 
  38:src/../h/syscall_cpp.hpp **** 	static int sleep(time_t);
  39:src/../h/syscall_cpp.hpp **** 
  40:src/../h/syscall_cpp.hpp **** protected:
  41:src/../h/syscall_cpp.hpp **** 	Thread();
  42:src/../h/syscall_cpp.hpp **** 
  43:src/../h/syscall_cpp.hpp **** 	virtual void run() {}
  13              		.loc 1 43 15
  14              		.cfi_startproc
  15              	.LVL0:
GAS LISTING /tmp/ccgOIs85.s 			page 2


  16 0000 130101FF 		addi	sp,sp,-16
  17              		.cfi_def_cfa_offset 16
  18 0004 23348100 		sd	s0,8(sp)
  19              		.cfi_offset 8, -8
  20 0008 13040101 		addi	s0,sp,16
  21              		.cfi_def_cfa 8, 0
  22              		.loc 1 43 22 is_stmt 0
  23 000c 03348100 		ld	s0,8(sp)
  24              		.cfi_restore 8
  25              		.cfi_def_cfa 2, 16
  26 0010 13010101 		addi	sp,sp,16
  27              		.cfi_def_cfa_offset 0
  28 0014 67800000 		jr	ra
  29              		.cfi_endproc
  30              	.LFE0:
  32              		.section	.text._ZN14PeriodicThread18periodicActivationEv,"axG",@progbits,_ZN14PeriodicThread18peri
  33              		.align	2
  34              		.weak	_ZN14PeriodicThread18periodicActivationEv
  36              	_ZN14PeriodicThread18periodicActivationEv:
  37              	.LFB1:
  44:src/../h/syscall_cpp.hpp **** 
  45:src/../h/syscall_cpp.hpp **** private:
  46:src/../h/syscall_cpp.hpp **** 	thread_t myHandle;
  47:src/../h/syscall_cpp.hpp **** 
  48:src/../h/syscall_cpp.hpp **** 	void (* body)(void*);
  49:src/../h/syscall_cpp.hpp **** 
  50:src/../h/syscall_cpp.hpp **** 	void* arg;
  51:src/../h/syscall_cpp.hpp **** 
  52:src/../h/syscall_cpp.hpp **** 	static void wrapper(void* thread);
  53:src/../h/syscall_cpp.hpp **** };
  54:src/../h/syscall_cpp.hpp **** 
  55:src/../h/syscall_cpp.hpp **** 
  56:src/../h/syscall_cpp.hpp **** class Semaphore {
  57:src/../h/syscall_cpp.hpp **** public:
  58:src/../h/syscall_cpp.hpp **** 
  59:src/../h/syscall_cpp.hpp **** 	Semaphore(unsigned init = 1);
  60:src/../h/syscall_cpp.hpp **** 
  61:src/../h/syscall_cpp.hpp **** 	virtual ~Semaphore();
  62:src/../h/syscall_cpp.hpp **** 
  63:src/../h/syscall_cpp.hpp **** 	int wait();
  64:src/../h/syscall_cpp.hpp **** 
  65:src/../h/syscall_cpp.hpp **** 	int signal();
  66:src/../h/syscall_cpp.hpp **** 
  67:src/../h/syscall_cpp.hpp **** private:
  68:src/../h/syscall_cpp.hpp **** 	sem_t myHandle;
  69:src/../h/syscall_cpp.hpp **** 
  70:src/../h/syscall_cpp.hpp **** };
  71:src/../h/syscall_cpp.hpp **** 
  72:src/../h/syscall_cpp.hpp **** 
  73:src/../h/syscall_cpp.hpp **** class PeriodicThread : public Thread {
  74:src/../h/syscall_cpp.hpp **** public:
  75:src/../h/syscall_cpp.hpp **** 	void terminate();
  76:src/../h/syscall_cpp.hpp **** 
  77:src/../h/syscall_cpp.hpp **** protected:
  78:src/../h/syscall_cpp.hpp **** 	PeriodicThread(time_t period);
  79:src/../h/syscall_cpp.hpp **** 
  80:src/../h/syscall_cpp.hpp **** 	virtual void periodicActivation() {}
GAS LISTING /tmp/ccgOIs85.s 			page 3


  38              		.loc 1 80 15 is_stmt 1
  39              		.cfi_startproc
  40              	.LVL1:
  41 0000 130101FF 		addi	sp,sp,-16
  42              		.cfi_def_cfa_offset 16
  43 0004 23348100 		sd	s0,8(sp)
  44              		.cfi_offset 8, -8
  45 0008 13040101 		addi	s0,sp,16
  46              		.cfi_def_cfa 8, 0
  47              		.loc 1 80 37 is_stmt 0
  48 000c 03348100 		ld	s0,8(sp)
  49              		.cfi_restore 8
  50              		.cfi_def_cfa 2, 16
  51 0010 13010101 		addi	sp,sp,16
  52              		.cfi_def_cfa_offset 0
  53 0014 67800000 		jr	ra
  54              		.cfi_endproc
  55              	.LFE1:
  57              		.text
  58              		.align	2
  59              		.globl	_ZN6Thread7wrapperEPv
  61              	_ZN6Thread7wrapperEPv:
  62              	.LFB56:
  63              		.file 2 "src/syscall_cpp.cpp"
   1:src/syscall_cpp.cpp **** //
   2:src/syscall_cpp.cpp **** // Created by os on 5/29/23.
   3:src/syscall_cpp.cpp **** //
   4:src/syscall_cpp.cpp **** #include "../h/syscall_cpp.hpp"
   5:src/syscall_cpp.cpp **** #include "../h/syscall_c.hpp"
   6:src/syscall_cpp.cpp **** #include "../h/TCB.hpp"
   7:src/syscall_cpp.cpp **** #include "../h/KSem.hpp"
   8:src/syscall_cpp.cpp **** #include "../h/Scheduler.hpp"
   9:src/syscall_cpp.cpp **** 
  10:src/syscall_cpp.cpp **** //override globalnog new
  11:src/syscall_cpp.cpp **** void* operator new(size_t size) {
  12:src/syscall_cpp.cpp **** 	return mem_alloc(size);
  13:src/syscall_cpp.cpp **** }
  14:src/syscall_cpp.cpp **** 
  15:src/syscall_cpp.cpp **** void* operator new[](size_t size) {
  16:src/syscall_cpp.cpp **** 	return mem_alloc(size);
  17:src/syscall_cpp.cpp **** }
  18:src/syscall_cpp.cpp **** 
  19:src/syscall_cpp.cpp **** void operator delete(void* ptr)
  20:src/syscall_cpp.cpp **** 
  21:src/syscall_cpp.cpp **** noexcept {
  22:src/syscall_cpp.cpp **** mem_free(ptr);
  23:src/syscall_cpp.cpp **** }
  24:src/syscall_cpp.cpp **** 
  25:src/syscall_cpp.cpp **** void operator delete[](void* ptr)
  26:src/syscall_cpp.cpp **** 
  27:src/syscall_cpp.cpp **** noexcept {
  28:src/syscall_cpp.cpp **** mem_free(ptr);
  29:src/syscall_cpp.cpp **** }
  30:src/syscall_cpp.cpp **** 
  31:src/syscall_cpp.cpp **** //konstruktor za Thread
  32:src/syscall_cpp.cpp **** Thread::Thread(void (* body)(void*), void* arg) {
  33:src/syscall_cpp.cpp **** 	this->body = body;
GAS LISTING /tmp/ccgOIs85.s 			page 4


  34:src/syscall_cpp.cpp **** 	this->arg = arg;
  35:src/syscall_cpp.cpp **** 	//stvaranje steka ako se ne radi o main kernel niti, posto ona automatski ima stek
  36:src/syscall_cpp.cpp **** 	uint64* stack = nullptr;
  37:src/syscall_cpp.cpp **** 	if (body != nullptr) {
  38:src/syscall_cpp.cpp **** 		stack = (uint64*)mem_alloc(DEFAULT_STACK_SIZE);
  39:src/syscall_cpp.cpp **** 	}
  40:src/syscall_cpp.cpp **** 	//uint64* stack = (start_routine != nullptr ? (uint64*)MemoryAllocator::kmalloc(DEFAULT_STACK_SIZE
  41:src/syscall_cpp.cpp **** 	//stavljanje argumenata za sistemski poziv
  42:src/syscall_cpp.cpp **** 	__asm__ volatile("mv a4, %[sp]": :[sp] "r"(stack):"a5", "a0", "a1", "a2", "a3", "a4", "a6", "a7");
  43:src/syscall_cpp.cpp **** 	__asm__ volatile("mv a3, %[arg]": :[arg] "r"(arg):"a5", "a0", "a1", "a2", "a3", "a4", "a6", "a7");
  44:src/syscall_cpp.cpp **** 	__asm__ volatile("mv a2, %[function]": :[function] "r"(
  45:src/syscall_cpp.cpp **** 			body):"a5", "a0", "a1", "a2", "a3", "a4", "a6", "a7");
  46:src/syscall_cpp.cpp **** 	__asm__ volatile("mv a1, %[handle]": :[handle] "r"(&myHandle):"a5", "a0", "a1", "a2", "a3", "a4", 
  47:src/syscall_cpp.cpp **** 	__asm__ volatile("li a0, 0x80");
  48:src/syscall_cpp.cpp **** 	//a0 = 0x80
  49:src/syscall_cpp.cpp **** 	//a1 = adresa pokazivaca na rucku niti
  50:src/syscall_cpp.cpp **** 	//a2 = prva adresa funkcije koju nit izvrsava
  51:src/syscall_cpp.cpp **** 	//a3 = pokazivac na argumente funkcije
  52:src/syscall_cpp.cpp **** 	//a4 = pokazivac na najnizu adresu steka (stek raste ka nizim adresama, pokazuje na poslednju zauz
  53:src/syscall_cpp.cpp **** 
  54:src/syscall_cpp.cpp **** 	__asm__ volatile("ecall");
  55:src/syscall_cpp.cpp **** }
  56:src/syscall_cpp.cpp **** 
  57:src/syscall_cpp.cpp **** Thread::~Thread() {
  58:src/syscall_cpp.cpp **** 	//ne treba da se gasi running nit, vec nit na koju pokazuje rucka od this
  59:src/syscall_cpp.cpp **** 	thread_join(this->myHandle);
  60:src/syscall_cpp.cpp **** 	delete myHandle;
  61:src/syscall_cpp.cpp **** 
  62:src/syscall_cpp.cpp **** 	//ovo nije dobro
  63:src/syscall_cpp.cpp **** 	//thread_exit();
  64:src/syscall_cpp.cpp **** }
  65:src/syscall_cpp.cpp **** 
  66:src/syscall_cpp.cpp **** int Thread::start() {
  67:src/syscall_cpp.cpp **** 	if (myHandle == nullptr) return -1;
  68:src/syscall_cpp.cpp **** 	__asm__ volatile("mv a1, %[handle]": :[handle] "r"(myHandle):"a5", "a0", "a1", "a2", "a3", "a4", "
  69:src/syscall_cpp.cpp **** 	__asm__ volatile("li a0, 0x81");
  70:src/syscall_cpp.cpp **** 
  71:src/syscall_cpp.cpp **** 	__asm__ volatile("ecall");
  72:src/syscall_cpp.cpp **** 
  73:src/syscall_cpp.cpp **** 	return 0;
  74:src/syscall_cpp.cpp **** }
  75:src/syscall_cpp.cpp **** 
  76:src/syscall_cpp.cpp **** void Thread::join() {
  77:src/syscall_cpp.cpp **** 	thread_join(myHandle);
  78:src/syscall_cpp.cpp **** }
  79:src/syscall_cpp.cpp **** 
  80:src/syscall_cpp.cpp **** void Thread::dispatch() {
  81:src/syscall_cpp.cpp **** 	thread_dispatch();
  82:src/syscall_cpp.cpp **** }
  83:src/syscall_cpp.cpp **** 
  84:src/syscall_cpp.cpp **** int Thread::sleep(time_t t) {
  85:src/syscall_cpp.cpp **** 	Scheduler::putToSleep(TCB::running, t);
  86:src/syscall_cpp.cpp **** 	return 0;
  87:src/syscall_cpp.cpp **** }
  88:src/syscall_cpp.cpp **** 
  89:src/syscall_cpp.cpp **** Thread::Thread() {
  90:src/syscall_cpp.cpp **** 	this->body = wrapper;
GAS LISTING /tmp/ccgOIs85.s 			page 5


  91:src/syscall_cpp.cpp **** 	this->arg = this;
  92:src/syscall_cpp.cpp **** 	//stvaranje steka ako se ne radi o main kernel niti, posto ona automatski ima stek
  93:src/syscall_cpp.cpp **** 	uint64* stack = nullptr;
  94:src/syscall_cpp.cpp **** 	if (body != nullptr) {
  95:src/syscall_cpp.cpp **** 		stack = (uint64*)mem_alloc(DEFAULT_STACK_SIZE);
  96:src/syscall_cpp.cpp **** 	}
  97:src/syscall_cpp.cpp **** 	//uint64* stack = (start_routine != nullptr ? (uint64*)MemoryAllocator::kmalloc(DEFAULT_STACK_SIZE
  98:src/syscall_cpp.cpp **** 	//stavljanje argumenata za sistemski poziv
  99:src/syscall_cpp.cpp **** 	__asm__ volatile("mv a4, %[sp]": :[sp] "r"(stack):"a5", "a0", "a1", "a2", "a3", "a4", "a6", "a7");
 100:src/syscall_cpp.cpp **** 	__asm__ volatile("mv a3, %[arg]": :[arg] "r"(arg):"a5", "a0", "a1", "a2", "a3", "a4", "a6", "a7");
 101:src/syscall_cpp.cpp **** 	__asm__ volatile("mv a2, %[function]": :[function] "r"(
 102:src/syscall_cpp.cpp **** 			body):"a5", "a0", "a1", "a2", "a3", "a4", "a6", "a7");
 103:src/syscall_cpp.cpp **** 	__asm__ volatile("mv a1, %[handle]": :[handle] "r"(&myHandle):"a5", "a0", "a1", "a2", "a3", "a4", 
 104:src/syscall_cpp.cpp **** 	__asm__ volatile("li a0, 0x80");
 105:src/syscall_cpp.cpp **** 	//a0 = 0x80
 106:src/syscall_cpp.cpp **** 	//a1 = adresa pokazivaca na rucku niti
 107:src/syscall_cpp.cpp **** 	//a2 = prva adresa funkcije koju nit izvrsava
 108:src/syscall_cpp.cpp **** 	//a3 = pokazivac na argumente funkcije
 109:src/syscall_cpp.cpp **** 	//a4 = pokazivac na najnizu adresu steka (stek raste ka nizim adresama, pokazuje na poslednju zauz
 110:src/syscall_cpp.cpp **** 
 111:src/syscall_cpp.cpp **** 	__asm__ volatile("ecall");
 112:src/syscall_cpp.cpp **** }
 113:src/syscall_cpp.cpp **** 
 114:src/syscall_cpp.cpp **** void Thread::wrapper(void* thread) {
  64              		.loc 2 114 36 is_stmt 1
  65              		.cfi_startproc
  66              	.LVL2:
 115:src/syscall_cpp.cpp **** 	if(thread!=nullptr){
  67              		.loc 2 115 2
  68 0000 63080502 		beqz	a0,.L8
 114:src/syscall_cpp.cpp **** 	if(thread!=nullptr){
  69              		.loc 2 114 36 is_stmt 0
  70 0004 130101FF 		addi	sp,sp,-16
  71              		.cfi_def_cfa_offset 16
  72 0008 23341100 		sd	ra,8(sp)
  73 000c 23308100 		sd	s0,0(sp)
  74              		.cfi_offset 1, -8
  75              		.cfi_offset 8, -16
  76 0010 13040101 		addi	s0,sp,16
  77              		.cfi_def_cfa 8, 0
 116:src/syscall_cpp.cpp **** 		((Thread*)thread)->run();
  78              		.loc 2 116 3 is_stmt 1
  79              		.loc 2 116 26 is_stmt 0
  80 0014 83370500 		ld	a5,0(a0)
  81 0018 83B70701 		ld	a5,16(a5)
  82              		.loc 2 116 25
  83 001c E7800700 		jalr	a5
  84              	.LVL3:
 117:src/syscall_cpp.cpp **** 	}
 118:src/syscall_cpp.cpp **** }
  85              		.loc 2 118 1
  86 0020 83308100 		ld	ra,8(sp)
  87              		.cfi_restore 1
  88 0024 03340100 		ld	s0,0(sp)
  89              		.cfi_restore 8
  90              		.cfi_def_cfa 2, 16
  91 0028 13010101 		addi	sp,sp,16
GAS LISTING /tmp/ccgOIs85.s 			page 6


  92              		.cfi_def_cfa_offset 0
  93 002c 67800000 		jr	ra
  94              	.LVL4:
  95              	.L8:
  96 0030 67800000 		ret
  97              		.cfi_endproc
  98              	.LFE56:
 100              		.align	2
 101              		.globl	_ZN6ThreadD2Ev
 103              	_ZN6ThreadD2Ev:
 104              	.LFB46:
  57:src/syscall_cpp.cpp **** 	//ne treba da se gasi running nit, vec nit na koju pokazuje rucka od this
 105              		.loc 2 57 1 is_stmt 1
 106              		.cfi_startproc
 107              		.cfi_personality 0x9b,DW.ref.__gxx_personality_v0
 108              		.cfi_lsda 0x1b,.LLSDA46
 109              	.LVL5:
 110 0034 130101FE 		addi	sp,sp,-32
 111              		.cfi_def_cfa_offset 32
 112 0038 233C1100 		sd	ra,24(sp)
 113 003c 23388100 		sd	s0,16(sp)
 114 0040 23349100 		sd	s1,8(sp)
 115              		.cfi_offset 1, -8
 116              		.cfi_offset 8, -16
 117              		.cfi_offset 9, -24
 118 0044 13040102 		addi	s0,sp,32
 119              		.cfi_def_cfa 8, 0
 120 0048 93040500 		mv	s1,a0
 121              	.LBB54:
  57:src/syscall_cpp.cpp **** 	//ne treba da se gasi running nit, vec nit na koju pokazuje rucka od this
 122              		.loc 2 57 17 is_stmt 0
 123 004c 97070000 		lla	a5,_ZTV6Thread+16
 123      93870700 
 124 0054 2330F500 		sd	a5,0(a0)
  59:src/syscall_cpp.cpp **** 	delete myHandle;
 125              		.loc 2 59 2 is_stmt 1
  59:src/syscall_cpp.cpp **** 	delete myHandle;
 126              		.loc 2 59 13 is_stmt 0
 127 0058 03358500 		ld	a0,8(a0)
 128              	.LVL6:
 129 005c 97000000 		call	_Z11thread_joinP3TCB@plt
 129      E7800000 
 130              	.LVL7:
  60:src/syscall_cpp.cpp **** 
 131              		.loc 2 60 2 is_stmt 1
  60:src/syscall_cpp.cpp **** 
 132              		.loc 2 60 9 is_stmt 0
 133 0064 83B48400 		ld	s1,8(s1)
 134              	.LVL8:
  60:src/syscall_cpp.cpp **** 
 135              		.loc 2 60 17
 136 0068 63880402 		beqz	s1,.L11
 137              	.L14:
 138              	.LBB55:
 139              	.LBB56:
 140              	.LBB57:
 141              		.file 3 "src/../h/../h/ThreadQueue.hpp"
GAS LISTING /tmp/ccgOIs85.s 			page 7


   1:src/../h/../h/ThreadQueue.hpp **** //
   2:src/../h/../h/ThreadQueue.hpp **** // Created by os on 6/4/23.
   3:src/../h/../h/ThreadQueue.hpp **** //
   4:src/../h/../h/ThreadQueue.hpp **** 
   5:src/../h/../h/ThreadQueue.hpp **** #ifndef PROJEKAT2023_THREADQUEUE_HPP
   6:src/../h/../h/ThreadQueue.hpp **** #define PROJEKAT2023_THREADQUEUE_HPP
   7:src/../h/../h/ThreadQueue.hpp **** 
   8:src/../h/../h/ThreadQueue.hpp **** #include "../h/MemoryAllocator.hpp"
   9:src/../h/../h/ThreadQueue.hpp **** #include "../h/syscall_c.hpp"
  10:src/../h/../h/ThreadQueue.hpp **** 
  11:src/../h/../h/ThreadQueue.hpp **** class TCB;
  12:src/../h/../h/ThreadQueue.hpp **** 
  13:src/../h/../h/ThreadQueue.hpp **** class ThreadQueue {
  14:src/../h/../h/ThreadQueue.hpp **** private:
  15:src/../h/../h/ThreadQueue.hpp **** 	struct Node {
  16:src/../h/../h/ThreadQueue.hpp **** 		TCB* data;
  17:src/../h/../h/ThreadQueue.hpp **** 		Node* next;
  18:src/../h/../h/ThreadQueue.hpp **** 
  19:src/../h/../h/ThreadQueue.hpp **** 		Node(TCB* d) : data(d), next(nullptr) {}
  20:src/../h/../h/ThreadQueue.hpp **** 
  21:src/../h/../h/ThreadQueue.hpp **** 		static void* operator new(size_t size) {
  22:src/../h/../h/ThreadQueue.hpp **** 			return mem_alloc(size);
  23:src/../h/../h/ThreadQueue.hpp **** 		}
  24:src/../h/../h/ThreadQueue.hpp **** 
  25:src/../h/../h/ThreadQueue.hpp **** 		static void operator delete(void* ptr) {
  26:src/../h/../h/ThreadQueue.hpp **** 			mem_free(ptr);
  27:src/../h/../h/ThreadQueue.hpp **** 		}
  28:src/../h/../h/ThreadQueue.hpp **** 	};
  29:src/../h/../h/ThreadQueue.hpp **** 
  30:src/../h/../h/ThreadQueue.hpp **** 	Node* front;
  31:src/../h/../h/ThreadQueue.hpp **** 	Node* back;
  32:src/../h/../h/ThreadQueue.hpp **** 
  33:src/../h/../h/ThreadQueue.hpp **** public:
  34:src/../h/../h/ThreadQueue.hpp **** 	ThreadQueue() : front(nullptr), back(nullptr) {}
  35:src/../h/../h/ThreadQueue.hpp **** 
  36:src/../h/../h/ThreadQueue.hpp **** 	ThreadQueue(const ThreadQueue&) = delete;
  37:src/../h/../h/ThreadQueue.hpp **** 
  38:src/../h/../h/ThreadQueue.hpp **** 	ThreadQueue& operator=(const ThreadQueue&) = delete;
  39:src/../h/../h/ThreadQueue.hpp **** 
  40:src/../h/../h/ThreadQueue.hpp **** 	~ThreadQueue() {
  41:src/../h/../h/ThreadQueue.hpp **** 		while (!isEmpty()) {
 142              		.loc 3 41 3 is_stmt 1
 143              		.loc 3 41 10
 144              	.LVL9:
 145              	.LBB58:
 146              	.LBB59:
  42:src/../h/../h/ThreadQueue.hpp **** 			Node* node = front;
  43:src/../h/../h/ThreadQueue.hpp **** 			front = front->next;
  44:src/../h/../h/ThreadQueue.hpp **** 			delete node;
  45:src/../h/../h/ThreadQueue.hpp **** 		}
  46:src/../h/../h/ThreadQueue.hpp **** 	}
  47:src/../h/../h/ThreadQueue.hpp **** 
  48:src/../h/../h/ThreadQueue.hpp **** 	bool isEmpty() const {
  49:src/../h/../h/ThreadQueue.hpp **** 		return front == nullptr;
 147              		.loc 3 49 3
 148              		.loc 3 49 10 is_stmt 0
 149 006c 03B50405 		ld	a0,80(s1)
GAS LISTING /tmp/ccgOIs85.s 			page 8


 150              	.LBE59:
 151              	.LBE58:
  41:src/../h/../h/ThreadQueue.hpp **** 			Node* node = front;
 152              		.loc 3 41 10
 153 0070 630E0500 		beqz	a0,.L13
 154              	.LBB60:
  42:src/../h/../h/ThreadQueue.hpp **** 			Node* node = front;
 155              		.loc 3 42 4 is_stmt 1
 156              	.LVL10:
  43:src/../h/../h/ThreadQueue.hpp **** 			delete node;
 157              		.loc 3 43 4
  43:src/../h/../h/ThreadQueue.hpp **** 			delete node;
 158              		.loc 3 43 19 is_stmt 0
 159 0074 83378500 		ld	a5,8(a0)
  43:src/../h/../h/ThreadQueue.hpp **** 			delete node;
 160              		.loc 3 43 10
 161 0078 23B8F404 		sd	a5,80(s1)
  44:src/../h/../h/ThreadQueue.hpp **** 		}
 162              		.loc 3 44 4 is_stmt 1
  44:src/../h/../h/ThreadQueue.hpp **** 		}
 163              		.loc 3 44 15 is_stmt 0
 164 007c E30805FE 		beqz	a0,.L14
 165              	.LVL11:
 166              	.LBB61:
 167              	.LBB62:
  26:src/../h/../h/ThreadQueue.hpp **** 		}
 168              		.loc 3 26 4 is_stmt 1
  26:src/../h/../h/ThreadQueue.hpp **** 		}
 169              		.loc 3 26 12 is_stmt 0
 170 0080 97000000 		call	_Z8mem_freePv@plt
 170      E7800000 
 171              	.LVL12:
  27:src/../h/../h/ThreadQueue.hpp **** 	};
 172              		.loc 3 27 3
 173 0088 6FF05FFE 		j	.L14
 174              	.L13:
 175              	.LBE62:
 176              	.LBE61:
 177              	.LBE60:
 178              	.LBE57:
 179              	.LBE56:
 180              	.LBE55:
  60:src/syscall_cpp.cpp **** 
 181              		.loc 2 60 9
 182 008c 13850400 		mv	a0,s1
 183 0090 97000000 		call	_ZN3TCBdlEPv@plt
 183      E7800000 
 184              	.LVL13:
 185              	.L11:
 186              	.LBE54:
  64:src/syscall_cpp.cpp **** 
 187              		.loc 2 64 1
 188 0098 83308101 		ld	ra,24(sp)
 189              		.cfi_restore 1
 190 009c 03340101 		ld	s0,16(sp)
 191              		.cfi_restore 8
 192              		.cfi_def_cfa 2, 32
GAS LISTING /tmp/ccgOIs85.s 			page 9


 193 00a0 83348100 		ld	s1,8(sp)
 194              		.cfi_restore 9
 195 00a4 13010102 		addi	sp,sp,32
 196              		.cfi_def_cfa_offset 0
 197 00a8 67800000 		jr	ra
 198              		.cfi_endproc
 199              	.LFE46:
 200              		.globl	__gxx_personality_v0
 201              		.section	.gcc_except_table,"a",@progbits
 202              	.LLSDA46:
 203 0000 FF       		.byte	0xff
 204 0001 FF       		.byte	0xff
 205 0002 03       		.byte	0x3
 206 0003 00       		.byte	0
 207              		.text
 209              		.globl	_ZN6ThreadD1Ev
 210              		.set	_ZN6ThreadD1Ev,_ZN6ThreadD2Ev
 211              		.section	.text._ZN14PeriodicThreadD2Ev,"axG",@progbits,_ZN14PeriodicThreadD5Ev,comdat
 212              		.align	2
 213              		.weak	_ZN14PeriodicThreadD2Ev
 215              	_ZN14PeriodicThreadD2Ev:
 216              	.LFB76:
  73:src/../h/syscall_cpp.hpp **** public:
 217              		.loc 1 73 7 is_stmt 1
 218              		.cfi_startproc
 219              	.LVL14:
 220 0000 130101FF 		addi	sp,sp,-16
 221              		.cfi_def_cfa_offset 16
 222 0004 23341100 		sd	ra,8(sp)
 223 0008 23308100 		sd	s0,0(sp)
 224              		.cfi_offset 1, -8
 225              		.cfi_offset 8, -16
 226 000c 13040101 		addi	s0,sp,16
 227              		.cfi_def_cfa 8, 0
 228              	.LBB63:
  73:src/../h/syscall_cpp.hpp **** public:
 229              		.loc 1 73 7 is_stmt 0
 230 0010 97070000 		lla	a5,_ZTV14PeriodicThread+16
 230      93870700 
 231 0018 2330F500 		sd	a5,0(a0)
 232 001c 97000000 		call	_ZN6ThreadD2Ev
 232      E7800000 
 233              	.LVL15:
 234              	.LBE63:
 235 0024 83308100 		ld	ra,8(sp)
 236              		.cfi_restore 1
 237 0028 03340100 		ld	s0,0(sp)
 238              		.cfi_restore 8
 239              		.cfi_def_cfa 2, 16
 240 002c 13010101 		addi	sp,sp,16
 241              		.cfi_def_cfa_offset 0
 242 0030 67800000 		jr	ra
 243              		.cfi_endproc
 244              	.LFE76:
 246              		.weak	_ZN14PeriodicThreadD1Ev
 247              		.set	_ZN14PeriodicThreadD1Ev,_ZN14PeriodicThreadD2Ev
 248              		.text
GAS LISTING /tmp/ccgOIs85.s 			page 10


 249              		.align	2
 250              		.globl	_ZN9SemaphoreD2Ev
 252              	_ZN9SemaphoreD2Ev:
 253              	.LFB64:
 119:src/syscall_cpp.cpp **** 
 120:src/syscall_cpp.cpp **** Semaphore::Semaphore(unsigned int init) {
 121:src/syscall_cpp.cpp **** 	sem_open(&myHandle, init);
 122:src/syscall_cpp.cpp **** }
 123:src/syscall_cpp.cpp **** 
 124:src/syscall_cpp.cpp **** Semaphore::~Semaphore() {
 254              		.loc 2 124 1 is_stmt 1
 255              		.cfi_startproc
 256              		.cfi_personality 0x9b,DW.ref.__gxx_personality_v0
 257              		.cfi_lsda 0x1b,.LLSDA64
 258              	.LVL16:
 259 00ac 130101FE 		addi	sp,sp,-32
 260              		.cfi_def_cfa_offset 32
 261 00b0 233C1100 		sd	ra,24(sp)
 262 00b4 23388100 		sd	s0,16(sp)
 263 00b8 23349100 		sd	s1,8(sp)
 264              		.cfi_offset 1, -8
 265              		.cfi_offset 8, -16
 266              		.cfi_offset 9, -24
 267 00bc 13040102 		addi	s0,sp,32
 268              		.cfi_def_cfa 8, 0
 269 00c0 93040500 		mv	s1,a0
 270              	.LBB64:
 271              		.loc 2 124 23 is_stmt 0
 272 00c4 97070000 		lla	a5,_ZTV9Semaphore+16
 272      93870700 
 273 00cc 2330F500 		sd	a5,0(a0)
 125:src/syscall_cpp.cpp **** 	sem_close(myHandle);
 274              		.loc 2 125 2 is_stmt 1
 275              		.loc 2 125 11 is_stmt 0
 276 00d0 03358500 		ld	a0,8(a0)
 277              	.LVL17:
 278 00d4 97000000 		call	_Z9sem_closeP4KSem@plt
 278      E7800000 
 279              	.LVL18:
 126:src/syscall_cpp.cpp **** 	delete myHandle;
 280              		.loc 2 126 2 is_stmt 1
 281              		.loc 2 126 9 is_stmt 0
 282 00dc 83B48400 		ld	s1,8(s1)
 283              	.LVL19:
 284              		.loc 2 126 17
 285 00e0 63880402 		beqz	s1,.L19
 286              	.L22:
 287              	.LBB65:
 288              	.LBB66:
 289              	.LBB67:
  41:src/../h/../h/ThreadQueue.hpp **** 			Node* node = front;
 290              		.loc 3 41 3 is_stmt 1
  41:src/../h/../h/ThreadQueue.hpp **** 			Node* node = front;
 291              		.loc 3 41 10
 292              	.LVL20:
 293              	.LBB68:
 294              	.LBB69:
GAS LISTING /tmp/ccgOIs85.s 			page 11


 295              		.loc 3 49 3
 296              		.loc 3 49 10 is_stmt 0
 297 00e4 03B58400 		ld	a0,8(s1)
 298              	.LBE69:
 299              	.LBE68:
  41:src/../h/../h/ThreadQueue.hpp **** 			Node* node = front;
 300              		.loc 3 41 10
 301 00e8 630E0500 		beqz	a0,.L21
 302              	.LBB70:
  42:src/../h/../h/ThreadQueue.hpp **** 			front = front->next;
 303              		.loc 3 42 4 is_stmt 1
 304              	.LVL21:
  43:src/../h/../h/ThreadQueue.hpp **** 			delete node;
 305              		.loc 3 43 4
  43:src/../h/../h/ThreadQueue.hpp **** 			delete node;
 306              		.loc 3 43 19 is_stmt 0
 307 00ec 83378500 		ld	a5,8(a0)
  43:src/../h/../h/ThreadQueue.hpp **** 			delete node;
 308              		.loc 3 43 10
 309 00f0 23B4F400 		sd	a5,8(s1)
  44:src/../h/../h/ThreadQueue.hpp **** 		}
 310              		.loc 3 44 4 is_stmt 1
  44:src/../h/../h/ThreadQueue.hpp **** 		}
 311              		.loc 3 44 15 is_stmt 0
 312 00f4 E30805FE 		beqz	a0,.L22
 313              	.LVL22:
 314              	.LBB71:
 315              	.LBB72:
  26:src/../h/../h/ThreadQueue.hpp **** 		}
 316              		.loc 3 26 4 is_stmt 1
  26:src/../h/../h/ThreadQueue.hpp **** 		}
 317              		.loc 3 26 12 is_stmt 0
 318 00f8 97000000 		call	_Z8mem_freePv@plt
 318      E7800000 
 319              	.LVL23:
  27:src/../h/../h/ThreadQueue.hpp **** 	};
 320              		.loc 3 27 3
 321 0100 6FF05FFE 		j	.L22
 322              	.L21:
 323              	.LBE72:
 324              	.LBE71:
 325              	.LBE70:
 326              	.LBE67:
 327              	.LBE66:
 328              	.LBE65:
 329              		.loc 2 126 9
 330 0104 13850400 		mv	a0,s1
 331 0108 97000000 		call	_ZN4KSemdlEPv@plt
 331      E7800000 
 332              	.LVL24:
 333              	.L19:
 334              	.LBE64:
 127:src/syscall_cpp.cpp **** }
 335              		.loc 2 127 1
 336 0110 83308101 		ld	ra,24(sp)
 337              		.cfi_restore 1
 338 0114 03340101 		ld	s0,16(sp)
GAS LISTING /tmp/ccgOIs85.s 			page 12


 339              		.cfi_restore 8
 340              		.cfi_def_cfa 2, 32
 341 0118 83348100 		ld	s1,8(sp)
 342              		.cfi_restore 9
 343 011c 13010102 		addi	sp,sp,32
 344              		.cfi_def_cfa_offset 0
 345 0120 67800000 		jr	ra
 346              		.cfi_endproc
 347              	.LFE64:
 348              		.section	.gcc_except_table
 349              	.LLSDA64:
 350 0004 FF       		.byte	0xff
 351 0005 FF       		.byte	0xff
 352 0006 03       		.byte	0x3
 353 0007 00       		.byte	0
 354              		.text
 356              		.globl	_ZN9SemaphoreD1Ev
 357              		.set	_ZN9SemaphoreD1Ev,_ZN9SemaphoreD2Ev
 358              		.align	2
 359              		.globl	_Znwm
 361              	_Znwm:
 362              	.LFB35:
  11:src/syscall_cpp.cpp **** 	return mem_alloc(size);
 363              		.loc 2 11 33 is_stmt 1
 364              		.cfi_startproc
 365              	.LVL25:
 366 0124 130101FF 		addi	sp,sp,-16
 367              		.cfi_def_cfa_offset 16
 368 0128 23341100 		sd	ra,8(sp)
 369 012c 23308100 		sd	s0,0(sp)
 370              		.cfi_offset 1, -8
 371              		.cfi_offset 8, -16
 372 0130 13040101 		addi	s0,sp,16
 373              		.cfi_def_cfa 8, 0
  12:src/syscall_cpp.cpp **** }
 374              		.loc 2 12 2
  12:src/syscall_cpp.cpp **** }
 375              		.loc 2 12 18 is_stmt 0
 376 0134 97000000 		call	_Z9mem_allocm@plt
 376      E7800000 
 377              	.LVL26:
  13:src/syscall_cpp.cpp **** 
 378              		.loc 2 13 1
 379 013c 83308100 		ld	ra,8(sp)
 380              		.cfi_restore 1
 381 0140 03340100 		ld	s0,0(sp)
 382              		.cfi_restore 8
 383              		.cfi_def_cfa 2, 16
 384 0144 13010101 		addi	sp,sp,16
 385              		.cfi_def_cfa_offset 0
 386 0148 67800000 		jr	ra
 387              		.cfi_endproc
 388              	.LFE35:
 390              		.align	2
 391              		.globl	_Znam
 393              	_Znam:
 394              	.LFB36:
GAS LISTING /tmp/ccgOIs85.s 			page 13


  15:src/syscall_cpp.cpp **** 	return mem_alloc(size);
 395              		.loc 2 15 35 is_stmt 1
 396              		.cfi_startproc
 397              	.LVL27:
 398 014c 130101FF 		addi	sp,sp,-16
 399              		.cfi_def_cfa_offset 16
 400 0150 23341100 		sd	ra,8(sp)
 401 0154 23308100 		sd	s0,0(sp)
 402              		.cfi_offset 1, -8
 403              		.cfi_offset 8, -16
 404 0158 13040101 		addi	s0,sp,16
 405              		.cfi_def_cfa 8, 0
  16:src/syscall_cpp.cpp **** }
 406              		.loc 2 16 2
  16:src/syscall_cpp.cpp **** }
 407              		.loc 2 16 18 is_stmt 0
 408 015c 97000000 		call	_Z9mem_allocm@plt
 408      E7800000 
 409              	.LVL28:
  17:src/syscall_cpp.cpp **** 
 410              		.loc 2 17 1
 411 0164 83308100 		ld	ra,8(sp)
 412              		.cfi_restore 1
 413 0168 03340100 		ld	s0,0(sp)
 414              		.cfi_restore 8
 415              		.cfi_def_cfa 2, 16
 416 016c 13010101 		addi	sp,sp,16
 417              		.cfi_def_cfa_offset 0
 418 0170 67800000 		jr	ra
 419              		.cfi_endproc
 420              	.LFE36:
 422              		.align	2
 423              		.globl	_ZdlPv
 425              	_ZdlPv:
 426              	.LFB37:
  21:src/syscall_cpp.cpp **** mem_free(ptr);
 427              		.loc 2 21 10 is_stmt 1
 428              		.cfi_startproc
 429              		.cfi_personality 0x9b,DW.ref.__gxx_personality_v0
 430              		.cfi_lsda 0x1b,.LLSDA37
 431              	.LVL29:
 432 0174 130101FF 		addi	sp,sp,-16
 433              		.cfi_def_cfa_offset 16
 434 0178 23341100 		sd	ra,8(sp)
 435 017c 23308100 		sd	s0,0(sp)
 436              		.cfi_offset 1, -8
 437              		.cfi_offset 8, -16
 438 0180 13040101 		addi	s0,sp,16
 439              		.cfi_def_cfa 8, 0
  22:src/syscall_cpp.cpp **** }
 440              		.loc 2 22 1
  22:src/syscall_cpp.cpp **** }
 441              		.loc 2 22 9 is_stmt 0
 442 0184 97000000 		call	_Z8mem_freePv@plt
 442      E7800000 
 443              	.LVL30:
  23:src/syscall_cpp.cpp **** 
GAS LISTING /tmp/ccgOIs85.s 			page 14


 444              		.loc 2 23 1
 445 018c 83308100 		ld	ra,8(sp)
 446              		.cfi_restore 1
 447 0190 03340100 		ld	s0,0(sp)
 448              		.cfi_restore 8
 449              		.cfi_def_cfa 2, 16
 450 0194 13010101 		addi	sp,sp,16
 451              		.cfi_def_cfa_offset 0
 452 0198 67800000 		jr	ra
 453              		.cfi_endproc
 454              	.LFE37:
 455              		.section	.gcc_except_table
 456              	.LLSDA37:
 457 0008 FF       		.byte	0xff
 458 0009 FF       		.byte	0xff
 459 000a 03       		.byte	0x3
 460 000b 00       		.byte	0
 461              		.text
 463              		.align	2
 464              		.globl	_ZN6ThreadD0Ev
 466              	_ZN6ThreadD0Ev:
 467              	.LFB48:
  57:src/syscall_cpp.cpp **** 	//ne treba da se gasi running nit, vec nit na koju pokazuje rucka od this
 468              		.loc 2 57 1 is_stmt 1
 469              		.cfi_startproc
 470              	.LVL31:
 471 019c 130101FE 		addi	sp,sp,-32
 472              		.cfi_def_cfa_offset 32
 473 01a0 233C1100 		sd	ra,24(sp)
 474 01a4 23388100 		sd	s0,16(sp)
 475 01a8 23349100 		sd	s1,8(sp)
 476              		.cfi_offset 1, -8
 477              		.cfi_offset 8, -16
 478              		.cfi_offset 9, -24
 479 01ac 13040102 		addi	s0,sp,32
 480              		.cfi_def_cfa 8, 0
 481 01b0 93040500 		mv	s1,a0
  64:src/syscall_cpp.cpp **** 
 482              		.loc 2 64 1 is_stmt 0
 483 01b4 97000000 		call	_ZN6ThreadD1Ev
 483      E7800000 
 484              	.LVL32:
 485 01bc 13850400 		mv	a0,s1
 486 01c0 97000000 		call	_ZdlPv
 486      E7800000 
 487              	.LVL33:
 488 01c8 83308101 		ld	ra,24(sp)
 489              		.cfi_restore 1
 490 01cc 03340101 		ld	s0,16(sp)
 491              		.cfi_restore 8
 492              		.cfi_def_cfa 2, 32
 493 01d0 83348100 		ld	s1,8(sp)
 494              		.cfi_restore 9
 495              	.LVL34:
 496 01d4 13010102 		addi	sp,sp,32
 497              		.cfi_def_cfa_offset 0
 498 01d8 67800000 		jr	ra
GAS LISTING /tmp/ccgOIs85.s 			page 15


 499              		.cfi_endproc
 500              	.LFE48:
 502              		.section	.text._ZN14PeriodicThreadD0Ev,"axG",@progbits,_ZN14PeriodicThreadD5Ev,comdat
 503              		.align	2
 504              		.weak	_ZN14PeriodicThreadD0Ev
 506              	_ZN14PeriodicThreadD0Ev:
 507              	.LFB78:
  73:src/../h/syscall_cpp.hpp **** public:
 508              		.loc 1 73 7 is_stmt 1
 509              		.cfi_startproc
 510              	.LVL35:
 511 0000 130101FE 		addi	sp,sp,-32
 512              		.cfi_def_cfa_offset 32
 513 0004 233C1100 		sd	ra,24(sp)
 514 0008 23388100 		sd	s0,16(sp)
 515 000c 23349100 		sd	s1,8(sp)
 516              		.cfi_offset 1, -8
 517              		.cfi_offset 8, -16
 518              		.cfi_offset 9, -24
 519 0010 13040102 		addi	s0,sp,32
 520              		.cfi_def_cfa 8, 0
 521 0014 93040500 		mv	s1,a0
 522              	.LVL36:
 523              	.LBB73:
 524              	.LBB74:
  73:src/../h/syscall_cpp.hpp **** public:
 525              		.loc 1 73 7 is_stmt 0
 526 0018 97070000 		lla	a5,_ZTV14PeriodicThread+16
 526      93870700 
 527 0020 2330F500 		sd	a5,0(a0)
 528 0024 97000000 		call	_ZN6ThreadD2Ev
 528      E7800000 
 529              	.LVL37:
 530              	.LBE74:
 531              	.LBE73:
 532 002c 13850400 		mv	a0,s1
 533 0030 97000000 		call	_ZdlPv
 533      E7800000 
 534              	.LVL38:
 535 0038 83308101 		ld	ra,24(sp)
 536              		.cfi_restore 1
 537 003c 03340101 		ld	s0,16(sp)
 538              		.cfi_restore 8
 539              		.cfi_def_cfa 2, 32
 540 0040 83348100 		ld	s1,8(sp)
 541              		.cfi_restore 9
 542              	.LVL39:
 543 0044 13010102 		addi	sp,sp,32
 544              		.cfi_def_cfa_offset 0
 545 0048 67800000 		jr	ra
 546              		.cfi_endproc
 547              	.LFE78:
 549              		.text
 550              		.align	2
 551              		.globl	_ZN9SemaphoreD0Ev
 553              	_ZN9SemaphoreD0Ev:
 554              	.LFB66:
GAS LISTING /tmp/ccgOIs85.s 			page 16


 124:src/syscall_cpp.cpp **** 	sem_close(myHandle);
 555              		.loc 2 124 1 is_stmt 1
 556              		.cfi_startproc
 557              	.LVL40:
 558 01dc 130101FE 		addi	sp,sp,-32
 559              		.cfi_def_cfa_offset 32
 560 01e0 233C1100 		sd	ra,24(sp)
 561 01e4 23388100 		sd	s0,16(sp)
 562 01e8 23349100 		sd	s1,8(sp)
 563              		.cfi_offset 1, -8
 564              		.cfi_offset 8, -16
 565              		.cfi_offset 9, -24
 566 01ec 13040102 		addi	s0,sp,32
 567              		.cfi_def_cfa 8, 0
 568 01f0 93040500 		mv	s1,a0
 569              		.loc 2 127 1 is_stmt 0
 570 01f4 97000000 		call	_ZN9SemaphoreD1Ev
 570      E7800000 
 571              	.LVL41:
 572 01fc 13850400 		mv	a0,s1
 573 0200 97000000 		call	_ZdlPv
 573      E7800000 
 574              	.LVL42:
 575 0208 83308101 		ld	ra,24(sp)
 576              		.cfi_restore 1
 577 020c 03340101 		ld	s0,16(sp)
 578              		.cfi_restore 8
 579              		.cfi_def_cfa 2, 32
 580 0210 83348100 		ld	s1,8(sp)
 581              		.cfi_restore 9
 582              	.LVL43:
 583 0214 13010102 		addi	sp,sp,32
 584              		.cfi_def_cfa_offset 0
 585 0218 67800000 		jr	ra
 586              		.cfi_endproc
 587              	.LFE66:
 589              		.align	2
 590              		.globl	_ZdaPv
 592              	_ZdaPv:
 593              	.LFB38:
  27:src/syscall_cpp.cpp **** mem_free(ptr);
 594              		.loc 2 27 10 is_stmt 1
 595              		.cfi_startproc
 596              		.cfi_personality 0x9b,DW.ref.__gxx_personality_v0
 597              		.cfi_lsda 0x1b,.LLSDA38
 598              	.LVL44:
 599 021c 130101FF 		addi	sp,sp,-16
 600              		.cfi_def_cfa_offset 16
 601 0220 23341100 		sd	ra,8(sp)
 602 0224 23308100 		sd	s0,0(sp)
 603              		.cfi_offset 1, -8
 604              		.cfi_offset 8, -16
 605 0228 13040101 		addi	s0,sp,16
 606              		.cfi_def_cfa 8, 0
  28:src/syscall_cpp.cpp **** }
 607              		.loc 2 28 1
  28:src/syscall_cpp.cpp **** }
GAS LISTING /tmp/ccgOIs85.s 			page 17


 608              		.loc 2 28 9 is_stmt 0
 609 022c 97000000 		call	_Z8mem_freePv@plt
 609      E7800000 
 610              	.LVL45:
  29:src/syscall_cpp.cpp **** 
 611              		.loc 2 29 1
 612 0234 83308100 		ld	ra,8(sp)
 613              		.cfi_restore 1
 614 0238 03340100 		ld	s0,0(sp)
 615              		.cfi_restore 8
 616              		.cfi_def_cfa 2, 16
 617 023c 13010101 		addi	sp,sp,16
 618              		.cfi_def_cfa_offset 0
 619 0240 67800000 		jr	ra
 620              		.cfi_endproc
 621              	.LFE38:
 622              		.section	.gcc_except_table
 623              	.LLSDA38:
 624 000c FF       		.byte	0xff
 625 000d FF       		.byte	0xff
 626 000e 03       		.byte	0x3
 627 000f 00       		.byte	0
 628              		.text
 630              		.align	2
 631              		.globl	_ZN6ThreadC2EPFvPvES0_
 633              	_ZN6ThreadC2EPFvPvES0_:
 634              	.LFB40:
  32:src/syscall_cpp.cpp **** 	this->body = body;
 635              		.loc 2 32 1 is_stmt 1
 636              		.cfi_startproc
 637              	.LVL46:
 638 0244 130101FD 		addi	sp,sp,-48
 639              		.cfi_def_cfa_offset 48
 640 0248 23341102 		sd	ra,40(sp)
 641 024c 23308102 		sd	s0,32(sp)
 642 0250 233C9100 		sd	s1,24(sp)
 643 0254 23382101 		sd	s2,16(sp)
 644 0258 23343101 		sd	s3,8(sp)
 645              		.cfi_offset 1, -8
 646              		.cfi_offset 8, -16
 647              		.cfi_offset 9, -24
 648              		.cfi_offset 18, -32
 649              		.cfi_offset 19, -40
 650 025c 13040103 		addi	s0,sp,48
 651              		.cfi_def_cfa 8, 0
 652 0260 93040500 		mv	s1,a0
 653 0264 13890500 		mv	s2,a1
 654 0268 93090600 		mv	s3,a2
 655              	.LBB75:
  32:src/syscall_cpp.cpp **** 	this->body = body;
 656              		.loc 2 32 47 is_stmt 0
 657 026c 97070000 		lla	a5,_ZTV6Thread+16
 657      93870700 
 658 0274 2330F500 		sd	a5,0(a0)
 659              	.LBB76:
  33:src/syscall_cpp.cpp **** 	this->arg = arg;
 660              		.loc 2 33 2 is_stmt 1
GAS LISTING /tmp/ccgOIs85.s 			page 18


  33:src/syscall_cpp.cpp **** 	this->arg = arg;
 661              		.loc 2 33 13 is_stmt 0
 662 0278 2338B500 		sd	a1,16(a0)
  34:src/syscall_cpp.cpp **** 	//stvaranje steka ako se ne radi o main kernel niti, posto ona automatski ima stek
 663              		.loc 2 34 2 is_stmt 1
  34:src/syscall_cpp.cpp **** 	//stvaranje steka ako se ne radi o main kernel niti, posto ona automatski ima stek
 664              		.loc 2 34 12 is_stmt 0
 665 027c 233CC500 		sd	a2,24(a0)
  36:src/syscall_cpp.cpp **** 	if (body != nullptr) {
 666              		.loc 2 36 2 is_stmt 1
 667              	.LVL47:
  37:src/syscall_cpp.cpp **** 		stack = (uint64*)mem_alloc(DEFAULT_STACK_SIZE);
 668              		.loc 2 37 2
 669 0280 63860504 		beqz	a1,.L41
  38:src/syscall_cpp.cpp **** 	}
 670              		.loc 2 38 3
  38:src/syscall_cpp.cpp **** 	}
 671              		.loc 2 38 29 is_stmt 0
 672 0284 37150000 		li	a0,4096
 673              	.LVL48:
 674 0288 97000000 		call	_Z9mem_allocm@plt
 674      E7800000 
 675              	.LVL49:
 676 0290 13030500 		mv	t1,a0
 677              	.LVL50:
 678              	.L40:
  42:src/syscall_cpp.cpp **** 	__asm__ volatile("mv a3, %[arg]": :[arg] "r"(arg):"a5", "a0", "a1", "a2", "a3", "a4", "a6", "a7");
 679              		.loc 2 42 2 is_stmt 1
  42:src/syscall_cpp.cpp **** 	__asm__ volatile("mv a3, %[arg]": :[arg] "r"(arg):"a5", "a0", "a1", "a2", "a3", "a4", "a6", "a7");
 680              		.loc 2 42 99 is_stmt 0
 681              	#APP
 682              	# 42 "src/syscall_cpp.cpp" 1
  43:src/syscall_cpp.cpp **** 	__asm__ volatile("mv a2, %[function]": :[function] "r"(
 683              		mv a4, t1
 684              	# 0 "" 2
 685              		.loc 2 43 2 is_stmt 1
  43:src/syscall_cpp.cpp **** 	__asm__ volatile("mv a2, %[function]": :[function] "r"(
 686              		.loc 2 43 99 is_stmt 0
 687              	# 43 "src/syscall_cpp.cpp" 1
  44:src/syscall_cpp.cpp **** 			body):"a5", "a0", "a1", "a2", "a3", "a4", "a6", "a7");
 688              		mv a3, s3
 689              	# 0 "" 2
 690              		.loc 2 44 2 is_stmt 1
  45:src/syscall_cpp.cpp **** 	__asm__ volatile("mv a1, %[handle]": :[handle] "r"(&myHandle):"a5", "a0", "a1", "a2", "a3", "a4", 
 691              		.loc 2 45 57 is_stmt 0
 692              	# 45 "src/syscall_cpp.cpp" 1
  46:src/syscall_cpp.cpp **** 	__asm__ volatile("li a0, 0x80");
 693              		mv a2, s2
 694              	# 0 "" 2
 695              		.loc 2 46 2 is_stmt 1
  46:src/syscall_cpp.cpp **** 	__asm__ volatile("li a0, 0x80");
 696              		.loc 2 46 53 is_stmt 0
 697              	#NO_APP
 698 02a0 93848400 		addi	s1,s1,8
 699              	.LVL51:
  46:src/syscall_cpp.cpp **** 	__asm__ volatile("li a0, 0x80");
 700              		.loc 2 46 111
GAS LISTING /tmp/ccgOIs85.s 			page 19


 701              	#APP
 702              	# 46 "src/syscall_cpp.cpp" 1
  47:src/syscall_cpp.cpp **** 	//a0 = 0x80
 703              		mv a1, s1
 704              	# 0 "" 2
 705              		.loc 2 47 2 is_stmt 1
  47:src/syscall_cpp.cpp **** 	//a0 = 0x80
 706              		.loc 2 47 33 is_stmt 0
 707              	# 47 "src/syscall_cpp.cpp" 1
  54:src/syscall_cpp.cpp **** }
 708              		li a0, 0x80
 709              	# 0 "" 2
 710              		.loc 2 54 2 is_stmt 1
  54:src/syscall_cpp.cpp **** }
 711              		.loc 2 54 27 is_stmt 0
 712              	# 54 "src/syscall_cpp.cpp" 1
 713              		ecall
 714              	# 0 "" 2
 715              	#NO_APP
 716              	.LBE76:
 717              	.LBE75:
  55:src/syscall_cpp.cpp **** 
 718              		.loc 2 55 1
 719 02b0 83308102 		ld	ra,40(sp)
 720              		.cfi_remember_state
 721              		.cfi_restore 1
 722 02b4 03340102 		ld	s0,32(sp)
 723              		.cfi_restore 8
 724              		.cfi_def_cfa 2, 48
 725 02b8 83348101 		ld	s1,24(sp)
 726              		.cfi_restore 9
 727              	.LVL52:
 728 02bc 03390101 		ld	s2,16(sp)
 729              		.cfi_restore 18
 730              	.LVL53:
 731 02c0 83398100 		ld	s3,8(sp)
 732              		.cfi_restore 19
 733              	.LVL54:
 734 02c4 13010103 		addi	sp,sp,48
 735              		.cfi_def_cfa_offset 0
 736 02c8 67800000 		jr	ra
 737              	.LVL55:
 738              	.L41:
 739              		.cfi_restore_state
 740              	.LBB78:
 741              	.LBB77:
  36:src/syscall_cpp.cpp **** 	if (body != nullptr) {
 742              		.loc 2 36 10
 743 02cc 13030000 		li	t1,0
 744 02d0 6FF05FFC 		j	.L40
 745              	.LBE77:
 746              	.LBE78:
 747              		.cfi_endproc
 748              	.LFE40:
 750              		.globl	_ZN6ThreadC1EPFvPvES0_
 751              		.set	_ZN6ThreadC1EPFvPvES0_,_ZN6ThreadC2EPFvPvES0_
 752              		.align	2
GAS LISTING /tmp/ccgOIs85.s 			page 20


 753              		.globl	_ZN6Thread5startEv
 755              	_ZN6Thread5startEv:
 756              	.LFB49:
  66:src/syscall_cpp.cpp **** 	if (myHandle == nullptr) return -1;
 757              		.loc 2 66 21 is_stmt 1
 758              		.cfi_startproc
 759              	.LVL56:
 760 02d4 130101FF 		addi	sp,sp,-16
 761              		.cfi_def_cfa_offset 16
 762 02d8 23348100 		sd	s0,8(sp)
 763              		.cfi_offset 8, -8
 764 02dc 13040101 		addi	s0,sp,16
 765              		.cfi_def_cfa 8, 0
  67:src/syscall_cpp.cpp **** 	__asm__ volatile("mv a1, %[handle]": :[handle] "r"(myHandle):"a5", "a0", "a1", "a2", "a3", "a4", "
 766              		.loc 2 67 2
  67:src/syscall_cpp.cpp **** 	__asm__ volatile("mv a1, %[handle]": :[handle] "r"(myHandle):"a5", "a0", "a1", "a2", "a3", "a4", "
 767              		.loc 2 67 6 is_stmt 0
 768 02e0 03338500 		ld	t1,8(a0)
  67:src/syscall_cpp.cpp **** 	__asm__ volatile("mv a1, %[handle]": :[handle] "r"(myHandle):"a5", "a0", "a1", "a2", "a3", "a4", "
 769              		.loc 2 67 2
 770 02e4 63000302 		beqz	t1,.L45
  68:src/syscall_cpp.cpp **** 	__asm__ volatile("li a0, 0x81");
 771              		.loc 2 68 2 is_stmt 1
  68:src/syscall_cpp.cpp **** 	__asm__ volatile("li a0, 0x81");
 772              		.loc 2 68 110 is_stmt 0
 773              	#APP
 774              	# 68 "src/syscall_cpp.cpp" 1
 775              		mv a1, t1
 776              	# 0 "" 2
 777              	.LVL57:
  69:src/syscall_cpp.cpp **** 
 778              		.loc 2 69 2 is_stmt 1
  69:src/syscall_cpp.cpp **** 
 779              		.loc 2 69 33 is_stmt 0
 780              	# 69 "src/syscall_cpp.cpp" 1
  71:src/syscall_cpp.cpp **** 
 781              		li a0, 0x81
 782              	# 0 "" 2
 783              		.loc 2 71 2 is_stmt 1
  71:src/syscall_cpp.cpp **** 
 784              		.loc 2 71 27 is_stmt 0
 785              	# 71 "src/syscall_cpp.cpp" 1
  73:src/syscall_cpp.cpp **** }
 786              		ecall
 787              	# 0 "" 2
 788              		.loc 2 73 2 is_stmt 1
  73:src/syscall_cpp.cpp **** }
 789              		.loc 2 73 9 is_stmt 0
 790              	#NO_APP
 791 02f4 13050000 		li	a0,0
 792              	.L44:
  74:src/syscall_cpp.cpp **** 
 793              		.loc 2 74 1
 794 02f8 03348100 		ld	s0,8(sp)
 795              		.cfi_remember_state
 796              		.cfi_restore 8
 797              		.cfi_def_cfa 2, 16
GAS LISTING /tmp/ccgOIs85.s 			page 21


 798 02fc 13010101 		addi	sp,sp,16
 799              		.cfi_def_cfa_offset 0
 800 0300 67800000 		jr	ra
 801              	.LVL58:
 802              	.L45:
 803              		.cfi_restore_state
  67:src/syscall_cpp.cpp **** 	__asm__ volatile("mv a1, %[handle]": :[handle] "r"(myHandle):"a5", "a0", "a1", "a2", "a3", "a4", "
 804              		.loc 2 67 35
 805 0304 1305F0FF 		li	a0,-1
 806              	.LVL59:
 807 0308 6FF01FFF 		j	.L44
 808              		.cfi_endproc
 809              	.LFE49:
 811              		.align	2
 812              		.globl	_ZN6Thread4joinEv
 814              	_ZN6Thread4joinEv:
 815              	.LFB50:
  76:src/syscall_cpp.cpp **** 	thread_join(myHandle);
 816              		.loc 2 76 21 is_stmt 1
 817              		.cfi_startproc
 818              	.LVL60:
 819 030c 130101FF 		addi	sp,sp,-16
 820              		.cfi_def_cfa_offset 16
 821 0310 23341100 		sd	ra,8(sp)
 822 0314 23308100 		sd	s0,0(sp)
 823              		.cfi_offset 1, -8
 824              		.cfi_offset 8, -16
 825 0318 13040101 		addi	s0,sp,16
 826              		.cfi_def_cfa 8, 0
  77:src/syscall_cpp.cpp **** }
 827              		.loc 2 77 2
  77:src/syscall_cpp.cpp **** }
 828              		.loc 2 77 13 is_stmt 0
 829 031c 03358500 		ld	a0,8(a0)
 830              	.LVL61:
 831 0320 97000000 		call	_Z11thread_joinP3TCB@plt
 831      E7800000 
 832              	.LVL62:
  78:src/syscall_cpp.cpp **** 
 833              		.loc 2 78 1
 834 0328 83308100 		ld	ra,8(sp)
 835              		.cfi_restore 1
 836 032c 03340100 		ld	s0,0(sp)
 837              		.cfi_restore 8
 838              		.cfi_def_cfa 2, 16
 839 0330 13010101 		addi	sp,sp,16
 840              		.cfi_def_cfa_offset 0
 841 0334 67800000 		jr	ra
 842              		.cfi_endproc
 843              	.LFE50:
 845              		.align	2
 846              		.globl	_ZN6Thread8dispatchEv
 848              	_ZN6Thread8dispatchEv:
 849              	.LFB51:
  80:src/syscall_cpp.cpp **** 	thread_dispatch();
 850              		.loc 2 80 25 is_stmt 1
 851              		.cfi_startproc
GAS LISTING /tmp/ccgOIs85.s 			page 22


 852 0338 130101FF 		addi	sp,sp,-16
 853              		.cfi_def_cfa_offset 16
 854 033c 23341100 		sd	ra,8(sp)
 855 0340 23308100 		sd	s0,0(sp)
 856              		.cfi_offset 1, -8
 857              		.cfi_offset 8, -16
 858 0344 13040101 		addi	s0,sp,16
 859              		.cfi_def_cfa 8, 0
  81:src/syscall_cpp.cpp **** }
 860              		.loc 2 81 2
  81:src/syscall_cpp.cpp **** }
 861              		.loc 2 81 17 is_stmt 0
 862 0348 97000000 		call	_Z15thread_dispatchv@plt
 862      E7800000 
 863              	.LVL63:
  82:src/syscall_cpp.cpp **** 
 864              		.loc 2 82 1
 865 0350 83308100 		ld	ra,8(sp)
 866              		.cfi_restore 1
 867 0354 03340100 		ld	s0,0(sp)
 868              		.cfi_restore 8
 869              		.cfi_def_cfa 2, 16
 870 0358 13010101 		addi	sp,sp,16
 871              		.cfi_def_cfa_offset 0
 872 035c 67800000 		jr	ra
 873              		.cfi_endproc
 874              	.LFE51:
 876              		.align	2
 877              		.globl	_ZN6Thread5sleepEm
 879              	_ZN6Thread5sleepEm:
 880              	.LFB52:
  84:src/syscall_cpp.cpp **** 	Scheduler::putToSleep(TCB::running, t);
 881              		.loc 2 84 29 is_stmt 1
 882              		.cfi_startproc
 883              	.LVL64:
 884 0360 130101FF 		addi	sp,sp,-16
 885              		.cfi_def_cfa_offset 16
 886 0364 23341100 		sd	ra,8(sp)
 887 0368 23308100 		sd	s0,0(sp)
 888              		.cfi_offset 1, -8
 889              		.cfi_offset 8, -16
 890 036c 13040101 		addi	s0,sp,16
 891              		.cfi_def_cfa 8, 0
 892 0370 93050500 		mv	a1,a0
  85:src/syscall_cpp.cpp **** 	return 0;
 893              		.loc 2 85 2
  85:src/syscall_cpp.cpp **** 	return 0;
 894              		.loc 2 85 23 is_stmt 0
 895 0374 97070000 		la	a5,_ZN3TCB7runningE
 895      83B70700 
 896 037c 03B50700 		ld	a0,0(a5)
 897              	.LVL65:
 898 0380 97000000 		call	_ZN9Scheduler10putToSleepEP3TCBm@plt
 898      E7800000 
 899              	.LVL66:
  86:src/syscall_cpp.cpp **** }
 900              		.loc 2 86 2 is_stmt 1
GAS LISTING /tmp/ccgOIs85.s 			page 23


  87:src/syscall_cpp.cpp **** 
 901              		.loc 2 87 1 is_stmt 0
 902 0388 13050000 		li	a0,0
 903 038c 83308100 		ld	ra,8(sp)
 904              		.cfi_restore 1
 905 0390 03340100 		ld	s0,0(sp)
 906              		.cfi_restore 8
 907              		.cfi_def_cfa 2, 16
 908 0394 13010101 		addi	sp,sp,16
 909              		.cfi_def_cfa_offset 0
 910 0398 67800000 		jr	ra
 911              		.cfi_endproc
 912              	.LFE52:
 914              		.align	2
 915              		.globl	_ZN6ThreadC2Ev
 917              	_ZN6ThreadC2Ev:
 918              	.LFB54:
  89:src/syscall_cpp.cpp **** 	this->body = wrapper;
 919              		.loc 2 89 1 is_stmt 1
 920              		.cfi_startproc
 921              	.LVL67:
 922 039c 130101FE 		addi	sp,sp,-32
 923              		.cfi_def_cfa_offset 32
 924 03a0 233C1100 		sd	ra,24(sp)
 925 03a4 23388100 		sd	s0,16(sp)
 926 03a8 23349100 		sd	s1,8(sp)
 927              		.cfi_offset 1, -8
 928              		.cfi_offset 8, -16
 929              		.cfi_offset 9, -24
 930 03ac 13040102 		addi	s0,sp,32
 931              		.cfi_def_cfa 8, 0
 932 03b0 93040500 		mv	s1,a0
 933              	.LBB79:
  89:src/syscall_cpp.cpp **** 	this->body = wrapper;
 934              		.loc 2 89 16 is_stmt 0
 935 03b4 97070000 		lla	a5,_ZTV6Thread+16
 935      93870700 
 936 03bc 2330F500 		sd	a5,0(a0)
 937              	.LBB80:
  90:src/syscall_cpp.cpp **** 	this->arg = this;
 938              		.loc 2 90 2 is_stmt 1
  90:src/syscall_cpp.cpp **** 	this->arg = this;
 939              		.loc 2 90 13 is_stmt 0
 940 03c0 97070000 		lla	a5,_ZN6Thread7wrapperEPv
 940      93870700 
 941 03c8 2338F500 		sd	a5,16(a0)
  91:src/syscall_cpp.cpp **** 	//stvaranje steka ako se ne radi o main kernel niti, posto ona automatski ima stek
 942              		.loc 2 91 2 is_stmt 1
  91:src/syscall_cpp.cpp **** 	//stvaranje steka ako se ne radi o main kernel niti, posto ona automatski ima stek
 943              		.loc 2 91 12 is_stmt 0
 944 03cc 233CA500 		sd	a0,24(a0)
  93:src/syscall_cpp.cpp **** 	if (body != nullptr) {
 945              		.loc 2 93 2 is_stmt 1
 946              	.LVL68:
  94:src/syscall_cpp.cpp **** 		stack = (uint64*)mem_alloc(DEFAULT_STACK_SIZE);
 947              		.loc 2 94 2
  95:src/syscall_cpp.cpp **** 	}
GAS LISTING /tmp/ccgOIs85.s 			page 24


 948              		.loc 2 95 3
  95:src/syscall_cpp.cpp **** 	}
 949              		.loc 2 95 29 is_stmt 0
 950 03d0 37150000 		li	a0,4096
 951              	.LVL69:
 952 03d4 97000000 		call	_Z9mem_allocm@plt
 952      E7800000 
 953              	.LVL70:
 954 03dc 13030500 		mv	t1,a0
 955              	.LVL71:
  99:src/syscall_cpp.cpp **** 	__asm__ volatile("mv a3, %[arg]": :[arg] "r"(arg):"a5", "a0", "a1", "a2", "a3", "a4", "a6", "a7");
 956              		.loc 2 99 2 is_stmt 1
  99:src/syscall_cpp.cpp **** 	__asm__ volatile("mv a3, %[arg]": :[arg] "r"(arg):"a5", "a0", "a1", "a2", "a3", "a4", "a6", "a7");
 957              		.loc 2 99 99 is_stmt 0
 958              	#APP
 959              	# 99 "src/syscall_cpp.cpp" 1
 100:src/syscall_cpp.cpp **** 	__asm__ volatile("mv a2, %[function]": :[function] "r"(
 960              		mv a4, t1
 961              	# 0 "" 2
 962              		.loc 2 100 2 is_stmt 1
 100:src/syscall_cpp.cpp **** 	__asm__ volatile("mv a2, %[function]": :[function] "r"(
 963              		.loc 2 100 47 is_stmt 0
 964              	#NO_APP
 965 03e4 03B38401 		ld	t1,24(s1)
 966              	.LVL72:
 100:src/syscall_cpp.cpp **** 	__asm__ volatile("mv a2, %[function]": :[function] "r"(
 967              		.loc 2 100 99
 968              	#APP
 969              	# 100 "src/syscall_cpp.cpp" 1
 101:src/syscall_cpp.cpp **** 			body):"a5", "a0", "a1", "a2", "a3", "a4", "a6", "a7");
 970              		mv a3, t1
 971              	# 0 "" 2
 972              		.loc 2 101 2 is_stmt 1
 102:src/syscall_cpp.cpp **** 	__asm__ volatile("mv a1, %[handle]": :[handle] "r"(&myHandle):"a5", "a0", "a1", "a2", "a3", "a4", 
 973              		.loc 2 102 4 is_stmt 0
 974              	#NO_APP
 975 03ec 03B30401 		ld	t1,16(s1)
 102:src/syscall_cpp.cpp **** 	__asm__ volatile("mv a1, %[handle]": :[handle] "r"(&myHandle):"a5", "a0", "a1", "a2", "a3", "a4", 
 976              		.loc 2 102 57
 977              	#APP
 978              	# 102 "src/syscall_cpp.cpp" 1
 103:src/syscall_cpp.cpp **** 	__asm__ volatile("li a0, 0x80");
 979              		mv a2, t1
 980              	# 0 "" 2
 981              		.loc 2 103 2 is_stmt 1
 103:src/syscall_cpp.cpp **** 	__asm__ volatile("li a0, 0x80");
 982              		.loc 2 103 53 is_stmt 0
 983              	#NO_APP
 984 03f4 93848400 		addi	s1,s1,8
 985              	.LVL73:
 103:src/syscall_cpp.cpp **** 	__asm__ volatile("li a0, 0x80");
 986              		.loc 2 103 111
 987              	#APP
 988              	# 103 "src/syscall_cpp.cpp" 1
 104:src/syscall_cpp.cpp **** 	//a0 = 0x80
 989              		mv a1, s1
 990              	# 0 "" 2
GAS LISTING /tmp/ccgOIs85.s 			page 25


 991              		.loc 2 104 2 is_stmt 1
 104:src/syscall_cpp.cpp **** 	//a0 = 0x80
 992              		.loc 2 104 33 is_stmt 0
 993              	# 104 "src/syscall_cpp.cpp" 1
 111:src/syscall_cpp.cpp **** }
 994              		li a0, 0x80
 995              	# 0 "" 2
 996              		.loc 2 111 2 is_stmt 1
 111:src/syscall_cpp.cpp **** }
 997              		.loc 2 111 27 is_stmt 0
 998              	# 111 "src/syscall_cpp.cpp" 1
 999              		ecall
 1000              	# 0 "" 2
 1001              	#NO_APP
 1002              	.LBE80:
 1003              	.LBE79:
 112:src/syscall_cpp.cpp **** 
 1004              		.loc 2 112 1
 1005 0404 83308101 		ld	ra,24(sp)
 1006              		.cfi_restore 1
 1007 0408 03340101 		ld	s0,16(sp)
 1008              		.cfi_restore 8
 1009              		.cfi_def_cfa 2, 32
 1010 040c 83348100 		ld	s1,8(sp)
 1011              		.cfi_restore 9
 1012              	.LVL74:
 1013 0410 13010102 		addi	sp,sp,32
 1014              		.cfi_def_cfa_offset 0
 1015 0414 67800000 		jr	ra
 1016              		.cfi_endproc
 1017              	.LFE54:
 1019              		.globl	_ZN6ThreadC1Ev
 1020              		.set	_ZN6ThreadC1Ev,_ZN6ThreadC2Ev
 1021              		.align	2
 1022              		.globl	_ZN9SemaphoreC2Ej
 1024              	_ZN9SemaphoreC2Ej:
 1025              	.LFB58:
 120:src/syscall_cpp.cpp **** 	sem_open(&myHandle, init);
 1026              		.loc 2 120 1 is_stmt 1
 1027              		.cfi_startproc
 1028              	.LVL75:
 1029 0418 130101FF 		addi	sp,sp,-16
 1030              		.cfi_def_cfa_offset 16
 1031 041c 23341100 		sd	ra,8(sp)
 1032 0420 23308100 		sd	s0,0(sp)
 1033              		.cfi_offset 1, -8
 1034              		.cfi_offset 8, -16
 1035 0424 13040101 		addi	s0,sp,16
 1036              		.cfi_def_cfa 8, 0
 1037              	.LBB81:
 120:src/syscall_cpp.cpp **** 	sem_open(&myHandle, init);
 1038              		.loc 2 120 39 is_stmt 0
 1039 0428 97070000 		lla	a5,_ZTV9Semaphore+16
 1039      93870700 
 1040 0430 2330F500 		sd	a5,0(a0)
 121:src/syscall_cpp.cpp **** }
 1041              		.loc 2 121 2 is_stmt 1
GAS LISTING /tmp/ccgOIs85.s 			page 26


 121:src/syscall_cpp.cpp **** }
 1042              		.loc 2 121 10 is_stmt 0
 1043 0434 13058500 		addi	a0,a0,8
 1044              	.LVL76:
 1045 0438 97000000 		call	_Z8sem_openPP4KSemj@plt
 1045      E7800000 
 1046              	.LVL77:
 1047              	.LBE81:
 122:src/syscall_cpp.cpp **** 
 1048              		.loc 2 122 1
 1049 0440 83308100 		ld	ra,8(sp)
 1050              		.cfi_restore 1
 1051 0444 03340100 		ld	s0,0(sp)
 1052              		.cfi_restore 8
 1053              		.cfi_def_cfa 2, 16
 1054 0448 13010101 		addi	sp,sp,16
 1055              		.cfi_def_cfa_offset 0
 1056 044c 67800000 		jr	ra
 1057              		.cfi_endproc
 1058              	.LFE58:
 1060              		.globl	_ZN9SemaphoreC1Ej
 1061              		.set	_ZN9SemaphoreC1Ej,_ZN9SemaphoreC2Ej
 1062              		.align	2
 1063              		.globl	_ZN9Semaphore4waitEv
 1065              	_ZN9Semaphore4waitEv:
 1066              	.LFB67:
 128:src/syscall_cpp.cpp **** 
 129:src/syscall_cpp.cpp **** int Semaphore::wait() {
 1067              		.loc 2 129 23 is_stmt 1
 1068              		.cfi_startproc
 1069              	.LVL78:
 1070 0450 130101FF 		addi	sp,sp,-16
 1071              		.cfi_def_cfa_offset 16
 1072 0454 23341100 		sd	ra,8(sp)
 1073 0458 23308100 		sd	s0,0(sp)
 1074              		.cfi_offset 1, -8
 1075              		.cfi_offset 8, -16
 1076 045c 13040101 		addi	s0,sp,16
 1077              		.cfi_def_cfa 8, 0
 130:src/syscall_cpp.cpp **** 	return sem_wait(myHandle);
 1078              		.loc 2 130 2
 1079              		.loc 2 130 17 is_stmt 0
 1080 0460 03358500 		ld	a0,8(a0)
 1081              	.LVL79:
 1082 0464 97000000 		call	_Z8sem_waitP4KSem@plt
 1082      E7800000 
 1083              	.LVL80:
 131:src/syscall_cpp.cpp **** }
 1084              		.loc 2 131 1
 1085 046c 83308100 		ld	ra,8(sp)
 1086              		.cfi_restore 1
 1087 0470 03340100 		ld	s0,0(sp)
 1088              		.cfi_restore 8
 1089              		.cfi_def_cfa 2, 16
 1090 0474 13010101 		addi	sp,sp,16
 1091              		.cfi_def_cfa_offset 0
 1092 0478 67800000 		jr	ra
GAS LISTING /tmp/ccgOIs85.s 			page 27


 1093              		.cfi_endproc
 1094              	.LFE67:
 1096              		.align	2
 1097              		.globl	_ZN9Semaphore6signalEv
 1099              	_ZN9Semaphore6signalEv:
 1100              	.LFB68:
 132:src/syscall_cpp.cpp **** 
 133:src/syscall_cpp.cpp **** int Semaphore::signal() {
 1101              		.loc 2 133 25 is_stmt 1
 1102              		.cfi_startproc
 1103              	.LVL81:
 1104 047c 130101FF 		addi	sp,sp,-16
 1105              		.cfi_def_cfa_offset 16
 1106 0480 23341100 		sd	ra,8(sp)
 1107 0484 23308100 		sd	s0,0(sp)
 1108              		.cfi_offset 1, -8
 1109              		.cfi_offset 8, -16
 1110 0488 13040101 		addi	s0,sp,16
 1111              		.cfi_def_cfa 8, 0
 134:src/syscall_cpp.cpp **** 	return sem_signal(myHandle);
 1112              		.loc 2 134 2
 1113              		.loc 2 134 19 is_stmt 0
 1114 048c 03358500 		ld	a0,8(a0)
 1115              	.LVL82:
 1116 0490 97000000 		call	_Z10sem_signalP4KSem@plt
 1116      E7800000 
 1117              	.LVL83:
 135:src/syscall_cpp.cpp **** }
 1118              		.loc 2 135 1
 1119 0498 83308100 		ld	ra,8(sp)
 1120              		.cfi_restore 1
 1121 049c 03340100 		ld	s0,0(sp)
 1122              		.cfi_restore 8
 1123              		.cfi_def_cfa 2, 16
 1124 04a0 13010101 		addi	sp,sp,16
 1125              		.cfi_def_cfa_offset 0
 1126 04a4 67800000 		jr	ra
 1127              		.cfi_endproc
 1128              	.LFE68:
 1130              		.align	2
 1131              		.globl	_ZN14PeriodicThread9terminateEv
 1133              	_ZN14PeriodicThread9terminateEv:
 1134              	.LFB69:
 136:src/syscall_cpp.cpp **** 
 137:src/syscall_cpp.cpp **** void PeriodicThread::terminate() {
 1135              		.loc 2 137 34 is_stmt 1
 1136              		.cfi_startproc
 1137              	.LVL84:
 1138 04a8 130101FF 		addi	sp,sp,-16
 1139              		.cfi_def_cfa_offset 16
 1140 04ac 23348100 		sd	s0,8(sp)
 1141              		.cfi_offset 8, -8
 1142 04b0 13040101 		addi	s0,sp,16
 1143              		.cfi_def_cfa 8, 0
 138:src/syscall_cpp.cpp **** 
 139:src/syscall_cpp.cpp **** }
 1144              		.loc 2 139 1 is_stmt 0
GAS LISTING /tmp/ccgOIs85.s 			page 28


 1145 04b4 03348100 		ld	s0,8(sp)
 1146              		.cfi_restore 8
 1147              		.cfi_def_cfa 2, 16
 1148 04b8 13010101 		addi	sp,sp,16
 1149              		.cfi_def_cfa_offset 0
 1150 04bc 67800000 		jr	ra
 1151              		.cfi_endproc
 1152              	.LFE69:
 1154              		.align	2
 1155              		.globl	_ZN14PeriodicThreadC2Em
 1157              	_ZN14PeriodicThreadC2Em:
 1158              	.LFB71:
 140:src/syscall_cpp.cpp **** 
 141:src/syscall_cpp.cpp **** PeriodicThread::PeriodicThread(time_t period) {
 1159              		.loc 2 141 1 is_stmt 1
 1160              		.cfi_startproc
 1161              	.LVL85:
 1162 04c0 130101FE 		addi	sp,sp,-32
 1163              		.cfi_def_cfa_offset 32
 1164 04c4 233C1100 		sd	ra,24(sp)
 1165 04c8 23388100 		sd	s0,16(sp)
 1166 04cc 23349100 		sd	s1,8(sp)
 1167              		.cfi_offset 1, -8
 1168              		.cfi_offset 8, -16
 1169              		.cfi_offset 9, -24
 1170 04d0 13040102 		addi	s0,sp,32
 1171              		.cfi_def_cfa 8, 0
 1172 04d4 93040500 		mv	s1,a0
 1173              	.LBB82:
 1174              		.loc 2 141 45 is_stmt 0
 1175 04d8 97000000 		call	_ZN6ThreadC2Ev
 1175      E7800000 
 1176              	.LVL86:
 1177 04e0 97070000 		lla	a5,_ZTV14PeriodicThread+16
 1177      93870700 
 1178 04e8 23B0F400 		sd	a5,0(s1)
 1179              	.LBE82:
 142:src/syscall_cpp.cpp **** 
 143:src/syscall_cpp.cpp **** }
 1180              		.loc 2 143 1
 1181 04ec 83308101 		ld	ra,24(sp)
 1182              		.cfi_restore 1
 1183 04f0 03340101 		ld	s0,16(sp)
 1184              		.cfi_restore 8
 1185              		.cfi_def_cfa 2, 32
 1186 04f4 83348100 		ld	s1,8(sp)
 1187              		.cfi_restore 9
 1188              	.LVL87:
 1189 04f8 13010102 		addi	sp,sp,32
 1190              		.cfi_def_cfa_offset 0
 1191 04fc 67800000 		jr	ra
 1192              		.cfi_endproc
 1193              	.LFE71:
 1195              		.globl	_ZN14PeriodicThreadC1Em
 1196              		.set	_ZN14PeriodicThreadC1Em,_ZN14PeriodicThreadC2Em
 1197              		.align	2
 1198              		.globl	_ZN7Console4getcEv
GAS LISTING /tmp/ccgOIs85.s 			page 29


 1200              	_ZN7Console4getcEv:
 1201              	.LFB73:
 144:src/syscall_cpp.cpp **** 
 145:src/syscall_cpp.cpp **** char Console::getc() {
 1202              		.loc 2 145 22 is_stmt 1
 1203              		.cfi_startproc
 1204 0500 130101FF 		addi	sp,sp,-16
 1205              		.cfi_def_cfa_offset 16
 1206 0504 23341100 		sd	ra,8(sp)
 1207 0508 23308100 		sd	s0,0(sp)
 1208              		.cfi_offset 1, -8
 1209              		.cfi_offset 8, -16
 1210 050c 13040101 		addi	s0,sp,16
 1211              		.cfi_def_cfa 8, 0
 146:src/syscall_cpp.cpp **** 	return ::getc();
 1212              		.loc 2 146 2
 1213              		.loc 2 146 15 is_stmt 0
 1214 0510 97000000 		call	_Z4getcv@plt
 1214      E7800000 
 1215              	.LVL88:
 147:src/syscall_cpp.cpp **** }
 1216              		.loc 2 147 1
 1217 0518 83308100 		ld	ra,8(sp)
 1218              		.cfi_restore 1
 1219 051c 03340100 		ld	s0,0(sp)
 1220              		.cfi_restore 8
 1221              		.cfi_def_cfa 2, 16
 1222 0520 13010101 		addi	sp,sp,16
 1223              		.cfi_def_cfa_offset 0
 1224 0524 67800000 		jr	ra
 1225              		.cfi_endproc
 1226              	.LFE73:
 1228              		.align	2
 1229              		.globl	_ZN7Console4putcEc
 1231              	_ZN7Console4putcEc:
 1232              	.LFB74:
 148:src/syscall_cpp.cpp **** 
 149:src/syscall_cpp.cpp **** void Console::putc(char c) {
 1233              		.loc 2 149 28 is_stmt 1
 1234              		.cfi_startproc
 1235              	.LVL89:
 1236 0528 130101FF 		addi	sp,sp,-16
 1237              		.cfi_def_cfa_offset 16
 1238 052c 23341100 		sd	ra,8(sp)
 1239 0530 23308100 		sd	s0,0(sp)
 1240              		.cfi_offset 1, -8
 1241              		.cfi_offset 8, -16
 1242 0534 13040101 		addi	s0,sp,16
 1243              		.cfi_def_cfa 8, 0
 150:src/syscall_cpp.cpp **** 	::putc(c);
 1244              		.loc 2 150 2
 1245              		.loc 2 150 8 is_stmt 0
 1246 0538 97000000 		call	_Z4putcc@plt
 1246      E7800000 
 1247              	.LVL90:
 151:src/syscall_cpp.cpp **** }
 1248              		.loc 2 151 1
GAS LISTING /tmp/ccgOIs85.s 			page 30


 1249 0540 83308100 		ld	ra,8(sp)
 1250              		.cfi_restore 1
 1251 0544 03340100 		ld	s0,0(sp)
 1252              		.cfi_restore 8
 1253              		.cfi_def_cfa 2, 16
 1254 0548 13010101 		addi	sp,sp,16
 1255              		.cfi_def_cfa_offset 0
 1256 054c 67800000 		jr	ra
 1257              		.cfi_endproc
 1258              	.LFE74:
 1260              		.weak	_ZTV14PeriodicThread
 1261              		.section	.data.rel.ro.local._ZTV14PeriodicThread,"awG",@progbits,_ZTV14PeriodicThread,comdat
 1262              		.align	3
 1265              	_ZTV14PeriodicThread:
 1266 0000 00000000 		.dword	0
 1266      00000000 
 1267 0008 00000000 		.dword	0
 1267      00000000 
 1268 0010 00000000 		.dword	_ZN14PeriodicThreadD1Ev
 1268      00000000 
 1269 0018 00000000 		.dword	_ZN14PeriodicThreadD0Ev
 1269      00000000 
 1270 0020 00000000 		.dword	_ZN6Thread3runEv
 1270      00000000 
 1271 0028 00000000 		.dword	_ZN14PeriodicThread18periodicActivationEv
 1271      00000000 
 1272              		.weak	_ZTV6Thread
 1273              		.section	.data.rel.ro.local._ZTV6Thread,"awG",@progbits,_ZTV6Thread,comdat
 1274              		.align	3
 1277              	_ZTV6Thread:
 1278 0000 00000000 		.dword	0
 1278      00000000 
 1279 0008 00000000 		.dword	0
 1279      00000000 
 1280 0010 00000000 		.dword	_ZN6ThreadD1Ev
 1280      00000000 
 1281 0018 00000000 		.dword	_ZN6ThreadD0Ev
 1281      00000000 
 1282 0020 00000000 		.dword	_ZN6Thread3runEv
 1282      00000000 
 1283              		.weak	_ZTV9Semaphore
 1284              		.section	.data.rel.ro.local._ZTV9Semaphore,"awG",@progbits,_ZTV9Semaphore,comdat
 1285              		.align	3
 1288              	_ZTV9Semaphore:
 1289 0000 00000000 		.dword	0
 1289      00000000 
 1290 0008 00000000 		.dword	0
 1290      00000000 
 1291 0010 00000000 		.dword	_ZN9SemaphoreD1Ev
 1291      00000000 
 1292 0018 00000000 		.dword	_ZN9SemaphoreD0Ev
 1292      00000000 
 1293              		.text
 1294              	.Letext0:
 1295              		.file 4 "src/../h/../lib/hw.h"
 1296              		.file 5 "src/../h/TCB.hpp"
 1297              		.file 6 "src/../h/KSem.hpp"
GAS LISTING /tmp/ccgOIs85.s 			page 31


 1298              		.file 7 "src/../h/Scheduler.hpp"
 1299              		.file 8 "src/../h/syscall_c.hpp"
 6229              		.align	3
 6232              	DW.ref.__gxx_personality_v0:
 6233 0000 00000000 		.dword	__gxx_personality_v0
 6233      00000000 
 6234              		.ident	"GCC: (Ubuntu 9.4.0-1ubuntu1~20.04) 9.4.0"
 6235              		.section	.note.GNU-stack,"",@progbits
GAS LISTING /tmp/ccgOIs85.s 			page 32


DEFINED SYMBOLS
                            *ABS*:0000000000000000 syscall_cpp.cpp
     /tmp/ccgOIs85.s:10     .text._ZN6Thread3runEv:0000000000000000 _ZN6Thread3runEv
     /tmp/ccgOIs85.s:14     .text._ZN6Thread3runEv:0000000000000000 .L0 
     /tmp/ccgOIs85.s:16     .text._ZN6Thread3runEv:0000000000000000 .L0 
     /tmp/ccgOIs85.s:17     .text._ZN6Thread3runEv:0000000000000004 .L0 
     /tmp/ccgOIs85.s:19     .text._ZN6Thread3runEv:0000000000000008 .L0 
     /tmp/ccgOIs85.s:21     .text._ZN6Thread3runEv:000000000000000c .L0 
     /tmp/ccgOIs85.s:23     .text._ZN6Thread3runEv:000000000000000c .L0 
     /tmp/ccgOIs85.s:24     .text._ZN6Thread3runEv:0000000000000010 .L0 
     /tmp/ccgOIs85.s:25     .text._ZN6Thread3runEv:0000000000000010 .L0 
     /tmp/ccgOIs85.s:27     .text._ZN6Thread3runEv:0000000000000014 .L0 
     /tmp/ccgOIs85.s:29     .text._ZN6Thread3runEv:0000000000000018 .L0 
     /tmp/ccgOIs85.s:36     .text._ZN14PeriodicThread18periodicActivationEv:0000000000000000 _ZN14PeriodicThread18periodicActivationEv
     /tmp/ccgOIs85.s:39     .text._ZN14PeriodicThread18periodicActivationEv:0000000000000000 .L0 
     /tmp/ccgOIs85.s:41     .text._ZN14PeriodicThread18periodicActivationEv:0000000000000000 .L0 
     /tmp/ccgOIs85.s:42     .text._ZN14PeriodicThread18periodicActivationEv:0000000000000004 .L0 
     /tmp/ccgOIs85.s:44     .text._ZN14PeriodicThread18periodicActivationEv:0000000000000008 .L0 
     /tmp/ccgOIs85.s:46     .text._ZN14PeriodicThread18periodicActivationEv:000000000000000c .L0 
     /tmp/ccgOIs85.s:48     .text._ZN14PeriodicThread18periodicActivationEv:000000000000000c .L0 
     /tmp/ccgOIs85.s:49     .text._ZN14PeriodicThread18periodicActivationEv:0000000000000010 .L0 
     /tmp/ccgOIs85.s:50     .text._ZN14PeriodicThread18periodicActivationEv:0000000000000010 .L0 
     /tmp/ccgOIs85.s:52     .text._ZN14PeriodicThread18periodicActivationEv:0000000000000014 .L0 
     /tmp/ccgOIs85.s:54     .text._ZN14PeriodicThread18periodicActivationEv:0000000000000018 .L0 
     /tmp/ccgOIs85.s:61     .text:0000000000000000 _ZN6Thread7wrapperEPv
     /tmp/ccgOIs85.s:65     .text:0000000000000000 .L0 
     /tmp/ccgOIs85.s:67     .text:0000000000000000 .L0 
     /tmp/ccgOIs85.s:68     .text:0000000000000000 .L0 
     /tmp/ccgOIs85.s:70     .text:0000000000000004 .L0 
     /tmp/ccgOIs85.s:71     .text:0000000000000008 .L0 
     /tmp/ccgOIs85.s:74     .text:0000000000000010 .L0 
     /tmp/ccgOIs85.s:75     .text:0000000000000010 .L0 
     /tmp/ccgOIs85.s:77     .text:0000000000000014 .L0 
     /tmp/ccgOIs85.s:79     .text:0000000000000014 .L0 
     /tmp/ccgOIs85.s:80     .text:0000000000000014 .L0 
     /tmp/ccgOIs85.s:83     .text:000000000000001c .L0 
     /tmp/ccgOIs85.s:86     .text:0000000000000020 .L0 
     /tmp/ccgOIs85.s:87     .text:0000000000000024 .L0 
     /tmp/ccgOIs85.s:89     .text:0000000000000028 .L0 
     /tmp/ccgOIs85.s:90     .text:0000000000000028 .L0 
     /tmp/ccgOIs85.s:92     .text:000000000000002c .L0 
     /tmp/ccgOIs85.s:97     .text:0000000000000034 .L0 
     /tmp/ccgOIs85.s:103    .text:0000000000000034 _ZN6ThreadD2Ev
     /tmp/ccgOIs85.s:106    .text:0000000000000034 .L0 
     /tmp/ccgOIs85.s:6232   .data.rel.local.DW.ref.__gxx_personality_v0:0000000000000000 DW.ref.__gxx_personality_v0
     /tmp/ccgOIs85.s:110    .text:0000000000000034 .L0 
     /tmp/ccgOIs85.s:111    .text:0000000000000038 .L0 
     /tmp/ccgOIs85.s:115    .text:0000000000000044 .L0 
     /tmp/ccgOIs85.s:116    .text:0000000000000044 .L0 
     /tmp/ccgOIs85.s:117    .text:0000000000000044 .L0 
     /tmp/ccgOIs85.s:119    .text:0000000000000048 .L0 
     /tmp/ccgOIs85.s:1277   .data.rel.ro.local._ZTV6Thread:0000000000000000 _ZTV6Thread
     /tmp/ccgOIs85.s:123    .text:000000000000004c .L0 
     /tmp/ccgOIs85.s:126    .text:0000000000000058 .L0 
     /tmp/ccgOIs85.s:127    .text:0000000000000058 .L0 
     /tmp/ccgOIs85.s:132    .text:0000000000000064 .L0 
     /tmp/ccgOIs85.s:133    .text:0000000000000064 .L0 
GAS LISTING /tmp/ccgOIs85.s 			page 33


     /tmp/ccgOIs85.s:136    .text:0000000000000068 .L0 
     /tmp/ccgOIs85.s:143    .text:000000000000006c .L0 
     /tmp/ccgOIs85.s:147    .text:000000000000006c .L0 
     /tmp/ccgOIs85.s:148    .text:000000000000006c .L0 
     /tmp/ccgOIs85.s:149    .text:000000000000006c .L0 
     /tmp/ccgOIs85.s:153    .text:0000000000000070 .L0 
     /tmp/ccgOIs85.s:157    .text:0000000000000074 .L0 
     /tmp/ccgOIs85.s:158    .text:0000000000000074 .L0 
     /tmp/ccgOIs85.s:159    .text:0000000000000074 .L0 
     /tmp/ccgOIs85.s:161    .text:0000000000000078 .L0 
     /tmp/ccgOIs85.s:163    .text:000000000000007c .L0 
     /tmp/ccgOIs85.s:164    .text:000000000000007c .L0 
     /tmp/ccgOIs85.s:169    .text:0000000000000080 .L0 
     /tmp/ccgOIs85.s:170    .text:0000000000000080 .L0 
     /tmp/ccgOIs85.s:173    .text:0000000000000088 .L0 
     /tmp/ccgOIs85.s:182    .text:000000000000008c .L0 
     /tmp/ccgOIs85.s:188    .text:0000000000000098 .L0 
     /tmp/ccgOIs85.s:189    .text:000000000000009c .L0 
     /tmp/ccgOIs85.s:191    .text:00000000000000a0 .L0 
     /tmp/ccgOIs85.s:192    .text:00000000000000a0 .L0 
     /tmp/ccgOIs85.s:194    .text:00000000000000a4 .L0 
     /tmp/ccgOIs85.s:196    .text:00000000000000a8 .L0 
     /tmp/ccgOIs85.s:198    .text:00000000000000ac .L0 
     /tmp/ccgOIs85.s:103    .text:0000000000000034 _ZN6ThreadD1Ev
     /tmp/ccgOIs85.s:215    .text._ZN14PeriodicThreadD2Ev:0000000000000000 _ZN14PeriodicThreadD2Ev
     /tmp/ccgOIs85.s:218    .text._ZN14PeriodicThreadD2Ev:0000000000000000 .L0 
     /tmp/ccgOIs85.s:220    .text._ZN14PeriodicThreadD2Ev:0000000000000000 .L0 
     /tmp/ccgOIs85.s:221    .text._ZN14PeriodicThreadD2Ev:0000000000000004 .L0 
     /tmp/ccgOIs85.s:224    .text._ZN14PeriodicThreadD2Ev:000000000000000c .L0 
     /tmp/ccgOIs85.s:225    .text._ZN14PeriodicThreadD2Ev:000000000000000c .L0 
     /tmp/ccgOIs85.s:227    .text._ZN14PeriodicThreadD2Ev:0000000000000010 .L0 
     /tmp/ccgOIs85.s:1265   .data.rel.ro.local._ZTV14PeriodicThread:0000000000000000 _ZTV14PeriodicThread
     /tmp/ccgOIs85.s:230    .text._ZN14PeriodicThreadD2Ev:0000000000000010 .L0 
     /tmp/ccgOIs85.s:236    .text._ZN14PeriodicThreadD2Ev:0000000000000028 .L0 
     /tmp/ccgOIs85.s:238    .text._ZN14PeriodicThreadD2Ev:000000000000002c .L0 
     /tmp/ccgOIs85.s:239    .text._ZN14PeriodicThreadD2Ev:000000000000002c .L0 
     /tmp/ccgOIs85.s:241    .text._ZN14PeriodicThreadD2Ev:0000000000000030 .L0 
     /tmp/ccgOIs85.s:243    .text._ZN14PeriodicThreadD2Ev:0000000000000034 .L0 
     /tmp/ccgOIs85.s:215    .text._ZN14PeriodicThreadD2Ev:0000000000000000 _ZN14PeriodicThreadD1Ev
     /tmp/ccgOIs85.s:252    .text:00000000000000ac _ZN9SemaphoreD2Ev
     /tmp/ccgOIs85.s:255    .text:00000000000000ac .L0 
     /tmp/ccgOIs85.s:259    .text:00000000000000ac .L0 
     /tmp/ccgOIs85.s:260    .text:00000000000000b0 .L0 
     /tmp/ccgOIs85.s:264    .text:00000000000000bc .L0 
     /tmp/ccgOIs85.s:265    .text:00000000000000bc .L0 
     /tmp/ccgOIs85.s:266    .text:00000000000000bc .L0 
     /tmp/ccgOIs85.s:268    .text:00000000000000c0 .L0 
     /tmp/ccgOIs85.s:1288   .data.rel.ro.local._ZTV9Semaphore:0000000000000000 _ZTV9Semaphore
     /tmp/ccgOIs85.s:272    .text:00000000000000c4 .L0 
     /tmp/ccgOIs85.s:275    .text:00000000000000d0 .L0 
     /tmp/ccgOIs85.s:276    .text:00000000000000d0 .L0 
     /tmp/ccgOIs85.s:281    .text:00000000000000dc .L0 
     /tmp/ccgOIs85.s:282    .text:00000000000000dc .L0 
     /tmp/ccgOIs85.s:285    .text:00000000000000e0 .L0 
     /tmp/ccgOIs85.s:291    .text:00000000000000e4 .L0 
     /tmp/ccgOIs85.s:295    .text:00000000000000e4 .L0 
     /tmp/ccgOIs85.s:296    .text:00000000000000e4 .L0 
GAS LISTING /tmp/ccgOIs85.s 			page 34


     /tmp/ccgOIs85.s:297    .text:00000000000000e4 .L0 
     /tmp/ccgOIs85.s:301    .text:00000000000000e8 .L0 
     /tmp/ccgOIs85.s:305    .text:00000000000000ec .L0 
     /tmp/ccgOIs85.s:306    .text:00000000000000ec .L0 
     /tmp/ccgOIs85.s:307    .text:00000000000000ec .L0 
     /tmp/ccgOIs85.s:309    .text:00000000000000f0 .L0 
     /tmp/ccgOIs85.s:311    .text:00000000000000f4 .L0 
     /tmp/ccgOIs85.s:312    .text:00000000000000f4 .L0 
     /tmp/ccgOIs85.s:317    .text:00000000000000f8 .L0 
     /tmp/ccgOIs85.s:318    .text:00000000000000f8 .L0 
     /tmp/ccgOIs85.s:321    .text:0000000000000100 .L0 
     /tmp/ccgOIs85.s:330    .text:0000000000000104 .L0 
     /tmp/ccgOIs85.s:336    .text:0000000000000110 .L0 
     /tmp/ccgOIs85.s:337    .text:0000000000000114 .L0 
     /tmp/ccgOIs85.s:339    .text:0000000000000118 .L0 
     /tmp/ccgOIs85.s:340    .text:0000000000000118 .L0 
     /tmp/ccgOIs85.s:342    .text:000000000000011c .L0 
     /tmp/ccgOIs85.s:344    .text:0000000000000120 .L0 
     /tmp/ccgOIs85.s:346    .text:0000000000000124 .L0 
     /tmp/ccgOIs85.s:252    .text:00000000000000ac _ZN9SemaphoreD1Ev
     /tmp/ccgOIs85.s:361    .text:0000000000000124 _Znwm
     /tmp/ccgOIs85.s:364    .text:0000000000000124 .L0 
     /tmp/ccgOIs85.s:366    .text:0000000000000124 .L0 
     /tmp/ccgOIs85.s:367    .text:0000000000000128 .L0 
     /tmp/ccgOIs85.s:370    .text:0000000000000130 .L0 
     /tmp/ccgOIs85.s:371    .text:0000000000000130 .L0 
     /tmp/ccgOIs85.s:373    .text:0000000000000134 .L0 
     /tmp/ccgOIs85.s:375    .text:0000000000000134 .L0 
     /tmp/ccgOIs85.s:376    .text:0000000000000134 .L0 
     /tmp/ccgOIs85.s:379    .text:000000000000013c .L0 
     /tmp/ccgOIs85.s:380    .text:0000000000000140 .L0 
     /tmp/ccgOIs85.s:382    .text:0000000000000144 .L0 
     /tmp/ccgOIs85.s:383    .text:0000000000000144 .L0 
     /tmp/ccgOIs85.s:385    .text:0000000000000148 .L0 
     /tmp/ccgOIs85.s:387    .text:000000000000014c .L0 
     /tmp/ccgOIs85.s:393    .text:000000000000014c _Znam
     /tmp/ccgOIs85.s:396    .text:000000000000014c .L0 
     /tmp/ccgOIs85.s:398    .text:000000000000014c .L0 
     /tmp/ccgOIs85.s:399    .text:0000000000000150 .L0 
     /tmp/ccgOIs85.s:402    .text:0000000000000158 .L0 
     /tmp/ccgOIs85.s:403    .text:0000000000000158 .L0 
     /tmp/ccgOIs85.s:405    .text:000000000000015c .L0 
     /tmp/ccgOIs85.s:407    .text:000000000000015c .L0 
     /tmp/ccgOIs85.s:408    .text:000000000000015c .L0 
     /tmp/ccgOIs85.s:411    .text:0000000000000164 .L0 
     /tmp/ccgOIs85.s:412    .text:0000000000000168 .L0 
     /tmp/ccgOIs85.s:414    .text:000000000000016c .L0 
     /tmp/ccgOIs85.s:415    .text:000000000000016c .L0 
     /tmp/ccgOIs85.s:417    .text:0000000000000170 .L0 
     /tmp/ccgOIs85.s:419    .text:0000000000000174 .L0 
     /tmp/ccgOIs85.s:425    .text:0000000000000174 _ZdlPv
     /tmp/ccgOIs85.s:428    .text:0000000000000174 .L0 
     /tmp/ccgOIs85.s:432    .text:0000000000000174 .L0 
     /tmp/ccgOIs85.s:433    .text:0000000000000178 .L0 
     /tmp/ccgOIs85.s:436    .text:0000000000000180 .L0 
     /tmp/ccgOIs85.s:437    .text:0000000000000180 .L0 
     /tmp/ccgOIs85.s:439    .text:0000000000000184 .L0 
GAS LISTING /tmp/ccgOIs85.s 			page 35


     /tmp/ccgOIs85.s:441    .text:0000000000000184 .L0 
     /tmp/ccgOIs85.s:442    .text:0000000000000184 .L0 
     /tmp/ccgOIs85.s:445    .text:000000000000018c .L0 
     /tmp/ccgOIs85.s:446    .text:0000000000000190 .L0 
     /tmp/ccgOIs85.s:448    .text:0000000000000194 .L0 
     /tmp/ccgOIs85.s:449    .text:0000000000000194 .L0 
     /tmp/ccgOIs85.s:451    .text:0000000000000198 .L0 
     /tmp/ccgOIs85.s:453    .text:000000000000019c .L0 
     /tmp/ccgOIs85.s:466    .text:000000000000019c _ZN6ThreadD0Ev
     /tmp/ccgOIs85.s:469    .text:000000000000019c .L0 
     /tmp/ccgOIs85.s:471    .text:000000000000019c .L0 
     /tmp/ccgOIs85.s:472    .text:00000000000001a0 .L0 
     /tmp/ccgOIs85.s:476    .text:00000000000001ac .L0 
     /tmp/ccgOIs85.s:477    .text:00000000000001ac .L0 
     /tmp/ccgOIs85.s:478    .text:00000000000001ac .L0 
     /tmp/ccgOIs85.s:480    .text:00000000000001b0 .L0 
     /tmp/ccgOIs85.s:483    .text:00000000000001b4 .L0 
     /tmp/ccgOIs85.s:489    .text:00000000000001cc .L0 
     /tmp/ccgOIs85.s:491    .text:00000000000001d0 .L0 
     /tmp/ccgOIs85.s:492    .text:00000000000001d0 .L0 
     /tmp/ccgOIs85.s:494    .text:00000000000001d4 .L0 
     /tmp/ccgOIs85.s:497    .text:00000000000001d8 .L0 
     /tmp/ccgOIs85.s:499    .text:00000000000001dc .L0 
     /tmp/ccgOIs85.s:506    .text._ZN14PeriodicThreadD0Ev:0000000000000000 _ZN14PeriodicThreadD0Ev
     /tmp/ccgOIs85.s:509    .text._ZN14PeriodicThreadD0Ev:0000000000000000 .L0 
     /tmp/ccgOIs85.s:511    .text._ZN14PeriodicThreadD0Ev:0000000000000000 .L0 
     /tmp/ccgOIs85.s:512    .text._ZN14PeriodicThreadD0Ev:0000000000000004 .L0 
     /tmp/ccgOIs85.s:516    .text._ZN14PeriodicThreadD0Ev:0000000000000010 .L0 
     /tmp/ccgOIs85.s:517    .text._ZN14PeriodicThreadD0Ev:0000000000000010 .L0 
     /tmp/ccgOIs85.s:518    .text._ZN14PeriodicThreadD0Ev:0000000000000010 .L0 
     /tmp/ccgOIs85.s:520    .text._ZN14PeriodicThreadD0Ev:0000000000000014 .L0 
     /tmp/ccgOIs85.s:526    .text._ZN14PeriodicThreadD0Ev:0000000000000018 .L0 
     /tmp/ccgOIs85.s:536    .text._ZN14PeriodicThreadD0Ev:000000000000003c .L0 
     /tmp/ccgOIs85.s:538    .text._ZN14PeriodicThreadD0Ev:0000000000000040 .L0 
     /tmp/ccgOIs85.s:539    .text._ZN14PeriodicThreadD0Ev:0000000000000040 .L0 
     /tmp/ccgOIs85.s:541    .text._ZN14PeriodicThreadD0Ev:0000000000000044 .L0 
     /tmp/ccgOIs85.s:544    .text._ZN14PeriodicThreadD0Ev:0000000000000048 .L0 
     /tmp/ccgOIs85.s:546    .text._ZN14PeriodicThreadD0Ev:000000000000004c .L0 
     /tmp/ccgOIs85.s:553    .text:00000000000001dc _ZN9SemaphoreD0Ev
     /tmp/ccgOIs85.s:556    .text:00000000000001dc .L0 
     /tmp/ccgOIs85.s:558    .text:00000000000001dc .L0 
     /tmp/ccgOIs85.s:559    .text:00000000000001e0 .L0 
     /tmp/ccgOIs85.s:563    .text:00000000000001ec .L0 
     /tmp/ccgOIs85.s:564    .text:00000000000001ec .L0 
     /tmp/ccgOIs85.s:565    .text:00000000000001ec .L0 
     /tmp/ccgOIs85.s:567    .text:00000000000001f0 .L0 
     /tmp/ccgOIs85.s:570    .text:00000000000001f4 .L0 
     /tmp/ccgOIs85.s:576    .text:000000000000020c .L0 
     /tmp/ccgOIs85.s:578    .text:0000000000000210 .L0 
     /tmp/ccgOIs85.s:579    .text:0000000000000210 .L0 
     /tmp/ccgOIs85.s:581    .text:0000000000000214 .L0 
     /tmp/ccgOIs85.s:584    .text:0000000000000218 .L0 
     /tmp/ccgOIs85.s:586    .text:000000000000021c .L0 
     /tmp/ccgOIs85.s:592    .text:000000000000021c _ZdaPv
     /tmp/ccgOIs85.s:595    .text:000000000000021c .L0 
     /tmp/ccgOIs85.s:599    .text:000000000000021c .L0 
     /tmp/ccgOIs85.s:600    .text:0000000000000220 .L0 
GAS LISTING /tmp/ccgOIs85.s 			page 36


     /tmp/ccgOIs85.s:603    .text:0000000000000228 .L0 
     /tmp/ccgOIs85.s:604    .text:0000000000000228 .L0 
     /tmp/ccgOIs85.s:606    .text:000000000000022c .L0 
     /tmp/ccgOIs85.s:608    .text:000000000000022c .L0 
     /tmp/ccgOIs85.s:609    .text:000000000000022c .L0 
     /tmp/ccgOIs85.s:612    .text:0000000000000234 .L0 
     /tmp/ccgOIs85.s:613    .text:0000000000000238 .L0 
     /tmp/ccgOIs85.s:615    .text:000000000000023c .L0 
     /tmp/ccgOIs85.s:616    .text:000000000000023c .L0 
     /tmp/ccgOIs85.s:618    .text:0000000000000240 .L0 
     /tmp/ccgOIs85.s:620    .text:0000000000000244 .L0 
     /tmp/ccgOIs85.s:633    .text:0000000000000244 _ZN6ThreadC2EPFvPvES0_
     /tmp/ccgOIs85.s:636    .text:0000000000000244 .L0 
     /tmp/ccgOIs85.s:638    .text:0000000000000244 .L0 
     /tmp/ccgOIs85.s:639    .text:0000000000000248 .L0 
     /tmp/ccgOIs85.s:645    .text:000000000000025c .L0 
     /tmp/ccgOIs85.s:646    .text:000000000000025c .L0 
     /tmp/ccgOIs85.s:647    .text:000000000000025c .L0 
     /tmp/ccgOIs85.s:648    .text:000000000000025c .L0 
     /tmp/ccgOIs85.s:649    .text:000000000000025c .L0 
     /tmp/ccgOIs85.s:651    .text:0000000000000260 .L0 
     /tmp/ccgOIs85.s:657    .text:000000000000026c .L0 
     /tmp/ccgOIs85.s:661    .text:0000000000000278 .L0 
     /tmp/ccgOIs85.s:662    .text:0000000000000278 .L0 
     /tmp/ccgOIs85.s:664    .text:000000000000027c .L0 
     /tmp/ccgOIs85.s:665    .text:000000000000027c .L0 
     /tmp/ccgOIs85.s:668    .text:0000000000000280 .L0 
     /tmp/ccgOIs85.s:669    .text:0000000000000280 .L0 
     /tmp/ccgOIs85.s:671    .text:0000000000000284 .L0 
     /tmp/ccgOIs85.s:672    .text:0000000000000284 .L0 
     /tmp/ccgOIs85.s:680    .text:0000000000000294 .L0 
 src/syscall_cpp.cpp:42     .text:0000000000000294 .L0 
     /tmp/ccgOIs85.s:686    .text:0000000000000298 .L0 
 src/syscall_cpp.cpp:43     .text:0000000000000298 .L0 
     /tmp/ccgOIs85.s:691    .text:000000000000029c .L0 
 src/syscall_cpp.cpp:45     .text:000000000000029c .L0 
     /tmp/ccgOIs85.s:696    .text:00000000000002a0 .L0 
     /tmp/ccgOIs85.s:698    .text:00000000000002a0 .L0 
 src/syscall_cpp.cpp:46     .text:00000000000002a4 .L0 
     /tmp/ccgOIs85.s:706    .text:00000000000002a8 .L0 
 src/syscall_cpp.cpp:47     .text:00000000000002a8 .L0 
     /tmp/ccgOIs85.s:711    .text:00000000000002ac .L0 
 src/syscall_cpp.cpp:54     .text:00000000000002ac .L0 
     /tmp/ccgOIs85.s:719    .text:00000000000002b0 .L0 
     /tmp/ccgOIs85.s:720    .text:00000000000002b4 .L0 
     /tmp/ccgOIs85.s:721    .text:00000000000002b4 .L0 
     /tmp/ccgOIs85.s:723    .text:00000000000002b8 .L0 
     /tmp/ccgOIs85.s:724    .text:00000000000002b8 .L0 
     /tmp/ccgOIs85.s:726    .text:00000000000002bc .L0 
     /tmp/ccgOIs85.s:729    .text:00000000000002c0 .L0 
     /tmp/ccgOIs85.s:732    .text:00000000000002c4 .L0 
     /tmp/ccgOIs85.s:735    .text:00000000000002c8 .L0 
     /tmp/ccgOIs85.s:739    .text:00000000000002cc .L0 
     /tmp/ccgOIs85.s:743    .text:00000000000002cc .L0 
     /tmp/ccgOIs85.s:747    .text:00000000000002d4 .L0 
     /tmp/ccgOIs85.s:633    .text:0000000000000244 _ZN6ThreadC1EPFvPvES0_
     /tmp/ccgOIs85.s:755    .text:00000000000002d4 _ZN6Thread5startEv
GAS LISTING /tmp/ccgOIs85.s 			page 37


     /tmp/ccgOIs85.s:758    .text:00000000000002d4 .L0 
     /tmp/ccgOIs85.s:760    .text:00000000000002d4 .L0 
     /tmp/ccgOIs85.s:761    .text:00000000000002d8 .L0 
     /tmp/ccgOIs85.s:763    .text:00000000000002dc .L0 
     /tmp/ccgOIs85.s:765    .text:00000000000002e0 .L0 
     /tmp/ccgOIs85.s:767    .text:00000000000002e0 .L0 
     /tmp/ccgOIs85.s:768    .text:00000000000002e0 .L0 
     /tmp/ccgOIs85.s:770    .text:00000000000002e4 .L0 
     /tmp/ccgOIs85.s:772    .text:00000000000002e8 .L0 
 src/syscall_cpp.cpp:68     .text:00000000000002e8 .L0 
     /tmp/ccgOIs85.s:779    .text:00000000000002ec .L0 
 src/syscall_cpp.cpp:69     .text:00000000000002ec .L0 
     /tmp/ccgOIs85.s:784    .text:00000000000002f0 .L0 
 src/syscall_cpp.cpp:71     .text:00000000000002f0 .L0 
     /tmp/ccgOIs85.s:789    .text:00000000000002f4 .L0 
     /tmp/ccgOIs85.s:791    .text:00000000000002f4 .L0 
     /tmp/ccgOIs85.s:794    .text:00000000000002f8 .L0 
     /tmp/ccgOIs85.s:795    .text:00000000000002fc .L0 
     /tmp/ccgOIs85.s:796    .text:00000000000002fc .L0 
     /tmp/ccgOIs85.s:797    .text:00000000000002fc .L0 
     /tmp/ccgOIs85.s:799    .text:0000000000000300 .L0 
     /tmp/ccgOIs85.s:803    .text:0000000000000304 .L0 
     /tmp/ccgOIs85.s:805    .text:0000000000000304 .L0 
     /tmp/ccgOIs85.s:808    .text:000000000000030c .L0 
     /tmp/ccgOIs85.s:814    .text:000000000000030c _ZN6Thread4joinEv
     /tmp/ccgOIs85.s:817    .text:000000000000030c .L0 
     /tmp/ccgOIs85.s:819    .text:000000000000030c .L0 
     /tmp/ccgOIs85.s:820    .text:0000000000000310 .L0 
     /tmp/ccgOIs85.s:823    .text:0000000000000318 .L0 
     /tmp/ccgOIs85.s:824    .text:0000000000000318 .L0 
     /tmp/ccgOIs85.s:826    .text:000000000000031c .L0 
     /tmp/ccgOIs85.s:828    .text:000000000000031c .L0 
     /tmp/ccgOIs85.s:829    .text:000000000000031c .L0 
     /tmp/ccgOIs85.s:834    .text:0000000000000328 .L0 
     /tmp/ccgOIs85.s:835    .text:000000000000032c .L0 
     /tmp/ccgOIs85.s:837    .text:0000000000000330 .L0 
     /tmp/ccgOIs85.s:838    .text:0000000000000330 .L0 
     /tmp/ccgOIs85.s:840    .text:0000000000000334 .L0 
     /tmp/ccgOIs85.s:842    .text:0000000000000338 .L0 
     /tmp/ccgOIs85.s:848    .text:0000000000000338 _ZN6Thread8dispatchEv
     /tmp/ccgOIs85.s:851    .text:0000000000000338 .L0 
     /tmp/ccgOIs85.s:852    .text:0000000000000338 .L0 
     /tmp/ccgOIs85.s:853    .text:000000000000033c .L0 
     /tmp/ccgOIs85.s:856    .text:0000000000000344 .L0 
     /tmp/ccgOIs85.s:857    .text:0000000000000344 .L0 
     /tmp/ccgOIs85.s:859    .text:0000000000000348 .L0 
     /tmp/ccgOIs85.s:861    .text:0000000000000348 .L0 
     /tmp/ccgOIs85.s:862    .text:0000000000000348 .L0 
     /tmp/ccgOIs85.s:865    .text:0000000000000350 .L0 
     /tmp/ccgOIs85.s:866    .text:0000000000000354 .L0 
     /tmp/ccgOIs85.s:868    .text:0000000000000358 .L0 
     /tmp/ccgOIs85.s:869    .text:0000000000000358 .L0 
     /tmp/ccgOIs85.s:871    .text:000000000000035c .L0 
     /tmp/ccgOIs85.s:873    .text:0000000000000360 .L0 
     /tmp/ccgOIs85.s:879    .text:0000000000000360 _ZN6Thread5sleepEm
     /tmp/ccgOIs85.s:882    .text:0000000000000360 .L0 
     /tmp/ccgOIs85.s:884    .text:0000000000000360 .L0 
GAS LISTING /tmp/ccgOIs85.s 			page 38


     /tmp/ccgOIs85.s:885    .text:0000000000000364 .L0 
     /tmp/ccgOIs85.s:888    .text:000000000000036c .L0 
     /tmp/ccgOIs85.s:889    .text:000000000000036c .L0 
     /tmp/ccgOIs85.s:891    .text:0000000000000370 .L0 
     /tmp/ccgOIs85.s:894    .text:0000000000000374 .L0 
     /tmp/ccgOIs85.s:895    .text:0000000000000374 .L0 
     /tmp/ccgOIs85.s:901    .text:0000000000000388 .L0 
     /tmp/ccgOIs85.s:902    .text:0000000000000388 .L0 
     /tmp/ccgOIs85.s:904    .text:0000000000000390 .L0 
     /tmp/ccgOIs85.s:906    .text:0000000000000394 .L0 
     /tmp/ccgOIs85.s:907    .text:0000000000000394 .L0 
     /tmp/ccgOIs85.s:909    .text:0000000000000398 .L0 
     /tmp/ccgOIs85.s:911    .text:000000000000039c .L0 
     /tmp/ccgOIs85.s:917    .text:000000000000039c _ZN6ThreadC2Ev
     /tmp/ccgOIs85.s:920    .text:000000000000039c .L0 
     /tmp/ccgOIs85.s:922    .text:000000000000039c .L0 
     /tmp/ccgOIs85.s:923    .text:00000000000003a0 .L0 
     /tmp/ccgOIs85.s:927    .text:00000000000003ac .L0 
     /tmp/ccgOIs85.s:928    .text:00000000000003ac .L0 
     /tmp/ccgOIs85.s:929    .text:00000000000003ac .L0 
     /tmp/ccgOIs85.s:931    .text:00000000000003b0 .L0 
     /tmp/ccgOIs85.s:935    .text:00000000000003b4 .L0 
     /tmp/ccgOIs85.s:939    .text:00000000000003c0 .L0 
     /tmp/ccgOIs85.s:940    .text:00000000000003c0 .L0 
     /tmp/ccgOIs85.s:943    .text:00000000000003cc .L0 
     /tmp/ccgOIs85.s:944    .text:00000000000003cc .L0 
     /tmp/ccgOIs85.s:947    .text:00000000000003d0 .L0 
     /tmp/ccgOIs85.s:948    .text:00000000000003d0 .L0 
     /tmp/ccgOIs85.s:949    .text:00000000000003d0 .L0 
     /tmp/ccgOIs85.s:950    .text:00000000000003d0 .L0 
     /tmp/ccgOIs85.s:957    .text:00000000000003e0 .L0 
 src/syscall_cpp.cpp:99     .text:00000000000003e0 .L0 
     /tmp/ccgOIs85.s:963    .text:00000000000003e4 .L0 
     /tmp/ccgOIs85.s:965    .text:00000000000003e4 .L0 
 src/syscall_cpp.cpp:100    .text:00000000000003e8 .L0 
     /tmp/ccgOIs85.s:973    .text:00000000000003ec .L0 
     /tmp/ccgOIs85.s:975    .text:00000000000003ec .L0 
 src/syscall_cpp.cpp:102    .text:00000000000003f0 .L0 
     /tmp/ccgOIs85.s:982    .text:00000000000003f4 .L0 
     /tmp/ccgOIs85.s:984    .text:00000000000003f4 .L0 
 src/syscall_cpp.cpp:103    .text:00000000000003f8 .L0 
     /tmp/ccgOIs85.s:992    .text:00000000000003fc .L0 
 src/syscall_cpp.cpp:104    .text:00000000000003fc .L0 
     /tmp/ccgOIs85.s:997    .text:0000000000000400 .L0 
 src/syscall_cpp.cpp:111    .text:0000000000000400 .L0 
     /tmp/ccgOIs85.s:1005   .text:0000000000000404 .L0 
     /tmp/ccgOIs85.s:1006   .text:0000000000000408 .L0 
     /tmp/ccgOIs85.s:1008   .text:000000000000040c .L0 
     /tmp/ccgOIs85.s:1009   .text:000000000000040c .L0 
     /tmp/ccgOIs85.s:1011   .text:0000000000000410 .L0 
     /tmp/ccgOIs85.s:1014   .text:0000000000000414 .L0 
     /tmp/ccgOIs85.s:1016   .text:0000000000000418 .L0 
     /tmp/ccgOIs85.s:917    .text:000000000000039c _ZN6ThreadC1Ev
     /tmp/ccgOIs85.s:1024   .text:0000000000000418 _ZN9SemaphoreC2Ej
     /tmp/ccgOIs85.s:1027   .text:0000000000000418 .L0 
     /tmp/ccgOIs85.s:1029   .text:0000000000000418 .L0 
     /tmp/ccgOIs85.s:1030   .text:000000000000041c .L0 
GAS LISTING /tmp/ccgOIs85.s 			page 39


     /tmp/ccgOIs85.s:1033   .text:0000000000000424 .L0 
     /tmp/ccgOIs85.s:1034   .text:0000000000000424 .L0 
     /tmp/ccgOIs85.s:1036   .text:0000000000000428 .L0 
     /tmp/ccgOIs85.s:1039   .text:0000000000000428 .L0 
     /tmp/ccgOIs85.s:1042   .text:0000000000000434 .L0 
     /tmp/ccgOIs85.s:1043   .text:0000000000000434 .L0 
     /tmp/ccgOIs85.s:1049   .text:0000000000000440 .L0 
     /tmp/ccgOIs85.s:1050   .text:0000000000000444 .L0 
     /tmp/ccgOIs85.s:1052   .text:0000000000000448 .L0 
     /tmp/ccgOIs85.s:1053   .text:0000000000000448 .L0 
     /tmp/ccgOIs85.s:1055   .text:000000000000044c .L0 
     /tmp/ccgOIs85.s:1057   .text:0000000000000450 .L0 
     /tmp/ccgOIs85.s:1024   .text:0000000000000418 _ZN9SemaphoreC1Ej
     /tmp/ccgOIs85.s:1065   .text:0000000000000450 _ZN9Semaphore4waitEv
     /tmp/ccgOIs85.s:1068   .text:0000000000000450 .L0 
     /tmp/ccgOIs85.s:1070   .text:0000000000000450 .L0 
     /tmp/ccgOIs85.s:1071   .text:0000000000000454 .L0 
     /tmp/ccgOIs85.s:1074   .text:000000000000045c .L0 
     /tmp/ccgOIs85.s:1075   .text:000000000000045c .L0 
     /tmp/ccgOIs85.s:1077   .text:0000000000000460 .L0 
     /tmp/ccgOIs85.s:1079   .text:0000000000000460 .L0 
     /tmp/ccgOIs85.s:1080   .text:0000000000000460 .L0 
     /tmp/ccgOIs85.s:1085   .text:000000000000046c .L0 
     /tmp/ccgOIs85.s:1086   .text:0000000000000470 .L0 
     /tmp/ccgOIs85.s:1088   .text:0000000000000474 .L0 
     /tmp/ccgOIs85.s:1089   .text:0000000000000474 .L0 
     /tmp/ccgOIs85.s:1091   .text:0000000000000478 .L0 
     /tmp/ccgOIs85.s:1093   .text:000000000000047c .L0 
     /tmp/ccgOIs85.s:1099   .text:000000000000047c _ZN9Semaphore6signalEv
     /tmp/ccgOIs85.s:1102   .text:000000000000047c .L0 
     /tmp/ccgOIs85.s:1104   .text:000000000000047c .L0 
     /tmp/ccgOIs85.s:1105   .text:0000000000000480 .L0 
     /tmp/ccgOIs85.s:1108   .text:0000000000000488 .L0 
     /tmp/ccgOIs85.s:1109   .text:0000000000000488 .L0 
     /tmp/ccgOIs85.s:1111   .text:000000000000048c .L0 
     /tmp/ccgOIs85.s:1113   .text:000000000000048c .L0 
     /tmp/ccgOIs85.s:1114   .text:000000000000048c .L0 
     /tmp/ccgOIs85.s:1119   .text:0000000000000498 .L0 
     /tmp/ccgOIs85.s:1120   .text:000000000000049c .L0 
     /tmp/ccgOIs85.s:1122   .text:00000000000004a0 .L0 
     /tmp/ccgOIs85.s:1123   .text:00000000000004a0 .L0 
     /tmp/ccgOIs85.s:1125   .text:00000000000004a4 .L0 
     /tmp/ccgOIs85.s:1127   .text:00000000000004a8 .L0 
     /tmp/ccgOIs85.s:1133   .text:00000000000004a8 _ZN14PeriodicThread9terminateEv
     /tmp/ccgOIs85.s:1136   .text:00000000000004a8 .L0 
     /tmp/ccgOIs85.s:1138   .text:00000000000004a8 .L0 
     /tmp/ccgOIs85.s:1139   .text:00000000000004ac .L0 
     /tmp/ccgOIs85.s:1141   .text:00000000000004b0 .L0 
     /tmp/ccgOIs85.s:1143   .text:00000000000004b4 .L0 
     /tmp/ccgOIs85.s:1145   .text:00000000000004b4 .L0 
     /tmp/ccgOIs85.s:1146   .text:00000000000004b8 .L0 
     /tmp/ccgOIs85.s:1147   .text:00000000000004b8 .L0 
     /tmp/ccgOIs85.s:1149   .text:00000000000004bc .L0 
     /tmp/ccgOIs85.s:1151   .text:00000000000004c0 .L0 
     /tmp/ccgOIs85.s:1157   .text:00000000000004c0 _ZN14PeriodicThreadC2Em
     /tmp/ccgOIs85.s:1160   .text:00000000000004c0 .L0 
     /tmp/ccgOIs85.s:1162   .text:00000000000004c0 .L0 
GAS LISTING /tmp/ccgOIs85.s 			page 40


     /tmp/ccgOIs85.s:1163   .text:00000000000004c4 .L0 
     /tmp/ccgOIs85.s:1167   .text:00000000000004d0 .L0 
     /tmp/ccgOIs85.s:1168   .text:00000000000004d0 .L0 
     /tmp/ccgOIs85.s:1169   .text:00000000000004d0 .L0 
     /tmp/ccgOIs85.s:1171   .text:00000000000004d4 .L0 
     /tmp/ccgOIs85.s:1175   .text:00000000000004d8 .L0 
     /tmp/ccgOIs85.s:1181   .text:00000000000004ec .L0 
     /tmp/ccgOIs85.s:1182   .text:00000000000004f0 .L0 
     /tmp/ccgOIs85.s:1184   .text:00000000000004f4 .L0 
     /tmp/ccgOIs85.s:1185   .text:00000000000004f4 .L0 
     /tmp/ccgOIs85.s:1187   .text:00000000000004f8 .L0 
     /tmp/ccgOIs85.s:1190   .text:00000000000004fc .L0 
     /tmp/ccgOIs85.s:1192   .text:0000000000000500 .L0 
     /tmp/ccgOIs85.s:1157   .text:00000000000004c0 _ZN14PeriodicThreadC1Em
     /tmp/ccgOIs85.s:1200   .text:0000000000000500 _ZN7Console4getcEv
     /tmp/ccgOIs85.s:1203   .text:0000000000000500 .L0 
     /tmp/ccgOIs85.s:1204   .text:0000000000000500 .L0 
     /tmp/ccgOIs85.s:1205   .text:0000000000000504 .L0 
     /tmp/ccgOIs85.s:1208   .text:000000000000050c .L0 
     /tmp/ccgOIs85.s:1209   .text:000000000000050c .L0 
     /tmp/ccgOIs85.s:1211   .text:0000000000000510 .L0 
     /tmp/ccgOIs85.s:1213   .text:0000000000000510 .L0 
     /tmp/ccgOIs85.s:1214   .text:0000000000000510 .L0 
     /tmp/ccgOIs85.s:1217   .text:0000000000000518 .L0 
     /tmp/ccgOIs85.s:1218   .text:000000000000051c .L0 
     /tmp/ccgOIs85.s:1220   .text:0000000000000520 .L0 
     /tmp/ccgOIs85.s:1221   .text:0000000000000520 .L0 
     /tmp/ccgOIs85.s:1223   .text:0000000000000524 .L0 
     /tmp/ccgOIs85.s:1225   .text:0000000000000528 .L0 
     /tmp/ccgOIs85.s:1231   .text:0000000000000528 _ZN7Console4putcEc
     /tmp/ccgOIs85.s:1234   .text:0000000000000528 .L0 
     /tmp/ccgOIs85.s:1236   .text:0000000000000528 .L0 
     /tmp/ccgOIs85.s:1237   .text:000000000000052c .L0 
     /tmp/ccgOIs85.s:1240   .text:0000000000000534 .L0 
     /tmp/ccgOIs85.s:1241   .text:0000000000000534 .L0 
     /tmp/ccgOIs85.s:1243   .text:0000000000000538 .L0 
     /tmp/ccgOIs85.s:1245   .text:0000000000000538 .L0 
     /tmp/ccgOIs85.s:1246   .text:0000000000000538 .L0 
     /tmp/ccgOIs85.s:1249   .text:0000000000000540 .L0 
     /tmp/ccgOIs85.s:1250   .text:0000000000000544 .L0 
     /tmp/ccgOIs85.s:1252   .text:0000000000000548 .L0 
     /tmp/ccgOIs85.s:1253   .text:0000000000000548 .L0 
     /tmp/ccgOIs85.s:1255   .text:000000000000054c .L0 
     /tmp/ccgOIs85.s:1257   .text:0000000000000550 .L0 
     /tmp/ccgOIs85.s:32     .text._ZN6Thread3runEv:0000000000000018 .L0 
     /tmp/ccgOIs85.s:57     .text._ZN14PeriodicThread18periodicActivationEv:0000000000000018 .L0 
     /tmp/ccgOIs85.s:1300   .text:0000000000000550 .L0 
     /tmp/ccgOIs85.s:248    .text._ZN14PeriodicThreadD2Ev:0000000000000034 .L0 
     /tmp/ccgOIs85.s:549    .text._ZN14PeriodicThreadD0Ev:000000000000004c .L0 
     /tmp/ccgOIs85.s:123    .text:000000000000004c .L0 
     /tmp/ccgOIs85.s:272    .text:00000000000000c4 .L0 
     /tmp/ccgOIs85.s:657    .text:000000000000026c .L0 
     /tmp/ccgOIs85.s:895    .text:0000000000000374 .L0 
     /tmp/ccgOIs85.s:935    .text:00000000000003b4 .L0 
     /tmp/ccgOIs85.s:940    .text:00000000000003c0 .L0 
     /tmp/ccgOIs85.s:1039   .text:0000000000000428 .L0 
     /tmp/ccgOIs85.s:1177   .text:00000000000004e0 .L0 
GAS LISTING /tmp/ccgOIs85.s 			page 41


     /tmp/ccgOIs85.s:95     .text:0000000000000030 .L8
     /tmp/ccgOIs85.s:185    .text:0000000000000098 .L11
     /tmp/ccgOIs85.s:174    .text:000000000000008c .L13
     /tmp/ccgOIs85.s:137    .text:000000000000006c .L14
     /tmp/ccgOIs85.s:333    .text:0000000000000110 .L19
     /tmp/ccgOIs85.s:322    .text:0000000000000104 .L21
     /tmp/ccgOIs85.s:286    .text:00000000000000e4 .L22
     /tmp/ccgOIs85.s:738    .text:00000000000002cc .L41
     /tmp/ccgOIs85.s:678    .text:0000000000000294 .L40
     /tmp/ccgOIs85.s:802    .text:0000000000000304 .L45
     /tmp/ccgOIs85.s:792    .text:00000000000002f8 .L44
     /tmp/ccgOIs85.s:230    .text._ZN14PeriodicThreadD2Ev:0000000000000010 .L0 
     /tmp/ccgOIs85.s:526    .text._ZN14PeriodicThreadD0Ev:0000000000000018 .L0 
     /tmp/ccgOIs85.s:3766   .debug_abbrev:0000000000000000 .Ldebug_abbrev0
     /tmp/ccgOIs85.s:6132   .debug_str:00000000000009f8 .LASF210
     /tmp/ccgOIs85.s:5952   .debug_str:0000000000000502 .LASF211
     /tmp/ccgOIs85.s:6072   .debug_str:000000000000085d .LASF212
     /tmp/ccgOIs85.s:5766   .debug_ranges:0000000000000000 .Ldebug_ranges0
     /tmp/ccgOIs85.s:5786   .debug_line:0000000000000000 .Ldebug_line0
     /tmp/ccgOIs85.s:6042   .debug_str:0000000000000793 .LASF3
     /tmp/ccgOIs85.s:5944   .debug_str:00000000000004d9 .LASF0
     /tmp/ccgOIs85.s:5970   .debug_str:0000000000000589 .LASF1
     /tmp/ccgOIs85.s:6056   .debug_str:00000000000007ff .LASF2
     /tmp/ccgOIs85.s:6068   .debug_str:0000000000000851 .LASF4
     /tmp/ccgOIs85.s:5954   .debug_str:0000000000000516 .LASF5
     /tmp/ccgOIs85.s:5804   .debug_str:0000000000000092 .LASF6
     /tmp/ccgOIs85.s:6026   .debug_str:000000000000070e .LASF7
     /tmp/ccgOIs85.s:6022   .debug_str:00000000000006e3 .LASF8
     /tmp/ccgOIs85.s:5962   .debug_str:0000000000000559 .LASF9
     /tmp/ccgOIs85.s:5912   .debug_str:00000000000003dc .LASF10
     /tmp/ccgOIs85.s:5924   .debug_str:0000000000000458 .LASF11
     /tmp/ccgOIs85.s:5850   .debug_str:0000000000000202 .LASF12
     /tmp/ccgOIs85.s:5904   .debug_str:00000000000003a6 .LASF13
     /tmp/ccgOIs85.s:5866   .debug_str:0000000000000286 .LASF14
     /tmp/ccgOIs85.s:5848   .debug_str:00000000000001f2 .LASF15
     /tmp/ccgOIs85.s:6096   .debug_str:000000000000091c .LASF16
     /tmp/ccgOIs85.s:5894   .debug_str:000000000000033a .LASF17
     /tmp/ccgOIs85.s:6084   .debug_str:00000000000008c8 .LASF18
     /tmp/ccgOIs85.s:6176   .debug_str:0000000000000bd3 .LASF19
     /tmp/ccgOIs85.s:6106   .debug_str:0000000000000962 .LASF97
     /tmp/ccgOIs85.s:6094   .debug_str:000000000000090f .LASF20
     /tmp/ccgOIs85.s:6186   .debug_str:0000000000000c22 .LASF22
     /tmp/ccgOIs85.s:6016   .debug_str:00000000000006bc .LASF213
     /tmp/ccgOIs85.s:6204   .debug_str:0000000000000cbe .LASF34
     /tmp/ccgOIs85.s:5956   .debug_str:0000000000000528 .LASF36
     /tmp/ccgOIs85.s:6108   .debug_str:000000000000096a .LASF24
     /tmp/ccgOIs85.s:6102   .debug_str:0000000000000945 .LASF26
     /tmp/ccgOIs85.s:5834   .debug_str:0000000000000184 .LASF21
     /tmp/ccgOIs85.s:6150   .debug_str:0000000000000b2a .LASF23
     /tmp/ccgOIs85.s:6060   .debug_str:000000000000081c .LASF25
     /tmp/ccgOIs85.s:6100   .debug_str:0000000000000931 .LASF27
     /tmp/ccgOIs85.s:6112   .debug_str:0000000000000982 .LASF28
     /tmp/ccgOIs85.s:5900   .debug_str:0000000000000377 .LASF29
     /tmp/ccgOIs85.s:5978   .debug_str:00000000000005bd .LASF30
     /tmp/ccgOIs85.s:6038   .debug_str:000000000000076b .LASF31
     /tmp/ccgOIs85.s:5882   .debug_str:00000000000002fc .LASF32
     /tmp/ccgOIs85.s:6064   .debug_str:000000000000082b .LASF33
GAS LISTING /tmp/ccgOIs85.s 			page 42


     /tmp/ccgOIs85.s:6156   .debug_str:0000000000000b6b .LASF35
     /tmp/ccgOIs85.s:5906   .debug_str:00000000000003b5 .LASF37
     /tmp/ccgOIs85.s:6178   .debug_str:0000000000000bdc .LASF38
     /tmp/ccgOIs85.s:5902   .debug_str:000000000000038d .LASF40
     /tmp/ccgOIs85.s:5974   .debug_str:00000000000005a4 .LASF39
     /tmp/ccgOIs85.s:6136   .debug_str:0000000000000acf .LASF41
     /tmp/ccgOIs85.s:5884   .debug_str:0000000000000309 .LASF42
     /tmp/ccgOIs85.s:5860   .debug_str:000000000000024c .LASF43
     /tmp/ccgOIs85.s:6172   .debug_str:0000000000000bc2 .LASF44
     /tmp/ccgOIs85.s:5812   .debug_str:00000000000000df .LASF45
     /tmp/ccgOIs85.s:6128   .debug_str:00000000000009e0 .LASF46
     /tmp/ccgOIs85.s:5842   .debug_str:00000000000001c5 .LASF47
     /tmp/ccgOIs85.s:6218   .debug_str:0000000000000d20 .LASF48
     /tmp/ccgOIs85.s:5920   .debug_str:0000000000000439 .LASF49
     /tmp/ccgOIs85.s:5794   .debug_str:000000000000003c .LASF50
     /tmp/ccgOIs85.s:5986   .debug_str:00000000000005f0 .LASF51
     /tmp/ccgOIs85.s:6148   .debug_str:0000000000000b22 .LASF52
     /tmp/ccgOIs85.s:5846   .debug_str:00000000000001e3 .LASF53
     /tmp/ccgOIs85.s:6210   .debug_str:0000000000000ce5 .LASF54
     /tmp/ccgOIs85.s:6166   .debug_str:0000000000000bab .LASF55
     /tmp/ccgOIs85.s:6140   .debug_str:0000000000000af6 .LASF56
     /tmp/ccgOIs85.s:6082   .debug_str:00000000000008bf .LASF57
     /tmp/ccgOIs85.s:6012   .debug_str:00000000000006ad .LASF58
     /tmp/ccgOIs85.s:5932   .debug_str:0000000000000486 .LASF59
     /tmp/ccgOIs85.s:6130   .debug_str:00000000000009e8 .LASF60
     /tmp/ccgOIs85.s:6020   .debug_str:00000000000006d7 .LASF61
     /tmp/ccgOIs85.s:5790   .debug_str:000000000000002a .LASF62
     /tmp/ccgOIs85.s:6066   .debug_str:0000000000000843 .LASF63
     /tmp/ccgOIs85.s:6200   .debug_str:0000000000000c9a .LASF122
     /tmp/ccgOIs85.s:5874   .debug_str:00000000000002c5 .LASF90
     /tmp/ccgOIs85.s:5798   .debug_str:0000000000000054 .LASF92
     /tmp/ccgOIs85.s:6070   .debug_str:0000000000000858 .LASF85
     /tmp/ccgOIs85.s:5800   .debug_str:000000000000007c .LASF87
     /tmp/ccgOIs85.s:6196   .debug_str:0000000000000c82 .LASF64
     /tmp/ccgOIs85.s:6086   .debug_str:00000000000008de .LASF65
     /tmp/ccgOIs85.s:5968   .debug_str:0000000000000581 .LASF66
     /tmp/ccgOIs85.s:6010   .debug_str:000000000000069a .LASF67
     /tmp/ccgOIs85.s:5886   .debug_str:0000000000000312 .LASF68
     /tmp/ccgOIs85.s:5890   .debug_str:000000000000031d .LASF69
     /tmp/ccgOIs85.s:6104   .debug_str:000000000000095b .LASF70
     /tmp/ccgOIs85.s:5828   .debug_str:0000000000000166 .LASF71
     /tmp/ccgOIs85.s:6190   .debug_str:0000000000000c57 .LASF72
     /tmp/ccgOIs85.s:6002   .debug_str:000000000000065c .LASF73
     /tmp/ccgOIs85.s:5892   .debug_str:000000000000032d .LASF74
     /tmp/ccgOIs85.s:6162   .debug_str:0000000000000b97 .LASF75
     /tmp/ccgOIs85.s:5942   .debug_str:00000000000004d3 .LASF76
     /tmp/ccgOIs85.s:6124   .debug_str:00000000000009b9 .LASF77
     /tmp/ccgOIs85.s:5796   .debug_str:000000000000004c .LASF78
     /tmp/ccgOIs85.s:5808   .debug_str:00000000000000b0 .LASF79
     /tmp/ccgOIs85.s:6184   .debug_str:0000000000000c15 .LASF80
     /tmp/ccgOIs85.s:6154   .debug_str:0000000000000b5b .LASF81
     /tmp/ccgOIs85.s:5878   .debug_str:00000000000002ed .LASF82
     /tmp/ccgOIs85.s:5964   .debug_str:000000000000056c .LASF83
     /tmp/ccgOIs85.s:6170   .debug_str:0000000000000bba .LASF84
     /tmp/ccgOIs85.s:5888   .debug_str:0000000000000317 .LASF86
     /tmp/ccgOIs85.s:6146   .debug_str:0000000000000b15 .LASF88
     /tmp/ccgOIs85.s:5990   .debug_str:0000000000000615 .LASF89
GAS LISTING /tmp/ccgOIs85.s 			page 43


     /tmp/ccgOIs85.s:5946   .debug_str:00000000000004e6 .LASF124
     /tmp/ccgOIs85.s:6188   .debug_str:0000000000000c44 .LASF126
     /tmp/ccgOIs85.s:5992   .debug_str:000000000000061d .LASF91
     /tmp/ccgOIs85.s:6194   .debug_str:0000000000000c6f .LASF93
     /tmp/ccgOIs85.s:6116   .debug_str:0000000000000993 .LASF94
     /tmp/ccgOIs85.s:6046   .debug_str:00000000000007b9 .LASF95
     /tmp/ccgOIs85.s:6004   .debug_str:0000000000000672 .LASF96
     /tmp/ccgOIs85.s:5880   .debug_str:00000000000002f7 .LASF98
     /tmp/ccgOIs85.s:6144   .debug_str:0000000000000b10 .LASF99
     /tmp/ccgOIs85.s:5852   .debug_str:0000000000000211 .LASF100
     /tmp/ccgOIs85.s:5898   .debug_str:0000000000000359 .LASF101
     /tmp/ccgOIs85.s:5876   .debug_str:00000000000002d3 .LASF102
     /tmp/ccgOIs85.s:6030   .debug_str:0000000000000727 .LASF156
     /tmp/ccgOIs85.s:6160   .debug_str:0000000000000b91 .LASF103
     /tmp/ccgOIs85.s:5966   .debug_str:000000000000057c .LASF104
     /tmp/ccgOIs85.s:5818   .debug_str:000000000000010c .LASF105
     /tmp/ccgOIs85.s:5918   .debug_str:0000000000000421 .LASF106
     /tmp/ccgOIs85.s:6024   .debug_str:00000000000006f6 .LASF135
     /tmp/ccgOIs85.s:6110   .debug_str:0000000000000975 .LASF107
     /tmp/ccgOIs85.s:5870   .debug_str:00000000000002ab .LASF108
     /tmp/ccgOIs85.s:5948   .debug_str:00000000000004eb .LASF109
     /tmp/ccgOIs85.s:5810   .debug_str:00000000000000c3 .LASF110
     /tmp/ccgOIs85.s:5972   .debug_str:000000000000059c .LASF111
     /tmp/ccgOIs85.s:5998   .debug_str:0000000000000638 .LASF112
     /tmp/ccgOIs85.s:5836   .debug_str:0000000000000190 .LASF113
     /tmp/ccgOIs85.s:5838   .debug_str:0000000000000199 .LASF114
     /tmp/ccgOIs85.s:5868   .debug_str:0000000000000296 .LASF115
     /tmp/ccgOIs85.s:6180   .debug_str:0000000000000bea .LASF116
     /tmp/ccgOIs85.s:5910   .debug_str:00000000000003d2 .LASF117
     /tmp/ccgOIs85.s:6090   .debug_str:00000000000008f2 .LASF118
     /tmp/ccgOIs85.s:6000   .debug_str:0000000000000657 .LASF119
     /tmp/ccgOIs85.s:6208   .debug_str:0000000000000cd8 .LASF120
     /tmp/ccgOIs85.s:6198   .debug_str:0000000000000c88 .LASF121
     /tmp/ccgOIs85.s:5934   .debug_str:0000000000000491 .LASF123
     /tmp/ccgOIs85.s:6206   .debug_str:0000000000000cc4 .LASF214
     /tmp/ccgOIs85.s:6142   .debug_str:0000000000000b00 .LASF125
     /tmp/ccgOIs85.s:6044   .debug_str:0000000000000798 .LASF127
     /tmp/ccgOIs85.s:5826   .debug_str:000000000000015b .LASF128
     /tmp/ccgOIs85.s:5820   .debug_str:0000000000000121 .LASF129
     /tmp/ccgOIs85.s:5984   .debug_str:00000000000005eb .LASF130
     /tmp/ccgOIs85.s:5864   .debug_str:0000000000000271 .LASF131
     /tmp/ccgOIs85.s:6168   .debug_str:0000000000000bb0 .LASF132
     /tmp/ccgOIs85.s:6078   .debug_str:00000000000008a2 .LASF141
     /tmp/ccgOIs85.s:6212   .debug_str:0000000000000ceb .LASF143
     /tmp/ccgOIs85.s:6120   .debug_str:00000000000009a2 .LASF133
     /tmp/ccgOIs85.s:6034   .debug_str:0000000000000756 .LASF134
     /tmp/ccgOIs85.s:6074   .debug_str:000000000000087b .LASF136
     /tmp/ccgOIs85.s:5856   .debug_str:0000000000000228 .LASF137
     /tmp/ccgOIs85.s:5806   .debug_str:0000000000000099 .LASF138
     /tmp/ccgOIs85.s:5896   .debug_str:0000000000000350 .LASF139
     /tmp/ccgOIs85.s:5940   .debug_str:00000000000004c3 .LASF215
     /tmp/ccgOIs85.s:5930   .debug_str:000000000000047f .LASF140
     /tmp/ccgOIs85.s:5862   .debug_str:000000000000025f .LASF142
     /tmp/ccgOIs85.s:6050   .debug_str:00000000000007d3 .LASF144
     /tmp/ccgOIs85.s:6222   .debug_str:0000000000000d36 .LASF145
     /tmp/ccgOIs85.s:6080   .debug_str:00000000000008b7 .LASF146
     /tmp/ccgOIs85.s:6088   .debug_str:00000000000008e3 .LASF147
GAS LISTING /tmp/ccgOIs85.s 			page 44


     /tmp/ccgOIs85.s:5976   .debug_str:00000000000005aa .LASF148
     /tmp/ccgOIs85.s:6122   .debug_str:00000000000009b4 .LASF149
     /tmp/ccgOIs85.s:6028   .debug_str:0000000000000715 .LASF150
     /tmp/ccgOIs85.s:6018   .debug_str:00000000000006c1 .LASF151
     /tmp/ccgOIs85.s:5822   .debug_str:0000000000000142 .LASF152
     /tmp/ccgOIs85.s:6134   .debug_str:0000000000000abc .LASF153
     /tmp/ccgOIs85.s:5950   .debug_str:00000000000004f3 .LASF154
     /tmp/ccgOIs85.s:5938   .debug_str:00000000000004b2 .LASF216
     /tmp/ccgOIs85.s:5792   .debug_str:0000000000000037 .LASF155
     /tmp/ccgOIs85.s:6126   .debug_str:00000000000009ca .LASF157
     /tmp/ccgOIs85.s:5858   .debug_str:000000000000023d .LASF158
     /tmp/ccgOIs85.s:6152   .debug_str:0000000000000b41 .LASF159
     /tmp/ccgOIs85.s:6158   .debug_str:0000000000000b76 .LASF160
     /tmp/ccgOIs85.s:6118   .debug_str:0000000000000998 .LASF161
     /tmp/ccgOIs85.s:5916   .debug_str:0000000000000401 .LASF162
     /tmp/ccgOIs85.s:5960   .debug_str:0000000000000541 .LASF163
     /tmp/ccgOIs85.s:5922   .debug_str:0000000000000445 .LASF164
     /tmp/ccgOIs85.s:5788   .debug_str:0000000000000000 .LASF217
     /tmp/ccgOIs85.s:5832   .debug_str:000000000000017d .LASF165
     /tmp/ccgOIs85.s:6008   .debug_str:000000000000068a .LASF166
     /tmp/ccgOIs85.s:5988   .debug_str:00000000000005fd .LASF218
     /tmp/ccgOIs85.s:5908   .debug_str:00000000000003cd .LASF167
     /tmp/ccgOIs85.s:5802   .debug_str:0000000000000088 .LASF168
     /tmp/ccgOIs85.s:6224   .debug_str:0000000000000d4d .LASF169
     /tmp/ccgOIs85.s:507    .text._ZN14PeriodicThreadD0Ev:0000000000000000 .LFB78
     /tmp/ccgOIs85.s:547    .text._ZN14PeriodicThreadD0Ev:000000000000004c .LFE78
     /tmp/ccgOIs85.s:5238   .debug_loc:0000000000000000 .LLST12
     /tmp/ccgOIs85.s:523    .text._ZN14PeriodicThreadD0Ev:0000000000000018 .LBB73
     /tmp/ccgOIs85.s:531    .text._ZN14PeriodicThreadD0Ev:000000000000002c .LBE73
     /tmp/ccgOIs85.s:5256   .debug_loc:000000000000004c .LLST13
     /tmp/ccgOIs85.s:529    .text._ZN14PeriodicThreadD0Ev:000000000000002c .LVL37
     /tmp/ccgOIs85.s:534    .text._ZN14PeriodicThreadD0Ev:0000000000000038 .LVL38
     /tmp/ccgOIs85.s:6054   .debug_str:00000000000007e7 .LASF170
     /tmp/ccgOIs85.s:216    .text._ZN14PeriodicThreadD2Ev:0000000000000000 .LFB76
     /tmp/ccgOIs85.s:244    .text._ZN14PeriodicThreadD2Ev:0000000000000034 .LFE76
     /tmp/ccgOIs85.s:5267   .debug_loc:0000000000000082 .LLST4
     /tmp/ccgOIs85.s:233    .text._ZN14PeriodicThreadD2Ev:0000000000000024 .LVL15
     /tmp/ccgOIs85.s:1232   .text:0000000000000528 .LFB74
     /tmp/ccgOIs85.s:1258   .text:0000000000000550 .LFE74
     /tmp/ccgOIs85.s:5281   .debug_loc:00000000000000bb .LLST31
     /tmp/ccgOIs85.s:1247   .text:0000000000000540 .LVL90
     /tmp/ccgOIs85.s:1201   .text:0000000000000500 .LFB73
     /tmp/ccgOIs85.s:1226   .text:0000000000000528 .LFE73
     /tmp/ccgOIs85.s:1215   .text:0000000000000518 .LVL88
     /tmp/ccgOIs85.s:6092   .debug_str:00000000000008f7 .LASF171
     /tmp/ccgOIs85.s:1158   .text:00000000000004c0 .LFB71
     /tmp/ccgOIs85.s:1193   .text:0000000000000500 .LFE71
     /tmp/ccgOIs85.s:5295   .debug_loc:00000000000000f4 .LLST29
     /tmp/ccgOIs85.s:5313   .debug_loc:0000000000000140 .LLST30
     /tmp/ccgOIs85.s:1176   .text:00000000000004e0 .LVL86
     /tmp/ccgOIs85.s:1134   .text:00000000000004a8 .LFB69
     /tmp/ccgOIs85.s:1152   .text:00000000000004c0 .LFE69
     /tmp/ccgOIs85.s:1100   .text:000000000000047c .LFB68
     /tmp/ccgOIs85.s:1128   .text:00000000000004a8 .LFE68
     /tmp/ccgOIs85.s:5327   .debug_loc:0000000000000179 .LLST28
     /tmp/ccgOIs85.s:1117   .text:0000000000000498 .LVL83
     /tmp/ccgOIs85.s:1066   .text:0000000000000450 .LFB67
GAS LISTING /tmp/ccgOIs85.s 			page 45


     /tmp/ccgOIs85.s:1094   .text:000000000000047c .LFE67
     /tmp/ccgOIs85.s:5341   .debug_loc:00000000000001b2 .LLST27
     /tmp/ccgOIs85.s:1083   .text:000000000000046c .LVL80
     /tmp/ccgOIs85.s:5980   .debug_str:00000000000005ca .LASF172
     /tmp/ccgOIs85.s:554    .text:00000000000001dc .LFB66
     /tmp/ccgOIs85.s:587    .text:000000000000021c .LFE66
     /tmp/ccgOIs85.s:5355   .debug_loc:00000000000001eb .LLST14
     /tmp/ccgOIs85.s:571    .text:00000000000001fc .LVL41
     /tmp/ccgOIs85.s:574    .text:0000000000000208 .LVL42
     /tmp/ccgOIs85.s:5814   .debug_str:00000000000000f1 .LASF173
     /tmp/ccgOIs85.s:253    .text:00000000000000ac .LFB64
     /tmp/ccgOIs85.s:347    .text:0000000000000124 .LFE64
     /tmp/ccgOIs85.s:5373   .debug_loc:0000000000000237 .LLST5
     /tmp/ccgOIs85.s:287    .text:00000000000000e4 .LBB65
     /tmp/ccgOIs85.s:328    .text:0000000000000104 .LBE65
     /tmp/ccgOIs85.s:288    .text:00000000000000e4 .LBB66
     /tmp/ccgOIs85.s:327    .text:0000000000000104 .LBE66
     /tmp/ccgOIs85.s:293    .text:00000000000000e4 .LBB68
     /tmp/ccgOIs85.s:299    .text:00000000000000e8 .LBE68
     /tmp/ccgOIs85.s:302    .text:00000000000000ec .LBB70
     /tmp/ccgOIs85.s:325    .text:0000000000000104 .LBE70
     /tmp/ccgOIs85.s:5391   .debug_loc:0000000000000283 .LLST6
     /tmp/ccgOIs85.s:314    .text:00000000000000f8 .LBB71
     /tmp/ccgOIs85.s:324    .text:0000000000000104 .LBE71
     /tmp/ccgOIs85.s:5398   .debug_loc:00000000000002a6 .LLST7
     /tmp/ccgOIs85.s:319    .text:0000000000000100 .LVL23
     /tmp/ccgOIs85.s:279    .text:00000000000000dc .LVL18
     /tmp/ccgOIs85.s:332    .text:0000000000000110 .LVL24
     /tmp/ccgOIs85.s:5844   .debug_str:00000000000001d6 .LASF180
     /tmp/ccgOIs85.s:5830   .debug_str:0000000000000178 .LASF174
     /tmp/ccgOIs85.s:5854   .debug_str:0000000000000216 .LASF175
     /tmp/ccgOIs85.s:1025   .text:0000000000000418 .LFB58
     /tmp/ccgOIs85.s:1058   .text:0000000000000450 .LFE58
     /tmp/ccgOIs85.s:5405   .debug_loc:00000000000002c9 .LLST25
     /tmp/ccgOIs85.s:5425   .debug_loc:0000000000000317 .LLST26
     /tmp/ccgOIs85.s:1046   .text:0000000000000440 .LVL77
     /tmp/ccgOIs85.s:62     .text:0000000000000000 .LFB56
     /tmp/ccgOIs85.s:98     .text:0000000000000034 .LFE56
     /tmp/ccgOIs85.s:6052   .debug_str:00000000000007e0 .LASF176
     /tmp/ccgOIs85.s:5439   .debug_loc:0000000000000350 .LLST0
     /tmp/ccgOIs85.s:84     .text:0000000000000020 .LVL3
     /tmp/ccgOIs85.s:6058   .debug_str:000000000000080d .LASF177
     /tmp/ccgOIs85.s:918    .text:000000000000039c .LFB54
     /tmp/ccgOIs85.s:1017   .text:0000000000000418 .LFE54
     /tmp/ccgOIs85.s:5457   .debug_loc:000000000000039c .LLST23
     /tmp/ccgOIs85.s:953    .text:00000000000003dc .LVL70
     /tmp/ccgOIs85.s:937    .text:00000000000003c0 .LBB80
     /tmp/ccgOIs85.s:1002   .text:0000000000000404 .LBE80
     /tmp/ccgOIs85.s:5481   .debug_loc:00000000000003fd .LLST24
     /tmp/ccgOIs85.s:880    .text:0000000000000360 .LFB52
     /tmp/ccgOIs85.s:912    .text:000000000000039c .LFE52
     /tmp/ccgOIs85.s:5493   .debug_loc:0000000000000434 .LLST22
     /tmp/ccgOIs85.s:899    .text:0000000000000388 .LVL66
     /tmp/ccgOIs85.s:849    .text:0000000000000338 .LFB51
     /tmp/ccgOIs85.s:874    .text:0000000000000360 .LFE51
     /tmp/ccgOIs85.s:863    .text:0000000000000350 .LVL63
     /tmp/ccgOIs85.s:815    .text:000000000000030c .LFB50
GAS LISTING /tmp/ccgOIs85.s 			page 46


     /tmp/ccgOIs85.s:843    .text:0000000000000338 .LFE50
     /tmp/ccgOIs85.s:5511   .debug_loc:0000000000000480 .LLST21
     /tmp/ccgOIs85.s:832    .text:0000000000000328 .LVL62
     /tmp/ccgOIs85.s:756    .text:00000000000002d4 .LFB49
     /tmp/ccgOIs85.s:809    .text:000000000000030c .LFE49
     /tmp/ccgOIs85.s:5525   .debug_loc:00000000000004b9 .LLST20
     /tmp/ccgOIs85.s:5982   .debug_str:00000000000005dc .LASF178
     /tmp/ccgOIs85.s:467    .text:000000000000019c .LFB48
     /tmp/ccgOIs85.s:500    .text:00000000000001dc .LFE48
     /tmp/ccgOIs85.s:5550   .debug_loc:000000000000051b .LLST11
     /tmp/ccgOIs85.s:484    .text:00000000000001bc .LVL32
     /tmp/ccgOIs85.s:487    .text:00000000000001c8 .LVL33
     /tmp/ccgOIs85.s:6192   .debug_str:0000000000000c60 .LASF179
     /tmp/ccgOIs85.s:104    .text:0000000000000034 .LFB46
     /tmp/ccgOIs85.s:199    .text:00000000000000ac .LFE46
     /tmp/ccgOIs85.s:5568   .debug_loc:0000000000000567 .LLST1
     /tmp/ccgOIs85.s:138    .text:000000000000006c .LBB55
     /tmp/ccgOIs85.s:180    .text:000000000000008c .LBE55
     /tmp/ccgOIs85.s:139    .text:000000000000006c .LBB56
     /tmp/ccgOIs85.s:179    .text:000000000000008c .LBE56
     /tmp/ccgOIs85.s:145    .text:000000000000006c .LBB58
     /tmp/ccgOIs85.s:151    .text:0000000000000070 .LBE58
     /tmp/ccgOIs85.s:154    .text:0000000000000074 .LBB60
     /tmp/ccgOIs85.s:177    .text:000000000000008c .LBE60
     /tmp/ccgOIs85.s:5586   .debug_loc:00000000000005b3 .LLST2
     /tmp/ccgOIs85.s:166    .text:0000000000000080 .LBB61
     /tmp/ccgOIs85.s:176    .text:000000000000008c .LBE61
     /tmp/ccgOIs85.s:5593   .debug_loc:00000000000005d6 .LLST3
     /tmp/ccgOIs85.s:171    .text:0000000000000088 .LVL12
     /tmp/ccgOIs85.s:130    .text:0000000000000064 .LVL7
     /tmp/ccgOIs85.s:184    .text:0000000000000098 .LVL13
     /tmp/ccgOIs85.s:5996   .debug_str:000000000000062c .LASF181
     /tmp/ccgOIs85.s:6138   .debug_str:0000000000000adf .LASF182
     /tmp/ccgOIs85.s:634    .text:0000000000000244 .LFB40
     /tmp/ccgOIs85.s:748    .text:00000000000002d4 .LFE40
     /tmp/ccgOIs85.s:5600   .debug_loc:00000000000005f9 .LLST16
     /tmp/ccgOIs85.s:5628   .debug_loc:000000000000066d .LLST17
     /tmp/ccgOIs85.s:5650   .debug_loc:00000000000006cc .LLST18
     /tmp/ccgOIs85.s:675    .text:0000000000000290 .LVL49
     /tmp/ccgOIs85.s:5672   .debug_loc:000000000000072b .LLST19
     /tmp/ccgOIs85.s:6214   .debug_str:0000000000000cfb .LASF183
     /tmp/ccgOIs85.s:5958   .debug_str:000000000000053a .LASF184
     /tmp/ccgOIs85.s:593    .text:000000000000021c .LFB38
     /tmp/ccgOIs85.s:621    .text:0000000000000244 .LFE38
     /tmp/ccgOIs85.s:5689   .debug_loc:0000000000000776 .LLST15
     /tmp/ccgOIs85.s:610    .text:0000000000000234 .LVL45
     /tmp/ccgOIs85.s:6014   .debug_str:00000000000006b5 .LASF185
     /tmp/ccgOIs85.s:426    .text:0000000000000174 .LFB37
     /tmp/ccgOIs85.s:454    .text:000000000000019c .LFE37
     /tmp/ccgOIs85.s:5703   .debug_loc:00000000000007af .LLST10
     /tmp/ccgOIs85.s:443    .text:000000000000018c .LVL30
     /tmp/ccgOIs85.s:5840   .debug_str:00000000000001b5 .LASF186
     /tmp/ccgOIs85.s:6114   .debug_str:000000000000098d .LASF187
     /tmp/ccgOIs85.s:394    .text:000000000000014c .LFB36
     /tmp/ccgOIs85.s:420    .text:0000000000000174 .LFE36
     /tmp/ccgOIs85.s:5872   .debug_str:00000000000002c0 .LASF188
     /tmp/ccgOIs85.s:5717   .debug_loc:00000000000007e8 .LLST9
GAS LISTING /tmp/ccgOIs85.s 			page 47


     /tmp/ccgOIs85.s:409    .text:0000000000000164 .LVL28
     /tmp/ccgOIs85.s:6164   .debug_str:0000000000000ba5 .LASF189
     /tmp/ccgOIs85.s:362    .text:0000000000000124 .LFB35
     /tmp/ccgOIs85.s:388    .text:000000000000014c .LFE35
     /tmp/ccgOIs85.s:5731   .debug_loc:0000000000000821 .LLST8
     /tmp/ccgOIs85.s:377    .text:000000000000013c .LVL26
     /tmp/ccgOIs85.s:6062   .debug_str:0000000000000826 .LASF190
     /tmp/ccgOIs85.s:5914   .debug_str:00000000000003ec .LASF191
     /tmp/ccgOIs85.s:37     .text._ZN14PeriodicThread18periodicActivationEv:0000000000000000 .LFB1
     /tmp/ccgOIs85.s:55     .text._ZN14PeriodicThread18periodicActivationEv:0000000000000018 .LFE1
     /tmp/ccgOIs85.s:11     .text._ZN6Thread3runEv:0000000000000000 .LFB0
     /tmp/ccgOIs85.s:30     .text._ZN6Thread3runEv:0000000000000018 .LFE0
     /tmp/ccgOIs85.s:6098   .debug_str:0000000000000928 .LASF192
     /tmp/ccgOIs85.s:6174   .debug_str:0000000000000bca .LASF193
     /tmp/ccgOIs85.s:6048   .debug_str:00000000000007be .LASF194
     /tmp/ccgOIs85.s:5928   .debug_str:0000000000000474 .LASF195
     /tmp/ccgOIs85.s:6216   .debug_str:0000000000000d0e .LASF196
     /tmp/ccgOIs85.s:6220   .debug_str:0000000000000d2d .LASF197
     /tmp/ccgOIs85.s:6202   .debug_str:0000000000000cb0 .LASF198
     /tmp/ccgOIs85.s:5936   .debug_str:00000000000004a9 .LASF199
     /tmp/ccgOIs85.s:5824   .debug_str:0000000000000148 .LASF200
     /tmp/ccgOIs85.s:6036   .debug_str:0000000000000761 .LASF201
     /tmp/ccgOIs85.s:6032   .debug_str:0000000000000742 .LASF202
     /tmp/ccgOIs85.s:5816   .debug_str:0000000000000103 .LASF203
     /tmp/ccgOIs85.s:5926   .debug_str:0000000000000466 .LASF204
     /tmp/ccgOIs85.s:5994   .debug_str:0000000000000622 .LASF205
     /tmp/ccgOIs85.s:6182   .debug_str:0000000000000c00 .LASF206
     /tmp/ccgOIs85.s:6040   .debug_str:0000000000000783 .LASF207
     /tmp/ccgOIs85.s:6076   .debug_str:000000000000088d .LASF208
     /tmp/ccgOIs85.s:6006   .debug_str:000000000000067e .LASF209
     /tmp/ccgOIs85.s:510    .text._ZN14PeriodicThreadD0Ev:0000000000000000 .LVL35
     /tmp/ccgOIs85.s:542    .text._ZN14PeriodicThreadD0Ev:0000000000000044 .LVL39
     /tmp/ccgOIs85.s:522    .text._ZN14PeriodicThreadD0Ev:0000000000000018 .LVL36
     /tmp/ccgOIs85.s:219    .text._ZN14PeriodicThreadD2Ev:0000000000000000 .LVL14
     /tmp/ccgOIs85.s:1235   .text:0000000000000528 .LVL89
     /tmp/ccgOIs85.s:1161   .text:00000000000004c0 .LVL85
     /tmp/ccgOIs85.s:1188   .text:00000000000004f8 .LVL87
     /tmp/ccgOIs85.s:1103   .text:000000000000047c .LVL81
     /tmp/ccgOIs85.s:1115   .text:0000000000000490 .LVL82
     /tmp/ccgOIs85.s:1069   .text:0000000000000450 .LVL78
     /tmp/ccgOIs85.s:1081   .text:0000000000000464 .LVL79
     /tmp/ccgOIs85.s:557    .text:00000000000001dc .LVL40
     /tmp/ccgOIs85.s:582    .text:0000000000000214 .LVL43
     /tmp/ccgOIs85.s:258    .text:00000000000000ac .LVL16
     /tmp/ccgOIs85.s:277    .text:00000000000000d4 .LVL17
     /tmp/ccgOIs85.s:283    .text:00000000000000e0 .LVL19
     /tmp/ccgOIs85.s:304    .text:00000000000000ec .LVL21
     /tmp/ccgOIs85.s:313    .text:00000000000000f8 .LVL22
     /tmp/ccgOIs85.s:1028   .text:0000000000000418 .LVL75
     /tmp/ccgOIs85.s:1044   .text:0000000000000438 .LVL76
     /tmp/ccgOIs85.s:66     .text:0000000000000000 .LVL2
     /tmp/ccgOIs85.s:94     .text:0000000000000030 .LVL4
     /tmp/ccgOIs85.s:921    .text:000000000000039c .LVL67
     /tmp/ccgOIs85.s:951    .text:00000000000003d4 .LVL69
     /tmp/ccgOIs85.s:985    .text:00000000000003f8 .LVL73
     /tmp/ccgOIs85.s:1012   .text:0000000000000410 .LVL74
     /tmp/ccgOIs85.s:946    .text:00000000000003d0 .LVL68
GAS LISTING /tmp/ccgOIs85.s 			page 48


     /tmp/ccgOIs85.s:955    .text:00000000000003e0 .LVL71
     /tmp/ccgOIs85.s:966    .text:00000000000003e8 .LVL72
     /tmp/ccgOIs85.s:883    .text:0000000000000360 .LVL64
     /tmp/ccgOIs85.s:897    .text:0000000000000380 .LVL65
     /tmp/ccgOIs85.s:818    .text:000000000000030c .LVL60
     /tmp/ccgOIs85.s:830    .text:0000000000000320 .LVL61
     /tmp/ccgOIs85.s:759    .text:00000000000002d4 .LVL56
     /tmp/ccgOIs85.s:777    .text:00000000000002ec .LVL57
     /tmp/ccgOIs85.s:801    .text:0000000000000304 .LVL58
     /tmp/ccgOIs85.s:806    .text:0000000000000308 .LVL59
     /tmp/ccgOIs85.s:470    .text:000000000000019c .LVL31
     /tmp/ccgOIs85.s:495    .text:00000000000001d4 .LVL34
     /tmp/ccgOIs85.s:109    .text:0000000000000034 .LVL5
     /tmp/ccgOIs85.s:128    .text:000000000000005c .LVL6
     /tmp/ccgOIs85.s:134    .text:0000000000000068 .LVL8
     /tmp/ccgOIs85.s:156    .text:0000000000000074 .LVL10
     /tmp/ccgOIs85.s:165    .text:0000000000000080 .LVL11
     /tmp/ccgOIs85.s:637    .text:0000000000000244 .LVL46
     /tmp/ccgOIs85.s:673    .text:0000000000000288 .LVL48
     /tmp/ccgOIs85.s:699    .text:00000000000002a4 .LVL51
     /tmp/ccgOIs85.s:727    .text:00000000000002bc .LVL52
     /tmp/ccgOIs85.s:737    .text:00000000000002cc .LVL55
     /tmp/ccgOIs85.s:730    .text:00000000000002c0 .LVL53
     /tmp/ccgOIs85.s:733    .text:00000000000002c4 .LVL54
     /tmp/ccgOIs85.s:667    .text:0000000000000280 .LVL47
     /tmp/ccgOIs85.s:677    .text:0000000000000294 .LVL50
     /tmp/ccgOIs85.s:598    .text:000000000000021c .LVL44
     /tmp/ccgOIs85.s:431    .text:0000000000000174 .LVL29
     /tmp/ccgOIs85.s:397    .text:000000000000014c .LVL27
     /tmp/ccgOIs85.s:365    .text:0000000000000124 .LVL25
     /tmp/ccgOIs85.s:1301   .debug_info:0000000000000000 .Ldebug_info0
     /tmp/ccgOIs85.s:5      .text:0000000000000000 .Ltext0
     /tmp/ccgOIs85.s:1294   .text:0000000000000550 .Letext0
     /tmp/ccgOIs85.s:659    .text:0000000000000278 .LBB76
     /tmp/ccgOIs85.s:716    .text:00000000000002b0 .LBE76
     /tmp/ccgOIs85.s:741    .text:00000000000002cc .LBB77
     /tmp/ccgOIs85.s:745    .text:00000000000002d4 .LBE77
     /tmp/ccgOIs85.s:202    .gcc_except_table:0000000000000000 .LLSDA46
     /tmp/ccgOIs85.s:349    .gcc_except_table:0000000000000004 .LLSDA64
     /tmp/ccgOIs85.s:456    .gcc_except_table:0000000000000008 .LLSDA37
     /tmp/ccgOIs85.s:623    .gcc_except_table:000000000000000c .LLSDA38
                           .group:0000000000000000 _ZN14PeriodicThreadD5Ev

UNDEFINED SYMBOLS
_Z11thread_joinP3TCB
_Z8mem_freePv
_ZN3TCBdlEPv
__gxx_personality_v0
_Z9sem_closeP4KSem
_ZN4KSemdlEPv
_Z9mem_allocm
_Z15thread_dispatchv
_ZN3TCB7runningE
_ZN9Scheduler10putToSleepEP3TCBm
_Z8sem_openPP4KSemj
_Z8sem_waitP4KSem
_Z10sem_signalP4KSem
GAS LISTING /tmp/ccgOIs85.s 			page 49


_Z4getcv
_Z4putcc
