GAS LISTING /tmp/ccLwsblc.s 			page 1


   1              		.file	"syscall_c.cpp"
   2              		.option pic
   3              		.option norelax
   4              		.text
   5              	.Ltext0:
   6              		.align	2
   7              		.globl	_Z9mem_allocm
   9              	_Z9mem_allocm:
  10              	.LFB32:
  11              		.file 1 "src/syscall_c.cpp"
   1:src/syscall_c.cpp **** #include "../h/syscall_c.hpp"
   2:src/syscall_c.cpp **** #include "../h/Riscv.hpp"
   3:src/syscall_c.cpp **** #include "../lib/console.h"
   4:src/syscall_c.cpp **** #include "../h/TCB.hpp"
   5:src/syscall_c.cpp **** 
   6:src/syscall_c.cpp **** int main();
   7:src/syscall_c.cpp **** //poziv ecall, prelazak u sistemski rezim i odlazak u prekidnu rutinu
   8:src/syscall_c.cpp **** inline void scall() {
   9:src/syscall_c.cpp ****     __asm__ volatile("ecall");
  10:src/syscall_c.cpp **** }
  11:src/syscall_c.cpp **** 
  12:src/syscall_c.cpp **** void* mem_alloc(size_t size) {
  12              		.loc 1 12 30
  13              		.cfi_startproc
  14              	.LVL0:
  15 0000 130101FF 		addi	sp,sp,-16
  16              		.cfi_def_cfa_offset 16
  17 0004 23348100 		sd	s0,8(sp)
  18              		.cfi_offset 8, -8
  19 0008 13040101 		addi	s0,sp,16
  20              		.cfi_def_cfa 8, 0
  13:src/syscall_c.cpp ****     //na size se dodaje zaglavlje segmenta
  14:src/syscall_c.cpp ****     //size += sizeof(MemoryAllocator::UsedMemSegment);
  15:src/syscall_c.cpp ****     size += 2 * sizeof(uint64);
  21              		.loc 1 15 5
  22              		.loc 1 15 10 is_stmt 0
  23 000c 13050501 		addi	a0,a0,16
  24              	.LVL1:
  16:src/syscall_c.cpp ****     //size je u bajtovima, pretvara se u blokove
  17:src/syscall_c.cpp ****     size = size / MEM_BLOCK_SIZE + (size % MEM_BLOCK_SIZE ? 1 : 0);
  25              		.loc 1 17 5 is_stmt 1
  26              		.loc 1 17 17 is_stmt 0
  27 0010 13536500 		srli	t1,a0,6
  28              		.loc 1 17 42
  29 0014 1375F503 		andi	a0,a0,63
  30              	.LVL2:
  31              		.loc 1 17 59
  32 0018 63040500 		beqz	a0,.L2
  33 001c 13051000 		li	a0,1
  34              	.L2:
  35              		.loc 1 17 10 discriminator 4
  36 0020 3303A300 		add	t1,t1,a0
  37              	.LVL3:
  18:src/syscall_c.cpp **** 
  19:src/syscall_c.cpp ****     //stavljanje argumenata za sistemski poziv
  20:src/syscall_c.cpp ****     __asm__ volatile("mv a1, %[size]": :[size] "r"(size):"a5", "a0", "a1", "a2", "a3", "a4", "a6", 
  38              		.loc 1 20 5 is_stmt 1 discriminator 4
GAS LISTING /tmp/ccLwsblc.s 			page 2


  39              		.loc 1 20 105 is_stmt 0 discriminator 4
  40              	#APP
  41              	# 20 "src/syscall_c.cpp" 1
  21              	    __asm__ volatile("li a0, 0x01");
  42              		mv a1, t1
  43              	# 0 "" 2
  44              		.loc 1 21 5 is_stmt 1 discriminator 4
  45              		.loc 1 21 36 is_stmt 0 discriminator 4
  46              	# 21 "src/syscall_c.cpp" 1
  22              	    //a0 = 0x01
  23:src/syscall_c.cpp ****     //a1 = broj blokova velicine MEM_BLOCK_SIZE za alokaciju
  24:src/syscall_c.cpp **** 
  25:src/syscall_c.cpp ****     scall();
  47              		li a0, 0x01
  48              	# 0 "" 2
  49              		.loc 1 25 5 is_stmt 1 discriminator 4
  50              	#NO_APP
  51              	.LBB28:
  52              	.LBB29:
   9:src/syscall_c.cpp **** }
  53              		.loc 1 9 5 discriminator 4
   9:src/syscall_c.cpp **** }
  54              		.loc 1 9 30 is_stmt 0 discriminator 4
  55              	#APP
  56              	# 9 "src/syscall_c.cpp" 1
  57              		ecall
  58              	# 0 "" 2
  59              	#NO_APP
  60              	.LBE29:
  61              	.LBE28:
  26:src/syscall_c.cpp **** 
  27:src/syscall_c.cpp ****     //vraceni pokazivac pokazuje iza zaglavlja koriscenog segmenta,
  28:src/syscall_c.cpp ****     //na prvu adresu u koju korisnik sme nesto upisati
  29:src/syscall_c.cpp ****     void* ret;
  62              		.loc 1 29 5 is_stmt 1 discriminator 4
  30:src/syscall_c.cpp ****     __asm__ volatile("mv %[ptr], a0":[ptr] "=r"(ret));
  63              		.loc 1 30 5 discriminator 4
  64              		.loc 1 30 54 is_stmt 0 discriminator 4
  65              	#APP
  66              	# 30 "src/syscall_c.cpp" 1
  31              	    return ret;
  67              		mv a0, a0
  68              	# 0 "" 2
  69              	.LVL4:
  70              		.loc 1 31 5 is_stmt 1 discriminator 4
  32:src/syscall_c.cpp **** }
  71              		.loc 1 32 1 is_stmt 0 discriminator 4
  72              	#NO_APP
  73 0034 03348100 		ld	s0,8(sp)
  74              		.cfi_restore 8
  75              		.cfi_def_cfa 2, 16
  76 0038 13010101 		addi	sp,sp,16
  77              		.cfi_def_cfa_offset 0
  78 003c 67800000 		jr	ra
  79              		.cfi_endproc
  80              	.LFE32:
  82              		.align	2
GAS LISTING /tmp/ccLwsblc.s 			page 3


  83              		.globl	_Z8mem_freePv
  85              	_Z8mem_freePv:
  86              	.LFB33:
  33:src/syscall_c.cpp **** 
  34:src/syscall_c.cpp **** int mem_free(void* ptr) {
  87              		.loc 1 34 25 is_stmt 1
  88              		.cfi_startproc
  89              	.LVL5:
  90 0040 130101FF 		addi	sp,sp,-16
  91              		.cfi_def_cfa_offset 16
  92 0044 23348100 		sd	s0,8(sp)
  93              		.cfi_offset 8, -8
  94 0048 13040101 		addi	s0,sp,16
  95              		.cfi_def_cfa 8, 0
  96 004c 13030500 		mv	t1,a0
  35:src/syscall_c.cpp ****     //stavljanje argumenata za sistemski poziv
  36:src/syscall_c.cpp ****     __asm__ volatile("mv a1, %[ptr]": :[ptr] "r"(ptr):"a5", "a0", "a1", "a2", "a3", "a4", "a6", "a7
  97              		.loc 1 36 5
  98              		.loc 1 36 102 is_stmt 0
  99              	#APP
 100              	# 36 "src/syscall_c.cpp" 1
  37              	    __asm__ volatile("li a0, 0x02");
 101              		mv a1, t1
 102              	# 0 "" 2
 103              	.LVL6:
 104              		.loc 1 37 5 is_stmt 1
 105              		.loc 1 37 36 is_stmt 0
 106              	# 37 "src/syscall_c.cpp" 1
  38              	    //a0 = 0x02
  39:src/syscall_c.cpp ****     //a1 = pokazivac na memoriju koju treba dealocirati, dobijen pomocu mem_alloc
  40:src/syscall_c.cpp **** 
  41:src/syscall_c.cpp ****     scall();
 107              		li a0, 0x02
 108              	# 0 "" 2
 109              		.loc 1 41 5 is_stmt 1
 110              	#NO_APP
 111              	.LBB30:
 112              	.LBB31:
   9:src/syscall_c.cpp **** }
 113              		.loc 1 9 5
   9:src/syscall_c.cpp **** }
 114              		.loc 1 9 30 is_stmt 0
 115              	#APP
 116              	# 9 "src/syscall_c.cpp" 1
 117              		ecall
 118              	# 0 "" 2
 119              	#NO_APP
 120              	.LBE31:
 121              	.LBE30:
  42:src/syscall_c.cpp **** 
  43:src/syscall_c.cpp ****     int status;
 122              		.loc 1 43 5 is_stmt 1
  44:src/syscall_c.cpp ****     __asm__ volatile("mv %[status], a0":[status] "=r"(status));
 123              		.loc 1 44 5
 124              		.loc 1 44 63 is_stmt 0
 125              	#APP
 126              	# 44 "src/syscall_c.cpp" 1
GAS LISTING /tmp/ccLwsblc.s 			page 4


  45              	    return status;
 127              		mv a0, a0
 128              	# 0 "" 2
 129              	.LVL7:
 130              		.loc 1 45 5 is_stmt 1
  46:src/syscall_c.cpp **** }
 131              		.loc 1 46 1 is_stmt 0
 132              	#NO_APP
 133 0060 1B050500 		sext.w	a0,a0
 134 0064 03348100 		ld	s0,8(sp)
 135              		.cfi_restore 8
 136              		.cfi_def_cfa 2, 16
 137 0068 13010101 		addi	sp,sp,16
 138              		.cfi_def_cfa_offset 0
 139 006c 67800000 		jr	ra
 140              		.cfi_endproc
 141              	.LFE33:
 143              		.align	2
 144              		.globl	_Z13thread_createPP3TCBPFvPvES2_
 146              	_Z13thread_createPP3TCBPFvPvES2_:
 147              	.LFB34:
  47:src/syscall_c.cpp **** 
  48:src/syscall_c.cpp **** int thread_create(thread_t* handle, void (* start_routine)(void*), void* arg) {
 148              		.loc 1 48 79 is_stmt 1
 149              		.cfi_startproc
 150              	.LVL8:
 151 0070 130101FD 		addi	sp,sp,-48
 152              		.cfi_def_cfa_offset 48
 153 0074 23341102 		sd	ra,40(sp)
 154 0078 23308102 		sd	s0,32(sp)
 155 007c 233C9100 		sd	s1,24(sp)
 156 0080 23382101 		sd	s2,16(sp)
 157 0084 23343101 		sd	s3,8(sp)
 158              		.cfi_offset 1, -8
 159              		.cfi_offset 8, -16
 160              		.cfi_offset 9, -24
 161              		.cfi_offset 18, -32
 162              		.cfi_offset 19, -40
 163 0088 13040103 		addi	s0,sp,48
 164              		.cfi_def_cfa 8, 0
 165 008c 13090500 		mv	s2,a0
 166 0090 93840500 		mv	s1,a1
 167 0094 93090600 		mv	s3,a2
  49:src/syscall_c.cpp ****     //stvaranje steka ako se ne radi o main kernel niti, posto ona automatski ima stek
  50:src/syscall_c.cpp ****     uint64* stack = nullptr;
 168              		.loc 1 50 5
 169              	.LVL9:
  51:src/syscall_c.cpp ****     if (start_routine != (TCB::Body)main) {
 170              		.loc 1 51 5
 171 0098 97070000 		la	a5,main
 171      83B70700 
 172 00a0 638AF504 		beq	a1,a5,.L9
  52:src/syscall_c.cpp ****         stack = (uint64*)mem_alloc(DEFAULT_STACK_SIZE);
 173              		.loc 1 52 9
 174              		.loc 1 52 35 is_stmt 0
 175 00a4 37150000 		li	a0,4096
 176              	.LVL10:
GAS LISTING /tmp/ccLwsblc.s 			page 5


 177 00a8 97000000 		call	_Z9mem_allocm
 177      E7800000 
 178              	.LVL11:
 179 00b0 13030500 		mv	t1,a0
 180              	.LVL12:
  53:src/syscall_c.cpp ****         if(!stack) return -1;
 181              		.loc 1 53 9 is_stmt 1
 182 00b4 63040504 		beqz	a0,.L12
 183              	.LVL13:
 184              	.L7:
  54:src/syscall_c.cpp ****     }
  55:src/syscall_c.cpp ****     //stavljanje argumenata za sistemski poziv
  56:src/syscall_c.cpp ****     __asm__ volatile("mv a4, %[sp]": :[sp] "r"(stack):"a5", "a0", "a1", "a2", "a3", "a4", "a6", "a7
 185              		.loc 1 56 5
 186              		.loc 1 56 102 is_stmt 0
 187              	#APP
 188              	# 56 "src/syscall_c.cpp" 1
  57              	    __asm__ volatile("mv a3, %[arg]": :[arg] "r"(arg):"a5", "a0", "a1", "a2", "a3", "a4", "a6", "a7
 189              		mv a4, t1
 190              	# 0 "" 2
 191              		.loc 1 57 5 is_stmt 1
 192              		.loc 1 57 102 is_stmt 0
 193              	# 57 "src/syscall_c.cpp" 1
  58              	    __asm__ volatile("mv a2, %[function]": :[function] "r"(
 194              		mv a3, s3
 195              	# 0 "" 2
 196              		.loc 1 58 5 is_stmt 1
  59:src/syscall_c.cpp ****             start_routine):"a5", "a0", "a1", "a2", "a3", "a4", "a6", "a7");
 197              		.loc 1 59 75 is_stmt 0
 198              	# 59 "src/syscall_c.cpp" 1
  60              	    __asm__ volatile("mv a1, %[handle]": :[handle] "r"(handle):"a5", "a0", "a1", "a2", "a3", "a4", 
 199              		mv a2, s1
 200              	# 0 "" 2
 201              		.loc 1 60 5 is_stmt 1
 202              		.loc 1 60 111 is_stmt 0
 203              	# 60 "src/syscall_c.cpp" 1
  61              	    __asm__ volatile("li a0, 0x11");
 204              		mv a1, s2
 205              	# 0 "" 2
 206              		.loc 1 61 5 is_stmt 1
 207              		.loc 1 61 36 is_stmt 0
 208              	# 61 "src/syscall_c.cpp" 1
  62              	    //a0 = 0x11
  63:src/syscall_c.cpp ****     //a1 = adresa pokazivaca na rucku niti
  64:src/syscall_c.cpp ****     //a2 = prva adresa funkcije koju nit izvrsava
  65:src/syscall_c.cpp ****     //a3 = pokazivac na argumente funkcije
  66:src/syscall_c.cpp ****     //a4 = pokazivac na najnizu adresu steka (stek raste ka nizim adresama, pokazuje na poslednju z
  67:src/syscall_c.cpp **** 
  68:src/syscall_c.cpp ****     scall();
 209              		li a0, 0x11
 210              	# 0 "" 2
 211              		.loc 1 68 5 is_stmt 1
 212              	#NO_APP
 213              	.LBB32:
 214              	.LBB33:
   9:src/syscall_c.cpp **** }
 215              		.loc 1 9 5
GAS LISTING /tmp/ccLwsblc.s 			page 6


   9:src/syscall_c.cpp **** }
 216              		.loc 1 9 30 is_stmt 0
 217              	#APP
 218              	# 9 "src/syscall_c.cpp" 1
 219              		ecall
 220              	# 0 "" 2
 221              	#NO_APP
 222              	.LBE33:
 223              	.LBE32:
  69:src/syscall_c.cpp **** 
  70:src/syscall_c.cpp ****     int status;
 224              		.loc 1 70 5 is_stmt 1
  71:src/syscall_c.cpp ****     __asm__ volatile("mv %[status], a0":[status] "=r"(status));
 225              		.loc 1 71 5
 226              		.loc 1 71 63 is_stmt 0
 227              	#APP
 228              	# 71 "src/syscall_c.cpp" 1
  72              	    return status;
 229              		mv a0, a0
 230              	# 0 "" 2
 231              	#NO_APP
 232 00d4 1B050500 		sext.w	a0,a0
 233              	.LVL14:
 234              		.loc 1 72 5 is_stmt 1
 235              	.L8:
  73:src/syscall_c.cpp **** }
 236              		.loc 1 73 1 is_stmt 0
 237 00d8 83308102 		ld	ra,40(sp)
 238              		.cfi_remember_state
 239              		.cfi_restore 1
 240 00dc 03340102 		ld	s0,32(sp)
 241              		.cfi_restore 8
 242              		.cfi_def_cfa 2, 48
 243 00e0 83348101 		ld	s1,24(sp)
 244              		.cfi_restore 9
 245              	.LVL15:
 246 00e4 03390101 		ld	s2,16(sp)
 247              		.cfi_restore 18
 248              	.LVL16:
 249 00e8 83398100 		ld	s3,8(sp)
 250              		.cfi_restore 19
 251              	.LVL17:
 252 00ec 13010103 		addi	sp,sp,48
 253              		.cfi_def_cfa_offset 0
 254 00f0 67800000 		jr	ra
 255              	.LVL18:
 256              	.L9:
 257              		.cfi_restore_state
  50:src/syscall_c.cpp ****     if (start_routine != (TCB::Body)main) {
 258              		.loc 1 50 13
 259 00f4 13030000 		li	t1,0
 260 00f8 6FF01FFC 		j	.L7
 261              	.LVL19:
 262              	.L12:
  53:src/syscall_c.cpp ****     }
 263              		.loc 1 53 28
 264 00fc 1305F0FF 		li	a0,-1
GAS LISTING /tmp/ccLwsblc.s 			page 7


 265 0100 6FF09FFD 		j	.L8
 266              		.cfi_endproc
 267              	.LFE34:
 269              		.align	2
 270              		.globl	_Z11thread_exitv
 272              	_Z11thread_exitv:
 273              	.LFB35:
  74:src/syscall_c.cpp **** 
  75:src/syscall_c.cpp **** int thread_exit() {
 274              		.loc 1 75 19 is_stmt 1
 275              		.cfi_startproc
 276 0104 130101FF 		addi	sp,sp,-16
 277              		.cfi_def_cfa_offset 16
 278 0108 23348100 		sd	s0,8(sp)
 279              		.cfi_offset 8, -8
 280 010c 13040101 		addi	s0,sp,16
 281              		.cfi_def_cfa 8, 0
  76:src/syscall_c.cpp ****     //nema argumenata, samo kod sistemskog poziva
  77:src/syscall_c.cpp ****     __asm__ volatile("li a0, 0x12");
 282              		.loc 1 77 5
 283              		.loc 1 77 36 is_stmt 0
 284              	#APP
 285              	# 77 "src/syscall_c.cpp" 1
  78              	
  79:src/syscall_c.cpp ****     scall();
 286              		li a0, 0x12
 287              	# 0 "" 2
 288              		.loc 1 79 5 is_stmt 1
 289              	#NO_APP
 290              	.LBB34:
 291              	.LBB35:
   9:src/syscall_c.cpp **** }
 292              		.loc 1 9 5
   9:src/syscall_c.cpp **** }
 293              		.loc 1 9 30 is_stmt 0
 294              	#APP
 295              	# 9 "src/syscall_c.cpp" 1
 296              		ecall
 297              	# 0 "" 2
 298              	#NO_APP
 299              	.LBE35:
 300              	.LBE34:
  80:src/syscall_c.cpp **** 
  81:src/syscall_c.cpp ****     int status;
 301              		.loc 1 81 5 is_stmt 1
  82:src/syscall_c.cpp ****     __asm__ volatile("mv %[status], a0":[status] "=r"(status));
 302              		.loc 1 82 5
 303              		.loc 1 82 63 is_stmt 0
 304              	#APP
 305              	# 82 "src/syscall_c.cpp" 1
  83              	    return status;
 306              		mv a0, a0
 307              	# 0 "" 2
 308              	.LVL20:
 309              		.loc 1 83 5 is_stmt 1
  84:src/syscall_c.cpp **** }
 310              		.loc 1 84 1 is_stmt 0
GAS LISTING /tmp/ccLwsblc.s 			page 8


 311              	#NO_APP
 312 011c 1B050500 		sext.w	a0,a0
 313 0120 03348100 		ld	s0,8(sp)
 314              		.cfi_restore 8
 315              		.cfi_def_cfa 2, 16
 316 0124 13010101 		addi	sp,sp,16
 317              		.cfi_def_cfa_offset 0
 318 0128 67800000 		jr	ra
 319              		.cfi_endproc
 320              	.LFE35:
 322              		.align	2
 323              		.globl	_Z15thread_dispatchv
 325              	_Z15thread_dispatchv:
 326              	.LFB36:
  85:src/syscall_c.cpp **** 
  86:src/syscall_c.cpp **** void thread_dispatch() {
 327              		.loc 1 86 24 is_stmt 1
 328              		.cfi_startproc
 329 012c 130101FF 		addi	sp,sp,-16
 330              		.cfi_def_cfa_offset 16
 331 0130 23348100 		sd	s0,8(sp)
 332              		.cfi_offset 8, -8
 333 0134 13040101 		addi	s0,sp,16
 334              		.cfi_def_cfa 8, 0
  87:src/syscall_c.cpp ****     //nema argumenata, samo kod sistemskog poziva
  88:src/syscall_c.cpp ****     __asm__ volatile("li a0, 0x13");
 335              		.loc 1 88 5
 336              		.loc 1 88 36 is_stmt 0
 337              	#APP
 338              	# 88 "src/syscall_c.cpp" 1
  89              	
  90:src/syscall_c.cpp ****     scall();
 339              		li a0, 0x13
 340              	# 0 "" 2
 341              		.loc 1 90 5 is_stmt 1
 342              	#NO_APP
 343              	.LBB36:
 344              	.LBB37:
   9:src/syscall_c.cpp **** }
 345              		.loc 1 9 5
   9:src/syscall_c.cpp **** }
 346              		.loc 1 9 30 is_stmt 0
 347              	#APP
 348              	# 9 "src/syscall_c.cpp" 1
 349              		ecall
 350              	# 0 "" 2
 351              	#NO_APP
 352              	.LBE37:
 353              	.LBE36:
  91:src/syscall_c.cpp ****     //nema povratne vrednosti
  92:src/syscall_c.cpp **** }
 354              		.loc 1 92 1
 355 0140 03348100 		ld	s0,8(sp)
 356              		.cfi_restore 8
 357              		.cfi_def_cfa 2, 16
 358 0144 13010101 		addi	sp,sp,16
 359              		.cfi_def_cfa_offset 0
GAS LISTING /tmp/ccLwsblc.s 			page 9


 360 0148 67800000 		jr	ra
 361              		.cfi_endproc
 362              	.LFE36:
 364              		.align	2
 365              		.globl	_Z11thread_joinP3TCB
 367              	_Z11thread_joinP3TCB:
 368              	.LFB37:
  93:src/syscall_c.cpp **** 
  94:src/syscall_c.cpp **** void thread_join(thread_t handle) {
 369              		.loc 1 94 35 is_stmt 1
 370              		.cfi_startproc
 371              	.LVL21:
 372 014c 130101FF 		addi	sp,sp,-16
 373              		.cfi_def_cfa_offset 16
 374 0150 23348100 		sd	s0,8(sp)
 375              		.cfi_offset 8, -8
 376 0154 13040101 		addi	s0,sp,16
 377              		.cfi_def_cfa 8, 0
 378 0158 13030500 		mv	t1,a0
  95:src/syscall_c.cpp **** //stavljanje argumenata za sistemski poziv
  96:src/syscall_c.cpp ****     __asm__ volatile("mv a1, %[handle]": :[handle] "r"(handle):"a5", "a0", "a1", "a2", "a3", "a4", 
 379              		.loc 1 96 5
 380              		.loc 1 96 111 is_stmt 0
 381              	#APP
 382              	# 96 "src/syscall_c.cpp" 1
  97              	    __asm__ volatile("li a0, 0x14");
 383              		mv a1, t1
 384              	# 0 "" 2
 385              	.LVL22:
 386              		.loc 1 97 5 is_stmt 1
 387              		.loc 1 97 36 is_stmt 0
 388              	# 97 "src/syscall_c.cpp" 1
  98              	    //a0 = 0x14
  99:src/syscall_c.cpp ****     //a1 = rucka niti na koju se ceka
 100:src/syscall_c.cpp **** 
 101:src/syscall_c.cpp ****     scall();
 389              		li a0, 0x14
 390              	# 0 "" 2
 391              		.loc 1 101 5 is_stmt 1
 392              	#NO_APP
 393              	.LBB38:
 394              	.LBB39:
   9:src/syscall_c.cpp **** }
 395              		.loc 1 9 5
   9:src/syscall_c.cpp **** }
 396              		.loc 1 9 30 is_stmt 0
 397              	#APP
 398              	# 9 "src/syscall_c.cpp" 1
 399              		ecall
 400              	# 0 "" 2
 401              	#NO_APP
 402              	.LBE39:
 403              	.LBE38:
 102:src/syscall_c.cpp **** }
 404              		.loc 1 102 1
 405 0168 03348100 		ld	s0,8(sp)
 406              		.cfi_restore 8
GAS LISTING /tmp/ccLwsblc.s 			page 10


 407              		.cfi_def_cfa 2, 16
 408 016c 13010101 		addi	sp,sp,16
 409              		.cfi_def_cfa_offset 0
 410 0170 67800000 		jr	ra
 411              		.cfi_endproc
 412              	.LFE37:
 414              		.align	2
 415              		.globl	_Z10time_sleepm
 417              	_Z10time_sleepm:
 418              	.LFB38:
 103:src/syscall_c.cpp **** 
 104:src/syscall_c.cpp **** int time_sleep(time_t timerPeriods) {
 419              		.loc 1 104 37 is_stmt 1
 420              		.cfi_startproc
 421              	.LVL23:
 422 0174 130101FF 		addi	sp,sp,-16
 423              		.cfi_def_cfa_offset 16
 424 0178 23348100 		sd	s0,8(sp)
 425              		.cfi_offset 8, -8
 426 017c 13040101 		addi	s0,sp,16
 427              		.cfi_def_cfa 8, 0
 428 0180 13030500 		mv	t1,a0
 105:src/syscall_c.cpp ****     //stavljanje argumenata za sistemski poziv
 106:src/syscall_c.cpp ****     __asm__ volatile("mv a1, %[time]": :[time] "r"(timerPeriods):"a5", "a0", "a1", "a2", "a3", "a4"
 429              		.loc 1 106 5
 430              		.loc 1 106 113 is_stmt 0
 431              	#APP
 432              	# 106 "src/syscall_c.cpp" 1
 107              	    __asm__ volatile("li a0, 0x31");
 433              		mv a1, t1
 434              	# 0 "" 2
 435              	.LVL24:
 436              		.loc 1 107 5 is_stmt 1
 437              		.loc 1 107 36 is_stmt 0
 438              	# 107 "src/syscall_c.cpp" 1
 108              	    //a0 = 0x31
 109:src/syscall_c.cpp ****     //a1 = broj perioda tajmera na koji se uspavljuje nit
 110:src/syscall_c.cpp **** 
 111:src/syscall_c.cpp ****     scall();
 439              		li a0, 0x31
 440              	# 0 "" 2
 441              		.loc 1 111 5 is_stmt 1
 442              	#NO_APP
 443              	.LBB40:
 444              	.LBB41:
   9:src/syscall_c.cpp **** }
 445              		.loc 1 9 5
   9:src/syscall_c.cpp **** }
 446              		.loc 1 9 30 is_stmt 0
 447              	#APP
 448              	# 9 "src/syscall_c.cpp" 1
 449              		ecall
 450              	# 0 "" 2
 451              	#NO_APP
 452              	.LBE41:
 453              	.LBE40:
 112:src/syscall_c.cpp **** 
GAS LISTING /tmp/ccLwsblc.s 			page 11


 113:src/syscall_c.cpp ****     int status;
 454              		.loc 1 113 5 is_stmt 1
 114:src/syscall_c.cpp ****     __asm__ volatile("mv %[status], a0":[status] "=r"(status));
 455              		.loc 1 114 5
 456              		.loc 1 114 63 is_stmt 0
 457              	#APP
 458              	# 114 "src/syscall_c.cpp" 1
 115              	    return status;
 459              		mv a0, a0
 460              	# 0 "" 2
 461              	.LVL25:
 462              		.loc 1 115 5 is_stmt 1
 116:src/syscall_c.cpp **** }
 463              		.loc 1 116 1 is_stmt 0
 464              	#NO_APP
 465 0194 1B050500 		sext.w	a0,a0
 466 0198 03348100 		ld	s0,8(sp)
 467              		.cfi_restore 8
 468              		.cfi_def_cfa 2, 16
 469 019c 13010101 		addi	sp,sp,16
 470              		.cfi_def_cfa_offset 0
 471 01a0 67800000 		jr	ra
 472              		.cfi_endproc
 473              	.LFE38:
 475              		.align	2
 476              		.globl	_Z8sem_openPP4KSemj
 478              	_Z8sem_openPP4KSemj:
 479              	.LFB39:
 117:src/syscall_c.cpp **** 
 118:src/syscall_c.cpp **** int sem_open(sem_t* handle, unsigned int init) {
 480              		.loc 1 118 48 is_stmt 1
 481              		.cfi_startproc
 482              	.LVL26:
 483 01a4 130101FF 		addi	sp,sp,-16
 484              		.cfi_def_cfa_offset 16
 485 01a8 23348100 		sd	s0,8(sp)
 486              		.cfi_offset 8, -8
 487 01ac 13040101 		addi	s0,sp,16
 488              		.cfi_def_cfa 8, 0
 489 01b0 13030500 		mv	t1,a0
 490 01b4 138E0500 		mv	t3,a1
 119:src/syscall_c.cpp ****     //stavljanje argumenata za sistemski poziv
 120:src/syscall_c.cpp ****     __asm__ volatile("mv a2, %[val]": :[val] "r"(init):"a5", "a0", "a1", "a2", "a3", "a4", "a6", "a
 491              		.loc 1 120 5
 492              		.loc 1 120 103 is_stmt 0
 493              	#APP
 494              	# 120 "src/syscall_c.cpp" 1
 121              	    __asm__ volatile("mv a1, %[handle]": :[handle] "r"(handle):"a5", "a0", "a1", "a2", "a3", "a4", 
 495              		mv a2, t3
 496              	# 0 "" 2
 497              	.LVL27:
 498              		.loc 1 121 5 is_stmt 1
 499              		.loc 1 121 111 is_stmt 0
 500              	# 121 "src/syscall_c.cpp" 1
 122              	    __asm__ volatile("li a0, 0x21");
 501              		mv a1, t1
 502              	# 0 "" 2
GAS LISTING /tmp/ccLwsblc.s 			page 12


 503              		.loc 1 122 5 is_stmt 1
 504              		.loc 1 122 36 is_stmt 0
 505              	# 122 "src/syscall_c.cpp" 1
 123              	    //a0 = 0x21
 124:src/syscall_c.cpp ****     //a1 = pokazivac na rucku semafora
 125:src/syscall_c.cpp ****     //a2 = pocetna vrednost semafora
 126:src/syscall_c.cpp **** 
 127:src/syscall_c.cpp ****     scall();
 506              		li a0, 0x21
 507              	# 0 "" 2
 508              		.loc 1 127 5 is_stmt 1
 509              	#NO_APP
 510              	.LBB42:
 511              	.LBB43:
   9:src/syscall_c.cpp **** }
 512              		.loc 1 9 5
   9:src/syscall_c.cpp **** }
 513              		.loc 1 9 30 is_stmt 0
 514              	#APP
 515              	# 9 "src/syscall_c.cpp" 1
 516              		ecall
 517              	# 0 "" 2
 518              	#NO_APP
 519              	.LBE43:
 520              	.LBE42:
 128:src/syscall_c.cpp **** 
 129:src/syscall_c.cpp ****     //status == 0 ako je uspesno kreiran semafor; status == -1 ako nije
 130:src/syscall_c.cpp ****     int status;
 521              		.loc 1 130 5 is_stmt 1
 131:src/syscall_c.cpp ****     __asm__ volatile("mv %[status], a0":[status] "=r"(status));
 522              		.loc 1 131 5
 523              		.loc 1 131 63 is_stmt 0
 524              	#APP
 525              	# 131 "src/syscall_c.cpp" 1
 132              	    return status;
 526              		mv a0, a0
 527              	# 0 "" 2
 528              	.LVL28:
 529              		.loc 1 132 5 is_stmt 1
 133:src/syscall_c.cpp **** }
 530              		.loc 1 133 1 is_stmt 0
 531              	#NO_APP
 532 01cc 1B050500 		sext.w	a0,a0
 533 01d0 03348100 		ld	s0,8(sp)
 534              		.cfi_restore 8
 535              		.cfi_def_cfa 2, 16
 536 01d4 13010101 		addi	sp,sp,16
 537              		.cfi_def_cfa_offset 0
 538 01d8 67800000 		jr	ra
 539              		.cfi_endproc
 540              	.LFE39:
 542              		.align	2
 543              		.globl	_Z9sem_closeP4KSem
 545              	_Z9sem_closeP4KSem:
 546              	.LFB40:
 134:src/syscall_c.cpp **** 
 135:src/syscall_c.cpp **** int sem_close(sem_t handle) {
GAS LISTING /tmp/ccLwsblc.s 			page 13


 547              		.loc 1 135 29 is_stmt 1
 548              		.cfi_startproc
 549              	.LVL29:
 550 01dc 130101FF 		addi	sp,sp,-16
 551              		.cfi_def_cfa_offset 16
 552 01e0 23348100 		sd	s0,8(sp)
 553              		.cfi_offset 8, -8
 554 01e4 13040101 		addi	s0,sp,16
 555              		.cfi_def_cfa 8, 0
 556 01e8 13030500 		mv	t1,a0
 136:src/syscall_c.cpp ****     //stavljanje argumenata za sistemski poziv
 137:src/syscall_c.cpp ****     __asm__ volatile("mv a1, %[handle]": :[handle] "r"(handle):"a5", "a0", "a1", "a2", "a3", "a4", 
 557              		.loc 1 137 5
 558              		.loc 1 137 111 is_stmt 0
 559              	#APP
 560              	# 137 "src/syscall_c.cpp" 1
 138              	    __asm__ volatile("li a0, 0x22");
 561              		mv a1, t1
 562              	# 0 "" 2
 563              	.LVL30:
 564              		.loc 1 138 5 is_stmt 1
 565              		.loc 1 138 36 is_stmt 0
 566              	# 138 "src/syscall_c.cpp" 1
 139              	    //a0 = 0x22
 140:src/syscall_c.cpp ****     //a1 = rucka semafora (pokazivac na semafor u kernelu)
 141:src/syscall_c.cpp **** 
 142:src/syscall_c.cpp ****     scall();
 567              		li a0, 0x22
 568              	# 0 "" 2
 569              		.loc 1 142 5 is_stmt 1
 570              	#NO_APP
 571              	.LBB44:
 572              	.LBB45:
   9:src/syscall_c.cpp **** }
 573              		.loc 1 9 5
   9:src/syscall_c.cpp **** }
 574              		.loc 1 9 30 is_stmt 0
 575              	#APP
 576              	# 9 "src/syscall_c.cpp" 1
 577              		ecall
 578              	# 0 "" 2
 579              	#NO_APP
 580              	.LBE45:
 581              	.LBE44:
 143:src/syscall_c.cpp **** 
 144:src/syscall_c.cpp ****     int status;
 582              		.loc 1 144 5 is_stmt 1
 145:src/syscall_c.cpp ****     __asm__ volatile("mv %[status], a0":[status] "=r"(status));
 583              		.loc 1 145 5
 584              		.loc 1 145 63 is_stmt 0
 585              	#APP
 586              	# 145 "src/syscall_c.cpp" 1
 146              	    return status;
 587              		mv a0, a0
 588              	# 0 "" 2
 589              	.LVL31:
 590              		.loc 1 146 5 is_stmt 1
GAS LISTING /tmp/ccLwsblc.s 			page 14


 147:src/syscall_c.cpp **** }
 591              		.loc 1 147 1 is_stmt 0
 592              	#NO_APP
 593 01fc 1B050500 		sext.w	a0,a0
 594 0200 03348100 		ld	s0,8(sp)
 595              		.cfi_restore 8
 596              		.cfi_def_cfa 2, 16
 597 0204 13010101 		addi	sp,sp,16
 598              		.cfi_def_cfa_offset 0
 599 0208 67800000 		jr	ra
 600              		.cfi_endproc
 601              	.LFE40:
 603              		.align	2
 604              		.globl	_Z8sem_waitP4KSem
 606              	_Z8sem_waitP4KSem:
 607              	.LFB41:
 148:src/syscall_c.cpp **** 
 149:src/syscall_c.cpp **** int sem_wait(sem_t id) {
 608              		.loc 1 149 24 is_stmt 1
 609              		.cfi_startproc
 610              	.LVL32:
 611 020c 130101FF 		addi	sp,sp,-16
 612              		.cfi_def_cfa_offset 16
 613 0210 23348100 		sd	s0,8(sp)
 614              		.cfi_offset 8, -8
 615 0214 13040101 		addi	s0,sp,16
 616              		.cfi_def_cfa 8, 0
 617 0218 13030500 		mv	t1,a0
 150:src/syscall_c.cpp ****     //stavljanje argumenata za sistemski poziv
 151:src/syscall_c.cpp ****     __asm__ volatile("mv a1, %[handle]": :[handle] "r"(id):"a5", "a0", "a1", "a2", "a3", "a4", "a6"
 618              		.loc 1 151 5
 619              		.loc 1 151 107 is_stmt 0
 620              	#APP
 621              	# 151 "src/syscall_c.cpp" 1
 152              	    __asm__ volatile("li a0, 0x23");
 622              		mv a1, t1
 623              	# 0 "" 2
 624              	.LVL33:
 625              		.loc 1 152 5 is_stmt 1
 626              		.loc 1 152 36 is_stmt 0
 627              	# 152 "src/syscall_c.cpp" 1
 153              	    //a0 = 0x23
 154:src/syscall_c.cpp ****     //a1 = rucka semafora (pokazivac na semafor u kernelu)
 155:src/syscall_c.cpp **** 
 156:src/syscall_c.cpp ****     scall();
 628              		li a0, 0x23
 629              	# 0 "" 2
 630              		.loc 1 156 5 is_stmt 1
 631              	#NO_APP
 632              	.LBB46:
 633              	.LBB47:
   9:src/syscall_c.cpp **** }
 634              		.loc 1 9 5
   9:src/syscall_c.cpp **** }
 635              		.loc 1 9 30 is_stmt 0
 636              	#APP
 637              	# 9 "src/syscall_c.cpp" 1
GAS LISTING /tmp/ccLwsblc.s 			page 15


 638              		ecall
 639              	# 0 "" 2
 640              	#NO_APP
 641              	.LBE47:
 642              	.LBE46:
 157:src/syscall_c.cpp **** 
 158:src/syscall_c.cpp ****     int status;
 643              		.loc 1 158 5 is_stmt 1
 159:src/syscall_c.cpp ****     __asm__ volatile("mv %[status], a0":[status] "=r"(status));
 644              		.loc 1 159 5
 645              		.loc 1 159 63 is_stmt 0
 646              	#APP
 647              	# 159 "src/syscall_c.cpp" 1
 160              	    return status;
 648              		mv a0, a0
 649              	# 0 "" 2
 650              	.LVL34:
 651              		.loc 1 160 5 is_stmt 1
 161:src/syscall_c.cpp **** }
 652              		.loc 1 161 1 is_stmt 0
 653              	#NO_APP
 654 022c 1B050500 		sext.w	a0,a0
 655 0230 03348100 		ld	s0,8(sp)
 656              		.cfi_restore 8
 657              		.cfi_def_cfa 2, 16
 658 0234 13010101 		addi	sp,sp,16
 659              		.cfi_def_cfa_offset 0
 660 0238 67800000 		jr	ra
 661              		.cfi_endproc
 662              	.LFE41:
 664              		.align	2
 665              		.globl	_Z10sem_signalP4KSem
 667              	_Z10sem_signalP4KSem:
 668              	.LFB42:
 162:src/syscall_c.cpp **** 
 163:src/syscall_c.cpp **** int sem_signal(sem_t id) {
 669              		.loc 1 163 26 is_stmt 1
 670              		.cfi_startproc
 671              	.LVL35:
 672 023c 130101FF 		addi	sp,sp,-16
 673              		.cfi_def_cfa_offset 16
 674 0240 23348100 		sd	s0,8(sp)
 675              		.cfi_offset 8, -8
 676 0244 13040101 		addi	s0,sp,16
 677              		.cfi_def_cfa 8, 0
 678 0248 13030500 		mv	t1,a0
 164:src/syscall_c.cpp ****     //stavljanje argumenata za sistemski poziv
 165:src/syscall_c.cpp ****     __asm__ volatile("mv a1, %[handle]": :[handle] "r"(id):"a5", "a0", "a1", "a2", "a3", "a4", "a6"
 679              		.loc 1 165 5
 680              		.loc 1 165 107 is_stmt 0
 681              	#APP
 682              	# 165 "src/syscall_c.cpp" 1
 166              	    __asm__ volatile("li a0, 0x24");
 683              		mv a1, t1
 684              	# 0 "" 2
 685              	.LVL36:
 686              		.loc 1 166 5 is_stmt 1
GAS LISTING /tmp/ccLwsblc.s 			page 16


 687              		.loc 1 166 36 is_stmt 0
 688              	# 166 "src/syscall_c.cpp" 1
 167              	    //a0 = 0x24
 168:src/syscall_c.cpp ****     //a1 = rucka semafora (pokazivac na semafor u kernelu)
 169:src/syscall_c.cpp **** 
 170:src/syscall_c.cpp ****     scall();
 689              		li a0, 0x24
 690              	# 0 "" 2
 691              		.loc 1 170 5 is_stmt 1
 692              	#NO_APP
 693              	.LBB48:
 694              	.LBB49:
   9:src/syscall_c.cpp **** }
 695              		.loc 1 9 5
   9:src/syscall_c.cpp **** }
 696              		.loc 1 9 30 is_stmt 0
 697              	#APP
 698              	# 9 "src/syscall_c.cpp" 1
 699              		ecall
 700              	# 0 "" 2
 701              	#NO_APP
 702              	.LBE49:
 703              	.LBE48:
 171:src/syscall_c.cpp **** 
 172:src/syscall_c.cpp ****     int status;
 704              		.loc 1 172 5 is_stmt 1
 173:src/syscall_c.cpp ****     __asm__ volatile("mv %[status], a0":[status] "=r"(status));
 705              		.loc 1 173 5
 706              		.loc 1 173 63 is_stmt 0
 707              	#APP
 708              	# 173 "src/syscall_c.cpp" 1
 174              	    return status;
 709              		mv a0, a0
 710              	# 0 "" 2
 711              	.LVL37:
 712              		.loc 1 174 5 is_stmt 1
 175:src/syscall_c.cpp **** }
 713              		.loc 1 175 1 is_stmt 0
 714              	#NO_APP
 715 025c 1B050500 		sext.w	a0,a0
 716 0260 03348100 		ld	s0,8(sp)
 717              		.cfi_restore 8
 718              		.cfi_def_cfa 2, 16
 719 0264 13010101 		addi	sp,sp,16
 720              		.cfi_def_cfa_offset 0
 721 0268 67800000 		jr	ra
 722              		.cfi_endproc
 723              	.LFE42:
 725              		.align	2
 726              		.globl	_Z4getcv
 728              	_Z4getcv:
 729              	.LFB43:
 176:src/syscall_c.cpp **** 
 177:src/syscall_c.cpp **** char getc() {
 730              		.loc 1 177 13 is_stmt 1
 731              		.cfi_startproc
 732 026c 130101FF 		addi	sp,sp,-16
GAS LISTING /tmp/ccLwsblc.s 			page 17


 733              		.cfi_def_cfa_offset 16
 734 0270 23348100 		sd	s0,8(sp)
 735              		.cfi_offset 8, -8
 736 0274 13040101 		addi	s0,sp,16
 737              		.cfi_def_cfa 8, 0
 178:src/syscall_c.cpp ****     //nema argumenata
 179:src/syscall_c.cpp ****     __asm__ volatile("li a0, 0x41");
 738              		.loc 1 179 5
 739              		.loc 1 179 36 is_stmt 0
 740              	#APP
 741              	# 179 "src/syscall_c.cpp" 1
 180              	
 181:src/syscall_c.cpp ****     scall();
 742              		li a0, 0x41
 743              	# 0 "" 2
 744              		.loc 1 181 5 is_stmt 1
 745              	#NO_APP
 746              	.LBB50:
 747              	.LBB51:
   9:src/syscall_c.cpp **** }
 748              		.loc 1 9 5
   9:src/syscall_c.cpp **** }
 749              		.loc 1 9 30 is_stmt 0
 750              	#APP
 751              	# 9 "src/syscall_c.cpp" 1
 752              		ecall
 753              	# 0 "" 2
 754              	#NO_APP
 755              	.LBE51:
 756              	.LBE50:
 182:src/syscall_c.cpp **** 
 183:src/syscall_c.cpp ****     char character;
 757              		.loc 1 183 5 is_stmt 1
 184:src/syscall_c.cpp ****     __asm__ volatile("mv %[c], a0":[c] "=r"(character));
 758              		.loc 1 184 5
 759              		.loc 1 184 56 is_stmt 0
 760              	#APP
 761              	# 184 "src/syscall_c.cpp" 1
 185              	    return character;
 762              		mv a0, a0
 763              	# 0 "" 2
 764              	.LVL38:
 765              		.loc 1 185 5 is_stmt 1
 186:src/syscall_c.cpp **** }
 766              		.loc 1 186 1 is_stmt 0
 767              	#NO_APP
 768 0284 1375F50F 		andi	a0,a0,0xff
 769 0288 03348100 		ld	s0,8(sp)
 770              		.cfi_restore 8
 771              		.cfi_def_cfa 2, 16
 772 028c 13010101 		addi	sp,sp,16
 773              		.cfi_def_cfa_offset 0
 774 0290 67800000 		jr	ra
 775              		.cfi_endproc
 776              	.LFE43:
 778              		.align	2
 779              		.globl	_Z4putcc
GAS LISTING /tmp/ccLwsblc.s 			page 18


 781              	_Z4putcc:
 782              	.LFB44:
 187:src/syscall_c.cpp **** 
 188:src/syscall_c.cpp **** void putc(char c) {
 783              		.loc 1 188 19 is_stmt 1
 784              		.cfi_startproc
 785              	.LVL39:
 786 0294 130101FF 		addi	sp,sp,-16
 787              		.cfi_def_cfa_offset 16
 788 0298 23348100 		sd	s0,8(sp)
 789              		.cfi_offset 8, -8
 790 029c 13040101 		addi	s0,sp,16
 791              		.cfi_def_cfa 8, 0
 792 02a0 13030500 		mv	t1,a0
 189:src/syscall_c.cpp ****     //stavljanje argumenata
 190:src/syscall_c.cpp ****     __asm__ volatile("mv a1, %[c]": :[c] "r"(c):"a5", "a0", "a1", "a2", "a3", "a4", "a6", "a7");
 793              		.loc 1 190 5
 794              		.loc 1 190 96 is_stmt 0
 795              	#APP
 796              	# 190 "src/syscall_c.cpp" 1
 191              	    __asm__ volatile("li a0, 0x42");
 797              		mv a1, t1
 798              	# 0 "" 2
 799              	.LVL40:
 800              		.loc 1 191 5 is_stmt 1
 801              		.loc 1 191 36 is_stmt 0
 802              	# 191 "src/syscall_c.cpp" 1
 192              	
 193:src/syscall_c.cpp ****     scall();
 803              		li a0, 0x42
 804              	# 0 "" 2
 805              		.loc 1 193 5 is_stmt 1
 806              	#NO_APP
 807              	.LBB52:
 808              	.LBB53:
   9:src/syscall_c.cpp **** }
 809              		.loc 1 9 5
   9:src/syscall_c.cpp **** }
 810              		.loc 1 9 30 is_stmt 0
 811              	#APP
 812              	# 9 "src/syscall_c.cpp" 1
 813              		ecall
 814              	# 0 "" 2
 815              	#NO_APP
 816              	.LBE53:
 817              	.LBE52:
 194:src/syscall_c.cpp ****     //nema povratne vrednosti
 195:src/syscall_c.cpp **** }...
 818              		.loc 1 195 1
 819 02b0 03348100 		ld	s0,8(sp)
 820              		.cfi_restore 8
 821              		.cfi_def_cfa 2, 16
 822 02b4 13010101 		addi	sp,sp,16
 823              		.cfi_def_cfa_offset 0
 824 02b8 67800000 		jr	ra
 825              		.cfi_endproc
 826              	.LFE44:
GAS LISTING /tmp/ccLwsblc.s 			page 19


 828              	.Letext0:
 829              		.file 2 "src/../h/../lib/hw.h"
 830              		.file 3 "src/../h/syscall_c.hpp"
 831              		.file 4 "src/../h/TCB.hpp"
 832              		.file 5 "src/../h/../h/ThreadQueue.hpp"
GAS LISTING /tmp/ccLwsblc.s 			page 20


DEFINED SYMBOLS
                            *ABS*:0000000000000000 syscall_c.cpp
     /tmp/ccLwsblc.s:9      .text:0000000000000000 _Z9mem_allocm
     /tmp/ccLwsblc.s:13     .text:0000000000000000 .L0 
     /tmp/ccLwsblc.s:15     .text:0000000000000000 .L0 
     /tmp/ccLwsblc.s:16     .text:0000000000000004 .L0 
     /tmp/ccLwsblc.s:18     .text:0000000000000008 .L0 
     /tmp/ccLwsblc.s:20     .text:000000000000000c .L0 
     /tmp/ccLwsblc.s:22     .text:000000000000000c .L0 
     /tmp/ccLwsblc.s:23     .text:000000000000000c .L0 
     /tmp/ccLwsblc.s:26     .text:0000000000000010 .L0 
     /tmp/ccLwsblc.s:27     .text:0000000000000010 .L0 
     /tmp/ccLwsblc.s:29     .text:0000000000000014 .L0 
     /tmp/ccLwsblc.s:32     .text:0000000000000018 .L0 
     /tmp/ccLwsblc.s:36     .text:0000000000000020 .L0 
     /tmp/ccLwsblc.s:39     .text:0000000000000024 .L0 
   src/syscall_c.cpp:20     .text:0000000000000024 .L0 
     /tmp/ccLwsblc.s:45     .text:0000000000000028 .L0 
   src/syscall_c.cpp:21     .text:0000000000000028 .L0 
     /tmp/ccLwsblc.s:53     .text:000000000000002c .L0 
     /tmp/ccLwsblc.s:54     .text:000000000000002c .L0 
   src/syscall_c.cpp:9      .text:000000000000002c .L0 
     /tmp/ccLwsblc.s:63     .text:0000000000000030 .L0 
     /tmp/ccLwsblc.s:64     .text:0000000000000030 .L0 
   src/syscall_c.cpp:30     .text:0000000000000030 .L0 
     /tmp/ccLwsblc.s:71     .text:0000000000000034 .L0 
     /tmp/ccLwsblc.s:73     .text:0000000000000034 .L0 
     /tmp/ccLwsblc.s:74     .text:0000000000000038 .L0 
     /tmp/ccLwsblc.s:75     .text:0000000000000038 .L0 
     /tmp/ccLwsblc.s:77     .text:000000000000003c .L0 
     /tmp/ccLwsblc.s:79     .text:0000000000000040 .L0 
     /tmp/ccLwsblc.s:85     .text:0000000000000040 _Z8mem_freePv
     /tmp/ccLwsblc.s:88     .text:0000000000000040 .L0 
     /tmp/ccLwsblc.s:90     .text:0000000000000040 .L0 
     /tmp/ccLwsblc.s:91     .text:0000000000000044 .L0 
     /tmp/ccLwsblc.s:93     .text:0000000000000048 .L0 
     /tmp/ccLwsblc.s:95     .text:000000000000004c .L0 
     /tmp/ccLwsblc.s:98     .text:0000000000000050 .L0 
   src/syscall_c.cpp:36     .text:0000000000000050 .L0 
     /tmp/ccLwsblc.s:105    .text:0000000000000054 .L0 
   src/syscall_c.cpp:37     .text:0000000000000054 .L0 
     /tmp/ccLwsblc.s:113    .text:0000000000000058 .L0 
     /tmp/ccLwsblc.s:114    .text:0000000000000058 .L0 
   src/syscall_c.cpp:9      .text:0000000000000058 .L0 
     /tmp/ccLwsblc.s:123    .text:000000000000005c .L0 
     /tmp/ccLwsblc.s:124    .text:000000000000005c .L0 
   src/syscall_c.cpp:44     .text:000000000000005c .L0 
     /tmp/ccLwsblc.s:131    .text:0000000000000060 .L0 
     /tmp/ccLwsblc.s:133    .text:0000000000000060 .L0 
     /tmp/ccLwsblc.s:135    .text:0000000000000068 .L0 
     /tmp/ccLwsblc.s:136    .text:0000000000000068 .L0 
     /tmp/ccLwsblc.s:138    .text:000000000000006c .L0 
     /tmp/ccLwsblc.s:140    .text:0000000000000070 .L0 
     /tmp/ccLwsblc.s:146    .text:0000000000000070 _Z13thread_createPP3TCBPFvPvES2_
     /tmp/ccLwsblc.s:149    .text:0000000000000070 .L0 
     /tmp/ccLwsblc.s:151    .text:0000000000000070 .L0 
     /tmp/ccLwsblc.s:152    .text:0000000000000074 .L0 
GAS LISTING /tmp/ccLwsblc.s 			page 21


     /tmp/ccLwsblc.s:158    .text:0000000000000088 .L0 
     /tmp/ccLwsblc.s:159    .text:0000000000000088 .L0 
     /tmp/ccLwsblc.s:160    .text:0000000000000088 .L0 
     /tmp/ccLwsblc.s:161    .text:0000000000000088 .L0 
     /tmp/ccLwsblc.s:162    .text:0000000000000088 .L0 
     /tmp/ccLwsblc.s:164    .text:000000000000008c .L0 
     /tmp/ccLwsblc.s:170    .text:0000000000000098 .L0 
     /tmp/ccLwsblc.s:171    .text:0000000000000098 .L0 
     /tmp/ccLwsblc.s:174    .text:00000000000000a4 .L0 
     /tmp/ccLwsblc.s:175    .text:00000000000000a4 .L0 
     /tmp/ccLwsblc.s:182    .text:00000000000000b4 .L0 
     /tmp/ccLwsblc.s:186    .text:00000000000000b8 .L0 
   src/syscall_c.cpp:56     .text:00000000000000b8 .L0 
     /tmp/ccLwsblc.s:192    .text:00000000000000bc .L0 
   src/syscall_c.cpp:57     .text:00000000000000bc .L0 
     /tmp/ccLwsblc.s:197    .text:00000000000000c0 .L0 
   src/syscall_c.cpp:59     .text:00000000000000c0 .L0 
     /tmp/ccLwsblc.s:202    .text:00000000000000c4 .L0 
   src/syscall_c.cpp:60     .text:00000000000000c4 .L0 
     /tmp/ccLwsblc.s:207    .text:00000000000000c8 .L0 
   src/syscall_c.cpp:61     .text:00000000000000c8 .L0 
     /tmp/ccLwsblc.s:215    .text:00000000000000cc .L0 
     /tmp/ccLwsblc.s:216    .text:00000000000000cc .L0 
   src/syscall_c.cpp:9      .text:00000000000000cc .L0 
     /tmp/ccLwsblc.s:225    .text:00000000000000d0 .L0 
     /tmp/ccLwsblc.s:226    .text:00000000000000d0 .L0 
   src/syscall_c.cpp:71     .text:00000000000000d0 .L0 
     /tmp/ccLwsblc.s:236    .text:00000000000000d8 .L0 
     /tmp/ccLwsblc.s:237    .text:00000000000000d8 .L0 
     /tmp/ccLwsblc.s:238    .text:00000000000000dc .L0 
     /tmp/ccLwsblc.s:239    .text:00000000000000dc .L0 
     /tmp/ccLwsblc.s:241    .text:00000000000000e0 .L0 
     /tmp/ccLwsblc.s:242    .text:00000000000000e0 .L0 
     /tmp/ccLwsblc.s:244    .text:00000000000000e4 .L0 
     /tmp/ccLwsblc.s:247    .text:00000000000000e8 .L0 
     /tmp/ccLwsblc.s:250    .text:00000000000000ec .L0 
     /tmp/ccLwsblc.s:253    .text:00000000000000f0 .L0 
     /tmp/ccLwsblc.s:257    .text:00000000000000f4 .L0 
     /tmp/ccLwsblc.s:259    .text:00000000000000f4 .L0 
     /tmp/ccLwsblc.s:264    .text:00000000000000fc .L0 
     /tmp/ccLwsblc.s:266    .text:0000000000000104 .L0 
     /tmp/ccLwsblc.s:272    .text:0000000000000104 _Z11thread_exitv
     /tmp/ccLwsblc.s:275    .text:0000000000000104 .L0 
     /tmp/ccLwsblc.s:276    .text:0000000000000104 .L0 
     /tmp/ccLwsblc.s:277    .text:0000000000000108 .L0 
     /tmp/ccLwsblc.s:279    .text:000000000000010c .L0 
     /tmp/ccLwsblc.s:281    .text:0000000000000110 .L0 
     /tmp/ccLwsblc.s:283    .text:0000000000000110 .L0 
   src/syscall_c.cpp:77     .text:0000000000000110 .L0 
     /tmp/ccLwsblc.s:292    .text:0000000000000114 .L0 
     /tmp/ccLwsblc.s:293    .text:0000000000000114 .L0 
   src/syscall_c.cpp:9      .text:0000000000000114 .L0 
     /tmp/ccLwsblc.s:302    .text:0000000000000118 .L0 
     /tmp/ccLwsblc.s:303    .text:0000000000000118 .L0 
   src/syscall_c.cpp:82     .text:0000000000000118 .L0 
     /tmp/ccLwsblc.s:310    .text:000000000000011c .L0 
     /tmp/ccLwsblc.s:312    .text:000000000000011c .L0 
GAS LISTING /tmp/ccLwsblc.s 			page 22


     /tmp/ccLwsblc.s:314    .text:0000000000000124 .L0 
     /tmp/ccLwsblc.s:315    .text:0000000000000124 .L0 
     /tmp/ccLwsblc.s:317    .text:0000000000000128 .L0 
     /tmp/ccLwsblc.s:319    .text:000000000000012c .L0 
     /tmp/ccLwsblc.s:325    .text:000000000000012c _Z15thread_dispatchv
     /tmp/ccLwsblc.s:328    .text:000000000000012c .L0 
     /tmp/ccLwsblc.s:329    .text:000000000000012c .L0 
     /tmp/ccLwsblc.s:330    .text:0000000000000130 .L0 
     /tmp/ccLwsblc.s:332    .text:0000000000000134 .L0 
     /tmp/ccLwsblc.s:334    .text:0000000000000138 .L0 
     /tmp/ccLwsblc.s:336    .text:0000000000000138 .L0 
   src/syscall_c.cpp:88     .text:0000000000000138 .L0 
     /tmp/ccLwsblc.s:345    .text:000000000000013c .L0 
     /tmp/ccLwsblc.s:346    .text:000000000000013c .L0 
   src/syscall_c.cpp:9      .text:000000000000013c .L0 
     /tmp/ccLwsblc.s:355    .text:0000000000000140 .L0 
     /tmp/ccLwsblc.s:356    .text:0000000000000144 .L0 
     /tmp/ccLwsblc.s:357    .text:0000000000000144 .L0 
     /tmp/ccLwsblc.s:359    .text:0000000000000148 .L0 
     /tmp/ccLwsblc.s:361    .text:000000000000014c .L0 
     /tmp/ccLwsblc.s:367    .text:000000000000014c _Z11thread_joinP3TCB
     /tmp/ccLwsblc.s:370    .text:000000000000014c .L0 
     /tmp/ccLwsblc.s:372    .text:000000000000014c .L0 
     /tmp/ccLwsblc.s:373    .text:0000000000000150 .L0 
     /tmp/ccLwsblc.s:375    .text:0000000000000154 .L0 
     /tmp/ccLwsblc.s:377    .text:0000000000000158 .L0 
     /tmp/ccLwsblc.s:380    .text:000000000000015c .L0 
   src/syscall_c.cpp:96     .text:000000000000015c .L0 
     /tmp/ccLwsblc.s:387    .text:0000000000000160 .L0 
   src/syscall_c.cpp:97     .text:0000000000000160 .L0 
     /tmp/ccLwsblc.s:395    .text:0000000000000164 .L0 
     /tmp/ccLwsblc.s:396    .text:0000000000000164 .L0 
   src/syscall_c.cpp:9      .text:0000000000000164 .L0 
     /tmp/ccLwsblc.s:405    .text:0000000000000168 .L0 
     /tmp/ccLwsblc.s:406    .text:000000000000016c .L0 
     /tmp/ccLwsblc.s:407    .text:000000000000016c .L0 
     /tmp/ccLwsblc.s:409    .text:0000000000000170 .L0 
     /tmp/ccLwsblc.s:411    .text:0000000000000174 .L0 
     /tmp/ccLwsblc.s:417    .text:0000000000000174 _Z10time_sleepm
     /tmp/ccLwsblc.s:420    .text:0000000000000174 .L0 
     /tmp/ccLwsblc.s:422    .text:0000000000000174 .L0 
     /tmp/ccLwsblc.s:423    .text:0000000000000178 .L0 
     /tmp/ccLwsblc.s:425    .text:000000000000017c .L0 
     /tmp/ccLwsblc.s:427    .text:0000000000000180 .L0 
     /tmp/ccLwsblc.s:430    .text:0000000000000184 .L0 
   src/syscall_c.cpp:106    .text:0000000000000184 .L0 
     /tmp/ccLwsblc.s:437    .text:0000000000000188 .L0 
   src/syscall_c.cpp:107    .text:0000000000000188 .L0 
     /tmp/ccLwsblc.s:445    .text:000000000000018c .L0 
     /tmp/ccLwsblc.s:446    .text:000000000000018c .L0 
   src/syscall_c.cpp:9      .text:000000000000018c .L0 
     /tmp/ccLwsblc.s:455    .text:0000000000000190 .L0 
     /tmp/ccLwsblc.s:456    .text:0000000000000190 .L0 
   src/syscall_c.cpp:114    .text:0000000000000190 .L0 
     /tmp/ccLwsblc.s:463    .text:0000000000000194 .L0 
     /tmp/ccLwsblc.s:465    .text:0000000000000194 .L0 
     /tmp/ccLwsblc.s:467    .text:000000000000019c .L0 
GAS LISTING /tmp/ccLwsblc.s 			page 23


     /tmp/ccLwsblc.s:468    .text:000000000000019c .L0 
     /tmp/ccLwsblc.s:470    .text:00000000000001a0 .L0 
     /tmp/ccLwsblc.s:472    .text:00000000000001a4 .L0 
     /tmp/ccLwsblc.s:478    .text:00000000000001a4 _Z8sem_openPP4KSemj
     /tmp/ccLwsblc.s:481    .text:00000000000001a4 .L0 
     /tmp/ccLwsblc.s:483    .text:00000000000001a4 .L0 
     /tmp/ccLwsblc.s:484    .text:00000000000001a8 .L0 
     /tmp/ccLwsblc.s:486    .text:00000000000001ac .L0 
     /tmp/ccLwsblc.s:488    .text:00000000000001b0 .L0 
     /tmp/ccLwsblc.s:492    .text:00000000000001b8 .L0 
   src/syscall_c.cpp:120    .text:00000000000001b8 .L0 
     /tmp/ccLwsblc.s:499    .text:00000000000001bc .L0 
   src/syscall_c.cpp:121    .text:00000000000001bc .L0 
     /tmp/ccLwsblc.s:504    .text:00000000000001c0 .L0 
   src/syscall_c.cpp:122    .text:00000000000001c0 .L0 
     /tmp/ccLwsblc.s:512    .text:00000000000001c4 .L0 
     /tmp/ccLwsblc.s:513    .text:00000000000001c4 .L0 
   src/syscall_c.cpp:9      .text:00000000000001c4 .L0 
     /tmp/ccLwsblc.s:522    .text:00000000000001c8 .L0 
     /tmp/ccLwsblc.s:523    .text:00000000000001c8 .L0 
   src/syscall_c.cpp:131    .text:00000000000001c8 .L0 
     /tmp/ccLwsblc.s:530    .text:00000000000001cc .L0 
     /tmp/ccLwsblc.s:532    .text:00000000000001cc .L0 
     /tmp/ccLwsblc.s:534    .text:00000000000001d4 .L0 
     /tmp/ccLwsblc.s:535    .text:00000000000001d4 .L0 
     /tmp/ccLwsblc.s:537    .text:00000000000001d8 .L0 
     /tmp/ccLwsblc.s:539    .text:00000000000001dc .L0 
     /tmp/ccLwsblc.s:545    .text:00000000000001dc _Z9sem_closeP4KSem
     /tmp/ccLwsblc.s:548    .text:00000000000001dc .L0 
     /tmp/ccLwsblc.s:550    .text:00000000000001dc .L0 
     /tmp/ccLwsblc.s:551    .text:00000000000001e0 .L0 
     /tmp/ccLwsblc.s:553    .text:00000000000001e4 .L0 
     /tmp/ccLwsblc.s:555    .text:00000000000001e8 .L0 
     /tmp/ccLwsblc.s:558    .text:00000000000001ec .L0 
   src/syscall_c.cpp:137    .text:00000000000001ec .L0 
     /tmp/ccLwsblc.s:565    .text:00000000000001f0 .L0 
   src/syscall_c.cpp:138    .text:00000000000001f0 .L0 
     /tmp/ccLwsblc.s:573    .text:00000000000001f4 .L0 
     /tmp/ccLwsblc.s:574    .text:00000000000001f4 .L0 
   src/syscall_c.cpp:9      .text:00000000000001f4 .L0 
     /tmp/ccLwsblc.s:583    .text:00000000000001f8 .L0 
     /tmp/ccLwsblc.s:584    .text:00000000000001f8 .L0 
   src/syscall_c.cpp:145    .text:00000000000001f8 .L0 
     /tmp/ccLwsblc.s:591    .text:00000000000001fc .L0 
     /tmp/ccLwsblc.s:593    .text:00000000000001fc .L0 
     /tmp/ccLwsblc.s:595    .text:0000000000000204 .L0 
     /tmp/ccLwsblc.s:596    .text:0000000000000204 .L0 
     /tmp/ccLwsblc.s:598    .text:0000000000000208 .L0 
     /tmp/ccLwsblc.s:600    .text:000000000000020c .L0 
     /tmp/ccLwsblc.s:606    .text:000000000000020c _Z8sem_waitP4KSem
     /tmp/ccLwsblc.s:609    .text:000000000000020c .L0 
     /tmp/ccLwsblc.s:611    .text:000000000000020c .L0 
     /tmp/ccLwsblc.s:612    .text:0000000000000210 .L0 
     /tmp/ccLwsblc.s:614    .text:0000000000000214 .L0 
     /tmp/ccLwsblc.s:616    .text:0000000000000218 .L0 
     /tmp/ccLwsblc.s:619    .text:000000000000021c .L0 
   src/syscall_c.cpp:151    .text:000000000000021c .L0 
GAS LISTING /tmp/ccLwsblc.s 			page 24


     /tmp/ccLwsblc.s:626    .text:0000000000000220 .L0 
   src/syscall_c.cpp:152    .text:0000000000000220 .L0 
     /tmp/ccLwsblc.s:634    .text:0000000000000224 .L0 
     /tmp/ccLwsblc.s:635    .text:0000000000000224 .L0 
   src/syscall_c.cpp:9      .text:0000000000000224 .L0 
     /tmp/ccLwsblc.s:644    .text:0000000000000228 .L0 
     /tmp/ccLwsblc.s:645    .text:0000000000000228 .L0 
   src/syscall_c.cpp:159    .text:0000000000000228 .L0 
     /tmp/ccLwsblc.s:652    .text:000000000000022c .L0 
     /tmp/ccLwsblc.s:654    .text:000000000000022c .L0 
     /tmp/ccLwsblc.s:656    .text:0000000000000234 .L0 
     /tmp/ccLwsblc.s:657    .text:0000000000000234 .L0 
     /tmp/ccLwsblc.s:659    .text:0000000000000238 .L0 
     /tmp/ccLwsblc.s:661    .text:000000000000023c .L0 
     /tmp/ccLwsblc.s:667    .text:000000000000023c _Z10sem_signalP4KSem
     /tmp/ccLwsblc.s:670    .text:000000000000023c .L0 
     /tmp/ccLwsblc.s:672    .text:000000000000023c .L0 
     /tmp/ccLwsblc.s:673    .text:0000000000000240 .L0 
     /tmp/ccLwsblc.s:675    .text:0000000000000244 .L0 
     /tmp/ccLwsblc.s:677    .text:0000000000000248 .L0 
     /tmp/ccLwsblc.s:680    .text:000000000000024c .L0 
   src/syscall_c.cpp:165    .text:000000000000024c .L0 
     /tmp/ccLwsblc.s:687    .text:0000000000000250 .L0 
   src/syscall_c.cpp:166    .text:0000000000000250 .L0 
     /tmp/ccLwsblc.s:695    .text:0000000000000254 .L0 
     /tmp/ccLwsblc.s:696    .text:0000000000000254 .L0 
   src/syscall_c.cpp:9      .text:0000000000000254 .L0 
     /tmp/ccLwsblc.s:705    .text:0000000000000258 .L0 
     /tmp/ccLwsblc.s:706    .text:0000000000000258 .L0 
   src/syscall_c.cpp:173    .text:0000000000000258 .L0 
     /tmp/ccLwsblc.s:713    .text:000000000000025c .L0 
     /tmp/ccLwsblc.s:715    .text:000000000000025c .L0 
     /tmp/ccLwsblc.s:717    .text:0000000000000264 .L0 
     /tmp/ccLwsblc.s:718    .text:0000000000000264 .L0 
     /tmp/ccLwsblc.s:720    .text:0000000000000268 .L0 
     /tmp/ccLwsblc.s:722    .text:000000000000026c .L0 
     /tmp/ccLwsblc.s:728    .text:000000000000026c _Z4getcv
     /tmp/ccLwsblc.s:731    .text:000000000000026c .L0 
     /tmp/ccLwsblc.s:732    .text:000000000000026c .L0 
     /tmp/ccLwsblc.s:733    .text:0000000000000270 .L0 
     /tmp/ccLwsblc.s:735    .text:0000000000000274 .L0 
     /tmp/ccLwsblc.s:737    .text:0000000000000278 .L0 
     /tmp/ccLwsblc.s:739    .text:0000000000000278 .L0 
   src/syscall_c.cpp:179    .text:0000000000000278 .L0 
     /tmp/ccLwsblc.s:748    .text:000000000000027c .L0 
     /tmp/ccLwsblc.s:749    .text:000000000000027c .L0 
   src/syscall_c.cpp:9      .text:000000000000027c .L0 
     /tmp/ccLwsblc.s:758    .text:0000000000000280 .L0 
     /tmp/ccLwsblc.s:759    .text:0000000000000280 .L0 
   src/syscall_c.cpp:184    .text:0000000000000280 .L0 
     /tmp/ccLwsblc.s:766    .text:0000000000000284 .L0 
     /tmp/ccLwsblc.s:768    .text:0000000000000284 .L0 
     /tmp/ccLwsblc.s:770    .text:000000000000028c .L0 
     /tmp/ccLwsblc.s:771    .text:000000000000028c .L0 
     /tmp/ccLwsblc.s:773    .text:0000000000000290 .L0 
     /tmp/ccLwsblc.s:775    .text:0000000000000294 .L0 
     /tmp/ccLwsblc.s:781    .text:0000000000000294 _Z4putcc
GAS LISTING /tmp/ccLwsblc.s 			page 25


     /tmp/ccLwsblc.s:784    .text:0000000000000294 .L0 
     /tmp/ccLwsblc.s:786    .text:0000000000000294 .L0 
     /tmp/ccLwsblc.s:787    .text:0000000000000298 .L0 
     /tmp/ccLwsblc.s:789    .text:000000000000029c .L0 
     /tmp/ccLwsblc.s:791    .text:00000000000002a0 .L0 
     /tmp/ccLwsblc.s:794    .text:00000000000002a4 .L0 
   src/syscall_c.cpp:190    .text:00000000000002a4 .L0 
     /tmp/ccLwsblc.s:801    .text:00000000000002a8 .L0 
   src/syscall_c.cpp:191    .text:00000000000002a8 .L0 
     /tmp/ccLwsblc.s:809    .text:00000000000002ac .L0 
     /tmp/ccLwsblc.s:810    .text:00000000000002ac .L0 
   src/syscall_c.cpp:9      .text:00000000000002ac .L0 
     /tmp/ccLwsblc.s:819    .text:00000000000002b0 .L0 
     /tmp/ccLwsblc.s:820    .text:00000000000002b4 .L0 
     /tmp/ccLwsblc.s:821    .text:00000000000002b4 .L0 
     /tmp/ccLwsblc.s:823    .text:00000000000002b8 .L0 
     /tmp/ccLwsblc.s:825    .text:00000000000002bc .L0 
     /tmp/ccLwsblc.s:833    .text:00000000000002bc .L0 
     /tmp/ccLwsblc.s:171    .text:0000000000000098 .L0 
     /tmp/ccLwsblc.s:34     .text:0000000000000020 .L2
     /tmp/ccLwsblc.s:256    .text:00000000000000f4 .L9
     /tmp/ccLwsblc.s:262    .text:00000000000000fc .L12
     /tmp/ccLwsblc.s:184    .text:00000000000000b8 .L7
     /tmp/ccLwsblc.s:235    .text:00000000000000d8 .L8
     /tmp/ccLwsblc.s:2102   .debug_abbrev:0000000000000000 .Ldebug_abbrev0
     /tmp/ccLwsblc.s:3454   .debug_str:00000000000006f6 .LASF137
     /tmp/ccLwsblc.s:3318   .debug_str:00000000000002c2 .LASF138
     /tmp/ccLwsblc.s:3302   .debug_str:0000000000000239 .LASF139
     /tmp/ccLwsblc.s:5      .text:0000000000000000 .Ltext0
     /tmp/ccLwsblc.s:828    .text:00000000000002bc .Letext0
     /tmp/ccLwsblc.s:3210   .debug_line:0000000000000000 .Ldebug_line0
     /tmp/ccLwsblc.s:3364   .debug_str:0000000000000425 .LASF0
     /tmp/ccLwsblc.s:3382   .debug_str:00000000000004a6 .LASF1
     /tmp/ccLwsblc.s:3348   .debug_str:00000000000003cc .LASF2
     /tmp/ccLwsblc.s:3312   .debug_str:00000000000002aa .LASF4
     /tmp/ccLwsblc.s:3430   .debug_str:0000000000000664 .LASF3
     /tmp/ccLwsblc.s:3242   .debug_str:00000000000000c5 .LASF5
     /tmp/ccLwsblc.s:3270   .debug_str:000000000000018b .LASF6
     /tmp/ccLwsblc.s:3388   .debug_str:00000000000004da .LASF7
     /tmp/ccLwsblc.s:3362   .debug_str:0000000000000412 .LASF8
     /tmp/ccLwsblc.s:3470   .debug_str:0000000000000816 .LASF9
     /tmp/ccLwsblc.s:3298   .debug_str:0000000000000225 .LASF10
     /tmp/ccLwsblc.s:3402   .debug_str:0000000000000559 .LASF11
     /tmp/ccLwsblc.s:3460   .debug_str:00000000000007cb .LASF12
     /tmp/ccLwsblc.s:3246   .debug_str:00000000000000e1 .LASF13
     /tmp/ccLwsblc.s:3218   .debug_str:0000000000000032 .LASF14
     /tmp/ccLwsblc.s:3252   .debug_str:000000000000010b .LASF15
     /tmp/ccLwsblc.s:3424   .debug_str:000000000000061f .LASF16
     /tmp/ccLwsblc.s:3264   .debug_str:0000000000000153 .LASF17
     /tmp/ccLwsblc.s:3212   .debug_str:0000000000000000 .LASF18
     /tmp/ccLwsblc.s:3250   .debug_str:00000000000000fe .LASF140
     /tmp/ccLwsblc.s:3456   .debug_str:00000000000007ba .LASF19
     /tmp/ccLwsblc.s:3486   .debug_str:0000000000000891 .LASF20
     /tmp/ccLwsblc.s:3314   .debug_str:00000000000002b1 .LASF21
     /tmp/ccLwsblc.s:3238   .debug_str:00000000000000b3 .LASF22
     /tmp/ccLwsblc.s:3228   .debug_str:0000000000000085 .LASF23
     /tmp/ccLwsblc.s:3438   .debug_str:00000000000006a6 .LASF24
GAS LISTING /tmp/ccLwsblc.s 			page 26


     /tmp/ccLwsblc.s:3226   .debug_str:000000000000007d .LASF77
     /tmp/ccLwsblc.s:3324   .debug_str:00000000000002fb .LASF25
     /tmp/ccLwsblc.s:3492   .debug_str:00000000000008b2 .LASF27
     /tmp/ccLwsblc.s:3416   .debug_str:00000000000005ed .LASF141
     /tmp/ccLwsblc.s:3484   .debug_str:0000000000000887 .LASF26
     /tmp/ccLwsblc.s:3504   .debug_str:0000000000000935 .LASF28
     /tmp/ccLwsblc.s:3346   .debug_str:00000000000003c2 .LASF29
     /tmp/ccLwsblc.s:3266   .debug_str:0000000000000169 .LASF31
     /tmp/ccLwsblc.s:3338   .debug_str:0000000000000383 .LASF30
     /tmp/ccLwsblc.s:3400   .debug_str:0000000000000541 .LASF32
     /tmp/ccLwsblc.s:3358   .debug_str:0000000000000405 .LASF33
     /tmp/ccLwsblc.s:3326   .debug_str:0000000000000308 .LASF34
     /tmp/ccLwsblc.s:3332   .debug_str:0000000000000346 .LASF35
     /tmp/ccLwsblc.s:3410   .debug_str:000000000000059d .LASF36
     /tmp/ccLwsblc.s:3450   .debug_str:00000000000006db .LASF37
     /tmp/ccLwsblc.s:3494   .debug_str:00000000000008d4 .LASF38
     /tmp/ccLwsblc.s:3422   .debug_str:000000000000060d .LASF39
     /tmp/ccLwsblc.s:3320   .debug_str:00000000000002d4 .LASF40
     /tmp/ccLwsblc.s:3502   .debug_str:000000000000092a .LASF41
     /tmp/ccLwsblc.s:3464   .debug_str:00000000000007df .LASF43
     /tmp/ccLwsblc.s:3294   .debug_str:0000000000000211 .LASF45
     /tmp/ccLwsblc.s:3374   .debug_str:0000000000000459 .LASF47
     /tmp/ccLwsblc.s:3330   .debug_str:0000000000000332 .LASF42
     /tmp/ccLwsblc.s:3214   .debug_str:0000000000000009 .LASF44
     /tmp/ccLwsblc.s:3274   .debug_str:00000000000001a0 .LASF46
     /tmp/ccLwsblc.s:3292   .debug_str:00000000000001f9 .LASF48
     /tmp/ccLwsblc.s:3418   .debug_str:00000000000005f2 .LASF49
     /tmp/ccLwsblc.s:3472   .debug_str:0000000000000826 .LASF50
     /tmp/ccLwsblc.s:3368   .debug_str:0000000000000445 .LASF51
     /tmp/ccLwsblc.s:3286   .debug_str:00000000000001d2 .LASF53
     /tmp/ccLwsblc.s:3444   .debug_str:00000000000006bf .LASF52
     /tmp/ccLwsblc.s:3434   .debug_str:0000000000000686 .LASF54
     /tmp/ccLwsblc.s:3474   .debug_str:0000000000000841 .LASF55
     /tmp/ccLwsblc.s:3308   .debug_str:0000000000000286 .LASF56
     /tmp/ccLwsblc.s:3248   .debug_str:00000000000000f1 .LASF57
     /tmp/ccLwsblc.s:3448   .debug_str:00000000000006cf .LASF58
     /tmp/ccLwsblc.s:3406   .debug_str:000000000000057d .LASF59
     /tmp/ccLwsblc.s:3420   .debug_str:0000000000000600 .LASF60
     /tmp/ccLwsblc.s:3496   .debug_str:00000000000008f3 .LASF142
     /tmp/ccLwsblc.s:3322   .debug_str:00000000000002f3 .LASF61
     /tmp/ccLwsblc.s:3344   .debug_str:00000000000003b3 .LASF62
     /tmp/ccLwsblc.s:3370   .debug_str:000000000000044e .LASF63
     /tmp/ccLwsblc.s:3372   .debug_str:0000000000000454 .LASF64
     /tmp/ccLwsblc.s:3376   .debug_str:0000000000000471 .LASF65
     /tmp/ccLwsblc.s:3432   .debug_str:0000000000000676 .LASF66
     /tmp/ccLwsblc.s:3310   .debug_str:000000000000029e .LASF67
     /tmp/ccLwsblc.s:3392   .debug_str:00000000000004f2 .LASF68
     /tmp/ccLwsblc.s:3282   .debug_str:00000000000001bb .LASF69
     /tmp/ccLwsblc.s:3386   .debug_str:00000000000004d3 .LASF70
     /tmp/ccLwsblc.s:3380   .debug_str:000000000000049a .LASF71
     /tmp/ccLwsblc.s:3290   .debug_str:00000000000001ea .LASF72
     /tmp/ccLwsblc.s:3490   .debug_str:00000000000008aa .LASF73
     /tmp/ccLwsblc.s:3412   .debug_str:00000000000005c0 .LASF74
     /tmp/ccLwsblc.s:3482   .debug_str:0000000000000879 .LASF83
     /tmp/ccLwsblc.s:3304   .debug_str:0000000000000257 .LASF84
     /tmp/ccLwsblc.s:3280   .debug_str:00000000000001b5 .LASF75
     /tmp/ccLwsblc.s:3476   .debug_str:000000000000084c .LASF143
GAS LISTING /tmp/ccLwsblc.s 			page 27


     /tmp/ccLwsblc.s:3500   .debug_str:000000000000091e .LASF76
     /tmp/ccLwsblc.s:3278   .debug_str:00000000000001b0 .LASF78
     /tmp/ccLwsblc.s:3254   .debug_str:0000000000000117 .LASF79
     /tmp/ccLwsblc.s:3236   .debug_str:00000000000000ae .LASF80
     /tmp/ccLwsblc.s:3426   .debug_str:0000000000000635 .LASF81
     /tmp/ccLwsblc.s:3384   .debug_str:00000000000004b9 .LASF82
     /tmp/ccLwsblc.s:3478   .debug_str:0000000000000851 .LASF85
     /tmp/ccLwsblc.s:3300   .debug_str:0000000000000233 .LASF86
     /tmp/ccLwsblc.s:3462   .debug_str:00000000000007da .LASF87
     /tmp/ccLwsblc.s:3342   .debug_str:000000000000039e .LASF88
     /tmp/ccLwsblc.s:3220   .debug_str:0000000000000042 .LASF89
     /tmp/ccLwsblc.s:3356   .debug_str:00000000000003fb .LASF105
     /tmp/ccLwsblc.s:3328   .debug_str:000000000000031a .LASF107
     /tmp/ccLwsblc.s:3398   .debug_str:0000000000000534 .LASF90
     /tmp/ccLwsblc.s:3336   .debug_str:000000000000036e .LASF91
     /tmp/ccLwsblc.s:3260   .debug_str:000000000000012f .LASF92
     /tmp/ccLwsblc.s:3262   .debug_str:0000000000000137 .LASF93
     /tmp/ccLwsblc.s:3446   .debug_str:00000000000006c7 .LASF94
     /tmp/ccLwsblc.s:3378   .debug_str:000000000000047b .LASF95
     /tmp/ccLwsblc.s:3458   .debug_str:00000000000007c2 .LASF96
     /tmp/ccLwsblc.s:3414   .debug_str:00000000000005d1 .LASF97
     /tmp/ccLwsblc.s:3306   .debug_str:000000000000027f .LASF98
     /tmp/ccLwsblc.s:3222   .debug_str:000000000000005a .LASF99
     /tmp/ccLwsblc.s:3352   .debug_str:00000000000003e1 .LASF100
     /tmp/ccLwsblc.s:3466   .debug_str:00000000000007f5 .LASF144
     /tmp/ccLwsblc.s:3288   .debug_str:00000000000001e5 .LASF101
     /tmp/ccLwsblc.s:3354   .debug_str:00000000000003f6 .LASF102
     /tmp/ccLwsblc.s:3296   .debug_str:000000000000021c .LASF103
     /tmp/ccLwsblc.s:782    .text:0000000000000294 .LFB44
     /tmp/ccLwsblc.s:826    .text:00000000000002bc .LFE44
     /tmp/ccLwsblc.s:2973   .debug_loc:0000000000000000 .LLST13
     /tmp/ccLwsblc.s:807    .text:00000000000002ac .LBB52
     /tmp/ccLwsblc.s:817    .text:00000000000002b0 .LBE52
     /tmp/ccLwsblc.s:3390   .debug_str:00000000000004ed .LASF104
     /tmp/ccLwsblc.s:3276   .debug_str:00000000000001ab .LASF106
     /tmp/ccLwsblc.s:3234   .debug_str:00000000000000a5 .LASF108
     /tmp/ccLwsblc.s:729    .text:000000000000026c .LFB43
     /tmp/ccLwsblc.s:776    .text:0000000000000294 .LFE43
     /tmp/ccLwsblc.s:3440   .debug_str:00000000000006af .LASF109
     /tmp/ccLwsblc.s:746    .text:000000000000027c .LBB50
     /tmp/ccLwsblc.s:756    .text:0000000000000280 .LBE50
     /tmp/ccLwsblc.s:3468   .debug_str:000000000000080b .LASF110
     /tmp/ccLwsblc.s:3498   .debug_str:0000000000000909 .LASF111
     /tmp/ccLwsblc.s:668    .text:000000000000023c .LFB42
     /tmp/ccLwsblc.s:723    .text:000000000000026c .LFE42
     /tmp/ccLwsblc.s:2987   .debug_loc:0000000000000039 .LLST12
     /tmp/ccLwsblc.s:693    .text:0000000000000254 .LBB48
     /tmp/ccLwsblc.s:703    .text:0000000000000258 .LBE48
     /tmp/ccLwsblc.s:3256   .debug_str:000000000000011c .LASF112
     /tmp/ccLwsblc.s:3488   .debug_str:0000000000000898 .LASF113
     /tmp/ccLwsblc.s:607    .text:000000000000020c .LFB41
     /tmp/ccLwsblc.s:662    .text:000000000000023c .LFE41
     /tmp/ccLwsblc.s:2998   .debug_loc:000000000000006f .LLST11
     /tmp/ccLwsblc.s:632    .text:0000000000000224 .LBB46
     /tmp/ccLwsblc.s:642    .text:0000000000000228 .LBE46
     /tmp/ccLwsblc.s:3258   .debug_str:0000000000000125 .LASF114
     /tmp/ccLwsblc.s:3366   .debug_str:0000000000000432 .LASF115
GAS LISTING /tmp/ccLwsblc.s 			page 28


     /tmp/ccLwsblc.s:546    .text:00000000000001dc .LFB40
     /tmp/ccLwsblc.s:601    .text:000000000000020c .LFE40
     /tmp/ccLwsblc.s:3350   .debug_str:00000000000003da .LASF116
     /tmp/ccLwsblc.s:3009   .debug_loc:00000000000000a5 .LLST10
     /tmp/ccLwsblc.s:571    .text:00000000000001f4 .LBB44
     /tmp/ccLwsblc.s:581    .text:00000000000001f8 .LBE44
     /tmp/ccLwsblc.s:3284   .debug_str:00000000000001c9 .LASF117
     /tmp/ccLwsblc.s:3394   .debug_str:00000000000004ff .LASF118
     /tmp/ccLwsblc.s:479    .text:00000000000001a4 .LFB39
     /tmp/ccLwsblc.s:540    .text:00000000000001dc .LFE39
     /tmp/ccLwsblc.s:3020   .debug_loc:00000000000000db .LLST8
     /tmp/ccLwsblc.s:3224   .debug_str:0000000000000078 .LASF119
     /tmp/ccLwsblc.s:3031   .debug_loc:0000000000000111 .LLST9
     /tmp/ccLwsblc.s:510    .text:00000000000001c4 .LBB42
     /tmp/ccLwsblc.s:520    .text:00000000000001c8 .LBE42
     /tmp/ccLwsblc.s:3232   .debug_str:000000000000009a .LASF120
     /tmp/ccLwsblc.s:3408   .debug_str:000000000000058d .LASF121
     /tmp/ccLwsblc.s:418    .text:0000000000000174 .LFB38
     /tmp/ccLwsblc.s:473    .text:00000000000001a4 .LFE38
     /tmp/ccLwsblc.s:3480   .debug_str:000000000000086c .LASF122
     /tmp/ccLwsblc.s:3045   .debug_loc:000000000000014a .LLST7
     /tmp/ccLwsblc.s:443    .text:000000000000018c .LBB40
     /tmp/ccLwsblc.s:453    .text:0000000000000190 .LBE40
     /tmp/ccLwsblc.s:3452   .debug_str:00000000000006ea .LASF123
     /tmp/ccLwsblc.s:3244   .debug_str:00000000000000cc .LASF124
     /tmp/ccLwsblc.s:368    .text:000000000000014c .LFB37
     /tmp/ccLwsblc.s:412    .text:0000000000000174 .LFE37
     /tmp/ccLwsblc.s:3056   .debug_loc:0000000000000180 .LLST6
     /tmp/ccLwsblc.s:393    .text:0000000000000164 .LBB38
     /tmp/ccLwsblc.s:403    .text:0000000000000168 .LBE38
     /tmp/ccLwsblc.s:3334   .debug_str:000000000000035e .LASF125
     /tmp/ccLwsblc.s:3404   .debug_str:0000000000000568 .LASF126
     /tmp/ccLwsblc.s:326    .text:000000000000012c .LFB36
     /tmp/ccLwsblc.s:362    .text:000000000000014c .LFE36
     /tmp/ccLwsblc.s:343    .text:000000000000013c .LBB36
     /tmp/ccLwsblc.s:353    .text:0000000000000140 .LBE36
     /tmp/ccLwsblc.s:3230   .debug_str:000000000000008e .LASF127
     /tmp/ccLwsblc.s:3428   .debug_str:0000000000000653 .LASF128
     /tmp/ccLwsblc.s:273    .text:0000000000000104 .LFB35
     /tmp/ccLwsblc.s:320    .text:000000000000012c .LFE35
     /tmp/ccLwsblc.s:290    .text:0000000000000114 .LBB34
     /tmp/ccLwsblc.s:300    .text:0000000000000118 .LBE34
     /tmp/ccLwsblc.s:3268   .debug_str:000000000000017d .LASF129
     /tmp/ccLwsblc.s:3396   .debug_str:0000000000000513 .LASF130
     /tmp/ccLwsblc.s:147    .text:0000000000000070 .LFB34
     /tmp/ccLwsblc.s:267    .text:0000000000000104 .LFE34
     /tmp/ccLwsblc.s:3067   .debug_loc:00000000000001b6 .LLST2
     /tmp/ccLwsblc.s:3340   .debug_str:0000000000000390 .LASF131
     /tmp/ccLwsblc.s:3093   .debug_loc:0000000000000228 .LLST3
     /tmp/ccLwsblc.s:3115   .debug_loc:0000000000000287 .LLST4
     /tmp/ccLwsblc.s:3141   .debug_loc:00000000000002f9 .LLST5
     /tmp/ccLwsblc.s:213    .text:00000000000000cc .LBB32
     /tmp/ccLwsblc.s:223    .text:00000000000000d0 .LBE32
     /tmp/ccLwsblc.s:178    .text:00000000000000b0 .LVL11
     /tmp/ccLwsblc.s:3316   .debug_str:00000000000002b9 .LASF132
     /tmp/ccLwsblc.s:3272   .debug_str:0000000000000192 .LASF133
     /tmp/ccLwsblc.s:86     .text:0000000000000040 .LFB33
GAS LISTING /tmp/ccLwsblc.s 			page 29


     /tmp/ccLwsblc.s:141    .text:0000000000000070 .LFE33
     /tmp/ccLwsblc.s:3162   .debug_loc:0000000000000357 .LLST1
     /tmp/ccLwsblc.s:111    .text:0000000000000058 .LBB30
     /tmp/ccLwsblc.s:121    .text:000000000000005c .LBE30
     /tmp/ccLwsblc.s:3216   .debug_str:0000000000000028 .LASF134
     /tmp/ccLwsblc.s:3436   .debug_str:0000000000000698 .LASF135
     /tmp/ccLwsblc.s:10     .text:0000000000000000 .LFB32
     /tmp/ccLwsblc.s:80     .text:0000000000000040 .LFE32
     /tmp/ccLwsblc.s:3360   .debug_str:000000000000040d .LASF136
     /tmp/ccLwsblc.s:3173   .debug_loc:000000000000038d .LLST0
     /tmp/ccLwsblc.s:51     .text:000000000000002c .LBB28
     /tmp/ccLwsblc.s:61     .text:0000000000000030 .LBE28
     /tmp/ccLwsblc.s:3442   .debug_str:00000000000006b9 .LASF145
     /tmp/ccLwsblc.s:3240   .debug_str:00000000000000bb .LASF146
     /tmp/ccLwsblc.s:785    .text:0000000000000294 .LVL39
     /tmp/ccLwsblc.s:799    .text:00000000000002a8 .LVL40
     /tmp/ccLwsblc.s:671    .text:000000000000023c .LVL35
     /tmp/ccLwsblc.s:685    .text:0000000000000250 .LVL36
     /tmp/ccLwsblc.s:610    .text:000000000000020c .LVL32
     /tmp/ccLwsblc.s:624    .text:0000000000000220 .LVL33
     /tmp/ccLwsblc.s:549    .text:00000000000001dc .LVL29
     /tmp/ccLwsblc.s:563    .text:00000000000001f0 .LVL30
     /tmp/ccLwsblc.s:482    .text:00000000000001a4 .LVL26
     /tmp/ccLwsblc.s:497    .text:00000000000001bc .LVL27
     /tmp/ccLwsblc.s:421    .text:0000000000000174 .LVL23
     /tmp/ccLwsblc.s:435    .text:0000000000000188 .LVL24
     /tmp/ccLwsblc.s:371    .text:000000000000014c .LVL21
     /tmp/ccLwsblc.s:385    .text:0000000000000160 .LVL22
     /tmp/ccLwsblc.s:150    .text:0000000000000070 .LVL8
     /tmp/ccLwsblc.s:176    .text:00000000000000a8 .LVL10
     /tmp/ccLwsblc.s:248    .text:00000000000000e8 .LVL16
     /tmp/ccLwsblc.s:255    .text:00000000000000f4 .LVL18
     /tmp/ccLwsblc.s:261    .text:00000000000000fc .LVL19
     /tmp/ccLwsblc.s:245    .text:00000000000000e4 .LVL15
     /tmp/ccLwsblc.s:251    .text:00000000000000ec .LVL17
     /tmp/ccLwsblc.s:169    .text:0000000000000098 .LVL9
     /tmp/ccLwsblc.s:180    .text:00000000000000b4 .LVL12
     /tmp/ccLwsblc.s:89     .text:0000000000000040 .LVL5
     /tmp/ccLwsblc.s:103    .text:0000000000000054 .LVL6
     /tmp/ccLwsblc.s:14     .text:0000000000000000 .LVL0
     /tmp/ccLwsblc.s:24     .text:0000000000000010 .LVL1
     /tmp/ccLwsblc.s:30     .text:0000000000000018 .LVL2
     /tmp/ccLwsblc.s:37     .text:0000000000000024 .LVL3
     /tmp/ccLwsblc.s:834    .debug_info:0000000000000000 .Ldebug_info0

UNDEFINED SYMBOLS
main
