GAS LISTING /tmp/ccU8CX3A.s 			page 1


   1              		.file	"syscall_cpp.cpp"
   2              		.option pic
   3              		.option norelax
   4              		.text
   5              	.Ltext0:
   6              		.section	.text._ZN6Thread3runEv,"axG",@progbits,_ZN6Thread3runEv,comdat
   7              		.align	2
   8              		.weak	_ZN6Thread3runEv
  10              	_ZN6Thread3runEv:
  11              	.LFB0:
  12              		.file 1 "src/../h/syscall_cpp.hpp"
   1:src/../h/syscall_cpp.hpp **** #ifndef _syscall_cpp
   2:src/../h/syscall_cpp.hpp **** #define _syscall_cpp
   3:src/../h/syscall_cpp.hpp **** 
   4:src/../h/syscall_cpp.hpp **** #include "../lib/hw.h"
   5:src/../h/syscall_cpp.hpp **** 
   6:src/../h/syscall_cpp.hpp **** void* operator new(size_t);
   7:src/../h/syscall_cpp.hpp **** 
   8:src/../h/syscall_cpp.hpp **** void* operator new[](size_t);
   9:src/../h/syscall_cpp.hpp **** 
  10:src/../h/syscall_cpp.hpp **** void operator delete(void*)
  11:src/../h/syscall_cpp.hpp **** 
  12:src/../h/syscall_cpp.hpp **** noexcept;
  13:src/../h/syscall_cpp.hpp **** 
  14:src/../h/syscall_cpp.hpp **** void operator delete[](void*)
  15:src/../h/syscall_cpp.hpp **** 
  16:src/../h/syscall_cpp.hpp **** noexcept;
  17:src/../h/syscall_cpp.hpp **** 
  18:src/../h/syscall_cpp.hpp **** class TCB;
  19:src/../h/syscall_cpp.hpp **** 
  20:src/../h/syscall_cpp.hpp **** typedef TCB* thread_t;
  21:src/../h/syscall_cpp.hpp **** 
  22:src/../h/syscall_cpp.hpp **** class KSem;
  23:src/../h/syscall_cpp.hpp **** 
  24:src/../h/syscall_cpp.hpp **** typedef KSem* sem_t;
  25:src/../h/syscall_cpp.hpp **** 
  26:src/../h/syscall_cpp.hpp **** class Thread {
  27:src/../h/syscall_cpp.hpp **** public:
  28:src/../h/syscall_cpp.hpp **** 	Thread(void (* body)(void*), void* arg);
  29:src/../h/syscall_cpp.hpp **** 
  30:src/../h/syscall_cpp.hpp **** 	virtual ~Thread();
  31:src/../h/syscall_cpp.hpp **** 
  32:src/../h/syscall_cpp.hpp **** 	int start();
  33:src/../h/syscall_cpp.hpp **** 
  34:src/../h/syscall_cpp.hpp **** 	void join();
  35:src/../h/syscall_cpp.hpp **** 
  36:src/../h/syscall_cpp.hpp **** 	static void dispatch();
  37:src/../h/syscall_cpp.hpp **** 
  38:src/../h/syscall_cpp.hpp **** 	static int sleep(time_t);
  39:src/../h/syscall_cpp.hpp **** 
  40:src/../h/syscall_cpp.hpp **** protected:
  41:src/../h/syscall_cpp.hpp **** 	Thread();
  42:src/../h/syscall_cpp.hpp **** 
  43:src/../h/syscall_cpp.hpp **** 	virtual void run() {}
  13              		.loc 1 43 15
  14              		.cfi_startproc
  15              	.LVL0:
GAS LISTING /tmp/ccU8CX3A.s 			page 2


  16 0000 130101FF 		addi	sp,sp,-16
  17              		.cfi_def_cfa_offset 16
  18 0004 23348100 		sd	s0,8(sp)
  19              		.cfi_offset 8, -8
  20 0008 13040101 		addi	s0,sp,16
  21              		.cfi_def_cfa 8, 0
  22              		.loc 1 43 22 is_stmt 0
  23 000c 03348100 		ld	s0,8(sp)
  24              		.cfi_restore 8
  25              		.cfi_def_cfa 2, 16
  26 0010 13010101 		addi	sp,sp,16
  27              		.cfi_def_cfa_offset 0
  28 0014 67800000 		jr	ra
  29              		.cfi_endproc
  30              	.LFE0:
  32              		.section	.text._ZN14PeriodicThread18periodicActivationEv,"axG",@progbits,_ZN14PeriodicThread18peri
  33              		.align	2
  34              		.weak	_ZN14PeriodicThread18periodicActivationEv
  36              	_ZN14PeriodicThread18periodicActivationEv:
  37              	.LFB1:
  44:src/../h/syscall_cpp.hpp **** 
  45:src/../h/syscall_cpp.hpp **** private:
  46:src/../h/syscall_cpp.hpp **** 	thread_t myHandle;
  47:src/../h/syscall_cpp.hpp **** 
  48:src/../h/syscall_cpp.hpp **** 	void (* body)(void*);
  49:src/../h/syscall_cpp.hpp **** 
  50:src/../h/syscall_cpp.hpp **** 	void* arg;
  51:src/../h/syscall_cpp.hpp **** };
  52:src/../h/syscall_cpp.hpp **** 
  53:src/../h/syscall_cpp.hpp **** 
  54:src/../h/syscall_cpp.hpp **** class Semaphore {
  55:src/../h/syscall_cpp.hpp **** public:
  56:src/../h/syscall_cpp.hpp **** 
  57:src/../h/syscall_cpp.hpp **** 	Semaphore(unsigned init = 1);
  58:src/../h/syscall_cpp.hpp **** 
  59:src/../h/syscall_cpp.hpp **** 	virtual ~Semaphore();
  60:src/../h/syscall_cpp.hpp **** 
  61:src/../h/syscall_cpp.hpp **** 	int wait();
  62:src/../h/syscall_cpp.hpp **** 
  63:src/../h/syscall_cpp.hpp **** 	int signal();
  64:src/../h/syscall_cpp.hpp **** 
  65:src/../h/syscall_cpp.hpp **** private:
  66:src/../h/syscall_cpp.hpp **** 	sem_t myHandle;
  67:src/../h/syscall_cpp.hpp **** 
  68:src/../h/syscall_cpp.hpp **** };
  69:src/../h/syscall_cpp.hpp **** 
  70:src/../h/syscall_cpp.hpp **** 
  71:src/../h/syscall_cpp.hpp **** class PeriodicThread : public Thread {
  72:src/../h/syscall_cpp.hpp **** public:
  73:src/../h/syscall_cpp.hpp **** 	void terminate();
  74:src/../h/syscall_cpp.hpp **** 
  75:src/../h/syscall_cpp.hpp **** protected:
  76:src/../h/syscall_cpp.hpp **** 	PeriodicThread(time_t period);
  77:src/../h/syscall_cpp.hpp **** 
  78:src/../h/syscall_cpp.hpp **** 	virtual void periodicActivation() {}
  38              		.loc 1 78 15 is_stmt 1
  39              		.cfi_startproc
GAS LISTING /tmp/ccU8CX3A.s 			page 3


  40              	.LVL1:
  41 0000 130101FF 		addi	sp,sp,-16
  42              		.cfi_def_cfa_offset 16
  43 0004 23348100 		sd	s0,8(sp)
  44              		.cfi_offset 8, -8
  45 0008 13040101 		addi	s0,sp,16
  46              		.cfi_def_cfa 8, 0
  47              		.loc 1 78 37 is_stmt 0
  48 000c 03348100 		ld	s0,8(sp)
  49              		.cfi_restore 8
  50              		.cfi_def_cfa 2, 16
  51 0010 13010101 		addi	sp,sp,16
  52              		.cfi_def_cfa_offset 0
  53 0014 67800000 		jr	ra
  54              		.cfi_endproc
  55              	.LFE1:
  57              		.text
  58              		.align	2
  59              		.globl	_ZN6ThreadD2Ev
  61              	_ZN6ThreadD2Ev:
  62              	.LFB39:
  63              		.file 2 "src/syscall_cpp.cpp"
   1:src/syscall_cpp.cpp **** //
   2:src/syscall_cpp.cpp **** // Created by os on 5/29/23.
   3:src/syscall_cpp.cpp **** //
   4:src/syscall_cpp.cpp **** #include "../h/syscall_cpp.hpp"
   5:src/syscall_cpp.cpp **** #include "../h/syscall_c.hpp"
   6:src/syscall_cpp.cpp **** #include "../h/TCB.hpp"
   7:src/syscall_cpp.cpp **** #include "../h/KSem.hpp"
   8:src/syscall_cpp.cpp **** 
   9:src/syscall_cpp.cpp **** //override globalnog new
  10:src/syscall_cpp.cpp **** void* operator new(size_t size) {
  11:src/syscall_cpp.cpp **** 	return mem_alloc(size);
  12:src/syscall_cpp.cpp **** }
  13:src/syscall_cpp.cpp **** 
  14:src/syscall_cpp.cpp **** void* operator new[](size_t size) {
  15:src/syscall_cpp.cpp **** 	return mem_alloc(size);
  16:src/syscall_cpp.cpp **** }
  17:src/syscall_cpp.cpp **** 
  18:src/syscall_cpp.cpp **** void operator delete(void* ptr)
  19:src/syscall_cpp.cpp **** 
  20:src/syscall_cpp.cpp **** noexcept {
  21:src/syscall_cpp.cpp **** mem_free(ptr);
  22:src/syscall_cpp.cpp **** }
  23:src/syscall_cpp.cpp **** 
  24:src/syscall_cpp.cpp **** void operator delete[](void* ptr)
  25:src/syscall_cpp.cpp **** 
  26:src/syscall_cpp.cpp **** noexcept {
  27:src/syscall_cpp.cpp **** mem_free(ptr);
  28:src/syscall_cpp.cpp **** }
  29:src/syscall_cpp.cpp **** 
  30:src/syscall_cpp.cpp **** //konstruktor za Thread
  31:src/syscall_cpp.cpp **** Thread::Thread(void (* body)(void*), void* arg) {
  32:src/syscall_cpp.cpp **** 	uint64* stack = nullptr;
  33:src/syscall_cpp.cpp **** 	if (body != nullptr) {
  34:src/syscall_cpp.cpp **** 		stack = (uint64*)mem_alloc(DEFAULT_STACK_SIZE);
  35:src/syscall_cpp.cpp **** 	}
GAS LISTING /tmp/ccU8CX3A.s 			page 4


  36:src/syscall_cpp.cpp **** 	myHandle = TCB::createThread(body,arg,stack);
  37:src/syscall_cpp.cpp **** }
  38:src/syscall_cpp.cpp **** 
  39:src/syscall_cpp.cpp **** Thread::~Thread() {
  64              		.loc 2 39 1 is_stmt 1
  65              		.cfi_startproc
  66              	.LVL2:
  67 0000 130101FF 		addi	sp,sp,-16
  68              		.cfi_def_cfa_offset 16
  69 0004 23348100 		sd	s0,8(sp)
  70              		.cfi_offset 8, -8
  71 0008 13040101 		addi	s0,sp,16
  72              		.cfi_def_cfa 8, 0
  40:src/syscall_cpp.cpp **** 
  41:src/syscall_cpp.cpp **** }
  73              		.loc 2 41 1 is_stmt 0
  74 000c 03348100 		ld	s0,8(sp)
  75              		.cfi_restore 8
  76              		.cfi_def_cfa 2, 16
  77 0010 13010101 		addi	sp,sp,16
  78              		.cfi_def_cfa_offset 0
  79 0014 67800000 		jr	ra
  80              		.cfi_endproc
  81              	.LFE39:
  83              		.globl	_ZN6ThreadD1Ev
  84              		.set	_ZN6ThreadD1Ev,_ZN6ThreadD2Ev
  85              		.section	.text._ZN14PeriodicThreadD2Ev,"axG",@progbits,_ZN14PeriodicThreadD5Ev,comdat
  86              		.align	2
  87              		.weak	_ZN14PeriodicThreadD2Ev
  89              	_ZN14PeriodicThreadD2Ev:
  90              	.LFB68:
  71:src/../h/syscall_cpp.hpp **** public:
  91              		.loc 1 71 7 is_stmt 1
  92              		.cfi_startproc
  93              	.LVL3:
  94 0000 130101FF 		addi	sp,sp,-16
  95              		.cfi_def_cfa_offset 16
  96 0004 23348100 		sd	s0,8(sp)
  97              		.cfi_offset 8, -8
  98 0008 13040101 		addi	s0,sp,16
  99              		.cfi_def_cfa 8, 0
 100              	.LBB33:
  71:src/../h/syscall_cpp.hpp **** public:
 101              		.loc 1 71 7 is_stmt 0
 102 000c 97070000 		lla	a5,_ZTV14PeriodicThread+16
 102      93870700 
 103 0014 2330F500 		sd	a5,0(a0)
 104              	.LBE33:
 105 0018 03348100 		ld	s0,8(sp)
 106              		.cfi_restore 8
 107              		.cfi_def_cfa 2, 16
 108 001c 13010101 		addi	sp,sp,16
 109              		.cfi_def_cfa_offset 0
 110 0020 67800000 		jr	ra
 111              		.cfi_endproc
 112              	.LFE68:
 114              		.weak	_ZN14PeriodicThreadD1Ev
GAS LISTING /tmp/ccU8CX3A.s 			page 5


 115              		.set	_ZN14PeriodicThreadD1Ev,_ZN14PeriodicThreadD2Ev
 116              		.text
 117              		.align	2
 118              		.globl	_ZN9SemaphoreD2Ev
 120              	_ZN9SemaphoreD2Ev:
 121              	.LFB56:
  42:src/syscall_cpp.cpp **** 
  43:src/syscall_cpp.cpp **** int Thread::start() {
  44:src/syscall_cpp.cpp **** 	TCB::start(myHandle);
  45:src/syscall_cpp.cpp **** 	return 0;
  46:src/syscall_cpp.cpp **** }
  47:src/syscall_cpp.cpp **** 
  48:src/syscall_cpp.cpp **** void Thread::join() {
  49:src/syscall_cpp.cpp **** 
  50:src/syscall_cpp.cpp **** }
  51:src/syscall_cpp.cpp **** 
  52:src/syscall_cpp.cpp **** void Thread::dispatch() {
  53:src/syscall_cpp.cpp **** 
  54:src/syscall_cpp.cpp **** }
  55:src/syscall_cpp.cpp **** 
  56:src/syscall_cpp.cpp **** int Thread::sleep(time_t) {
  57:src/syscall_cpp.cpp **** 	return 0;
  58:src/syscall_cpp.cpp **** }
  59:src/syscall_cpp.cpp **** 
  60:src/syscall_cpp.cpp **** Thread::Thread() {
  61:src/syscall_cpp.cpp **** 
  62:src/syscall_cpp.cpp **** }
  63:src/syscall_cpp.cpp **** 
  64:src/syscall_cpp.cpp **** Semaphore::Semaphore(unsigned int init) {
  65:src/syscall_cpp.cpp **** 	sem_open(&myHandle, init);
  66:src/syscall_cpp.cpp **** }
  67:src/syscall_cpp.cpp **** 
  68:src/syscall_cpp.cpp **** Semaphore::~Semaphore() {
 122              		.loc 2 68 1 is_stmt 1
 123              		.cfi_startproc
 124              		.cfi_personality 0x9b,DW.ref.__gxx_personality_v0
 125              		.cfi_lsda 0x1b,.LLSDA56
 126              	.LVL4:
 127 0018 130101FE 		addi	sp,sp,-32
 128              		.cfi_def_cfa_offset 32
 129 001c 233C1100 		sd	ra,24(sp)
 130 0020 23388100 		sd	s0,16(sp)
 131 0024 23349100 		sd	s1,8(sp)
 132              		.cfi_offset 1, -8
 133              		.cfi_offset 8, -16
 134              		.cfi_offset 9, -24
 135 0028 13040102 		addi	s0,sp,32
 136              		.cfi_def_cfa 8, 0
 137 002c 93040500 		mv	s1,a0
 138              	.LBB34:
 139              		.loc 2 68 23 is_stmt 0
 140 0030 97070000 		lla	a5,_ZTV9Semaphore+16
 140      93870700 
 141 0038 2330F500 		sd	a5,0(a0)
  69:src/syscall_cpp.cpp **** 	sem_close(myHandle);
 142              		.loc 2 69 2 is_stmt 1
 143              		.loc 2 69 11 is_stmt 0
GAS LISTING /tmp/ccU8CX3A.s 			page 6


 144 003c 03358500 		ld	a0,8(a0)
 145              	.LVL5:
 146 0040 97000000 		call	_Z9sem_closeP4KSem@plt
 146      E7800000 
 147              	.LVL6:
  70:src/syscall_cpp.cpp **** 	delete myHandle;
 148              		.loc 2 70 2 is_stmt 1
 149              		.loc 2 70 9 is_stmt 0
 150 0048 83B48400 		ld	s1,8(s1)
 151              	.LVL7:
 152              		.loc 2 70 17
 153 004c 63880402 		beqz	s1,.L9
 154              	.L12:
 155              	.LBB35:
 156              	.LBB36:
 157              	.LBB37:
 158              		.file 3 "src/../h/../h/ThreadQueue.hpp"
   1:src/../h/../h/ThreadQueue.hpp **** //
   2:src/../h/../h/ThreadQueue.hpp **** // Created by os on 6/4/23.
   3:src/../h/../h/ThreadQueue.hpp **** //
   4:src/../h/../h/ThreadQueue.hpp **** 
   5:src/../h/../h/ThreadQueue.hpp **** #ifndef PROJEKAT2023_THREADQUEUE_HPP
   6:src/../h/../h/ThreadQueue.hpp **** #define PROJEKAT2023_THREADQUEUE_HPP
   7:src/../h/../h/ThreadQueue.hpp **** 
   8:src/../h/../h/ThreadQueue.hpp **** #include "../h/MemoryAllocator.hpp"
   9:src/../h/../h/ThreadQueue.hpp **** #include "../h/syscall_c.hpp"
  10:src/../h/../h/ThreadQueue.hpp **** 
  11:src/../h/../h/ThreadQueue.hpp **** class TCB;
  12:src/../h/../h/ThreadQueue.hpp **** 
  13:src/../h/../h/ThreadQueue.hpp **** class ThreadQueue {
  14:src/../h/../h/ThreadQueue.hpp **** private:
  15:src/../h/../h/ThreadQueue.hpp **** 	struct Node {
  16:src/../h/../h/ThreadQueue.hpp **** 		TCB* data;
  17:src/../h/../h/ThreadQueue.hpp **** 		Node* next;
  18:src/../h/../h/ThreadQueue.hpp **** 
  19:src/../h/../h/ThreadQueue.hpp **** 		Node(TCB* d) : data(d), next(nullptr) {}
  20:src/../h/../h/ThreadQueue.hpp **** 
  21:src/../h/../h/ThreadQueue.hpp **** 		static void* operator new(size_t size) {
  22:src/../h/../h/ThreadQueue.hpp **** 			return mem_alloc(size);
  23:src/../h/../h/ThreadQueue.hpp **** 		}
  24:src/../h/../h/ThreadQueue.hpp **** 
  25:src/../h/../h/ThreadQueue.hpp **** 		static void operator delete(void* ptr) {
  26:src/../h/../h/ThreadQueue.hpp **** 			mem_free(ptr);
  27:src/../h/../h/ThreadQueue.hpp **** 		}
  28:src/../h/../h/ThreadQueue.hpp **** 	};
  29:src/../h/../h/ThreadQueue.hpp **** 
  30:src/../h/../h/ThreadQueue.hpp **** 	Node* front;
  31:src/../h/../h/ThreadQueue.hpp **** 	Node* back;
  32:src/../h/../h/ThreadQueue.hpp **** 
  33:src/../h/../h/ThreadQueue.hpp **** public:
  34:src/../h/../h/ThreadQueue.hpp **** 	ThreadQueue() : front(nullptr), back(nullptr) {}
  35:src/../h/../h/ThreadQueue.hpp **** 
  36:src/../h/../h/ThreadQueue.hpp **** 	ThreadQueue(const ThreadQueue&) = delete;
  37:src/../h/../h/ThreadQueue.hpp **** 
  38:src/../h/../h/ThreadQueue.hpp **** 	ThreadQueue& operator=(const ThreadQueue&) = delete;
  39:src/../h/../h/ThreadQueue.hpp **** 
  40:src/../h/../h/ThreadQueue.hpp **** 	~ThreadQueue() {
GAS LISTING /tmp/ccU8CX3A.s 			page 7


  41:src/../h/../h/ThreadQueue.hpp **** 		while (!isEmpty()) {
 159              		.loc 3 41 3 is_stmt 1
 160              		.loc 3 41 10
 161              	.LVL8:
 162              	.LBB38:
 163              	.LBB39:
  42:src/../h/../h/ThreadQueue.hpp **** 			Node* node = front;
  43:src/../h/../h/ThreadQueue.hpp **** 			front = front->next;
  44:src/../h/../h/ThreadQueue.hpp **** 			delete node;
  45:src/../h/../h/ThreadQueue.hpp **** 		}
  46:src/../h/../h/ThreadQueue.hpp **** 	}
  47:src/../h/../h/ThreadQueue.hpp **** 
  48:src/../h/../h/ThreadQueue.hpp **** 	bool isEmpty() const {
  49:src/../h/../h/ThreadQueue.hpp **** 		return front == nullptr;
 164              		.loc 3 49 3
 165              		.loc 3 49 10 is_stmt 0
 166 0050 03B58400 		ld	a0,8(s1)
 167              	.LBE39:
 168              	.LBE38:
  41:src/../h/../h/ThreadQueue.hpp **** 			Node* node = front;
 169              		.loc 3 41 10
 170 0054 630E0500 		beqz	a0,.L11
 171              	.LBB40:
  42:src/../h/../h/ThreadQueue.hpp **** 			Node* node = front;
 172              		.loc 3 42 4 is_stmt 1
 173              	.LVL9:
  43:src/../h/../h/ThreadQueue.hpp **** 			delete node;
 174              		.loc 3 43 4
  43:src/../h/../h/ThreadQueue.hpp **** 			delete node;
 175              		.loc 3 43 19 is_stmt 0
 176 0058 83378500 		ld	a5,8(a0)
  43:src/../h/../h/ThreadQueue.hpp **** 			delete node;
 177              		.loc 3 43 10
 178 005c 23B4F400 		sd	a5,8(s1)
  44:src/../h/../h/ThreadQueue.hpp **** 		}
 179              		.loc 3 44 4 is_stmt 1
  44:src/../h/../h/ThreadQueue.hpp **** 		}
 180              		.loc 3 44 15 is_stmt 0
 181 0060 E30805FE 		beqz	a0,.L12
 182              	.LVL10:
 183              	.LBB41:
 184              	.LBB42:
  26:src/../h/../h/ThreadQueue.hpp **** 		}
 185              		.loc 3 26 4 is_stmt 1
  26:src/../h/../h/ThreadQueue.hpp **** 		}
 186              		.loc 3 26 12 is_stmt 0
 187 0064 97000000 		call	_Z8mem_freePv@plt
 187      E7800000 
 188              	.LVL11:
  27:src/../h/../h/ThreadQueue.hpp **** 	};
 189              		.loc 3 27 3
 190 006c 6FF05FFE 		j	.L12
 191              	.L11:
 192              	.LBE42:
 193              	.LBE41:
 194              	.LBE40:
 195              	.LBE37:
GAS LISTING /tmp/ccU8CX3A.s 			page 8


 196              	.LBE36:
 197              	.LBE35:
 198              		.loc 2 70 9
 199 0070 13850400 		mv	a0,s1
 200 0074 97000000 		call	_ZN4KSemdlEPv@plt
 200      E7800000 
 201              	.LVL12:
 202              	.L9:
 203              	.LBE34:
  71:src/syscall_cpp.cpp **** }
 204              		.loc 2 71 1
 205 007c 83308101 		ld	ra,24(sp)
 206              		.cfi_restore 1
 207 0080 03340101 		ld	s0,16(sp)
 208              		.cfi_restore 8
 209              		.cfi_def_cfa 2, 32
 210 0084 83348100 		ld	s1,8(sp)
 211              		.cfi_restore 9
 212 0088 13010102 		addi	sp,sp,32
 213              		.cfi_def_cfa_offset 0
 214 008c 67800000 		jr	ra
 215              		.cfi_endproc
 216              	.LFE56:
 217              		.globl	__gxx_personality_v0
 218              		.section	.gcc_except_table,"a",@progbits
 219              	.LLSDA56:
 220 0000 FF       		.byte	0xff
 221 0001 FF       		.byte	0xff
 222 0002 03       		.byte	0x3
 223 0003 00       		.byte	0
 224              		.text
 226              		.globl	_ZN9SemaphoreD1Ev
 227              		.set	_ZN9SemaphoreD1Ev,_ZN9SemaphoreD2Ev
 228              		.align	2
 229              		.globl	_Znwm
 231              	_Znwm:
 232              	.LFB31:
  10:src/syscall_cpp.cpp **** 	return mem_alloc(size);
 233              		.loc 2 10 33 is_stmt 1
 234              		.cfi_startproc
 235              	.LVL13:
 236 0090 130101FF 		addi	sp,sp,-16
 237              		.cfi_def_cfa_offset 16
 238 0094 23341100 		sd	ra,8(sp)
 239 0098 23308100 		sd	s0,0(sp)
 240              		.cfi_offset 1, -8
 241              		.cfi_offset 8, -16
 242 009c 13040101 		addi	s0,sp,16
 243              		.cfi_def_cfa 8, 0
  11:src/syscall_cpp.cpp **** }
 244              		.loc 2 11 2
  11:src/syscall_cpp.cpp **** }
 245              		.loc 2 11 18 is_stmt 0
 246 00a0 97000000 		call	_Z9mem_allocm@plt
 246      E7800000 
 247              	.LVL14:
  12:src/syscall_cpp.cpp **** 
GAS LISTING /tmp/ccU8CX3A.s 			page 9


 248              		.loc 2 12 1
 249 00a8 83308100 		ld	ra,8(sp)
 250              		.cfi_restore 1
 251 00ac 03340100 		ld	s0,0(sp)
 252              		.cfi_restore 8
 253              		.cfi_def_cfa 2, 16
 254 00b0 13010101 		addi	sp,sp,16
 255              		.cfi_def_cfa_offset 0
 256 00b4 67800000 		jr	ra
 257              		.cfi_endproc
 258              	.LFE31:
 260              		.align	2
 261              		.globl	_Znam
 263              	_Znam:
 264              	.LFB32:
  14:src/syscall_cpp.cpp **** 	return mem_alloc(size);
 265              		.loc 2 14 35 is_stmt 1
 266              		.cfi_startproc
 267              	.LVL15:
 268 00b8 130101FF 		addi	sp,sp,-16
 269              		.cfi_def_cfa_offset 16
 270 00bc 23341100 		sd	ra,8(sp)
 271 00c0 23308100 		sd	s0,0(sp)
 272              		.cfi_offset 1, -8
 273              		.cfi_offset 8, -16
 274 00c4 13040101 		addi	s0,sp,16
 275              		.cfi_def_cfa 8, 0
  15:src/syscall_cpp.cpp **** }
 276              		.loc 2 15 2
  15:src/syscall_cpp.cpp **** }
 277              		.loc 2 15 18 is_stmt 0
 278 00c8 97000000 		call	_Z9mem_allocm@plt
 278      E7800000 
 279              	.LVL16:
  16:src/syscall_cpp.cpp **** 
 280              		.loc 2 16 1
 281 00d0 83308100 		ld	ra,8(sp)
 282              		.cfi_restore 1
 283 00d4 03340100 		ld	s0,0(sp)
 284              		.cfi_restore 8
 285              		.cfi_def_cfa 2, 16
 286 00d8 13010101 		addi	sp,sp,16
 287              		.cfi_def_cfa_offset 0
 288 00dc 67800000 		jr	ra
 289              		.cfi_endproc
 290              	.LFE32:
 292              		.align	2
 293              		.globl	_ZdlPv
 295              	_ZdlPv:
 296              	.LFB33:
  20:src/syscall_cpp.cpp **** mem_free(ptr);
 297              		.loc 2 20 10 is_stmt 1
 298              		.cfi_startproc
 299              		.cfi_personality 0x9b,DW.ref.__gxx_personality_v0
 300              		.cfi_lsda 0x1b,.LLSDA33
 301              	.LVL17:
 302 00e0 130101FF 		addi	sp,sp,-16
GAS LISTING /tmp/ccU8CX3A.s 			page 10


 303              		.cfi_def_cfa_offset 16
 304 00e4 23341100 		sd	ra,8(sp)
 305 00e8 23308100 		sd	s0,0(sp)
 306              		.cfi_offset 1, -8
 307              		.cfi_offset 8, -16
 308 00ec 13040101 		addi	s0,sp,16
 309              		.cfi_def_cfa 8, 0
  21:src/syscall_cpp.cpp **** }
 310              		.loc 2 21 1
  21:src/syscall_cpp.cpp **** }
 311              		.loc 2 21 9 is_stmt 0
 312 00f0 97000000 		call	_Z8mem_freePv@plt
 312      E7800000 
 313              	.LVL18:
  22:src/syscall_cpp.cpp **** 
 314              		.loc 2 22 1
 315 00f8 83308100 		ld	ra,8(sp)
 316              		.cfi_restore 1
 317 00fc 03340100 		ld	s0,0(sp)
 318              		.cfi_restore 8
 319              		.cfi_def_cfa 2, 16
 320 0100 13010101 		addi	sp,sp,16
 321              		.cfi_def_cfa_offset 0
 322 0104 67800000 		jr	ra
 323              		.cfi_endproc
 324              	.LFE33:
 325              		.section	.gcc_except_table
 326              	.LLSDA33:
 327 0004 FF       		.byte	0xff
 328 0005 FF       		.byte	0xff
 329 0006 03       		.byte	0x3
 330 0007 00       		.byte	0
 331              		.text
 333              		.align	2
 334              		.globl	_ZN6ThreadD0Ev
 336              	_ZN6ThreadD0Ev:
 337              	.LFB41:
  39:src/syscall_cpp.cpp **** 
 338              		.loc 2 39 1 is_stmt 1
 339              		.cfi_startproc
 340              	.LVL19:
 341 0108 130101FF 		addi	sp,sp,-16
 342              		.cfi_def_cfa_offset 16
 343 010c 23341100 		sd	ra,8(sp)
 344 0110 23308100 		sd	s0,0(sp)
 345              		.cfi_offset 1, -8
 346              		.cfi_offset 8, -16
 347 0114 13040101 		addi	s0,sp,16
 348              		.cfi_def_cfa 8, 0
  41:src/syscall_cpp.cpp **** 
 349              		.loc 2 41 1 is_stmt 0
 350 0118 97000000 		call	_ZdlPv
 350      E7800000 
 351              	.LVL20:
 352 0120 83308100 		ld	ra,8(sp)
 353              		.cfi_restore 1
 354 0124 03340100 		ld	s0,0(sp)
GAS LISTING /tmp/ccU8CX3A.s 			page 11


 355              		.cfi_restore 8
 356              		.cfi_def_cfa 2, 16
 357 0128 13010101 		addi	sp,sp,16
 358              		.cfi_def_cfa_offset 0
 359 012c 67800000 		jr	ra
 360              		.cfi_endproc
 361              	.LFE41:
 363              		.section	.text._ZN14PeriodicThreadD0Ev,"axG",@progbits,_ZN14PeriodicThreadD5Ev,comdat
 364              		.align	2
 365              		.weak	_ZN14PeriodicThreadD0Ev
 367              	_ZN14PeriodicThreadD0Ev:
 368              	.LFB70:
  71:src/../h/syscall_cpp.hpp **** public:
 369              		.loc 1 71 7 is_stmt 1
 370              		.cfi_startproc
 371              	.LVL21:
 372 0000 130101FF 		addi	sp,sp,-16
 373              		.cfi_def_cfa_offset 16
 374 0004 23341100 		sd	ra,8(sp)
 375 0008 23308100 		sd	s0,0(sp)
 376              		.cfi_offset 1, -8
 377              		.cfi_offset 8, -16
 378 000c 13040101 		addi	s0,sp,16
 379              		.cfi_def_cfa 8, 0
 380              	.LVL22:
 381              	.LBB43:
 382              	.LBB44:
  71:src/../h/syscall_cpp.hpp **** public:
 383              		.loc 1 71 7 is_stmt 0
 384 0010 97070000 		lla	a5,_ZTV14PeriodicThread+16
 384      93870700 
 385 0018 2330F500 		sd	a5,0(a0)
 386              	.LVL23:
 387              	.LBE44:
 388              	.LBE43:
 389 001c 97000000 		call	_ZdlPv
 389      E7800000 
 390              	.LVL24:
 391 0024 83308100 		ld	ra,8(sp)
 392              		.cfi_restore 1
 393 0028 03340100 		ld	s0,0(sp)
 394              		.cfi_restore 8
 395              		.cfi_def_cfa 2, 16
 396 002c 13010101 		addi	sp,sp,16
 397              		.cfi_def_cfa_offset 0
 398 0030 67800000 		jr	ra
 399              		.cfi_endproc
 400              	.LFE70:
 402              		.text
 403              		.align	2
 404              		.globl	_ZN9SemaphoreD0Ev
 406              	_ZN9SemaphoreD0Ev:
 407              	.LFB58:
  68:src/syscall_cpp.cpp **** 	sem_close(myHandle);
 408              		.loc 2 68 1 is_stmt 1
 409              		.cfi_startproc
 410              	.LVL25:
GAS LISTING /tmp/ccU8CX3A.s 			page 12


 411 0130 130101FE 		addi	sp,sp,-32
 412              		.cfi_def_cfa_offset 32
 413 0134 233C1100 		sd	ra,24(sp)
 414 0138 23388100 		sd	s0,16(sp)
 415 013c 23349100 		sd	s1,8(sp)
 416              		.cfi_offset 1, -8
 417              		.cfi_offset 8, -16
 418              		.cfi_offset 9, -24
 419 0140 13040102 		addi	s0,sp,32
 420              		.cfi_def_cfa 8, 0
 421 0144 93040500 		mv	s1,a0
 422              		.loc 2 71 1 is_stmt 0
 423 0148 97000000 		call	_ZN9SemaphoreD1Ev
 423      E7800000 
 424              	.LVL26:
 425 0150 13850400 		mv	a0,s1
 426 0154 97000000 		call	_ZdlPv
 426      E7800000 
 427              	.LVL27:
 428 015c 83308101 		ld	ra,24(sp)
 429              		.cfi_restore 1
 430 0160 03340101 		ld	s0,16(sp)
 431              		.cfi_restore 8
 432              		.cfi_def_cfa 2, 32
 433 0164 83348100 		ld	s1,8(sp)
 434              		.cfi_restore 9
 435              	.LVL28:
 436 0168 13010102 		addi	sp,sp,32
 437              		.cfi_def_cfa_offset 0
 438 016c 67800000 		jr	ra
 439              		.cfi_endproc
 440              	.LFE58:
 442              		.align	2
 443              		.globl	_ZdaPv
 445              	_ZdaPv:
 446              	.LFB34:
  26:src/syscall_cpp.cpp **** mem_free(ptr);
 447              		.loc 2 26 10 is_stmt 1
 448              		.cfi_startproc
 449              		.cfi_personality 0x9b,DW.ref.__gxx_personality_v0
 450              		.cfi_lsda 0x1b,.LLSDA34
 451              	.LVL29:
 452 0170 130101FF 		addi	sp,sp,-16
 453              		.cfi_def_cfa_offset 16
 454 0174 23341100 		sd	ra,8(sp)
 455 0178 23308100 		sd	s0,0(sp)
 456              		.cfi_offset 1, -8
 457              		.cfi_offset 8, -16
 458 017c 13040101 		addi	s0,sp,16
 459              		.cfi_def_cfa 8, 0
  27:src/syscall_cpp.cpp **** }
 460              		.loc 2 27 1
  27:src/syscall_cpp.cpp **** }
 461              		.loc 2 27 9 is_stmt 0
 462 0180 97000000 		call	_Z8mem_freePv@plt
 462      E7800000 
 463              	.LVL30:
GAS LISTING /tmp/ccU8CX3A.s 			page 13


  28:src/syscall_cpp.cpp **** 
 464              		.loc 2 28 1
 465 0188 83308100 		ld	ra,8(sp)
 466              		.cfi_restore 1
 467 018c 03340100 		ld	s0,0(sp)
 468              		.cfi_restore 8
 469              		.cfi_def_cfa 2, 16
 470 0190 13010101 		addi	sp,sp,16
 471              		.cfi_def_cfa_offset 0
 472 0194 67800000 		jr	ra
 473              		.cfi_endproc
 474              	.LFE34:
 475              		.section	.gcc_except_table
 476              	.LLSDA34:
 477 0008 FF       		.byte	0xff
 478 0009 FF       		.byte	0xff
 479 000a 03       		.byte	0x3
 480 000b 00       		.byte	0
 481              		.text
 483              		.align	2
 484              		.globl	_ZN6ThreadC2EPFvPvES0_
 486              	_ZN6ThreadC2EPFvPvES0_:
 487              	.LFB36:
  31:src/syscall_cpp.cpp **** 	uint64* stack = nullptr;
 488              		.loc 2 31 1 is_stmt 1
 489              		.cfi_startproc
 490              	.LVL31:
 491 0198 130101FD 		addi	sp,sp,-48
 492              		.cfi_def_cfa_offset 48
 493 019c 23341102 		sd	ra,40(sp)
 494 01a0 23308102 		sd	s0,32(sp)
 495 01a4 233C9100 		sd	s1,24(sp)
 496 01a8 23382101 		sd	s2,16(sp)
 497 01ac 23343101 		sd	s3,8(sp)
 498              		.cfi_offset 1, -8
 499              		.cfi_offset 8, -16
 500              		.cfi_offset 9, -24
 501              		.cfi_offset 18, -32
 502              		.cfi_offset 19, -40
 503 01b0 13040103 		addi	s0,sp,48
 504              		.cfi_def_cfa 8, 0
 505 01b4 93040500 		mv	s1,a0
 506 01b8 13890500 		mv	s2,a1
 507 01bc 93090600 		mv	s3,a2
 508              	.LBB45:
  31:src/syscall_cpp.cpp **** 	uint64* stack = nullptr;
 509              		.loc 2 31 47 is_stmt 0
 510 01c0 97070000 		lla	a5,_ZTV6Thread+16
 510      93870700 
 511 01c8 2330F500 		sd	a5,0(a0)
 512              	.LBB46:
  32:src/syscall_cpp.cpp **** 	if (body != nullptr) {
 513              		.loc 2 32 2 is_stmt 1
 514              	.LVL32:
  33:src/syscall_cpp.cpp **** 		stack = (uint64*)mem_alloc(DEFAULT_STACK_SIZE);
 515              		.loc 2 33 2
 516 01cc 63820504 		beqz	a1,.L31
GAS LISTING /tmp/ccU8CX3A.s 			page 14


  34:src/syscall_cpp.cpp **** 	}
 517              		.loc 2 34 3
  34:src/syscall_cpp.cpp **** 	}
 518              		.loc 2 34 29 is_stmt 0
 519 01d0 37150000 		li	a0,4096
 520              	.LVL33:
 521 01d4 97000000 		call	_Z9mem_allocm@plt
 521      E7800000 
 522              	.LVL34:
 523 01dc 13060500 		mv	a2,a0
 524              	.LVL35:
 525              	.L30:
  36:src/syscall_cpp.cpp **** }
 526              		.loc 2 36 2 is_stmt 1
  36:src/syscall_cpp.cpp **** }
 527              		.loc 2 36 30 is_stmt 0
 528 01e0 93850900 		mv	a1,s3
 529 01e4 13050900 		mv	a0,s2
 530 01e8 97000000 		call	_ZN3TCB12createThreadEPFvPvES0_Pm@plt
 530      E7800000 
 531              	.LVL36:
  36:src/syscall_cpp.cpp **** }
 532              		.loc 2 36 11
 533 01f0 23B4A400 		sd	a0,8(s1)
 534              	.LBE46:
 535              	.LBE45:
  37:src/syscall_cpp.cpp **** 
 536              		.loc 2 37 1
 537 01f4 83308102 		ld	ra,40(sp)
 538              		.cfi_remember_state
 539              		.cfi_restore 1
 540 01f8 03340102 		ld	s0,32(sp)
 541              		.cfi_restore 8
 542              		.cfi_def_cfa 2, 48
 543 01fc 83348101 		ld	s1,24(sp)
 544              		.cfi_restore 9
 545              	.LVL37:
 546 0200 03390101 		ld	s2,16(sp)
 547              		.cfi_restore 18
 548              	.LVL38:
 549 0204 83398100 		ld	s3,8(sp)
 550              		.cfi_restore 19
 551              	.LVL39:
 552 0208 13010103 		addi	sp,sp,48
 553              		.cfi_def_cfa_offset 0
 554 020c 67800000 		jr	ra
 555              	.LVL40:
 556              	.L31:
 557              		.cfi_restore_state
 558              	.LBB48:
 559              	.LBB47:
  32:src/syscall_cpp.cpp **** 	if (body != nullptr) {
 560              		.loc 2 32 10
 561 0210 13060000 		li	a2,0
 562              	.LVL41:
 563 0214 6FF0DFFC 		j	.L30
 564              	.LBE47:
GAS LISTING /tmp/ccU8CX3A.s 			page 15


 565              	.LBE48:
 566              		.cfi_endproc
 567              	.LFE36:
 569              		.globl	_ZN6ThreadC1EPFvPvES0_
 570              		.set	_ZN6ThreadC1EPFvPvES0_,_ZN6ThreadC2EPFvPvES0_
 571              		.align	2
 572              		.globl	_ZN6Thread5startEv
 574              	_ZN6Thread5startEv:
 575              	.LFB42:
  43:src/syscall_cpp.cpp **** 	TCB::start(myHandle);
 576              		.loc 2 43 21 is_stmt 1
 577              		.cfi_startproc
 578              	.LVL42:
 579 0218 130101FF 		addi	sp,sp,-16
 580              		.cfi_def_cfa_offset 16
 581 021c 23341100 		sd	ra,8(sp)
 582 0220 23308100 		sd	s0,0(sp)
 583              		.cfi_offset 1, -8
 584              		.cfi_offset 8, -16
 585 0224 13040101 		addi	s0,sp,16
 586              		.cfi_def_cfa 8, 0
  44:src/syscall_cpp.cpp **** 	return 0;
 587              		.loc 2 44 2
  44:src/syscall_cpp.cpp **** 	return 0;
 588              		.loc 2 44 12 is_stmt 0
 589 0228 03358500 		ld	a0,8(a0)
 590              	.LVL43:
 591 022c 97000000 		call	_ZN3TCB5startEPS_@plt
 591      E7800000 
 592              	.LVL44:
  45:src/syscall_cpp.cpp **** }
 593              		.loc 2 45 2 is_stmt 1
  46:src/syscall_cpp.cpp **** 
 594              		.loc 2 46 1 is_stmt 0
 595 0234 13050000 		li	a0,0
 596 0238 83308100 		ld	ra,8(sp)
 597              		.cfi_restore 1
 598 023c 03340100 		ld	s0,0(sp)
 599              		.cfi_restore 8
 600              		.cfi_def_cfa 2, 16
 601 0240 13010101 		addi	sp,sp,16
 602              		.cfi_def_cfa_offset 0
 603 0244 67800000 		jr	ra
 604              		.cfi_endproc
 605              	.LFE42:
 607              		.align	2
 608              		.globl	_ZN6Thread4joinEv
 610              	_ZN6Thread4joinEv:
 611              	.LFB43:
  48:src/syscall_cpp.cpp **** 
 612              		.loc 2 48 21 is_stmt 1
 613              		.cfi_startproc
 614              	.LVL45:
 615 0248 130101FF 		addi	sp,sp,-16
 616              		.cfi_def_cfa_offset 16
 617 024c 23348100 		sd	s0,8(sp)
 618              		.cfi_offset 8, -8
GAS LISTING /tmp/ccU8CX3A.s 			page 16


 619 0250 13040101 		addi	s0,sp,16
 620              		.cfi_def_cfa 8, 0
  50:src/syscall_cpp.cpp **** 
 621              		.loc 2 50 1 is_stmt 0
 622 0254 03348100 		ld	s0,8(sp)
 623              		.cfi_restore 8
 624              		.cfi_def_cfa 2, 16
 625 0258 13010101 		addi	sp,sp,16
 626              		.cfi_def_cfa_offset 0
 627 025c 67800000 		jr	ra
 628              		.cfi_endproc
 629              	.LFE43:
 631              		.align	2
 632              		.globl	_ZN6Thread8dispatchEv
 634              	_ZN6Thread8dispatchEv:
 635              	.LFB44:
  52:src/syscall_cpp.cpp **** 
 636              		.loc 2 52 25 is_stmt 1
 637              		.cfi_startproc
 638 0260 130101FF 		addi	sp,sp,-16
 639              		.cfi_def_cfa_offset 16
 640 0264 23348100 		sd	s0,8(sp)
 641              		.cfi_offset 8, -8
 642 0268 13040101 		addi	s0,sp,16
 643              		.cfi_def_cfa 8, 0
  54:src/syscall_cpp.cpp **** 
 644              		.loc 2 54 1 is_stmt 0
 645 026c 03348100 		ld	s0,8(sp)
 646              		.cfi_restore 8
 647              		.cfi_def_cfa 2, 16
 648 0270 13010101 		addi	sp,sp,16
 649              		.cfi_def_cfa_offset 0
 650 0274 67800000 		jr	ra
 651              		.cfi_endproc
 652              	.LFE44:
 654              		.align	2
 655              		.globl	_ZN6Thread5sleepEm
 657              	_ZN6Thread5sleepEm:
 658              	.LFB45:
  56:src/syscall_cpp.cpp **** 	return 0;
 659              		.loc 2 56 27 is_stmt 1
 660              		.cfi_startproc
 661 0278 130101FF 		addi	sp,sp,-16
 662              		.cfi_def_cfa_offset 16
 663 027c 23348100 		sd	s0,8(sp)
 664              		.cfi_offset 8, -8
 665 0280 13040101 		addi	s0,sp,16
 666              		.cfi_def_cfa 8, 0
  57:src/syscall_cpp.cpp **** }
 667              		.loc 2 57 2
  58:src/syscall_cpp.cpp **** 
 668              		.loc 2 58 1 is_stmt 0
 669 0284 13050000 		li	a0,0
 670 0288 03348100 		ld	s0,8(sp)
 671              		.cfi_restore 8
 672              		.cfi_def_cfa 2, 16
 673 028c 13010101 		addi	sp,sp,16
GAS LISTING /tmp/ccU8CX3A.s 			page 17


 674              		.cfi_def_cfa_offset 0
 675 0290 67800000 		jr	ra
 676              		.cfi_endproc
 677              	.LFE45:
 679              		.align	2
 680              		.globl	_ZN6ThreadC2Ev
 682              	_ZN6ThreadC2Ev:
 683              	.LFB47:
  60:src/syscall_cpp.cpp **** 
 684              		.loc 2 60 1 is_stmt 1
 685              		.cfi_startproc
 686              	.LVL46:
 687 0294 130101FF 		addi	sp,sp,-16
 688              		.cfi_def_cfa_offset 16
 689 0298 23348100 		sd	s0,8(sp)
 690              		.cfi_offset 8, -8
 691 029c 13040101 		addi	s0,sp,16
 692              		.cfi_def_cfa 8, 0
 693              	.LBB49:
  60:src/syscall_cpp.cpp **** 
 694              		.loc 2 60 16 is_stmt 0
 695 02a0 97070000 		lla	a5,_ZTV6Thread+16
 695      93870700 
 696 02a8 2330F500 		sd	a5,0(a0)
 697              	.LBE49:
  62:src/syscall_cpp.cpp **** 
 698              		.loc 2 62 1
 699 02ac 03348100 		ld	s0,8(sp)
 700              		.cfi_restore 8
 701              		.cfi_def_cfa 2, 16
 702 02b0 13010101 		addi	sp,sp,16
 703              		.cfi_def_cfa_offset 0
 704 02b4 67800000 		jr	ra
 705              		.cfi_endproc
 706              	.LFE47:
 708              		.globl	_ZN6ThreadC1Ev
 709              		.set	_ZN6ThreadC1Ev,_ZN6ThreadC2Ev
 710              		.align	2
 711              		.globl	_ZN9SemaphoreC2Ej
 713              	_ZN9SemaphoreC2Ej:
 714              	.LFB50:
  64:src/syscall_cpp.cpp **** 	sem_open(&myHandle, init);
 715              		.loc 2 64 1 is_stmt 1
 716              		.cfi_startproc
 717              	.LVL47:
 718 02b8 130101FF 		addi	sp,sp,-16
 719              		.cfi_def_cfa_offset 16
 720 02bc 23341100 		sd	ra,8(sp)
 721 02c0 23308100 		sd	s0,0(sp)
 722              		.cfi_offset 1, -8
 723              		.cfi_offset 8, -16
 724 02c4 13040101 		addi	s0,sp,16
 725              		.cfi_def_cfa 8, 0
 726              	.LBB50:
  64:src/syscall_cpp.cpp **** 	sem_open(&myHandle, init);
 727              		.loc 2 64 39 is_stmt 0
 728 02c8 97070000 		lla	a5,_ZTV9Semaphore+16
GAS LISTING /tmp/ccU8CX3A.s 			page 18


 728      93870700 
 729 02d0 2330F500 		sd	a5,0(a0)
  65:src/syscall_cpp.cpp **** }
 730              		.loc 2 65 2 is_stmt 1
  65:src/syscall_cpp.cpp **** }
 731              		.loc 2 65 10 is_stmt 0
 732 02d4 13058500 		addi	a0,a0,8
 733              	.LVL48:
 734 02d8 97000000 		call	_Z8sem_openPP4KSemj@plt
 734      E7800000 
 735              	.LVL49:
 736              	.LBE50:
  66:src/syscall_cpp.cpp **** 
 737              		.loc 2 66 1
 738 02e0 83308100 		ld	ra,8(sp)
 739              		.cfi_restore 1
 740 02e4 03340100 		ld	s0,0(sp)
 741              		.cfi_restore 8
 742              		.cfi_def_cfa 2, 16
 743 02e8 13010101 		addi	sp,sp,16
 744              		.cfi_def_cfa_offset 0
 745 02ec 67800000 		jr	ra
 746              		.cfi_endproc
 747              	.LFE50:
 749              		.globl	_ZN9SemaphoreC1Ej
 750              		.set	_ZN9SemaphoreC1Ej,_ZN9SemaphoreC2Ej
 751              		.align	2
 752              		.globl	_ZN9Semaphore4waitEv
 754              	_ZN9Semaphore4waitEv:
 755              	.LFB59:
  72:src/syscall_cpp.cpp **** 
  73:src/syscall_cpp.cpp **** int Semaphore::wait() {
 756              		.loc 2 73 23 is_stmt 1
 757              		.cfi_startproc
 758              	.LVL50:
 759 02f0 130101FF 		addi	sp,sp,-16
 760              		.cfi_def_cfa_offset 16
 761 02f4 23341100 		sd	ra,8(sp)
 762 02f8 23308100 		sd	s0,0(sp)
 763              		.cfi_offset 1, -8
 764              		.cfi_offset 8, -16
 765 02fc 13040101 		addi	s0,sp,16
 766              		.cfi_def_cfa 8, 0
  74:src/syscall_cpp.cpp **** 	return sem_wait(myHandle);
 767              		.loc 2 74 2
 768              		.loc 2 74 17 is_stmt 0
 769 0300 03358500 		ld	a0,8(a0)
 770              	.LVL51:
 771 0304 97000000 		call	_Z8sem_waitP4KSem@plt
 771      E7800000 
 772              	.LVL52:
  75:src/syscall_cpp.cpp **** }
 773              		.loc 2 75 1
 774 030c 83308100 		ld	ra,8(sp)
 775              		.cfi_restore 1
 776 0310 03340100 		ld	s0,0(sp)
 777              		.cfi_restore 8
GAS LISTING /tmp/ccU8CX3A.s 			page 19


 778              		.cfi_def_cfa 2, 16
 779 0314 13010101 		addi	sp,sp,16
 780              		.cfi_def_cfa_offset 0
 781 0318 67800000 		jr	ra
 782              		.cfi_endproc
 783              	.LFE59:
 785              		.align	2
 786              		.globl	_ZN9Semaphore6signalEv
 788              	_ZN9Semaphore6signalEv:
 789              	.LFB60:
  76:src/syscall_cpp.cpp **** 
  77:src/syscall_cpp.cpp **** int Semaphore::signal() {
 790              		.loc 2 77 25 is_stmt 1
 791              		.cfi_startproc
 792              	.LVL53:
 793 031c 130101FF 		addi	sp,sp,-16
 794              		.cfi_def_cfa_offset 16
 795 0320 23341100 		sd	ra,8(sp)
 796 0324 23308100 		sd	s0,0(sp)
 797              		.cfi_offset 1, -8
 798              		.cfi_offset 8, -16
 799 0328 13040101 		addi	s0,sp,16
 800              		.cfi_def_cfa 8, 0
  78:src/syscall_cpp.cpp **** 	return sem_signal(myHandle);
 801              		.loc 2 78 2
 802              		.loc 2 78 19 is_stmt 0
 803 032c 03358500 		ld	a0,8(a0)
 804              	.LVL54:
 805 0330 97000000 		call	_Z10sem_signalP4KSem@plt
 805      E7800000 
 806              	.LVL55:
  79:src/syscall_cpp.cpp **** }
 807              		.loc 2 79 1
 808 0338 83308100 		ld	ra,8(sp)
 809              		.cfi_restore 1
 810 033c 03340100 		ld	s0,0(sp)
 811              		.cfi_restore 8
 812              		.cfi_def_cfa 2, 16
 813 0340 13010101 		addi	sp,sp,16
 814              		.cfi_def_cfa_offset 0
 815 0344 67800000 		jr	ra
 816              		.cfi_endproc
 817              	.LFE60:
 819              		.align	2
 820              		.globl	_ZN14PeriodicThread9terminateEv
 822              	_ZN14PeriodicThread9terminateEv:
 823              	.LFB61:
  80:src/syscall_cpp.cpp **** 
  81:src/syscall_cpp.cpp **** void PeriodicThread::terminate() {
 824              		.loc 2 81 34 is_stmt 1
 825              		.cfi_startproc
 826              	.LVL56:
 827 0348 130101FF 		addi	sp,sp,-16
 828              		.cfi_def_cfa_offset 16
 829 034c 23348100 		sd	s0,8(sp)
 830              		.cfi_offset 8, -8
 831 0350 13040101 		addi	s0,sp,16
GAS LISTING /tmp/ccU8CX3A.s 			page 20


 832              		.cfi_def_cfa 8, 0
  82:src/syscall_cpp.cpp **** 
  83:src/syscall_cpp.cpp **** }
 833              		.loc 2 83 1 is_stmt 0
 834 0354 03348100 		ld	s0,8(sp)
 835              		.cfi_restore 8
 836              		.cfi_def_cfa 2, 16
 837 0358 13010101 		addi	sp,sp,16
 838              		.cfi_def_cfa_offset 0
 839 035c 67800000 		jr	ra
 840              		.cfi_endproc
 841              	.LFE61:
 843              		.align	2
 844              		.globl	_ZN14PeriodicThreadC2Em
 846              	_ZN14PeriodicThreadC2Em:
 847              	.LFB63:
  84:src/syscall_cpp.cpp **** 
  85:src/syscall_cpp.cpp **** PeriodicThread::PeriodicThread(time_t period) {
 848              		.loc 2 85 1 is_stmt 1
 849              		.cfi_startproc
 850              	.LVL57:
 851 0360 130101FE 		addi	sp,sp,-32
 852              		.cfi_def_cfa_offset 32
 853 0364 233C1100 		sd	ra,24(sp)
 854 0368 23388100 		sd	s0,16(sp)
 855 036c 23349100 		sd	s1,8(sp)
 856              		.cfi_offset 1, -8
 857              		.cfi_offset 8, -16
 858              		.cfi_offset 9, -24
 859 0370 13040102 		addi	s0,sp,32
 860              		.cfi_def_cfa 8, 0
 861 0374 93040500 		mv	s1,a0
 862              	.LBB51:
 863              		.loc 2 85 45 is_stmt 0
 864 0378 97000000 		call	_ZN6ThreadC2Ev
 864      E7800000 
 865              	.LVL58:
 866 0380 97070000 		lla	a5,_ZTV14PeriodicThread+16
 866      93870700 
 867 0388 23B0F400 		sd	a5,0(s1)
 868              	.LBE51:
  86:src/syscall_cpp.cpp **** 
  87:src/syscall_cpp.cpp **** }
 869              		.loc 2 87 1
 870 038c 83308101 		ld	ra,24(sp)
 871              		.cfi_restore 1
 872 0390 03340101 		ld	s0,16(sp)
 873              		.cfi_restore 8
 874              		.cfi_def_cfa 2, 32
 875 0394 83348100 		ld	s1,8(sp)
 876              		.cfi_restore 9
 877              	.LVL59:
 878 0398 13010102 		addi	sp,sp,32
 879              		.cfi_def_cfa_offset 0
 880 039c 67800000 		jr	ra
 881              		.cfi_endproc
 882              	.LFE63:
GAS LISTING /tmp/ccU8CX3A.s 			page 21


 884              		.globl	_ZN14PeriodicThreadC1Em
 885              		.set	_ZN14PeriodicThreadC1Em,_ZN14PeriodicThreadC2Em
 886              		.align	2
 887              		.globl	_ZN7Console4getcEv
 889              	_ZN7Console4getcEv:
 890              	.LFB65:
  88:src/syscall_cpp.cpp **** 
  89:src/syscall_cpp.cpp **** char Console::getc() {
 891              		.loc 2 89 22 is_stmt 1
 892              		.cfi_startproc
 893 03a0 130101FF 		addi	sp,sp,-16
 894              		.cfi_def_cfa_offset 16
 895 03a4 23348100 		sd	s0,8(sp)
 896              		.cfi_offset 8, -8
 897 03a8 13040101 		addi	s0,sp,16
 898              		.cfi_def_cfa 8, 0
  90:src/syscall_cpp.cpp **** 	return 0;
 899              		.loc 2 90 2
  91:src/syscall_cpp.cpp **** }
 900              		.loc 2 91 1 is_stmt 0
 901 03ac 13050000 		li	a0,0
 902 03b0 03348100 		ld	s0,8(sp)
 903              		.cfi_restore 8
 904              		.cfi_def_cfa 2, 16
 905 03b4 13010101 		addi	sp,sp,16
 906              		.cfi_def_cfa_offset 0
 907 03b8 67800000 		jr	ra
 908              		.cfi_endproc
 909              	.LFE65:
 911              		.align	2
 912              		.globl	_ZN7Console4putcEc
 914              	_ZN7Console4putcEc:
 915              	.LFB66:
  92:src/syscall_cpp.cpp **** 
  93:src/syscall_cpp.cpp **** void Console::putc(char) {
 916              		.loc 2 93 26 is_stmt 1
 917              		.cfi_startproc
 918 03bc 130101FF 		addi	sp,sp,-16
 919              		.cfi_def_cfa_offset 16
 920 03c0 23348100 		sd	s0,8(sp)
 921              		.cfi_offset 8, -8
 922 03c4 13040101 		addi	s0,sp,16
 923              		.cfi_def_cfa 8, 0
  94:src/syscall_cpp.cpp **** 
  95:src/syscall_cpp.cpp **** }
 924              		.loc 2 95 1 is_stmt 0
 925 03c8 03348100 		ld	s0,8(sp)
 926              		.cfi_restore 8
 927              		.cfi_def_cfa 2, 16
 928 03cc 13010101 		addi	sp,sp,16
 929              		.cfi_def_cfa_offset 0
 930 03d0 67800000 		jr	ra
 931              		.cfi_endproc
 932              	.LFE66:
 934              		.weak	_ZTV14PeriodicThread
 935              		.section	.data.rel.ro.local._ZTV14PeriodicThread,"awG",@progbits,_ZTV14PeriodicThread,comdat
 936              		.align	3
GAS LISTING /tmp/ccU8CX3A.s 			page 22


 939              	_ZTV14PeriodicThread:
 940 0000 00000000 		.dword	0
 940      00000000 
 941 0008 00000000 		.dword	0
 941      00000000 
 942 0010 00000000 		.dword	_ZN14PeriodicThreadD1Ev
 942      00000000 
 943 0018 00000000 		.dword	_ZN14PeriodicThreadD0Ev
 943      00000000 
 944 0020 00000000 		.dword	_ZN6Thread3runEv
 944      00000000 
 945 0028 00000000 		.dword	_ZN14PeriodicThread18periodicActivationEv
 945      00000000 
 946              		.weak	_ZTV6Thread
 947              		.section	.data.rel.ro.local._ZTV6Thread,"awG",@progbits,_ZTV6Thread,comdat
 948              		.align	3
 951              	_ZTV6Thread:
 952 0000 00000000 		.dword	0
 952      00000000 
 953 0008 00000000 		.dword	0
 953      00000000 
 954 0010 00000000 		.dword	_ZN6ThreadD1Ev
 954      00000000 
 955 0018 00000000 		.dword	_ZN6ThreadD0Ev
 955      00000000 
 956 0020 00000000 		.dword	_ZN6Thread3runEv
 956      00000000 
 957              		.weak	_ZTV9Semaphore
 958              		.section	.data.rel.ro.local._ZTV9Semaphore,"awG",@progbits,_ZTV9Semaphore,comdat
 959              		.align	3
 962              	_ZTV9Semaphore:
 963 0000 00000000 		.dword	0
 963      00000000 
 964 0008 00000000 		.dword	0
 964      00000000 
 965 0010 00000000 		.dword	_ZN9SemaphoreD1Ev
 965      00000000 
 966 0018 00000000 		.dword	_ZN9SemaphoreD0Ev
 966      00000000 
 967              		.text
 968              	.Letext0:
 969              		.file 4 "src/../h/../lib/hw.h"
 970              		.file 5 "src/../h/TCB.hpp"
 971              		.file 6 "src/../h/KSem.hpp"
 972              		.file 7 "src/../h/syscall_c.hpp"
 5356              		.align	3
 5359              	DW.ref.__gxx_personality_v0:
 5360 0000 00000000 		.dword	__gxx_personality_v0
 5360      00000000 
 5361              		.ident	"GCC: (Ubuntu 9.4.0-1ubuntu1~20.04) 9.4.0"
 5362              		.section	.note.GNU-stack,"",@progbits
GAS LISTING /tmp/ccU8CX3A.s 			page 23

