GAS LISTING /tmp/ccMGsBQ7.s 			page 1


   1              		.file	"syscall_c.cpp"
   2              		.option pic
   3              		.option norelax
   4              		.text
   5              	.Ltext0:
   6              		.align	2
   7              		.globl	_Z9mem_allocm
   9              	_Z9mem_allocm:
  10              	.LFB19:
  11              		.file 1 "src/syscall_c.cpp"
   1:src/syscall_c.cpp **** #include "../h/syscall_c.hpp"
   2:src/syscall_c.cpp **** #include "../h/Riscv.hpp"
   3:src/syscall_c.cpp **** #include "../h/MemoryAllocator.hpp"
   4:src/syscall_c.cpp **** 
   5:src/syscall_c.cpp **** inline void scall() {
   6:src/syscall_c.cpp **** 	__asm__ volatile("ecall");
   7:src/syscall_c.cpp **** }
   8:src/syscall_c.cpp **** 
   9:src/syscall_c.cpp **** void* mem_alloc(size_t size) {
  12              		.loc 1 9 30
  13              		.cfi_startproc
  14              	.LVL0:
  15 0000 130101FF 		addi	sp,sp,-16
  16              		.cfi_def_cfa_offset 16
  17 0004 23348100 		sd	s0,8(sp)
  18              		.cfi_offset 8, -8
  19 0008 13040101 		addi	s0,sp,16
  20              		.cfi_def_cfa 8, 0
  10:src/syscall_c.cpp **** 	//size je u bajtovima, pretvara se u blokove
  11:src/syscall_c.cpp **** 	size = size / MEM_BLOCK_SIZE + (size % MEM_BLOCK_SIZE ? 1 : 0);
  21              		.loc 1 11 2
  22              		.loc 1 11 14 is_stmt 0
  23 000c 93576500 		srli	a5,a0,6
  24              		.loc 1 11 39
  25 0010 1375F503 		andi	a0,a0,63
  26              	.LVL1:
  27              		.loc 1 11 56
  28 0014 63040500 		beqz	a0,.L2
  29 0018 13051000 		li	a0,1
  30              	.L2:
  31              		.loc 1 11 7 discriminator 4
  32 001c 3385A700 		add	a0,a5,a0
  33              	.LVL2:
  12:src/syscall_c.cpp **** 	__asm__ volatile("mv a1, %[size]": :[size] "r"(size));
  34              		.loc 1 12 2 is_stmt 1 discriminator 4
  35              		.loc 1 12 55 is_stmt 0 discriminator 4
  36              	#APP
  37              	# 12 "src/syscall_c.cpp" 1
  13              		Riscv::loadOpCode(0x01);
  38              		mv a1, a0
  39              	# 0 "" 2
  40              		.loc 1 13 2 is_stmt 1 discriminator 4
  41              	.LVL3:
  42              	#NO_APP
  43              	.LBB12:
  44              	.LBB13:
  45              		.file 2 "src/../h/Riscv.hpp"
GAS LISTING /tmp/ccMGsBQ7.s 			page 2


   1:src/../h/Riscv.hpp **** //
   2:src/../h/Riscv.hpp **** // Created by os on 5/17/23.
   3:src/../h/Riscv.hpp **** //
   4:src/../h/Riscv.hpp **** 
   5:src/../h/Riscv.hpp **** #ifndef PROJEKAT2023_RISCV_HPP
   6:src/../h/Riscv.hpp **** #define PROJEKAT2023_RISCV_HPP
   7:src/../h/Riscv.hpp **** 
   8:src/../h/Riscv.hpp **** #include "../lib/hw.h"
   9:src/../h/Riscv.hpp **** 
  10:src/../h/Riscv.hpp **** class Riscv {
  11:src/../h/Riscv.hpp **** public:
  12:src/../h/Riscv.hpp **** 
  13:src/../h/Riscv.hpp **** 	//stavljanje registara x3-x31 na stek
  14:src/../h/Riscv.hpp **** 	static void pushRegisters();    //implementacija u asm
  15:src/../h/Riscv.hpp **** 
  16:src/../h/Riscv.hpp **** 	//skidanje registara x3-x31 sa steka
  17:src/../h/Riscv.hpp **** 	static void popRegisters();     //implementacija u asm
  18:src/../h/Riscv.hpp **** 
  19:src/../h/Riscv.hpp **** 	//read scause
  20:src/../h/Riscv.hpp **** 	static uint64 r_scause();
  21:src/../h/Riscv.hpp **** 
  22:src/../h/Riscv.hpp **** 	//write scause
  23:src/../h/Riscv.hpp **** 	static void w_scause(uint64 scause);
  24:src/../h/Riscv.hpp **** 
  25:src/../h/Riscv.hpp **** 	//read sepc
  26:src/../h/Riscv.hpp **** 	static uint64 r_sepc();
  27:src/../h/Riscv.hpp **** 
  28:src/../h/Riscv.hpp **** 	//write sepc
  29:src/../h/Riscv.hpp **** 	static void w_sepc(uint64 sepc);
  30:src/../h/Riscv.hpp **** 
  31:src/../h/Riscv.hpp **** 	//read stvec
  32:src/../h/Riscv.hpp **** 	static uint64 r_stvec();
  33:src/../h/Riscv.hpp **** 
  34:src/../h/Riscv.hpp **** 	//write stvec
  35:src/../h/Riscv.hpp **** 	static void w_stvec(uint64 stvec);
  36:src/../h/Riscv.hpp **** 
  37:src/../h/Riscv.hpp **** 	enum BitMaskSip {
  38:src/../h/Riscv.hpp **** 		SIP_SSIP = (1 << 1),    //postoji zahtev za softverski prekid
  39:src/../h/Riscv.hpp **** 		SIP_STIP = (1 << 5),    //postoji prekid od tajmera
  40:src/../h/Riscv.hpp **** 		SIP_SEIP = (1 << 9)        //postoji zahtev za spoljasnji hardverski prekid
  41:src/../h/Riscv.hpp **** 	};
  42:src/../h/Riscv.hpp **** 
  43:src/../h/Riscv.hpp **** 	//mask set sip
  44:src/../h/Riscv.hpp **** 	static void ms_sip(uint64 mask);
  45:src/../h/Riscv.hpp **** 
  46:src/../h/Riscv.hpp **** 	//mask clear sip
  47:src/../h/Riscv.hpp **** 	static void mc_sip(uint64 mask);
  48:src/../h/Riscv.hpp **** 
  49:src/../h/Riscv.hpp **** 	//read sip
  50:src/../h/Riscv.hpp **** 	static uint64 r_sip();
  51:src/../h/Riscv.hpp **** 
  52:src/../h/Riscv.hpp **** 	//write sip
  53:src/../h/Riscv.hpp **** 	static void w_sip(uint64 sip);
  54:src/../h/Riscv.hpp **** 
  55:src/../h/Riscv.hpp **** 	enum BitMaskSstatus {
  56:src/../h/Riscv.hpp **** 		SSTATUS_SIE = (1 << 1),
  57:src/../h/Riscv.hpp **** 		SSTATUS_SPIE = (1 << 5),
GAS LISTING /tmp/ccMGsBQ7.s 			page 3


  58:src/../h/Riscv.hpp **** 		SSTATUS_SPP = (1 << 8)
  59:src/../h/Riscv.hpp **** 	};
  60:src/../h/Riscv.hpp **** 
  61:src/../h/Riscv.hpp **** 	//mask set sstatus
  62:src/../h/Riscv.hpp **** 	static void ms_sstatus(uint64 mask);
  63:src/../h/Riscv.hpp **** 
  64:src/../h/Riscv.hpp **** 	//mask clear sstatus
  65:src/../h/Riscv.hpp **** 	static void mc_sstatus(uint64 mask);
  66:src/../h/Riscv.hpp **** 
  67:src/../h/Riscv.hpp **** 	//read sstatus
  68:src/../h/Riscv.hpp **** 	static uint64 r_sstatus();
  69:src/../h/Riscv.hpp **** 
  70:src/../h/Riscv.hpp **** 	//write sstatus
  71:src/../h/Riscv.hpp **** 	static void w_sstatus(uint64 sstatus);
  72:src/../h/Riscv.hpp **** 
  73:src/../h/Riscv.hpp **** 	//upisuje kod sistemskog poziva u registar a0
  74:src/../h/Riscv.hpp **** 	static void loadOpCode(uint64 opCode);
  75:src/../h/Riscv.hpp **** 
  76:src/../h/Riscv.hpp **** };
  77:src/../h/Riscv.hpp **** 
  78:src/../h/Riscv.hpp **** inline uint64 Riscv::r_scause() {
  79:src/../h/Riscv.hpp **** 	uint64 volatile scause;
  80:src/../h/Riscv.hpp **** 	__asm__ volatile("csrr %[scause], scause": [scause] "=r"(scause));
  81:src/../h/Riscv.hpp **** 	return scause;
  82:src/../h/Riscv.hpp **** }
  83:src/../h/Riscv.hpp **** 
  84:src/../h/Riscv.hpp **** inline void Riscv::w_scause(uint64 scause) {
  85:src/../h/Riscv.hpp **** 	__asm__ volatile("csrw scause, %[scause]": :[scause] "r"(scause));
  86:src/../h/Riscv.hpp **** }
  87:src/../h/Riscv.hpp **** 
  88:src/../h/Riscv.hpp **** inline uint64 Riscv::r_sepc() {
  89:src/../h/Riscv.hpp **** 	uint64 volatile sepc;
  90:src/../h/Riscv.hpp **** 	__asm__ volatile("csrr %[sepc], sepc": [sepc] "=r"(sepc));
  91:src/../h/Riscv.hpp **** 	return sepc;
  92:src/../h/Riscv.hpp **** }
  93:src/../h/Riscv.hpp **** 
  94:src/../h/Riscv.hpp **** inline void Riscv::w_sepc(uint64 sepc) {
  95:src/../h/Riscv.hpp **** 	__asm__ volatile("csrw sepc, %[sepc]": :[sepc] "r"(sepc));
  96:src/../h/Riscv.hpp **** }
  97:src/../h/Riscv.hpp **** 
  98:src/../h/Riscv.hpp **** inline uint64 Riscv::r_stvec() {
  99:src/../h/Riscv.hpp **** 	uint64 volatile stvec;
 100:src/../h/Riscv.hpp **** 	__asm__ volatile("csrr %[stvec], stvec": [stvec] "=r"(stvec));
 101:src/../h/Riscv.hpp **** 	return stvec;
 102:src/../h/Riscv.hpp **** }
 103:src/../h/Riscv.hpp **** 
 104:src/../h/Riscv.hpp **** inline void Riscv::w_stvec(uint64 stvec) {
 105:src/../h/Riscv.hpp **** 	__asm__ volatile("csrw stvec, %[stvec]": :[stvec] "r"(stvec));
 106:src/../h/Riscv.hpp **** }
 107:src/../h/Riscv.hpp **** 
 108:src/../h/Riscv.hpp **** inline void Riscv::ms_sip(uint64 mask) {
 109:src/../h/Riscv.hpp **** 	__asm__ volatile("csrs sip, %[mask]": :[mask] "r"(mask));
 110:src/../h/Riscv.hpp **** }
 111:src/../h/Riscv.hpp **** 
 112:src/../h/Riscv.hpp **** inline void Riscv::mc_sip(uint64 mask) {
 113:src/../h/Riscv.hpp **** 	__asm__ volatile("csrc sip, %[mask]": :[mask] "r"(mask));
 114:src/../h/Riscv.hpp **** }
GAS LISTING /tmp/ccMGsBQ7.s 			page 4


 115:src/../h/Riscv.hpp **** 
 116:src/../h/Riscv.hpp **** inline uint64 Riscv::r_sip() {
 117:src/../h/Riscv.hpp **** 	uint64 volatile sip;
 118:src/../h/Riscv.hpp **** 	__asm__ volatile("csrr %[sip], sip": [sip] "=r"(sip));
 119:src/../h/Riscv.hpp **** 	return sip;
 120:src/../h/Riscv.hpp **** }
 121:src/../h/Riscv.hpp **** 
 122:src/../h/Riscv.hpp **** inline void Riscv::w_sip(uint64 sip) {
 123:src/../h/Riscv.hpp **** 	__asm__ volatile("csrw sip, %[sip]": :[sip] "r"(sip));
 124:src/../h/Riscv.hpp **** }
 125:src/../h/Riscv.hpp **** 
 126:src/../h/Riscv.hpp **** inline void Riscv::ms_sstatus(uint64 mask) {
 127:src/../h/Riscv.hpp **** 	__asm__ volatile("csrs sstatus, %[mask]": :[mask] "r"(mask));
 128:src/../h/Riscv.hpp **** }
 129:src/../h/Riscv.hpp **** 
 130:src/../h/Riscv.hpp **** inline void Riscv::mc_sstatus(uint64 mask) {
 131:src/../h/Riscv.hpp **** 	__asm__ volatile("csrc sstatus, %[mask]": :[mask] "r"(mask));
 132:src/../h/Riscv.hpp **** }
 133:src/../h/Riscv.hpp **** 
 134:src/../h/Riscv.hpp **** inline uint64 Riscv::r_sstatus() {
 135:src/../h/Riscv.hpp **** 	uint64 volatile sstatus;
 136:src/../h/Riscv.hpp **** 	__asm__ volatile("csrr %[sstatus], sstatus": [sstatus] "=r"(sstatus));
 137:src/../h/Riscv.hpp **** 	return sstatus;
 138:src/../h/Riscv.hpp **** }
 139:src/../h/Riscv.hpp **** 
 140:src/../h/Riscv.hpp **** inline void Riscv::w_sstatus(uint64 sstatus) {
 141:src/../h/Riscv.hpp **** 	__asm__ volatile("csrw sstatus, %[sstatus]": :[sstatus] "r"(sstatus));
 142:src/../h/Riscv.hpp **** }
 143:src/../h/Riscv.hpp **** 
 144:src/../h/Riscv.hpp **** inline void Riscv::loadOpCode(uint64 opCode) {
 145:src/../h/Riscv.hpp **** 	__asm__ volatile("mv a0, %[code]": :[code] "r"(opCode));
  46              		.loc 2 145 2 discriminator 4
  47              		.loc 2 145 57 is_stmt 0 discriminator 4
  48 0024 93071000 		li	a5,1
  49              	#APP
  50              	# 145 "src/../h/Riscv.hpp" 1
 146              	}
  51              		mv a0, a5
  52              	# 0 "" 2
  53              	.LVL4:
  54              	#NO_APP
  55              	.LBE13:
  56              	.LBE12:
  14:src/syscall_c.cpp **** 
  15:src/syscall_c.cpp **** 	scall();
  57              		.loc 1 15 2 is_stmt 1 discriminator 4
  58              	.LBB14:
  59              	.LBB15:
   6:src/syscall_c.cpp **** }
  60              		.loc 1 6 2 discriminator 4
   6:src/syscall_c.cpp **** }
  61              		.loc 1 6 27 is_stmt 0 discriminator 4
  62              	#APP
  63              	# 6 "src/syscall_c.cpp" 1
  64              		ecall
  65              	# 0 "" 2
  66              	#NO_APP
GAS LISTING /tmp/ccMGsBQ7.s 			page 5


  67              	.LBE15:
  68              	.LBE14:
  16:src/syscall_c.cpp **** 
  17:src/syscall_c.cpp **** 	void* ret;
  69              		.loc 1 17 2 is_stmt 1 discriminator 4
  18:src/syscall_c.cpp **** 	__asm__ volatile("mv %[ptr], a0":[ptr] "=r"(ret));
  70              		.loc 1 18 2 discriminator 4
  71              		.loc 1 18 51 is_stmt 0 discriminator 4
  72              	#APP
  73              	# 18 "src/syscall_c.cpp" 1
  19              		return ret;
  74              		mv a0, a0
  75              	# 0 "" 2
  76              	.LVL5:
  77              		.loc 1 19 2 is_stmt 1 discriminator 4
  20:src/syscall_c.cpp **** }
  78              		.loc 1 20 1 is_stmt 0 discriminator 4
  79              	#NO_APP
  80 0034 03348100 		ld	s0,8(sp)
  81              		.cfi_restore 8
  82              		.cfi_def_cfa 2, 16
  83 0038 13010101 		addi	sp,sp,16
  84              		.cfi_def_cfa_offset 0
  85 003c 67800000 		jr	ra
  86              		.cfi_endproc
  87              	.LFE19:
  89              		.align	2
  90              		.globl	_Z8mem_freePv
  92              	_Z8mem_freePv:
  93              	.LFB20:
  21:src/syscall_c.cpp **** 
  22:src/syscall_c.cpp **** int mem_free(void* ptr) {
  94              		.loc 1 22 25 is_stmt 1
  95              		.cfi_startproc
  96              	.LVL6:
  97 0040 130101FF 		addi	sp,sp,-16
  98              		.cfi_def_cfa_offset 16
  99 0044 23348100 		sd	s0,8(sp)
 100              		.cfi_offset 8, -8
 101 0048 13040101 		addi	s0,sp,16
 102              		.cfi_def_cfa 8, 0
  23:src/syscall_c.cpp **** 	__asm__ volatile("mv a1, %[ptr]": :[ptr] "r"(ptr));
 103              		.loc 1 23 2
 104              		.loc 1 23 52 is_stmt 0
 105              	#APP
 106              	# 23 "src/syscall_c.cpp" 1
  24              		Riscv::loadOpCode(0x02);
 107              		mv a1, a0
 108              	# 0 "" 2
 109              		.loc 1 24 2 is_stmt 1
 110              	.LVL7:
 111              	#NO_APP
 112              	.LBB16:
 113              	.LBB17:
 145:src/../h/Riscv.hpp **** }
 114              		.loc 2 145 2
 145:src/../h/Riscv.hpp **** }
GAS LISTING /tmp/ccMGsBQ7.s 			page 6


 115              		.loc 2 145 57 is_stmt 0
 116 0050 93072000 		li	a5,2
 117              	#APP
 118              	# 145 "src/../h/Riscv.hpp" 1
 119              		mv a0, a5
 120              	# 0 "" 2
 121              	.LVL8:
 122              	#NO_APP
 123              	.LBE17:
 124              	.LBE16:
  25:src/syscall_c.cpp **** 
  26:src/syscall_c.cpp **** 	scall();
 125              		.loc 1 26 2 is_stmt 1
 126              	.LBB18:
 127              	.LBB19:
   6:src/syscall_c.cpp **** }
 128              		.loc 1 6 2
   6:src/syscall_c.cpp **** }
 129              		.loc 1 6 27 is_stmt 0
 130              	#APP
 131              	# 6 "src/syscall_c.cpp" 1
 132              		ecall
 133              	# 0 "" 2
 134              	#NO_APP
 135              	.LBE19:
 136              	.LBE18:
  27:src/syscall_c.cpp **** 
  28:src/syscall_c.cpp **** 	int status;
 137              		.loc 1 28 2 is_stmt 1
  29:src/syscall_c.cpp **** 	__asm__ volatile("mv %[status], a0":[status] "=r"(status));
 138              		.loc 1 29 2
 139              		.loc 1 29 60 is_stmt 0
 140              	#APP
 141              	# 29 "src/syscall_c.cpp" 1
  30              		return status;
 142              		mv a0, a0
 143              	# 0 "" 2
 144              	.LVL9:
 145              		.loc 1 30 2 is_stmt 1
  31:src/syscall_c.cpp **** }
 146              		.loc 1 31 1 is_stmt 0
 147              	#NO_APP
 148 0060 1B050500 		sext.w	a0,a0
 149 0064 03348100 		ld	s0,8(sp)
 150              		.cfi_restore 8
 151              		.cfi_def_cfa 2, 16
 152 0068 13010101 		addi	sp,sp,16
 153              		.cfi_def_cfa_offset 0
 154 006c 67800000 		jr	ra
 155              		.cfi_endproc
 156              	.LFE20:
 158              		.align	2
 159              		.globl	_Z13thread_createPP3TCBPFvPvES2_
 161              	_Z13thread_createPP3TCBPFvPvES2_:
 162              	.LFB21:
  32:src/syscall_c.cpp **** 
  33:src/syscall_c.cpp **** int thread_create(thread_t* handle, void (* start_routine)(void*), void* arg) {
GAS LISTING /tmp/ccMGsBQ7.s 			page 7


 163              		.loc 1 33 79 is_stmt 1
 164              		.cfi_startproc
 165              	.LVL10:
 166 0070 130101FD 		addi	sp,sp,-48
 167              		.cfi_def_cfa_offset 48
 168 0074 23341102 		sd	ra,40(sp)
 169 0078 23308102 		sd	s0,32(sp)
 170 007c 233C9100 		sd	s1,24(sp)
 171 0080 23382101 		sd	s2,16(sp)
 172 0084 23343101 		sd	s3,8(sp)
 173              		.cfi_offset 1, -8
 174              		.cfi_offset 8, -16
 175              		.cfi_offset 9, -24
 176              		.cfi_offset 18, -32
 177              		.cfi_offset 19, -40
 178 0088 13040103 		addi	s0,sp,48
 179              		.cfi_def_cfa 8, 0
 180 008c 13090500 		mv	s2,a0
 181 0090 93840500 		mv	s1,a1
 182 0094 93090600 		mv	s3,a2
  34:src/syscall_c.cpp **** //	__asm__ volatile("mv s1, a1");
  35:src/syscall_c.cpp **** //	__asm__ volatile("mv s2, a2");
  36:src/syscall_c.cpp **** //	__asm__ volatile("mv s3, a3");
  37:src/syscall_c.cpp **** 	uint64* stack = (start_routine != nullptr ? (uint64*)MemoryAllocator::kmalloc(DEFAULT_STACK_SIZE) 
 183              		.loc 1 37 2
 184              		.loc 1 37 44 is_stmt 0
 185 0098 63860504 		beqz	a1,.L8
 186              		.loc 1 37 79 discriminator 1
 187 009c 37150000 		li	a0,4096
 188              	.LVL11:
 189 00a0 97000000 		call	_ZN15MemoryAllocator7kmallocEm@plt
 189      E7800000 
 190              	.LVL12:
 191              	.L7:
  38:src/syscall_c.cpp **** 	__asm__ volatile("mv a4, %[sp]": :[sp] "r"(stack));
 192              		.loc 1 38 2 is_stmt 1 discriminator 4
 193              		.loc 1 38 52 is_stmt 0 discriminator 4
 194              	#APP
 195              	# 38 "src/syscall_c.cpp" 1
  39              	//	__asm__ volatile("mv a3, s3");
  40:src/syscall_c.cpp **** //	__asm__ volatile("mv a2, s2");
  41:src/syscall_c.cpp **** //	__asm__ volatile("mv a1, s1");
  42:src/syscall_c.cpp **** 	__asm__ volatile("mv a3, %[arg]": :[arg] "r"(arg));
 196              		mv a4, a0
 197              	# 0 "" 2
 198              		.loc 1 42 2 is_stmt 1 discriminator 4
 199              		.loc 1 42 52 is_stmt 0 discriminator 4
 200              	# 42 "src/syscall_c.cpp" 1
  43              		__asm__ volatile("mv a2, %[function]": :[function] "r"(start_routine));
 201              		mv a3, s3
 202              	# 0 "" 2
 203              		.loc 1 43 2 is_stmt 1 discriminator 4
 204              		.loc 1 43 72 is_stmt 0 discriminator 4
 205              	# 43 "src/syscall_c.cpp" 1
  44              		__asm__ volatile("mv a1, %[handle]": :[handle] "r"(handle));
 206              		mv a2, s1
 207              	# 0 "" 2
GAS LISTING /tmp/ccMGsBQ7.s 			page 8


 208              		.loc 1 44 2 is_stmt 1 discriminator 4
 209              		.loc 1 44 61 is_stmt 0 discriminator 4
 210              	# 44 "src/syscall_c.cpp" 1
  45              	
  46:src/syscall_c.cpp **** 	__asm__ volatile("li a0, 0x11");
 211              		mv a1, s2
 212              	# 0 "" 2
 213              		.loc 1 46 2 is_stmt 1 discriminator 4
 214              		.loc 1 46 33 is_stmt 0 discriminator 4
 215              	# 46 "src/syscall_c.cpp" 1
  47              		//Riscv::loadOpCode(0x11);
  48:src/syscall_c.cpp **** 
  49:src/syscall_c.cpp **** 	scall();
 216              		li a0, 0x11
 217              	# 0 "" 2
 218              		.loc 1 49 2 is_stmt 1 discriminator 4
 219              	#NO_APP
 220              	.LBB20:
 221              	.LBB21:
   6:src/syscall_c.cpp **** }
 222              		.loc 1 6 2 discriminator 4
   6:src/syscall_c.cpp **** }
 223              		.loc 1 6 27 is_stmt 0 discriminator 4
 224              	#APP
 225              	# 6 "src/syscall_c.cpp" 1
 226              		ecall
 227              	# 0 "" 2
 228              	#NO_APP
 229              	.LBE21:
 230              	.LBE20:
  50:src/syscall_c.cpp **** 
  51:src/syscall_c.cpp **** 	int status;
 231              		.loc 1 51 2 is_stmt 1 discriminator 4
  52:src/syscall_c.cpp **** 	__asm__ volatile("mv %[status], a0":[status] "=r"(status));
 232              		.loc 1 52 2 discriminator 4
 233              		.loc 1 52 60 is_stmt 0 discriminator 4
 234              	#APP
 235              	# 52 "src/syscall_c.cpp" 1
  53              		return status;
 236              		mv a0, a0
 237              	# 0 "" 2
 238              	.LVL13:
 239              		.loc 1 53 2 is_stmt 1 discriminator 4
  54:src/syscall_c.cpp **** }
 240              		.loc 1 54 1 is_stmt 0 discriminator 4
 241              	#NO_APP
 242 00c4 1B050500 		sext.w	a0,a0
 243 00c8 83308102 		ld	ra,40(sp)
 244              		.cfi_remember_state
 245              		.cfi_restore 1
 246 00cc 03340102 		ld	s0,32(sp)
 247              		.cfi_restore 8
 248              		.cfi_def_cfa 2, 48
 249 00d0 83348101 		ld	s1,24(sp)
 250              		.cfi_restore 9
 251              	.LVL14:
 252 00d4 03390101 		ld	s2,16(sp)
GAS LISTING /tmp/ccMGsBQ7.s 			page 9


 253              		.cfi_restore 18
 254              	.LVL15:
 255 00d8 83398100 		ld	s3,8(sp)
 256              		.cfi_restore 19
 257              	.LVL16:
 258 00dc 13010103 		addi	sp,sp,48
 259              		.cfi_def_cfa_offset 0
 260 00e0 67800000 		jr	ra
 261              	.LVL17:
 262              	.L8:
 263              		.cfi_restore_state
  37:src/syscall_c.cpp **** 	__asm__ volatile("mv a4, %[sp]": :[sp] "r"(stack));
 264              		.loc 1 37 44
 265 00e4 13050000 		li	a0,0
 266              	.LVL18:
 267 00e8 6FF01FFC 		j	.L7
 268              		.cfi_endproc
 269              	.LFE21:
 271              		.align	2
 272              		.globl	_Z11thread_exitv
 274              	_Z11thread_exitv:
 275              	.LFB22:
  55:src/syscall_c.cpp **** 
  56:src/syscall_c.cpp **** int thread_exit() {
 276              		.loc 1 56 19 is_stmt 1
 277              		.cfi_startproc
 278 00ec 130101FF 		addi	sp,sp,-16
 279              		.cfi_def_cfa_offset 16
 280 00f0 23348100 		sd	s0,8(sp)
 281              		.cfi_offset 8, -8
 282 00f4 13040101 		addi	s0,sp,16
 283              		.cfi_def_cfa 8, 0
  57:src/syscall_c.cpp **** 	return 0;
 284              		.loc 1 57 2
  58:src/syscall_c.cpp **** }
 285              		.loc 1 58 1 is_stmt 0
 286 00f8 13050000 		li	a0,0
 287 00fc 03348100 		ld	s0,8(sp)
 288              		.cfi_restore 8
 289              		.cfi_def_cfa 2, 16
 290 0100 13010101 		addi	sp,sp,16
 291              		.cfi_def_cfa_offset 0
 292 0104 67800000 		jr	ra
 293              		.cfi_endproc
 294              	.LFE22:
 296              		.align	2
 297              		.globl	_Z15thread_dispatchv
 299              	_Z15thread_dispatchv:
 300              	.LFB23:
  59:src/syscall_c.cpp **** 
  60:src/syscall_c.cpp **** void thread_dispatch() {
 301              		.loc 1 60 24 is_stmt 1
 302              		.cfi_startproc
 303 0108 130101FF 		addi	sp,sp,-16
 304              		.cfi_def_cfa_offset 16
 305 010c 23348100 		sd	s0,8(sp)
 306              		.cfi_offset 8, -8
GAS LISTING /tmp/ccMGsBQ7.s 			page 10


 307 0110 13040101 		addi	s0,sp,16
 308              		.cfi_def_cfa 8, 0
  61:src/syscall_c.cpp **** 
  62:src/syscall_c.cpp **** }
 309              		.loc 1 62 1 is_stmt 0
 310 0114 03348100 		ld	s0,8(sp)
 311              		.cfi_restore 8
 312              		.cfi_def_cfa 2, 16
 313 0118 13010101 		addi	sp,sp,16
 314              		.cfi_def_cfa_offset 0
 315 011c 67800000 		jr	ra
 316              		.cfi_endproc
 317              	.LFE23:
 319              		.align	2
 320              		.globl	_Z11thread_joinP3TCB
 322              	_Z11thread_joinP3TCB:
 323              	.LFB24:
  63:src/syscall_c.cpp **** 
  64:src/syscall_c.cpp **** void thread_join(thread_t handle) {
 324              		.loc 1 64 35 is_stmt 1
 325              		.cfi_startproc
 326              	.LVL19:
 327 0120 130101FF 		addi	sp,sp,-16
 328              		.cfi_def_cfa_offset 16
 329 0124 23348100 		sd	s0,8(sp)
 330              		.cfi_offset 8, -8
 331 0128 13040101 		addi	s0,sp,16
 332              		.cfi_def_cfa 8, 0
  65:src/syscall_c.cpp **** 
  66:src/syscall_c.cpp **** }
 333              		.loc 1 66 1 is_stmt 0
 334 012c 03348100 		ld	s0,8(sp)
 335              		.cfi_restore 8
 336              		.cfi_def_cfa 2, 16
 337 0130 13010101 		addi	sp,sp,16
 338              		.cfi_def_cfa_offset 0
 339 0134 67800000 		jr	ra
 340              		.cfi_endproc
 341              	.LFE24:
 343              		.align	2
 344              		.globl	_Z10time_sleepm
 346              	_Z10time_sleepm:
 347              	.LFB25:
  67:src/syscall_c.cpp **** 
  68:src/syscall_c.cpp **** int time_sleep(time_t) {
 348              		.loc 1 68 24 is_stmt 1
 349              		.cfi_startproc
 350 0138 130101FF 		addi	sp,sp,-16
 351              		.cfi_def_cfa_offset 16
 352 013c 23348100 		sd	s0,8(sp)
 353              		.cfi_offset 8, -8
 354 0140 13040101 		addi	s0,sp,16
 355              		.cfi_def_cfa 8, 0
  69:src/syscall_c.cpp **** 	return 0;
 356              		.loc 1 69 2
  70:src/syscall_c.cpp **** }
 357              		.loc 1 70 1 is_stmt 0
GAS LISTING /tmp/ccMGsBQ7.s 			page 11


 358 0144 13050000 		li	a0,0
 359 0148 03348100 		ld	s0,8(sp)
 360              		.cfi_restore 8
 361              		.cfi_def_cfa 2, 16
 362 014c 13010101 		addi	sp,sp,16
 363              		.cfi_def_cfa_offset 0
 364 0150 67800000 		jr	ra
 365              		.cfi_endproc
 366              	.LFE25:
 368              		.align	2
 369              		.globl	_Z8sem_openPP4_semj
 371              	_Z8sem_openPP4_semj:
 372              	.LFB26:
  71:src/syscall_c.cpp **** 
  72:src/syscall_c.cpp **** int sem_open(sem_t* handle, unsigned int init) {
 373              		.loc 1 72 48 is_stmt 1
 374              		.cfi_startproc
 375              	.LVL20:
 376 0154 130101FF 		addi	sp,sp,-16
 377              		.cfi_def_cfa_offset 16
 378 0158 23348100 		sd	s0,8(sp)
 379              		.cfi_offset 8, -8
 380 015c 13040101 		addi	s0,sp,16
 381              		.cfi_def_cfa 8, 0
  73:src/syscall_c.cpp **** 	return 0;
 382              		.loc 1 73 2
  74:src/syscall_c.cpp **** }
 383              		.loc 1 74 1 is_stmt 0
 384 0160 13050000 		li	a0,0
 385              	.LVL21:
 386 0164 03348100 		ld	s0,8(sp)
 387              		.cfi_restore 8
 388              		.cfi_def_cfa 2, 16
 389 0168 13010101 		addi	sp,sp,16
 390              		.cfi_def_cfa_offset 0
 391 016c 67800000 		jr	ra
 392              		.cfi_endproc
 393              	.LFE26:
 395              		.align	2
 396              		.globl	_Z9sem_closeP4_sem
 398              	_Z9sem_closeP4_sem:
 399              	.LFB27:
  75:src/syscall_c.cpp **** 
  76:src/syscall_c.cpp **** int sem_close(sem_t handle) {
 400              		.loc 1 76 29 is_stmt 1
 401              		.cfi_startproc
 402              	.LVL22:
 403 0170 130101FF 		addi	sp,sp,-16
 404              		.cfi_def_cfa_offset 16
 405 0174 23348100 		sd	s0,8(sp)
 406              		.cfi_offset 8, -8
 407 0178 13040101 		addi	s0,sp,16
 408              		.cfi_def_cfa 8, 0
  77:src/syscall_c.cpp **** 	return 0;
 409              		.loc 1 77 2
  78:src/syscall_c.cpp **** }
 410              		.loc 1 78 1 is_stmt 0
GAS LISTING /tmp/ccMGsBQ7.s 			page 12


 411 017c 13050000 		li	a0,0
 412              	.LVL23:
 413 0180 03348100 		ld	s0,8(sp)
 414              		.cfi_restore 8
 415              		.cfi_def_cfa 2, 16
 416 0184 13010101 		addi	sp,sp,16
 417              		.cfi_def_cfa_offset 0
 418 0188 67800000 		jr	ra
 419              		.cfi_endproc
 420              	.LFE27:
 422              		.align	2
 423              		.globl	_Z8sem_waitP4_sem
 425              	_Z8sem_waitP4_sem:
 426              	.LFB28:
  79:src/syscall_c.cpp **** 
  80:src/syscall_c.cpp **** int sem_wait(sem_t id) {
 427              		.loc 1 80 24 is_stmt 1
 428              		.cfi_startproc
 429              	.LVL24:
 430 018c 130101FF 		addi	sp,sp,-16
 431              		.cfi_def_cfa_offset 16
 432 0190 23348100 		sd	s0,8(sp)
 433              		.cfi_offset 8, -8
 434 0194 13040101 		addi	s0,sp,16
 435              		.cfi_def_cfa 8, 0
  81:src/syscall_c.cpp **** 	return 0;
 436              		.loc 1 81 2
  82:src/syscall_c.cpp **** }
 437              		.loc 1 82 1 is_stmt 0
 438 0198 13050000 		li	a0,0
 439              	.LVL25:
 440 019c 03348100 		ld	s0,8(sp)
 441              		.cfi_restore 8
 442              		.cfi_def_cfa 2, 16
 443 01a0 13010101 		addi	sp,sp,16
 444              		.cfi_def_cfa_offset 0
 445 01a4 67800000 		jr	ra
 446              		.cfi_endproc
 447              	.LFE28:
 449              		.align	2
 450              		.globl	_Z10sem_signalP4_sem
 452              	_Z10sem_signalP4_sem:
 453              	.LFB29:
  83:src/syscall_c.cpp **** 
  84:src/syscall_c.cpp **** int sem_signal(sem_t id) {
 454              		.loc 1 84 26 is_stmt 1
 455              		.cfi_startproc
 456              	.LVL26:
 457 01a8 130101FF 		addi	sp,sp,-16
 458              		.cfi_def_cfa_offset 16
 459 01ac 23348100 		sd	s0,8(sp)
 460              		.cfi_offset 8, -8
 461 01b0 13040101 		addi	s0,sp,16
 462              		.cfi_def_cfa 8, 0
  85:src/syscall_c.cpp **** 	return 0;
 463              		.loc 1 85 2
  86:src/syscall_c.cpp **** }
GAS LISTING /tmp/ccMGsBQ7.s 			page 13


 464              		.loc 1 86 1 is_stmt 0
 465 01b4 13050000 		li	a0,0
 466              	.LVL27:
 467 01b8 03348100 		ld	s0,8(sp)
 468              		.cfi_restore 8
 469              		.cfi_def_cfa 2, 16
 470 01bc 13010101 		addi	sp,sp,16
 471              		.cfi_def_cfa_offset 0
 472 01c0 67800000 		jr	ra
 473              		.cfi_endproc
 474              	.LFE29:
 476              		.align	2
 477              		.globl	_Z4getcv
 479              	_Z4getcv:
 480              	.LFB30:
  87:src/syscall_c.cpp **** 
  88:src/syscall_c.cpp **** char getc() {
 481              		.loc 1 88 13 is_stmt 1
 482              		.cfi_startproc
 483 01c4 130101FF 		addi	sp,sp,-16
 484              		.cfi_def_cfa_offset 16
 485 01c8 23348100 		sd	s0,8(sp)
 486              		.cfi_offset 8, -8
 487 01cc 13040101 		addi	s0,sp,16
 488              		.cfi_def_cfa 8, 0
  89:src/syscall_c.cpp **** 	return 0;
 489              		.loc 1 89 2
  90:src/syscall_c.cpp **** }
 490              		.loc 1 90 1 is_stmt 0
 491 01d0 13050000 		li	a0,0
 492 01d4 03348100 		ld	s0,8(sp)
 493              		.cfi_restore 8
 494              		.cfi_def_cfa 2, 16
 495 01d8 13010101 		addi	sp,sp,16
 496              		.cfi_def_cfa_offset 0
 497 01dc 67800000 		jr	ra
 498              		.cfi_endproc
 499              	.LFE30:
 501              		.align	2
 502              		.globl	_Z4putcc
 504              	_Z4putcc:
 505              	.LFB31:
  91:src/syscall_c.cpp **** 
  92:src/syscall_c.cpp **** void putc(char) {
 506              		.loc 1 92 17 is_stmt 1
 507              		.cfi_startproc
 508 01e0 130101FF 		addi	sp,sp,-16
 509              		.cfi_def_cfa_offset 16
 510 01e4 23348100 		sd	s0,8(sp)
 511              		.cfi_offset 8, -8
 512 01e8 13040101 		addi	s0,sp,16
 513              		.cfi_def_cfa 8, 0
  93:src/syscall_c.cpp **** 
  94:src/syscall_c.cpp **** }
 514              		.loc 1 94 1 is_stmt 0
 515 01ec 03348100 		ld	s0,8(sp)
 516              		.cfi_restore 8
GAS LISTING /tmp/ccMGsBQ7.s 			page 14


 517              		.cfi_def_cfa 2, 16
 518 01f0 13010101 		addi	sp,sp,16
 519              		.cfi_def_cfa_offset 0
 520 01f4 67800000 		jr	ra
 521              		.cfi_endproc
 522              	.LFE31:
 524              	.Letext0:
 525              		.file 3 "src/../h/../lib/hw.h"
 526              		.file 4 "src/../h/syscall_c.hpp"
 527              		.file 5 "src/../h/MemoryAllocator.hpp"
GAS LISTING /tmp/ccMGsBQ7.s 			page 15


DEFINED SYMBOLS
                            *ABS*:0000000000000000 syscall_c.cpp
     /tmp/ccMGsBQ7.s:9      .text:0000000000000000 _Z9mem_allocm
     /tmp/ccMGsBQ7.s:13     .text:0000000000000000 .L0 
     /tmp/ccMGsBQ7.s:15     .text:0000000000000000 .L0 
     /tmp/ccMGsBQ7.s:16     .text:0000000000000004 .L0 
     /tmp/ccMGsBQ7.s:18     .text:0000000000000008 .L0 
     /tmp/ccMGsBQ7.s:20     .text:000000000000000c .L0 
     /tmp/ccMGsBQ7.s:22     .text:000000000000000c .L0 
     /tmp/ccMGsBQ7.s:23     .text:000000000000000c .L0 
     /tmp/ccMGsBQ7.s:25     .text:0000000000000010 .L0 
     /tmp/ccMGsBQ7.s:28     .text:0000000000000014 .L0 
     /tmp/ccMGsBQ7.s:32     .text:000000000000001c .L0 
     /tmp/ccMGsBQ7.s:35     .text:0000000000000020 .L0 
   src/syscall_c.cpp:12     .text:0000000000000020 .L0 
     /tmp/ccMGsBQ7.s:46     .text:0000000000000024 .L0 
     /tmp/ccMGsBQ7.s:47     .text:0000000000000024 .L0 
     /tmp/ccMGsBQ7.s:48     .text:0000000000000024 .L0 
     /tmp/ccMGsBQ7.s:60     .text:000000000000002c .L0 
     /tmp/ccMGsBQ7.s:61     .text:000000000000002c .L0 
   src/syscall_c.cpp:6      .text:000000000000002c .L0 
     /tmp/ccMGsBQ7.s:70     .text:0000000000000030 .L0 
     /tmp/ccMGsBQ7.s:71     .text:0000000000000030 .L0 
   src/syscall_c.cpp:18     .text:0000000000000030 .L0 
     /tmp/ccMGsBQ7.s:78     .text:0000000000000034 .L0 
     /tmp/ccMGsBQ7.s:80     .text:0000000000000034 .L0 
     /tmp/ccMGsBQ7.s:81     .text:0000000000000038 .L0 
     /tmp/ccMGsBQ7.s:82     .text:0000000000000038 .L0 
     /tmp/ccMGsBQ7.s:84     .text:000000000000003c .L0 
     /tmp/ccMGsBQ7.s:86     .text:0000000000000040 .L0 
     /tmp/ccMGsBQ7.s:92     .text:0000000000000040 _Z8mem_freePv
     /tmp/ccMGsBQ7.s:95     .text:0000000000000040 .L0 
     /tmp/ccMGsBQ7.s:97     .text:0000000000000040 .L0 
     /tmp/ccMGsBQ7.s:98     .text:0000000000000044 .L0 
     /tmp/ccMGsBQ7.s:100    .text:0000000000000048 .L0 
     /tmp/ccMGsBQ7.s:102    .text:000000000000004c .L0 
     /tmp/ccMGsBQ7.s:104    .text:000000000000004c .L0 
   src/syscall_c.cpp:23     .text:000000000000004c .L0 
     /tmp/ccMGsBQ7.s:114    .text:0000000000000050 .L0 
     /tmp/ccMGsBQ7.s:115    .text:0000000000000050 .L0 
     /tmp/ccMGsBQ7.s:116    .text:0000000000000050 .L0 
     /tmp/ccMGsBQ7.s:128    .text:0000000000000058 .L0 
     /tmp/ccMGsBQ7.s:129    .text:0000000000000058 .L0 
   src/syscall_c.cpp:6      .text:0000000000000058 .L0 
     /tmp/ccMGsBQ7.s:138    .text:000000000000005c .L0 
     /tmp/ccMGsBQ7.s:139    .text:000000000000005c .L0 
   src/syscall_c.cpp:29     .text:000000000000005c .L0 
     /tmp/ccMGsBQ7.s:146    .text:0000000000000060 .L0 
     /tmp/ccMGsBQ7.s:148    .text:0000000000000060 .L0 
     /tmp/ccMGsBQ7.s:150    .text:0000000000000068 .L0 
     /tmp/ccMGsBQ7.s:151    .text:0000000000000068 .L0 
     /tmp/ccMGsBQ7.s:153    .text:000000000000006c .L0 
     /tmp/ccMGsBQ7.s:155    .text:0000000000000070 .L0 
     /tmp/ccMGsBQ7.s:161    .text:0000000000000070 _Z13thread_createPP3TCBPFvPvES2_
     /tmp/ccMGsBQ7.s:164    .text:0000000000000070 .L0 
     /tmp/ccMGsBQ7.s:166    .text:0000000000000070 .L0 
     /tmp/ccMGsBQ7.s:167    .text:0000000000000074 .L0 
GAS LISTING /tmp/ccMGsBQ7.s 			page 16


     /tmp/ccMGsBQ7.s:173    .text:0000000000000088 .L0 
     /tmp/ccMGsBQ7.s:174    .text:0000000000000088 .L0 
     /tmp/ccMGsBQ7.s:175    .text:0000000000000088 .L0 
     /tmp/ccMGsBQ7.s:176    .text:0000000000000088 .L0 
     /tmp/ccMGsBQ7.s:177    .text:0000000000000088 .L0 
     /tmp/ccMGsBQ7.s:179    .text:000000000000008c .L0 
     /tmp/ccMGsBQ7.s:184    .text:0000000000000098 .L0 
     /tmp/ccMGsBQ7.s:185    .text:0000000000000098 .L0 
     /tmp/ccMGsBQ7.s:187    .text:000000000000009c .L0 
     /tmp/ccMGsBQ7.s:193    .text:00000000000000a8 .L0 
   src/syscall_c.cpp:38     .text:00000000000000a8 .L0 
     /tmp/ccMGsBQ7.s:199    .text:00000000000000ac .L0 
   src/syscall_c.cpp:42     .text:00000000000000ac .L0 
     /tmp/ccMGsBQ7.s:204    .text:00000000000000b0 .L0 
   src/syscall_c.cpp:43     .text:00000000000000b0 .L0 
     /tmp/ccMGsBQ7.s:209    .text:00000000000000b4 .L0 
   src/syscall_c.cpp:44     .text:00000000000000b4 .L0 
     /tmp/ccMGsBQ7.s:214    .text:00000000000000b8 .L0 
   src/syscall_c.cpp:46     .text:00000000000000b8 .L0 
     /tmp/ccMGsBQ7.s:222    .text:00000000000000bc .L0 
     /tmp/ccMGsBQ7.s:223    .text:00000000000000bc .L0 
   src/syscall_c.cpp:6      .text:00000000000000bc .L0 
     /tmp/ccMGsBQ7.s:232    .text:00000000000000c0 .L0 
     /tmp/ccMGsBQ7.s:233    .text:00000000000000c0 .L0 
   src/syscall_c.cpp:52     .text:00000000000000c0 .L0 
     /tmp/ccMGsBQ7.s:240    .text:00000000000000c4 .L0 
     /tmp/ccMGsBQ7.s:242    .text:00000000000000c4 .L0 
     /tmp/ccMGsBQ7.s:244    .text:00000000000000cc .L0 
     /tmp/ccMGsBQ7.s:245    .text:00000000000000cc .L0 
     /tmp/ccMGsBQ7.s:247    .text:00000000000000d0 .L0 
     /tmp/ccMGsBQ7.s:248    .text:00000000000000d0 .L0 
     /tmp/ccMGsBQ7.s:250    .text:00000000000000d4 .L0 
     /tmp/ccMGsBQ7.s:253    .text:00000000000000d8 .L0 
     /tmp/ccMGsBQ7.s:256    .text:00000000000000dc .L0 
     /tmp/ccMGsBQ7.s:259    .text:00000000000000e0 .L0 
     /tmp/ccMGsBQ7.s:263    .text:00000000000000e4 .L0 
     /tmp/ccMGsBQ7.s:265    .text:00000000000000e4 .L0 
     /tmp/ccMGsBQ7.s:268    .text:00000000000000ec .L0 
     /tmp/ccMGsBQ7.s:274    .text:00000000000000ec _Z11thread_exitv
     /tmp/ccMGsBQ7.s:277    .text:00000000000000ec .L0 
     /tmp/ccMGsBQ7.s:278    .text:00000000000000ec .L0 
     /tmp/ccMGsBQ7.s:279    .text:00000000000000f0 .L0 
     /tmp/ccMGsBQ7.s:281    .text:00000000000000f4 .L0 
     /tmp/ccMGsBQ7.s:283    .text:00000000000000f8 .L0 
     /tmp/ccMGsBQ7.s:285    .text:00000000000000f8 .L0 
     /tmp/ccMGsBQ7.s:286    .text:00000000000000f8 .L0 
     /tmp/ccMGsBQ7.s:288    .text:0000000000000100 .L0 
     /tmp/ccMGsBQ7.s:289    .text:0000000000000100 .L0 
     /tmp/ccMGsBQ7.s:291    .text:0000000000000104 .L0 
     /tmp/ccMGsBQ7.s:293    .text:0000000000000108 .L0 
     /tmp/ccMGsBQ7.s:299    .text:0000000000000108 _Z15thread_dispatchv
     /tmp/ccMGsBQ7.s:302    .text:0000000000000108 .L0 
     /tmp/ccMGsBQ7.s:303    .text:0000000000000108 .L0 
     /tmp/ccMGsBQ7.s:304    .text:000000000000010c .L0 
     /tmp/ccMGsBQ7.s:306    .text:0000000000000110 .L0 
     /tmp/ccMGsBQ7.s:308    .text:0000000000000114 .L0 
     /tmp/ccMGsBQ7.s:310    .text:0000000000000114 .L0 
GAS LISTING /tmp/ccMGsBQ7.s 			page 17


     /tmp/ccMGsBQ7.s:311    .text:0000000000000118 .L0 
     /tmp/ccMGsBQ7.s:312    .text:0000000000000118 .L0 
     /tmp/ccMGsBQ7.s:314    .text:000000000000011c .L0 
     /tmp/ccMGsBQ7.s:316    .text:0000000000000120 .L0 
     /tmp/ccMGsBQ7.s:322    .text:0000000000000120 _Z11thread_joinP3TCB
     /tmp/ccMGsBQ7.s:325    .text:0000000000000120 .L0 
     /tmp/ccMGsBQ7.s:327    .text:0000000000000120 .L0 
     /tmp/ccMGsBQ7.s:328    .text:0000000000000124 .L0 
     /tmp/ccMGsBQ7.s:330    .text:0000000000000128 .L0 
     /tmp/ccMGsBQ7.s:332    .text:000000000000012c .L0 
     /tmp/ccMGsBQ7.s:334    .text:000000000000012c .L0 
     /tmp/ccMGsBQ7.s:335    .text:0000000000000130 .L0 
     /tmp/ccMGsBQ7.s:336    .text:0000000000000130 .L0 
     /tmp/ccMGsBQ7.s:338    .text:0000000000000134 .L0 
     /tmp/ccMGsBQ7.s:340    .text:0000000000000138 .L0 
     /tmp/ccMGsBQ7.s:346    .text:0000000000000138 _Z10time_sleepm
     /tmp/ccMGsBQ7.s:349    .text:0000000000000138 .L0 
     /tmp/ccMGsBQ7.s:350    .text:0000000000000138 .L0 
     /tmp/ccMGsBQ7.s:351    .text:000000000000013c .L0 
     /tmp/ccMGsBQ7.s:353    .text:0000000000000140 .L0 
     /tmp/ccMGsBQ7.s:355    .text:0000000000000144 .L0 
     /tmp/ccMGsBQ7.s:357    .text:0000000000000144 .L0 
     /tmp/ccMGsBQ7.s:358    .text:0000000000000144 .L0 
     /tmp/ccMGsBQ7.s:360    .text:000000000000014c .L0 
     /tmp/ccMGsBQ7.s:361    .text:000000000000014c .L0 
     /tmp/ccMGsBQ7.s:363    .text:0000000000000150 .L0 
     /tmp/ccMGsBQ7.s:365    .text:0000000000000154 .L0 
     /tmp/ccMGsBQ7.s:371    .text:0000000000000154 _Z8sem_openPP4_semj
     /tmp/ccMGsBQ7.s:374    .text:0000000000000154 .L0 
     /tmp/ccMGsBQ7.s:376    .text:0000000000000154 .L0 
     /tmp/ccMGsBQ7.s:377    .text:0000000000000158 .L0 
     /tmp/ccMGsBQ7.s:379    .text:000000000000015c .L0 
     /tmp/ccMGsBQ7.s:381    .text:0000000000000160 .L0 
     /tmp/ccMGsBQ7.s:383    .text:0000000000000160 .L0 
     /tmp/ccMGsBQ7.s:384    .text:0000000000000160 .L0 
     /tmp/ccMGsBQ7.s:387    .text:0000000000000168 .L0 
     /tmp/ccMGsBQ7.s:388    .text:0000000000000168 .L0 
     /tmp/ccMGsBQ7.s:390    .text:000000000000016c .L0 
     /tmp/ccMGsBQ7.s:392    .text:0000000000000170 .L0 
     /tmp/ccMGsBQ7.s:398    .text:0000000000000170 _Z9sem_closeP4_sem
     /tmp/ccMGsBQ7.s:401    .text:0000000000000170 .L0 
     /tmp/ccMGsBQ7.s:403    .text:0000000000000170 .L0 
     /tmp/ccMGsBQ7.s:404    .text:0000000000000174 .L0 
     /tmp/ccMGsBQ7.s:406    .text:0000000000000178 .L0 
     /tmp/ccMGsBQ7.s:408    .text:000000000000017c .L0 
     /tmp/ccMGsBQ7.s:410    .text:000000000000017c .L0 
     /tmp/ccMGsBQ7.s:411    .text:000000000000017c .L0 
     /tmp/ccMGsBQ7.s:414    .text:0000000000000184 .L0 
     /tmp/ccMGsBQ7.s:415    .text:0000000000000184 .L0 
     /tmp/ccMGsBQ7.s:417    .text:0000000000000188 .L0 
     /tmp/ccMGsBQ7.s:419    .text:000000000000018c .L0 
     /tmp/ccMGsBQ7.s:425    .text:000000000000018c _Z8sem_waitP4_sem
     /tmp/ccMGsBQ7.s:428    .text:000000000000018c .L0 
     /tmp/ccMGsBQ7.s:430    .text:000000000000018c .L0 
     /tmp/ccMGsBQ7.s:431    .text:0000000000000190 .L0 
     /tmp/ccMGsBQ7.s:433    .text:0000000000000194 .L0 
     /tmp/ccMGsBQ7.s:435    .text:0000000000000198 .L0 
GAS LISTING /tmp/ccMGsBQ7.s 			page 18


     /tmp/ccMGsBQ7.s:437    .text:0000000000000198 .L0 
     /tmp/ccMGsBQ7.s:438    .text:0000000000000198 .L0 
     /tmp/ccMGsBQ7.s:441    .text:00000000000001a0 .L0 
     /tmp/ccMGsBQ7.s:442    .text:00000000000001a0 .L0 
     /tmp/ccMGsBQ7.s:444    .text:00000000000001a4 .L0 
     /tmp/ccMGsBQ7.s:446    .text:00000000000001a8 .L0 
     /tmp/ccMGsBQ7.s:452    .text:00000000000001a8 _Z10sem_signalP4_sem
     /tmp/ccMGsBQ7.s:455    .text:00000000000001a8 .L0 
     /tmp/ccMGsBQ7.s:457    .text:00000000000001a8 .L0 
     /tmp/ccMGsBQ7.s:458    .text:00000000000001ac .L0 
     /tmp/ccMGsBQ7.s:460    .text:00000000000001b0 .L0 
     /tmp/ccMGsBQ7.s:462    .text:00000000000001b4 .L0 
     /tmp/ccMGsBQ7.s:464    .text:00000000000001b4 .L0 
     /tmp/ccMGsBQ7.s:465    .text:00000000000001b4 .L0 
     /tmp/ccMGsBQ7.s:468    .text:00000000000001bc .L0 
     /tmp/ccMGsBQ7.s:469    .text:00000000000001bc .L0 
     /tmp/ccMGsBQ7.s:471    .text:00000000000001c0 .L0 
     /tmp/ccMGsBQ7.s:473    .text:00000000000001c4 .L0 
     /tmp/ccMGsBQ7.s:479    .text:00000000000001c4 _Z4getcv
     /tmp/ccMGsBQ7.s:482    .text:00000000000001c4 .L0 
     /tmp/ccMGsBQ7.s:483    .text:00000000000001c4 .L0 
     /tmp/ccMGsBQ7.s:484    .text:00000000000001c8 .L0 
     /tmp/ccMGsBQ7.s:486    .text:00000000000001cc .L0 
     /tmp/ccMGsBQ7.s:488    .text:00000000000001d0 .L0 
     /tmp/ccMGsBQ7.s:490    .text:00000000000001d0 .L0 
     /tmp/ccMGsBQ7.s:491    .text:00000000000001d0 .L0 
     /tmp/ccMGsBQ7.s:493    .text:00000000000001d8 .L0 
     /tmp/ccMGsBQ7.s:494    .text:00000000000001d8 .L0 
     /tmp/ccMGsBQ7.s:496    .text:00000000000001dc .L0 
     /tmp/ccMGsBQ7.s:498    .text:00000000000001e0 .L0 
     /tmp/ccMGsBQ7.s:504    .text:00000000000001e0 _Z4putcc
     /tmp/ccMGsBQ7.s:507    .text:00000000000001e0 .L0 
     /tmp/ccMGsBQ7.s:508    .text:00000000000001e0 .L0 
     /tmp/ccMGsBQ7.s:509    .text:00000000000001e4 .L0 
     /tmp/ccMGsBQ7.s:511    .text:00000000000001e8 .L0 
     /tmp/ccMGsBQ7.s:513    .text:00000000000001ec .L0 
     /tmp/ccMGsBQ7.s:515    .text:00000000000001ec .L0 
     /tmp/ccMGsBQ7.s:516    .text:00000000000001f0 .L0 
     /tmp/ccMGsBQ7.s:517    .text:00000000000001f0 .L0 
     /tmp/ccMGsBQ7.s:519    .text:00000000000001f4 .L0 
     /tmp/ccMGsBQ7.s:521    .text:00000000000001f8 .L0 
     /tmp/ccMGsBQ7.s:528    .text:00000000000001f8 .L0 
     /tmp/ccMGsBQ7.s:30     .text:000000000000001c .L2
     /tmp/ccMGsBQ7.s:262    .text:00000000000000e4 .L8
     /tmp/ccMGsBQ7.s:191    .text:00000000000000a8 .L7
     /tmp/ccMGsBQ7.s:1375   .debug_abbrev:0000000000000000 .Ldebug_abbrev0
     /tmp/ccMGsBQ7.s:2523   .debug_str:0000000000000549 .LASF103
     /tmp/ccMGsBQ7.s:2431   .debug_str:000000000000028c .LASF104
     /tmp/ccMGsBQ7.s:2415   .debug_str:000000000000020a .LASF105
     /tmp/ccMGsBQ7.s:5      .text:0000000000000000 .Ltext0
     /tmp/ccMGsBQ7.s:524    .text:00000000000001f8 .Letext0
     /tmp/ccMGsBQ7.s:2333   .debug_line:0000000000000000 .Ldebug_line0
     /tmp/ccMGsBQ7.s:2457   .debug_str:000000000000035e .LASF0
     /tmp/ccMGsBQ7.s:2467   .debug_str:0000000000000385 .LASF1
     /tmp/ccMGsBQ7.s:2445   .debug_str:00000000000002f0 .LASF2
     /tmp/ccMGsBQ7.s:2425   .debug_str:000000000000026d .LASF4
     /tmp/ccMGsBQ7.s:2505   .debug_str:00000000000004b8 .LASF3
GAS LISTING /tmp/ccMGsBQ7.s 			page 19


     /tmp/ccMGsBQ7.s:2359   .debug_str:000000000000009c .LASF5
     /tmp/ccMGsBQ7.s:2387   .debug_str:0000000000000161 .LASF6
     /tmp/ccMGsBQ7.s:2471   .debug_str:00000000000003a9 .LASF7
     /tmp/ccMGsBQ7.s:2455   .debug_str:000000000000034b .LASF8
     /tmp/ccMGsBQ7.s:2533   .debug_str:000000000000063e .LASF9
     /tmp/ccMGsBQ7.s:2413   .debug_str:00000000000001fc .LASF10
     /tmp/ccMGsBQ7.s:2481   .debug_str:00000000000003e5 .LASF11
     /tmp/ccMGsBQ7.s:2525   .debug_str:000000000000060d .LASF12
     /tmp/ccMGsBQ7.s:2363   .debug_str:00000000000000b8 .LASF13
     /tmp/ccMGsBQ7.s:2343   .debug_str:0000000000000037 .LASF14
     /tmp/ccMGsBQ7.s:2369   .debug_str:00000000000000e4 .LASF15
     /tmp/ccMGsBQ7.s:2497   .debug_str:0000000000000476 .LASF16
     /tmp/ccMGsBQ7.s:2381   .debug_str:0000000000000129 .LASF17
     /tmp/ccMGsBQ7.s:2335   .debug_str:0000000000000000 .LASF18
     /tmp/ccMGsBQ7.s:2395   .debug_str:000000000000019f .LASF19
     /tmp/ccMGsBQ7.s:2423   .debug_str:0000000000000268 .LASF20
     /tmp/ccMGsBQ7.s:2463   .debug_str:0000000000000378 .LASF53
     /tmp/ccMGsBQ7.s:2355   .debug_str:0000000000000084 .LASF21
     /tmp/ccMGsBQ7.s:2347   .debug_str:0000000000000050 .LASF23
     /tmp/ccMGsBQ7.s:2513   .debug_str:0000000000000504 .LASF22
     /tmp/ccMGsBQ7.s:2341   .debug_str:000000000000001d .LASF24
     /tmp/ccMGsBQ7.s:2345   .debug_str:0000000000000047 .LASF25
     /tmp/ccMGsBQ7.s:2511   .debug_str:00000000000004ef .LASF27
     /tmp/ccMGsBQ7.s:2393   .debug_str:0000000000000196 .LASF29
     /tmp/ccMGsBQ7.s:2391   .debug_str:0000000000000181 .LASF31
     /tmp/ccMGsBQ7.s:2507   .debug_str:00000000000004ca .LASF26
     /tmp/ccMGsBQ7.s:2485   .debug_str:0000000000000409 .LASF28
     /tmp/ccMGsBQ7.s:2493   .debug_str:0000000000000450 .LASF30
     /tmp/ccMGsBQ7.s:2517   .debug_str:0000000000000518 .LASF32
     /tmp/ccMGsBQ7.s:2407   .debug_str:00000000000001d9 .LASF33
     /tmp/ccMGsBQ7.s:2383   .debug_str:000000000000013f .LASF34
     /tmp/ccMGsBQ7.s:2339   .debug_str:0000000000000015 .LASF35
     /tmp/ccMGsBQ7.s:2419   .debug_str:000000000000023e .LASF36
     /tmp/ccMGsBQ7.s:2459   .debug_str:000000000000036b .LASF37
     /tmp/ccMGsBQ7.s:2539   .debug_str:000000000000065d .LASF38
     /tmp/ccMGsBQ7.s:2353   .debug_str:000000000000007d .LASF39
     /tmp/ccMGsBQ7.s:2405   .debug_str:00000000000001c6 .LASF40
     /tmp/ccMGsBQ7.s:2411   .debug_str:00000000000001f6 .LASF41
     /tmp/ccMGsBQ7.s:2519   .debug_str:000000000000052b .LASF42
     /tmp/ccMGsBQ7.s:2351   .debug_str:0000000000000077 .LASF43
     /tmp/ccMGsBQ7.s:2555   .debug_str:00000000000006c9 .LASF44
     /tmp/ccMGsBQ7.s:2549   .debug_str:00000000000006a1 .LASF45
     /tmp/ccMGsBQ7.s:2501   .debug_str:0000000000000497 .LASF46
     /tmp/ccMGsBQ7.s:2433   .debug_str:000000000000029e .LASF47
     /tmp/ccMGsBQ7.s:2439   .debug_str:00000000000002c3 .LASF48
     /tmp/ccMGsBQ7.s:2367   .debug_str:00000000000000da .LASF49
     /tmp/ccMGsBQ7.s:2421   .debug_str:0000000000000252 .LASF50
     /tmp/ccMGsBQ7.s:2447   .debug_str:00000000000002fe .LASF51
     /tmp/ccMGsBQ7.s:2417   .debug_str:0000000000000228 .LASF52
     /tmp/ccMGsBQ7.s:2371   .debug_str:00000000000000f0 .LASF68
     /tmp/ccMGsBQ7.s:2553   .debug_str:00000000000006b1 .LASF70
     /tmp/ccMGsBQ7.s:2441   .debug_str:00000000000002db .LASF54
     /tmp/ccMGsBQ7.s:2529   .debug_str:0000000000000624 .LASF58
     /tmp/ccMGsBQ7.s:2551   .debug_str:00000000000006ac .LASF55
     /tmp/ccMGsBQ7.s:2537   .debug_str:0000000000000658 .LASF56
     /tmp/ccMGsBQ7.s:2491   .debug_str:000000000000044b .LASF57
     /tmp/ccMGsBQ7.s:2427   .debug_str:0000000000000274 .LASF59
GAS LISTING /tmp/ccMGsBQ7.s 			page 20


     /tmp/ccMGsBQ7.s:2527   .debug_str:000000000000061c .LASF60
     /tmp/ccMGsBQ7.s:2495   .debug_str:0000000000000457 .LASF62
     /tmp/ccMGsBQ7.s:2375   .debug_str:0000000000000101 .LASF61
     /tmp/ccMGsBQ7.s:2509   .debug_str:00000000000004d1 .LASF63
     /tmp/ccMGsBQ7.s:2389   .debug_str:0000000000000168 .LASF64
     /tmp/ccMGsBQ7.s:2337   .debug_str:0000000000000009 .LASF65
     /tmp/ccMGsBQ7.s:2543   .debug_str:000000000000067e .LASF66
     /tmp/ccMGsBQ7.s:2479   .debug_str:00000000000003d9 .LASF67
     /tmp/ccMGsBQ7.s:2397   .debug_str:00000000000001a5 .LASF69
     /tmp/ccMGsBQ7.s:2449   .debug_str:0000000000000308 .LASF71
     /tmp/ccMGsBQ7.s:2401   .debug_str:00000000000001b8 .LASF72
     /tmp/ccMGsBQ7.s:2451   .debug_str:000000000000033d .LASF86
     /tmp/ccMGsBQ7.s:2403   .debug_str:00000000000001bd .LASF88
     /tmp/ccMGsBQ7.s:505    .text:00000000000001e0 .LFB31
     /tmp/ccMGsBQ7.s:522    .text:00000000000001f8 .LFE31
     /tmp/ccMGsBQ7.s:2473   .debug_str:00000000000003bc .LASF73
     /tmp/ccMGsBQ7.s:2443   .debug_str:00000000000002eb .LASF90
     /tmp/ccMGsBQ7.s:2503   .debug_str:00000000000004af .LASF92
     /tmp/ccMGsBQ7.s:480    .text:00000000000001c4 .LFB30
     /tmp/ccMGsBQ7.s:499    .text:00000000000001e0 .LFE30
     /tmp/ccMGsBQ7.s:2531   .debug_str:0000000000000633 .LASF74
     /tmp/ccMGsBQ7.s:2409   .debug_str:00000000000001e1 .LASF76
     /tmp/ccMGsBQ7.s:453    .text:00000000000001a8 .LFB29
     /tmp/ccMGsBQ7.s:474    .text:00000000000001c4 .LFE29
     /tmp/ccMGsBQ7.s:2132   .debug_loc:0000000000000000 .LLST12
     /tmp/ccMGsBQ7.s:2453   .debug_str:0000000000000342 .LASF75
     /tmp/ccMGsBQ7.s:2365   .debug_str:00000000000000c8 .LASF77
     /tmp/ccMGsBQ7.s:426    .text:000000000000018c .LFB28
     /tmp/ccMGsBQ7.s:447    .text:00000000000001a8 .LFE28
     /tmp/ccMGsBQ7.s:2146   .debug_loc:0000000000000039 .LLST11
     /tmp/ccMGsBQ7.s:2435   .debug_str:00000000000002a9 .LASF78
     /tmp/ccMGsBQ7.s:2477   .debug_str:00000000000003c6 .LASF79
     /tmp/ccMGsBQ7.s:399    .text:0000000000000170 .LFB27
     /tmp/ccMGsBQ7.s:420    .text:000000000000018c .LFE27
     /tmp/ccMGsBQ7.s:2515   .debug_str:0000000000000511 .LASF80
     /tmp/ccMGsBQ7.s:2160   .debug_loc:0000000000000072 .LLST10
     /tmp/ccMGsBQ7.s:2399   .debug_str:00000000000001af .LASF81
     /tmp/ccMGsBQ7.s:2379   .debug_str:0000000000000115 .LASF82
     /tmp/ccMGsBQ7.s:372    .text:0000000000000154 .LFB26
     /tmp/ccMGsBQ7.s:393    .text:0000000000000170 .LFE26
     /tmp/ccMGsBQ7.s:2174   .debug_loc:00000000000000ab .LLST9
     /tmp/ccMGsBQ7.s:2475   .debug_str:00000000000003c1 .LASF83
     /tmp/ccMGsBQ7.s:2499   .debug_str:000000000000048c .LASF84
     /tmp/ccMGsBQ7.s:2547   .debug_str:0000000000000691 .LASF85
     /tmp/ccMGsBQ7.s:347    .text:0000000000000138 .LFB25
     /tmp/ccMGsBQ7.s:366    .text:0000000000000154 .LFE25
     /tmp/ccMGsBQ7.s:2521   .debug_str:000000000000053d .LASF87
     /tmp/ccMGsBQ7.s:2361   .debug_str:00000000000000a3 .LASF89
     /tmp/ccMGsBQ7.s:323    .text:0000000000000120 .LFB24
     /tmp/ccMGsBQ7.s:341    .text:0000000000000138 .LFE24
     /tmp/ccMGsBQ7.s:2437   .debug_str:00000000000002b3 .LASF106
     /tmp/ccMGsBQ7.s:2483   .debug_str:00000000000003f4 .LASF107
     /tmp/ccMGsBQ7.s:300    .text:0000000000000108 .LFB23
     /tmp/ccMGsBQ7.s:317    .text:0000000000000120 .LFE23
     /tmp/ccMGsBQ7.s:2349   .debug_str:000000000000006b .LASF91
     /tmp/ccMGsBQ7.s:2469   .debug_str:0000000000000398 .LASF93
     /tmp/ccMGsBQ7.s:275    .text:00000000000000ec .LFB22
GAS LISTING /tmp/ccMGsBQ7.s 			page 21


     /tmp/ccMGsBQ7.s:294    .text:0000000000000108 .LFE22
     /tmp/ccMGsBQ7.s:2385   .debug_str:0000000000000153 .LASF94
     /tmp/ccMGsBQ7.s:2489   .debug_str:000000000000042a .LASF95
     /tmp/ccMGsBQ7.s:162    .text:0000000000000070 .LFB21
     /tmp/ccMGsBQ7.s:269    .text:00000000000000ec .LFE21
     /tmp/ccMGsBQ7.s:2188   .debug_loc:00000000000000e4 .LLST4
     /tmp/ccMGsBQ7.s:2487   .debug_str:000000000000041c .LASF96
     /tmp/ccMGsBQ7.s:2214   .debug_loc:0000000000000156 .LLST5
     /tmp/ccMGsBQ7.s:2236   .debug_loc:00000000000001b5 .LLST6
     /tmp/ccMGsBQ7.s:2373   .debug_str:00000000000000fb .LASF97
     /tmp/ccMGsBQ7.s:2258   .debug_loc:0000000000000214 .LLST7
     /tmp/ccMGsBQ7.s:2465   .debug_str:000000000000037e .LASF98
     /tmp/ccMGsBQ7.s:2265   .debug_loc:0000000000000237 .LLST8
     /tmp/ccMGsBQ7.s:220    .text:00000000000000bc .LBB20
     /tmp/ccMGsBQ7.s:230    .text:00000000000000c0 .LBE20
     /tmp/ccMGsBQ7.s:190    .text:00000000000000a8 .LVL12
     /tmp/ccMGsBQ7.s:2429   .debug_str:0000000000000283 .LASF99
     /tmp/ccMGsBQ7.s:2541   .debug_str:0000000000000670 .LASF100
     /tmp/ccMGsBQ7.s:93     .text:0000000000000040 .LFB20
     /tmp/ccMGsBQ7.s:156    .text:0000000000000070 .LFE20
     /tmp/ccMGsBQ7.s:2272   .debug_loc:000000000000025a .LLST2
     /tmp/ccMGsBQ7.s:112    .text:0000000000000050 .LBB16
     /tmp/ccMGsBQ7.s:124    .text:0000000000000058 .LBE16
     /tmp/ccMGsBQ7.s:2286   .debug_loc:0000000000000293 .LLST3
     /tmp/ccMGsBQ7.s:126    .text:0000000000000058 .LBB18
     /tmp/ccMGsBQ7.s:136    .text:000000000000005c .LBE18
     /tmp/ccMGsBQ7.s:2535   .debug_str:000000000000064e .LASF101
     /tmp/ccMGsBQ7.s:2377   .debug_str:0000000000000107 .LASF102
     /tmp/ccMGsBQ7.s:10     .text:0000000000000000 .LFB19
     /tmp/ccMGsBQ7.s:87     .text:0000000000000040 .LFE19
     /tmp/ccMGsBQ7.s:2294   .debug_loc:00000000000002b7 .LLST0
     /tmp/ccMGsBQ7.s:43     .text:0000000000000024 .LBB12
     /tmp/ccMGsBQ7.s:56     .text:000000000000002c .LBE12
     /tmp/ccMGsBQ7.s:2312   .debug_loc:0000000000000303 .LLST1
     /tmp/ccMGsBQ7.s:58     .text:000000000000002c .LBB14
     /tmp/ccMGsBQ7.s:68     .text:0000000000000030 .LBE14
     /tmp/ccMGsBQ7.s:2461   .debug_str:0000000000000372 .LASF108
     /tmp/ccMGsBQ7.s:2357   .debug_str:0000000000000092 .LASF109
     /tmp/ccMGsBQ7.s:2545   .debug_str:000000000000068a .LASF110
     /tmp/ccMGsBQ7.s:456    .text:00000000000001a8 .LVL26
     /tmp/ccMGsBQ7.s:466    .text:00000000000001b8 .LVL27
     /tmp/ccMGsBQ7.s:429    .text:000000000000018c .LVL24
     /tmp/ccMGsBQ7.s:439    .text:000000000000019c .LVL25
     /tmp/ccMGsBQ7.s:402    .text:0000000000000170 .LVL22
     /tmp/ccMGsBQ7.s:412    .text:0000000000000180 .LVL23
     /tmp/ccMGsBQ7.s:375    .text:0000000000000154 .LVL20
     /tmp/ccMGsBQ7.s:385    .text:0000000000000164 .LVL21
     /tmp/ccMGsBQ7.s:165    .text:0000000000000070 .LVL10
     /tmp/ccMGsBQ7.s:188    .text:00000000000000a0 .LVL11
     /tmp/ccMGsBQ7.s:254    .text:00000000000000d8 .LVL15
     /tmp/ccMGsBQ7.s:261    .text:00000000000000e4 .LVL17
     /tmp/ccMGsBQ7.s:266    .text:00000000000000e8 .LVL18
     /tmp/ccMGsBQ7.s:251    .text:00000000000000d4 .LVL14
     /tmp/ccMGsBQ7.s:257    .text:00000000000000dc .LVL16
     /tmp/ccMGsBQ7.s:238    .text:00000000000000c4 .LVL13
     /tmp/ccMGsBQ7.s:96     .text:0000000000000040 .LVL6
     /tmp/ccMGsBQ7.s:144    .text:0000000000000060 .LVL9
GAS LISTING /tmp/ccMGsBQ7.s 			page 22


     /tmp/ccMGsBQ7.s:110    .text:0000000000000050 .LVL7
     /tmp/ccMGsBQ7.s:121    .text:0000000000000058 .LVL8
     /tmp/ccMGsBQ7.s:14     .text:0000000000000000 .LVL0
     /tmp/ccMGsBQ7.s:26     .text:0000000000000014 .LVL1
     /tmp/ccMGsBQ7.s:33     .text:0000000000000020 .LVL2
     /tmp/ccMGsBQ7.s:76     .text:0000000000000034 .LVL5
     /tmp/ccMGsBQ7.s:41     .text:0000000000000024 .LVL3
     /tmp/ccMGsBQ7.s:53     .text:000000000000002c .LVL4
     /tmp/ccMGsBQ7.s:529    .debug_info:0000000000000000 .Ldebug_info0

UNDEFINED SYMBOLS
_ZN15MemoryAllocator7kmallocEm
