GAS LISTING /tmp/ccv2MdVO.s 			page 1


   1              		.file	"syscall_cpp.cpp"
   2              		.option pic
   3              		.option norelax
   4              		.text
   5              	.Ltext0:
   6              		.section	.text._ZN6Thread3runEv,"axG",@progbits,_ZN6Thread3runEv,comdat
   7              		.align	2
   8              		.weak	_ZN6Thread3runEv
  10              	_ZN6Thread3runEv:
  11              	.LFB0:
  12              		.file 1 "src/../h/syscall_cpp.hpp"
   1:src/../h/syscall_cpp.hpp **** #ifndef _syscall_cpp
   2:src/../h/syscall_cpp.hpp **** #define _syscall_cpp
   3:src/../h/syscall_cpp.hpp **** 
   4:src/../h/syscall_cpp.hpp **** #include "../lib/hw.h"
   5:src/../h/syscall_cpp.hpp **** 
   6:src/../h/syscall_cpp.hpp **** void* operator new(size_t);
   7:src/../h/syscall_cpp.hpp **** 
   8:src/../h/syscall_cpp.hpp **** void* operator new[](size_t);
   9:src/../h/syscall_cpp.hpp **** 
  10:src/../h/syscall_cpp.hpp **** void operator delete(void*)
  11:src/../h/syscall_cpp.hpp **** 
  12:src/../h/syscall_cpp.hpp **** noexcept;
  13:src/../h/syscall_cpp.hpp **** 
  14:src/../h/syscall_cpp.hpp **** void operator delete[](void*)
  15:src/../h/syscall_cpp.hpp **** 
  16:src/../h/syscall_cpp.hpp **** noexcept;
  17:src/../h/syscall_cpp.hpp **** 
  18:src/../h/syscall_cpp.hpp **** class TCB;
  19:src/../h/syscall_cpp.hpp **** 
  20:src/../h/syscall_cpp.hpp **** typedef TCB* thread_t;
  21:src/../h/syscall_cpp.hpp **** 
  22:src/../h/syscall_cpp.hpp **** class KSem;
  23:src/../h/syscall_cpp.hpp **** 
  24:src/../h/syscall_cpp.hpp **** typedef KSem* sem_t;
  25:src/../h/syscall_cpp.hpp **** 
  26:src/../h/syscall_cpp.hpp **** class Thread {
  27:src/../h/syscall_cpp.hpp **** public:
  28:src/../h/syscall_cpp.hpp ****     //konstruktor koji pravi nit koja izvrsava zadatu funkciju sa zadatim argumentima, ne pokrece n
  29:src/../h/syscall_cpp.hpp ****     Thread(void (* body)(void*), void* arg);
  30:src/../h/syscall_cpp.hpp **** 
  31:src/../h/syscall_cpp.hpp ****     virtual ~Thread();
  32:src/../h/syscall_cpp.hpp **** 
  33:src/../h/syscall_cpp.hpp ****     //stavlja nit u Scheduler
  34:src/../h/syscall_cpp.hpp ****     int start();
  35:src/../h/syscall_cpp.hpp **** 
  36:src/../h/syscall_cpp.hpp ****     //pozivajuca (running) nit se suspenduje dok se nit ciji se metod poziva(this) ne zavrsi
  37:src/../h/syscall_cpp.hpp ****     void join();
  38:src/../h/syscall_cpp.hpp **** 
  39:src/../h/syscall_cpp.hpp ****     //sinhrona promena konteksta
  40:src/../h/syscall_cpp.hpp ****     static void dispatch();
  41:src/../h/syscall_cpp.hpp **** 
  42:src/../h/syscall_cpp.hpp ****     //uspavljuje tekucu nit na zadati period
  43:src/../h/syscall_cpp.hpp ****     static int sleep(time_t);
  44:src/../h/syscall_cpp.hpp **** 
  45:src/../h/syscall_cpp.hpp **** protected:
  46:src/../h/syscall_cpp.hpp ****     //konstruktor koji pravi nit koja izvrsava run metodu, ne stavlja je u Scheduler
GAS LISTING /tmp/ccv2MdVO.s 			page 2


  47:src/../h/syscall_cpp.hpp ****     Thread();
  48:src/../h/syscall_cpp.hpp **** 
  49:src/../h/syscall_cpp.hpp ****     //funkcija koju nit izvrsava, samo ako je nit napravljena podrazumevanim konstruktorom
  50:src/../h/syscall_cpp.hpp ****     virtual void run() {}
  13              		.loc 1 50 18
  14              		.cfi_startproc
  15              	.LVL0:
  16 0000 130101FF 		addi	sp,sp,-16
  17              		.cfi_def_cfa_offset 16
  18 0004 23348100 		sd	s0,8(sp)
  19              		.cfi_offset 8, -8
  20 0008 13040101 		addi	s0,sp,16
  21              		.cfi_def_cfa 8, 0
  22              		.loc 1 50 25 is_stmt 0
  23 000c 03348100 		ld	s0,8(sp)
  24              		.cfi_restore 8
  25              		.cfi_def_cfa 2, 16
  26 0010 13010101 		addi	sp,sp,16
  27              		.cfi_def_cfa_offset 0
  28 0014 67800000 		jr	ra
  29              		.cfi_endproc
  30              	.LFE0:
  32              		.section	.text._ZN14PeriodicThread18periodicActivationEv,"axG",@progbits,_ZN14PeriodicThread18peri
  33              		.align	2
  34              		.weak	_ZN14PeriodicThread18periodicActivationEv
  36              	_ZN14PeriodicThread18periodicActivationEv:
  37              	.LFB1:
  51:src/../h/syscall_cpp.hpp **** 
  52:src/../h/syscall_cpp.hpp **** private:
  53:src/../h/syscall_cpp.hpp ****     //pokazivac na TCB strukturu kernela
  54:src/../h/syscall_cpp.hpp ****     thread_t myHandle;
  55:src/../h/syscall_cpp.hpp **** 
  56:src/../h/syscall_cpp.hpp ****     void (* body)(void*);
  57:src/../h/syscall_cpp.hpp **** 
  58:src/../h/syscall_cpp.hpp ****     void* arg;
  59:src/../h/syscall_cpp.hpp **** 
  60:src/../h/syscall_cpp.hpp ****     static void wrapper(void* thread);
  61:src/../h/syscall_cpp.hpp **** };
  62:src/../h/syscall_cpp.hpp **** 
  63:src/../h/syscall_cpp.hpp **** 
  64:src/../h/syscall_cpp.hpp **** class Semaphore {
  65:src/../h/syscall_cpp.hpp **** public:
  66:src/../h/syscall_cpp.hpp **** 
  67:src/../h/syscall_cpp.hpp ****     Semaphore(unsigned init = 1);
  68:src/../h/syscall_cpp.hpp **** 
  69:src/../h/syscall_cpp.hpp ****     virtual ~Semaphore();
  70:src/../h/syscall_cpp.hpp **** 
  71:src/../h/syscall_cpp.hpp ****     int wait();
  72:src/../h/syscall_cpp.hpp **** 
  73:src/../h/syscall_cpp.hpp ****     int signal();
  74:src/../h/syscall_cpp.hpp **** 
  75:src/../h/syscall_cpp.hpp **** private:
  76:src/../h/syscall_cpp.hpp ****     sem_t myHandle;
  77:src/../h/syscall_cpp.hpp **** };
  78:src/../h/syscall_cpp.hpp **** 
  79:src/../h/syscall_cpp.hpp **** 
  80:src/../h/syscall_cpp.hpp **** class PeriodicThread : public Thread {
GAS LISTING /tmp/ccv2MdVO.s 			page 3


  81:src/../h/syscall_cpp.hpp **** public:
  82:src/../h/syscall_cpp.hpp ****     void terminate();
  83:src/../h/syscall_cpp.hpp **** 
  84:src/../h/syscall_cpp.hpp **** protected:
  85:src/../h/syscall_cpp.hpp ****     PeriodicThread(time_t period);
  86:src/../h/syscall_cpp.hpp **** 
  87:src/../h/syscall_cpp.hpp ****     virtual void periodicActivation() {}
  38              		.loc 1 87 18 is_stmt 1
  39              		.cfi_startproc
  40              	.LVL1:
  41 0000 130101FF 		addi	sp,sp,-16
  42              		.cfi_def_cfa_offset 16
  43 0004 23348100 		sd	s0,8(sp)
  44              		.cfi_offset 8, -8
  45 0008 13040101 		addi	s0,sp,16
  46              		.cfi_def_cfa 8, 0
  47              		.loc 1 87 40 is_stmt 0
  48 000c 03348100 		ld	s0,8(sp)
  49              		.cfi_restore 8
  50              		.cfi_def_cfa 2, 16
  51 0010 13010101 		addi	sp,sp,16
  52              		.cfi_def_cfa_offset 0
  53 0014 67800000 		jr	ra
  54              		.cfi_endproc
  55              	.LFE1:
  57              		.text
  58              		.align	2
  59              		.globl	_ZN6ThreadD2Ev
  61              	_ZN6ThreadD2Ev:
  62              	.LFB51:
  63              		.file 2 "src/syscall_cpp.cpp"
   1:src/syscall_cpp.cpp **** //
   2:src/syscall_cpp.cpp **** // Created by os on 5/29/23.
   3:src/syscall_cpp.cpp **** //
   4:src/syscall_cpp.cpp **** #include "../h/syscall_cpp.hpp"
   5:src/syscall_cpp.cpp **** #include "../h/syscall_c.hpp"
   6:src/syscall_cpp.cpp **** #include "../h/TCB.hpp"
   7:src/syscall_cpp.cpp **** #include "../h/KSem.hpp"
   8:src/syscall_cpp.cpp **** #include "../h/Scheduler.hpp"
   9:src/syscall_cpp.cpp **** 
  10:src/syscall_cpp.cpp **** int main();
  11:src/syscall_cpp.cpp **** 
  12:src/syscall_cpp.cpp **** //override globalnog new
  13:src/syscall_cpp.cpp **** void* operator new(size_t size) {
  14:src/syscall_cpp.cpp ****     return mem_alloc(size);
  15:src/syscall_cpp.cpp **** }
  16:src/syscall_cpp.cpp **** 
  17:src/syscall_cpp.cpp **** void* operator new[](size_t size) {
  18:src/syscall_cpp.cpp ****     return mem_alloc(size);
  19:src/syscall_cpp.cpp **** }
  20:src/syscall_cpp.cpp **** 
  21:src/syscall_cpp.cpp **** void operator delete(void* ptr)
  22:src/syscall_cpp.cpp **** 
  23:src/syscall_cpp.cpp **** noexcept {
  24:src/syscall_cpp.cpp **** mem_free(ptr);
  25:src/syscall_cpp.cpp **** }
  26:src/syscall_cpp.cpp **** 
GAS LISTING /tmp/ccv2MdVO.s 			page 4


  27:src/syscall_cpp.cpp **** void operator delete[](void* ptr)
  28:src/syscall_cpp.cpp **** 
  29:src/syscall_cpp.cpp **** noexcept {
  30:src/syscall_cpp.cpp **** mem_free(ptr);
  31:src/syscall_cpp.cpp **** }
  32:src/syscall_cpp.cpp **** 
  33:src/syscall_cpp.cpp **** Thread::Thread(void (* body)(void*), void* arg) {
  34:src/syscall_cpp.cpp ****     this->body = body;
  35:src/syscall_cpp.cpp ****     this->arg = arg;
  36:src/syscall_cpp.cpp ****     //stvaranje steka ako se ne radi o main kernel niti, posto ona automatski ima stek
  37:src/syscall_cpp.cpp ****     uint64* stack = nullptr;
  38:src/syscall_cpp.cpp ****     if (body != (TCB::Body)main) {
  39:src/syscall_cpp.cpp ****         stack = (uint64*)mem_alloc(DEFAULT_STACK_SIZE);
  40:src/syscall_cpp.cpp ****     }
  41:src/syscall_cpp.cpp ****     //stavljanje argumenata za sistemski poziv
  42:src/syscall_cpp.cpp ****     __asm__ volatile("mv a4, %[sp]": :[sp] "r"(stack):"a5", "a0", "a1", "a2", "a3", "a4", "a6", "a7
  43:src/syscall_cpp.cpp ****     __asm__ volatile("mv a3, %[arg]": :[arg] "r"(arg):"a5", "a0", "a1", "a2", "a3", "a4", "a6", "a7
  44:src/syscall_cpp.cpp ****     __asm__ volatile("mv a2, %[function]": :[function] "r"(
  45:src/syscall_cpp.cpp ****             body):"a5", "a0", "a1", "a2", "a3", "a4", "a6", "a7");
  46:src/syscall_cpp.cpp ****     __asm__ volatile("mv a1, %[handle]": :[handle] "r"(&myHandle):"a5", "a0", "a1", "a2", "a3", "a4
  47:src/syscall_cpp.cpp ****     __asm__ volatile("li a0, 0x80");
  48:src/syscall_cpp.cpp ****     //a0 = 0x80
  49:src/syscall_cpp.cpp ****     //a1 = adresa pokazivaca na rucku niti
  50:src/syscall_cpp.cpp ****     //a2 = prva adresa funkcije koju nit izvrsava
  51:src/syscall_cpp.cpp ****     //a3 = pokazivac na argumente funkcije
  52:src/syscall_cpp.cpp ****     //a4 = pokazivac na najnizu adresu steka (stek raste ka nizim adresama, pokazuje na poslednju z
  53:src/syscall_cpp.cpp **** 
  54:src/syscall_cpp.cpp ****     __asm__ volatile("ecall");
  55:src/syscall_cpp.cpp **** }
  56:src/syscall_cpp.cpp **** 
  57:src/syscall_cpp.cpp **** Thread::~Thread() {
  64              		.loc 2 57 1 is_stmt 1
  65              		.cfi_startproc
  66              	.LVL2:
  67 0000 130101FF 		addi	sp,sp,-16
  68              		.cfi_def_cfa_offset 16
  69 0004 23348100 		sd	s0,8(sp)
  70              		.cfi_offset 8, -8
  71 0008 13040101 		addi	s0,sp,16
  72              		.cfi_def_cfa 8, 0
  73              	.LBB35:
  74              		.loc 2 57 17 is_stmt 0
  75 000c 97070000 		lla	a5,_ZTV6Thread+16
  75      93870700 
  76 0014 2330F500 		sd	a5,0(a0)
  58:src/syscall_cpp.cpp ****     //ne treba da se gasi running nit, vec nit na koju pokazuje rucka od this
  59:src/syscall_cpp.cpp **** //    thread_join(this->myHandle);
  60:src/syscall_cpp.cpp **** //    delete myHandle;
  61:src/syscall_cpp.cpp **** 
  62:src/syscall_cpp.cpp ****     __asm__ volatile("mv a1, %[handle]": :[handle] "r"(myHandle):"a5", "a0", "a1", "a2", "a3", "a4"
  77              		.loc 2 62 5 is_stmt 1
  78              		.loc 2 62 56 is_stmt 0
  79 0018 03338500 		ld	t1,8(a0)
  80              		.loc 2 62 113
  81              	#APP
  82              	# 62 "src/syscall_cpp.cpp" 1
  63              	    __asm__ volatile("li a0, 0x15");
GAS LISTING /tmp/ccv2MdVO.s 			page 5


  83              		mv a1, t1
  84              	# 0 "" 2
  85              	.LVL3:
  86              		.loc 2 63 5 is_stmt 1
  87              		.loc 2 63 36 is_stmt 0
  88              	# 63 "src/syscall_cpp.cpp" 1
  64              	
  65:src/syscall_cpp.cpp ****     __asm__ volatile("ecall");
  89              		li a0, 0x15
  90              	# 0 "" 2
  91              		.loc 2 65 5 is_stmt 1
  92              		.loc 2 65 30 is_stmt 0
  93              	# 65 "src/syscall_cpp.cpp" 1
  66              	}
  94              		ecall
  95              	# 0 "" 2
  96              	#NO_APP
  97              	.LBE35:
  98              		.loc 2 66 1
  99 0028 03348100 		ld	s0,8(sp)
 100              		.cfi_restore 8
 101              		.cfi_def_cfa 2, 16
 102 002c 13010101 		addi	sp,sp,16
 103              		.cfi_def_cfa_offset 0
 104 0030 67800000 		jr	ra
 105              		.cfi_endproc
 106              	.LFE51:
 108              		.globl	_ZN6ThreadD1Ev
 109              		.set	_ZN6ThreadD1Ev,_ZN6ThreadD2Ev
 110              		.align	2
 111              		.globl	_ZN6Thread7wrapperEPv
 113              	_ZN6Thread7wrapperEPv:
 114              	.LFB61:
  67:src/syscall_cpp.cpp **** 
  68:src/syscall_cpp.cpp **** int Thread::start() {
  69:src/syscall_cpp.cpp ****     if (myHandle == nullptr || myHandle->getStatus() != TCB::CREATED) return -1;
  70:src/syscall_cpp.cpp ****     __asm__ volatile("mv a1, %[handle]": :[handle] "r"(myHandle):"a5", "a0", "a1", "a2", "a3", "a4"
  71:src/syscall_cpp.cpp ****     __asm__ volatile("li a0, 0x81");
  72:src/syscall_cpp.cpp **** 
  73:src/syscall_cpp.cpp ****     __asm__ volatile("ecall");
  74:src/syscall_cpp.cpp **** 
  75:src/syscall_cpp.cpp ****     return 0;
  76:src/syscall_cpp.cpp **** }
  77:src/syscall_cpp.cpp **** 
  78:src/syscall_cpp.cpp **** void Thread::join() {
  79:src/syscall_cpp.cpp ****     if (myHandle) thread_join(myHandle);
  80:src/syscall_cpp.cpp **** }
  81:src/syscall_cpp.cpp **** 
  82:src/syscall_cpp.cpp **** void Thread::dispatch() {
  83:src/syscall_cpp.cpp ****     thread_dispatch();
  84:src/syscall_cpp.cpp **** }
  85:src/syscall_cpp.cpp **** 
  86:src/syscall_cpp.cpp **** int Thread::sleep(time_t t) {
  87:src/syscall_cpp.cpp ****     time_sleep(t);
  88:src/syscall_cpp.cpp ****     return 0;
  89:src/syscall_cpp.cpp **** }
  90:src/syscall_cpp.cpp **** 
GAS LISTING /tmp/ccv2MdVO.s 			page 6


  91:src/syscall_cpp.cpp **** Thread::Thread() {
  92:src/syscall_cpp.cpp ****     this->body = wrapper;
  93:src/syscall_cpp.cpp ****     this->arg = this;
  94:src/syscall_cpp.cpp ****     uint64* stack = (uint64*)mem_alloc(DEFAULT_STACK_SIZE);
  95:src/syscall_cpp.cpp ****     //stavljanje argumenata za sistemski poziv
  96:src/syscall_cpp.cpp ****     __asm__ volatile("mv a4, %[sp]": :[sp] "r"(stack):"a5", "a0", "a1", "a2", "a3", "a4", "a6", "a7
  97:src/syscall_cpp.cpp ****     __asm__ volatile("mv a3, %[arg]": :[arg] "r"(arg):"a5", "a0", "a1", "a2", "a3", "a4", "a6", "a7
  98:src/syscall_cpp.cpp ****     __asm__ volatile("mv a2, %[function]": :[function] "r"(
  99:src/syscall_cpp.cpp ****             body):"a5", "a0", "a1", "a2", "a3", "a4", "a6", "a7");
 100:src/syscall_cpp.cpp ****     __asm__ volatile("mv a1, %[handle]": :[handle] "r"(&myHandle):"a5", "a0", "a1", "a2", "a3", "a4
 101:src/syscall_cpp.cpp ****     __asm__ volatile("li a0, 0x80");
 102:src/syscall_cpp.cpp ****     //a0 = 0x80
 103:src/syscall_cpp.cpp ****     //a1 = adresa pokazivaca na rucku niti
 104:src/syscall_cpp.cpp ****     //a2 = prva adresa funkcije koju nit izvrsava
 105:src/syscall_cpp.cpp ****     //a3 = pokazivac na argumente funkcije
 106:src/syscall_cpp.cpp ****     //a4 = pokazivac na najnizu adresu steka (stek raste ka nizim adresama, pokazuje na poslednju z
 107:src/syscall_cpp.cpp **** 
 108:src/syscall_cpp.cpp ****     __asm__ volatile("ecall");
 109:src/syscall_cpp.cpp **** }
 110:src/syscall_cpp.cpp **** 
 111:src/syscall_cpp.cpp **** void Thread::wrapper(void* thread) {
 115              		.loc 2 111 36 is_stmt 1
 116              		.cfi_startproc
 117              	.LVL4:
 112:src/syscall_cpp.cpp ****     if (thread != nullptr) {
 118              		.loc 2 112 5
 119 0034 63080502 		beqz	a0,.L10
 111:src/syscall_cpp.cpp ****     if (thread != nullptr) {
 120              		.loc 2 111 36 is_stmt 0
 121 0038 130101FF 		addi	sp,sp,-16
 122              		.cfi_def_cfa_offset 16
 123 003c 23341100 		sd	ra,8(sp)
 124 0040 23308100 		sd	s0,0(sp)
 125              		.cfi_offset 1, -8
 126              		.cfi_offset 8, -16
 127 0044 13040101 		addi	s0,sp,16
 128              		.cfi_def_cfa 8, 0
 113:src/syscall_cpp.cpp ****         ((Thread*)thread)->run();
 129              		.loc 2 113 9 is_stmt 1
 130              		.loc 2 113 32 is_stmt 0
 131 0048 83370500 		ld	a5,0(a0)
 132 004c 83B70701 		ld	a5,16(a5)
 133              		.loc 2 113 31
 134 0050 E7800700 		jalr	a5
 135              	.LVL5:
 114:src/syscall_cpp.cpp ****     }
 115:src/syscall_cpp.cpp **** }
 136              		.loc 2 115 1
 137 0054 83308100 		ld	ra,8(sp)
 138              		.cfi_restore 1
 139 0058 03340100 		ld	s0,0(sp)
 140              		.cfi_restore 8
 141              		.cfi_def_cfa 2, 16
 142 005c 13010101 		addi	sp,sp,16
 143              		.cfi_def_cfa_offset 0
 144 0060 67800000 		jr	ra
 145              	.LVL6:
GAS LISTING /tmp/ccv2MdVO.s 			page 7


 146              	.L10:
 147 0064 67800000 		ret
 148              		.cfi_endproc
 149              	.LFE61:
 151              		.section	.text._ZN14PeriodicThreadD2Ev,"axG",@progbits,_ZN14PeriodicThreadD5Ev,comdat
 152              		.align	2
 153              		.weak	_ZN14PeriodicThreadD2Ev
 155              	_ZN14PeriodicThreadD2Ev:
 156              	.LFB82:
  80:src/../h/syscall_cpp.hpp **** public:
 157              		.loc 1 80 7 is_stmt 1
 158              		.cfi_startproc
 159              	.LVL7:
 160 0000 130101FF 		addi	sp,sp,-16
 161              		.cfi_def_cfa_offset 16
 162 0004 23341100 		sd	ra,8(sp)
 163 0008 23308100 		sd	s0,0(sp)
 164              		.cfi_offset 1, -8
 165              		.cfi_offset 8, -16
 166 000c 13040101 		addi	s0,sp,16
 167              		.cfi_def_cfa 8, 0
 168              	.LBB36:
  80:src/../h/syscall_cpp.hpp **** public:
 169              		.loc 1 80 7 is_stmt 0
 170 0010 97070000 		lla	a5,_ZTV14PeriodicThread+16
 170      93870700 
 171 0018 2330F500 		sd	a5,0(a0)
 172 001c 97000000 		call	_ZN6ThreadD2Ev
 172      E7800000 
 173              	.LVL8:
 174              	.LBE36:
 175 0024 83308100 		ld	ra,8(sp)
 176              		.cfi_restore 1
 177 0028 03340100 		ld	s0,0(sp)
 178              		.cfi_restore 8
 179              		.cfi_def_cfa 2, 16
 180 002c 13010101 		addi	sp,sp,16
 181              		.cfi_def_cfa_offset 0
 182 0030 67800000 		jr	ra
 183              		.cfi_endproc
 184              	.LFE82:
 186              		.weak	_ZN14PeriodicThreadD1Ev
 187              		.set	_ZN14PeriodicThreadD1Ev,_ZN14PeriodicThreadD2Ev
 188              		.text
 189              		.align	2
 190              		.globl	_ZN9SemaphoreD2Ev
 192              	_ZN9SemaphoreD2Ev:
 193              	.LFB69:
 116:src/syscall_cpp.cpp **** 
 117:src/syscall_cpp.cpp **** Semaphore::Semaphore(unsigned int init) {
 118:src/syscall_cpp.cpp ****     sem_open(&myHandle, init);
 119:src/syscall_cpp.cpp **** }
 120:src/syscall_cpp.cpp **** 
 121:src/syscall_cpp.cpp **** Semaphore::~Semaphore() {
 194              		.loc 2 121 1 is_stmt 1
 195              		.cfi_startproc
 196              		.cfi_personality 0x9b,DW.ref.__gxx_personality_v0
GAS LISTING /tmp/ccv2MdVO.s 			page 8


 197              		.cfi_lsda 0x1b,.LLSDA69
 198              	.LVL9:
 199 0068 130101FE 		addi	sp,sp,-32
 200              		.cfi_def_cfa_offset 32
 201 006c 233C1100 		sd	ra,24(sp)
 202 0070 23388100 		sd	s0,16(sp)
 203 0074 23349100 		sd	s1,8(sp)
 204              		.cfi_offset 1, -8
 205              		.cfi_offset 8, -16
 206              		.cfi_offset 9, -24
 207 0078 13040102 		addi	s0,sp,32
 208              		.cfi_def_cfa 8, 0
 209 007c 93040500 		mv	s1,a0
 210              	.LBB37:
 211              		.loc 2 121 23 is_stmt 0
 212 0080 97070000 		lla	a5,_ZTV9Semaphore+16
 212      93870700 
 213 0088 2330F500 		sd	a5,0(a0)
 122:src/syscall_cpp.cpp ****     sem_close(myHandle);
 214              		.loc 2 122 5 is_stmt 1
 215              		.loc 2 122 14 is_stmt 0
 216 008c 03358500 		ld	a0,8(a0)
 217              	.LVL10:
 218 0090 97000000 		call	_Z9sem_closeP4KSem@plt
 218      E7800000 
 219              	.LVL11:
 123:src/syscall_cpp.cpp ****     delete myHandle;
 220              		.loc 2 123 5 is_stmt 1
 221              		.loc 2 123 12 is_stmt 0
 222 0098 83B48400 		ld	s1,8(s1)
 223              	.LVL12:
 224              		.loc 2 123 20
 225 009c 63880402 		beqz	s1,.L15
 226              	.L18:
 227              	.LBB38:
 228              	.LBB39:
 229              	.LBB40:
 230              		.file 3 "src/../h/../h/ThreadQueue.hpp"
   1:src/../h/../h/ThreadQueue.hpp **** //
   2:src/../h/../h/ThreadQueue.hpp **** // Created by os on 6/4/23.
   3:src/../h/../h/ThreadQueue.hpp **** //
   4:src/../h/../h/ThreadQueue.hpp **** 
   5:src/../h/../h/ThreadQueue.hpp **** #ifndef PROJEKAT2023_THREADQUEUE_HPP
   6:src/../h/../h/ThreadQueue.hpp **** #define PROJEKAT2023_THREADQUEUE_HPP
   7:src/../h/../h/ThreadQueue.hpp **** 
   8:src/../h/../h/ThreadQueue.hpp **** #include "../h/syscall_c.hpp"
   9:src/../h/../h/ThreadQueue.hpp **** 
  10:src/../h/../h/ThreadQueue.hpp **** class TCB;
  11:src/../h/../h/ThreadQueue.hpp **** 
  12:src/../h/../h/ThreadQueue.hpp **** class ThreadQueue {
  13:src/../h/../h/ThreadQueue.hpp **** private:
  14:src/../h/../h/ThreadQueue.hpp ****     struct Node {
  15:src/../h/../h/ThreadQueue.hpp ****         TCB* data;
  16:src/../h/../h/ThreadQueue.hpp ****         Node* next;
  17:src/../h/../h/ThreadQueue.hpp **** 
  18:src/../h/../h/ThreadQueue.hpp ****         Node(TCB* d) : data(d), next(nullptr) {}
  19:src/../h/../h/ThreadQueue.hpp **** 
GAS LISTING /tmp/ccv2MdVO.s 			page 9


  20:src/../h/../h/ThreadQueue.hpp ****         static void* operator new(size_t size) {
  21:src/../h/../h/ThreadQueue.hpp ****             return mem_alloc(size);
  22:src/../h/../h/ThreadQueue.hpp ****         }
  23:src/../h/../h/ThreadQueue.hpp **** 
  24:src/../h/../h/ThreadQueue.hpp ****         static void operator delete(void* ptr) {
  25:src/../h/../h/ThreadQueue.hpp ****             mem_free(ptr);
  26:src/../h/../h/ThreadQueue.hpp ****         }
  27:src/../h/../h/ThreadQueue.hpp ****     };
  28:src/../h/../h/ThreadQueue.hpp **** 
  29:src/../h/../h/ThreadQueue.hpp ****     Node* front;
  30:src/../h/../h/ThreadQueue.hpp ****     Node* back;
  31:src/../h/../h/ThreadQueue.hpp **** 
  32:src/../h/../h/ThreadQueue.hpp **** public:
  33:src/../h/../h/ThreadQueue.hpp ****     ThreadQueue() : front(nullptr), back(nullptr) {}
  34:src/../h/../h/ThreadQueue.hpp **** 
  35:src/../h/../h/ThreadQueue.hpp ****     ThreadQueue(const ThreadQueue &) = delete;
  36:src/../h/../h/ThreadQueue.hpp **** 
  37:src/../h/../h/ThreadQueue.hpp ****     ThreadQueue &operator=(const ThreadQueue &) = delete;
  38:src/../h/../h/ThreadQueue.hpp **** 
  39:src/../h/../h/ThreadQueue.hpp ****     ~ThreadQueue() {
  40:src/../h/../h/ThreadQueue.hpp ****         while (!isEmpty()) {
 231              		.loc 3 40 9 is_stmt 1
 232              		.loc 3 40 16
 233              	.LVL13:
 234              	.LBB41:
 235              	.LBB42:
  41:src/../h/../h/ThreadQueue.hpp ****             Node* node = front;
  42:src/../h/../h/ThreadQueue.hpp ****             front = front->next;
  43:src/../h/../h/ThreadQueue.hpp ****             delete node;
  44:src/../h/../h/ThreadQueue.hpp ****         }
  45:src/../h/../h/ThreadQueue.hpp ****     }
  46:src/../h/../h/ThreadQueue.hpp **** 
  47:src/../h/../h/ThreadQueue.hpp ****     bool isEmpty() const {
  48:src/../h/../h/ThreadQueue.hpp ****         return front == nullptr;
 236              		.loc 3 48 9
 237              		.loc 3 48 16 is_stmt 0
 238 00a0 03B58400 		ld	a0,8(s1)
 239              	.LBE42:
 240              	.LBE41:
  40:src/../h/../h/ThreadQueue.hpp ****             Node* node = front;
 241              		.loc 3 40 16
 242 00a4 630E0500 		beqz	a0,.L17
 243              	.LBB43:
  41:src/../h/../h/ThreadQueue.hpp ****             Node* node = front;
 244              		.loc 3 41 13 is_stmt 1
 245              	.LVL14:
  42:src/../h/../h/ThreadQueue.hpp ****             delete node;
 246              		.loc 3 42 13
  42:src/../h/../h/ThreadQueue.hpp ****             delete node;
 247              		.loc 3 42 28 is_stmt 0
 248 00a8 83378500 		ld	a5,8(a0)
  42:src/../h/../h/ThreadQueue.hpp ****             delete node;
 249              		.loc 3 42 19
 250 00ac 23B4F400 		sd	a5,8(s1)
  43:src/../h/../h/ThreadQueue.hpp ****         }
 251              		.loc 3 43 13 is_stmt 1
  43:src/../h/../h/ThreadQueue.hpp ****         }
GAS LISTING /tmp/ccv2MdVO.s 			page 10


 252              		.loc 3 43 24 is_stmt 0
 253 00b0 E30805FE 		beqz	a0,.L18
 254              	.LVL15:
 255              	.LBB44:
 256              	.LBB45:
  25:src/../h/../h/ThreadQueue.hpp ****         }
 257              		.loc 3 25 13 is_stmt 1
  25:src/../h/../h/ThreadQueue.hpp ****         }
 258              		.loc 3 25 21 is_stmt 0
 259 00b4 97000000 		call	_Z8mem_freePv@plt
 259      E7800000 
 260              	.LVL16:
  26:src/../h/../h/ThreadQueue.hpp ****     };
 261              		.loc 3 26 9
 262 00bc 6FF05FFE 		j	.L18
 263              	.L17:
 264              	.LBE45:
 265              	.LBE44:
 266              	.LBE43:
 267              	.LBE40:
 268              	.LBE39:
 269              	.LBE38:
 270              		.loc 2 123 12
 271 00c0 13850400 		mv	a0,s1
 272 00c4 97000000 		call	_ZN4KSemdlEPv@plt
 272      E7800000 
 273              	.LVL17:
 274              	.L15:
 275              	.LBE37:
 124:src/syscall_cpp.cpp **** }
 276              		.loc 2 124 1
 277 00cc 83308101 		ld	ra,24(sp)
 278              		.cfi_restore 1
 279 00d0 03340101 		ld	s0,16(sp)
 280              		.cfi_restore 8
 281              		.cfi_def_cfa 2, 32
 282 00d4 83348100 		ld	s1,8(sp)
 283              		.cfi_restore 9
 284 00d8 13010102 		addi	sp,sp,32
 285              		.cfi_def_cfa_offset 0
 286 00dc 67800000 		jr	ra
 287              		.cfi_endproc
 288              	.LFE69:
 289              		.globl	__gxx_personality_v0
 290              		.section	.gcc_except_table,"a",@progbits
 291              	.LLSDA69:
 292 0000 FF       		.byte	0xff
 293 0001 FF       		.byte	0xff
 294 0002 03       		.byte	0x3
 295 0003 00       		.byte	0
 296              		.text
 298              		.globl	_ZN9SemaphoreD1Ev
 299              		.set	_ZN9SemaphoreD1Ev,_ZN9SemaphoreD2Ev
 300              		.align	2
 301              		.globl	_Znwm
 303              	_Znwm:
 304              	.LFB43:
GAS LISTING /tmp/ccv2MdVO.s 			page 11


  13:src/syscall_cpp.cpp ****     return mem_alloc(size);
 305              		.loc 2 13 33 is_stmt 1
 306              		.cfi_startproc
 307              	.LVL18:
 308 00e0 130101FF 		addi	sp,sp,-16
 309              		.cfi_def_cfa_offset 16
 310 00e4 23341100 		sd	ra,8(sp)
 311 00e8 23308100 		sd	s0,0(sp)
 312              		.cfi_offset 1, -8
 313              		.cfi_offset 8, -16
 314 00ec 13040101 		addi	s0,sp,16
 315              		.cfi_def_cfa 8, 0
  14:src/syscall_cpp.cpp **** }
 316              		.loc 2 14 5
  14:src/syscall_cpp.cpp **** }
 317              		.loc 2 14 21 is_stmt 0
 318 00f0 97000000 		call	_Z9mem_allocm@plt
 318      E7800000 
 319              	.LVL19:
  15:src/syscall_cpp.cpp **** 
 320              		.loc 2 15 1
 321 00f8 83308100 		ld	ra,8(sp)
 322              		.cfi_restore 1
 323 00fc 03340100 		ld	s0,0(sp)
 324              		.cfi_restore 8
 325              		.cfi_def_cfa 2, 16
 326 0100 13010101 		addi	sp,sp,16
 327              		.cfi_def_cfa_offset 0
 328 0104 67800000 		jr	ra
 329              		.cfi_endproc
 330              	.LFE43:
 332              		.align	2
 333              		.globl	_Znam
 335              	_Znam:
 336              	.LFB44:
  17:src/syscall_cpp.cpp ****     return mem_alloc(size);
 337              		.loc 2 17 35 is_stmt 1
 338              		.cfi_startproc
 339              	.LVL20:
 340 0108 130101FF 		addi	sp,sp,-16
 341              		.cfi_def_cfa_offset 16
 342 010c 23341100 		sd	ra,8(sp)
 343 0110 23308100 		sd	s0,0(sp)
 344              		.cfi_offset 1, -8
 345              		.cfi_offset 8, -16
 346 0114 13040101 		addi	s0,sp,16
 347              		.cfi_def_cfa 8, 0
  18:src/syscall_cpp.cpp **** }
 348              		.loc 2 18 5
  18:src/syscall_cpp.cpp **** }
 349              		.loc 2 18 21 is_stmt 0
 350 0118 97000000 		call	_Z9mem_allocm@plt
 350      E7800000 
 351              	.LVL21:
  19:src/syscall_cpp.cpp **** 
 352              		.loc 2 19 1
 353 0120 83308100 		ld	ra,8(sp)
GAS LISTING /tmp/ccv2MdVO.s 			page 12


 354              		.cfi_restore 1
 355 0124 03340100 		ld	s0,0(sp)
 356              		.cfi_restore 8
 357              		.cfi_def_cfa 2, 16
 358 0128 13010101 		addi	sp,sp,16
 359              		.cfi_def_cfa_offset 0
 360 012c 67800000 		jr	ra
 361              		.cfi_endproc
 362              	.LFE44:
 364              		.align	2
 365              		.globl	_ZdlPv
 367              	_ZdlPv:
 368              	.LFB45:
  23:src/syscall_cpp.cpp **** mem_free(ptr);
 369              		.loc 2 23 10 is_stmt 1
 370              		.cfi_startproc
 371              		.cfi_personality 0x9b,DW.ref.__gxx_personality_v0
 372              		.cfi_lsda 0x1b,.LLSDA45
 373              	.LVL22:
 374 0130 130101FF 		addi	sp,sp,-16
 375              		.cfi_def_cfa_offset 16
 376 0134 23341100 		sd	ra,8(sp)
 377 0138 23308100 		sd	s0,0(sp)
 378              		.cfi_offset 1, -8
 379              		.cfi_offset 8, -16
 380 013c 13040101 		addi	s0,sp,16
 381              		.cfi_def_cfa 8, 0
  24:src/syscall_cpp.cpp **** }
 382              		.loc 2 24 1
  24:src/syscall_cpp.cpp **** }
 383              		.loc 2 24 9 is_stmt 0
 384 0140 97000000 		call	_Z8mem_freePv@plt
 384      E7800000 
 385              	.LVL23:
  25:src/syscall_cpp.cpp **** 
 386              		.loc 2 25 1
 387 0148 83308100 		ld	ra,8(sp)
 388              		.cfi_restore 1
 389 014c 03340100 		ld	s0,0(sp)
 390              		.cfi_restore 8
 391              		.cfi_def_cfa 2, 16
 392 0150 13010101 		addi	sp,sp,16
 393              		.cfi_def_cfa_offset 0
 394 0154 67800000 		jr	ra
 395              		.cfi_endproc
 396              	.LFE45:
 397              		.section	.gcc_except_table
 398              	.LLSDA45:
 399 0004 FF       		.byte	0xff
 400 0005 FF       		.byte	0xff
 401 0006 03       		.byte	0x3
 402 0007 00       		.byte	0
 403              		.text
 405              		.align	2
 406              		.globl	_ZN6ThreadD0Ev
 408              	_ZN6ThreadD0Ev:
 409              	.LFB53:
GAS LISTING /tmp/ccv2MdVO.s 			page 13


  57:src/syscall_cpp.cpp ****     //ne treba da se gasi running nit, vec nit na koju pokazuje rucka od this
 410              		.loc 2 57 1 is_stmt 1
 411              		.cfi_startproc
 412              	.LVL24:
 413 0158 130101FE 		addi	sp,sp,-32
 414              		.cfi_def_cfa_offset 32
 415 015c 233C1100 		sd	ra,24(sp)
 416 0160 23388100 		sd	s0,16(sp)
 417 0164 23349100 		sd	s1,8(sp)
 418              		.cfi_offset 1, -8
 419              		.cfi_offset 8, -16
 420              		.cfi_offset 9, -24
 421 0168 13040102 		addi	s0,sp,32
 422              		.cfi_def_cfa 8, 0
 423 016c 93040500 		mv	s1,a0
  66:src/syscall_cpp.cpp **** 
 424              		.loc 2 66 1 is_stmt 0
 425 0170 97000000 		call	_ZN6ThreadD1Ev
 425      E7800000 
 426              	.LVL25:
 427 0178 13850400 		mv	a0,s1
 428 017c 97000000 		call	_ZdlPv
 428      E7800000 
 429              	.LVL26:
 430 0184 83308101 		ld	ra,24(sp)
 431              		.cfi_restore 1
 432 0188 03340101 		ld	s0,16(sp)
 433              		.cfi_restore 8
 434              		.cfi_def_cfa 2, 32
 435 018c 83348100 		ld	s1,8(sp)
 436              		.cfi_restore 9
 437              	.LVL27:
 438 0190 13010102 		addi	sp,sp,32
 439              		.cfi_def_cfa_offset 0
 440 0194 67800000 		jr	ra
 441              		.cfi_endproc
 442              	.LFE53:
 444              		.section	.text._ZN14PeriodicThreadD0Ev,"axG",@progbits,_ZN14PeriodicThreadD5Ev,comdat
 445              		.align	2
 446              		.weak	_ZN14PeriodicThreadD0Ev
 448              	_ZN14PeriodicThreadD0Ev:
 449              	.LFB84:
  80:src/../h/syscall_cpp.hpp **** public:
 450              		.loc 1 80 7 is_stmt 1
 451              		.cfi_startproc
 452              	.LVL28:
 453 0000 130101FE 		addi	sp,sp,-32
 454              		.cfi_def_cfa_offset 32
 455 0004 233C1100 		sd	ra,24(sp)
 456 0008 23388100 		sd	s0,16(sp)
 457 000c 23349100 		sd	s1,8(sp)
 458              		.cfi_offset 1, -8
 459              		.cfi_offset 8, -16
 460              		.cfi_offset 9, -24
 461 0010 13040102 		addi	s0,sp,32
 462              		.cfi_def_cfa 8, 0
 463 0014 93040500 		mv	s1,a0
GAS LISTING /tmp/ccv2MdVO.s 			page 14


 464              	.LVL29:
 465              	.LBB46:
 466              	.LBB47:
  80:src/../h/syscall_cpp.hpp **** public:
 467              		.loc 1 80 7 is_stmt 0
 468 0018 97070000 		lla	a5,_ZTV14PeriodicThread+16
 468      93870700 
 469 0020 2330F500 		sd	a5,0(a0)
 470 0024 97000000 		call	_ZN6ThreadD2Ev
 470      E7800000 
 471              	.LVL30:
 472              	.LBE47:
 473              	.LBE46:
 474 002c 13850400 		mv	a0,s1
 475 0030 97000000 		call	_ZdlPv
 475      E7800000 
 476              	.LVL31:
 477 0038 83308101 		ld	ra,24(sp)
 478              		.cfi_restore 1
 479 003c 03340101 		ld	s0,16(sp)
 480              		.cfi_restore 8
 481              		.cfi_def_cfa 2, 32
 482 0040 83348100 		ld	s1,8(sp)
 483              		.cfi_restore 9
 484              	.LVL32:
 485 0044 13010102 		addi	sp,sp,32
 486              		.cfi_def_cfa_offset 0
 487 0048 67800000 		jr	ra
 488              		.cfi_endproc
 489              	.LFE84:
 491              		.text
 492              		.align	2
 493              		.globl	_ZN9SemaphoreD0Ev
 495              	_ZN9SemaphoreD0Ev:
 496              	.LFB71:
 121:src/syscall_cpp.cpp ****     sem_close(myHandle);
 497              		.loc 2 121 1 is_stmt 1
 498              		.cfi_startproc
 499              	.LVL33:
 500 0198 130101FE 		addi	sp,sp,-32
 501              		.cfi_def_cfa_offset 32
 502 019c 233C1100 		sd	ra,24(sp)
 503 01a0 23388100 		sd	s0,16(sp)
 504 01a4 23349100 		sd	s1,8(sp)
 505              		.cfi_offset 1, -8
 506              		.cfi_offset 8, -16
 507              		.cfi_offset 9, -24
 508 01a8 13040102 		addi	s0,sp,32
 509              		.cfi_def_cfa 8, 0
 510 01ac 93040500 		mv	s1,a0
 511              		.loc 2 124 1 is_stmt 0
 512 01b0 97000000 		call	_ZN9SemaphoreD1Ev
 512      E7800000 
 513              	.LVL34:
 514 01b8 13850400 		mv	a0,s1
 515 01bc 97000000 		call	_ZdlPv
 515      E7800000 
GAS LISTING /tmp/ccv2MdVO.s 			page 15


 516              	.LVL35:
 517 01c4 83308101 		ld	ra,24(sp)
 518              		.cfi_restore 1
 519 01c8 03340101 		ld	s0,16(sp)
 520              		.cfi_restore 8
 521              		.cfi_def_cfa 2, 32
 522 01cc 83348100 		ld	s1,8(sp)
 523              		.cfi_restore 9
 524              	.LVL36:
 525 01d0 13010102 		addi	sp,sp,32
 526              		.cfi_def_cfa_offset 0
 527 01d4 67800000 		jr	ra
 528              		.cfi_endproc
 529              	.LFE71:
 531              		.align	2
 532              		.globl	_ZdaPv
 534              	_ZdaPv:
 535              	.LFB46:
  29:src/syscall_cpp.cpp **** mem_free(ptr);
 536              		.loc 2 29 10 is_stmt 1
 537              		.cfi_startproc
 538              		.cfi_personality 0x9b,DW.ref.__gxx_personality_v0
 539              		.cfi_lsda 0x1b,.LLSDA46
 540              	.LVL37:
 541 01d8 130101FF 		addi	sp,sp,-16
 542              		.cfi_def_cfa_offset 16
 543 01dc 23341100 		sd	ra,8(sp)
 544 01e0 23308100 		sd	s0,0(sp)
 545              		.cfi_offset 1, -8
 546              		.cfi_offset 8, -16
 547 01e4 13040101 		addi	s0,sp,16
 548              		.cfi_def_cfa 8, 0
  30:src/syscall_cpp.cpp **** }
 549              		.loc 2 30 1
  30:src/syscall_cpp.cpp **** }
 550              		.loc 2 30 9 is_stmt 0
 551 01e8 97000000 		call	_Z8mem_freePv@plt
 551      E7800000 
 552              	.LVL38:
  31:src/syscall_cpp.cpp **** 
 553              		.loc 2 31 1
 554 01f0 83308100 		ld	ra,8(sp)
 555              		.cfi_restore 1
 556 01f4 03340100 		ld	s0,0(sp)
 557              		.cfi_restore 8
 558              		.cfi_def_cfa 2, 16
 559 01f8 13010101 		addi	sp,sp,16
 560              		.cfi_def_cfa_offset 0
 561 01fc 67800000 		jr	ra
 562              		.cfi_endproc
 563              	.LFE46:
 564              		.section	.gcc_except_table
 565              	.LLSDA46:
 566 0008 FF       		.byte	0xff
 567 0009 FF       		.byte	0xff
 568 000a 03       		.byte	0x3
 569 000b 00       		.byte	0
GAS LISTING /tmp/ccv2MdVO.s 			page 16


 570              		.text
 572              		.align	2
 573              		.globl	_ZN6ThreadC2EPFvPvES0_
 575              	_ZN6ThreadC2EPFvPvES0_:
 576              	.LFB48:
  33:src/syscall_cpp.cpp ****     this->body = body;
 577              		.loc 2 33 1 is_stmt 1
 578              		.cfi_startproc
 579              	.LVL39:
 580 0200 130101FD 		addi	sp,sp,-48
 581              		.cfi_def_cfa_offset 48
 582 0204 23341102 		sd	ra,40(sp)
 583 0208 23308102 		sd	s0,32(sp)
 584 020c 233C9100 		sd	s1,24(sp)
 585 0210 23382101 		sd	s2,16(sp)
 586 0214 23343101 		sd	s3,8(sp)
 587              		.cfi_offset 1, -8
 588              		.cfi_offset 8, -16
 589              		.cfi_offset 9, -24
 590              		.cfi_offset 18, -32
 591              		.cfi_offset 19, -40
 592 0218 13040103 		addi	s0,sp,48
 593              		.cfi_def_cfa 8, 0
 594 021c 93040500 		mv	s1,a0
 595 0220 13890500 		mv	s2,a1
 596 0224 93090600 		mv	s3,a2
 597              	.LBB48:
  33:src/syscall_cpp.cpp ****     this->body = body;
 598              		.loc 2 33 47 is_stmt 0
 599 0228 97070000 		lla	a5,_ZTV6Thread+16
 599      93870700 
 600 0230 2330F500 		sd	a5,0(a0)
 601              	.LBB49:
  34:src/syscall_cpp.cpp ****     this->arg = arg;
 602              		.loc 2 34 5 is_stmt 1
  34:src/syscall_cpp.cpp ****     this->arg = arg;
 603              		.loc 2 34 16 is_stmt 0
 604 0234 2338B500 		sd	a1,16(a0)
  35:src/syscall_cpp.cpp ****     //stvaranje steka ako se ne radi o main kernel niti, posto ona automatski ima stek
 605              		.loc 2 35 5 is_stmt 1
  35:src/syscall_cpp.cpp ****     //stvaranje steka ako se ne radi o main kernel niti, posto ona automatski ima stek
 606              		.loc 2 35 15 is_stmt 0
 607 0238 233CC500 		sd	a2,24(a0)
  37:src/syscall_cpp.cpp ****     if (body != (TCB::Body)main) {
 608              		.loc 2 37 5 is_stmt 1
 609              	.LVL40:
  38:src/syscall_cpp.cpp ****         stack = (uint64*)mem_alloc(DEFAULT_STACK_SIZE);
 610              		.loc 2 38 5
 611 023c 97070000 		la	a5,main
 611      83B70700 
 612 0244 6386F504 		beq	a1,a5,.L37
  39:src/syscall_cpp.cpp ****     }
 613              		.loc 2 39 9
  39:src/syscall_cpp.cpp ****     }
 614              		.loc 2 39 35 is_stmt 0
 615 0248 37150000 		li	a0,4096
 616              	.LVL41:
GAS LISTING /tmp/ccv2MdVO.s 			page 17


 617 024c 97000000 		call	_Z9mem_allocm@plt
 617      E7800000 
 618              	.LVL42:
 619 0254 13030500 		mv	t1,a0
 620              	.LVL43:
 621              	.L36:
  42:src/syscall_cpp.cpp ****     __asm__ volatile("mv a3, %[arg]": :[arg] "r"(arg):"a5", "a0", "a1", "a2", "a3", "a4", "a6", "a7
 622              		.loc 2 42 5 is_stmt 1
  42:src/syscall_cpp.cpp ****     __asm__ volatile("mv a3, %[arg]": :[arg] "r"(arg):"a5", "a0", "a1", "a2", "a3", "a4", "a6", "a7
 623              		.loc 2 42 102 is_stmt 0
 624              	#APP
 625              	# 42 "src/syscall_cpp.cpp" 1
  43:src/syscall_cpp.cpp ****     __asm__ volatile("mv a2, %[function]": :[function] "r"(
 626              		mv a4, t1
 627              	# 0 "" 2
 628              		.loc 2 43 5 is_stmt 1
  43:src/syscall_cpp.cpp ****     __asm__ volatile("mv a2, %[function]": :[function] "r"(
 629              		.loc 2 43 102 is_stmt 0
 630              	# 43 "src/syscall_cpp.cpp" 1
  44:src/syscall_cpp.cpp ****             body):"a5", "a0", "a1", "a2", "a3", "a4", "a6", "a7");
 631              		mv a3, s3
 632              	# 0 "" 2
 633              		.loc 2 44 5 is_stmt 1
  45:src/syscall_cpp.cpp ****     __asm__ volatile("mv a1, %[handle]": :[handle] "r"(&myHandle):"a5", "a0", "a1", "a2", "a3", "a4
 634              		.loc 2 45 66 is_stmt 0
 635              	# 45 "src/syscall_cpp.cpp" 1
  46:src/syscall_cpp.cpp ****     __asm__ volatile("li a0, 0x80");
 636              		mv a2, s2
 637              	# 0 "" 2
 638              		.loc 2 46 5 is_stmt 1
  46:src/syscall_cpp.cpp ****     __asm__ volatile("li a0, 0x80");
 639              		.loc 2 46 56 is_stmt 0
 640              	#NO_APP
 641 0264 93848400 		addi	s1,s1,8
 642              	.LVL44:
  46:src/syscall_cpp.cpp ****     __asm__ volatile("li a0, 0x80");
 643              		.loc 2 46 114
 644              	#APP
 645              	# 46 "src/syscall_cpp.cpp" 1
  47:src/syscall_cpp.cpp ****     //a0 = 0x80
 646              		mv a1, s1
 647              	# 0 "" 2
 648              		.loc 2 47 5 is_stmt 1
  47:src/syscall_cpp.cpp ****     //a0 = 0x80
 649              		.loc 2 47 36 is_stmt 0
 650              	# 47 "src/syscall_cpp.cpp" 1
  54:src/syscall_cpp.cpp **** }
 651              		li a0, 0x80
 652              	# 0 "" 2
 653              		.loc 2 54 5 is_stmt 1
  54:src/syscall_cpp.cpp **** }
 654              		.loc 2 54 30 is_stmt 0
 655              	# 54 "src/syscall_cpp.cpp" 1
 656              		ecall
 657              	# 0 "" 2
 658              	#NO_APP
 659              	.LBE49:
GAS LISTING /tmp/ccv2MdVO.s 			page 18


 660              	.LBE48:
  55:src/syscall_cpp.cpp **** 
 661              		.loc 2 55 1
 662 0274 83308102 		ld	ra,40(sp)
 663              		.cfi_remember_state
 664              		.cfi_restore 1
 665 0278 03340102 		ld	s0,32(sp)
 666              		.cfi_restore 8
 667              		.cfi_def_cfa 2, 48
 668 027c 83348101 		ld	s1,24(sp)
 669              		.cfi_restore 9
 670              	.LVL45:
 671 0280 03390101 		ld	s2,16(sp)
 672              		.cfi_restore 18
 673              	.LVL46:
 674 0284 83398100 		ld	s3,8(sp)
 675              		.cfi_restore 19
 676              	.LVL47:
 677 0288 13010103 		addi	sp,sp,48
 678              		.cfi_def_cfa_offset 0
 679 028c 67800000 		jr	ra
 680              	.LVL48:
 681              	.L37:
 682              		.cfi_restore_state
 683              	.LBB51:
 684              	.LBB50:
  37:src/syscall_cpp.cpp ****     if (body != (TCB::Body)main) {
 685              		.loc 2 37 13
 686 0290 13030000 		li	t1,0
 687 0294 6FF05FFC 		j	.L36
 688              	.LBE50:
 689              	.LBE51:
 690              		.cfi_endproc
 691              	.LFE48:
 693              		.globl	_ZN6ThreadC1EPFvPvES0_
 694              		.set	_ZN6ThreadC1EPFvPvES0_,_ZN6ThreadC2EPFvPvES0_
 695              		.align	2
 696              		.globl	_ZN6Thread5startEv
 698              	_ZN6Thread5startEv:
 699              	.LFB54:
  68:src/syscall_cpp.cpp ****     if (myHandle == nullptr || myHandle->getStatus() != TCB::CREATED) return -1;
 700              		.loc 2 68 21 is_stmt 1
 701              		.cfi_startproc
 702              	.LVL49:
 703 0298 130101FF 		addi	sp,sp,-16
 704              		.cfi_def_cfa_offset 16
 705 029c 23348100 		sd	s0,8(sp)
 706              		.cfi_offset 8, -8
 707 02a0 13040101 		addi	s0,sp,16
 708              		.cfi_def_cfa 8, 0
  69:src/syscall_cpp.cpp ****     __asm__ volatile("mv a1, %[handle]": :[handle] "r"(myHandle):"a5", "a0", "a1", "a2", "a3", "a4"
 709              		.loc 2 69 5
  69:src/syscall_cpp.cpp ****     __asm__ volatile("mv a1, %[handle]": :[handle] "r"(myHandle):"a5", "a0", "a1", "a2", "a3", "a4"
 710              		.loc 2 69 9 is_stmt 0
 711 02a4 03338500 		ld	t1,8(a0)
  69:src/syscall_cpp.cpp ****     __asm__ volatile("mv a1, %[handle]": :[handle] "r"(myHandle):"a5", "a0", "a1", "a2", "a3", "a4"
 712              		.loc 2 69 29
GAS LISTING /tmp/ccv2MdVO.s 			page 19


 713 02a8 63040302 		beqz	t1,.L41
 714              	.LVL50:
 715              	.LBB52:
 716              	.LBB53:
 717              		.file 4 "src/../h/TCB.hpp"
   1:src/../h/TCB.hpp **** //
   2:src/../h/TCB.hpp **** // Created by os on 5/23/23.
   3:src/../h/TCB.hpp **** //
   4:src/../h/TCB.hpp **** 
   5:src/../h/TCB.hpp **** #ifndef PROJEKAT2023_TCB_HPP
   6:src/../h/TCB.hpp **** #define PROJEKAT2023_TCB_HPP
   7:src/../h/TCB.hpp **** 
   8:src/../h/TCB.hpp **** #include "../lib/hw.h"
   9:src/../h/TCB.hpp **** #include "../h/ThreadQueue.hpp"
  10:src/../h/TCB.hpp **** 
  11:src/../h/TCB.hpp **** int main();
  12:src/../h/TCB.hpp **** 
  13:src/../h/TCB.hpp **** class TCB {
  14:src/../h/TCB.hpp **** public:
  15:src/../h/TCB.hpp ****     friend class Scheduler;
  16:src/../h/TCB.hpp **** 
  17:src/../h/TCB.hpp ****     using Body = void (*)(void*);
  18:src/../h/TCB.hpp **** 
  19:src/../h/TCB.hpp ****     enum ThreadStatus {
  20:src/../h/TCB.hpp ****         CREATED, ACTIVE, BLOCKED, JOINING, SLEEPING, FINISHED
  21:src/../h/TCB.hpp ****     };
  22:src/../h/TCB.hpp **** 
  23:src/../h/TCB.hpp ****     static TCB* createThread(Body function, void* args, uint64* stack);
  24:src/../h/TCB.hpp **** 
  25:src/../h/TCB.hpp ****     void setStatus(ThreadStatus stat) { this->status = stat; }
  26:src/../h/TCB.hpp **** 
  27:src/../h/TCB.hpp ****     ThreadStatus getStatus() { return this->status; }
 718              		.loc 4 27 32 is_stmt 1 discriminator 2
 719              		.loc 4 27 45 is_stmt 0 discriminator 2
 720 02ac 83278305 		lw	a5,88(t1)
 721              	.LVL51:
 722              	.LBE53:
 723              	.LBE52:
  69:src/syscall_cpp.cpp ****     __asm__ volatile("mv a1, %[handle]": :[handle] "r"(myHandle):"a5", "a0", "a1", "a2", "a3", "a4"
 724              		.loc 2 69 29 discriminator 2
 725 02b0 63940702 		bnez	a5,.L42
  70:src/syscall_cpp.cpp ****     __asm__ volatile("li a0, 0x81");
 726              		.loc 2 70 5 is_stmt 1
  70:src/syscall_cpp.cpp ****     __asm__ volatile("li a0, 0x81");
 727              		.loc 2 70 113 is_stmt 0
 728              	#APP
 729              	# 70 "src/syscall_cpp.cpp" 1
 730              		mv a1, t1
 731              	# 0 "" 2
 732              	.LVL52:
  71:src/syscall_cpp.cpp **** 
 733              		.loc 2 71 5 is_stmt 1
  71:src/syscall_cpp.cpp **** 
 734              		.loc 2 71 36 is_stmt 0
 735              	# 71 "src/syscall_cpp.cpp" 1
  73:src/syscall_cpp.cpp **** 
 736              		li a0, 0x81
GAS LISTING /tmp/ccv2MdVO.s 			page 20


 737              	# 0 "" 2
 738              		.loc 2 73 5 is_stmt 1
  73:src/syscall_cpp.cpp **** 
 739              		.loc 2 73 30 is_stmt 0
 740              	# 73 "src/syscall_cpp.cpp" 1
  75:src/syscall_cpp.cpp **** }
 741              		ecall
 742              	# 0 "" 2
 743              		.loc 2 75 5 is_stmt 1
  75:src/syscall_cpp.cpp **** }
 744              		.loc 2 75 12 is_stmt 0
 745              	#NO_APP
 746 02c0 13050000 		li	a0,0
 747              	.L40:
  76:src/syscall_cpp.cpp **** 
 748              		.loc 2 76 1
 749 02c4 03348100 		ld	s0,8(sp)
 750              		.cfi_remember_state
 751              		.cfi_restore 8
 752              		.cfi_def_cfa 2, 16
 753 02c8 13010101 		addi	sp,sp,16
 754              		.cfi_def_cfa_offset 0
 755 02cc 67800000 		jr	ra
 756              	.LVL53:
 757              	.L41:
 758              		.cfi_restore_state
  69:src/syscall_cpp.cpp ****     __asm__ volatile("mv a1, %[handle]": :[handle] "r"(myHandle):"a5", "a0", "a1", "a2", "a3", "a4"
 759              		.loc 2 69 79
 760 02d0 1305F0FF 		li	a0,-1
 761              	.LVL54:
 762 02d4 6FF01FFF 		j	.L40
 763              	.LVL55:
 764              	.L42:
 765 02d8 1305F0FF 		li	a0,-1
 766              	.LVL56:
 767 02dc 6FF09FFE 		j	.L40
 768              		.cfi_endproc
 769              	.LFE54:
 771              		.align	2
 772              		.globl	_ZN6Thread4joinEv
 774              	_ZN6Thread4joinEv:
 775              	.LFB55:
  78:src/syscall_cpp.cpp ****     if (myHandle) thread_join(myHandle);
 776              		.loc 2 78 21 is_stmt 1
 777              		.cfi_startproc
 778              	.LVL57:
  79:src/syscall_cpp.cpp **** }
 779              		.loc 2 79 5
  79:src/syscall_cpp.cpp **** }
 780              		.loc 2 79 9 is_stmt 0
 781 02e0 03358500 		ld	a0,8(a0)
 782              	.LVL58:
  79:src/syscall_cpp.cpp **** }
 783              		.loc 2 79 5
 784 02e4 63060502 		beqz	a0,.L47
  78:src/syscall_cpp.cpp ****     if (myHandle) thread_join(myHandle);
 785              		.loc 2 78 21 discriminator 1
GAS LISTING /tmp/ccv2MdVO.s 			page 21


 786 02e8 130101FF 		addi	sp,sp,-16
 787              		.cfi_def_cfa_offset 16
 788 02ec 23341100 		sd	ra,8(sp)
 789 02f0 23308100 		sd	s0,0(sp)
 790              		.cfi_offset 1, -8
 791              		.cfi_offset 8, -16
 792 02f4 13040101 		addi	s0,sp,16
 793              		.cfi_def_cfa 8, 0
  79:src/syscall_cpp.cpp **** }
 794              		.loc 2 79 19 is_stmt 1 discriminator 1
  79:src/syscall_cpp.cpp **** }
 795              		.loc 2 79 30 is_stmt 0 discriminator 1
 796 02f8 97000000 		call	_Z11thread_joinP3TCB@plt
 796      E7800000 
 797              	.LVL59:
  80:src/syscall_cpp.cpp **** 
 798              		.loc 2 80 1 discriminator 1
 799 0300 83308100 		ld	ra,8(sp)
 800              		.cfi_restore 1
 801 0304 03340100 		ld	s0,0(sp)
 802              		.cfi_restore 8
 803              		.cfi_def_cfa 2, 16
 804 0308 13010101 		addi	sp,sp,16
 805              		.cfi_def_cfa_offset 0
 806 030c 67800000 		jr	ra
 807              	.L47:
 808 0310 67800000 		ret
 809              		.cfi_endproc
 810              	.LFE55:
 812              		.align	2
 813              		.globl	_ZN6Thread8dispatchEv
 815              	_ZN6Thread8dispatchEv:
 816              	.LFB56:
  82:src/syscall_cpp.cpp ****     thread_dispatch();
 817              		.loc 2 82 25 is_stmt 1
 818              		.cfi_startproc
 819 0314 130101FF 		addi	sp,sp,-16
 820              		.cfi_def_cfa_offset 16
 821 0318 23341100 		sd	ra,8(sp)
 822 031c 23308100 		sd	s0,0(sp)
 823              		.cfi_offset 1, -8
 824              		.cfi_offset 8, -16
 825 0320 13040101 		addi	s0,sp,16
 826              		.cfi_def_cfa 8, 0
  83:src/syscall_cpp.cpp **** }
 827              		.loc 2 83 5
  83:src/syscall_cpp.cpp **** }
 828              		.loc 2 83 20 is_stmt 0
 829 0324 97000000 		call	_Z15thread_dispatchv@plt
 829      E7800000 
 830              	.LVL60:
  84:src/syscall_cpp.cpp **** 
 831              		.loc 2 84 1
 832 032c 83308100 		ld	ra,8(sp)
 833              		.cfi_restore 1
 834 0330 03340100 		ld	s0,0(sp)
 835              		.cfi_restore 8
GAS LISTING /tmp/ccv2MdVO.s 			page 22


 836              		.cfi_def_cfa 2, 16
 837 0334 13010101 		addi	sp,sp,16
 838              		.cfi_def_cfa_offset 0
 839 0338 67800000 		jr	ra
 840              		.cfi_endproc
 841              	.LFE56:
 843              		.align	2
 844              		.globl	_ZN6Thread5sleepEm
 846              	_ZN6Thread5sleepEm:
 847              	.LFB57:
  86:src/syscall_cpp.cpp ****     time_sleep(t);
 848              		.loc 2 86 29 is_stmt 1
 849              		.cfi_startproc
 850              	.LVL61:
 851 033c 130101FF 		addi	sp,sp,-16
 852              		.cfi_def_cfa_offset 16
 853 0340 23341100 		sd	ra,8(sp)
 854 0344 23308100 		sd	s0,0(sp)
 855              		.cfi_offset 1, -8
 856              		.cfi_offset 8, -16
 857 0348 13040101 		addi	s0,sp,16
 858              		.cfi_def_cfa 8, 0
  87:src/syscall_cpp.cpp ****     return 0;
 859              		.loc 2 87 5
  87:src/syscall_cpp.cpp ****     return 0;
 860              		.loc 2 87 15 is_stmt 0
 861 034c 97000000 		call	_Z10time_sleepm@plt
 861      E7800000 
 862              	.LVL62:
  88:src/syscall_cpp.cpp **** }
 863              		.loc 2 88 5 is_stmt 1
  89:src/syscall_cpp.cpp **** 
 864              		.loc 2 89 1 is_stmt 0
 865 0354 13050000 		li	a0,0
 866 0358 83308100 		ld	ra,8(sp)
 867              		.cfi_restore 1
 868 035c 03340100 		ld	s0,0(sp)
 869              		.cfi_restore 8
 870              		.cfi_def_cfa 2, 16
 871 0360 13010101 		addi	sp,sp,16
 872              		.cfi_def_cfa_offset 0
 873 0364 67800000 		jr	ra
 874              		.cfi_endproc
 875              	.LFE57:
 877              		.align	2
 878              		.globl	_ZN14PeriodicThread3runEv
 880              	_ZN14PeriodicThread3runEv:
 881              	.LFB78:
 125:src/syscall_cpp.cpp **** 
 126:src/syscall_cpp.cpp **** int Semaphore::wait() {
 127:src/syscall_cpp.cpp ****     return sem_wait(myHandle);
 128:src/syscall_cpp.cpp **** }
 129:src/syscall_cpp.cpp **** 
 130:src/syscall_cpp.cpp **** int Semaphore::signal() {
 131:src/syscall_cpp.cpp ****     return sem_signal(myHandle);
 132:src/syscall_cpp.cpp **** }
 133:src/syscall_cpp.cpp **** 
GAS LISTING /tmp/ccv2MdVO.s 			page 23


 134:src/syscall_cpp.cpp **** void PeriodicThread::terminate() {
 135:src/syscall_cpp.cpp ****     this->period = -1;
 136:src/syscall_cpp.cpp **** }
 137:src/syscall_cpp.cpp **** 
 138:src/syscall_cpp.cpp **** PeriodicThread::PeriodicThread(time_t period) : Thread(), period(period) {
 139:src/syscall_cpp.cpp ****     if (this->period < 0) this->period = 2;
 140:src/syscall_cpp.cpp **** }
 141:src/syscall_cpp.cpp **** 
 142:src/syscall_cpp.cpp **** void PeriodicThread::run() {
 882              		.loc 2 142 28 is_stmt 1
 883              		.cfi_startproc
 884              	.LVL63:
 885 0368 130101FE 		addi	sp,sp,-32
 886              		.cfi_def_cfa_offset 32
 887 036c 233C1100 		sd	ra,24(sp)
 888 0370 23388100 		sd	s0,16(sp)
 889 0374 23349100 		sd	s1,8(sp)
 890              		.cfi_offset 1, -8
 891              		.cfi_offset 8, -16
 892              		.cfi_offset 9, -24
 893 0378 13040102 		addi	s0,sp,32
 894              		.cfi_def_cfa 8, 0
 895 037c 93040500 		mv	s1,a0
 896              	.LVL64:
 897              	.L56:
 143:src/syscall_cpp.cpp ****     while (period != -1UL) {
 898              		.loc 2 143 5
 899              		.loc 2 143 19
 900              		.loc 2 143 12 is_stmt 0
 901 0380 03B70402 		ld	a4,32(s1)
 902              		.loc 2 143 19
 903 0384 9307F0FF 		li	a5,-1
 904 0388 6306F702 		beq	a4,a5,.L55
 144:src/syscall_cpp.cpp ****         periodicActivation();
 905              		.loc 2 144 9 is_stmt 1
 906              		.loc 2 144 28 is_stmt 0
 907 038c 83B70400 		ld	a5,0(s1)
 908 0390 83B78701 		ld	a5,24(a5)
 909              		.loc 2 144 27
 910 0394 13850400 		mv	a0,s1
 911 0398 E7800700 		jalr	a5
 912              	.LVL65:
 145:src/syscall_cpp.cpp ****         if (period == -1UL) break;
 913              		.loc 2 145 9 is_stmt 1
 914              		.loc 2 145 13 is_stmt 0
 915 039c 03B50402 		ld	a0,32(s1)
 916              		.loc 2 145 9
 917 03a0 9307F0FF 		li	a5,-1
 918 03a4 6308F500 		beq	a0,a5,.L55
 146:src/syscall_cpp.cpp ****         sleep(period);
 919              		.loc 2 146 9 is_stmt 1
 920              		.loc 2 146 14 is_stmt 0
 921 03a8 97000000 		call	_ZN6Thread5sleepEm
 921      E7800000 
 922              	.LVL66:
 143:src/syscall_cpp.cpp ****         periodicActivation();
 923              		.loc 2 143 5
GAS LISTING /tmp/ccv2MdVO.s 			page 24


 924 03b0 6FF01FFD 		j	.L56
 925              	.L55:
 147:src/syscall_cpp.cpp ****     }
 148:src/syscall_cpp.cpp ****     thread_exit();
 926              		.loc 2 148 5 is_stmt 1
 927              		.loc 2 148 16 is_stmt 0
 928 03b4 97000000 		call	_Z11thread_exitv@plt
 928      E7800000 
 929              	.LVL67:
 149:src/syscall_cpp.cpp **** }
 930              		.loc 2 149 1
 931 03bc 83308101 		ld	ra,24(sp)
 932              		.cfi_restore 1
 933 03c0 03340101 		ld	s0,16(sp)
 934              		.cfi_restore 8
 935              		.cfi_def_cfa 2, 32
 936 03c4 83348100 		ld	s1,8(sp)
 937              		.cfi_restore 9
 938              	.LVL68:
 939 03c8 13010102 		addi	sp,sp,32
 940              		.cfi_def_cfa_offset 0
 941 03cc 67800000 		jr	ra
 942              		.cfi_endproc
 943              	.LFE78:
 945              		.align	2
 946              		.globl	_ZN6ThreadC2Ev
 948              	_ZN6ThreadC2Ev:
 949              	.LFB59:
  91:src/syscall_cpp.cpp ****     this->body = wrapper;
 950              		.loc 2 91 1 is_stmt 1
 951              		.cfi_startproc
 952              	.LVL69:
 953 03d0 130101FE 		addi	sp,sp,-32
 954              		.cfi_def_cfa_offset 32
 955 03d4 233C1100 		sd	ra,24(sp)
 956 03d8 23388100 		sd	s0,16(sp)
 957 03dc 23349100 		sd	s1,8(sp)
 958              		.cfi_offset 1, -8
 959              		.cfi_offset 8, -16
 960              		.cfi_offset 9, -24
 961 03e0 13040102 		addi	s0,sp,32
 962              		.cfi_def_cfa 8, 0
 963 03e4 93040500 		mv	s1,a0
 964              	.LBB54:
  91:src/syscall_cpp.cpp ****     this->body = wrapper;
 965              		.loc 2 91 16 is_stmt 0
 966 03e8 97070000 		lla	a5,_ZTV6Thread+16
 966      93870700 
 967 03f0 2330F500 		sd	a5,0(a0)
 968              	.LBB55:
  92:src/syscall_cpp.cpp ****     this->arg = this;
 969              		.loc 2 92 5 is_stmt 1
  92:src/syscall_cpp.cpp ****     this->arg = this;
 970              		.loc 2 92 16 is_stmt 0
 971 03f4 97070000 		lla	a5,_ZN6Thread7wrapperEPv
 971      93870700 
 972 03fc 2338F500 		sd	a5,16(a0)
GAS LISTING /tmp/ccv2MdVO.s 			page 25


  93:src/syscall_cpp.cpp ****     uint64* stack = (uint64*)mem_alloc(DEFAULT_STACK_SIZE);
 973              		.loc 2 93 5 is_stmt 1
  93:src/syscall_cpp.cpp ****     uint64* stack = (uint64*)mem_alloc(DEFAULT_STACK_SIZE);
 974              		.loc 2 93 15 is_stmt 0
 975 0400 233CA500 		sd	a0,24(a0)
  94:src/syscall_cpp.cpp ****     //stavljanje argumenata za sistemski poziv
 976              		.loc 2 94 5 is_stmt 1
  94:src/syscall_cpp.cpp ****     //stavljanje argumenata za sistemski poziv
 977              		.loc 2 94 39 is_stmt 0
 978 0404 37150000 		li	a0,4096
 979              	.LVL70:
 980 0408 97000000 		call	_Z9mem_allocm@plt
 980      E7800000 
 981              	.LVL71:
 982 0410 13030500 		mv	t1,a0
 983              	.LVL72:
  96:src/syscall_cpp.cpp ****     __asm__ volatile("mv a3, %[arg]": :[arg] "r"(arg):"a5", "a0", "a1", "a2", "a3", "a4", "a6", "a7
 984              		.loc 2 96 5 is_stmt 1
  96:src/syscall_cpp.cpp ****     __asm__ volatile("mv a3, %[arg]": :[arg] "r"(arg):"a5", "a0", "a1", "a2", "a3", "a4", "a6", "a7
 985              		.loc 2 96 102 is_stmt 0
 986              	#APP
 987              	# 96 "src/syscall_cpp.cpp" 1
  97:src/syscall_cpp.cpp ****     __asm__ volatile("mv a2, %[function]": :[function] "r"(
 988              		mv a4, t1
 989              	# 0 "" 2
 990              		.loc 2 97 5 is_stmt 1
  97:src/syscall_cpp.cpp ****     __asm__ volatile("mv a2, %[function]": :[function] "r"(
 991              		.loc 2 97 50 is_stmt 0
 992              	#NO_APP
 993 0418 03B38401 		ld	t1,24(s1)
 994              	.LVL73:
  97:src/syscall_cpp.cpp ****     __asm__ volatile("mv a2, %[function]": :[function] "r"(
 995              		.loc 2 97 102
 996              	#APP
 997              	# 97 "src/syscall_cpp.cpp" 1
  98:src/syscall_cpp.cpp ****             body):"a5", "a0", "a1", "a2", "a3", "a4", "a6", "a7");
 998              		mv a3, t1
 999              	# 0 "" 2
 1000              		.loc 2 98 5 is_stmt 1
  99:src/syscall_cpp.cpp ****     __asm__ volatile("mv a1, %[handle]": :[handle] "r"(&myHandle):"a5", "a0", "a1", "a2", "a3", "a4
 1001              		.loc 2 99 13 is_stmt 0
 1002              	#NO_APP
 1003 0420 03B30401 		ld	t1,16(s1)
  99:src/syscall_cpp.cpp ****     __asm__ volatile("mv a1, %[handle]": :[handle] "r"(&myHandle):"a5", "a0", "a1", "a2", "a3", "a4
 1004              		.loc 2 99 66
 1005              	#APP
 1006              	# 99 "src/syscall_cpp.cpp" 1
 100:src/syscall_cpp.cpp ****     __asm__ volatile("li a0, 0x80");
 1007              		mv a2, t1
 1008              	# 0 "" 2
 1009              		.loc 2 100 5 is_stmt 1
 100:src/syscall_cpp.cpp ****     __asm__ volatile("li a0, 0x80");
 1010              		.loc 2 100 56 is_stmt 0
 1011              	#NO_APP
 1012 0428 93848400 		addi	s1,s1,8
 1013              	.LVL74:
 100:src/syscall_cpp.cpp ****     __asm__ volatile("li a0, 0x80");
GAS LISTING /tmp/ccv2MdVO.s 			page 26


 1014              		.loc 2 100 114
 1015              	#APP
 1016              	# 100 "src/syscall_cpp.cpp" 1
 101:src/syscall_cpp.cpp ****     //a0 = 0x80
 1017              		mv a1, s1
 1018              	# 0 "" 2
 1019              		.loc 2 101 5 is_stmt 1
 101:src/syscall_cpp.cpp ****     //a0 = 0x80
 1020              		.loc 2 101 36 is_stmt 0
 1021              	# 101 "src/syscall_cpp.cpp" 1
 108:src/syscall_cpp.cpp **** }
 1022              		li a0, 0x80
 1023              	# 0 "" 2
 1024              		.loc 2 108 5 is_stmt 1
 108:src/syscall_cpp.cpp **** }
 1025              		.loc 2 108 30 is_stmt 0
 1026              	# 108 "src/syscall_cpp.cpp" 1
 1027              		ecall
 1028              	# 0 "" 2
 1029              	#NO_APP
 1030              	.LBE55:
 1031              	.LBE54:
 109:src/syscall_cpp.cpp **** 
 1032              		.loc 2 109 1
 1033 0438 83308101 		ld	ra,24(sp)
 1034              		.cfi_restore 1
 1035 043c 03340101 		ld	s0,16(sp)
 1036              		.cfi_restore 8
 1037              		.cfi_def_cfa 2, 32
 1038 0440 83348100 		ld	s1,8(sp)
 1039              		.cfi_restore 9
 1040              	.LVL75:
 1041 0444 13010102 		addi	sp,sp,32
 1042              		.cfi_def_cfa_offset 0
 1043 0448 67800000 		jr	ra
 1044              		.cfi_endproc
 1045              	.LFE59:
 1047              		.globl	_ZN6ThreadC1Ev
 1048              		.set	_ZN6ThreadC1Ev,_ZN6ThreadC2Ev
 1049              		.align	2
 1050              		.globl	_ZN9SemaphoreC2Ej
 1052              	_ZN9SemaphoreC2Ej:
 1053              	.LFB63:
 117:src/syscall_cpp.cpp ****     sem_open(&myHandle, init);
 1054              		.loc 2 117 1 is_stmt 1
 1055              		.cfi_startproc
 1056              	.LVL76:
 1057 044c 130101FF 		addi	sp,sp,-16
 1058              		.cfi_def_cfa_offset 16
 1059 0450 23341100 		sd	ra,8(sp)
 1060 0454 23308100 		sd	s0,0(sp)
 1061              		.cfi_offset 1, -8
 1062              		.cfi_offset 8, -16
 1063 0458 13040101 		addi	s0,sp,16
 1064              		.cfi_def_cfa 8, 0
 1065              	.LBB56:
 117:src/syscall_cpp.cpp ****     sem_open(&myHandle, init);
GAS LISTING /tmp/ccv2MdVO.s 			page 27


 1066              		.loc 2 117 39 is_stmt 0
 1067 045c 97070000 		lla	a5,_ZTV9Semaphore+16
 1067      93870700 
 1068 0464 2330F500 		sd	a5,0(a0)
 118:src/syscall_cpp.cpp **** }
 1069              		.loc 2 118 5 is_stmt 1
 118:src/syscall_cpp.cpp **** }
 1070              		.loc 2 118 13 is_stmt 0
 1071 0468 13058500 		addi	a0,a0,8
 1072              	.LVL77:
 1073 046c 97000000 		call	_Z8sem_openPP4KSemj@plt
 1073      E7800000 
 1074              	.LVL78:
 1075              	.LBE56:
 119:src/syscall_cpp.cpp **** 
 1076              		.loc 2 119 1
 1077 0474 83308100 		ld	ra,8(sp)
 1078              		.cfi_restore 1
 1079 0478 03340100 		ld	s0,0(sp)
 1080              		.cfi_restore 8
 1081              		.cfi_def_cfa 2, 16
 1082 047c 13010101 		addi	sp,sp,16
 1083              		.cfi_def_cfa_offset 0
 1084 0480 67800000 		jr	ra
 1085              		.cfi_endproc
 1086              	.LFE63:
 1088              		.globl	_ZN9SemaphoreC1Ej
 1089              		.set	_ZN9SemaphoreC1Ej,_ZN9SemaphoreC2Ej
 1090              		.align	2
 1091              		.globl	_ZN9Semaphore4waitEv
 1093              	_ZN9Semaphore4waitEv:
 1094              	.LFB72:
 126:src/syscall_cpp.cpp ****     return sem_wait(myHandle);
 1095              		.loc 2 126 23 is_stmt 1
 1096              		.cfi_startproc
 1097              	.LVL79:
 1098 0484 130101FF 		addi	sp,sp,-16
 1099              		.cfi_def_cfa_offset 16
 1100 0488 23341100 		sd	ra,8(sp)
 1101 048c 23308100 		sd	s0,0(sp)
 1102              		.cfi_offset 1, -8
 1103              		.cfi_offset 8, -16
 1104 0490 13040101 		addi	s0,sp,16
 1105              		.cfi_def_cfa 8, 0
 127:src/syscall_cpp.cpp **** }
 1106              		.loc 2 127 5
 127:src/syscall_cpp.cpp **** }
 1107              		.loc 2 127 20 is_stmt 0
 1108 0494 03358500 		ld	a0,8(a0)
 1109              	.LVL80:
 1110 0498 97000000 		call	_Z8sem_waitP4KSem@plt
 1110      E7800000 
 1111              	.LVL81:
 128:src/syscall_cpp.cpp **** 
 1112              		.loc 2 128 1
 1113 04a0 83308100 		ld	ra,8(sp)
 1114              		.cfi_restore 1
GAS LISTING /tmp/ccv2MdVO.s 			page 28


 1115 04a4 03340100 		ld	s0,0(sp)
 1116              		.cfi_restore 8
 1117              		.cfi_def_cfa 2, 16
 1118 04a8 13010101 		addi	sp,sp,16
 1119              		.cfi_def_cfa_offset 0
 1120 04ac 67800000 		jr	ra
 1121              		.cfi_endproc
 1122              	.LFE72:
 1124              		.align	2
 1125              		.globl	_ZN9Semaphore6signalEv
 1127              	_ZN9Semaphore6signalEv:
 1128              	.LFB73:
 130:src/syscall_cpp.cpp ****     return sem_signal(myHandle);
 1129              		.loc 2 130 25 is_stmt 1
 1130              		.cfi_startproc
 1131              	.LVL82:
 1132 04b0 130101FF 		addi	sp,sp,-16
 1133              		.cfi_def_cfa_offset 16
 1134 04b4 23341100 		sd	ra,8(sp)
 1135 04b8 23308100 		sd	s0,0(sp)
 1136              		.cfi_offset 1, -8
 1137              		.cfi_offset 8, -16
 1138 04bc 13040101 		addi	s0,sp,16
 1139              		.cfi_def_cfa 8, 0
 131:src/syscall_cpp.cpp **** }
 1140              		.loc 2 131 5
 131:src/syscall_cpp.cpp **** }
 1141              		.loc 2 131 22 is_stmt 0
 1142 04c0 03358500 		ld	a0,8(a0)
 1143              	.LVL83:
 1144 04c4 97000000 		call	_Z10sem_signalP4KSem@plt
 1144      E7800000 
 1145              	.LVL84:
 132:src/syscall_cpp.cpp **** 
 1146              		.loc 2 132 1
 1147 04cc 83308100 		ld	ra,8(sp)
 1148              		.cfi_restore 1
 1149 04d0 03340100 		ld	s0,0(sp)
 1150              		.cfi_restore 8
 1151              		.cfi_def_cfa 2, 16
 1152 04d4 13010101 		addi	sp,sp,16
 1153              		.cfi_def_cfa_offset 0
 1154 04d8 67800000 		jr	ra
 1155              		.cfi_endproc
 1156              	.LFE73:
 1158              		.align	2
 1159              		.globl	_ZN14PeriodicThread9terminateEv
 1161              	_ZN14PeriodicThread9terminateEv:
 1162              	.LFB74:
 134:src/syscall_cpp.cpp ****     this->period = -1;
 1163              		.loc 2 134 34 is_stmt 1
 1164              		.cfi_startproc
 1165              	.LVL85:
 1166 04dc 130101FF 		addi	sp,sp,-16
 1167              		.cfi_def_cfa_offset 16
 1168 04e0 23348100 		sd	s0,8(sp)
 1169              		.cfi_offset 8, -8
GAS LISTING /tmp/ccv2MdVO.s 			page 29


 1170 04e4 13040101 		addi	s0,sp,16
 1171              		.cfi_def_cfa 8, 0
 135:src/syscall_cpp.cpp **** }
 1172              		.loc 2 135 5
 135:src/syscall_cpp.cpp **** }
 1173              		.loc 2 135 18 is_stmt 0
 1174 04e8 9307F0FF 		li	a5,-1
 1175 04ec 2330F502 		sd	a5,32(a0)
 136:src/syscall_cpp.cpp **** 
 1176              		.loc 2 136 1
 1177 04f0 03348100 		ld	s0,8(sp)
 1178              		.cfi_restore 8
 1179              		.cfi_def_cfa 2, 16
 1180 04f4 13010101 		addi	sp,sp,16
 1181              		.cfi_def_cfa_offset 0
 1182 04f8 67800000 		jr	ra
 1183              		.cfi_endproc
 1184              	.LFE74:
 1186              		.align	2
 1187              		.globl	_ZN14PeriodicThreadC2Em
 1189              	_ZN14PeriodicThreadC2Em:
 1190              	.LFB76:
 138:src/syscall_cpp.cpp ****     if (this->period < 0) this->period = 2;
 1191              		.loc 2 138 1 is_stmt 1
 1192              		.cfi_startproc
 1193              	.LVL86:
 1194 04fc 130101FE 		addi	sp,sp,-32
 1195              		.cfi_def_cfa_offset 32
 1196 0500 233C1100 		sd	ra,24(sp)
 1197 0504 23388100 		sd	s0,16(sp)
 1198 0508 23349100 		sd	s1,8(sp)
 1199 050c 23302101 		sd	s2,0(sp)
 1200              		.cfi_offset 1, -8
 1201              		.cfi_offset 8, -16
 1202              		.cfi_offset 9, -24
 1203              		.cfi_offset 18, -32
 1204 0510 13040102 		addi	s0,sp,32
 1205              		.cfi_def_cfa 8, 0
 1206 0514 93040500 		mv	s1,a0
 1207 0518 13890500 		mv	s2,a1
 1208              	.LBB57:
 138:src/syscall_cpp.cpp ****     if (this->period < 0) this->period = 2;
 1209              		.loc 2 138 72 is_stmt 0
 1210 051c 97000000 		call	_ZN6ThreadC2Ev
 1210      E7800000 
 1211              	.LVL87:
 1212 0524 97070000 		lla	a5,_ZTV14PeriodicThread+16
 1212      93870700 
 1213 052c 23B0F400 		sd	a5,0(s1)
 1214 0530 23B02403 		sd	s2,32(s1)
 139:src/syscall_cpp.cpp **** }
 1215              		.loc 2 139 5 is_stmt 1
 1216              	.LBE57:
 140:src/syscall_cpp.cpp **** 
 1217              		.loc 2 140 1 is_stmt 0
 1218 0534 83308101 		ld	ra,24(sp)
 1219              		.cfi_restore 1
GAS LISTING /tmp/ccv2MdVO.s 			page 30


 1220 0538 03340101 		ld	s0,16(sp)
 1221              		.cfi_restore 8
 1222              		.cfi_def_cfa 2, 32
 1223 053c 83348100 		ld	s1,8(sp)
 1224              		.cfi_restore 9
 1225              	.LVL88:
 1226 0540 03390100 		ld	s2,0(sp)
 1227              		.cfi_restore 18
 1228              	.LVL89:
 1229 0544 13010102 		addi	sp,sp,32
 1230              		.cfi_def_cfa_offset 0
 1231 0548 67800000 		jr	ra
 1232              		.cfi_endproc
 1233              	.LFE76:
 1235              		.globl	_ZN14PeriodicThreadC1Em
 1236              		.set	_ZN14PeriodicThreadC1Em,_ZN14PeriodicThreadC2Em
 1237              		.align	2
 1238              		.globl	_ZN7Console4getcEv
 1240              	_ZN7Console4getcEv:
 1241              	.LFB79:
 150:src/syscall_cpp.cpp **** 
 151:src/syscall_cpp.cpp **** char Console::getc() {
 1242              		.loc 2 151 22 is_stmt 1
 1243              		.cfi_startproc
 1244 054c 130101FF 		addi	sp,sp,-16
 1245              		.cfi_def_cfa_offset 16
 1246 0550 23341100 		sd	ra,8(sp)
 1247 0554 23308100 		sd	s0,0(sp)
 1248              		.cfi_offset 1, -8
 1249              		.cfi_offset 8, -16
 1250 0558 13040101 		addi	s0,sp,16
 1251              		.cfi_def_cfa 8, 0
 152:src/syscall_cpp.cpp ****     return ::getc();
 1252              		.loc 2 152 5
 1253              		.loc 2 152 18 is_stmt 0
 1254 055c 97000000 		call	_Z4getcv@plt
 1254      E7800000 
 1255              	.LVL90:
 153:src/syscall_cpp.cpp **** }
 1256              		.loc 2 153 1
 1257 0564 83308100 		ld	ra,8(sp)
 1258              		.cfi_restore 1
 1259 0568 03340100 		ld	s0,0(sp)
 1260              		.cfi_restore 8
 1261              		.cfi_def_cfa 2, 16
 1262 056c 13010101 		addi	sp,sp,16
 1263              		.cfi_def_cfa_offset 0
 1264 0570 67800000 		jr	ra
 1265              		.cfi_endproc
 1266              	.LFE79:
 1268              		.align	2
 1269              		.globl	_ZN7Console4putcEc
 1271              	_ZN7Console4putcEc:
 1272              	.LFB80:
 154:src/syscall_cpp.cpp **** 
 155:src/syscall_cpp.cpp **** void Console::putc(char c) {
 1273              		.loc 2 155 28 is_stmt 1
GAS LISTING /tmp/ccv2MdVO.s 			page 31


 1274              		.cfi_startproc
 1275              	.LVL91:
 1276 0574 130101FF 		addi	sp,sp,-16
 1277              		.cfi_def_cfa_offset 16
 1278 0578 23341100 		sd	ra,8(sp)
 1279 057c 23308100 		sd	s0,0(sp)
 1280              		.cfi_offset 1, -8
 1281              		.cfi_offset 8, -16
 1282 0580 13040101 		addi	s0,sp,16
 1283              		.cfi_def_cfa 8, 0
 156:src/syscall_cpp.cpp ****     ::putc(c);
 1284              		.loc 2 156 5
 1285              		.loc 2 156 11 is_stmt 0
 1286 0584 97000000 		call	_Z4putcc@plt
 1286      E7800000 
 1287              	.LVL92:
 157:src/syscall_cpp.cpp **** }
 1288              		.loc 2 157 1
 1289 058c 83308100 		ld	ra,8(sp)
 1290              		.cfi_restore 1
 1291 0590 03340100 		ld	s0,0(sp)
 1292              		.cfi_restore 8
 1293              		.cfi_def_cfa 2, 16
 1294 0594 13010101 		addi	sp,sp,16
 1295              		.cfi_def_cfa_offset 0
 1296 0598 67800000 		jr	ra
 1297              		.cfi_endproc
 1298              	.LFE80:
 1300              		.weak	_ZTV6Thread
 1301              		.section	.data.rel.ro.local._ZTV6Thread,"awG",@progbits,_ZTV6Thread,comdat
 1302              		.align	3
 1305              	_ZTV6Thread:
 1306 0000 00000000 		.dword	0
 1306      00000000 
 1307 0008 00000000 		.dword	0
 1307      00000000 
 1308 0010 00000000 		.dword	_ZN6ThreadD1Ev
 1308      00000000 
 1309 0018 00000000 		.dword	_ZN6ThreadD0Ev
 1309      00000000 
 1310 0020 00000000 		.dword	_ZN6Thread3runEv
 1310      00000000 
 1311              		.weak	_ZTV9Semaphore
 1312              		.section	.data.rel.ro.local._ZTV9Semaphore,"awG",@progbits,_ZTV9Semaphore,comdat
 1313              		.align	3
 1316              	_ZTV9Semaphore:
 1317 0000 00000000 		.dword	0
 1317      00000000 
 1318 0008 00000000 		.dword	0
 1318      00000000 
 1319 0010 00000000 		.dword	_ZN9SemaphoreD1Ev
 1319      00000000 
 1320 0018 00000000 		.dword	_ZN9SemaphoreD0Ev
 1320      00000000 
 1321              		.weak	_ZTV14PeriodicThread
 1322              		.section	.data.rel.ro.local._ZTV14PeriodicThread,"awG",@progbits,_ZTV14PeriodicThread,comdat
 1323              		.align	3
GAS LISTING /tmp/ccv2MdVO.s 			page 32


 1326              	_ZTV14PeriodicThread:
 1327 0000 00000000 		.dword	0
 1327      00000000 
 1328 0008 00000000 		.dword	0
 1328      00000000 
 1329 0010 00000000 		.dword	_ZN14PeriodicThreadD1Ev
 1329      00000000 
 1330 0018 00000000 		.dword	_ZN14PeriodicThreadD0Ev
 1330      00000000 
 1331 0020 00000000 		.dword	_ZN14PeriodicThread3runEv
 1331      00000000 
 1332 0028 00000000 		.dword	_ZN14PeriodicThread18periodicActivationEv
 1332      00000000 
 1333              		.text
 1334              	.Letext0:
 1335              		.file 5 "src/../h/../lib/hw.h"
 1336              		.file 6 "src/../h/KSem.hpp"
 1337              		.file 7 "src/../h/syscall_c.hpp"
 6235              		.align	3
 6238              	DW.ref.__gxx_personality_v0:
 6239 0000 00000000 		.dword	__gxx_personality_v0
 6239      00000000 
 6240              		.ident	"GCC: (Ubuntu 9.4.0-1ubuntu1~20.04) 9.4.0"
 6241              		.section	.note.GNU-stack,"",@progbits
GAS LISTING /tmp/ccv2MdVO.s 			page 33


DEFINED SYMBOLS
                            *ABS*:0000000000000000 syscall_cpp.cpp
     /tmp/ccv2MdVO.s:10     .text._ZN6Thread3runEv:0000000000000000 _ZN6Thread3runEv
     /tmp/ccv2MdVO.s:14     .text._ZN6Thread3runEv:0000000000000000 .L0 
     /tmp/ccv2MdVO.s:16     .text._ZN6Thread3runEv:0000000000000000 .L0 
     /tmp/ccv2MdVO.s:17     .text._ZN6Thread3runEv:0000000000000004 .L0 
     /tmp/ccv2MdVO.s:19     .text._ZN6Thread3runEv:0000000000000008 .L0 
     /tmp/ccv2MdVO.s:21     .text._ZN6Thread3runEv:000000000000000c .L0 
     /tmp/ccv2MdVO.s:23     .text._ZN6Thread3runEv:000000000000000c .L0 
     /tmp/ccv2MdVO.s:24     .text._ZN6Thread3runEv:0000000000000010 .L0 
     /tmp/ccv2MdVO.s:25     .text._ZN6Thread3runEv:0000000000000010 .L0 
     /tmp/ccv2MdVO.s:27     .text._ZN6Thread3runEv:0000000000000014 .L0 
     /tmp/ccv2MdVO.s:29     .text._ZN6Thread3runEv:0000000000000018 .L0 
     /tmp/ccv2MdVO.s:36     .text._ZN14PeriodicThread18periodicActivationEv:0000000000000000 _ZN14PeriodicThread18periodicActivationEv
     /tmp/ccv2MdVO.s:39     .text._ZN14PeriodicThread18periodicActivationEv:0000000000000000 .L0 
     /tmp/ccv2MdVO.s:41     .text._ZN14PeriodicThread18periodicActivationEv:0000000000000000 .L0 
     /tmp/ccv2MdVO.s:42     .text._ZN14PeriodicThread18periodicActivationEv:0000000000000004 .L0 
     /tmp/ccv2MdVO.s:44     .text._ZN14PeriodicThread18periodicActivationEv:0000000000000008 .L0 
     /tmp/ccv2MdVO.s:46     .text._ZN14PeriodicThread18periodicActivationEv:000000000000000c .L0 
     /tmp/ccv2MdVO.s:48     .text._ZN14PeriodicThread18periodicActivationEv:000000000000000c .L0 
     /tmp/ccv2MdVO.s:49     .text._ZN14PeriodicThread18periodicActivationEv:0000000000000010 .L0 
     /tmp/ccv2MdVO.s:50     .text._ZN14PeriodicThread18periodicActivationEv:0000000000000010 .L0 
     /tmp/ccv2MdVO.s:52     .text._ZN14PeriodicThread18periodicActivationEv:0000000000000014 .L0 
     /tmp/ccv2MdVO.s:54     .text._ZN14PeriodicThread18periodicActivationEv:0000000000000018 .L0 
     /tmp/ccv2MdVO.s:61     .text:0000000000000000 _ZN6ThreadD2Ev
     /tmp/ccv2MdVO.s:65     .text:0000000000000000 .L0 
     /tmp/ccv2MdVO.s:67     .text:0000000000000000 .L0 
     /tmp/ccv2MdVO.s:68     .text:0000000000000004 .L0 
     /tmp/ccv2MdVO.s:70     .text:0000000000000008 .L0 
     /tmp/ccv2MdVO.s:72     .text:000000000000000c .L0 
     /tmp/ccv2MdVO.s:1305   .data.rel.ro.local._ZTV6Thread:0000000000000000 _ZTV6Thread
     /tmp/ccv2MdVO.s:75     .text:000000000000000c .L0 
     /tmp/ccv2MdVO.s:78     .text:0000000000000018 .L0 
     /tmp/ccv2MdVO.s:79     .text:0000000000000018 .L0 
 src/syscall_cpp.cpp:62     .text:000000000000001c .L0 
     /tmp/ccv2MdVO.s:87     .text:0000000000000020 .L0 
 src/syscall_cpp.cpp:63     .text:0000000000000020 .L0 
     /tmp/ccv2MdVO.s:92     .text:0000000000000024 .L0 
 src/syscall_cpp.cpp:65     .text:0000000000000024 .L0 
     /tmp/ccv2MdVO.s:99     .text:0000000000000028 .L0 
     /tmp/ccv2MdVO.s:100    .text:000000000000002c .L0 
     /tmp/ccv2MdVO.s:101    .text:000000000000002c .L0 
     /tmp/ccv2MdVO.s:103    .text:0000000000000030 .L0 
     /tmp/ccv2MdVO.s:105    .text:0000000000000034 .L0 
     /tmp/ccv2MdVO.s:61     .text:0000000000000000 _ZN6ThreadD1Ev
     /tmp/ccv2MdVO.s:113    .text:0000000000000034 _ZN6Thread7wrapperEPv
     /tmp/ccv2MdVO.s:116    .text:0000000000000034 .L0 
     /tmp/ccv2MdVO.s:118    .text:0000000000000034 .L0 
     /tmp/ccv2MdVO.s:119    .text:0000000000000034 .L0 
     /tmp/ccv2MdVO.s:121    .text:0000000000000038 .L0 
     /tmp/ccv2MdVO.s:122    .text:000000000000003c .L0 
     /tmp/ccv2MdVO.s:125    .text:0000000000000044 .L0 
     /tmp/ccv2MdVO.s:126    .text:0000000000000044 .L0 
     /tmp/ccv2MdVO.s:128    .text:0000000000000048 .L0 
     /tmp/ccv2MdVO.s:130    .text:0000000000000048 .L0 
     /tmp/ccv2MdVO.s:131    .text:0000000000000048 .L0 
     /tmp/ccv2MdVO.s:134    .text:0000000000000050 .L0 
GAS LISTING /tmp/ccv2MdVO.s 			page 34


     /tmp/ccv2MdVO.s:137    .text:0000000000000054 .L0 
     /tmp/ccv2MdVO.s:138    .text:0000000000000058 .L0 
     /tmp/ccv2MdVO.s:140    .text:000000000000005c .L0 
     /tmp/ccv2MdVO.s:141    .text:000000000000005c .L0 
     /tmp/ccv2MdVO.s:143    .text:0000000000000060 .L0 
     /tmp/ccv2MdVO.s:148    .text:0000000000000068 .L0 
     /tmp/ccv2MdVO.s:155    .text._ZN14PeriodicThreadD2Ev:0000000000000000 _ZN14PeriodicThreadD2Ev
     /tmp/ccv2MdVO.s:158    .text._ZN14PeriodicThreadD2Ev:0000000000000000 .L0 
     /tmp/ccv2MdVO.s:160    .text._ZN14PeriodicThreadD2Ev:0000000000000000 .L0 
     /tmp/ccv2MdVO.s:161    .text._ZN14PeriodicThreadD2Ev:0000000000000004 .L0 
     /tmp/ccv2MdVO.s:164    .text._ZN14PeriodicThreadD2Ev:000000000000000c .L0 
     /tmp/ccv2MdVO.s:165    .text._ZN14PeriodicThreadD2Ev:000000000000000c .L0 
     /tmp/ccv2MdVO.s:167    .text._ZN14PeriodicThreadD2Ev:0000000000000010 .L0 
     /tmp/ccv2MdVO.s:1326   .data.rel.ro.local._ZTV14PeriodicThread:0000000000000000 _ZTV14PeriodicThread
     /tmp/ccv2MdVO.s:170    .text._ZN14PeriodicThreadD2Ev:0000000000000010 .L0 
     /tmp/ccv2MdVO.s:176    .text._ZN14PeriodicThreadD2Ev:0000000000000028 .L0 
     /tmp/ccv2MdVO.s:178    .text._ZN14PeriodicThreadD2Ev:000000000000002c .L0 
     /tmp/ccv2MdVO.s:179    .text._ZN14PeriodicThreadD2Ev:000000000000002c .L0 
     /tmp/ccv2MdVO.s:181    .text._ZN14PeriodicThreadD2Ev:0000000000000030 .L0 
     /tmp/ccv2MdVO.s:183    .text._ZN14PeriodicThreadD2Ev:0000000000000034 .L0 
     /tmp/ccv2MdVO.s:155    .text._ZN14PeriodicThreadD2Ev:0000000000000000 _ZN14PeriodicThreadD1Ev
     /tmp/ccv2MdVO.s:192    .text:0000000000000068 _ZN9SemaphoreD2Ev
     /tmp/ccv2MdVO.s:195    .text:0000000000000068 .L0 
     /tmp/ccv2MdVO.s:6238   .data.rel.local.DW.ref.__gxx_personality_v0:0000000000000000 DW.ref.__gxx_personality_v0
     /tmp/ccv2MdVO.s:199    .text:0000000000000068 .L0 
     /tmp/ccv2MdVO.s:200    .text:000000000000006c .L0 
     /tmp/ccv2MdVO.s:204    .text:0000000000000078 .L0 
     /tmp/ccv2MdVO.s:205    .text:0000000000000078 .L0 
     /tmp/ccv2MdVO.s:206    .text:0000000000000078 .L0 
     /tmp/ccv2MdVO.s:208    .text:000000000000007c .L0 
     /tmp/ccv2MdVO.s:1316   .data.rel.ro.local._ZTV9Semaphore:0000000000000000 _ZTV9Semaphore
     /tmp/ccv2MdVO.s:212    .text:0000000000000080 .L0 
     /tmp/ccv2MdVO.s:215    .text:000000000000008c .L0 
     /tmp/ccv2MdVO.s:216    .text:000000000000008c .L0 
     /tmp/ccv2MdVO.s:221    .text:0000000000000098 .L0 
     /tmp/ccv2MdVO.s:222    .text:0000000000000098 .L0 
     /tmp/ccv2MdVO.s:225    .text:000000000000009c .L0 
     /tmp/ccv2MdVO.s:232    .text:00000000000000a0 .L0 
     /tmp/ccv2MdVO.s:236    .text:00000000000000a0 .L0 
     /tmp/ccv2MdVO.s:237    .text:00000000000000a0 .L0 
     /tmp/ccv2MdVO.s:238    .text:00000000000000a0 .L0 
     /tmp/ccv2MdVO.s:242    .text:00000000000000a4 .L0 
     /tmp/ccv2MdVO.s:246    .text:00000000000000a8 .L0 
     /tmp/ccv2MdVO.s:247    .text:00000000000000a8 .L0 
     /tmp/ccv2MdVO.s:248    .text:00000000000000a8 .L0 
     /tmp/ccv2MdVO.s:250    .text:00000000000000ac .L0 
     /tmp/ccv2MdVO.s:252    .text:00000000000000b0 .L0 
     /tmp/ccv2MdVO.s:253    .text:00000000000000b0 .L0 
     /tmp/ccv2MdVO.s:258    .text:00000000000000b4 .L0 
     /tmp/ccv2MdVO.s:259    .text:00000000000000b4 .L0 
     /tmp/ccv2MdVO.s:262    .text:00000000000000bc .L0 
     /tmp/ccv2MdVO.s:271    .text:00000000000000c0 .L0 
     /tmp/ccv2MdVO.s:277    .text:00000000000000cc .L0 
     /tmp/ccv2MdVO.s:278    .text:00000000000000d0 .L0 
     /tmp/ccv2MdVO.s:280    .text:00000000000000d4 .L0 
     /tmp/ccv2MdVO.s:281    .text:00000000000000d4 .L0 
     /tmp/ccv2MdVO.s:283    .text:00000000000000d8 .L0 
GAS LISTING /tmp/ccv2MdVO.s 			page 35


     /tmp/ccv2MdVO.s:285    .text:00000000000000dc .L0 
     /tmp/ccv2MdVO.s:287    .text:00000000000000e0 .L0 
     /tmp/ccv2MdVO.s:192    .text:0000000000000068 _ZN9SemaphoreD1Ev
     /tmp/ccv2MdVO.s:303    .text:00000000000000e0 _Znwm
     /tmp/ccv2MdVO.s:306    .text:00000000000000e0 .L0 
     /tmp/ccv2MdVO.s:308    .text:00000000000000e0 .L0 
     /tmp/ccv2MdVO.s:309    .text:00000000000000e4 .L0 
     /tmp/ccv2MdVO.s:312    .text:00000000000000ec .L0 
     /tmp/ccv2MdVO.s:313    .text:00000000000000ec .L0 
     /tmp/ccv2MdVO.s:315    .text:00000000000000f0 .L0 
     /tmp/ccv2MdVO.s:317    .text:00000000000000f0 .L0 
     /tmp/ccv2MdVO.s:318    .text:00000000000000f0 .L0 
     /tmp/ccv2MdVO.s:321    .text:00000000000000f8 .L0 
     /tmp/ccv2MdVO.s:322    .text:00000000000000fc .L0 
     /tmp/ccv2MdVO.s:324    .text:0000000000000100 .L0 
     /tmp/ccv2MdVO.s:325    .text:0000000000000100 .L0 
     /tmp/ccv2MdVO.s:327    .text:0000000000000104 .L0 
     /tmp/ccv2MdVO.s:329    .text:0000000000000108 .L0 
     /tmp/ccv2MdVO.s:335    .text:0000000000000108 _Znam
     /tmp/ccv2MdVO.s:338    .text:0000000000000108 .L0 
     /tmp/ccv2MdVO.s:340    .text:0000000000000108 .L0 
     /tmp/ccv2MdVO.s:341    .text:000000000000010c .L0 
     /tmp/ccv2MdVO.s:344    .text:0000000000000114 .L0 
     /tmp/ccv2MdVO.s:345    .text:0000000000000114 .L0 
     /tmp/ccv2MdVO.s:347    .text:0000000000000118 .L0 
     /tmp/ccv2MdVO.s:349    .text:0000000000000118 .L0 
     /tmp/ccv2MdVO.s:350    .text:0000000000000118 .L0 
     /tmp/ccv2MdVO.s:353    .text:0000000000000120 .L0 
     /tmp/ccv2MdVO.s:354    .text:0000000000000124 .L0 
     /tmp/ccv2MdVO.s:356    .text:0000000000000128 .L0 
     /tmp/ccv2MdVO.s:357    .text:0000000000000128 .L0 
     /tmp/ccv2MdVO.s:359    .text:000000000000012c .L0 
     /tmp/ccv2MdVO.s:361    .text:0000000000000130 .L0 
     /tmp/ccv2MdVO.s:367    .text:0000000000000130 _ZdlPv
     /tmp/ccv2MdVO.s:370    .text:0000000000000130 .L0 
     /tmp/ccv2MdVO.s:374    .text:0000000000000130 .L0 
     /tmp/ccv2MdVO.s:375    .text:0000000000000134 .L0 
     /tmp/ccv2MdVO.s:378    .text:000000000000013c .L0 
     /tmp/ccv2MdVO.s:379    .text:000000000000013c .L0 
     /tmp/ccv2MdVO.s:381    .text:0000000000000140 .L0 
     /tmp/ccv2MdVO.s:383    .text:0000000000000140 .L0 
     /tmp/ccv2MdVO.s:384    .text:0000000000000140 .L0 
     /tmp/ccv2MdVO.s:387    .text:0000000000000148 .L0 
     /tmp/ccv2MdVO.s:388    .text:000000000000014c .L0 
     /tmp/ccv2MdVO.s:390    .text:0000000000000150 .L0 
     /tmp/ccv2MdVO.s:391    .text:0000000000000150 .L0 
     /tmp/ccv2MdVO.s:393    .text:0000000000000154 .L0 
     /tmp/ccv2MdVO.s:395    .text:0000000000000158 .L0 
     /tmp/ccv2MdVO.s:408    .text:0000000000000158 _ZN6ThreadD0Ev
     /tmp/ccv2MdVO.s:411    .text:0000000000000158 .L0 
     /tmp/ccv2MdVO.s:413    .text:0000000000000158 .L0 
     /tmp/ccv2MdVO.s:414    .text:000000000000015c .L0 
     /tmp/ccv2MdVO.s:418    .text:0000000000000168 .L0 
     /tmp/ccv2MdVO.s:419    .text:0000000000000168 .L0 
     /tmp/ccv2MdVO.s:420    .text:0000000000000168 .L0 
     /tmp/ccv2MdVO.s:422    .text:000000000000016c .L0 
     /tmp/ccv2MdVO.s:425    .text:0000000000000170 .L0 
GAS LISTING /tmp/ccv2MdVO.s 			page 36


     /tmp/ccv2MdVO.s:431    .text:0000000000000188 .L0 
     /tmp/ccv2MdVO.s:433    .text:000000000000018c .L0 
     /tmp/ccv2MdVO.s:434    .text:000000000000018c .L0 
     /tmp/ccv2MdVO.s:436    .text:0000000000000190 .L0 
     /tmp/ccv2MdVO.s:439    .text:0000000000000194 .L0 
     /tmp/ccv2MdVO.s:441    .text:0000000000000198 .L0 
     /tmp/ccv2MdVO.s:448    .text._ZN14PeriodicThreadD0Ev:0000000000000000 _ZN14PeriodicThreadD0Ev
     /tmp/ccv2MdVO.s:451    .text._ZN14PeriodicThreadD0Ev:0000000000000000 .L0 
     /tmp/ccv2MdVO.s:453    .text._ZN14PeriodicThreadD0Ev:0000000000000000 .L0 
     /tmp/ccv2MdVO.s:454    .text._ZN14PeriodicThreadD0Ev:0000000000000004 .L0 
     /tmp/ccv2MdVO.s:458    .text._ZN14PeriodicThreadD0Ev:0000000000000010 .L0 
     /tmp/ccv2MdVO.s:459    .text._ZN14PeriodicThreadD0Ev:0000000000000010 .L0 
     /tmp/ccv2MdVO.s:460    .text._ZN14PeriodicThreadD0Ev:0000000000000010 .L0 
     /tmp/ccv2MdVO.s:462    .text._ZN14PeriodicThreadD0Ev:0000000000000014 .L0 
     /tmp/ccv2MdVO.s:468    .text._ZN14PeriodicThreadD0Ev:0000000000000018 .L0 
     /tmp/ccv2MdVO.s:478    .text._ZN14PeriodicThreadD0Ev:000000000000003c .L0 
     /tmp/ccv2MdVO.s:480    .text._ZN14PeriodicThreadD0Ev:0000000000000040 .L0 
     /tmp/ccv2MdVO.s:481    .text._ZN14PeriodicThreadD0Ev:0000000000000040 .L0 
     /tmp/ccv2MdVO.s:483    .text._ZN14PeriodicThreadD0Ev:0000000000000044 .L0 
     /tmp/ccv2MdVO.s:486    .text._ZN14PeriodicThreadD0Ev:0000000000000048 .L0 
     /tmp/ccv2MdVO.s:488    .text._ZN14PeriodicThreadD0Ev:000000000000004c .L0 
     /tmp/ccv2MdVO.s:495    .text:0000000000000198 _ZN9SemaphoreD0Ev
     /tmp/ccv2MdVO.s:498    .text:0000000000000198 .L0 
     /tmp/ccv2MdVO.s:500    .text:0000000000000198 .L0 
     /tmp/ccv2MdVO.s:501    .text:000000000000019c .L0 
     /tmp/ccv2MdVO.s:505    .text:00000000000001a8 .L0 
     /tmp/ccv2MdVO.s:506    .text:00000000000001a8 .L0 
     /tmp/ccv2MdVO.s:507    .text:00000000000001a8 .L0 
     /tmp/ccv2MdVO.s:509    .text:00000000000001ac .L0 
     /tmp/ccv2MdVO.s:512    .text:00000000000001b0 .L0 
     /tmp/ccv2MdVO.s:518    .text:00000000000001c8 .L0 
     /tmp/ccv2MdVO.s:520    .text:00000000000001cc .L0 
     /tmp/ccv2MdVO.s:521    .text:00000000000001cc .L0 
     /tmp/ccv2MdVO.s:523    .text:00000000000001d0 .L0 
     /tmp/ccv2MdVO.s:526    .text:00000000000001d4 .L0 
     /tmp/ccv2MdVO.s:528    .text:00000000000001d8 .L0 
     /tmp/ccv2MdVO.s:534    .text:00000000000001d8 _ZdaPv
     /tmp/ccv2MdVO.s:537    .text:00000000000001d8 .L0 
     /tmp/ccv2MdVO.s:541    .text:00000000000001d8 .L0 
     /tmp/ccv2MdVO.s:542    .text:00000000000001dc .L0 
     /tmp/ccv2MdVO.s:545    .text:00000000000001e4 .L0 
     /tmp/ccv2MdVO.s:546    .text:00000000000001e4 .L0 
     /tmp/ccv2MdVO.s:548    .text:00000000000001e8 .L0 
     /tmp/ccv2MdVO.s:550    .text:00000000000001e8 .L0 
     /tmp/ccv2MdVO.s:551    .text:00000000000001e8 .L0 
     /tmp/ccv2MdVO.s:554    .text:00000000000001f0 .L0 
     /tmp/ccv2MdVO.s:555    .text:00000000000001f4 .L0 
     /tmp/ccv2MdVO.s:557    .text:00000000000001f8 .L0 
     /tmp/ccv2MdVO.s:558    .text:00000000000001f8 .L0 
     /tmp/ccv2MdVO.s:560    .text:00000000000001fc .L0 
     /tmp/ccv2MdVO.s:562    .text:0000000000000200 .L0 
     /tmp/ccv2MdVO.s:575    .text:0000000000000200 _ZN6ThreadC2EPFvPvES0_
     /tmp/ccv2MdVO.s:578    .text:0000000000000200 .L0 
     /tmp/ccv2MdVO.s:580    .text:0000000000000200 .L0 
     /tmp/ccv2MdVO.s:581    .text:0000000000000204 .L0 
     /tmp/ccv2MdVO.s:587    .text:0000000000000218 .L0 
     /tmp/ccv2MdVO.s:588    .text:0000000000000218 .L0 
GAS LISTING /tmp/ccv2MdVO.s 			page 37


     /tmp/ccv2MdVO.s:589    .text:0000000000000218 .L0 
     /tmp/ccv2MdVO.s:590    .text:0000000000000218 .L0 
     /tmp/ccv2MdVO.s:591    .text:0000000000000218 .L0 
     /tmp/ccv2MdVO.s:593    .text:000000000000021c .L0 
     /tmp/ccv2MdVO.s:599    .text:0000000000000228 .L0 
     /tmp/ccv2MdVO.s:603    .text:0000000000000234 .L0 
     /tmp/ccv2MdVO.s:604    .text:0000000000000234 .L0 
     /tmp/ccv2MdVO.s:606    .text:0000000000000238 .L0 
     /tmp/ccv2MdVO.s:607    .text:0000000000000238 .L0 
     /tmp/ccv2MdVO.s:610    .text:000000000000023c .L0 
     /tmp/ccv2MdVO.s:611    .text:000000000000023c .L0 
     /tmp/ccv2MdVO.s:614    .text:0000000000000248 .L0 
     /tmp/ccv2MdVO.s:615    .text:0000000000000248 .L0 
     /tmp/ccv2MdVO.s:623    .text:0000000000000258 .L0 
 src/syscall_cpp.cpp:42     .text:0000000000000258 .L0 
     /tmp/ccv2MdVO.s:629    .text:000000000000025c .L0 
 src/syscall_cpp.cpp:43     .text:000000000000025c .L0 
     /tmp/ccv2MdVO.s:634    .text:0000000000000260 .L0 
 src/syscall_cpp.cpp:45     .text:0000000000000260 .L0 
     /tmp/ccv2MdVO.s:639    .text:0000000000000264 .L0 
     /tmp/ccv2MdVO.s:641    .text:0000000000000264 .L0 
 src/syscall_cpp.cpp:46     .text:0000000000000268 .L0 
     /tmp/ccv2MdVO.s:649    .text:000000000000026c .L0 
 src/syscall_cpp.cpp:47     .text:000000000000026c .L0 
     /tmp/ccv2MdVO.s:654    .text:0000000000000270 .L0 
 src/syscall_cpp.cpp:54     .text:0000000000000270 .L0 
     /tmp/ccv2MdVO.s:662    .text:0000000000000274 .L0 
     /tmp/ccv2MdVO.s:663    .text:0000000000000278 .L0 
     /tmp/ccv2MdVO.s:664    .text:0000000000000278 .L0 
     /tmp/ccv2MdVO.s:666    .text:000000000000027c .L0 
     /tmp/ccv2MdVO.s:667    .text:000000000000027c .L0 
     /tmp/ccv2MdVO.s:669    .text:0000000000000280 .L0 
     /tmp/ccv2MdVO.s:672    .text:0000000000000284 .L0 
     /tmp/ccv2MdVO.s:675    .text:0000000000000288 .L0 
     /tmp/ccv2MdVO.s:678    .text:000000000000028c .L0 
     /tmp/ccv2MdVO.s:682    .text:0000000000000290 .L0 
     /tmp/ccv2MdVO.s:686    .text:0000000000000290 .L0 
     /tmp/ccv2MdVO.s:690    .text:0000000000000298 .L0 
     /tmp/ccv2MdVO.s:575    .text:0000000000000200 _ZN6ThreadC1EPFvPvES0_
     /tmp/ccv2MdVO.s:698    .text:0000000000000298 _ZN6Thread5startEv
     /tmp/ccv2MdVO.s:701    .text:0000000000000298 .L0 
     /tmp/ccv2MdVO.s:703    .text:0000000000000298 .L0 
     /tmp/ccv2MdVO.s:704    .text:000000000000029c .L0 
     /tmp/ccv2MdVO.s:706    .text:00000000000002a0 .L0 
     /tmp/ccv2MdVO.s:708    .text:00000000000002a4 .L0 
     /tmp/ccv2MdVO.s:710    .text:00000000000002a4 .L0 
     /tmp/ccv2MdVO.s:711    .text:00000000000002a4 .L0 
     /tmp/ccv2MdVO.s:713    .text:00000000000002a8 .L0 
     /tmp/ccv2MdVO.s:719    .text:00000000000002ac .L0 
     /tmp/ccv2MdVO.s:720    .text:00000000000002ac .L0 
     /tmp/ccv2MdVO.s:725    .text:00000000000002b0 .L0 
     /tmp/ccv2MdVO.s:727    .text:00000000000002b4 .L0 
 src/syscall_cpp.cpp:70     .text:00000000000002b4 .L0 
     /tmp/ccv2MdVO.s:734    .text:00000000000002b8 .L0 
 src/syscall_cpp.cpp:71     .text:00000000000002b8 .L0 
     /tmp/ccv2MdVO.s:739    .text:00000000000002bc .L0 
 src/syscall_cpp.cpp:73     .text:00000000000002bc .L0 
GAS LISTING /tmp/ccv2MdVO.s 			page 38


     /tmp/ccv2MdVO.s:744    .text:00000000000002c0 .L0 
     /tmp/ccv2MdVO.s:746    .text:00000000000002c0 .L0 
     /tmp/ccv2MdVO.s:749    .text:00000000000002c4 .L0 
     /tmp/ccv2MdVO.s:750    .text:00000000000002c8 .L0 
     /tmp/ccv2MdVO.s:751    .text:00000000000002c8 .L0 
     /tmp/ccv2MdVO.s:752    .text:00000000000002c8 .L0 
     /tmp/ccv2MdVO.s:754    .text:00000000000002cc .L0 
     /tmp/ccv2MdVO.s:758    .text:00000000000002d0 .L0 
     /tmp/ccv2MdVO.s:760    .text:00000000000002d0 .L0 
     /tmp/ccv2MdVO.s:768    .text:00000000000002e0 .L0 
     /tmp/ccv2MdVO.s:774    .text:00000000000002e0 _ZN6Thread4joinEv
     /tmp/ccv2MdVO.s:777    .text:00000000000002e0 .L0 
     /tmp/ccv2MdVO.s:779    .text:00000000000002e0 .L0 
     /tmp/ccv2MdVO.s:780    .text:00000000000002e0 .L0 
     /tmp/ccv2MdVO.s:781    .text:00000000000002e0 .L0 
     /tmp/ccv2MdVO.s:784    .text:00000000000002e4 .L0 
     /tmp/ccv2MdVO.s:786    .text:00000000000002e8 .L0 
     /tmp/ccv2MdVO.s:787    .text:00000000000002ec .L0 
     /tmp/ccv2MdVO.s:790    .text:00000000000002f4 .L0 
     /tmp/ccv2MdVO.s:791    .text:00000000000002f4 .L0 
     /tmp/ccv2MdVO.s:793    .text:00000000000002f8 .L0 
     /tmp/ccv2MdVO.s:795    .text:00000000000002f8 .L0 
     /tmp/ccv2MdVO.s:796    .text:00000000000002f8 .L0 
     /tmp/ccv2MdVO.s:799    .text:0000000000000300 .L0 
     /tmp/ccv2MdVO.s:800    .text:0000000000000304 .L0 
     /tmp/ccv2MdVO.s:802    .text:0000000000000308 .L0 
     /tmp/ccv2MdVO.s:803    .text:0000000000000308 .L0 
     /tmp/ccv2MdVO.s:805    .text:000000000000030c .L0 
     /tmp/ccv2MdVO.s:809    .text:0000000000000314 .L0 
     /tmp/ccv2MdVO.s:815    .text:0000000000000314 _ZN6Thread8dispatchEv
     /tmp/ccv2MdVO.s:818    .text:0000000000000314 .L0 
     /tmp/ccv2MdVO.s:819    .text:0000000000000314 .L0 
     /tmp/ccv2MdVO.s:820    .text:0000000000000318 .L0 
     /tmp/ccv2MdVO.s:823    .text:0000000000000320 .L0 
     /tmp/ccv2MdVO.s:824    .text:0000000000000320 .L0 
     /tmp/ccv2MdVO.s:826    .text:0000000000000324 .L0 
     /tmp/ccv2MdVO.s:828    .text:0000000000000324 .L0 
     /tmp/ccv2MdVO.s:829    .text:0000000000000324 .L0 
     /tmp/ccv2MdVO.s:832    .text:000000000000032c .L0 
     /tmp/ccv2MdVO.s:833    .text:0000000000000330 .L0 
     /tmp/ccv2MdVO.s:835    .text:0000000000000334 .L0 
     /tmp/ccv2MdVO.s:836    .text:0000000000000334 .L0 
     /tmp/ccv2MdVO.s:838    .text:0000000000000338 .L0 
     /tmp/ccv2MdVO.s:840    .text:000000000000033c .L0 
     /tmp/ccv2MdVO.s:846    .text:000000000000033c _ZN6Thread5sleepEm
     /tmp/ccv2MdVO.s:849    .text:000000000000033c .L0 
     /tmp/ccv2MdVO.s:851    .text:000000000000033c .L0 
     /tmp/ccv2MdVO.s:852    .text:0000000000000340 .L0 
     /tmp/ccv2MdVO.s:855    .text:0000000000000348 .L0 
     /tmp/ccv2MdVO.s:856    .text:0000000000000348 .L0 
     /tmp/ccv2MdVO.s:858    .text:000000000000034c .L0 
     /tmp/ccv2MdVO.s:860    .text:000000000000034c .L0 
     /tmp/ccv2MdVO.s:861    .text:000000000000034c .L0 
     /tmp/ccv2MdVO.s:864    .text:0000000000000354 .L0 
     /tmp/ccv2MdVO.s:865    .text:0000000000000354 .L0 
     /tmp/ccv2MdVO.s:867    .text:000000000000035c .L0 
     /tmp/ccv2MdVO.s:869    .text:0000000000000360 .L0 
GAS LISTING /tmp/ccv2MdVO.s 			page 39


     /tmp/ccv2MdVO.s:870    .text:0000000000000360 .L0 
     /tmp/ccv2MdVO.s:872    .text:0000000000000364 .L0 
     /tmp/ccv2MdVO.s:874    .text:0000000000000368 .L0 
     /tmp/ccv2MdVO.s:880    .text:0000000000000368 _ZN14PeriodicThread3runEv
     /tmp/ccv2MdVO.s:883    .text:0000000000000368 .L0 
     /tmp/ccv2MdVO.s:885    .text:0000000000000368 .L0 
     /tmp/ccv2MdVO.s:886    .text:000000000000036c .L0 
     /tmp/ccv2MdVO.s:890    .text:0000000000000378 .L0 
     /tmp/ccv2MdVO.s:891    .text:0000000000000378 .L0 
     /tmp/ccv2MdVO.s:892    .text:0000000000000378 .L0 
     /tmp/ccv2MdVO.s:894    .text:000000000000037c .L0 
     /tmp/ccv2MdVO.s:899    .text:0000000000000380 .L0 
     /tmp/ccv2MdVO.s:900    .text:0000000000000380 .L0 
     /tmp/ccv2MdVO.s:901    .text:0000000000000380 .L0 
     /tmp/ccv2MdVO.s:903    .text:0000000000000384 .L0 
     /tmp/ccv2MdVO.s:906    .text:000000000000038c .L0 
     /tmp/ccv2MdVO.s:907    .text:000000000000038c .L0 
     /tmp/ccv2MdVO.s:910    .text:0000000000000394 .L0 
     /tmp/ccv2MdVO.s:914    .text:000000000000039c .L0 
     /tmp/ccv2MdVO.s:915    .text:000000000000039c .L0 
     /tmp/ccv2MdVO.s:917    .text:00000000000003a0 .L0 
     /tmp/ccv2MdVO.s:920    .text:00000000000003a8 .L0 
     /tmp/ccv2MdVO.s:921    .text:00000000000003a8 .L0 
     /tmp/ccv2MdVO.s:924    .text:00000000000003b0 .L0 
     /tmp/ccv2MdVO.s:927    .text:00000000000003b4 .L0 
     /tmp/ccv2MdVO.s:928    .text:00000000000003b4 .L0 
     /tmp/ccv2MdVO.s:931    .text:00000000000003bc .L0 
     /tmp/ccv2MdVO.s:932    .text:00000000000003c0 .L0 
     /tmp/ccv2MdVO.s:934    .text:00000000000003c4 .L0 
     /tmp/ccv2MdVO.s:935    .text:00000000000003c4 .L0 
     /tmp/ccv2MdVO.s:937    .text:00000000000003c8 .L0 
     /tmp/ccv2MdVO.s:940    .text:00000000000003cc .L0 
     /tmp/ccv2MdVO.s:942    .text:00000000000003d0 .L0 
     /tmp/ccv2MdVO.s:948    .text:00000000000003d0 _ZN6ThreadC2Ev
     /tmp/ccv2MdVO.s:951    .text:00000000000003d0 .L0 
     /tmp/ccv2MdVO.s:953    .text:00000000000003d0 .L0 
     /tmp/ccv2MdVO.s:954    .text:00000000000003d4 .L0 
     /tmp/ccv2MdVO.s:958    .text:00000000000003e0 .L0 
     /tmp/ccv2MdVO.s:959    .text:00000000000003e0 .L0 
     /tmp/ccv2MdVO.s:960    .text:00000000000003e0 .L0 
     /tmp/ccv2MdVO.s:962    .text:00000000000003e4 .L0 
     /tmp/ccv2MdVO.s:966    .text:00000000000003e8 .L0 
     /tmp/ccv2MdVO.s:970    .text:00000000000003f4 .L0 
     /tmp/ccv2MdVO.s:971    .text:00000000000003f4 .L0 
     /tmp/ccv2MdVO.s:974    .text:0000000000000400 .L0 
     /tmp/ccv2MdVO.s:975    .text:0000000000000400 .L0 
     /tmp/ccv2MdVO.s:977    .text:0000000000000404 .L0 
     /tmp/ccv2MdVO.s:978    .text:0000000000000404 .L0 
     /tmp/ccv2MdVO.s:985    .text:0000000000000414 .L0 
 src/syscall_cpp.cpp:96     .text:0000000000000414 .L0 
     /tmp/ccv2MdVO.s:991    .text:0000000000000418 .L0 
     /tmp/ccv2MdVO.s:993    .text:0000000000000418 .L0 
 src/syscall_cpp.cpp:97     .text:000000000000041c .L0 
     /tmp/ccv2MdVO.s:1001   .text:0000000000000420 .L0 
     /tmp/ccv2MdVO.s:1003   .text:0000000000000420 .L0 
 src/syscall_cpp.cpp:99     .text:0000000000000424 .L0 
     /tmp/ccv2MdVO.s:1010   .text:0000000000000428 .L0 
GAS LISTING /tmp/ccv2MdVO.s 			page 40


     /tmp/ccv2MdVO.s:1012   .text:0000000000000428 .L0 
 src/syscall_cpp.cpp:100    .text:000000000000042c .L0 
     /tmp/ccv2MdVO.s:1020   .text:0000000000000430 .L0 
 src/syscall_cpp.cpp:101    .text:0000000000000430 .L0 
     /tmp/ccv2MdVO.s:1025   .text:0000000000000434 .L0 
 src/syscall_cpp.cpp:108    .text:0000000000000434 .L0 
     /tmp/ccv2MdVO.s:1033   .text:0000000000000438 .L0 
     /tmp/ccv2MdVO.s:1034   .text:000000000000043c .L0 
     /tmp/ccv2MdVO.s:1036   .text:0000000000000440 .L0 
     /tmp/ccv2MdVO.s:1037   .text:0000000000000440 .L0 
     /tmp/ccv2MdVO.s:1039   .text:0000000000000444 .L0 
     /tmp/ccv2MdVO.s:1042   .text:0000000000000448 .L0 
     /tmp/ccv2MdVO.s:1044   .text:000000000000044c .L0 
     /tmp/ccv2MdVO.s:948    .text:00000000000003d0 _ZN6ThreadC1Ev
     /tmp/ccv2MdVO.s:1052   .text:000000000000044c _ZN9SemaphoreC2Ej
     /tmp/ccv2MdVO.s:1055   .text:000000000000044c .L0 
     /tmp/ccv2MdVO.s:1057   .text:000000000000044c .L0 
     /tmp/ccv2MdVO.s:1058   .text:0000000000000450 .L0 
     /tmp/ccv2MdVO.s:1061   .text:0000000000000458 .L0 
     /tmp/ccv2MdVO.s:1062   .text:0000000000000458 .L0 
     /tmp/ccv2MdVO.s:1064   .text:000000000000045c .L0 
     /tmp/ccv2MdVO.s:1067   .text:000000000000045c .L0 
     /tmp/ccv2MdVO.s:1070   .text:0000000000000468 .L0 
     /tmp/ccv2MdVO.s:1071   .text:0000000000000468 .L0 
     /tmp/ccv2MdVO.s:1077   .text:0000000000000474 .L0 
     /tmp/ccv2MdVO.s:1078   .text:0000000000000478 .L0 
     /tmp/ccv2MdVO.s:1080   .text:000000000000047c .L0 
     /tmp/ccv2MdVO.s:1081   .text:000000000000047c .L0 
     /tmp/ccv2MdVO.s:1083   .text:0000000000000480 .L0 
     /tmp/ccv2MdVO.s:1085   .text:0000000000000484 .L0 
     /tmp/ccv2MdVO.s:1052   .text:000000000000044c _ZN9SemaphoreC1Ej
     /tmp/ccv2MdVO.s:1093   .text:0000000000000484 _ZN9Semaphore4waitEv
     /tmp/ccv2MdVO.s:1096   .text:0000000000000484 .L0 
     /tmp/ccv2MdVO.s:1098   .text:0000000000000484 .L0 
     /tmp/ccv2MdVO.s:1099   .text:0000000000000488 .L0 
     /tmp/ccv2MdVO.s:1102   .text:0000000000000490 .L0 
     /tmp/ccv2MdVO.s:1103   .text:0000000000000490 .L0 
     /tmp/ccv2MdVO.s:1105   .text:0000000000000494 .L0 
     /tmp/ccv2MdVO.s:1107   .text:0000000000000494 .L0 
     /tmp/ccv2MdVO.s:1108   .text:0000000000000494 .L0 
     /tmp/ccv2MdVO.s:1113   .text:00000000000004a0 .L0 
     /tmp/ccv2MdVO.s:1114   .text:00000000000004a4 .L0 
     /tmp/ccv2MdVO.s:1116   .text:00000000000004a8 .L0 
     /tmp/ccv2MdVO.s:1117   .text:00000000000004a8 .L0 
     /tmp/ccv2MdVO.s:1119   .text:00000000000004ac .L0 
     /tmp/ccv2MdVO.s:1121   .text:00000000000004b0 .L0 
     /tmp/ccv2MdVO.s:1127   .text:00000000000004b0 _ZN9Semaphore6signalEv
     /tmp/ccv2MdVO.s:1130   .text:00000000000004b0 .L0 
     /tmp/ccv2MdVO.s:1132   .text:00000000000004b0 .L0 
     /tmp/ccv2MdVO.s:1133   .text:00000000000004b4 .L0 
     /tmp/ccv2MdVO.s:1136   .text:00000000000004bc .L0 
     /tmp/ccv2MdVO.s:1137   .text:00000000000004bc .L0 
     /tmp/ccv2MdVO.s:1139   .text:00000000000004c0 .L0 
     /tmp/ccv2MdVO.s:1141   .text:00000000000004c0 .L0 
     /tmp/ccv2MdVO.s:1142   .text:00000000000004c0 .L0 
     /tmp/ccv2MdVO.s:1147   .text:00000000000004cc .L0 
     /tmp/ccv2MdVO.s:1148   .text:00000000000004d0 .L0 
GAS LISTING /tmp/ccv2MdVO.s 			page 41


     /tmp/ccv2MdVO.s:1150   .text:00000000000004d4 .L0 
     /tmp/ccv2MdVO.s:1151   .text:00000000000004d4 .L0 
     /tmp/ccv2MdVO.s:1153   .text:00000000000004d8 .L0 
     /tmp/ccv2MdVO.s:1155   .text:00000000000004dc .L0 
     /tmp/ccv2MdVO.s:1161   .text:00000000000004dc _ZN14PeriodicThread9terminateEv
     /tmp/ccv2MdVO.s:1164   .text:00000000000004dc .L0 
     /tmp/ccv2MdVO.s:1166   .text:00000000000004dc .L0 
     /tmp/ccv2MdVO.s:1167   .text:00000000000004e0 .L0 
     /tmp/ccv2MdVO.s:1169   .text:00000000000004e4 .L0 
     /tmp/ccv2MdVO.s:1171   .text:00000000000004e8 .L0 
     /tmp/ccv2MdVO.s:1173   .text:00000000000004e8 .L0 
     /tmp/ccv2MdVO.s:1174   .text:00000000000004e8 .L0 
     /tmp/ccv2MdVO.s:1177   .text:00000000000004f0 .L0 
     /tmp/ccv2MdVO.s:1178   .text:00000000000004f4 .L0 
     /tmp/ccv2MdVO.s:1179   .text:00000000000004f4 .L0 
     /tmp/ccv2MdVO.s:1181   .text:00000000000004f8 .L0 
     /tmp/ccv2MdVO.s:1183   .text:00000000000004fc .L0 
     /tmp/ccv2MdVO.s:1189   .text:00000000000004fc _ZN14PeriodicThreadC2Em
     /tmp/ccv2MdVO.s:1192   .text:00000000000004fc .L0 
     /tmp/ccv2MdVO.s:1194   .text:00000000000004fc .L0 
     /tmp/ccv2MdVO.s:1195   .text:0000000000000500 .L0 
     /tmp/ccv2MdVO.s:1200   .text:0000000000000510 .L0 
     /tmp/ccv2MdVO.s:1201   .text:0000000000000510 .L0 
     /tmp/ccv2MdVO.s:1202   .text:0000000000000510 .L0 
     /tmp/ccv2MdVO.s:1203   .text:0000000000000510 .L0 
     /tmp/ccv2MdVO.s:1205   .text:0000000000000514 .L0 
     /tmp/ccv2MdVO.s:1210   .text:000000000000051c .L0 
     /tmp/ccv2MdVO.s:1217   .text:0000000000000534 .L0 
     /tmp/ccv2MdVO.s:1218   .text:0000000000000534 .L0 
     /tmp/ccv2MdVO.s:1219   .text:0000000000000538 .L0 
     /tmp/ccv2MdVO.s:1221   .text:000000000000053c .L0 
     /tmp/ccv2MdVO.s:1222   .text:000000000000053c .L0 
     /tmp/ccv2MdVO.s:1224   .text:0000000000000540 .L0 
     /tmp/ccv2MdVO.s:1227   .text:0000000000000544 .L0 
     /tmp/ccv2MdVO.s:1230   .text:0000000000000548 .L0 
     /tmp/ccv2MdVO.s:1232   .text:000000000000054c .L0 
     /tmp/ccv2MdVO.s:1189   .text:00000000000004fc _ZN14PeriodicThreadC1Em
     /tmp/ccv2MdVO.s:1240   .text:000000000000054c _ZN7Console4getcEv
     /tmp/ccv2MdVO.s:1243   .text:000000000000054c .L0 
     /tmp/ccv2MdVO.s:1244   .text:000000000000054c .L0 
     /tmp/ccv2MdVO.s:1245   .text:0000000000000550 .L0 
     /tmp/ccv2MdVO.s:1248   .text:0000000000000558 .L0 
     /tmp/ccv2MdVO.s:1249   .text:0000000000000558 .L0 
     /tmp/ccv2MdVO.s:1251   .text:000000000000055c .L0 
     /tmp/ccv2MdVO.s:1253   .text:000000000000055c .L0 
     /tmp/ccv2MdVO.s:1254   .text:000000000000055c .L0 
     /tmp/ccv2MdVO.s:1257   .text:0000000000000564 .L0 
     /tmp/ccv2MdVO.s:1258   .text:0000000000000568 .L0 
     /tmp/ccv2MdVO.s:1260   .text:000000000000056c .L0 
     /tmp/ccv2MdVO.s:1261   .text:000000000000056c .L0 
     /tmp/ccv2MdVO.s:1263   .text:0000000000000570 .L0 
     /tmp/ccv2MdVO.s:1265   .text:0000000000000574 .L0 
     /tmp/ccv2MdVO.s:1271   .text:0000000000000574 _ZN7Console4putcEc
     /tmp/ccv2MdVO.s:1274   .text:0000000000000574 .L0 
     /tmp/ccv2MdVO.s:1276   .text:0000000000000574 .L0 
     /tmp/ccv2MdVO.s:1277   .text:0000000000000578 .L0 
     /tmp/ccv2MdVO.s:1280   .text:0000000000000580 .L0 
GAS LISTING /tmp/ccv2MdVO.s 			page 42


     /tmp/ccv2MdVO.s:1281   .text:0000000000000580 .L0 
     /tmp/ccv2MdVO.s:1283   .text:0000000000000584 .L0 
     /tmp/ccv2MdVO.s:1285   .text:0000000000000584 .L0 
     /tmp/ccv2MdVO.s:1286   .text:0000000000000584 .L0 
     /tmp/ccv2MdVO.s:1289   .text:000000000000058c .L0 
     /tmp/ccv2MdVO.s:1290   .text:0000000000000590 .L0 
     /tmp/ccv2MdVO.s:1292   .text:0000000000000594 .L0 
     /tmp/ccv2MdVO.s:1293   .text:0000000000000594 .L0 
     /tmp/ccv2MdVO.s:1295   .text:0000000000000598 .L0 
     /tmp/ccv2MdVO.s:1297   .text:000000000000059c .L0 
     /tmp/ccv2MdVO.s:32     .text._ZN6Thread3runEv:0000000000000018 .L0 
     /tmp/ccv2MdVO.s:57     .text._ZN14PeriodicThread18periodicActivationEv:0000000000000018 .L0 
     /tmp/ccv2MdVO.s:1338   .text:000000000000059c .L0 
     /tmp/ccv2MdVO.s:188    .text._ZN14PeriodicThreadD2Ev:0000000000000034 .L0 
     /tmp/ccv2MdVO.s:491    .text._ZN14PeriodicThreadD0Ev:000000000000004c .L0 
     /tmp/ccv2MdVO.s:75     .text:000000000000000c .L0 
     /tmp/ccv2MdVO.s:212    .text:0000000000000080 .L0 
     /tmp/ccv2MdVO.s:599    .text:0000000000000228 .L0 
     /tmp/ccv2MdVO.s:611    .text:000000000000023c .L0 
     /tmp/ccv2MdVO.s:966    .text:00000000000003e8 .L0 
     /tmp/ccv2MdVO.s:971    .text:00000000000003f4 .L0 
     /tmp/ccv2MdVO.s:1067   .text:000000000000045c .L0 
     /tmp/ccv2MdVO.s:1212   .text:0000000000000524 .L0 
     /tmp/ccv2MdVO.s:146    .text:0000000000000064 .L10
     /tmp/ccv2MdVO.s:274    .text:00000000000000cc .L15
     /tmp/ccv2MdVO.s:263    .text:00000000000000c0 .L17
     /tmp/ccv2MdVO.s:226    .text:00000000000000a0 .L18
     /tmp/ccv2MdVO.s:681    .text:0000000000000290 .L37
     /tmp/ccv2MdVO.s:621    .text:0000000000000258 .L36
     /tmp/ccv2MdVO.s:757    .text:00000000000002d0 .L41
     /tmp/ccv2MdVO.s:764    .text:00000000000002d8 .L42
     /tmp/ccv2MdVO.s:747    .text:00000000000002c4 .L40
     /tmp/ccv2MdVO.s:807    .text:0000000000000310 .L47
     /tmp/ccv2MdVO.s:925    .text:00000000000003b4 .L55
     /tmp/ccv2MdVO.s:897    .text:0000000000000380 .L56
     /tmp/ccv2MdVO.s:170    .text._ZN14PeriodicThreadD2Ev:0000000000000010 .L0 
     /tmp/ccv2MdVO.s:468    .text._ZN14PeriodicThreadD0Ev:0000000000000018 .L0 
     /tmp/ccv2MdVO.s:3796   .debug_abbrev:0000000000000000 .Ldebug_abbrev0
     /tmp/ccv2MdVO.s:6140   .debug_str:0000000000000a98 .LASF218
     /tmp/ccv2MdVO.s:5948   .debug_str:00000000000004de .LASF219
     /tmp/ccv2MdVO.s:6088   .debug_str:000000000000091c .LASF220
     /tmp/ccv2MdVO.s:5754   .debug_ranges:0000000000000000 .Ldebug_ranges0
     /tmp/ccv2MdVO.s:5774   .debug_line:0000000000000000 .Ldebug_line0
     /tmp/ccv2MdVO.s:6058   .debug_str:000000000000082e .LASF3
     /tmp/ccv2MdVO.s:5934   .debug_str:000000000000047b .LASF0
     /tmp/ccv2MdVO.s:5966   .debug_str:0000000000000560 .LASF1
     /tmp/ccv2MdVO.s:6074   .debug_str:00000000000008c0 .LASF2
     /tmp/ccv2MdVO.s:6084   .debug_str:00000000000008fa .LASF4
     /tmp/ccv2MdVO.s:5950   .debug_str:00000000000004f2 .LASF5
     /tmp/ccv2MdVO.s:5792   .debug_str:0000000000000094 .LASF6
     /tmp/ccv2MdVO.s:6036   .debug_str:0000000000000782 .LASF7
     /tmp/ccv2MdVO.s:6030   .debug_str:0000000000000747 .LASF8
     /tmp/ccv2MdVO.s:5958   .debug_str:0000000000000530 .LASF9
     /tmp/ccv2MdVO.s:5904   .debug_str:0000000000000393 .LASF10
     /tmp/ccv2MdVO.s:5916   .debug_str:00000000000003f8 .LASF11
     /tmp/ccv2MdVO.s:5836   .debug_str:00000000000001d4 .LASF12
     /tmp/ccv2MdVO.s:5896   .debug_str:0000000000000362 .LASF13
GAS LISTING /tmp/ccv2MdVO.s 			page 43


     /tmp/ccv2MdVO.s:5852   .debug_str:000000000000023e .LASF14
     /tmp/ccv2MdVO.s:5834   .debug_str:00000000000001c4 .LASF15
     /tmp/ccv2MdVO.s:6114   .debug_str:00000000000009f4 .LASF16
     /tmp/ccv2MdVO.s:5884   .debug_str:0000000000000303 .LASF17
     /tmp/ccv2MdVO.s:6104   .debug_str:00000000000009aa .LASF18
     /tmp/ccv2MdVO.s:6184   .debug_str:0000000000000ca6 .LASF19
     /tmp/ccv2MdVO.s:6094   .debug_str:0000000000000957 .LASF221
     /tmp/ccv2MdVO.s:6042   .debug_str:00000000000007b2 .LASF20
     /tmp/ccv2MdVO.s:5866   .debug_str:00000000000002b8 .LASF21
     /tmp/ccv2MdVO.s:5984   .debug_str:00000000000005f4 .LASF22
     /tmp/ccv2MdVO.s:5794   .debug_str:000000000000009b .LASF23
     /tmp/ccv2MdVO.s:5844   .debug_str:0000000000000204 .LASF24
     /tmp/ccv2MdVO.s:5824   .debug_str:000000000000017e .LASF25
     /tmp/ccv2MdVO.s:6120   .debug_str:0000000000000a1f .LASF108
     /tmp/ccv2MdVO.s:6112   .debug_str:00000000000009e7 .LASF26
     /tmp/ccv2MdVO.s:6196   .debug_str:0000000000000d12 .LASF28
     /tmp/ccv2MdVO.s:6022   .debug_str:0000000000000719 .LASF222
     /tmp/ccv2MdVO.s:5840   .debug_str:00000000000001e8 .LASF27
     /tmp/ccv2MdVO.s:5918   .debug_str:0000000000000406 .LASF29
     /tmp/ccv2MdVO.s:5936   .debug_str:0000000000000488 .LASF30
     /tmp/ccv2MdVO.s:5982   .debug_str:00000000000005e0 .LASF32
     /tmp/ccv2MdVO.s:5974   .debug_str:0000000000000594 .LASF31
     /tmp/ccv2MdVO.s:6054   .debug_str:0000000000000806 .LASF33
     /tmp/ccv2MdVO.s:6046   .debug_str:00000000000007d5 .LASF34
     /tmp/ccv2MdVO.s:5986   .debug_str:00000000000005fc .LASF35
     /tmp/ccv2MdVO.s:6194   .debug_str:0000000000000cfa .LASF36
     /tmp/ccv2MdVO.s:6198   .debug_str:0000000000000d34 .LASF37
     /tmp/ccv2MdVO.s:5850   .debug_str:000000000000022f .LASF38
     /tmp/ccv2MdVO.s:6170   .debug_str:0000000000000c40 .LASF39
     /tmp/ccv2MdVO.s:6026   .debug_str:0000000000000729 .LASF40
     /tmp/ccv2MdVO.s:6072   .debug_str:00000000000008a1 .LASF41
     /tmp/ccv2MdVO.s:5906   .debug_str:00000000000003a3 .LASF42
     /tmp/ccv2MdVO.s:6100   .debug_str:0000000000000981 .LASF44
     /tmp/ccv2MdVO.s:5778   .debug_str:000000000000002a .LASF46
     /tmp/ccv2MdVO.s:6128   .debug_str:0000000000000a3c .LASF48
     /tmp/ccv2MdVO.s:6168   .debug_str:0000000000000c2c .LASF43
     /tmp/ccv2MdVO.s:6018   .debug_str:00000000000006f3 .LASF45
     /tmp/ccv2MdVO.s:6166   .debug_str:0000000000000c21 .LASF47
     /tmp/ccv2MdVO.s:5898   .debug_str:0000000000000371 .LASF49
     /tmp/ccv2MdVO.s:6186   .debug_str:0000000000000caf .LASF50
     /tmp/ccv2MdVO.s:6086   .debug_str:0000000000000901 .LASF51
     /tmp/ccv2MdVO.s:5874   .debug_str:00000000000002d2 .LASF52
     /tmp/ccv2MdVO.s:5848   .debug_str:000000000000021c .LASF54
     /tmp/ccv2MdVO.s:6176   .debug_str:0000000000000c7c .LASF53
     /tmp/ccv2MdVO.s:5800   .debug_str:00000000000000d2 .LASF55
     /tmp/ccv2MdVO.s:5910   .debug_str:00000000000003ce .LASF56
     /tmp/ccv2MdVO.s:6060   .debug_str:0000000000000833 .LASF57
     /tmp/ccv2MdVO.s:6222   .debug_str:0000000000000dec .LASF58
     /tmp/ccv2MdVO.s:5912   .debug_str:00000000000003d9 .LASF59
     /tmp/ccv2MdVO.s:5782   .debug_str:000000000000003c .LASF60
     /tmp/ccv2MdVO.s:6014   .debug_str:00000000000006de .LASF61
     /tmp/ccv2MdVO.s:6208   .debug_str:0000000000000d84 .LASF223
     /tmp/ccv2MdVO.s:6160   .debug_str:0000000000000bef .LASF62
     /tmp/ccv2MdVO.s:5832   .debug_str:00000000000001b5 .LASF63
     /tmp/ccv2MdVO.s:6216   .debug_str:0000000000000dc4 .LASF64
     /tmp/ccv2MdVO.s:6172   .debug_str:0000000000000c5f .LASF65
     /tmp/ccv2MdVO.s:6146   .debug_str:0000000000000b86 .LASF66
GAS LISTING /tmp/ccv2MdVO.s 			page 44


     /tmp/ccv2MdVO.s:6138   .debug_str:0000000000000a88 .LASF67
     /tmp/ccv2MdVO.s:6028   .debug_str:000000000000073b .LASF68
     /tmp/ccv2MdVO.s:5890   .debug_str:0000000000000340 .LASF69
     /tmp/ccv2MdVO.s:6082   .debug_str:00000000000008ec .LASF70
     /tmp/ccv2MdVO.s:6182   .debug_str:0000000000000c9f .LASF71
     /tmp/ccv2MdVO.s:6002   .debug_str:0000000000000681 .LASF72
     /tmp/ccv2MdVO.s:6224   .debug_str:0000000000000df9 .LASF73
     /tmp/ccv2MdVO.s:6136   .debug_str:0000000000000a80 .LASF74
     /tmp/ccv2MdVO.s:5828   .debug_str:0000000000000197 .LASF75
     /tmp/ccv2MdVO.s:5860   .debug_str:000000000000027d .LASF101
     /tmp/ccv2MdVO.s:5786   .debug_str:0000000000000054 .LASF114
     /tmp/ccv2MdVO.s:6206   .debug_str:0000000000000d7e .LASF76
     /tmp/ccv2MdVO.s:6106   .debug_str:00000000000009c0 .LASF77
     /tmp/ccv2MdVO.s:5964   .debug_str:0000000000000558 .LASF78
     /tmp/ccv2MdVO.s:6012   .debug_str:00000000000006cb .LASF79
     /tmp/ccv2MdVO.s:5876   .debug_str:00000000000002db .LASF80
     /tmp/ccv2MdVO.s:5880   .debug_str:00000000000002e6 .LASF81
     /tmp/ccv2MdVO.s:6118   .debug_str:0000000000000a18 .LASF82
     /tmp/ccv2MdVO.s:5812   .debug_str:0000000000000130 .LASF83
     /tmp/ccv2MdVO.s:5870   .debug_str:00000000000002c4 .LASF84
     /tmp/ccv2MdVO.s:6004   .debug_str:000000000000068d .LASF85
     /tmp/ccv2MdVO.s:5882   .debug_str:00000000000002f6 .LASF86
     /tmp/ccv2MdVO.s:5788   .debug_str:000000000000007c .LASF87
     /tmp/ccv2MdVO.s:6024   .debug_str:000000000000071e .LASF88
     /tmp/ccv2MdVO.s:6156   .debug_str:0000000000000bcb .LASF89
     /tmp/ccv2MdVO.s:6150   .debug_str:0000000000000ba5 .LASF90
     /tmp/ccv2MdVO.s:5806   .debug_str:00000000000000ff .LASF91
     /tmp/ccv2MdVO.s:5932   .debug_str:0000000000000475 .LASF92
     /tmp/ccv2MdVO.s:6132   .debug_str:0000000000000a59 .LASF93
     /tmp/ccv2MdVO.s:5784   .debug_str:000000000000004c .LASF94
     /tmp/ccv2MdVO.s:5796   .debug_str:00000000000000a3 .LASF95
     /tmp/ccv2MdVO.s:6192   .debug_str:0000000000000ced .LASF96
     /tmp/ccv2MdVO.s:6164   .debug_str:0000000000000c11 .LASF97
     /tmp/ccv2MdVO.s:6078   .debug_str:00000000000008dd .LASF98
     /tmp/ccv2MdVO.s:5960   .debug_str:0000000000000543 .LASF99
     /tmp/ccv2MdVO.s:6016   .debug_str:00000000000006eb .LASF100
     /tmp/ccv2MdVO.s:5878   .debug_str:00000000000002e0 .LASF102
     /tmp/ccv2MdVO.s:6158   .debug_str:0000000000000be2 .LASF224
     /tmp/ccv2MdVO.s:5988   .debug_str:000000000000060e .LASF103
     /tmp/ccv2MdVO.s:6204   .debug_str:0000000000000d79 .LASF104
     /tmp/ccv2MdVO.s:5864   .debug_str:00000000000002a5 .LASF105
     /tmp/ccv2MdVO.s:5992   .debug_str:0000000000000622 .LASF131
     /tmp/ccv2MdVO.s:6202   .debug_str:0000000000000d66 .LASF132
     /tmp/ccv2MdVO.s:6124   .debug_str:0000000000000a2d .LASF106
     /tmp/ccv2MdVO.s:6006   .debug_str:00000000000006a3 .LASF107
     /tmp/ccv2MdVO.s:5868   .debug_str:00000000000002bf .LASF109
     /tmp/ccv2MdVO.s:5902   .debug_str:000000000000038e .LASF110
     /tmp/ccv2MdVO.s:5838   .debug_str:00000000000001e3 .LASF111
     /tmp/ccv2MdVO.s:5888   .debug_str:0000000000000322 .LASF112
     /tmp/ccv2MdVO.s:5862   .debug_str:000000000000028b .LASF113
     /tmp/ccv2MdVO.s:6044   .debug_str:00000000000007ba .LASF115
     /tmp/ccv2MdVO.s:5808   .debug_str:0000000000000117 .LASF116
     /tmp/ccv2MdVO.s:5962   .debug_str:0000000000000553 .LASF117
     /tmp/ccv2MdVO.s:5818   .debug_str:000000000000014e .LASF118
     /tmp/ccv2MdVO.s:6116   .debug_str:0000000000000a00 .LASF119
     /tmp/ccv2MdVO.s:6032   .debug_str:000000000000075a .LASF148
     /tmp/ccv2MdVO.s:5952   .debug_str:0000000000000504 .LASF120
GAS LISTING /tmp/ccv2MdVO.s 			page 45


     /tmp/ccv2MdVO.s:5856   .debug_str:0000000000000263 .LASF121
     /tmp/ccv2MdVO.s:5940   .debug_str:00000000000004a3 .LASF122
     /tmp/ccv2MdVO.s:5798   .debug_str:00000000000000b6 .LASF123
     /tmp/ccv2MdVO.s:5968   .debug_str:0000000000000573 .LASF124
     /tmp/ccv2MdVO.s:6000   .debug_str:0000000000000662 .LASF125
     /tmp/ccv2MdVO.s:5822   .debug_str:0000000000000175 .LASF126
     /tmp/ccv2MdVO.s:5998   .debug_str:0000000000000646 .LASF127
     /tmp/ccv2MdVO.s:5780   .debug_str:0000000000000035 .LASF128
     /tmp/ccv2MdVO.s:5978   .debug_str:00000000000005b3 .LASF129
     /tmp/ccv2MdVO.s:5854   .debug_str:000000000000024e .LASF130
     /tmp/ccv2MdVO.s:6188   .debug_str:0000000000000cbd .LASF133
     /tmp/ccv2MdVO.s:6152   .debug_str:0000000000000bb1 .LASF134
     /tmp/ccv2MdVO.s:5846   .debug_str:000000000000020d .LASF135
     /tmp/ccv2MdVO.s:6162   .debug_str:0000000000000bf7 .LASF136
     /tmp/ccv2MdVO.s:5942   .debug_str:00000000000004ab .LASF137
     /tmp/ccv2MdVO.s:6126   .debug_str:0000000000000a32 .LASF138
     /tmp/ccv2MdVO.s:5908   .debug_str:00000000000003ae .LASF139
     /tmp/ccv2MdVO.s:5956   .debug_str:0000000000000518 .LASF140
     /tmp/ccv2MdVO.s:5914   .debug_str:00000000000003e5 .LASF141
     /tmp/ccv2MdVO.s:5776   .debug_str:0000000000000000 .LASF225
     /tmp/ccv2MdVO.s:6190   .debug_str:0000000000000cd3 .LASF158
     /tmp/ccv2MdVO.s:5816   .debug_str:0000000000000147 .LASF142
     /tmp/ccv2MdVO.s:6010   .debug_str:00000000000006bb .LASF143
     /tmp/ccv2MdVO.s:6174   .debug_str:0000000000000c64 .LASF226
     /tmp/ccv2MdVO.s:5924   .debug_str:0000000000000444 .LASF144
     /tmp/ccv2MdVO.s:5820   .debug_str:0000000000000163 .LASF145
     /tmp/ccv2MdVO.s:6066   .debug_str:0000000000000875 .LASF165
     /tmp/ccv2MdVO.s:6228   .debug_str:0000000000000e11 .LASF146
     /tmp/ccv2MdVO.s:6098   .debug_str:0000000000000979 .LASF147
     /tmp/ccv2MdVO.s:5892   .debug_str:000000000000034d .LASF149
     /tmp/ccv2MdVO.s:6214   .debug_str:0000000000000dbe .LASF150
     /tmp/ccv2MdVO.s:5972   .debug_str:0000000000000581 .LASF151
     /tmp/ccv2MdVO.s:6130   .debug_str:0000000000000a54 .LASF152
     /tmp/ccv2MdVO.s:6040   .debug_str:00000000000007a0 .LASF153
     /tmp/ccv2MdVO.s:6210   .debug_str:0000000000000d9a .LASF154
     /tmp/ccv2MdVO.s:5970   .debug_str:000000000000057b .LASF155
     /tmp/ccv2MdVO.s:6142   .debug_str:0000000000000b5c .LASF156
     /tmp/ccv2MdVO.s:5944   .debug_str:00000000000004c6 .LASF157
     /tmp/ccv2MdVO.s:5928   .debug_str:0000000000000454 .LASF159
     /tmp/ccv2MdVO.s:5886   .debug_str:0000000000000319 .LASF160
     /tmp/ccv2MdVO.s:5872   .debug_str:00000000000002cd .LASF161
     /tmp/ccv2MdVO.s:6134   .debug_str:0000000000000a6a .LASF162
     /tmp/ccv2MdVO.s:6108   .debug_str:00000000000009c5 .LASF163
     /tmp/ccv2MdVO.s:6064   .debug_str:0000000000000860 .LASF164
     /tmp/ccv2MdVO.s:6218   .debug_str:0000000000000dca .LASF166
     /tmp/ccv2MdVO.s:6178   .debug_str:0000000000000c84 .LASF167
     /tmp/ccv2MdVO.s:6050   .debug_str:00000000000007f1 .LASF168
     /tmp/ccv2MdVO.s:6090   .debug_str:000000000000093a .LASF169
     /tmp/ccv2MdVO.s:6148   .debug_str:0000000000000b90 .LASF170
     /tmp/ccv2MdVO.s:6038   .debug_str:0000000000000789 .LASF171
     /tmp/ccv2MdVO.s:5930   .debug_str:0000000000000465 .LASF227
     /tmp/ccv2MdVO.s:5900   .debug_str:0000000000000389 .LASF172
     /tmp/ccv2MdVO.s:5790   .debug_str:000000000000008a .LASF173
     /tmp/ccv2MdVO.s:6230   .debug_str:0000000000000e28 .LASF174
     /tmp/ccv2MdVO.s:449    .text._ZN14PeriodicThreadD0Ev:0000000000000000 .LFB84
     /tmp/ccv2MdVO.s:489    .text._ZN14PeriodicThreadD0Ev:000000000000004c .LFE84
     /tmp/ccv2MdVO.s:5212   .debug_loc:0000000000000000 .LLST10
GAS LISTING /tmp/ccv2MdVO.s 			page 46


     /tmp/ccv2MdVO.s:465    .text._ZN14PeriodicThreadD0Ev:0000000000000018 .LBB46
     /tmp/ccv2MdVO.s:473    .text._ZN14PeriodicThreadD0Ev:000000000000002c .LBE46
     /tmp/ccv2MdVO.s:5230   .debug_loc:000000000000004c .LLST11
     /tmp/ccv2MdVO.s:471    .text._ZN14PeriodicThreadD0Ev:000000000000002c .LVL30
     /tmp/ccv2MdVO.s:476    .text._ZN14PeriodicThreadD0Ev:0000000000000038 .LVL31
     /tmp/ccv2MdVO.s:6070   .debug_str:0000000000000889 .LASF175
     /tmp/ccv2MdVO.s:156    .text._ZN14PeriodicThreadD2Ev:0000000000000000 .LFB82
     /tmp/ccv2MdVO.s:184    .text._ZN14PeriodicThreadD2Ev:0000000000000034 .LFE82
     /tmp/ccv2MdVO.s:5241   .debug_loc:0000000000000082 .LLST2
     /tmp/ccv2MdVO.s:173    .text._ZN14PeriodicThreadD2Ev:0000000000000024 .LVL8
     /tmp/ccv2MdVO.s:1272   .text:0000000000000574 .LFB80
     /tmp/ccv2MdVO.s:1298   .text:000000000000059c .LFE80
     /tmp/ccv2MdVO.s:5255   .debug_loc:00000000000000bb .LLST31
     /tmp/ccv2MdVO.s:1287   .text:000000000000058c .LVL92
     /tmp/ccv2MdVO.s:1241   .text:000000000000054c .LFB79
     /tmp/ccv2MdVO.s:1266   .text:0000000000000574 .LFE79
     /tmp/ccv2MdVO.s:1255   .text:0000000000000564 .LVL90
     /tmp/ccv2MdVO.s:881    .text:0000000000000368 .LFB78
     /tmp/ccv2MdVO.s:943    .text:00000000000003d0 .LFE78
     /tmp/ccv2MdVO.s:5269   .debug_loc:00000000000000f4 .LLST22
     /tmp/ccv2MdVO.s:912    .text:000000000000039c .LVL65
     /tmp/ccv2MdVO.s:922    .text:00000000000003b0 .LVL66
     /tmp/ccv2MdVO.s:929    .text:00000000000003bc .LVL67
     /tmp/ccv2MdVO.s:6110   .debug_str:00000000000009cf .LASF176
     /tmp/ccv2MdVO.s:1190   .text:00000000000004fc .LFB76
     /tmp/ccv2MdVO.s:1233   .text:000000000000054c .LFE76
     /tmp/ccv2MdVO.s:5287   .debug_loc:0000000000000140 .LLST29
     /tmp/ccv2MdVO.s:5305   .debug_loc:000000000000018c .LLST30
     /tmp/ccv2MdVO.s:1211   .text:0000000000000524 .LVL87
     /tmp/ccv2MdVO.s:1162   .text:00000000000004dc .LFB74
     /tmp/ccv2MdVO.s:1184   .text:00000000000004fc .LFE74
     /tmp/ccv2MdVO.s:1128   .text:00000000000004b0 .LFB73
     /tmp/ccv2MdVO.s:1156   .text:00000000000004dc .LFE73
     /tmp/ccv2MdVO.s:5324   .debug_loc:00000000000001d9 .LLST28
     /tmp/ccv2MdVO.s:1145   .text:00000000000004cc .LVL84
     /tmp/ccv2MdVO.s:1094   .text:0000000000000484 .LFB72
     /tmp/ccv2MdVO.s:1122   .text:00000000000004b0 .LFE72
     /tmp/ccv2MdVO.s:5338   .debug_loc:0000000000000212 .LLST27
     /tmp/ccv2MdVO.s:1111   .text:00000000000004a0 .LVL81
     /tmp/ccv2MdVO.s:5976   .debug_str:00000000000005a1 .LASF177
     /tmp/ccv2MdVO.s:496    .text:0000000000000198 .LFB71
     /tmp/ccv2MdVO.s:529    .text:00000000000001d8 .LFE71
     /tmp/ccv2MdVO.s:5352   .debug_loc:000000000000024b .LLST12
     /tmp/ccv2MdVO.s:513    .text:00000000000001b8 .LVL34
     /tmp/ccv2MdVO.s:516    .text:00000000000001c4 .LVL35
     /tmp/ccv2MdVO.s:5802   .debug_str:00000000000000e4 .LASF178
     /tmp/ccv2MdVO.s:193    .text:0000000000000068 .LFB69
     /tmp/ccv2MdVO.s:288    .text:00000000000000e0 .LFE69
     /tmp/ccv2MdVO.s:5370   .debug_loc:0000000000000297 .LLST3
     /tmp/ccv2MdVO.s:227    .text:00000000000000a0 .LBB38
     /tmp/ccv2MdVO.s:269    .text:00000000000000c0 .LBE38
     /tmp/ccv2MdVO.s:228    .text:00000000000000a0 .LBB39
     /tmp/ccv2MdVO.s:268    .text:00000000000000c0 .LBE39
     /tmp/ccv2MdVO.s:234    .text:00000000000000a0 .LBB41
     /tmp/ccv2MdVO.s:240    .text:00000000000000a4 .LBE41
     /tmp/ccv2MdVO.s:243    .text:00000000000000a8 .LBB43
     /tmp/ccv2MdVO.s:266    .text:00000000000000c0 .LBE43
GAS LISTING /tmp/ccv2MdVO.s 			page 47


     /tmp/ccv2MdVO.s:5388   .debug_loc:00000000000002e3 .LLST4
     /tmp/ccv2MdVO.s:255    .text:00000000000000b4 .LBB44
     /tmp/ccv2MdVO.s:265    .text:00000000000000c0 .LBE44
     /tmp/ccv2MdVO.s:5395   .debug_loc:0000000000000306 .LLST5
     /tmp/ccv2MdVO.s:260    .text:00000000000000bc .LVL16
     /tmp/ccv2MdVO.s:219    .text:0000000000000098 .LVL11
     /tmp/ccv2MdVO.s:273    .text:00000000000000cc .LVL17
     /tmp/ccv2MdVO.s:5830   .debug_str:00000000000001a8 .LASF194
     /tmp/ccv2MdVO.s:5814   .debug_str:0000000000000142 .LASF179
     /tmp/ccv2MdVO.s:5842   .debug_str:00000000000001f2 .LASF180
     /tmp/ccv2MdVO.s:1053   .text:000000000000044c .LFB63
     /tmp/ccv2MdVO.s:1086   .text:0000000000000484 .LFE63
     /tmp/ccv2MdVO.s:5402   .debug_loc:0000000000000329 .LLST25
     /tmp/ccv2MdVO.s:5422   .debug_loc:0000000000000377 .LLST26
     /tmp/ccv2MdVO.s:1074   .text:0000000000000474 .LVL78
     /tmp/ccv2MdVO.s:114    .text:0000000000000034 .LFB61
     /tmp/ccv2MdVO.s:149    .text:0000000000000068 .LFE61
     /tmp/ccv2MdVO.s:6068   .debug_str:0000000000000882 .LASF181
     /tmp/ccv2MdVO.s:5436   .debug_loc:00000000000003b0 .LLST1
     /tmp/ccv2MdVO.s:135    .text:0000000000000054 .LVL5
     /tmp/ccv2MdVO.s:6076   .debug_str:00000000000008ce .LASF182
     /tmp/ccv2MdVO.s:949    .text:00000000000003d0 .LFB59
     /tmp/ccv2MdVO.s:1045   .text:000000000000044c .LFE59
     /tmp/ccv2MdVO.s:5454   .debug_loc:00000000000003fc .LLST23
     /tmp/ccv2MdVO.s:981    .text:0000000000000410 .LVL71
     /tmp/ccv2MdVO.s:968    .text:00000000000003f4 .LBB55
     /tmp/ccv2MdVO.s:1030   .text:0000000000000438 .LBE55
     /tmp/ccv2MdVO.s:5478   .debug_loc:000000000000045d .LLST24
     /tmp/ccv2MdVO.s:847    .text:000000000000033c .LFB57
     /tmp/ccv2MdVO.s:875    .text:0000000000000368 .LFE57
     /tmp/ccv2MdVO.s:5485   .debug_loc:0000000000000480 .LLST21
     /tmp/ccv2MdVO.s:862    .text:0000000000000354 .LVL62
     /tmp/ccv2MdVO.s:816    .text:0000000000000314 .LFB56
     /tmp/ccv2MdVO.s:841    .text:000000000000033c .LFE56
     /tmp/ccv2MdVO.s:830    .text:000000000000032c .LVL60
     /tmp/ccv2MdVO.s:775    .text:00000000000002e0 .LFB55
     /tmp/ccv2MdVO.s:810    .text:0000000000000314 .LFE55
     /tmp/ccv2MdVO.s:5499   .debug_loc:00000000000004b9 .LLST20
     /tmp/ccv2MdVO.s:797    .text:0000000000000300 .LVL59
     /tmp/ccv2MdVO.s:699    .text:0000000000000298 .LFB54
     /tmp/ccv2MdVO.s:769    .text:00000000000002e0 .LFE54
     /tmp/ccv2MdVO.s:5513   .debug_loc:00000000000004f2 .LLST18
     /tmp/ccv2MdVO.s:715    .text:00000000000002ac .LBB52
     /tmp/ccv2MdVO.s:723    .text:00000000000002b0 .LBE52
     /tmp/ccv2MdVO.s:5549   .debug_loc:000000000000057d .LLST19
     /tmp/ccv2MdVO.s:5980   .debug_str:00000000000005d1 .LASF183
     /tmp/ccv2MdVO.s:409    .text:0000000000000158 .LFB53
     /tmp/ccv2MdVO.s:442    .text:0000000000000198 .LFE53
     /tmp/ccv2MdVO.s:5556   .debug_loc:00000000000005a0 .LLST9
     /tmp/ccv2MdVO.s:426    .text:0000000000000178 .LVL25
     /tmp/ccv2MdVO.s:429    .text:0000000000000184 .LVL26
     /tmp/ccv2MdVO.s:6200   .debug_str:0000000000000d57 .LASF184
     /tmp/ccv2MdVO.s:62     .text:0000000000000000 .LFB51
     /tmp/ccv2MdVO.s:106    .text:0000000000000034 .LFE51
     /tmp/ccv2MdVO.s:5574   .debug_loc:00000000000005ec .LLST0
     /tmp/ccv2MdVO.s:6144   .debug_str:0000000000000b6f .LASF185
     /tmp/ccv2MdVO.s:576    .text:0000000000000200 .LFB48
GAS LISTING /tmp/ccv2MdVO.s 			page 48


     /tmp/ccv2MdVO.s:691    .text:0000000000000298 .LFE48
     /tmp/ccv2MdVO.s:5588   .debug_loc:0000000000000625 .LLST14
     /tmp/ccv2MdVO.s:5616   .debug_loc:0000000000000699 .LLST15
     /tmp/ccv2MdVO.s:5638   .debug_loc:00000000000006f8 .LLST16
     /tmp/ccv2MdVO.s:618    .text:0000000000000254 .LVL42
     /tmp/ccv2MdVO.s:5660   .debug_loc:0000000000000757 .LLST17
     /tmp/ccv2MdVO.s:6102   .debug_str:0000000000000997 .LASF186
     /tmp/ccv2MdVO.s:5954   .debug_str:0000000000000511 .LASF187
     /tmp/ccv2MdVO.s:535    .text:00000000000001d8 .LFB46
     /tmp/ccv2MdVO.s:563    .text:0000000000000200 .LFE46
     /tmp/ccv2MdVO.s:5677   .debug_loc:00000000000007a2 .LLST13
     /tmp/ccv2MdVO.s:552    .text:00000000000001f0 .LVL38
     /tmp/ccv2MdVO.s:6020   .debug_str:0000000000000712 .LASF188
     /tmp/ccv2MdVO.s:368    .text:0000000000000130 .LFB45
     /tmp/ccv2MdVO.s:396    .text:0000000000000158 .LFE45
     /tmp/ccv2MdVO.s:5691   .debug_loc:00000000000007db .LLST8
     /tmp/ccv2MdVO.s:385    .text:0000000000000148 .LVL23
     /tmp/ccv2MdVO.s:5826   .debug_str:0000000000000187 .LASF189
     /tmp/ccv2MdVO.s:6122   .debug_str:0000000000000a27 .LASF190
     /tmp/ccv2MdVO.s:336    .text:0000000000000108 .LFB44
     /tmp/ccv2MdVO.s:362    .text:0000000000000130 .LFE44
     /tmp/ccv2MdVO.s:5858   .debug_str:0000000000000278 .LASF191
     /tmp/ccv2MdVO.s:5705   .debug_loc:0000000000000814 .LLST7
     /tmp/ccv2MdVO.s:351    .text:0000000000000120 .LVL21
     /tmp/ccv2MdVO.s:5894   .debug_str:000000000000035c .LASF192
     /tmp/ccv2MdVO.s:304    .text:00000000000000e0 .LFB43
     /tmp/ccv2MdVO.s:330    .text:0000000000000108 .LFE43
     /tmp/ccv2MdVO.s:5719   .debug_loc:000000000000084d .LLST6
     /tmp/ccv2MdVO.s:319    .text:00000000000000f8 .LVL19
     /tmp/ccv2MdVO.s:6080   .debug_str:00000000000008e7 .LASF193
     /tmp/ccv2MdVO.s:6154   .debug_str:0000000000000bb6 .LASF195
     /tmp/ccv2MdVO.s:37     .text._ZN14PeriodicThread18periodicActivationEv:0000000000000000 .LFB1
     /tmp/ccv2MdVO.s:55     .text._ZN14PeriodicThread18periodicActivationEv:0000000000000018 .LFE1
     /tmp/ccv2MdVO.s:11     .text._ZN6Thread3runEv:0000000000000000 .LFB0
     /tmp/ccv2MdVO.s:30     .text._ZN6Thread3runEv:0000000000000018 .LFE0
     /tmp/ccv2MdVO.s:5946   .debug_str:00000000000004d5 .LASF196
     /tmp/ccv2MdVO.s:6180   .debug_str:0000000000000c96 .LASF197
     /tmp/ccv2MdVO.s:5938   .debug_str:0000000000000492 .LASF198
     /tmp/ccv2MdVO.s:5990   .debug_str:0000000000000616 .LASF199
     /tmp/ccv2MdVO.s:6062   .debug_str:000000000000084b .LASF200
     /tmp/ccv2MdVO.s:5922   .debug_str:0000000000000439 .LASF201
     /tmp/ccv2MdVO.s:6220   .debug_str:0000000000000dda .LASF202
     /tmp/ccv2MdVO.s:6226   .debug_str:0000000000000e08 .LASF203
     /tmp/ccv2MdVO.s:6212   .debug_str:0000000000000db0 .LASF204
     /tmp/ccv2MdVO.s:5926   .debug_str:000000000000044b .LASF205
     /tmp/ccv2MdVO.s:5810   .debug_str:000000000000011d .LASF206
     /tmp/ccv2MdVO.s:6052   .debug_str:00000000000007fc .LASF207
     /tmp/ccv2MdVO.s:6048   .debug_str:00000000000007dd .LASF208
     /tmp/ccv2MdVO.s:5804   .debug_str:00000000000000f6 .LASF209
     /tmp/ccv2MdVO.s:5920   .debug_str:000000000000042b .LASF210
     /tmp/ccv2MdVO.s:5994   .debug_str:0000000000000627 .LASF211
     /tmp/ccv2MdVO.s:6034   .debug_str:0000000000000772 .LASF212
     /tmp/ccv2MdVO.s:6092   .debug_str:000000000000094c .LASF213
     /tmp/ccv2MdVO.s:5996   .debug_str:0000000000000631 .LASF214
     /tmp/ccv2MdVO.s:6056   .debug_str:000000000000081e .LASF215
     /tmp/ccv2MdVO.s:6096   .debug_str:0000000000000964 .LASF216
     /tmp/ccv2MdVO.s:6008   .debug_str:00000000000006af .LASF217
GAS LISTING /tmp/ccv2MdVO.s 			page 49


     /tmp/ccv2MdVO.s:452    .text._ZN14PeriodicThreadD0Ev:0000000000000000 .LVL28
     /tmp/ccv2MdVO.s:484    .text._ZN14PeriodicThreadD0Ev:0000000000000044 .LVL32
     /tmp/ccv2MdVO.s:464    .text._ZN14PeriodicThreadD0Ev:0000000000000018 .LVL29
     /tmp/ccv2MdVO.s:159    .text._ZN14PeriodicThreadD2Ev:0000000000000000 .LVL7
     /tmp/ccv2MdVO.s:1275   .text:0000000000000574 .LVL91
     /tmp/ccv2MdVO.s:884    .text:0000000000000368 .LVL63
     /tmp/ccv2MdVO.s:896    .text:0000000000000380 .LVL64
     /tmp/ccv2MdVO.s:938    .text:00000000000003c8 .LVL68
     /tmp/ccv2MdVO.s:1193   .text:00000000000004fc .LVL86
     /tmp/ccv2MdVO.s:1225   .text:0000000000000540 .LVL88
     /tmp/ccv2MdVO.s:1228   .text:0000000000000544 .LVL89
     /tmp/ccv2MdVO.s:1131   .text:00000000000004b0 .LVL82
     /tmp/ccv2MdVO.s:1143   .text:00000000000004c4 .LVL83
     /tmp/ccv2MdVO.s:1097   .text:0000000000000484 .LVL79
     /tmp/ccv2MdVO.s:1109   .text:0000000000000498 .LVL80
     /tmp/ccv2MdVO.s:499    .text:0000000000000198 .LVL33
     /tmp/ccv2MdVO.s:524    .text:00000000000001d0 .LVL36
     /tmp/ccv2MdVO.s:198    .text:0000000000000068 .LVL9
     /tmp/ccv2MdVO.s:217    .text:0000000000000090 .LVL10
     /tmp/ccv2MdVO.s:223    .text:000000000000009c .LVL12
     /tmp/ccv2MdVO.s:245    .text:00000000000000a8 .LVL14
     /tmp/ccv2MdVO.s:254    .text:00000000000000b4 .LVL15
     /tmp/ccv2MdVO.s:1056   .text:000000000000044c .LVL76
     /tmp/ccv2MdVO.s:1072   .text:000000000000046c .LVL77
     /tmp/ccv2MdVO.s:117    .text:0000000000000034 .LVL4
     /tmp/ccv2MdVO.s:145    .text:0000000000000064 .LVL6
     /tmp/ccv2MdVO.s:952    .text:00000000000003d0 .LVL69
     /tmp/ccv2MdVO.s:979    .text:0000000000000408 .LVL70
     /tmp/ccv2MdVO.s:1013   .text:000000000000042c .LVL74
     /tmp/ccv2MdVO.s:1040   .text:0000000000000444 .LVL75
     /tmp/ccv2MdVO.s:983    .text:0000000000000414 .LVL72
     /tmp/ccv2MdVO.s:994    .text:000000000000041c .LVL73
     /tmp/ccv2MdVO.s:850    .text:000000000000033c .LVL61
     /tmp/ccv2MdVO.s:778    .text:00000000000002e0 .LVL57
     /tmp/ccv2MdVO.s:782    .text:00000000000002e4 .LVL58
     /tmp/ccv2MdVO.s:702    .text:0000000000000298 .LVL49
     /tmp/ccv2MdVO.s:732    .text:00000000000002b8 .LVL52
     /tmp/ccv2MdVO.s:756    .text:00000000000002d0 .LVL53
     /tmp/ccv2MdVO.s:761    .text:00000000000002d4 .LVL54
     /tmp/ccv2MdVO.s:763    .text:00000000000002d8 .LVL55
     /tmp/ccv2MdVO.s:766    .text:00000000000002dc .LVL56
     /tmp/ccv2MdVO.s:714    .text:00000000000002ac .LVL50
     /tmp/ccv2MdVO.s:721    .text:00000000000002b0 .LVL51
     /tmp/ccv2MdVO.s:412    .text:0000000000000158 .LVL24
     /tmp/ccv2MdVO.s:437    .text:0000000000000190 .LVL27
     /tmp/ccv2MdVO.s:66     .text:0000000000000000 .LVL2
     /tmp/ccv2MdVO.s:85     .text:0000000000000020 .LVL3
     /tmp/ccv2MdVO.s:579    .text:0000000000000200 .LVL39
     /tmp/ccv2MdVO.s:616    .text:000000000000024c .LVL41
     /tmp/ccv2MdVO.s:642    .text:0000000000000268 .LVL44
     /tmp/ccv2MdVO.s:670    .text:0000000000000280 .LVL45
     /tmp/ccv2MdVO.s:680    .text:0000000000000290 .LVL48
     /tmp/ccv2MdVO.s:673    .text:0000000000000284 .LVL46
     /tmp/ccv2MdVO.s:676    .text:0000000000000288 .LVL47
     /tmp/ccv2MdVO.s:609    .text:000000000000023c .LVL40
     /tmp/ccv2MdVO.s:620    .text:0000000000000258 .LVL43
     /tmp/ccv2MdVO.s:540    .text:00000000000001d8 .LVL37
GAS LISTING /tmp/ccv2MdVO.s 			page 50


     /tmp/ccv2MdVO.s:373    .text:0000000000000130 .LVL22
     /tmp/ccv2MdVO.s:339    .text:0000000000000108 .LVL20
     /tmp/ccv2MdVO.s:307    .text:00000000000000e0 .LVL18
     /tmp/ccv2MdVO.s:1339   .debug_info:0000000000000000 .Ldebug_info0
     /tmp/ccv2MdVO.s:5      .text:0000000000000000 .Ltext0
     /tmp/ccv2MdVO.s:1334   .text:000000000000059c .Letext0
     /tmp/ccv2MdVO.s:601    .text:0000000000000234 .LBB49
     /tmp/ccv2MdVO.s:659    .text:0000000000000274 .LBE49
     /tmp/ccv2MdVO.s:684    .text:0000000000000290 .LBB50
     /tmp/ccv2MdVO.s:688    .text:0000000000000298 .LBE50
     /tmp/ccv2MdVO.s:291    .gcc_except_table:0000000000000000 .LLSDA69
     /tmp/ccv2MdVO.s:398    .gcc_except_table:0000000000000004 .LLSDA45
     /tmp/ccv2MdVO.s:565    .gcc_except_table:0000000000000008 .LLSDA46
                           .group:0000000000000000 _ZN14PeriodicThreadD5Ev

UNDEFINED SYMBOLS
_Z9sem_closeP4KSem
_Z8mem_freePv
_ZN4KSemdlEPv
__gxx_personality_v0
_Z9mem_allocm
main
_Z11thread_joinP3TCB
_Z15thread_dispatchv
_Z10time_sleepm
_Z11thread_exitv
_Z8sem_openPP4KSemj
_Z8sem_waitP4KSem
_Z10sem_signalP4KSem
_Z4getcv
_Z4putcc
