GAS LISTING /tmp/cc3UJuKU.s 			page 1


   1              		.file	"syscall_c.cpp"
   2              		.option pic
   3              		.option norelax
   4              		.text
   5              	.Ltext0:
   6              		.align	2
   7              		.globl	_Z9mem_allocm
   9              	_Z9mem_allocm:
  10              	.LFB19:
  11              		.file 1 "src/syscall_c.cpp"
   1:src/syscall_c.cpp **** #include "../h/syscall_c.hpp"
   2:src/syscall_c.cpp **** #include "../h/Riscv.hpp"
   3:src/syscall_c.cpp **** #include "../h/MemoryAllocator.hpp"
   4:src/syscall_c.cpp **** #include "../lib/console.h"
   5:src/syscall_c.cpp **** 
   6:src/syscall_c.cpp **** inline void scall() {
   7:src/syscall_c.cpp **** 	__asm__ volatile("ecall");
   8:src/syscall_c.cpp **** }
   9:src/syscall_c.cpp **** 
  10:src/syscall_c.cpp **** void* mem_alloc(size_t size) {
  12              		.loc 1 10 30
  13              		.cfi_startproc
  14              	.LVL0:
  15 0000 130101FF 		addi	sp,sp,-16
  16              		.cfi_def_cfa_offset 16
  17 0004 23348100 		sd	s0,8(sp)
  18              		.cfi_offset 8, -8
  19 0008 13040101 		addi	s0,sp,16
  20              		.cfi_def_cfa 8, 0
  11:src/syscall_c.cpp **** 	//na size moramo dodati zaglavlje segmenta
  12:src/syscall_c.cpp **** 	size += sizeof(MemoryAllocator::UsedMemSegment);
  21              		.loc 1 12 2
  22              		.loc 1 12 7 is_stmt 0
  23 000c 13050501 		addi	a0,a0,16
  24              	.LVL1:
  13:src/syscall_c.cpp **** 	//size je u bajtovima, pretvara se u blokove
  14:src/syscall_c.cpp **** 	size = size / MEM_BLOCK_SIZE + (size % MEM_BLOCK_SIZE ? 1 : 0);
  25              		.loc 1 14 2 is_stmt 1
  26              		.loc 1 14 14 is_stmt 0
  27 0010 13536500 		srli	t1,a0,6
  28              		.loc 1 14 39
  29 0014 1375F503 		andi	a0,a0,63
  30              	.LVL2:
  31              		.loc 1 14 56
  32 0018 63040500 		beqz	a0,.L2
  33 001c 13051000 		li	a0,1
  34              	.L2:
  35              		.loc 1 14 7 discriminator 4
  36 0020 3303A300 		add	t1,t1,a0
  37              	.LVL3:
  15:src/syscall_c.cpp **** 
  16:src/syscall_c.cpp **** 	//stavljanje argumenata za sistemski poziv
  17:src/syscall_c.cpp **** 	__asm__ volatile("mv a1, %[size]": :[size] "r"(size):"a5", "a0", "a1", "a2", "a3", "a4", "a6", "a7
  38              		.loc 1 17 2 is_stmt 1 discriminator 4
  39              		.loc 1 17 102 is_stmt 0 discriminator 4
  40              	#APP
  41              	# 17 "src/syscall_c.cpp" 1
GAS LISTING /tmp/cc3UJuKU.s 			page 2


  18              		__asm__ volatile("li a0, 0x01");
  42              		mv a1, t1
  43              	# 0 "" 2
  44              		.loc 1 18 2 is_stmt 1 discriminator 4
  45              		.loc 1 18 33 is_stmt 0 discriminator 4
  46              	# 18 "src/syscall_c.cpp" 1
  19              		//a0 = 0x01
  20:src/syscall_c.cpp **** 	//a1 = broj blokova velicine MEM_BLOCK_SIZE za alokaciju
  21:src/syscall_c.cpp **** 
  22:src/syscall_c.cpp **** 	scall();
  47              		li a0, 0x01
  48              	# 0 "" 2
  49              		.loc 1 22 2 is_stmt 1 discriminator 4
  50              	#NO_APP
  51              	.LBB28:
  52              	.LBB29:
   7:src/syscall_c.cpp **** }
  53              		.loc 1 7 2 discriminator 4
   7:src/syscall_c.cpp **** }
  54              		.loc 1 7 27 is_stmt 0 discriminator 4
  55              	#APP
  56              	# 7 "src/syscall_c.cpp" 1
  57              		ecall
  58              	# 0 "" 2
  59              	#NO_APP
  60              	.LBE29:
  61              	.LBE28:
  23:src/syscall_c.cpp **** 
  24:src/syscall_c.cpp **** 	void* ret;
  62              		.loc 1 24 2 is_stmt 1 discriminator 4
  25:src/syscall_c.cpp **** 	__asm__ volatile("mv %[ptr], a0":[ptr] "=r"(ret));
  63              		.loc 1 25 2 discriminator 4
  64              		.loc 1 25 51 is_stmt 0 discriminator 4
  65              	#APP
  66              	# 25 "src/syscall_c.cpp" 1
  26              		return ret;
  67              		mv a0, a0
  68              	# 0 "" 2
  69              	.LVL4:
  70              		.loc 1 26 2 is_stmt 1 discriminator 4
  27:src/syscall_c.cpp **** }
  71              		.loc 1 27 1 is_stmt 0 discriminator 4
  72              	#NO_APP
  73 0034 03348100 		ld	s0,8(sp)
  74              		.cfi_restore 8
  75              		.cfi_def_cfa 2, 16
  76 0038 13010101 		addi	sp,sp,16
  77              		.cfi_def_cfa_offset 0
  78 003c 67800000 		jr	ra
  79              		.cfi_endproc
  80              	.LFE19:
  82              		.align	2
  83              		.globl	_Z8mem_freePv
  85              	_Z8mem_freePv:
  86              	.LFB20:
  28:src/syscall_c.cpp **** 
  29:src/syscall_c.cpp **** int mem_free(void* ptr) {
GAS LISTING /tmp/cc3UJuKU.s 			page 3


  87              		.loc 1 29 25 is_stmt 1
  88              		.cfi_startproc
  89              	.LVL5:
  90 0040 130101FF 		addi	sp,sp,-16
  91              		.cfi_def_cfa_offset 16
  92 0044 23348100 		sd	s0,8(sp)
  93              		.cfi_offset 8, -8
  94 0048 13040101 		addi	s0,sp,16
  95              		.cfi_def_cfa 8, 0
  96 004c 13030500 		mv	t1,a0
  30:src/syscall_c.cpp **** 	//stavljanje argumenata za sistemski poziv
  31:src/syscall_c.cpp **** 	__asm__ volatile("mv a1, %[ptr]": :[ptr] "r"(ptr):"a5", "a0", "a1", "a2", "a3", "a4", "a6", "a7");
  97              		.loc 1 31 2
  98              		.loc 1 31 99 is_stmt 0
  99              	#APP
 100              	# 31 "src/syscall_c.cpp" 1
  32              		__asm__ volatile("li a0, 0x02");
 101              		mv a1, t1
 102              	# 0 "" 2
 103              	.LVL6:
 104              		.loc 1 32 2 is_stmt 1
 105              		.loc 1 32 33 is_stmt 0
 106              	# 32 "src/syscall_c.cpp" 1
  33              		//a0 = 0x02
  34:src/syscall_c.cpp **** 	//a1 = pokazivac na memoriju koju treba dealocirati
  35:src/syscall_c.cpp **** 
  36:src/syscall_c.cpp **** 	scall();
 107              		li a0, 0x02
 108              	# 0 "" 2
 109              		.loc 1 36 2 is_stmt 1
 110              	#NO_APP
 111              	.LBB30:
 112              	.LBB31:
   7:src/syscall_c.cpp **** }
 113              		.loc 1 7 2
   7:src/syscall_c.cpp **** }
 114              		.loc 1 7 27 is_stmt 0
 115              	#APP
 116              	# 7 "src/syscall_c.cpp" 1
 117              		ecall
 118              	# 0 "" 2
 119              	#NO_APP
 120              	.LBE31:
 121              	.LBE30:
  37:src/syscall_c.cpp **** 
  38:src/syscall_c.cpp **** 	int status;
 122              		.loc 1 38 2 is_stmt 1
  39:src/syscall_c.cpp **** 	__asm__ volatile("mv %[status], a0":[status] "=r"(status));
 123              		.loc 1 39 2
 124              		.loc 1 39 60 is_stmt 0
 125              	#APP
 126              	# 39 "src/syscall_c.cpp" 1
  40              		return status;
 127              		mv a0, a0
 128              	# 0 "" 2
 129              	.LVL7:
 130              		.loc 1 40 2 is_stmt 1
GAS LISTING /tmp/cc3UJuKU.s 			page 4


  41:src/syscall_c.cpp **** }
 131              		.loc 1 41 1 is_stmt 0
 132              	#NO_APP
 133 0060 1B050500 		sext.w	a0,a0
 134 0064 03348100 		ld	s0,8(sp)
 135              		.cfi_restore 8
 136              		.cfi_def_cfa 2, 16
 137 0068 13010101 		addi	sp,sp,16
 138              		.cfi_def_cfa_offset 0
 139 006c 67800000 		jr	ra
 140              		.cfi_endproc
 141              	.LFE20:
 143              		.align	2
 144              		.globl	_Z13thread_createPP3TCBPFvPvES2_
 146              	_Z13thread_createPP3TCBPFvPvES2_:
 147              	.LFB21:
  42:src/syscall_c.cpp **** 
  43:src/syscall_c.cpp **** int thread_create(thread_t* handle, void (* start_routine)(void*), void* arg) {
 148              		.loc 1 43 79 is_stmt 1
 149              		.cfi_startproc
 150              	.LVL8:
 151 0070 130101FD 		addi	sp,sp,-48
 152              		.cfi_def_cfa_offset 48
 153 0074 23341102 		sd	ra,40(sp)
 154 0078 23308102 		sd	s0,32(sp)
 155 007c 233C9100 		sd	s1,24(sp)
 156 0080 23382101 		sd	s2,16(sp)
 157 0084 23343101 		sd	s3,8(sp)
 158              		.cfi_offset 1, -8
 159              		.cfi_offset 8, -16
 160              		.cfi_offset 9, -24
 161              		.cfi_offset 18, -32
 162              		.cfi_offset 19, -40
 163 0088 13040103 		addi	s0,sp,48
 164              		.cfi_def_cfa 8, 0
 165 008c 13090500 		mv	s2,a0
 166 0090 93840500 		mv	s1,a1
 167 0094 93090600 		mv	s3,a2
  44:src/syscall_c.cpp **** 	//stvaranje steka ako se ne radi o main kernel niti, posto ona automatski ima stek
  45:src/syscall_c.cpp **** 	uint64* stack = nullptr;
 168              		.loc 1 45 2
 169              	.LVL9:
  46:src/syscall_c.cpp **** 	if (start_routine != nullptr) {
 170              		.loc 1 46 2
 171 0098 63880504 		beqz	a1,.L8
  47:src/syscall_c.cpp **** 		stack = (uint64*)mem_alloc(DEFAULT_STACK_SIZE);
 172              		.loc 1 47 3
 173              		.loc 1 47 29 is_stmt 0
 174 009c 37150000 		li	a0,4096
 175              	.LVL10:
 176 00a0 97000000 		call	_Z9mem_allocm
 176      E7800000 
 177              	.LVL11:
 178 00a8 13030500 		mv	t1,a0
 179              	.LVL12:
 180              	.L7:
  48:src/syscall_c.cpp **** 	}
GAS LISTING /tmp/cc3UJuKU.s 			page 5


  49:src/syscall_c.cpp **** 	//uint64* stack = (start_routine != nullptr ? (uint64*)MemoryAllocator::kmalloc(DEFAULT_STACK_SIZE
  50:src/syscall_c.cpp **** 	//stavljanje argumenata za sistemski poziv
  51:src/syscall_c.cpp **** 	__asm__ volatile("mv a4, %[sp]": :[sp] "r"(stack):"a5", "a0", "a1", "a2", "a3", "a4", "a6", "a7");
 181              		.loc 1 51 2 is_stmt 1
 182              		.loc 1 51 99 is_stmt 0
 183              	#APP
 184              	# 51 "src/syscall_c.cpp" 1
  52              		__asm__ volatile("mv a3, %[arg]": :[arg] "r"(arg):"a5", "a0", "a1", "a2", "a3", "a4", "a6", "a7");
 185              		mv a4, t1
 186              	# 0 "" 2
 187              		.loc 1 52 2 is_stmt 1
 188              		.loc 1 52 99 is_stmt 0
 189              	# 52 "src/syscall_c.cpp" 1
  53              		__asm__ volatile("mv a2, %[function]": :[function] "r"(
 190              		mv a3, s3
 191              	# 0 "" 2
 192              		.loc 1 53 2 is_stmt 1
  54:src/syscall_c.cpp **** 			start_routine):"a5", "a0", "a1", "a2", "a3", "a4", "a6", "a7");
 193              		.loc 1 54 66 is_stmt 0
 194              	# 54 "src/syscall_c.cpp" 1
  55              		__asm__ volatile("mv a1, %[handle]": :[handle] "r"(handle):"a5", "a0", "a1", "a2", "a3", "a4", "a6
 195              		mv a2, s1
 196              	# 0 "" 2
 197              		.loc 1 55 2 is_stmt 1
 198              		.loc 1 55 108 is_stmt 0
 199              	# 55 "src/syscall_c.cpp" 1
  56              		__asm__ volatile("li a0, 0x11");
 200              		mv a1, s2
 201              	# 0 "" 2
 202              		.loc 1 56 2 is_stmt 1
 203              		.loc 1 56 33 is_stmt 0
 204              	# 56 "src/syscall_c.cpp" 1
  57              		//a0 = 0x11
  58:src/syscall_c.cpp **** 	//a1 = adresa pokazivaca na rucku niti
  59:src/syscall_c.cpp **** 	//a2 = prva adresa funkcije koju nit izvrsava
  60:src/syscall_c.cpp **** 	//a3 = pokazivac na argumente funkcije
  61:src/syscall_c.cpp **** 	//a4 = pokazivac na najnizu adresu steka (stek raste ka nizim adresama, pokazuje na poslednju zauz
  62:src/syscall_c.cpp **** 
  63:src/syscall_c.cpp **** 	scall();
 205              		li a0, 0x11
 206              	# 0 "" 2
 207              		.loc 1 63 2 is_stmt 1
 208              	#NO_APP
 209              	.LBB32:
 210              	.LBB33:
   7:src/syscall_c.cpp **** }
 211              		.loc 1 7 2
   7:src/syscall_c.cpp **** }
 212              		.loc 1 7 27 is_stmt 0
 213              	#APP
 214              	# 7 "src/syscall_c.cpp" 1
 215              		ecall
 216              	# 0 "" 2
 217              	#NO_APP
 218              	.LBE33:
 219              	.LBE32:
  64:src/syscall_c.cpp **** 
GAS LISTING /tmp/cc3UJuKU.s 			page 6


  65:src/syscall_c.cpp **** 	int status;
 220              		.loc 1 65 2 is_stmt 1
  66:src/syscall_c.cpp **** 	__asm__ volatile("mv %[status], a0":[status] "=r"(status));
 221              		.loc 1 66 2
 222              		.loc 1 66 60 is_stmt 0
 223              	#APP
 224              	# 66 "src/syscall_c.cpp" 1
  67              		return status;
 225              		mv a0, a0
 226              	# 0 "" 2
 227              	.LVL13:
 228              		.loc 1 67 2 is_stmt 1
  68:src/syscall_c.cpp **** }
 229              		.loc 1 68 1 is_stmt 0
 230              	#NO_APP
 231 00c8 1B050500 		sext.w	a0,a0
 232 00cc 83308102 		ld	ra,40(sp)
 233              		.cfi_remember_state
 234              		.cfi_restore 1
 235 00d0 03340102 		ld	s0,32(sp)
 236              		.cfi_restore 8
 237              		.cfi_def_cfa 2, 48
 238 00d4 83348101 		ld	s1,24(sp)
 239              		.cfi_restore 9
 240              	.LVL14:
 241 00d8 03390101 		ld	s2,16(sp)
 242              		.cfi_restore 18
 243              	.LVL15:
 244 00dc 83398100 		ld	s3,8(sp)
 245              		.cfi_restore 19
 246              	.LVL16:
 247 00e0 13010103 		addi	sp,sp,48
 248              		.cfi_def_cfa_offset 0
 249 00e4 67800000 		jr	ra
 250              	.LVL17:
 251              	.L8:
 252              		.cfi_restore_state
  45:src/syscall_c.cpp **** 	if (start_routine != nullptr) {
 253              		.loc 1 45 10
 254 00e8 13030000 		li	t1,0
 255 00ec 6FF01FFC 		j	.L7
 256              		.cfi_endproc
 257              	.LFE21:
 259              		.align	2
 260              		.globl	_Z11thread_exitv
 262              	_Z11thread_exitv:
 263              	.LFB22:
  69:src/syscall_c.cpp **** 
  70:src/syscall_c.cpp **** int thread_exit() {
 264              		.loc 1 70 19 is_stmt 1
 265              		.cfi_startproc
 266 00f0 130101FF 		addi	sp,sp,-16
 267              		.cfi_def_cfa_offset 16
 268 00f4 23348100 		sd	s0,8(sp)
 269              		.cfi_offset 8, -8
 270 00f8 13040101 		addi	s0,sp,16
 271              		.cfi_def_cfa 8, 0
GAS LISTING /tmp/cc3UJuKU.s 			page 7


  71:src/syscall_c.cpp **** 	//nema argumenata, samo kod sistemskog poziva
  72:src/syscall_c.cpp **** 	__asm__ volatile("li a0, 0x12");
 272              		.loc 1 72 2
 273              		.loc 1 72 33 is_stmt 0
 274              	#APP
 275              	# 72 "src/syscall_c.cpp" 1
  73              	
  74:src/syscall_c.cpp **** 	scall();
 276              		li a0, 0x12
 277              	# 0 "" 2
 278              		.loc 1 74 2 is_stmt 1
 279              	#NO_APP
 280              	.LBB34:
 281              	.LBB35:
   7:src/syscall_c.cpp **** }
 282              		.loc 1 7 2
   7:src/syscall_c.cpp **** }
 283              		.loc 1 7 27 is_stmt 0
 284              	#APP
 285              	# 7 "src/syscall_c.cpp" 1
 286              		ecall
 287              	# 0 "" 2
 288              	#NO_APP
 289              	.LBE35:
 290              	.LBE34:
  75:src/syscall_c.cpp **** 
  76:src/syscall_c.cpp **** 	int status;
 291              		.loc 1 76 2 is_stmt 1
  77:src/syscall_c.cpp **** 	__asm__ volatile("mv %[status], a0":[status] "=r"(status));
 292              		.loc 1 77 2
 293              		.loc 1 77 60 is_stmt 0
 294              	#APP
 295              	# 77 "src/syscall_c.cpp" 1
  78              		return status;
 296              		mv a0, a0
 297              	# 0 "" 2
 298              	.LVL18:
 299              		.loc 1 78 2 is_stmt 1
  79:src/syscall_c.cpp **** }
 300              		.loc 1 79 1 is_stmt 0
 301              	#NO_APP
 302 0108 1B050500 		sext.w	a0,a0
 303 010c 03348100 		ld	s0,8(sp)
 304              		.cfi_restore 8
 305              		.cfi_def_cfa 2, 16
 306 0110 13010101 		addi	sp,sp,16
 307              		.cfi_def_cfa_offset 0
 308 0114 67800000 		jr	ra
 309              		.cfi_endproc
 310              	.LFE22:
 312              		.align	2
 313              		.globl	_Z15thread_dispatchv
 315              	_Z15thread_dispatchv:
 316              	.LFB23:
  80:src/syscall_c.cpp **** 
  81:src/syscall_c.cpp **** void thread_dispatch() {
 317              		.loc 1 81 24 is_stmt 1
GAS LISTING /tmp/cc3UJuKU.s 			page 8


 318              		.cfi_startproc
 319 0118 130101FF 		addi	sp,sp,-16
 320              		.cfi_def_cfa_offset 16
 321 011c 23348100 		sd	s0,8(sp)
 322              		.cfi_offset 8, -8
 323 0120 13040101 		addi	s0,sp,16
 324              		.cfi_def_cfa 8, 0
  82:src/syscall_c.cpp **** 	//nema argumenata, samo kod sistemskog poziva
  83:src/syscall_c.cpp **** 	__asm__ volatile("li a0, 0x13");
 325              		.loc 1 83 2
 326              		.loc 1 83 33 is_stmt 0
 327              	#APP
 328              	# 83 "src/syscall_c.cpp" 1
  84              	
  85:src/syscall_c.cpp **** 	scall();
 329              		li a0, 0x13
 330              	# 0 "" 2
 331              		.loc 1 85 2 is_stmt 1
 332              	#NO_APP
 333              	.LBB36:
 334              	.LBB37:
   7:src/syscall_c.cpp **** }
 335              		.loc 1 7 2
   7:src/syscall_c.cpp **** }
 336              		.loc 1 7 27 is_stmt 0
 337              	#APP
 338              	# 7 "src/syscall_c.cpp" 1
 339              		ecall
 340              	# 0 "" 2
 341              	#NO_APP
 342              	.LBE37:
 343              	.LBE36:
  86:src/syscall_c.cpp **** 	//nema povratne vrednosti
  87:src/syscall_c.cpp **** }
 344              		.loc 1 87 1
 345 012c 03348100 		ld	s0,8(sp)
 346              		.cfi_restore 8
 347              		.cfi_def_cfa 2, 16
 348 0130 13010101 		addi	sp,sp,16
 349              		.cfi_def_cfa_offset 0
 350 0134 67800000 		jr	ra
 351              		.cfi_endproc
 352              	.LFE23:
 354              		.align	2
 355              		.globl	_Z11thread_joinP3TCB
 357              	_Z11thread_joinP3TCB:
 358              	.LFB24:
  88:src/syscall_c.cpp **** 
  89:src/syscall_c.cpp **** void thread_join(thread_t handle) {
 359              		.loc 1 89 35 is_stmt 1
 360              		.cfi_startproc
 361              	.LVL19:
 362 0138 130101FF 		addi	sp,sp,-16
 363              		.cfi_def_cfa_offset 16
 364 013c 23348100 		sd	s0,8(sp)
 365              		.cfi_offset 8, -8
 366 0140 13040101 		addi	s0,sp,16
GAS LISTING /tmp/cc3UJuKU.s 			page 9


 367              		.cfi_def_cfa 8, 0
 368 0144 13030500 		mv	t1,a0
  90:src/syscall_c.cpp **** //stavljanje argumenata za sistemski poziv
  91:src/syscall_c.cpp **** 	__asm__ volatile("mv a1, %[handle]": :[handle] "r"(handle):"a5", "a0", "a1", "a2", "a3", "a4", "a6
 369              		.loc 1 91 2
 370              		.loc 1 91 108 is_stmt 0
 371              	#APP
 372              	# 91 "src/syscall_c.cpp" 1
  92              		__asm__ volatile("li a0, 0x14");
 373              		mv a1, t1
 374              	# 0 "" 2
 375              	.LVL20:
 376              		.loc 1 92 2 is_stmt 1
 377              		.loc 1 92 33 is_stmt 0
 378              	# 92 "src/syscall_c.cpp" 1
  93              		//a0 = 0x14
  94:src/syscall_c.cpp **** 	//a1 = rucka niti na koju se ceka
  95:src/syscall_c.cpp **** 
  96:src/syscall_c.cpp **** 	scall();
 379              		li a0, 0x14
 380              	# 0 "" 2
 381              		.loc 1 96 2 is_stmt 1
 382              	#NO_APP
 383              	.LBB38:
 384              	.LBB39:
   7:src/syscall_c.cpp **** }
 385              		.loc 1 7 2
   7:src/syscall_c.cpp **** }
 386              		.loc 1 7 27 is_stmt 0
 387              	#APP
 388              	# 7 "src/syscall_c.cpp" 1
 389              		ecall
 390              	# 0 "" 2
 391              	#NO_APP
 392              	.LBE39:
 393              	.LBE38:
  97:src/syscall_c.cpp **** }
 394              		.loc 1 97 1
 395 0154 03348100 		ld	s0,8(sp)
 396              		.cfi_restore 8
 397              		.cfi_def_cfa 2, 16
 398 0158 13010101 		addi	sp,sp,16
 399              		.cfi_def_cfa_offset 0
 400 015c 67800000 		jr	ra
 401              		.cfi_endproc
 402              	.LFE24:
 404              		.align	2
 405              		.globl	_Z10time_sleepm
 407              	_Z10time_sleepm:
 408              	.LFB25:
  98:src/syscall_c.cpp **** 
  99:src/syscall_c.cpp **** int time_sleep(time_t timerPeriods) {
 409              		.loc 1 99 37 is_stmt 1
 410              		.cfi_startproc
 411              	.LVL21:
 412 0160 130101FF 		addi	sp,sp,-16
 413              		.cfi_def_cfa_offset 16
GAS LISTING /tmp/cc3UJuKU.s 			page 10


 414 0164 23348100 		sd	s0,8(sp)
 415              		.cfi_offset 8, -8
 416 0168 13040101 		addi	s0,sp,16
 417              		.cfi_def_cfa 8, 0
 418 016c 13030500 		mv	t1,a0
 100:src/syscall_c.cpp **** 	//stavljanje argumenata za sistemski poziv
 101:src/syscall_c.cpp **** 	__asm__ volatile("mv a1, %[time]": :[time] "r"(timerPeriods):"a5", "a0", "a1", "a2", "a3", "a4", "
 419              		.loc 1 101 2
 420              		.loc 1 101 110 is_stmt 0
 421              	#APP
 422              	# 101 "src/syscall_c.cpp" 1
 102              		__asm__ volatile("li a0, 0x31");
 423              		mv a1, t1
 424              	# 0 "" 2
 425              	.LVL22:
 426              		.loc 1 102 2 is_stmt 1
 427              		.loc 1 102 33 is_stmt 0
 428              	# 102 "src/syscall_c.cpp" 1
 103              		//a0 = 0x31
 104:src/syscall_c.cpp **** 	//a1 = broj perioda tajmera na koji se uspavljuje nit
 105:src/syscall_c.cpp **** 
 106:src/syscall_c.cpp **** 	scall();
 429              		li a0, 0x31
 430              	# 0 "" 2
 431              		.loc 1 106 2 is_stmt 1
 432              	#NO_APP
 433              	.LBB40:
 434              	.LBB41:
   7:src/syscall_c.cpp **** }
 435              		.loc 1 7 2
   7:src/syscall_c.cpp **** }
 436              		.loc 1 7 27 is_stmt 0
 437              	#APP
 438              	# 7 "src/syscall_c.cpp" 1
 439              		ecall
 440              	# 0 "" 2
 441              	#NO_APP
 442              	.LBE41:
 443              	.LBE40:
 107:src/syscall_c.cpp **** 
 108:src/syscall_c.cpp **** 	int status;
 444              		.loc 1 108 2 is_stmt 1
 109:src/syscall_c.cpp **** 	__asm__ volatile("mv %[status], a0":[status] "=r"(status));
 445              		.loc 1 109 2
 446              		.loc 1 109 60 is_stmt 0
 447              	#APP
 448              	# 109 "src/syscall_c.cpp" 1
 110              		return status;
 449              		mv a0, a0
 450              	# 0 "" 2
 451              	.LVL23:
 452              		.loc 1 110 2 is_stmt 1
 111:src/syscall_c.cpp **** }
 453              		.loc 1 111 1 is_stmt 0
 454              	#NO_APP
 455 0180 1B050500 		sext.w	a0,a0
 456 0184 03348100 		ld	s0,8(sp)
GAS LISTING /tmp/cc3UJuKU.s 			page 11


 457              		.cfi_restore 8
 458              		.cfi_def_cfa 2, 16
 459 0188 13010101 		addi	sp,sp,16
 460              		.cfi_def_cfa_offset 0
 461 018c 67800000 		jr	ra
 462              		.cfi_endproc
 463              	.LFE25:
 465              		.align	2
 466              		.globl	_Z8sem_openPP4KSemj
 468              	_Z8sem_openPP4KSemj:
 469              	.LFB26:
 112:src/syscall_c.cpp **** 
 113:src/syscall_c.cpp **** int sem_open(sem_t* handle, unsigned int init) {
 470              		.loc 1 113 48 is_stmt 1
 471              		.cfi_startproc
 472              	.LVL24:
 473 0190 130101FF 		addi	sp,sp,-16
 474              		.cfi_def_cfa_offset 16
 475 0194 23348100 		sd	s0,8(sp)
 476              		.cfi_offset 8, -8
 477 0198 13040101 		addi	s0,sp,16
 478              		.cfi_def_cfa 8, 0
 479 019c 13030500 		mv	t1,a0
 480 01a0 138E0500 		mv	t3,a1
 114:src/syscall_c.cpp **** 	//stavljanje argumenata za sistemski poziv
 115:src/syscall_c.cpp **** 	__asm__ volatile("mv a2, %[val]": :[val] "r"(init):"a5", "a0", "a1", "a2", "a3", "a4", "a6", "a7")
 481              		.loc 1 115 2
 482              		.loc 1 115 100 is_stmt 0
 483              	#APP
 484              	# 115 "src/syscall_c.cpp" 1
 116              		__asm__ volatile("mv a1, %[handle]": :[handle] "r"(handle):"a5", "a0", "a1", "a2", "a3", "a4", "a6
 485              		mv a2, t3
 486              	# 0 "" 2
 487              	.LVL25:
 488              		.loc 1 116 2 is_stmt 1
 489              		.loc 1 116 108 is_stmt 0
 490              	# 116 "src/syscall_c.cpp" 1
 117              		__asm__ volatile("li a0, 0x21");
 491              		mv a1, t1
 492              	# 0 "" 2
 493              		.loc 1 117 2 is_stmt 1
 494              		.loc 1 117 33 is_stmt 0
 495              	# 117 "src/syscall_c.cpp" 1
 118              		//a0 = 0x21
 119:src/syscall_c.cpp **** 	//a1 = pokazivac na rucku semafora
 120:src/syscall_c.cpp **** 	//a2 = pocetna vrednost semafora
 121:src/syscall_c.cpp **** 
 122:src/syscall_c.cpp **** 	scall();
 496              		li a0, 0x21
 497              	# 0 "" 2
 498              		.loc 1 122 2 is_stmt 1
 499              	#NO_APP
 500              	.LBB42:
 501              	.LBB43:
   7:src/syscall_c.cpp **** }
 502              		.loc 1 7 2
   7:src/syscall_c.cpp **** }
GAS LISTING /tmp/cc3UJuKU.s 			page 12


 503              		.loc 1 7 27 is_stmt 0
 504              	#APP
 505              	# 7 "src/syscall_c.cpp" 1
 506              		ecall
 507              	# 0 "" 2
 508              	#NO_APP
 509              	.LBE43:
 510              	.LBE42:
 123:src/syscall_c.cpp **** 
 124:src/syscall_c.cpp **** 	int status;
 511              		.loc 1 124 2 is_stmt 1
 125:src/syscall_c.cpp **** 	__asm__ volatile("mv %[status], a0":[status] "=r"(status));
 512              		.loc 1 125 2
 513              		.loc 1 125 60 is_stmt 0
 514              	#APP
 515              	# 125 "src/syscall_c.cpp" 1
 126              		return status;
 516              		mv a0, a0
 517              	# 0 "" 2
 518              	.LVL26:
 519              		.loc 1 126 2 is_stmt 1
 127:src/syscall_c.cpp **** }
 520              		.loc 1 127 1 is_stmt 0
 521              	#NO_APP
 522 01b8 1B050500 		sext.w	a0,a0
 523 01bc 03348100 		ld	s0,8(sp)
 524              		.cfi_restore 8
 525              		.cfi_def_cfa 2, 16
 526 01c0 13010101 		addi	sp,sp,16
 527              		.cfi_def_cfa_offset 0
 528 01c4 67800000 		jr	ra
 529              		.cfi_endproc
 530              	.LFE26:
 532              		.align	2
 533              		.globl	_Z9sem_closeP4KSem
 535              	_Z9sem_closeP4KSem:
 536              	.LFB27:
 128:src/syscall_c.cpp **** 
 129:src/syscall_c.cpp **** int sem_close(sem_t handle) {
 537              		.loc 1 129 29 is_stmt 1
 538              		.cfi_startproc
 539              	.LVL27:
 540 01c8 130101FF 		addi	sp,sp,-16
 541              		.cfi_def_cfa_offset 16
 542 01cc 23348100 		sd	s0,8(sp)
 543              		.cfi_offset 8, -8
 544 01d0 13040101 		addi	s0,sp,16
 545              		.cfi_def_cfa 8, 0
 546 01d4 13030500 		mv	t1,a0
 130:src/syscall_c.cpp **** 	//stavljanje argumenata za sistemski poziv
 131:src/syscall_c.cpp **** 	__asm__ volatile("mv a1, %[handle]": :[handle] "r"(handle):"a5", "a0", "a1", "a2", "a3", "a4", "a6
 547              		.loc 1 131 2
 548              		.loc 1 131 108 is_stmt 0
 549              	#APP
 550              	# 131 "src/syscall_c.cpp" 1
 132              		__asm__ volatile("li a0, 0x22");
 551              		mv a1, t1
GAS LISTING /tmp/cc3UJuKU.s 			page 13


 552              	# 0 "" 2
 553              	.LVL28:
 554              		.loc 1 132 2 is_stmt 1
 555              		.loc 1 132 33 is_stmt 0
 556              	# 132 "src/syscall_c.cpp" 1
 133              		//a0 = 0x22
 134:src/syscall_c.cpp **** 	//a1 = pokazivac na rucku semafora
 135:src/syscall_c.cpp **** 
 136:src/syscall_c.cpp **** 	scall();
 557              		li a0, 0x22
 558              	# 0 "" 2
 559              		.loc 1 136 2 is_stmt 1
 560              	#NO_APP
 561              	.LBB44:
 562              	.LBB45:
   7:src/syscall_c.cpp **** }
 563              		.loc 1 7 2
   7:src/syscall_c.cpp **** }
 564              		.loc 1 7 27 is_stmt 0
 565              	#APP
 566              	# 7 "src/syscall_c.cpp" 1
 567              		ecall
 568              	# 0 "" 2
 569              	#NO_APP
 570              	.LBE45:
 571              	.LBE44:
 137:src/syscall_c.cpp **** 
 138:src/syscall_c.cpp **** 	int status;
 572              		.loc 1 138 2 is_stmt 1
 139:src/syscall_c.cpp **** 	__asm__ volatile("mv %[status], a0":[status] "=r"(status));
 573              		.loc 1 139 2
 574              		.loc 1 139 60 is_stmt 0
 575              	#APP
 576              	# 139 "src/syscall_c.cpp" 1
 140              		return status;
 577              		mv a0, a0
 578              	# 0 "" 2
 579              	.LVL29:
 580              		.loc 1 140 2 is_stmt 1
 141:src/syscall_c.cpp **** }
 581              		.loc 1 141 1 is_stmt 0
 582              	#NO_APP
 583 01e8 1B050500 		sext.w	a0,a0
 584 01ec 03348100 		ld	s0,8(sp)
 585              		.cfi_restore 8
 586              		.cfi_def_cfa 2, 16
 587 01f0 13010101 		addi	sp,sp,16
 588              		.cfi_def_cfa_offset 0
 589 01f4 67800000 		jr	ra
 590              		.cfi_endproc
 591              	.LFE27:
 593              		.align	2
 594              		.globl	_Z8sem_waitP4KSem
 596              	_Z8sem_waitP4KSem:
 597              	.LFB28:
 142:src/syscall_c.cpp **** 
 143:src/syscall_c.cpp **** int sem_wait(sem_t id) {
GAS LISTING /tmp/cc3UJuKU.s 			page 14


 598              		.loc 1 143 24 is_stmt 1
 599              		.cfi_startproc
 600              	.LVL30:
 601 01f8 130101FF 		addi	sp,sp,-16
 602              		.cfi_def_cfa_offset 16
 603 01fc 23348100 		sd	s0,8(sp)
 604              		.cfi_offset 8, -8
 605 0200 13040101 		addi	s0,sp,16
 606              		.cfi_def_cfa 8, 0
 607 0204 13030500 		mv	t1,a0
 144:src/syscall_c.cpp **** 	//stavljanje argumenata za sistemski poziv
 145:src/syscall_c.cpp **** 	__asm__ volatile("mv a1, %[handle]": :[handle] "r"(id):"a5", "a0", "a1", "a2", "a3", "a4", "a6", "
 608              		.loc 1 145 2
 609              		.loc 1 145 104 is_stmt 0
 610              	#APP
 611              	# 145 "src/syscall_c.cpp" 1
 146              		__asm__ volatile("li a0, 0x23");
 612              		mv a1, t1
 613              	# 0 "" 2
 614              	.LVL31:
 615              		.loc 1 146 2 is_stmt 1
 616              		.loc 1 146 33 is_stmt 0
 617              	# 146 "src/syscall_c.cpp" 1
 147              		//a0 = 0x23
 148:src/syscall_c.cpp **** 	//a1 = pokazivac na rucku semafora
 149:src/syscall_c.cpp **** 
 150:src/syscall_c.cpp **** 	scall();
 618              		li a0, 0x23
 619              	# 0 "" 2
 620              		.loc 1 150 2 is_stmt 1
 621              	#NO_APP
 622              	.LBB46:
 623              	.LBB47:
   7:src/syscall_c.cpp **** }
 624              		.loc 1 7 2
   7:src/syscall_c.cpp **** }
 625              		.loc 1 7 27 is_stmt 0
 626              	#APP
 627              	# 7 "src/syscall_c.cpp" 1
 628              		ecall
 629              	# 0 "" 2
 630              	#NO_APP
 631              	.LBE47:
 632              	.LBE46:
 151:src/syscall_c.cpp **** 
 152:src/syscall_c.cpp **** 	int status;
 633              		.loc 1 152 2 is_stmt 1
 153:src/syscall_c.cpp **** 	__asm__ volatile("mv %[status], a0":[status] "=r"(status));
 634              		.loc 1 153 2
 635              		.loc 1 153 60 is_stmt 0
 636              	#APP
 637              	# 153 "src/syscall_c.cpp" 1
 154              		return status;
 638              		mv a0, a0
 639              	# 0 "" 2
 640              	.LVL32:
 641              		.loc 1 154 2 is_stmt 1
GAS LISTING /tmp/cc3UJuKU.s 			page 15


 155:src/syscall_c.cpp **** }
 642              		.loc 1 155 1 is_stmt 0
 643              	#NO_APP
 644 0218 1B050500 		sext.w	a0,a0
 645 021c 03348100 		ld	s0,8(sp)
 646              		.cfi_restore 8
 647              		.cfi_def_cfa 2, 16
 648 0220 13010101 		addi	sp,sp,16
 649              		.cfi_def_cfa_offset 0
 650 0224 67800000 		jr	ra
 651              		.cfi_endproc
 652              	.LFE28:
 654              		.align	2
 655              		.globl	_Z10sem_signalP4KSem
 657              	_Z10sem_signalP4KSem:
 658              	.LFB29:
 156:src/syscall_c.cpp **** 
 157:src/syscall_c.cpp **** int sem_signal(sem_t id) {
 659              		.loc 1 157 26 is_stmt 1
 660              		.cfi_startproc
 661              	.LVL33:
 662 0228 130101FF 		addi	sp,sp,-16
 663              		.cfi_def_cfa_offset 16
 664 022c 23348100 		sd	s0,8(sp)
 665              		.cfi_offset 8, -8
 666 0230 13040101 		addi	s0,sp,16
 667              		.cfi_def_cfa 8, 0
 668 0234 13030500 		mv	t1,a0
 158:src/syscall_c.cpp **** 	//stavljanje argumenata za sistemski poziv
 159:src/syscall_c.cpp **** 	__asm__ volatile("mv a1, %[handle]": :[handle] "r"(id):"a5", "a0", "a1", "a2", "a3", "a4", "a6", "
 669              		.loc 1 159 2
 670              		.loc 1 159 104 is_stmt 0
 671              	#APP
 672              	# 159 "src/syscall_c.cpp" 1
 160              		__asm__ volatile("li a0, 0x24");
 673              		mv a1, t1
 674              	# 0 "" 2
 675              	.LVL34:
 676              		.loc 1 160 2 is_stmt 1
 677              		.loc 1 160 33 is_stmt 0
 678              	# 160 "src/syscall_c.cpp" 1
 161              		//a0 = 0x24
 162:src/syscall_c.cpp **** 	//a1 = pokazivac na rucku semafora
 163:src/syscall_c.cpp **** 
 164:src/syscall_c.cpp **** 	scall();
 679              		li a0, 0x24
 680              	# 0 "" 2
 681              		.loc 1 164 2 is_stmt 1
 682              	#NO_APP
 683              	.LBB48:
 684              	.LBB49:
   7:src/syscall_c.cpp **** }
 685              		.loc 1 7 2
   7:src/syscall_c.cpp **** }
 686              		.loc 1 7 27 is_stmt 0
 687              	#APP
 688              	# 7 "src/syscall_c.cpp" 1
GAS LISTING /tmp/cc3UJuKU.s 			page 16


 689              		ecall
 690              	# 0 "" 2
 691              	#NO_APP
 692              	.LBE49:
 693              	.LBE48:
 165:src/syscall_c.cpp **** 
 166:src/syscall_c.cpp **** 	int status;
 694              		.loc 1 166 2 is_stmt 1
 167:src/syscall_c.cpp **** 	__asm__ volatile("mv %[status], a0":[status] "=r"(status));
 695              		.loc 1 167 2
 696              		.loc 1 167 60 is_stmt 0
 697              	#APP
 698              	# 167 "src/syscall_c.cpp" 1
 168              		return status;
 699              		mv a0, a0
 700              	# 0 "" 2
 701              	.LVL35:
 702              		.loc 1 168 2 is_stmt 1
 169:src/syscall_c.cpp **** }
 703              		.loc 1 169 1 is_stmt 0
 704              	#NO_APP
 705 0248 1B050500 		sext.w	a0,a0
 706 024c 03348100 		ld	s0,8(sp)
 707              		.cfi_restore 8
 708              		.cfi_def_cfa 2, 16
 709 0250 13010101 		addi	sp,sp,16
 710              		.cfi_def_cfa_offset 0
 711 0254 67800000 		jr	ra
 712              		.cfi_endproc
 713              	.LFE29:
 715              		.align	2
 716              		.globl	_Z4getcv
 718              	_Z4getcv:
 719              	.LFB30:
 170:src/syscall_c.cpp **** 
 171:src/syscall_c.cpp **** char getc() {
 720              		.loc 1 171 13 is_stmt 1
 721              		.cfi_startproc
 722 0258 130101FF 		addi	sp,sp,-16
 723              		.cfi_def_cfa_offset 16
 724 025c 23348100 		sd	s0,8(sp)
 725              		.cfi_offset 8, -8
 726 0260 13040101 		addi	s0,sp,16
 727              		.cfi_def_cfa 8, 0
 172:src/syscall_c.cpp **** 	//nema argumenata
 173:src/syscall_c.cpp **** 	__asm__ volatile("li a0, 0x41");
 728              		.loc 1 173 2
 729              		.loc 1 173 33 is_stmt 0
 730              	#APP
 731              	# 173 "src/syscall_c.cpp" 1
 174              	
 175:src/syscall_c.cpp **** 	scall();
 732              		li a0, 0x41
 733              	# 0 "" 2
 734              		.loc 1 175 2 is_stmt 1
 735              	#NO_APP
 736              	.LBB50:
GAS LISTING /tmp/cc3UJuKU.s 			page 17


 737              	.LBB51:
   7:src/syscall_c.cpp **** }
 738              		.loc 1 7 2
   7:src/syscall_c.cpp **** }
 739              		.loc 1 7 27 is_stmt 0
 740              	#APP
 741              	# 7 "src/syscall_c.cpp" 1
 742              		ecall
 743              	# 0 "" 2
 744              	#NO_APP
 745              	.LBE51:
 746              	.LBE50:
 176:src/syscall_c.cpp **** 
 177:src/syscall_c.cpp **** 	char character;
 747              		.loc 1 177 2 is_stmt 1
 178:src/syscall_c.cpp **** 	__asm__ volatile("mv %[status], a0":[status] "=r"(character));
 748              		.loc 1 178 2
 749              		.loc 1 178 63 is_stmt 0
 750              	#APP
 751              	# 178 "src/syscall_c.cpp" 1
 179              		return character;
 752              		mv a0, a0
 753              	# 0 "" 2
 754              	.LVL36:
 755              		.loc 1 179 2 is_stmt 1
 180:src/syscall_c.cpp **** }
 756              		.loc 1 180 1 is_stmt 0
 757              	#NO_APP
 758 0270 1375F50F 		andi	a0,a0,0xff
 759 0274 03348100 		ld	s0,8(sp)
 760              		.cfi_restore 8
 761              		.cfi_def_cfa 2, 16
 762 0278 13010101 		addi	sp,sp,16
 763              		.cfi_def_cfa_offset 0
 764 027c 67800000 		jr	ra
 765              		.cfi_endproc
 766              	.LFE30:
 768              		.align	2
 769              		.globl	_Z4putcc
 771              	_Z4putcc:
 772              	.LFB31:
 181:src/syscall_c.cpp **** 
 182:src/syscall_c.cpp **** void putc(char c) {
 773              		.loc 1 182 19 is_stmt 1
 774              		.cfi_startproc
 775              	.LVL37:
 776 0280 130101FF 		addi	sp,sp,-16
 777              		.cfi_def_cfa_offset 16
 778 0284 23348100 		sd	s0,8(sp)
 779              		.cfi_offset 8, -8
 780 0288 13040101 		addi	s0,sp,16
 781              		.cfi_def_cfa 8, 0
 782 028c 13030500 		mv	t1,a0
 183:src/syscall_c.cpp **** 	//stavljanje argumenata
 184:src/syscall_c.cpp **** 	__asm__ volatile("mv a1, %[c]": :[c] "r"(c):"a5", "a0", "a1", "a2", "a3", "a4", "a6", "a7");
 783              		.loc 1 184 2
 784              		.loc 1 184 93 is_stmt 0
GAS LISTING /tmp/cc3UJuKU.s 			page 18


 785              	#APP
 786              	# 184 "src/syscall_c.cpp" 1
 185              		__asm__ volatile("li a0, 0x42");
 787              		mv a1, t1
 788              	# 0 "" 2
 789              	.LVL38:
 790              		.loc 1 185 2 is_stmt 1
 791              		.loc 1 185 33 is_stmt 0
 792              	# 185 "src/syscall_c.cpp" 1
 186              	
 187:src/syscall_c.cpp **** 	scall();
 793              		li a0, 0x42
 794              	# 0 "" 2
 795              		.loc 1 187 2 is_stmt 1
 796              	#NO_APP
 797              	.LBB52:
 798              	.LBB53:
   7:src/syscall_c.cpp **** }
 799              		.loc 1 7 2
   7:src/syscall_c.cpp **** }
 800              		.loc 1 7 27 is_stmt 0
 801              	#APP
 802              	# 7 "src/syscall_c.cpp" 1
 803              		ecall
 804              	# 0 "" 2
 805              	#NO_APP
 806              	.LBE53:
 807              	.LBE52:
 188:src/syscall_c.cpp **** 	//nema povratne vrednosti
 189:src/syscall_c.cpp **** }
 808              		.loc 1 189 1
 809 029c 03348100 		ld	s0,8(sp)
 810              		.cfi_restore 8
 811              		.cfi_def_cfa 2, 16
 812 02a0 13010101 		addi	sp,sp,16
 813              		.cfi_def_cfa_offset 0
 814 02a4 67800000 		jr	ra
 815              		.cfi_endproc
 816              	.LFE31:
 818              	.Letext0:
 819              		.file 2 "src/../h/../lib/hw.h"
 820              		.file 3 "src/../h/syscall_c.hpp"
GAS LISTING /tmp/cc3UJuKU.s 			page 19


DEFINED SYMBOLS
                            *ABS*:0000000000000000 syscall_c.cpp
     /tmp/cc3UJuKU.s:9      .text:0000000000000000 _Z9mem_allocm
     /tmp/cc3UJuKU.s:13     .text:0000000000000000 .L0 
     /tmp/cc3UJuKU.s:15     .text:0000000000000000 .L0 
     /tmp/cc3UJuKU.s:16     .text:0000000000000004 .L0 
     /tmp/cc3UJuKU.s:18     .text:0000000000000008 .L0 
     /tmp/cc3UJuKU.s:20     .text:000000000000000c .L0 
     /tmp/cc3UJuKU.s:22     .text:000000000000000c .L0 
     /tmp/cc3UJuKU.s:23     .text:000000000000000c .L0 
     /tmp/cc3UJuKU.s:26     .text:0000000000000010 .L0 
     /tmp/cc3UJuKU.s:27     .text:0000000000000010 .L0 
     /tmp/cc3UJuKU.s:29     .text:0000000000000014 .L0 
     /tmp/cc3UJuKU.s:32     .text:0000000000000018 .L0 
     /tmp/cc3UJuKU.s:36     .text:0000000000000020 .L0 
     /tmp/cc3UJuKU.s:39     .text:0000000000000024 .L0 
   src/syscall_c.cpp:17     .text:0000000000000024 .L0 
     /tmp/cc3UJuKU.s:45     .text:0000000000000028 .L0 
   src/syscall_c.cpp:18     .text:0000000000000028 .L0 
     /tmp/cc3UJuKU.s:53     .text:000000000000002c .L0 
     /tmp/cc3UJuKU.s:54     .text:000000000000002c .L0 
   src/syscall_c.cpp:7      .text:000000000000002c .L0 
     /tmp/cc3UJuKU.s:63     .text:0000000000000030 .L0 
     /tmp/cc3UJuKU.s:64     .text:0000000000000030 .L0 
   src/syscall_c.cpp:25     .text:0000000000000030 .L0 
     /tmp/cc3UJuKU.s:71     .text:0000000000000034 .L0 
     /tmp/cc3UJuKU.s:73     .text:0000000000000034 .L0 
     /tmp/cc3UJuKU.s:74     .text:0000000000000038 .L0 
     /tmp/cc3UJuKU.s:75     .text:0000000000000038 .L0 
     /tmp/cc3UJuKU.s:77     .text:000000000000003c .L0 
     /tmp/cc3UJuKU.s:79     .text:0000000000000040 .L0 
     /tmp/cc3UJuKU.s:85     .text:0000000000000040 _Z8mem_freePv
     /tmp/cc3UJuKU.s:88     .text:0000000000000040 .L0 
     /tmp/cc3UJuKU.s:90     .text:0000000000000040 .L0 
     /tmp/cc3UJuKU.s:91     .text:0000000000000044 .L0 
     /tmp/cc3UJuKU.s:93     .text:0000000000000048 .L0 
     /tmp/cc3UJuKU.s:95     .text:000000000000004c .L0 
     /tmp/cc3UJuKU.s:98     .text:0000000000000050 .L0 
   src/syscall_c.cpp:31     .text:0000000000000050 .L0 
     /tmp/cc3UJuKU.s:105    .text:0000000000000054 .L0 
   src/syscall_c.cpp:32     .text:0000000000000054 .L0 
     /tmp/cc3UJuKU.s:113    .text:0000000000000058 .L0 
     /tmp/cc3UJuKU.s:114    .text:0000000000000058 .L0 
   src/syscall_c.cpp:7      .text:0000000000000058 .L0 
     /tmp/cc3UJuKU.s:123    .text:000000000000005c .L0 
     /tmp/cc3UJuKU.s:124    .text:000000000000005c .L0 
   src/syscall_c.cpp:39     .text:000000000000005c .L0 
     /tmp/cc3UJuKU.s:131    .text:0000000000000060 .L0 
     /tmp/cc3UJuKU.s:133    .text:0000000000000060 .L0 
     /tmp/cc3UJuKU.s:135    .text:0000000000000068 .L0 
     /tmp/cc3UJuKU.s:136    .text:0000000000000068 .L0 
     /tmp/cc3UJuKU.s:138    .text:000000000000006c .L0 
     /tmp/cc3UJuKU.s:140    .text:0000000000000070 .L0 
     /tmp/cc3UJuKU.s:146    .text:0000000000000070 _Z13thread_createPP3TCBPFvPvES2_
     /tmp/cc3UJuKU.s:149    .text:0000000000000070 .L0 
     /tmp/cc3UJuKU.s:151    .text:0000000000000070 .L0 
     /tmp/cc3UJuKU.s:152    .text:0000000000000074 .L0 
GAS LISTING /tmp/cc3UJuKU.s 			page 20


     /tmp/cc3UJuKU.s:158    .text:0000000000000088 .L0 
     /tmp/cc3UJuKU.s:159    .text:0000000000000088 .L0 
     /tmp/cc3UJuKU.s:160    .text:0000000000000088 .L0 
     /tmp/cc3UJuKU.s:161    .text:0000000000000088 .L0 
     /tmp/cc3UJuKU.s:162    .text:0000000000000088 .L0 
     /tmp/cc3UJuKU.s:164    .text:000000000000008c .L0 
     /tmp/cc3UJuKU.s:170    .text:0000000000000098 .L0 
     /tmp/cc3UJuKU.s:171    .text:0000000000000098 .L0 
     /tmp/cc3UJuKU.s:173    .text:000000000000009c .L0 
     /tmp/cc3UJuKU.s:174    .text:000000000000009c .L0 
     /tmp/cc3UJuKU.s:182    .text:00000000000000ac .L0 
   src/syscall_c.cpp:51     .text:00000000000000ac .L0 
     /tmp/cc3UJuKU.s:188    .text:00000000000000b0 .L0 
   src/syscall_c.cpp:52     .text:00000000000000b0 .L0 
     /tmp/cc3UJuKU.s:193    .text:00000000000000b4 .L0 
   src/syscall_c.cpp:54     .text:00000000000000b4 .L0 
     /tmp/cc3UJuKU.s:198    .text:00000000000000b8 .L0 
   src/syscall_c.cpp:55     .text:00000000000000b8 .L0 
     /tmp/cc3UJuKU.s:203    .text:00000000000000bc .L0 
   src/syscall_c.cpp:56     .text:00000000000000bc .L0 
     /tmp/cc3UJuKU.s:211    .text:00000000000000c0 .L0 
     /tmp/cc3UJuKU.s:212    .text:00000000000000c0 .L0 
   src/syscall_c.cpp:7      .text:00000000000000c0 .L0 
     /tmp/cc3UJuKU.s:221    .text:00000000000000c4 .L0 
     /tmp/cc3UJuKU.s:222    .text:00000000000000c4 .L0 
   src/syscall_c.cpp:66     .text:00000000000000c4 .L0 
     /tmp/cc3UJuKU.s:229    .text:00000000000000c8 .L0 
     /tmp/cc3UJuKU.s:231    .text:00000000000000c8 .L0 
     /tmp/cc3UJuKU.s:233    .text:00000000000000d0 .L0 
     /tmp/cc3UJuKU.s:234    .text:00000000000000d0 .L0 
     /tmp/cc3UJuKU.s:236    .text:00000000000000d4 .L0 
     /tmp/cc3UJuKU.s:237    .text:00000000000000d4 .L0 
     /tmp/cc3UJuKU.s:239    .text:00000000000000d8 .L0 
     /tmp/cc3UJuKU.s:242    .text:00000000000000dc .L0 
     /tmp/cc3UJuKU.s:245    .text:00000000000000e0 .L0 
     /tmp/cc3UJuKU.s:248    .text:00000000000000e4 .L0 
     /tmp/cc3UJuKU.s:252    .text:00000000000000e8 .L0 
     /tmp/cc3UJuKU.s:254    .text:00000000000000e8 .L0 
     /tmp/cc3UJuKU.s:256    .text:00000000000000f0 .L0 
     /tmp/cc3UJuKU.s:262    .text:00000000000000f0 _Z11thread_exitv
     /tmp/cc3UJuKU.s:265    .text:00000000000000f0 .L0 
     /tmp/cc3UJuKU.s:266    .text:00000000000000f0 .L0 
     /tmp/cc3UJuKU.s:267    .text:00000000000000f4 .L0 
     /tmp/cc3UJuKU.s:269    .text:00000000000000f8 .L0 
     /tmp/cc3UJuKU.s:271    .text:00000000000000fc .L0 
     /tmp/cc3UJuKU.s:273    .text:00000000000000fc .L0 
   src/syscall_c.cpp:72     .text:00000000000000fc .L0 
     /tmp/cc3UJuKU.s:282    .text:0000000000000100 .L0 
     /tmp/cc3UJuKU.s:283    .text:0000000000000100 .L0 
   src/syscall_c.cpp:7      .text:0000000000000100 .L0 
     /tmp/cc3UJuKU.s:292    .text:0000000000000104 .L0 
     /tmp/cc3UJuKU.s:293    .text:0000000000000104 .L0 
   src/syscall_c.cpp:77     .text:0000000000000104 .L0 
     /tmp/cc3UJuKU.s:300    .text:0000000000000108 .L0 
     /tmp/cc3UJuKU.s:302    .text:0000000000000108 .L0 
     /tmp/cc3UJuKU.s:304    .text:0000000000000110 .L0 
     /tmp/cc3UJuKU.s:305    .text:0000000000000110 .L0 
GAS LISTING /tmp/cc3UJuKU.s 			page 21


     /tmp/cc3UJuKU.s:307    .text:0000000000000114 .L0 
     /tmp/cc3UJuKU.s:309    .text:0000000000000118 .L0 
     /tmp/cc3UJuKU.s:315    .text:0000000000000118 _Z15thread_dispatchv
     /tmp/cc3UJuKU.s:318    .text:0000000000000118 .L0 
     /tmp/cc3UJuKU.s:319    .text:0000000000000118 .L0 
     /tmp/cc3UJuKU.s:320    .text:000000000000011c .L0 
     /tmp/cc3UJuKU.s:322    .text:0000000000000120 .L0 
     /tmp/cc3UJuKU.s:324    .text:0000000000000124 .L0 
     /tmp/cc3UJuKU.s:326    .text:0000000000000124 .L0 
   src/syscall_c.cpp:83     .text:0000000000000124 .L0 
     /tmp/cc3UJuKU.s:335    .text:0000000000000128 .L0 
     /tmp/cc3UJuKU.s:336    .text:0000000000000128 .L0 
   src/syscall_c.cpp:7      .text:0000000000000128 .L0 
     /tmp/cc3UJuKU.s:345    .text:000000000000012c .L0 
     /tmp/cc3UJuKU.s:346    .text:0000000000000130 .L0 
     /tmp/cc3UJuKU.s:347    .text:0000000000000130 .L0 
     /tmp/cc3UJuKU.s:349    .text:0000000000000134 .L0 
     /tmp/cc3UJuKU.s:351    .text:0000000000000138 .L0 
     /tmp/cc3UJuKU.s:357    .text:0000000000000138 _Z11thread_joinP3TCB
     /tmp/cc3UJuKU.s:360    .text:0000000000000138 .L0 
     /tmp/cc3UJuKU.s:362    .text:0000000000000138 .L0 
     /tmp/cc3UJuKU.s:363    .text:000000000000013c .L0 
     /tmp/cc3UJuKU.s:365    .text:0000000000000140 .L0 
     /tmp/cc3UJuKU.s:367    .text:0000000000000144 .L0 
     /tmp/cc3UJuKU.s:370    .text:0000000000000148 .L0 
   src/syscall_c.cpp:91     .text:0000000000000148 .L0 
     /tmp/cc3UJuKU.s:377    .text:000000000000014c .L0 
   src/syscall_c.cpp:92     .text:000000000000014c .L0 
     /tmp/cc3UJuKU.s:385    .text:0000000000000150 .L0 
     /tmp/cc3UJuKU.s:386    .text:0000000000000150 .L0 
   src/syscall_c.cpp:7      .text:0000000000000150 .L0 
     /tmp/cc3UJuKU.s:395    .text:0000000000000154 .L0 
     /tmp/cc3UJuKU.s:396    .text:0000000000000158 .L0 
     /tmp/cc3UJuKU.s:397    .text:0000000000000158 .L0 
     /tmp/cc3UJuKU.s:399    .text:000000000000015c .L0 
     /tmp/cc3UJuKU.s:401    .text:0000000000000160 .L0 
     /tmp/cc3UJuKU.s:407    .text:0000000000000160 _Z10time_sleepm
     /tmp/cc3UJuKU.s:410    .text:0000000000000160 .L0 
     /tmp/cc3UJuKU.s:412    .text:0000000000000160 .L0 
     /tmp/cc3UJuKU.s:413    .text:0000000000000164 .L0 
     /tmp/cc3UJuKU.s:415    .text:0000000000000168 .L0 
     /tmp/cc3UJuKU.s:417    .text:000000000000016c .L0 
     /tmp/cc3UJuKU.s:420    .text:0000000000000170 .L0 
   src/syscall_c.cpp:101    .text:0000000000000170 .L0 
     /tmp/cc3UJuKU.s:427    .text:0000000000000174 .L0 
   src/syscall_c.cpp:102    .text:0000000000000174 .L0 
     /tmp/cc3UJuKU.s:435    .text:0000000000000178 .L0 
     /tmp/cc3UJuKU.s:436    .text:0000000000000178 .L0 
   src/syscall_c.cpp:7      .text:0000000000000178 .L0 
     /tmp/cc3UJuKU.s:445    .text:000000000000017c .L0 
     /tmp/cc3UJuKU.s:446    .text:000000000000017c .L0 
   src/syscall_c.cpp:109    .text:000000000000017c .L0 
     /tmp/cc3UJuKU.s:453    .text:0000000000000180 .L0 
     /tmp/cc3UJuKU.s:455    .text:0000000000000180 .L0 
     /tmp/cc3UJuKU.s:457    .text:0000000000000188 .L0 
     /tmp/cc3UJuKU.s:458    .text:0000000000000188 .L0 
     /tmp/cc3UJuKU.s:460    .text:000000000000018c .L0 
GAS LISTING /tmp/cc3UJuKU.s 			page 22


     /tmp/cc3UJuKU.s:462    .text:0000000000000190 .L0 
     /tmp/cc3UJuKU.s:468    .text:0000000000000190 _Z8sem_openPP4KSemj
     /tmp/cc3UJuKU.s:471    .text:0000000000000190 .L0 
     /tmp/cc3UJuKU.s:473    .text:0000000000000190 .L0 
     /tmp/cc3UJuKU.s:474    .text:0000000000000194 .L0 
     /tmp/cc3UJuKU.s:476    .text:0000000000000198 .L0 
     /tmp/cc3UJuKU.s:478    .text:000000000000019c .L0 
     /tmp/cc3UJuKU.s:482    .text:00000000000001a4 .L0 
   src/syscall_c.cpp:115    .text:00000000000001a4 .L0 
     /tmp/cc3UJuKU.s:489    .text:00000000000001a8 .L0 
   src/syscall_c.cpp:116    .text:00000000000001a8 .L0 
     /tmp/cc3UJuKU.s:494    .text:00000000000001ac .L0 
   src/syscall_c.cpp:117    .text:00000000000001ac .L0 
     /tmp/cc3UJuKU.s:502    .text:00000000000001b0 .L0 
     /tmp/cc3UJuKU.s:503    .text:00000000000001b0 .L0 
   src/syscall_c.cpp:7      .text:00000000000001b0 .L0 
     /tmp/cc3UJuKU.s:512    .text:00000000000001b4 .L0 
     /tmp/cc3UJuKU.s:513    .text:00000000000001b4 .L0 
   src/syscall_c.cpp:125    .text:00000000000001b4 .L0 
     /tmp/cc3UJuKU.s:520    .text:00000000000001b8 .L0 
     /tmp/cc3UJuKU.s:522    .text:00000000000001b8 .L0 
     /tmp/cc3UJuKU.s:524    .text:00000000000001c0 .L0 
     /tmp/cc3UJuKU.s:525    .text:00000000000001c0 .L0 
     /tmp/cc3UJuKU.s:527    .text:00000000000001c4 .L0 
     /tmp/cc3UJuKU.s:529    .text:00000000000001c8 .L0 
     /tmp/cc3UJuKU.s:535    .text:00000000000001c8 _Z9sem_closeP4KSem
     /tmp/cc3UJuKU.s:538    .text:00000000000001c8 .L0 
     /tmp/cc3UJuKU.s:540    .text:00000000000001c8 .L0 
     /tmp/cc3UJuKU.s:541    .text:00000000000001cc .L0 
     /tmp/cc3UJuKU.s:543    .text:00000000000001d0 .L0 
     /tmp/cc3UJuKU.s:545    .text:00000000000001d4 .L0 
     /tmp/cc3UJuKU.s:548    .text:00000000000001d8 .L0 
   src/syscall_c.cpp:131    .text:00000000000001d8 .L0 
     /tmp/cc3UJuKU.s:555    .text:00000000000001dc .L0 
   src/syscall_c.cpp:132    .text:00000000000001dc .L0 
     /tmp/cc3UJuKU.s:563    .text:00000000000001e0 .L0 
     /tmp/cc3UJuKU.s:564    .text:00000000000001e0 .L0 
   src/syscall_c.cpp:7      .text:00000000000001e0 .L0 
     /tmp/cc3UJuKU.s:573    .text:00000000000001e4 .L0 
     /tmp/cc3UJuKU.s:574    .text:00000000000001e4 .L0 
   src/syscall_c.cpp:139    .text:00000000000001e4 .L0 
     /tmp/cc3UJuKU.s:581    .text:00000000000001e8 .L0 
     /tmp/cc3UJuKU.s:583    .text:00000000000001e8 .L0 
     /tmp/cc3UJuKU.s:585    .text:00000000000001f0 .L0 
     /tmp/cc3UJuKU.s:586    .text:00000000000001f0 .L0 
     /tmp/cc3UJuKU.s:588    .text:00000000000001f4 .L0 
     /tmp/cc3UJuKU.s:590    .text:00000000000001f8 .L0 
     /tmp/cc3UJuKU.s:596    .text:00000000000001f8 _Z8sem_waitP4KSem
     /tmp/cc3UJuKU.s:599    .text:00000000000001f8 .L0 
     /tmp/cc3UJuKU.s:601    .text:00000000000001f8 .L0 
     /tmp/cc3UJuKU.s:602    .text:00000000000001fc .L0 
     /tmp/cc3UJuKU.s:604    .text:0000000000000200 .L0 
     /tmp/cc3UJuKU.s:606    .text:0000000000000204 .L0 
     /tmp/cc3UJuKU.s:609    .text:0000000000000208 .L0 
   src/syscall_c.cpp:145    .text:0000000000000208 .L0 
     /tmp/cc3UJuKU.s:616    .text:000000000000020c .L0 
   src/syscall_c.cpp:146    .text:000000000000020c .L0 
GAS LISTING /tmp/cc3UJuKU.s 			page 23


     /tmp/cc3UJuKU.s:624    .text:0000000000000210 .L0 
     /tmp/cc3UJuKU.s:625    .text:0000000000000210 .L0 
   src/syscall_c.cpp:7      .text:0000000000000210 .L0 
     /tmp/cc3UJuKU.s:634    .text:0000000000000214 .L0 
     /tmp/cc3UJuKU.s:635    .text:0000000000000214 .L0 
   src/syscall_c.cpp:153    .text:0000000000000214 .L0 
     /tmp/cc3UJuKU.s:642    .text:0000000000000218 .L0 
     /tmp/cc3UJuKU.s:644    .text:0000000000000218 .L0 
     /tmp/cc3UJuKU.s:646    .text:0000000000000220 .L0 
     /tmp/cc3UJuKU.s:647    .text:0000000000000220 .L0 
     /tmp/cc3UJuKU.s:649    .text:0000000000000224 .L0 
     /tmp/cc3UJuKU.s:651    .text:0000000000000228 .L0 
     /tmp/cc3UJuKU.s:657    .text:0000000000000228 _Z10sem_signalP4KSem
     /tmp/cc3UJuKU.s:660    .text:0000000000000228 .L0 
     /tmp/cc3UJuKU.s:662    .text:0000000000000228 .L0 
     /tmp/cc3UJuKU.s:663    .text:000000000000022c .L0 
     /tmp/cc3UJuKU.s:665    .text:0000000000000230 .L0 
     /tmp/cc3UJuKU.s:667    .text:0000000000000234 .L0 
     /tmp/cc3UJuKU.s:670    .text:0000000000000238 .L0 
   src/syscall_c.cpp:159    .text:0000000000000238 .L0 
     /tmp/cc3UJuKU.s:677    .text:000000000000023c .L0 
   src/syscall_c.cpp:160    .text:000000000000023c .L0 
     /tmp/cc3UJuKU.s:685    .text:0000000000000240 .L0 
     /tmp/cc3UJuKU.s:686    .text:0000000000000240 .L0 
   src/syscall_c.cpp:7      .text:0000000000000240 .L0 
     /tmp/cc3UJuKU.s:695    .text:0000000000000244 .L0 
     /tmp/cc3UJuKU.s:696    .text:0000000000000244 .L0 
   src/syscall_c.cpp:167    .text:0000000000000244 .L0 
     /tmp/cc3UJuKU.s:703    .text:0000000000000248 .L0 
     /tmp/cc3UJuKU.s:705    .text:0000000000000248 .L0 
     /tmp/cc3UJuKU.s:707    .text:0000000000000250 .L0 
     /tmp/cc3UJuKU.s:708    .text:0000000000000250 .L0 
     /tmp/cc3UJuKU.s:710    .text:0000000000000254 .L0 
     /tmp/cc3UJuKU.s:712    .text:0000000000000258 .L0 
     /tmp/cc3UJuKU.s:718    .text:0000000000000258 _Z4getcv
     /tmp/cc3UJuKU.s:721    .text:0000000000000258 .L0 
     /tmp/cc3UJuKU.s:722    .text:0000000000000258 .L0 
     /tmp/cc3UJuKU.s:723    .text:000000000000025c .L0 
     /tmp/cc3UJuKU.s:725    .text:0000000000000260 .L0 
     /tmp/cc3UJuKU.s:727    .text:0000000000000264 .L0 
     /tmp/cc3UJuKU.s:729    .text:0000000000000264 .L0 
   src/syscall_c.cpp:173    .text:0000000000000264 .L0 
     /tmp/cc3UJuKU.s:738    .text:0000000000000268 .L0 
     /tmp/cc3UJuKU.s:739    .text:0000000000000268 .L0 
   src/syscall_c.cpp:7      .text:0000000000000268 .L0 
     /tmp/cc3UJuKU.s:748    .text:000000000000026c .L0 
     /tmp/cc3UJuKU.s:749    .text:000000000000026c .L0 
   src/syscall_c.cpp:178    .text:000000000000026c .L0 
     /tmp/cc3UJuKU.s:756    .text:0000000000000270 .L0 
     /tmp/cc3UJuKU.s:758    .text:0000000000000270 .L0 
     /tmp/cc3UJuKU.s:760    .text:0000000000000278 .L0 
     /tmp/cc3UJuKU.s:761    .text:0000000000000278 .L0 
     /tmp/cc3UJuKU.s:763    .text:000000000000027c .L0 
     /tmp/cc3UJuKU.s:765    .text:0000000000000280 .L0 
     /tmp/cc3UJuKU.s:771    .text:0000000000000280 _Z4putcc
     /tmp/cc3UJuKU.s:774    .text:0000000000000280 .L0 
     /tmp/cc3UJuKU.s:776    .text:0000000000000280 .L0 
GAS LISTING /tmp/cc3UJuKU.s 			page 24


     /tmp/cc3UJuKU.s:777    .text:0000000000000284 .L0 
     /tmp/cc3UJuKU.s:779    .text:0000000000000288 .L0 
     /tmp/cc3UJuKU.s:781    .text:000000000000028c .L0 
     /tmp/cc3UJuKU.s:784    .text:0000000000000290 .L0 
   src/syscall_c.cpp:184    .text:0000000000000290 .L0 
     /tmp/cc3UJuKU.s:791    .text:0000000000000294 .L0 
   src/syscall_c.cpp:185    .text:0000000000000294 .L0 
     /tmp/cc3UJuKU.s:799    .text:0000000000000298 .L0 
     /tmp/cc3UJuKU.s:800    .text:0000000000000298 .L0 
   src/syscall_c.cpp:7      .text:0000000000000298 .L0 
     /tmp/cc3UJuKU.s:809    .text:000000000000029c .L0 
     /tmp/cc3UJuKU.s:810    .text:00000000000002a0 .L0 
     /tmp/cc3UJuKU.s:811    .text:00000000000002a0 .L0 
     /tmp/cc3UJuKU.s:813    .text:00000000000002a4 .L0 
     /tmp/cc3UJuKU.s:815    .text:00000000000002a8 .L0 
     /tmp/cc3UJuKU.s:821    .text:00000000000002a8 .L0 
     /tmp/cc3UJuKU.s:34     .text:0000000000000020 .L2
     /tmp/cc3UJuKU.s:251    .text:00000000000000e8 .L8
     /tmp/cc3UJuKU.s:180    .text:00000000000000ac .L7
     /tmp/cc3UJuKU.s:1464   .debug_abbrev:0000000000000000 .Ldebug_abbrev0
     /tmp/cc3UJuKU.s:2191   .debug_str:00000000000002be .LASF57
     /tmp/cc3UJuKU.s:2135   .debug_str:0000000000000138 .LASF58
     /tmp/cc3UJuKU.s:2127   .debug_str:00000000000000f8 .LASF59
     /tmp/cc3UJuKU.s:5      .text:0000000000000000 .Ltext0
     /tmp/cc3UJuKU.s:818    .text:00000000000002a8 .Letext0
     /tmp/cc3UJuKU.s:2081   .debug_line:0000000000000000 .Ldebug_line0
     /tmp/cc3UJuKU.s:2145   .debug_str:000000000000017a .LASF0
     /tmp/cc3UJuKU.s:2151   .debug_str:00000000000001a0 .LASF1
     /tmp/cc3UJuKU.s:2139   .debug_str:0000000000000154 .LASF2
     /tmp/cc3UJuKU.s:2133   .debug_str:0000000000000131 .LASF4
     /tmp/cc3UJuKU.s:2179   .debug_str:0000000000000280 .LASF3
     /tmp/cc3UJuKU.s:2097   .debug_str:000000000000004f .LASF5
     /tmp/cc3UJuKU.s:2111   .debug_str:00000000000000ad .LASF6
     /tmp/cc3UJuKU.s:2155   .debug_str:00000000000001ba .LASF7
     /tmp/cc3UJuKU.s:2143   .debug_str:0000000000000167 .LASF8
     /tmp/cc3UJuKU.s:2199   .debug_str:00000000000003b1 .LASF9
     /tmp/cc3UJuKU.s:2125   .debug_str:00000000000000ea .LASF10
     /tmp/cc3UJuKU.s:2163   .debug_str:00000000000001f8 .LASF11
     /tmp/cc3UJuKU.s:2195   .debug_str:0000000000000397 .LASF12
     /tmp/cc3UJuKU.s:2099   .debug_str:0000000000000056 .LASF13
     /tmp/cc3UJuKU.s:2085   .debug_str:0000000000000009 .LASF14
     /tmp/cc3UJuKU.s:2101   .debug_str:0000000000000066 .LASF15
     /tmp/cc3UJuKU.s:2173   .debug_str:000000000000024e .LASF16
     /tmp/cc3UJuKU.s:2107   .debug_str:0000000000000089 .LASF17
     /tmp/cc3UJuKU.s:2083   .debug_str:0000000000000000 .LASF18
     /tmp/cc3UJuKU.s:2115   .debug_str:00000000000000bd .LASF19
     /tmp/cc3UJuKU.s:2201   .debug_str:00000000000003c1 .LASF20
     /tmp/cc3UJuKU.s:2119   .debug_str:00000000000000cc .LASF21
     /tmp/cc3UJuKU.s:2141   .debug_str:0000000000000162 .LASF40
     /tmp/cc3UJuKU.s:2121   .debug_str:00000000000000d1 .LASF42
     /tmp/cc3UJuKU.s:772    .text:0000000000000280 .LFB31
     /tmp/cc3UJuKU.s:816    .text:00000000000002a8 .LFE31
     /tmp/cc3UJuKU.s:1849   .debug_loc:0000000000000000 .LLST14
     /tmp/cc3UJuKU.s:797    .text:0000000000000298 .LBB52
     /tmp/cc3UJuKU.s:807    .text:000000000000029c .LBE52
     /tmp/cc3UJuKU.s:2157   .debug_str:00000000000001cd .LASF22
     /tmp/cc3UJuKU.s:2087   .debug_str:0000000000000019 .LASF24
GAS LISTING /tmp/cc3UJuKU.s 			page 25


     /tmp/cc3UJuKU.s:2091   .debug_str:000000000000002a .LASF26
     /tmp/cc3UJuKU.s:719    .text:0000000000000258 .LFB30
     /tmp/cc3UJuKU.s:766    .text:0000000000000280 .LFE30
     /tmp/cc3UJuKU.s:2183   .debug_str:000000000000029c .LASF23
     /tmp/cc3UJuKU.s:736    .text:0000000000000268 .LBB50
     /tmp/cc3UJuKU.s:746    .text:000000000000026c .LBE50
     /tmp/cc3UJuKU.s:2197   .debug_str:00000000000003a6 .LASF25
     /tmp/cc3UJuKU.s:2193   .debug_str:0000000000000382 .LASF27
     /tmp/cc3UJuKU.s:658    .text:0000000000000228 .LFB29
     /tmp/cc3UJuKU.s:713    .text:0000000000000258 .LFE29
     /tmp/cc3UJuKU.s:1863   .debug_loc:0000000000000039 .LLST13
     /tmp/cc3UJuKU.s:2153   .debug_str:00000000000001b3 .LASF28
     /tmp/cc3UJuKU.s:683    .text:0000000000000240 .LBB48
     /tmp/cc3UJuKU.s:693    .text:0000000000000244 .LBE48
     /tmp/cc3UJuKU.s:2103   .debug_str:0000000000000072 .LASF29
     /tmp/cc3UJuKU.s:2093   .debug_str:0000000000000033 .LASF30
     /tmp/cc3UJuKU.s:597    .text:00000000000001f8 .LFB28
     /tmp/cc3UJuKU.s:652    .text:0000000000000228 .LFE28
     /tmp/cc3UJuKU.s:1874   .debug_loc:000000000000006f .LLST12
     /tmp/cc3UJuKU.s:622    .text:0000000000000210 .LBB46
     /tmp/cc3UJuKU.s:632    .text:0000000000000214 .LBE46
     /tmp/cc3UJuKU.s:2137   .debug_str:000000000000014a .LASF31
     /tmp/cc3UJuKU.s:2149   .debug_str:000000000000018d .LASF32
     /tmp/cc3UJuKU.s:536    .text:00000000000001c8 .LFB27
     /tmp/cc3UJuKU.s:591    .text:00000000000001f8 .LFE27
     /tmp/cc3UJuKU.s:2185   .debug_str:00000000000002a6 .LASF33
     /tmp/cc3UJuKU.s:1885   .debug_loc:00000000000000a5 .LLST11
     /tmp/cc3UJuKU.s:561    .text:00000000000001e0 .LBB44
     /tmp/cc3UJuKU.s:571    .text:00000000000001e4 .LBE44
     /tmp/cc3UJuKU.s:2117   .debug_str:00000000000000c3 .LASF34
     /tmp/cc3UJuKU.s:2167   .debug_str:000000000000021c .LASF35
     /tmp/cc3UJuKU.s:469    .text:0000000000000190 .LFB26
     /tmp/cc3UJuKU.s:530    .text:00000000000001c8 .LFE26
     /tmp/cc3UJuKU.s:1896   .debug_loc:00000000000000db .LLST9
     /tmp/cc3UJuKU.s:2159   .debug_str:00000000000001d2 .LASF36
     /tmp/cc3UJuKU.s:1907   .debug_loc:0000000000000111 .LLST10
     /tmp/cc3UJuKU.s:500    .text:00000000000001b0 .LBB42
     /tmp/cc3UJuKU.s:510    .text:00000000000001b4 .LBE42
     /tmp/cc3UJuKU.s:2175   .debug_str:0000000000000264 .LASF37
     /tmp/cc3UJuKU.s:2169   .debug_str:0000000000000230 .LASF38
     /tmp/cc3UJuKU.s:408    .text:0000000000000160 .LFB25
     /tmp/cc3UJuKU.s:463    .text:0000000000000190 .LFE25
     /tmp/cc3UJuKU.s:2203   .debug_str:00000000000003c6 .LASF39
     /tmp/cc3UJuKU.s:1921   .debug_loc:000000000000014a .LLST8
     /tmp/cc3UJuKU.s:433    .text:0000000000000178 .LBB40
     /tmp/cc3UJuKU.s:443    .text:000000000000017c .LBE40
     /tmp/cc3UJuKU.s:2189   .debug_str:00000000000002b2 .LASF41
     /tmp/cc3UJuKU.s:2129   .debug_str:0000000000000116 .LASF43
     /tmp/cc3UJuKU.s:358    .text:0000000000000138 .LFB24
     /tmp/cc3UJuKU.s:402    .text:0000000000000160 .LFE24
     /tmp/cc3UJuKU.s:1932   .debug_loc:0000000000000180 .LLST7
     /tmp/cc3UJuKU.s:383    .text:0000000000000150 .LBB38
     /tmp/cc3UJuKU.s:393    .text:0000000000000154 .LBE38
     /tmp/cc3UJuKU.s:2123   .debug_str:00000000000000da .LASF44
     /tmp/cc3UJuKU.s:2165   .debug_str:0000000000000207 .LASF45
     /tmp/cc3UJuKU.s:316    .text:0000000000000118 .LFB23
     /tmp/cc3UJuKU.s:352    .text:0000000000000138 .LFE23
GAS LISTING /tmp/cc3UJuKU.s 			page 26


     /tmp/cc3UJuKU.s:333    .text:0000000000000128 .LBB36
     /tmp/cc3UJuKU.s:343    .text:000000000000012c .LBE36
     /tmp/cc3UJuKU.s:2089   .debug_str:000000000000001e .LASF46
     /tmp/cc3UJuKU.s:2177   .debug_str:000000000000026f .LASF47
     /tmp/cc3UJuKU.s:263    .text:00000000000000f0 .LFB22
     /tmp/cc3UJuKU.s:310    .text:0000000000000118 .LFE22
     /tmp/cc3UJuKU.s:280    .text:0000000000000100 .LBB34
     /tmp/cc3UJuKU.s:290    .text:0000000000000104 .LBE34
     /tmp/cc3UJuKU.s:2109   .debug_str:000000000000009f .LASF48
     /tmp/cc3UJuKU.s:2161   .debug_str:00000000000001d7 .LASF49
     /tmp/cc3UJuKU.s:147    .text:0000000000000070 .LFB21
     /tmp/cc3UJuKU.s:257    .text:00000000000000f0 .LFE21
     /tmp/cc3UJuKU.s:1943   .debug_loc:00000000000001b6 .LLST2
     /tmp/cc3UJuKU.s:2171   .debug_str:0000000000000240 .LASF50
     /tmp/cc3UJuKU.s:1965   .debug_loc:0000000000000215 .LLST3
     /tmp/cc3UJuKU.s:1987   .debug_loc:0000000000000274 .LLST4
     /tmp/cc3UJuKU.s:2131   .debug_str:000000000000012b .LASF51
     /tmp/cc3UJuKU.s:2009   .debug_loc:00000000000002d3 .LLST5
     /tmp/cc3UJuKU.s:2026   .debug_loc:000000000000031e .LLST6
     /tmp/cc3UJuKU.s:209    .text:00000000000000c0 .LBB32
     /tmp/cc3UJuKU.s:219    .text:00000000000000c4 .LBE32
     /tmp/cc3UJuKU.s:177    .text:00000000000000a8 .LVL11
     /tmp/cc3UJuKU.s:2113   .debug_str:00000000000000b4 .LASF52
     /tmp/cc3UJuKU.s:2205   .debug_str:00000000000003d3 .LASF53
     /tmp/cc3UJuKU.s:86     .text:0000000000000040 .LFB20
     /tmp/cc3UJuKU.s:141    .text:0000000000000070 .LFE20
     /tmp/cc3UJuKU.s:2033   .debug_loc:0000000000000341 .LLST1
     /tmp/cc3UJuKU.s:111    .text:0000000000000058 .LBB30
     /tmp/cc3UJuKU.s:121    .text:000000000000005c .LBE30
     /tmp/cc3UJuKU.s:2181   .debug_str:0000000000000292 .LASF54
     /tmp/cc3UJuKU.s:2105   .debug_str:000000000000007b .LASF55
     /tmp/cc3UJuKU.s:10     .text:0000000000000000 .LFB19
     /tmp/cc3UJuKU.s:80     .text:0000000000000040 .LFE19
     /tmp/cc3UJuKU.s:2187   .debug_str:00000000000002ad .LASF56
     /tmp/cc3UJuKU.s:2044   .debug_loc:0000000000000377 .LLST0
     /tmp/cc3UJuKU.s:51     .text:000000000000002c .LBB28
     /tmp/cc3UJuKU.s:61     .text:0000000000000030 .LBE28
     /tmp/cc3UJuKU.s:2147   .debug_str:0000000000000187 .LASF60
     /tmp/cc3UJuKU.s:2095   .debug_str:0000000000000045 .LASF61
     /tmp/cc3UJuKU.s:775    .text:0000000000000280 .LVL37
     /tmp/cc3UJuKU.s:789    .text:0000000000000294 .LVL38
     /tmp/cc3UJuKU.s:661    .text:0000000000000228 .LVL33
     /tmp/cc3UJuKU.s:675    .text:000000000000023c .LVL34
     /tmp/cc3UJuKU.s:600    .text:00000000000001f8 .LVL30
     /tmp/cc3UJuKU.s:614    .text:000000000000020c .LVL31
     /tmp/cc3UJuKU.s:539    .text:00000000000001c8 .LVL27
     /tmp/cc3UJuKU.s:553    .text:00000000000001dc .LVL28
     /tmp/cc3UJuKU.s:472    .text:0000000000000190 .LVL24
     /tmp/cc3UJuKU.s:487    .text:00000000000001a8 .LVL25
     /tmp/cc3UJuKU.s:411    .text:0000000000000160 .LVL21
     /tmp/cc3UJuKU.s:425    .text:0000000000000174 .LVL22
     /tmp/cc3UJuKU.s:361    .text:0000000000000138 .LVL19
     /tmp/cc3UJuKU.s:375    .text:000000000000014c .LVL20
     /tmp/cc3UJuKU.s:150    .text:0000000000000070 .LVL8
     /tmp/cc3UJuKU.s:175    .text:00000000000000a0 .LVL10
     /tmp/cc3UJuKU.s:243    .text:00000000000000dc .LVL15
     /tmp/cc3UJuKU.s:250    .text:00000000000000e8 .LVL17
GAS LISTING /tmp/cc3UJuKU.s 			page 27


     /tmp/cc3UJuKU.s:240    .text:00000000000000d8 .LVL14
     /tmp/cc3UJuKU.s:246    .text:00000000000000e0 .LVL16
     /tmp/cc3UJuKU.s:169    .text:0000000000000098 .LVL9
     /tmp/cc3UJuKU.s:179    .text:00000000000000ac .LVL12
     /tmp/cc3UJuKU.s:227    .text:00000000000000c8 .LVL13
     /tmp/cc3UJuKU.s:89     .text:0000000000000040 .LVL5
     /tmp/cc3UJuKU.s:103    .text:0000000000000054 .LVL6
     /tmp/cc3UJuKU.s:14     .text:0000000000000000 .LVL0
     /tmp/cc3UJuKU.s:24     .text:0000000000000010 .LVL1
     /tmp/cc3UJuKU.s:30     .text:0000000000000018 .LVL2
     /tmp/cc3UJuKU.s:37     .text:0000000000000024 .LVL3
     /tmp/cc3UJuKU.s:822    .debug_info:0000000000000000 .Ldebug_info0

NO UNDEFINED SYMBOLS
