GAS LISTING /tmp/ccOmhfyd.s 			page 1


   1              		.file	"syscall_c.cpp"
   2              		.option pic
   3              		.option norelax
   4              		.text
   5              	.Ltext0:
   6              		.align	2
   7              		.globl	_Z9mem_allocm
   9              	_Z9mem_allocm:
  10              	.LFB19:
  11              		.file 1 "src/syscall_c.cpp"
   1:src/syscall_c.cpp **** #include "../h/syscall_c.hpp"
   2:src/syscall_c.cpp **** #include "../h/Riscv.hpp"
   3:src/syscall_c.cpp **** #include "../h/MemoryAllocator.hpp"
   4:src/syscall_c.cpp **** 
   5:src/syscall_c.cpp **** inline void scall() {
   6:src/syscall_c.cpp **** 	__asm__ volatile("ecall");
   7:src/syscall_c.cpp **** }
   8:src/syscall_c.cpp **** 
   9:src/syscall_c.cpp **** void* mem_alloc(size_t size) {
  12              		.loc 1 9 30
  13              		.cfi_startproc
  14              	.LVL0:
  15 0000 130101FF 		addi	sp,sp,-16
  16              		.cfi_def_cfa_offset 16
  17 0004 23348100 		sd	s0,8(sp)
  18              		.cfi_offset 8, -8
  19 0008 13040101 		addi	s0,sp,16
  20              		.cfi_def_cfa 8, 0
  10:src/syscall_c.cpp **** 	//size je u bajtovima, pretvara se u blokove
  11:src/syscall_c.cpp **** 	size = size / MEM_BLOCK_SIZE + (size % MEM_BLOCK_SIZE ? 1 : 0);
  21              		.loc 1 11 2
  22              		.loc 1 11 14 is_stmt 0
  23 000c 13536500 		srli	t1,a0,6
  24              		.loc 1 11 39
  25 0010 1375F503 		andi	a0,a0,63
  26              	.LVL1:
  27              		.loc 1 11 56
  28 0014 63040500 		beqz	a0,.L2
  29 0018 13051000 		li	a0,1
  30              	.L2:
  31              		.loc 1 11 7 discriminator 4
  32 001c 3303A300 		add	t1,t1,a0
  33              	.LVL2:
  12:src/syscall_c.cpp **** 	__asm__ volatile("mv a1, %[size]": :[size] "r"(size):"a5", "a0", "a1", "a2", "a3", "a4", "a6", "a7
  34              		.loc 1 12 2 is_stmt 1 discriminator 4
  35              		.loc 1 12 102 is_stmt 0 discriminator 4
  36              	#APP
  37              	# 12 "src/syscall_c.cpp" 1
  13              		Riscv::loadOpCode(0x01);
  38              		mv a1, t1
  39              	# 0 "" 2
  40              		.loc 1 13 2 is_stmt 1 discriminator 4
  41              	.LVL3:
  42              	#NO_APP
  43              	.LBB12:
  44              	.LBB13:
  45              		.file 2 "src/../h/Riscv.hpp"
GAS LISTING /tmp/ccOmhfyd.s 			page 2


   1:src/../h/Riscv.hpp **** //
   2:src/../h/Riscv.hpp **** // Created by os on 5/17/23.
   3:src/../h/Riscv.hpp **** //
   4:src/../h/Riscv.hpp **** 
   5:src/../h/Riscv.hpp **** #ifndef PROJEKAT2023_RISCV_HPP
   6:src/../h/Riscv.hpp **** #define PROJEKAT2023_RISCV_HPP
   7:src/../h/Riscv.hpp **** 
   8:src/../h/Riscv.hpp **** #include "../lib/hw.h"
   9:src/../h/Riscv.hpp **** 
  10:src/../h/Riscv.hpp **** class Riscv {
  11:src/../h/Riscv.hpp **** public:
  12:src/../h/Riscv.hpp **** 
  13:src/../h/Riscv.hpp **** 	//stavljanje registara x3-x31 na stek
  14:src/../h/Riscv.hpp **** 	static void pushRegisters();    //implementacija u asm
  15:src/../h/Riscv.hpp **** 
  16:src/../h/Riscv.hpp **** 	//skidanje registara x3-x31 sa steka
  17:src/../h/Riscv.hpp **** 	static void popRegisters();     //implementacija u asm
  18:src/../h/Riscv.hpp **** 
  19:src/../h/Riscv.hpp **** 	//read scause
  20:src/../h/Riscv.hpp **** 	static uint64 r_scause();
  21:src/../h/Riscv.hpp **** 
  22:src/../h/Riscv.hpp **** 	//write scause
  23:src/../h/Riscv.hpp **** 	static void w_scause(uint64 scause);
  24:src/../h/Riscv.hpp **** 
  25:src/../h/Riscv.hpp **** 	//read sepc
  26:src/../h/Riscv.hpp **** 	static uint64 r_sepc();
  27:src/../h/Riscv.hpp **** 
  28:src/../h/Riscv.hpp **** 	//write sepc
  29:src/../h/Riscv.hpp **** 	static void w_sepc(uint64 sepc);
  30:src/../h/Riscv.hpp **** 
  31:src/../h/Riscv.hpp **** 	//read stvec
  32:src/../h/Riscv.hpp **** 	static uint64 r_stvec();
  33:src/../h/Riscv.hpp **** 
  34:src/../h/Riscv.hpp **** 	//write stvec
  35:src/../h/Riscv.hpp **** 	static void w_stvec(uint64 stvec);
  36:src/../h/Riscv.hpp **** 
  37:src/../h/Riscv.hpp **** 	enum BitMaskSip {
  38:src/../h/Riscv.hpp **** 		SIP_SSIP = (1 << 1),    //postoji zahtev za softverski prekid
  39:src/../h/Riscv.hpp **** 		SIP_STIP = (1 << 5),    //postoji prekid od tajmera
  40:src/../h/Riscv.hpp **** 		SIP_SEIP = (1 << 9)        //postoji zahtev za spoljasnji hardverski prekid
  41:src/../h/Riscv.hpp **** 	};
  42:src/../h/Riscv.hpp **** 
  43:src/../h/Riscv.hpp **** 	//mask set sip
  44:src/../h/Riscv.hpp **** 	static void ms_sip(uint64 mask);
  45:src/../h/Riscv.hpp **** 
  46:src/../h/Riscv.hpp **** 	//mask clear sip
  47:src/../h/Riscv.hpp **** 	static void mc_sip(uint64 mask);
  48:src/../h/Riscv.hpp **** 
  49:src/../h/Riscv.hpp **** 	//read sip
  50:src/../h/Riscv.hpp **** 	static uint64 r_sip();
  51:src/../h/Riscv.hpp **** 
  52:src/../h/Riscv.hpp **** 	//write sip
  53:src/../h/Riscv.hpp **** 	static void w_sip(uint64 sip);
  54:src/../h/Riscv.hpp **** 
  55:src/../h/Riscv.hpp **** 	enum BitMaskSstatus {
  56:src/../h/Riscv.hpp **** 		SSTATUS_SIE = (1 << 1),
  57:src/../h/Riscv.hpp **** 		SSTATUS_SPIE = (1 << 5),
GAS LISTING /tmp/ccOmhfyd.s 			page 3


  58:src/../h/Riscv.hpp **** 		SSTATUS_SPP = (1 << 8)
  59:src/../h/Riscv.hpp **** 	};
  60:src/../h/Riscv.hpp **** 
  61:src/../h/Riscv.hpp **** 	//mask set sstatus
  62:src/../h/Riscv.hpp **** 	static void ms_sstatus(uint64 mask);
  63:src/../h/Riscv.hpp **** 
  64:src/../h/Riscv.hpp **** 	//mask clear sstatus
  65:src/../h/Riscv.hpp **** 	static void mc_sstatus(uint64 mask);
  66:src/../h/Riscv.hpp **** 
  67:src/../h/Riscv.hpp **** 	//read sstatus
  68:src/../h/Riscv.hpp **** 	static uint64 r_sstatus();
  69:src/../h/Riscv.hpp **** 
  70:src/../h/Riscv.hpp **** 	//write sstatus
  71:src/../h/Riscv.hpp **** 	static void w_sstatus(uint64 sstatus);
  72:src/../h/Riscv.hpp **** 
  73:src/../h/Riscv.hpp **** 	//upisuje kod sistemskog poziva u registar a0
  74:src/../h/Riscv.hpp **** 	static void loadOpCode(uint64 opCode);
  75:src/../h/Riscv.hpp **** 
  76:src/../h/Riscv.hpp **** };
  77:src/../h/Riscv.hpp **** 
  78:src/../h/Riscv.hpp **** inline uint64 Riscv::r_scause() {
  79:src/../h/Riscv.hpp **** 	uint64 volatile scause;
  80:src/../h/Riscv.hpp **** 	__asm__ volatile("csrr %[scause], scause": [scause] "=r"(scause));
  81:src/../h/Riscv.hpp **** 	return scause;
  82:src/../h/Riscv.hpp **** }
  83:src/../h/Riscv.hpp **** 
  84:src/../h/Riscv.hpp **** inline void Riscv::w_scause(uint64 scause) {
  85:src/../h/Riscv.hpp **** 	__asm__ volatile("csrw scause, %[scause]": :[scause] "r"(scause));
  86:src/../h/Riscv.hpp **** }
  87:src/../h/Riscv.hpp **** 
  88:src/../h/Riscv.hpp **** inline uint64 Riscv::r_sepc() {
  89:src/../h/Riscv.hpp **** 	uint64 volatile sepc;
  90:src/../h/Riscv.hpp **** 	__asm__ volatile("csrr %[sepc], sepc": [sepc] "=r"(sepc));
  91:src/../h/Riscv.hpp **** 	return sepc;
  92:src/../h/Riscv.hpp **** }
  93:src/../h/Riscv.hpp **** 
  94:src/../h/Riscv.hpp **** inline void Riscv::w_sepc(uint64 sepc) {
  95:src/../h/Riscv.hpp **** 	__asm__ volatile("csrw sepc, %[sepc]": :[sepc] "r"(sepc));
  96:src/../h/Riscv.hpp **** }
  97:src/../h/Riscv.hpp **** 
  98:src/../h/Riscv.hpp **** inline uint64 Riscv::r_stvec() {
  99:src/../h/Riscv.hpp **** 	uint64 volatile stvec;
 100:src/../h/Riscv.hpp **** 	__asm__ volatile("csrr %[stvec], stvec": [stvec] "=r"(stvec));
 101:src/../h/Riscv.hpp **** 	return stvec;
 102:src/../h/Riscv.hpp **** }
 103:src/../h/Riscv.hpp **** 
 104:src/../h/Riscv.hpp **** inline void Riscv::w_stvec(uint64 stvec) {
 105:src/../h/Riscv.hpp **** 	__asm__ volatile("csrw stvec, %[stvec]": :[stvec] "r"(stvec));
 106:src/../h/Riscv.hpp **** }
 107:src/../h/Riscv.hpp **** 
 108:src/../h/Riscv.hpp **** inline void Riscv::ms_sip(uint64 mask) {
 109:src/../h/Riscv.hpp **** 	__asm__ volatile("csrs sip, %[mask]": :[mask] "r"(mask));
 110:src/../h/Riscv.hpp **** }
 111:src/../h/Riscv.hpp **** 
 112:src/../h/Riscv.hpp **** inline void Riscv::mc_sip(uint64 mask) {
 113:src/../h/Riscv.hpp **** 	__asm__ volatile("csrc sip, %[mask]": :[mask] "r"(mask));
 114:src/../h/Riscv.hpp **** }
GAS LISTING /tmp/ccOmhfyd.s 			page 4


 115:src/../h/Riscv.hpp **** 
 116:src/../h/Riscv.hpp **** inline uint64 Riscv::r_sip() {
 117:src/../h/Riscv.hpp **** 	uint64 volatile sip;
 118:src/../h/Riscv.hpp **** 	__asm__ volatile("csrr %[sip], sip": [sip] "=r"(sip));
 119:src/../h/Riscv.hpp **** 	return sip;
 120:src/../h/Riscv.hpp **** }
 121:src/../h/Riscv.hpp **** 
 122:src/../h/Riscv.hpp **** inline void Riscv::w_sip(uint64 sip) {
 123:src/../h/Riscv.hpp **** 	__asm__ volatile("csrw sip, %[sip]": :[sip] "r"(sip));
 124:src/../h/Riscv.hpp **** }
 125:src/../h/Riscv.hpp **** 
 126:src/../h/Riscv.hpp **** inline void Riscv::ms_sstatus(uint64 mask) {
 127:src/../h/Riscv.hpp **** 	__asm__ volatile("csrs sstatus, %[mask]": :[mask] "r"(mask));
 128:src/../h/Riscv.hpp **** }
 129:src/../h/Riscv.hpp **** 
 130:src/../h/Riscv.hpp **** inline void Riscv::mc_sstatus(uint64 mask) {
 131:src/../h/Riscv.hpp **** 	__asm__ volatile("csrc sstatus, %[mask]": :[mask] "r"(mask));
 132:src/../h/Riscv.hpp **** }
 133:src/../h/Riscv.hpp **** 
 134:src/../h/Riscv.hpp **** inline uint64 Riscv::r_sstatus() {
 135:src/../h/Riscv.hpp **** 	uint64 volatile sstatus;
 136:src/../h/Riscv.hpp **** 	__asm__ volatile("csrr %[sstatus], sstatus": [sstatus] "=r"(sstatus));
 137:src/../h/Riscv.hpp **** 	return sstatus;
 138:src/../h/Riscv.hpp **** }
 139:src/../h/Riscv.hpp **** 
 140:src/../h/Riscv.hpp **** inline void Riscv::w_sstatus(uint64 sstatus) {
 141:src/../h/Riscv.hpp **** 	__asm__ volatile("csrw sstatus, %[sstatus]": :[sstatus] "r"(sstatus));
 142:src/../h/Riscv.hpp **** }
 143:src/../h/Riscv.hpp **** 
 144:src/../h/Riscv.hpp **** inline void Riscv::loadOpCode(uint64 opCode) {
 145:src/../h/Riscv.hpp **** 	__asm__ volatile("mv a0, %[code]": :[code] "r"(opCode));
  46              		.loc 2 145 2 discriminator 4
  47              		.loc 2 145 57 is_stmt 0 discriminator 4
  48 0024 93071000 		li	a5,1
  49              	#APP
  50              	# 145 "src/../h/Riscv.hpp" 1
 146              	}
  51              		mv a0, a5
  52              	# 0 "" 2
  53              	.LVL4:
  54              	#NO_APP
  55              	.LBE13:
  56              	.LBE12:
  14:src/syscall_c.cpp **** 
  15:src/syscall_c.cpp **** 	scall();
  57              		.loc 1 15 2 is_stmt 1 discriminator 4
  58              	.LBB14:
  59              	.LBB15:
   6:src/syscall_c.cpp **** }
  60              		.loc 1 6 2 discriminator 4
   6:src/syscall_c.cpp **** }
  61              		.loc 1 6 27 is_stmt 0 discriminator 4
  62              	#APP
  63              	# 6 "src/syscall_c.cpp" 1
  64              		ecall
  65              	# 0 "" 2
  66              	#NO_APP
GAS LISTING /tmp/ccOmhfyd.s 			page 5


  67              	.LBE15:
  68              	.LBE14:
  16:src/syscall_c.cpp **** 
  17:src/syscall_c.cpp **** 	void* ret;
  69              		.loc 1 17 2 is_stmt 1 discriminator 4
  18:src/syscall_c.cpp **** 	__asm__ volatile("mv %[ptr], a0":[ptr] "=r"(ret));
  70              		.loc 1 18 2 discriminator 4
  71              		.loc 1 18 51 is_stmt 0 discriminator 4
  72              	#APP
  73              	# 18 "src/syscall_c.cpp" 1
  19              		return ret;
  74              		mv a0, a0
  75              	# 0 "" 2
  76              	.LVL5:
  77              		.loc 1 19 2 is_stmt 1 discriminator 4
  20:src/syscall_c.cpp **** }
  78              		.loc 1 20 1 is_stmt 0 discriminator 4
  79              	#NO_APP
  80 0034 03348100 		ld	s0,8(sp)
  81              		.cfi_restore 8
  82              		.cfi_def_cfa 2, 16
  83 0038 13010101 		addi	sp,sp,16
  84              		.cfi_def_cfa_offset 0
  85 003c 67800000 		jr	ra
  86              		.cfi_endproc
  87              	.LFE19:
  89              		.align	2
  90              		.globl	_Z8mem_freePv
  92              	_Z8mem_freePv:
  93              	.LFB20:
  21:src/syscall_c.cpp **** 
  22:src/syscall_c.cpp **** int mem_free(void* ptr) {
  94              		.loc 1 22 25 is_stmt 1
  95              		.cfi_startproc
  96              	.LVL6:
  97 0040 130101FF 		addi	sp,sp,-16
  98              		.cfi_def_cfa_offset 16
  99 0044 23348100 		sd	s0,8(sp)
 100              		.cfi_offset 8, -8
 101 0048 13040101 		addi	s0,sp,16
 102              		.cfi_def_cfa 8, 0
 103 004c 13030500 		mv	t1,a0
  23:src/syscall_c.cpp **** 	__asm__ volatile("mv a1, %[ptr]": :[ptr] "r"(ptr):"a5", "a0", "a1", "a2", "a3", "a4", "a6", "a7");
 104              		.loc 1 23 2
 105              		.loc 1 23 99 is_stmt 0
 106              	#APP
 107              	# 23 "src/syscall_c.cpp" 1
  24              		Riscv::loadOpCode(0x02);
 108              		mv a1, t1
 109              	# 0 "" 2
 110              	.LVL7:
 111              		.loc 1 24 2 is_stmt 1
 112              	#NO_APP
 113              	.LBB16:
 114              	.LBB17:
 145:src/../h/Riscv.hpp **** }
 115              		.loc 2 145 2
GAS LISTING /tmp/ccOmhfyd.s 			page 6


 145:src/../h/Riscv.hpp **** }
 116              		.loc 2 145 57 is_stmt 0
 117 0054 93072000 		li	a5,2
 118              	#APP
 119              	# 145 "src/../h/Riscv.hpp" 1
 120              		mv a0, a5
 121              	# 0 "" 2
 122              	.LVL8:
 123              	#NO_APP
 124              	.LBE17:
 125              	.LBE16:
  25:src/syscall_c.cpp **** 
  26:src/syscall_c.cpp **** 	scall();
 126              		.loc 1 26 2 is_stmt 1
 127              	.LBB18:
 128              	.LBB19:
   6:src/syscall_c.cpp **** }
 129              		.loc 1 6 2
   6:src/syscall_c.cpp **** }
 130              		.loc 1 6 27 is_stmt 0
 131              	#APP
 132              	# 6 "src/syscall_c.cpp" 1
 133              		ecall
 134              	# 0 "" 2
 135              	#NO_APP
 136              	.LBE19:
 137              	.LBE18:
  27:src/syscall_c.cpp **** 
  28:src/syscall_c.cpp **** 	int status;
 138              		.loc 1 28 2 is_stmt 1
  29:src/syscall_c.cpp **** 	__asm__ volatile("mv %[status], a0":[status] "=r"(status));
 139              		.loc 1 29 2
 140              		.loc 1 29 60 is_stmt 0
 141              	#APP
 142              	# 29 "src/syscall_c.cpp" 1
  30              		return status;
 143              		mv a0, a0
 144              	# 0 "" 2
 145              	.LVL9:
 146              		.loc 1 30 2 is_stmt 1
  31:src/syscall_c.cpp **** }
 147              		.loc 1 31 1 is_stmt 0
 148              	#NO_APP
 149 0064 1B050500 		sext.w	a0,a0
 150 0068 03348100 		ld	s0,8(sp)
 151              		.cfi_restore 8
 152              		.cfi_def_cfa 2, 16
 153 006c 13010101 		addi	sp,sp,16
 154              		.cfi_def_cfa_offset 0
 155 0070 67800000 		jr	ra
 156              		.cfi_endproc
 157              	.LFE20:
 159              		.align	2
 160              		.globl	_Z13thread_createPP3TCBPFvPvES2_
 162              	_Z13thread_createPP3TCBPFvPvES2_:
 163              	.LFB21:
  32:src/syscall_c.cpp **** 
GAS LISTING /tmp/ccOmhfyd.s 			page 7


  33:src/syscall_c.cpp **** int thread_create(thread_t* handle, void (* start_routine)(void*), void* arg) {
 164              		.loc 1 33 79 is_stmt 1
 165              		.cfi_startproc
 166              	.LVL10:
 167 0074 130101FD 		addi	sp,sp,-48
 168              		.cfi_def_cfa_offset 48
 169 0078 23341102 		sd	ra,40(sp)
 170 007c 23308102 		sd	s0,32(sp)
 171 0080 233C9100 		sd	s1,24(sp)
 172 0084 23382101 		sd	s2,16(sp)
 173 0088 23343101 		sd	s3,8(sp)
 174              		.cfi_offset 1, -8
 175              		.cfi_offset 8, -16
 176              		.cfi_offset 9, -24
 177              		.cfi_offset 18, -32
 178              		.cfi_offset 19, -40
 179 008c 13040103 		addi	s0,sp,48
 180              		.cfi_def_cfa 8, 0
 181 0090 13090500 		mv	s2,a0
 182 0094 93840500 		mv	s1,a1
 183 0098 93090600 		mv	s3,a2
  34:src/syscall_c.cpp **** //	__asm__ volatile("mv s1, a1");
  35:src/syscall_c.cpp **** //	__asm__ volatile("mv s2, a2");
  36:src/syscall_c.cpp **** //	__asm__ volatile("mv s3, a3");
  37:src/syscall_c.cpp **** 	uint64* stack = (start_routine != nullptr ? (uint64*)MemoryAllocator::kmalloc(DEFAULT_STACK_SIZE) 
 184              		.loc 1 37 2
 185              		.loc 1 37 44 is_stmt 0
 186 009c 63880504 		beqz	a1,.L8
 187              		.loc 1 37 79 discriminator 1
 188 00a0 37150000 		li	a0,4096
 189              	.LVL11:
 190 00a4 97000000 		call	_ZN15MemoryAllocator7kmallocEm@plt
 190      E7800000 
 191              	.LVL12:
 192 00ac 13030500 		mv	t1,a0
 193              	.L7:
 194              	.LVL13:
  38:src/syscall_c.cpp **** 	__asm__ volatile("mv a4, %[sp]": :[sp] "r"(stack):"a5", "a0", "a1", "a2", "a3", "a4", "a6", "a7");
 195              		.loc 1 38 2 is_stmt 1 discriminator 4
 196              		.loc 1 38 99 is_stmt 0 discriminator 4
 197              	#APP
 198              	# 38 "src/syscall_c.cpp" 1
  39              	//	__asm__ volatile("mv a3, s3");
  40:src/syscall_c.cpp **** //	__asm__ volatile("mv a2, s2");
  41:src/syscall_c.cpp **** //	__asm__ volatile("mv a1, s1");
  42:src/syscall_c.cpp **** 	__asm__ volatile("mv a3, %[arg]": :[arg] "r"(arg):"a5", "a0", "a1", "a2", "a3", "a4", "a6", "a7");
 199              		mv a4, t1
 200              	# 0 "" 2
 201              		.loc 1 42 2 is_stmt 1 discriminator 4
 202              		.loc 1 42 99 is_stmt 0 discriminator 4
 203              	# 42 "src/syscall_c.cpp" 1
  43              		__asm__ volatile("mv a2, %[function]": :[function] "r"(start_routine):"a5", "a0", "a1", "a2", "a3"
 204              		mv a3, s3
 205              	# 0 "" 2
 206              		.loc 1 43 2 is_stmt 1 discriminator 4
 207              		.loc 1 43 119 is_stmt 0 discriminator 4
 208              	# 43 "src/syscall_c.cpp" 1
GAS LISTING /tmp/ccOmhfyd.s 			page 8


  44              		__asm__ volatile("mv a1, %[handle]": :[handle] "r"(handle):"a5", "a0", "a1", "a2", "a3", "a4", "a6
 209              		mv a2, s1
 210              	# 0 "" 2
 211              		.loc 1 44 2 is_stmt 1 discriminator 4
 212              		.loc 1 44 108 is_stmt 0 discriminator 4
 213              	# 44 "src/syscall_c.cpp" 1
  45              	
  46:src/syscall_c.cpp **** 	__asm__ volatile("li a0, 0x11");
 214              		mv a1, s2
 215              	# 0 "" 2
 216              		.loc 1 46 2 is_stmt 1 discriminator 4
 217              		.loc 1 46 33 is_stmt 0 discriminator 4
 218              	# 46 "src/syscall_c.cpp" 1
  47              		//Riscv::loadOpCode(0x11);
  48:src/syscall_c.cpp **** 
  49:src/syscall_c.cpp **** 	scall();
 219              		li a0, 0x11
 220              	# 0 "" 2
 221              		.loc 1 49 2 is_stmt 1 discriminator 4
 222              	#NO_APP
 223              	.LBB20:
 224              	.LBB21:
   6:src/syscall_c.cpp **** }
 225              		.loc 1 6 2 discriminator 4
   6:src/syscall_c.cpp **** }
 226              		.loc 1 6 27 is_stmt 0 discriminator 4
 227              	#APP
 228              	# 6 "src/syscall_c.cpp" 1
 229              		ecall
 230              	# 0 "" 2
 231              	#NO_APP
 232              	.LBE21:
 233              	.LBE20:
  50:src/syscall_c.cpp **** 
  51:src/syscall_c.cpp **** 	int status;
 234              		.loc 1 51 2 is_stmt 1 discriminator 4
  52:src/syscall_c.cpp **** 	__asm__ volatile("mv %[status], a0":[status] "=r"(status));
 235              		.loc 1 52 2 discriminator 4
 236              		.loc 1 52 60 is_stmt 0 discriminator 4
 237              	#APP
 238              	# 52 "src/syscall_c.cpp" 1
  53              		return status;
 239              		mv a0, a0
 240              	# 0 "" 2
 241              	.LVL14:
 242              		.loc 1 53 2 is_stmt 1 discriminator 4
  54:src/syscall_c.cpp **** }
 243              		.loc 1 54 1 is_stmt 0 discriminator 4
 244              	#NO_APP
 245 00cc 1B050500 		sext.w	a0,a0
 246 00d0 83308102 		ld	ra,40(sp)
 247              		.cfi_remember_state
 248              		.cfi_restore 1
 249 00d4 03340102 		ld	s0,32(sp)
 250              		.cfi_restore 8
 251              		.cfi_def_cfa 2, 48
 252 00d8 83348101 		ld	s1,24(sp)
GAS LISTING /tmp/ccOmhfyd.s 			page 9


 253              		.cfi_restore 9
 254              	.LVL15:
 255 00dc 03390101 		ld	s2,16(sp)
 256              		.cfi_restore 18
 257              	.LVL16:
 258 00e0 83398100 		ld	s3,8(sp)
 259              		.cfi_restore 19
 260              	.LVL17:
 261 00e4 13010103 		addi	sp,sp,48
 262              		.cfi_def_cfa_offset 0
 263 00e8 67800000 		jr	ra
 264              	.LVL18:
 265              	.L8:
 266              		.cfi_restore_state
  37:src/syscall_c.cpp **** 	__asm__ volatile("mv a4, %[sp]": :[sp] "r"(stack):"a5", "a0", "a1", "a2", "a3", "a4", "a6", "a7");
 267              		.loc 1 37 44
 268 00ec 13030000 		li	t1,0
 269 00f0 6FF01FFC 		j	.L7
 270              		.cfi_endproc
 271              	.LFE21:
 273              		.align	2
 274              		.globl	_Z11thread_exitv
 276              	_Z11thread_exitv:
 277              	.LFB22:
  55:src/syscall_c.cpp **** 
  56:src/syscall_c.cpp **** int thread_exit() {
 278              		.loc 1 56 19 is_stmt 1
 279              		.cfi_startproc
 280 00f4 130101FF 		addi	sp,sp,-16
 281              		.cfi_def_cfa_offset 16
 282 00f8 23348100 		sd	s0,8(sp)
 283              		.cfi_offset 8, -8
 284 00fc 13040101 		addi	s0,sp,16
 285              		.cfi_def_cfa 8, 0
  57:src/syscall_c.cpp **** 	return 0;
 286              		.loc 1 57 2
  58:src/syscall_c.cpp **** }
 287              		.loc 1 58 1 is_stmt 0
 288 0100 13050000 		li	a0,0
 289 0104 03348100 		ld	s0,8(sp)
 290              		.cfi_restore 8
 291              		.cfi_def_cfa 2, 16
 292 0108 13010101 		addi	sp,sp,16
 293              		.cfi_def_cfa_offset 0
 294 010c 67800000 		jr	ra
 295              		.cfi_endproc
 296              	.LFE22:
 298              		.align	2
 299              		.globl	_Z15thread_dispatchv
 301              	_Z15thread_dispatchv:
 302              	.LFB23:
  59:src/syscall_c.cpp **** 
  60:src/syscall_c.cpp **** void thread_dispatch() {
 303              		.loc 1 60 24 is_stmt 1
 304              		.cfi_startproc
 305 0110 130101FF 		addi	sp,sp,-16
 306              		.cfi_def_cfa_offset 16
GAS LISTING /tmp/ccOmhfyd.s 			page 10


 307 0114 23348100 		sd	s0,8(sp)
 308              		.cfi_offset 8, -8
 309 0118 13040101 		addi	s0,sp,16
 310              		.cfi_def_cfa 8, 0
  61:src/syscall_c.cpp **** 
  62:src/syscall_c.cpp **** }
 311              		.loc 1 62 1 is_stmt 0
 312 011c 03348100 		ld	s0,8(sp)
 313              		.cfi_restore 8
 314              		.cfi_def_cfa 2, 16
 315 0120 13010101 		addi	sp,sp,16
 316              		.cfi_def_cfa_offset 0
 317 0124 67800000 		jr	ra
 318              		.cfi_endproc
 319              	.LFE23:
 321              		.align	2
 322              		.globl	_Z11thread_joinP3TCB
 324              	_Z11thread_joinP3TCB:
 325              	.LFB24:
  63:src/syscall_c.cpp **** 
  64:src/syscall_c.cpp **** void thread_join(thread_t handle) {
 326              		.loc 1 64 35 is_stmt 1
 327              		.cfi_startproc
 328              	.LVL19:
 329 0128 130101FF 		addi	sp,sp,-16
 330              		.cfi_def_cfa_offset 16
 331 012c 23348100 		sd	s0,8(sp)
 332              		.cfi_offset 8, -8
 333 0130 13040101 		addi	s0,sp,16
 334              		.cfi_def_cfa 8, 0
  65:src/syscall_c.cpp **** 
  66:src/syscall_c.cpp **** }
 335              		.loc 1 66 1 is_stmt 0
 336 0134 03348100 		ld	s0,8(sp)
 337              		.cfi_restore 8
 338              		.cfi_def_cfa 2, 16
 339 0138 13010101 		addi	sp,sp,16
 340              		.cfi_def_cfa_offset 0
 341 013c 67800000 		jr	ra
 342              		.cfi_endproc
 343              	.LFE24:
 345              		.align	2
 346              		.globl	_Z10time_sleepm
 348              	_Z10time_sleepm:
 349              	.LFB25:
  67:src/syscall_c.cpp **** 
  68:src/syscall_c.cpp **** int time_sleep(time_t) {
 350              		.loc 1 68 24 is_stmt 1
 351              		.cfi_startproc
 352 0140 130101FF 		addi	sp,sp,-16
 353              		.cfi_def_cfa_offset 16
 354 0144 23348100 		sd	s0,8(sp)
 355              		.cfi_offset 8, -8
 356 0148 13040101 		addi	s0,sp,16
 357              		.cfi_def_cfa 8, 0
  69:src/syscall_c.cpp **** 	return 0;
 358              		.loc 1 69 2
GAS LISTING /tmp/ccOmhfyd.s 			page 11


  70:src/syscall_c.cpp **** }
 359              		.loc 1 70 1 is_stmt 0
 360 014c 13050000 		li	a0,0
 361 0150 03348100 		ld	s0,8(sp)
 362              		.cfi_restore 8
 363              		.cfi_def_cfa 2, 16
 364 0154 13010101 		addi	sp,sp,16
 365              		.cfi_def_cfa_offset 0
 366 0158 67800000 		jr	ra
 367              		.cfi_endproc
 368              	.LFE25:
 370              		.align	2
 371              		.globl	_Z8sem_openPP4_semj
 373              	_Z8sem_openPP4_semj:
 374              	.LFB26:
  71:src/syscall_c.cpp **** 
  72:src/syscall_c.cpp **** int sem_open(sem_t* handle, unsigned int init) {
 375              		.loc 1 72 48 is_stmt 1
 376              		.cfi_startproc
 377              	.LVL20:
 378 015c 130101FF 		addi	sp,sp,-16
 379              		.cfi_def_cfa_offset 16
 380 0160 23348100 		sd	s0,8(sp)
 381              		.cfi_offset 8, -8
 382 0164 13040101 		addi	s0,sp,16
 383              		.cfi_def_cfa 8, 0
  73:src/syscall_c.cpp **** 	return 0;
 384              		.loc 1 73 2
  74:src/syscall_c.cpp **** }
 385              		.loc 1 74 1 is_stmt 0
 386 0168 13050000 		li	a0,0
 387              	.LVL21:
 388 016c 03348100 		ld	s0,8(sp)
 389              		.cfi_restore 8
 390              		.cfi_def_cfa 2, 16
 391 0170 13010101 		addi	sp,sp,16
 392              		.cfi_def_cfa_offset 0
 393 0174 67800000 		jr	ra
 394              		.cfi_endproc
 395              	.LFE26:
 397              		.align	2
 398              		.globl	_Z9sem_closeP4_sem
 400              	_Z9sem_closeP4_sem:
 401              	.LFB27:
  75:src/syscall_c.cpp **** 
  76:src/syscall_c.cpp **** int sem_close(sem_t handle) {
 402              		.loc 1 76 29 is_stmt 1
 403              		.cfi_startproc
 404              	.LVL22:
 405 0178 130101FF 		addi	sp,sp,-16
 406              		.cfi_def_cfa_offset 16
 407 017c 23348100 		sd	s0,8(sp)
 408              		.cfi_offset 8, -8
 409 0180 13040101 		addi	s0,sp,16
 410              		.cfi_def_cfa 8, 0
  77:src/syscall_c.cpp **** 	return 0;
 411              		.loc 1 77 2
GAS LISTING /tmp/ccOmhfyd.s 			page 12


  78:src/syscall_c.cpp **** }
 412              		.loc 1 78 1 is_stmt 0
 413 0184 13050000 		li	a0,0
 414              	.LVL23:
 415 0188 03348100 		ld	s0,8(sp)
 416              		.cfi_restore 8
 417              		.cfi_def_cfa 2, 16
 418 018c 13010101 		addi	sp,sp,16
 419              		.cfi_def_cfa_offset 0
 420 0190 67800000 		jr	ra
 421              		.cfi_endproc
 422              	.LFE27:
 424              		.align	2
 425              		.globl	_Z8sem_waitP4_sem
 427              	_Z8sem_waitP4_sem:
 428              	.LFB28:
  79:src/syscall_c.cpp **** 
  80:src/syscall_c.cpp **** int sem_wait(sem_t id) {
 429              		.loc 1 80 24 is_stmt 1
 430              		.cfi_startproc
 431              	.LVL24:
 432 0194 130101FF 		addi	sp,sp,-16
 433              		.cfi_def_cfa_offset 16
 434 0198 23348100 		sd	s0,8(sp)
 435              		.cfi_offset 8, -8
 436 019c 13040101 		addi	s0,sp,16
 437              		.cfi_def_cfa 8, 0
  81:src/syscall_c.cpp **** 	return 0;
 438              		.loc 1 81 2
  82:src/syscall_c.cpp **** }
 439              		.loc 1 82 1 is_stmt 0
 440 01a0 13050000 		li	a0,0
 441              	.LVL25:
 442 01a4 03348100 		ld	s0,8(sp)
 443              		.cfi_restore 8
 444              		.cfi_def_cfa 2, 16
 445 01a8 13010101 		addi	sp,sp,16
 446              		.cfi_def_cfa_offset 0
 447 01ac 67800000 		jr	ra
 448              		.cfi_endproc
 449              	.LFE28:
 451              		.align	2
 452              		.globl	_Z10sem_signalP4_sem
 454              	_Z10sem_signalP4_sem:
 455              	.LFB29:
  83:src/syscall_c.cpp **** 
  84:src/syscall_c.cpp **** int sem_signal(sem_t id) {
 456              		.loc 1 84 26 is_stmt 1
 457              		.cfi_startproc
 458              	.LVL26:
 459 01b0 130101FF 		addi	sp,sp,-16
 460              		.cfi_def_cfa_offset 16
 461 01b4 23348100 		sd	s0,8(sp)
 462              		.cfi_offset 8, -8
 463 01b8 13040101 		addi	s0,sp,16
 464              		.cfi_def_cfa 8, 0
  85:src/syscall_c.cpp **** 	return 0;
GAS LISTING /tmp/ccOmhfyd.s 			page 13


 465              		.loc 1 85 2
  86:src/syscall_c.cpp **** }
 466              		.loc 1 86 1 is_stmt 0
 467 01bc 13050000 		li	a0,0
 468              	.LVL27:
 469 01c0 03348100 		ld	s0,8(sp)
 470              		.cfi_restore 8
 471              		.cfi_def_cfa 2, 16
 472 01c4 13010101 		addi	sp,sp,16
 473              		.cfi_def_cfa_offset 0
 474 01c8 67800000 		jr	ra
 475              		.cfi_endproc
 476              	.LFE29:
 478              		.align	2
 479              		.globl	_Z4getcv
 481              	_Z4getcv:
 482              	.LFB30:
  87:src/syscall_c.cpp **** 
  88:src/syscall_c.cpp **** char getc() {
 483              		.loc 1 88 13 is_stmt 1
 484              		.cfi_startproc
 485 01cc 130101FF 		addi	sp,sp,-16
 486              		.cfi_def_cfa_offset 16
 487 01d0 23348100 		sd	s0,8(sp)
 488              		.cfi_offset 8, -8
 489 01d4 13040101 		addi	s0,sp,16
 490              		.cfi_def_cfa 8, 0
  89:src/syscall_c.cpp **** 	return 0;
 491              		.loc 1 89 2
  90:src/syscall_c.cpp **** }
 492              		.loc 1 90 1 is_stmt 0
 493 01d8 13050000 		li	a0,0
 494 01dc 03348100 		ld	s0,8(sp)
 495              		.cfi_restore 8
 496              		.cfi_def_cfa 2, 16
 497 01e0 13010101 		addi	sp,sp,16
 498              		.cfi_def_cfa_offset 0
 499 01e4 67800000 		jr	ra
 500              		.cfi_endproc
 501              	.LFE30:
 503              		.align	2
 504              		.globl	_Z4putcc
 506              	_Z4putcc:
 507              	.LFB31:
  91:src/syscall_c.cpp **** 
  92:src/syscall_c.cpp **** void putc(char) {
 508              		.loc 1 92 17 is_stmt 1
 509              		.cfi_startproc
 510 01e8 130101FF 		addi	sp,sp,-16
 511              		.cfi_def_cfa_offset 16
 512 01ec 23348100 		sd	s0,8(sp)
 513              		.cfi_offset 8, -8
 514 01f0 13040101 		addi	s0,sp,16
 515              		.cfi_def_cfa 8, 0
  93:src/syscall_c.cpp **** 
  94:src/syscall_c.cpp **** }
 516              		.loc 1 94 1 is_stmt 0
GAS LISTING /tmp/ccOmhfyd.s 			page 14


 517 01f4 03348100 		ld	s0,8(sp)
 518              		.cfi_restore 8
 519              		.cfi_def_cfa 2, 16
 520 01f8 13010101 		addi	sp,sp,16
 521              		.cfi_def_cfa_offset 0
 522 01fc 67800000 		jr	ra
 523              		.cfi_endproc
 524              	.LFE31:
 526              	.Letext0:
 527              		.file 3 "src/../h/../lib/hw.h"
 528              		.file 4 "src/../h/syscall_c.hpp"
 529              		.file 5 "src/../h/MemoryAllocator.hpp"
GAS LISTING /tmp/ccOmhfyd.s 			page 15


DEFINED SYMBOLS
                            *ABS*:0000000000000000 syscall_c.cpp
     /tmp/ccOmhfyd.s:9      .text:0000000000000000 _Z9mem_allocm
     /tmp/ccOmhfyd.s:13     .text:0000000000000000 .L0 
     /tmp/ccOmhfyd.s:15     .text:0000000000000000 .L0 
     /tmp/ccOmhfyd.s:16     .text:0000000000000004 .L0 
     /tmp/ccOmhfyd.s:18     .text:0000000000000008 .L0 
     /tmp/ccOmhfyd.s:20     .text:000000000000000c .L0 
     /tmp/ccOmhfyd.s:22     .text:000000000000000c .L0 
     /tmp/ccOmhfyd.s:23     .text:000000000000000c .L0 
     /tmp/ccOmhfyd.s:25     .text:0000000000000010 .L0 
     /tmp/ccOmhfyd.s:28     .text:0000000000000014 .L0 
     /tmp/ccOmhfyd.s:32     .text:000000000000001c .L0 
     /tmp/ccOmhfyd.s:35     .text:0000000000000020 .L0 
   src/syscall_c.cpp:12     .text:0000000000000020 .L0 
     /tmp/ccOmhfyd.s:46     .text:0000000000000024 .L0 
     /tmp/ccOmhfyd.s:47     .text:0000000000000024 .L0 
     /tmp/ccOmhfyd.s:48     .text:0000000000000024 .L0 
     /tmp/ccOmhfyd.s:60     .text:000000000000002c .L0 
     /tmp/ccOmhfyd.s:61     .text:000000000000002c .L0 
   src/syscall_c.cpp:6      .text:000000000000002c .L0 
     /tmp/ccOmhfyd.s:70     .text:0000000000000030 .L0 
     /tmp/ccOmhfyd.s:71     .text:0000000000000030 .L0 
   src/syscall_c.cpp:18     .text:0000000000000030 .L0 
     /tmp/ccOmhfyd.s:78     .text:0000000000000034 .L0 
     /tmp/ccOmhfyd.s:80     .text:0000000000000034 .L0 
     /tmp/ccOmhfyd.s:81     .text:0000000000000038 .L0 
     /tmp/ccOmhfyd.s:82     .text:0000000000000038 .L0 
     /tmp/ccOmhfyd.s:84     .text:000000000000003c .L0 
     /tmp/ccOmhfyd.s:86     .text:0000000000000040 .L0 
     /tmp/ccOmhfyd.s:92     .text:0000000000000040 _Z8mem_freePv
     /tmp/ccOmhfyd.s:95     .text:0000000000000040 .L0 
     /tmp/ccOmhfyd.s:97     .text:0000000000000040 .L0 
     /tmp/ccOmhfyd.s:98     .text:0000000000000044 .L0 
     /tmp/ccOmhfyd.s:100    .text:0000000000000048 .L0 
     /tmp/ccOmhfyd.s:102    .text:000000000000004c .L0 
     /tmp/ccOmhfyd.s:105    .text:0000000000000050 .L0 
   src/syscall_c.cpp:23     .text:0000000000000050 .L0 
     /tmp/ccOmhfyd.s:115    .text:0000000000000054 .L0 
     /tmp/ccOmhfyd.s:116    .text:0000000000000054 .L0 
     /tmp/ccOmhfyd.s:117    .text:0000000000000054 .L0 
     /tmp/ccOmhfyd.s:129    .text:000000000000005c .L0 
     /tmp/ccOmhfyd.s:130    .text:000000000000005c .L0 
   src/syscall_c.cpp:6      .text:000000000000005c .L0 
     /tmp/ccOmhfyd.s:139    .text:0000000000000060 .L0 
     /tmp/ccOmhfyd.s:140    .text:0000000000000060 .L0 
   src/syscall_c.cpp:29     .text:0000000000000060 .L0 
     /tmp/ccOmhfyd.s:147    .text:0000000000000064 .L0 
     /tmp/ccOmhfyd.s:149    .text:0000000000000064 .L0 
     /tmp/ccOmhfyd.s:151    .text:000000000000006c .L0 
     /tmp/ccOmhfyd.s:152    .text:000000000000006c .L0 
     /tmp/ccOmhfyd.s:154    .text:0000000000000070 .L0 
     /tmp/ccOmhfyd.s:156    .text:0000000000000074 .L0 
     /tmp/ccOmhfyd.s:162    .text:0000000000000074 _Z13thread_createPP3TCBPFvPvES2_
     /tmp/ccOmhfyd.s:165    .text:0000000000000074 .L0 
     /tmp/ccOmhfyd.s:167    .text:0000000000000074 .L0 
     /tmp/ccOmhfyd.s:168    .text:0000000000000078 .L0 
GAS LISTING /tmp/ccOmhfyd.s 			page 16


     /tmp/ccOmhfyd.s:174    .text:000000000000008c .L0 
     /tmp/ccOmhfyd.s:175    .text:000000000000008c .L0 
     /tmp/ccOmhfyd.s:176    .text:000000000000008c .L0 
     /tmp/ccOmhfyd.s:177    .text:000000000000008c .L0 
     /tmp/ccOmhfyd.s:178    .text:000000000000008c .L0 
     /tmp/ccOmhfyd.s:180    .text:0000000000000090 .L0 
     /tmp/ccOmhfyd.s:185    .text:000000000000009c .L0 
     /tmp/ccOmhfyd.s:186    .text:000000000000009c .L0 
     /tmp/ccOmhfyd.s:188    .text:00000000000000a0 .L0 
     /tmp/ccOmhfyd.s:196    .text:00000000000000b0 .L0 
   src/syscall_c.cpp:38     .text:00000000000000b0 .L0 
     /tmp/ccOmhfyd.s:202    .text:00000000000000b4 .L0 
   src/syscall_c.cpp:42     .text:00000000000000b4 .L0 
     /tmp/ccOmhfyd.s:207    .text:00000000000000b8 .L0 
   src/syscall_c.cpp:43     .text:00000000000000b8 .L0 
     /tmp/ccOmhfyd.s:212    .text:00000000000000bc .L0 
   src/syscall_c.cpp:44     .text:00000000000000bc .L0 
     /tmp/ccOmhfyd.s:217    .text:00000000000000c0 .L0 
   src/syscall_c.cpp:46     .text:00000000000000c0 .L0 
     /tmp/ccOmhfyd.s:225    .text:00000000000000c4 .L0 
     /tmp/ccOmhfyd.s:226    .text:00000000000000c4 .L0 
   src/syscall_c.cpp:6      .text:00000000000000c4 .L0 
     /tmp/ccOmhfyd.s:235    .text:00000000000000c8 .L0 
     /tmp/ccOmhfyd.s:236    .text:00000000000000c8 .L0 
   src/syscall_c.cpp:52     .text:00000000000000c8 .L0 
     /tmp/ccOmhfyd.s:243    .text:00000000000000cc .L0 
     /tmp/ccOmhfyd.s:245    .text:00000000000000cc .L0 
     /tmp/ccOmhfyd.s:247    .text:00000000000000d4 .L0 
     /tmp/ccOmhfyd.s:248    .text:00000000000000d4 .L0 
     /tmp/ccOmhfyd.s:250    .text:00000000000000d8 .L0 
     /tmp/ccOmhfyd.s:251    .text:00000000000000d8 .L0 
     /tmp/ccOmhfyd.s:253    .text:00000000000000dc .L0 
     /tmp/ccOmhfyd.s:256    .text:00000000000000e0 .L0 
     /tmp/ccOmhfyd.s:259    .text:00000000000000e4 .L0 
     /tmp/ccOmhfyd.s:262    .text:00000000000000e8 .L0 
     /tmp/ccOmhfyd.s:266    .text:00000000000000ec .L0 
     /tmp/ccOmhfyd.s:268    .text:00000000000000ec .L0 
     /tmp/ccOmhfyd.s:270    .text:00000000000000f4 .L0 
     /tmp/ccOmhfyd.s:276    .text:00000000000000f4 _Z11thread_exitv
     /tmp/ccOmhfyd.s:279    .text:00000000000000f4 .L0 
     /tmp/ccOmhfyd.s:280    .text:00000000000000f4 .L0 
     /tmp/ccOmhfyd.s:281    .text:00000000000000f8 .L0 
     /tmp/ccOmhfyd.s:283    .text:00000000000000fc .L0 
     /tmp/ccOmhfyd.s:285    .text:0000000000000100 .L0 
     /tmp/ccOmhfyd.s:287    .text:0000000000000100 .L0 
     /tmp/ccOmhfyd.s:288    .text:0000000000000100 .L0 
     /tmp/ccOmhfyd.s:290    .text:0000000000000108 .L0 
     /tmp/ccOmhfyd.s:291    .text:0000000000000108 .L0 
     /tmp/ccOmhfyd.s:293    .text:000000000000010c .L0 
     /tmp/ccOmhfyd.s:295    .text:0000000000000110 .L0 
     /tmp/ccOmhfyd.s:301    .text:0000000000000110 _Z15thread_dispatchv
     /tmp/ccOmhfyd.s:304    .text:0000000000000110 .L0 
     /tmp/ccOmhfyd.s:305    .text:0000000000000110 .L0 
     /tmp/ccOmhfyd.s:306    .text:0000000000000114 .L0 
     /tmp/ccOmhfyd.s:308    .text:0000000000000118 .L0 
     /tmp/ccOmhfyd.s:310    .text:000000000000011c .L0 
     /tmp/ccOmhfyd.s:312    .text:000000000000011c .L0 
GAS LISTING /tmp/ccOmhfyd.s 			page 17


     /tmp/ccOmhfyd.s:313    .text:0000000000000120 .L0 
     /tmp/ccOmhfyd.s:314    .text:0000000000000120 .L0 
     /tmp/ccOmhfyd.s:316    .text:0000000000000124 .L0 
     /tmp/ccOmhfyd.s:318    .text:0000000000000128 .L0 
     /tmp/ccOmhfyd.s:324    .text:0000000000000128 _Z11thread_joinP3TCB
     /tmp/ccOmhfyd.s:327    .text:0000000000000128 .L0 
     /tmp/ccOmhfyd.s:329    .text:0000000000000128 .L0 
     /tmp/ccOmhfyd.s:330    .text:000000000000012c .L0 
     /tmp/ccOmhfyd.s:332    .text:0000000000000130 .L0 
     /tmp/ccOmhfyd.s:334    .text:0000000000000134 .L0 
     /tmp/ccOmhfyd.s:336    .text:0000000000000134 .L0 
     /tmp/ccOmhfyd.s:337    .text:0000000000000138 .L0 
     /tmp/ccOmhfyd.s:338    .text:0000000000000138 .L0 
     /tmp/ccOmhfyd.s:340    .text:000000000000013c .L0 
     /tmp/ccOmhfyd.s:342    .text:0000000000000140 .L0 
     /tmp/ccOmhfyd.s:348    .text:0000000000000140 _Z10time_sleepm
     /tmp/ccOmhfyd.s:351    .text:0000000000000140 .L0 
     /tmp/ccOmhfyd.s:352    .text:0000000000000140 .L0 
     /tmp/ccOmhfyd.s:353    .text:0000000000000144 .L0 
     /tmp/ccOmhfyd.s:355    .text:0000000000000148 .L0 
     /tmp/ccOmhfyd.s:357    .text:000000000000014c .L0 
     /tmp/ccOmhfyd.s:359    .text:000000000000014c .L0 
     /tmp/ccOmhfyd.s:360    .text:000000000000014c .L0 
     /tmp/ccOmhfyd.s:362    .text:0000000000000154 .L0 
     /tmp/ccOmhfyd.s:363    .text:0000000000000154 .L0 
     /tmp/ccOmhfyd.s:365    .text:0000000000000158 .L0 
     /tmp/ccOmhfyd.s:367    .text:000000000000015c .L0 
     /tmp/ccOmhfyd.s:373    .text:000000000000015c _Z8sem_openPP4_semj
     /tmp/ccOmhfyd.s:376    .text:000000000000015c .L0 
     /tmp/ccOmhfyd.s:378    .text:000000000000015c .L0 
     /tmp/ccOmhfyd.s:379    .text:0000000000000160 .L0 
     /tmp/ccOmhfyd.s:381    .text:0000000000000164 .L0 
     /tmp/ccOmhfyd.s:383    .text:0000000000000168 .L0 
     /tmp/ccOmhfyd.s:385    .text:0000000000000168 .L0 
     /tmp/ccOmhfyd.s:386    .text:0000000000000168 .L0 
     /tmp/ccOmhfyd.s:389    .text:0000000000000170 .L0 
     /tmp/ccOmhfyd.s:390    .text:0000000000000170 .L0 
     /tmp/ccOmhfyd.s:392    .text:0000000000000174 .L0 
     /tmp/ccOmhfyd.s:394    .text:0000000000000178 .L0 
     /tmp/ccOmhfyd.s:400    .text:0000000000000178 _Z9sem_closeP4_sem
     /tmp/ccOmhfyd.s:403    .text:0000000000000178 .L0 
     /tmp/ccOmhfyd.s:405    .text:0000000000000178 .L0 
     /tmp/ccOmhfyd.s:406    .text:000000000000017c .L0 
     /tmp/ccOmhfyd.s:408    .text:0000000000000180 .L0 
     /tmp/ccOmhfyd.s:410    .text:0000000000000184 .L0 
     /tmp/ccOmhfyd.s:412    .text:0000000000000184 .L0 
     /tmp/ccOmhfyd.s:413    .text:0000000000000184 .L0 
     /tmp/ccOmhfyd.s:416    .text:000000000000018c .L0 
     /tmp/ccOmhfyd.s:417    .text:000000000000018c .L0 
     /tmp/ccOmhfyd.s:419    .text:0000000000000190 .L0 
     /tmp/ccOmhfyd.s:421    .text:0000000000000194 .L0 
     /tmp/ccOmhfyd.s:427    .text:0000000000000194 _Z8sem_waitP4_sem
     /tmp/ccOmhfyd.s:430    .text:0000000000000194 .L0 
     /tmp/ccOmhfyd.s:432    .text:0000000000000194 .L0 
     /tmp/ccOmhfyd.s:433    .text:0000000000000198 .L0 
     /tmp/ccOmhfyd.s:435    .text:000000000000019c .L0 
     /tmp/ccOmhfyd.s:437    .text:00000000000001a0 .L0 
GAS LISTING /tmp/ccOmhfyd.s 			page 18


     /tmp/ccOmhfyd.s:439    .text:00000000000001a0 .L0 
     /tmp/ccOmhfyd.s:440    .text:00000000000001a0 .L0 
     /tmp/ccOmhfyd.s:443    .text:00000000000001a8 .L0 
     /tmp/ccOmhfyd.s:444    .text:00000000000001a8 .L0 
     /tmp/ccOmhfyd.s:446    .text:00000000000001ac .L0 
     /tmp/ccOmhfyd.s:448    .text:00000000000001b0 .L0 
     /tmp/ccOmhfyd.s:454    .text:00000000000001b0 _Z10sem_signalP4_sem
     /tmp/ccOmhfyd.s:457    .text:00000000000001b0 .L0 
     /tmp/ccOmhfyd.s:459    .text:00000000000001b0 .L0 
     /tmp/ccOmhfyd.s:460    .text:00000000000001b4 .L0 
     /tmp/ccOmhfyd.s:462    .text:00000000000001b8 .L0 
     /tmp/ccOmhfyd.s:464    .text:00000000000001bc .L0 
     /tmp/ccOmhfyd.s:466    .text:00000000000001bc .L0 
     /tmp/ccOmhfyd.s:467    .text:00000000000001bc .L0 
     /tmp/ccOmhfyd.s:470    .text:00000000000001c4 .L0 
     /tmp/ccOmhfyd.s:471    .text:00000000000001c4 .L0 
     /tmp/ccOmhfyd.s:473    .text:00000000000001c8 .L0 
     /tmp/ccOmhfyd.s:475    .text:00000000000001cc .L0 
     /tmp/ccOmhfyd.s:481    .text:00000000000001cc _Z4getcv
     /tmp/ccOmhfyd.s:484    .text:00000000000001cc .L0 
     /tmp/ccOmhfyd.s:485    .text:00000000000001cc .L0 
     /tmp/ccOmhfyd.s:486    .text:00000000000001d0 .L0 
     /tmp/ccOmhfyd.s:488    .text:00000000000001d4 .L0 
     /tmp/ccOmhfyd.s:490    .text:00000000000001d8 .L0 
     /tmp/ccOmhfyd.s:492    .text:00000000000001d8 .L0 
     /tmp/ccOmhfyd.s:493    .text:00000000000001d8 .L0 
     /tmp/ccOmhfyd.s:495    .text:00000000000001e0 .L0 
     /tmp/ccOmhfyd.s:496    .text:00000000000001e0 .L0 
     /tmp/ccOmhfyd.s:498    .text:00000000000001e4 .L0 
     /tmp/ccOmhfyd.s:500    .text:00000000000001e8 .L0 
     /tmp/ccOmhfyd.s:506    .text:00000000000001e8 _Z4putcc
     /tmp/ccOmhfyd.s:509    .text:00000000000001e8 .L0 
     /tmp/ccOmhfyd.s:510    .text:00000000000001e8 .L0 
     /tmp/ccOmhfyd.s:511    .text:00000000000001ec .L0 
     /tmp/ccOmhfyd.s:513    .text:00000000000001f0 .L0 
     /tmp/ccOmhfyd.s:515    .text:00000000000001f4 .L0 
     /tmp/ccOmhfyd.s:517    .text:00000000000001f4 .L0 
     /tmp/ccOmhfyd.s:518    .text:00000000000001f8 .L0 
     /tmp/ccOmhfyd.s:519    .text:00000000000001f8 .L0 
     /tmp/ccOmhfyd.s:521    .text:00000000000001fc .L0 
     /tmp/ccOmhfyd.s:523    .text:0000000000000200 .L0 
     /tmp/ccOmhfyd.s:530    .text:0000000000000200 .L0 
     /tmp/ccOmhfyd.s:30     .text:000000000000001c .L2
     /tmp/ccOmhfyd.s:265    .text:00000000000000ec .L8
     /tmp/ccOmhfyd.s:193    .text:00000000000000b0 .L7
     /tmp/ccOmhfyd.s:1377   .debug_abbrev:0000000000000000 .Ldebug_abbrev0
     /tmp/ccOmhfyd.s:2518   .debug_str:0000000000000549 .LASF103
     /tmp/ccOmhfyd.s:2426   .debug_str:000000000000028c .LASF104
     /tmp/ccOmhfyd.s:2410   .debug_str:000000000000020a .LASF105
     /tmp/ccOmhfyd.s:5      .text:0000000000000000 .Ltext0
     /tmp/ccOmhfyd.s:526    .text:0000000000000200 .Letext0
     /tmp/ccOmhfyd.s:2328   .debug_line:0000000000000000 .Ldebug_line0
     /tmp/ccOmhfyd.s:2452   .debug_str:000000000000035e .LASF0
     /tmp/ccOmhfyd.s:2462   .debug_str:0000000000000385 .LASF1
     /tmp/ccOmhfyd.s:2440   .debug_str:00000000000002f0 .LASF2
     /tmp/ccOmhfyd.s:2420   .debug_str:000000000000026d .LASF4
     /tmp/ccOmhfyd.s:2500   .debug_str:00000000000004b8 .LASF3
GAS LISTING /tmp/ccOmhfyd.s 			page 19


     /tmp/ccOmhfyd.s:2354   .debug_str:000000000000009c .LASF5
     /tmp/ccOmhfyd.s:2382   .debug_str:0000000000000161 .LASF6
     /tmp/ccOmhfyd.s:2466   .debug_str:00000000000003a9 .LASF7
     /tmp/ccOmhfyd.s:2450   .debug_str:000000000000034b .LASF8
     /tmp/ccOmhfyd.s:2528   .debug_str:000000000000063e .LASF9
     /tmp/ccOmhfyd.s:2408   .debug_str:00000000000001fc .LASF10
     /tmp/ccOmhfyd.s:2476   .debug_str:00000000000003e5 .LASF11
     /tmp/ccOmhfyd.s:2520   .debug_str:000000000000060d .LASF12
     /tmp/ccOmhfyd.s:2358   .debug_str:00000000000000b8 .LASF13
     /tmp/ccOmhfyd.s:2338   .debug_str:0000000000000037 .LASF14
     /tmp/ccOmhfyd.s:2364   .debug_str:00000000000000e4 .LASF15
     /tmp/ccOmhfyd.s:2492   .debug_str:0000000000000476 .LASF16
     /tmp/ccOmhfyd.s:2376   .debug_str:0000000000000129 .LASF17
     /tmp/ccOmhfyd.s:2330   .debug_str:0000000000000000 .LASF18
     /tmp/ccOmhfyd.s:2390   .debug_str:000000000000019f .LASF19
     /tmp/ccOmhfyd.s:2418   .debug_str:0000000000000268 .LASF20
     /tmp/ccOmhfyd.s:2458   .debug_str:0000000000000378 .LASF53
     /tmp/ccOmhfyd.s:2350   .debug_str:0000000000000084 .LASF21
     /tmp/ccOmhfyd.s:2342   .debug_str:0000000000000050 .LASF23
     /tmp/ccOmhfyd.s:2508   .debug_str:0000000000000504 .LASF22
     /tmp/ccOmhfyd.s:2336   .debug_str:000000000000001d .LASF24
     /tmp/ccOmhfyd.s:2340   .debug_str:0000000000000047 .LASF25
     /tmp/ccOmhfyd.s:2506   .debug_str:00000000000004ef .LASF27
     /tmp/ccOmhfyd.s:2388   .debug_str:0000000000000196 .LASF29
     /tmp/ccOmhfyd.s:2386   .debug_str:0000000000000181 .LASF31
     /tmp/ccOmhfyd.s:2502   .debug_str:00000000000004ca .LASF26
     /tmp/ccOmhfyd.s:2480   .debug_str:0000000000000409 .LASF28
     /tmp/ccOmhfyd.s:2488   .debug_str:0000000000000450 .LASF30
     /tmp/ccOmhfyd.s:2512   .debug_str:0000000000000518 .LASF32
     /tmp/ccOmhfyd.s:2402   .debug_str:00000000000001d9 .LASF33
     /tmp/ccOmhfyd.s:2378   .debug_str:000000000000013f .LASF34
     /tmp/ccOmhfyd.s:2334   .debug_str:0000000000000015 .LASF35
     /tmp/ccOmhfyd.s:2414   .debug_str:000000000000023e .LASF36
     /tmp/ccOmhfyd.s:2454   .debug_str:000000000000036b .LASF37
     /tmp/ccOmhfyd.s:2534   .debug_str:000000000000065d .LASF38
     /tmp/ccOmhfyd.s:2348   .debug_str:000000000000007d .LASF39
     /tmp/ccOmhfyd.s:2400   .debug_str:00000000000001c6 .LASF40
     /tmp/ccOmhfyd.s:2406   .debug_str:00000000000001f6 .LASF41
     /tmp/ccOmhfyd.s:2514   .debug_str:000000000000052b .LASF42
     /tmp/ccOmhfyd.s:2346   .debug_str:0000000000000077 .LASF43
     /tmp/ccOmhfyd.s:2550   .debug_str:00000000000006c9 .LASF44
     /tmp/ccOmhfyd.s:2544   .debug_str:00000000000006a1 .LASF45
     /tmp/ccOmhfyd.s:2496   .debug_str:0000000000000497 .LASF46
     /tmp/ccOmhfyd.s:2428   .debug_str:000000000000029e .LASF47
     /tmp/ccOmhfyd.s:2434   .debug_str:00000000000002c3 .LASF48
     /tmp/ccOmhfyd.s:2362   .debug_str:00000000000000da .LASF49
     /tmp/ccOmhfyd.s:2416   .debug_str:0000000000000252 .LASF50
     /tmp/ccOmhfyd.s:2442   .debug_str:00000000000002fe .LASF51
     /tmp/ccOmhfyd.s:2412   .debug_str:0000000000000228 .LASF52
     /tmp/ccOmhfyd.s:2366   .debug_str:00000000000000f0 .LASF68
     /tmp/ccOmhfyd.s:2548   .debug_str:00000000000006b1 .LASF70
     /tmp/ccOmhfyd.s:2436   .debug_str:00000000000002db .LASF54
     /tmp/ccOmhfyd.s:2524   .debug_str:0000000000000624 .LASF58
     /tmp/ccOmhfyd.s:2546   .debug_str:00000000000006ac .LASF55
     /tmp/ccOmhfyd.s:2532   .debug_str:0000000000000658 .LASF56
     /tmp/ccOmhfyd.s:2486   .debug_str:000000000000044b .LASF57
     /tmp/ccOmhfyd.s:2422   .debug_str:0000000000000274 .LASF59
GAS LISTING /tmp/ccOmhfyd.s 			page 20


     /tmp/ccOmhfyd.s:2522   .debug_str:000000000000061c .LASF60
     /tmp/ccOmhfyd.s:2490   .debug_str:0000000000000457 .LASF62
     /tmp/ccOmhfyd.s:2370   .debug_str:0000000000000101 .LASF61
     /tmp/ccOmhfyd.s:2504   .debug_str:00000000000004d1 .LASF63
     /tmp/ccOmhfyd.s:2384   .debug_str:0000000000000168 .LASF64
     /tmp/ccOmhfyd.s:2332   .debug_str:0000000000000009 .LASF65
     /tmp/ccOmhfyd.s:2538   .debug_str:000000000000067e .LASF66
     /tmp/ccOmhfyd.s:2474   .debug_str:00000000000003d9 .LASF67
     /tmp/ccOmhfyd.s:2392   .debug_str:00000000000001a5 .LASF69
     /tmp/ccOmhfyd.s:2444   .debug_str:0000000000000308 .LASF71
     /tmp/ccOmhfyd.s:2396   .debug_str:00000000000001b8 .LASF72
     /tmp/ccOmhfyd.s:2446   .debug_str:000000000000033d .LASF86
     /tmp/ccOmhfyd.s:2398   .debug_str:00000000000001bd .LASF88
     /tmp/ccOmhfyd.s:507    .text:00000000000001e8 .LFB31
     /tmp/ccOmhfyd.s:524    .text:0000000000000200 .LFE31
     /tmp/ccOmhfyd.s:2468   .debug_str:00000000000003bc .LASF73
     /tmp/ccOmhfyd.s:2438   .debug_str:00000000000002eb .LASF90
     /tmp/ccOmhfyd.s:2498   .debug_str:00000000000004af .LASF92
     /tmp/ccOmhfyd.s:482    .text:00000000000001cc .LFB30
     /tmp/ccOmhfyd.s:501    .text:00000000000001e8 .LFE30
     /tmp/ccOmhfyd.s:2526   .debug_str:0000000000000633 .LASF74
     /tmp/ccOmhfyd.s:2404   .debug_str:00000000000001e1 .LASF76
     /tmp/ccOmhfyd.s:455    .text:00000000000001b0 .LFB29
     /tmp/ccOmhfyd.s:476    .text:00000000000001cc .LFE29
     /tmp/ccOmhfyd.s:2134   .debug_loc:0000000000000000 .LLST12
     /tmp/ccOmhfyd.s:2448   .debug_str:0000000000000342 .LASF75
     /tmp/ccOmhfyd.s:2360   .debug_str:00000000000000c8 .LASF77
     /tmp/ccOmhfyd.s:428    .text:0000000000000194 .LFB28
     /tmp/ccOmhfyd.s:449    .text:00000000000001b0 .LFE28
     /tmp/ccOmhfyd.s:2148   .debug_loc:0000000000000039 .LLST11
     /tmp/ccOmhfyd.s:2430   .debug_str:00000000000002a9 .LASF78
     /tmp/ccOmhfyd.s:2472   .debug_str:00000000000003c6 .LASF79
     /tmp/ccOmhfyd.s:401    .text:0000000000000178 .LFB27
     /tmp/ccOmhfyd.s:422    .text:0000000000000194 .LFE27
     /tmp/ccOmhfyd.s:2510   .debug_str:0000000000000511 .LASF80
     /tmp/ccOmhfyd.s:2162   .debug_loc:0000000000000072 .LLST10
     /tmp/ccOmhfyd.s:2394   .debug_str:00000000000001af .LASF81
     /tmp/ccOmhfyd.s:2374   .debug_str:0000000000000115 .LASF82
     /tmp/ccOmhfyd.s:374    .text:000000000000015c .LFB26
     /tmp/ccOmhfyd.s:395    .text:0000000000000178 .LFE26
     /tmp/ccOmhfyd.s:2176   .debug_loc:00000000000000ab .LLST9
     /tmp/ccOmhfyd.s:2470   .debug_str:00000000000003c1 .LASF83
     /tmp/ccOmhfyd.s:2494   .debug_str:000000000000048c .LASF84
     /tmp/ccOmhfyd.s:2542   .debug_str:0000000000000691 .LASF85
     /tmp/ccOmhfyd.s:349    .text:0000000000000140 .LFB25
     /tmp/ccOmhfyd.s:368    .text:000000000000015c .LFE25
     /tmp/ccOmhfyd.s:2516   .debug_str:000000000000053d .LASF87
     /tmp/ccOmhfyd.s:2356   .debug_str:00000000000000a3 .LASF89
     /tmp/ccOmhfyd.s:325    .text:0000000000000128 .LFB24
     /tmp/ccOmhfyd.s:343    .text:0000000000000140 .LFE24
     /tmp/ccOmhfyd.s:2432   .debug_str:00000000000002b3 .LASF106
     /tmp/ccOmhfyd.s:2478   .debug_str:00000000000003f4 .LASF107
     /tmp/ccOmhfyd.s:302    .text:0000000000000110 .LFB23
     /tmp/ccOmhfyd.s:319    .text:0000000000000128 .LFE23
     /tmp/ccOmhfyd.s:2344   .debug_str:000000000000006b .LASF91
     /tmp/ccOmhfyd.s:2464   .debug_str:0000000000000398 .LASF93
     /tmp/ccOmhfyd.s:277    .text:00000000000000f4 .LFB22
GAS LISTING /tmp/ccOmhfyd.s 			page 21


     /tmp/ccOmhfyd.s:296    .text:0000000000000110 .LFE22
     /tmp/ccOmhfyd.s:2380   .debug_str:0000000000000153 .LASF94
     /tmp/ccOmhfyd.s:2484   .debug_str:000000000000042a .LASF95
     /tmp/ccOmhfyd.s:163    .text:0000000000000074 .LFB21
     /tmp/ccOmhfyd.s:271    .text:00000000000000f4 .LFE21
     /tmp/ccOmhfyd.s:2190   .debug_loc:00000000000000e4 .LLST4
     /tmp/ccOmhfyd.s:2482   .debug_str:000000000000041c .LASF96
     /tmp/ccOmhfyd.s:2212   .debug_loc:0000000000000143 .LLST5
     /tmp/ccOmhfyd.s:2234   .debug_loc:00000000000001a2 .LLST6
     /tmp/ccOmhfyd.s:2368   .debug_str:00000000000000fb .LASF97
     /tmp/ccOmhfyd.s:2256   .debug_loc:0000000000000201 .LLST7
     /tmp/ccOmhfyd.s:2460   .debug_str:000000000000037e .LASF98
     /tmp/ccOmhfyd.s:2263   .debug_loc:0000000000000224 .LLST8
     /tmp/ccOmhfyd.s:223    .text:00000000000000c4 .LBB20
     /tmp/ccOmhfyd.s:233    .text:00000000000000c8 .LBE20
     /tmp/ccOmhfyd.s:191    .text:00000000000000ac .LVL12
     /tmp/ccOmhfyd.s:2424   .debug_str:0000000000000283 .LASF99
     /tmp/ccOmhfyd.s:2536   .debug_str:0000000000000670 .LASF100
     /tmp/ccOmhfyd.s:93     .text:0000000000000040 .LFB20
     /tmp/ccOmhfyd.s:157    .text:0000000000000074 .LFE20
     /tmp/ccOmhfyd.s:2270   .debug_loc:0000000000000247 .LLST2
     /tmp/ccOmhfyd.s:113    .text:0000000000000054 .LBB16
     /tmp/ccOmhfyd.s:125    .text:000000000000005c .LBE16
     /tmp/ccOmhfyd.s:2281   .debug_loc:000000000000027d .LLST3
     /tmp/ccOmhfyd.s:127    .text:000000000000005c .LBB18
     /tmp/ccOmhfyd.s:137    .text:0000000000000060 .LBE18
     /tmp/ccOmhfyd.s:2530   .debug_str:000000000000064e .LASF101
     /tmp/ccOmhfyd.s:2372   .debug_str:0000000000000107 .LASF102
     /tmp/ccOmhfyd.s:10     .text:0000000000000000 .LFB19
     /tmp/ccOmhfyd.s:87     .text:0000000000000040 .LFE19
     /tmp/ccOmhfyd.s:2289   .debug_loc:00000000000002a1 .LLST0
     /tmp/ccOmhfyd.s:43     .text:0000000000000024 .LBB12
     /tmp/ccOmhfyd.s:56     .text:000000000000002c .LBE12
     /tmp/ccOmhfyd.s:2307   .debug_loc:00000000000002ed .LLST1
     /tmp/ccOmhfyd.s:58     .text:000000000000002c .LBB14
     /tmp/ccOmhfyd.s:68     .text:0000000000000030 .LBE14
     /tmp/ccOmhfyd.s:2456   .debug_str:0000000000000372 .LASF108
     /tmp/ccOmhfyd.s:2352   .debug_str:0000000000000092 .LASF109
     /tmp/ccOmhfyd.s:2540   .debug_str:000000000000068a .LASF110
     /tmp/ccOmhfyd.s:458    .text:00000000000001b0 .LVL26
     /tmp/ccOmhfyd.s:468    .text:00000000000001c0 .LVL27
     /tmp/ccOmhfyd.s:431    .text:0000000000000194 .LVL24
     /tmp/ccOmhfyd.s:441    .text:00000000000001a4 .LVL25
     /tmp/ccOmhfyd.s:404    .text:0000000000000178 .LVL22
     /tmp/ccOmhfyd.s:414    .text:0000000000000188 .LVL23
     /tmp/ccOmhfyd.s:377    .text:000000000000015c .LVL20
     /tmp/ccOmhfyd.s:387    .text:000000000000016c .LVL21
     /tmp/ccOmhfyd.s:166    .text:0000000000000074 .LVL10
     /tmp/ccOmhfyd.s:189    .text:00000000000000a4 .LVL11
     /tmp/ccOmhfyd.s:257    .text:00000000000000e0 .LVL16
     /tmp/ccOmhfyd.s:264    .text:00000000000000ec .LVL18
     /tmp/ccOmhfyd.s:254    .text:00000000000000dc .LVL15
     /tmp/ccOmhfyd.s:260    .text:00000000000000e4 .LVL17
     /tmp/ccOmhfyd.s:194    .text:00000000000000b0 .LVL13
     /tmp/ccOmhfyd.s:241    .text:00000000000000cc .LVL14
     /tmp/ccOmhfyd.s:96     .text:0000000000000040 .LVL6
     /tmp/ccOmhfyd.s:110    .text:0000000000000054 .LVL7
GAS LISTING /tmp/ccOmhfyd.s 			page 22


     /tmp/ccOmhfyd.s:122    .text:000000000000005c .LVL8
     /tmp/ccOmhfyd.s:14     .text:0000000000000000 .LVL0
     /tmp/ccOmhfyd.s:26     .text:0000000000000014 .LVL1
     /tmp/ccOmhfyd.s:33     .text:0000000000000020 .LVL2
     /tmp/ccOmhfyd.s:41     .text:0000000000000024 .LVL3
     /tmp/ccOmhfyd.s:53     .text:000000000000002c .LVL4
     /tmp/ccOmhfyd.s:531    .debug_info:0000000000000000 .Ldebug_info0

UNDEFINED SYMBOLS
_ZN15MemoryAllocator7kmallocEm
