GAS LISTING /tmp/ccUY1dgg.s 			page 1


   1              		.file	"syscall_cpp.cpp"
   2              		.option pic
   3              		.option norelax
   4              		.text
   5              	.Ltext0:
   6              		.section	.text._ZN6Thread3runEv,"axG",@progbits,_ZN6Thread3runEv,comdat
   7              		.align	2
   8              		.weak	_ZN6Thread3runEv
  10              	_ZN6Thread3runEv:
  11              	.LFB0:
  12              		.file 1 "src/../h/syscall_cpp.hpp"
   1:src/../h/syscall_cpp.hpp **** #ifndef _syscall_cpp
   2:src/../h/syscall_cpp.hpp **** #define _syscall_cpp
   3:src/../h/syscall_cpp.hpp **** 
   4:src/../h/syscall_cpp.hpp **** #include "../lib/hw.h"
   5:src/../h/syscall_cpp.hpp **** 
   6:src/../h/syscall_cpp.hpp **** void* operator new(size_t);
   7:src/../h/syscall_cpp.hpp **** 
   8:src/../h/syscall_cpp.hpp **** void* operator new[](size_t);
   9:src/../h/syscall_cpp.hpp **** 
  10:src/../h/syscall_cpp.hpp **** void operator delete(void*)
  11:src/../h/syscall_cpp.hpp **** 
  12:src/../h/syscall_cpp.hpp **** noexcept;
  13:src/../h/syscall_cpp.hpp **** 
  14:src/../h/syscall_cpp.hpp **** void operator delete[](void*)
  15:src/../h/syscall_cpp.hpp **** 
  16:src/../h/syscall_cpp.hpp **** noexcept;
  17:src/../h/syscall_cpp.hpp **** 
  18:src/../h/syscall_cpp.hpp **** class TCB;
  19:src/../h/syscall_cpp.hpp **** 
  20:src/../h/syscall_cpp.hpp **** typedef TCB* thread_t;
  21:src/../h/syscall_cpp.hpp **** 
  22:src/../h/syscall_cpp.hpp **** class KSem;
  23:src/../h/syscall_cpp.hpp **** 
  24:src/../h/syscall_cpp.hpp **** typedef KSem* sem_t;
  25:src/../h/syscall_cpp.hpp **** 
  26:src/../h/syscall_cpp.hpp **** class Thread {
  27:src/../h/syscall_cpp.hpp **** public:
  28:src/../h/syscall_cpp.hpp ****     //konstruktor koji pravi nit koja izvrsava zadatu funkciju sa zadatim argumentima, ne pokrece n
  29:src/../h/syscall_cpp.hpp ****     Thread(void (* body)(void*), void* arg);
  30:src/../h/syscall_cpp.hpp **** 
  31:src/../h/syscall_cpp.hpp ****     virtual ~Thread();
  32:src/../h/syscall_cpp.hpp **** 
  33:src/../h/syscall_cpp.hpp ****     //stavlja nit u Scheduler
  34:src/../h/syscall_cpp.hpp ****     int start();
  35:src/../h/syscall_cpp.hpp **** 
  36:src/../h/syscall_cpp.hpp ****     //pozivajuca (running) nit se suspenduje dok se nit ciji se metod poziva(this) ne zavrsi
  37:src/../h/syscall_cpp.hpp ****     void join();
  38:src/../h/syscall_cpp.hpp **** 
  39:src/../h/syscall_cpp.hpp ****     //sinhrona promena konteksta
  40:src/../h/syscall_cpp.hpp ****     static void dispatch();
  41:src/../h/syscall_cpp.hpp **** 
  42:src/../h/syscall_cpp.hpp ****     //uspavljuje tekucu nit na zadati period
  43:src/../h/syscall_cpp.hpp ****     static int sleep(time_t);
  44:src/../h/syscall_cpp.hpp **** 
  45:src/../h/syscall_cpp.hpp **** protected:
  46:src/../h/syscall_cpp.hpp ****     //konstruktor koji pravi nit koja izvrsava run metodu, ne stavlja je u Scheduler
GAS LISTING /tmp/ccUY1dgg.s 			page 2


  47:src/../h/syscall_cpp.hpp ****     Thread();
  48:src/../h/syscall_cpp.hpp **** 
  49:src/../h/syscall_cpp.hpp ****     //funkcija koju nit izvrsava, samo ako je nit napravljena podrazumevanim konstruktorom
  50:src/../h/syscall_cpp.hpp ****     virtual void run() {}
  13              		.loc 1 50 18
  14              		.cfi_startproc
  15              	.LVL0:
  16 0000 130101FF 		addi	sp,sp,-16
  17              		.cfi_def_cfa_offset 16
  18 0004 23348100 		sd	s0,8(sp)
  19              		.cfi_offset 8, -8
  20 0008 13040101 		addi	s0,sp,16
  21              		.cfi_def_cfa 8, 0
  22              		.loc 1 50 25 is_stmt 0
  23 000c 03348100 		ld	s0,8(sp)
  24              		.cfi_restore 8
  25              		.cfi_def_cfa 2, 16
  26 0010 13010101 		addi	sp,sp,16
  27              		.cfi_def_cfa_offset 0
  28 0014 67800000 		jr	ra
  29              		.cfi_endproc
  30              	.LFE0:
  32              		.section	.text._ZN14PeriodicThread18periodicActivationEv,"axG",@progbits,_ZN14PeriodicThread18peri
  33              		.align	2
  34              		.weak	_ZN14PeriodicThread18periodicActivationEv
  36              	_ZN14PeriodicThread18periodicActivationEv:
  37              	.LFB1:
  51:src/../h/syscall_cpp.hpp **** 
  52:src/../h/syscall_cpp.hpp **** private:
  53:src/../h/syscall_cpp.hpp ****     //pokazivac na TCB strukturu kernela
  54:src/../h/syscall_cpp.hpp ****     thread_t myHandle;
  55:src/../h/syscall_cpp.hpp **** 
  56:src/../h/syscall_cpp.hpp ****     void (* body)(void*);
  57:src/../h/syscall_cpp.hpp **** 
  58:src/../h/syscall_cpp.hpp ****     void* arg;
  59:src/../h/syscall_cpp.hpp **** 
  60:src/../h/syscall_cpp.hpp ****     static void wrapper(void* thread);
  61:src/../h/syscall_cpp.hpp **** };
  62:src/../h/syscall_cpp.hpp **** 
  63:src/../h/syscall_cpp.hpp **** 
  64:src/../h/syscall_cpp.hpp **** class Semaphore {
  65:src/../h/syscall_cpp.hpp **** public:
  66:src/../h/syscall_cpp.hpp **** 
  67:src/../h/syscall_cpp.hpp ****     Semaphore(unsigned init = 1);
  68:src/../h/syscall_cpp.hpp **** 
  69:src/../h/syscall_cpp.hpp ****     virtual ~Semaphore();
  70:src/../h/syscall_cpp.hpp **** 
  71:src/../h/syscall_cpp.hpp ****     int wait();
  72:src/../h/syscall_cpp.hpp **** 
  73:src/../h/syscall_cpp.hpp ****     int signal();
  74:src/../h/syscall_cpp.hpp **** 
  75:src/../h/syscall_cpp.hpp **** private:
  76:src/../h/syscall_cpp.hpp ****     sem_t myHandle;
  77:src/../h/syscall_cpp.hpp **** };
  78:src/../h/syscall_cpp.hpp **** 
  79:src/../h/syscall_cpp.hpp **** 
  80:src/../h/syscall_cpp.hpp **** class PeriodicThread : public Thread {
GAS LISTING /tmp/ccUY1dgg.s 			page 3


  81:src/../h/syscall_cpp.hpp **** public:
  82:src/../h/syscall_cpp.hpp ****     void terminate();
  83:src/../h/syscall_cpp.hpp **** 
  84:src/../h/syscall_cpp.hpp **** protected:
  85:src/../h/syscall_cpp.hpp ****     PeriodicThread(time_t period);
  86:src/../h/syscall_cpp.hpp **** 
  87:src/../h/syscall_cpp.hpp ****     virtual void periodicActivation() {}
  38              		.loc 1 87 18 is_stmt 1
  39              		.cfi_startproc
  40              	.LVL1:
  41 0000 130101FF 		addi	sp,sp,-16
  42              		.cfi_def_cfa_offset 16
  43 0004 23348100 		sd	s0,8(sp)
  44              		.cfi_offset 8, -8
  45 0008 13040101 		addi	s0,sp,16
  46              		.cfi_def_cfa 8, 0
  47              		.loc 1 87 40 is_stmt 0
  48 000c 03348100 		ld	s0,8(sp)
  49              		.cfi_restore 8
  50              		.cfi_def_cfa 2, 16
  51 0010 13010101 		addi	sp,sp,16
  52              		.cfi_def_cfa_offset 0
  53 0014 67800000 		jr	ra
  54              		.cfi_endproc
  55              	.LFE1:
  57              		.text
  58              		.align	2
  59              		.globl	_ZN6Thread7wrapperEPv
  61              	_ZN6Thread7wrapperEPv:
  62              	.LFB64:
  63              		.file 2 "src/syscall_cpp.cpp"
   1:src/syscall_cpp.cpp **** //
   2:src/syscall_cpp.cpp **** // Created by os on 5/29/23.
   3:src/syscall_cpp.cpp **** //
   4:src/syscall_cpp.cpp **** #include "../h/syscall_cpp.hpp"
   5:src/syscall_cpp.cpp **** #include "../h/syscall_c.hpp"
   6:src/syscall_cpp.cpp **** #include "../h/TCB.hpp"
   7:src/syscall_cpp.cpp **** #include "../h/KSem.hpp"
   8:src/syscall_cpp.cpp **** #include "../h/Scheduler.hpp"
   9:src/syscall_cpp.cpp **** 
  10:src/syscall_cpp.cpp **** int main();
  11:src/syscall_cpp.cpp **** 
  12:src/syscall_cpp.cpp **** //override globalnog new
  13:src/syscall_cpp.cpp **** void* operator new(size_t size) {
  14:src/syscall_cpp.cpp ****     return mem_alloc(size);
  15:src/syscall_cpp.cpp **** }
  16:src/syscall_cpp.cpp **** 
  17:src/syscall_cpp.cpp **** void* operator new[](size_t size) {
  18:src/syscall_cpp.cpp ****     return mem_alloc(size);
  19:src/syscall_cpp.cpp **** }
  20:src/syscall_cpp.cpp **** 
  21:src/syscall_cpp.cpp **** void operator delete(void* ptr)
  22:src/syscall_cpp.cpp **** 
  23:src/syscall_cpp.cpp **** noexcept {
  24:src/syscall_cpp.cpp **** mem_free(ptr);
  25:src/syscall_cpp.cpp **** }
  26:src/syscall_cpp.cpp **** 
GAS LISTING /tmp/ccUY1dgg.s 			page 4


  27:src/syscall_cpp.cpp **** void operator delete[](void* ptr)
  28:src/syscall_cpp.cpp **** 
  29:src/syscall_cpp.cpp **** noexcept {
  30:src/syscall_cpp.cpp **** mem_free(ptr);
  31:src/syscall_cpp.cpp **** }
  32:src/syscall_cpp.cpp **** 
  33:src/syscall_cpp.cpp **** Thread::Thread(void (* body)(void*), void* arg) {
  34:src/syscall_cpp.cpp ****     this->body = body;
  35:src/syscall_cpp.cpp ****     this->arg = arg;
  36:src/syscall_cpp.cpp ****     //stvaranje steka ako se ne radi o main kernel niti, posto ona automatski ima stek
  37:src/syscall_cpp.cpp ****     uint64* stack = nullptr;
  38:src/syscall_cpp.cpp ****     if (body != (TCB::Body)main) {
  39:src/syscall_cpp.cpp ****         stack = (uint64*)mem_alloc(DEFAULT_STACK_SIZE);
  40:src/syscall_cpp.cpp ****     }
  41:src/syscall_cpp.cpp ****     //stavljanje argumenata za sistemski poziv
  42:src/syscall_cpp.cpp ****     __asm__ volatile("mv a4, %[sp]": :[sp] "r"(stack):"a5", "a0", "a1", "a2", "a3", "a4", "a6", "a7
  43:src/syscall_cpp.cpp ****     __asm__ volatile("mv a3, %[arg]": :[arg] "r"(arg):"a5", "a0", "a1", "a2", "a3", "a4", "a6", "a7
  44:src/syscall_cpp.cpp ****     __asm__ volatile("mv a2, %[function]": :[function] "r"(
  45:src/syscall_cpp.cpp ****             body):"a5", "a0", "a1", "a2", "a3", "a4", "a6", "a7");
  46:src/syscall_cpp.cpp ****     __asm__ volatile("mv a1, %[handle]": :[handle] "r"(&myHandle):"a5", "a0", "a1", "a2", "a3", "a4
  47:src/syscall_cpp.cpp ****     __asm__ volatile("li a0, 0x80");
  48:src/syscall_cpp.cpp ****     //a0 = 0x80
  49:src/syscall_cpp.cpp ****     //a1 = adresa pokazivaca na rucku niti
  50:src/syscall_cpp.cpp ****     //a2 = prva adresa funkcije koju nit izvrsava
  51:src/syscall_cpp.cpp ****     //a3 = pokazivac na argumente funkcije
  52:src/syscall_cpp.cpp ****     //a4 = pokazivac na najnizu adresu steka (stek raste ka nizim adresama, pokazuje na poslednju z
  53:src/syscall_cpp.cpp **** 
  54:src/syscall_cpp.cpp ****     __asm__ volatile("ecall");
  55:src/syscall_cpp.cpp **** }
  56:src/syscall_cpp.cpp **** 
  57:src/syscall_cpp.cpp **** Thread::~Thread() {
  58:src/syscall_cpp.cpp ****     __asm__ volatile("mv a1, %[handle]": :[handle] "r"(myHandle):"a5", "a0", "a1", "a2", "a3", "a4"
  59:src/syscall_cpp.cpp ****     __asm__ volatile("li a0, 0x15");
  60:src/syscall_cpp.cpp **** 
  61:src/syscall_cpp.cpp ****     __asm__ volatile("ecall");
  62:src/syscall_cpp.cpp **** 
  63:src/syscall_cpp.cpp ****     delete myHandle;
  64:src/syscall_cpp.cpp **** }
  65:src/syscall_cpp.cpp **** 
  66:src/syscall_cpp.cpp **** int Thread::start() {
  67:src/syscall_cpp.cpp ****     if (myHandle == nullptr || myHandle->getStatus() != TCB::CREATED) return -1;
  68:src/syscall_cpp.cpp ****     __asm__ volatile("mv a1, %[handle]": :[handle] "r"(myHandle):"a5", "a0", "a1", "a2", "a3", "a4"
  69:src/syscall_cpp.cpp ****     __asm__ volatile("li a0, 0x81");
  70:src/syscall_cpp.cpp **** 
  71:src/syscall_cpp.cpp ****     __asm__ volatile("ecall");
  72:src/syscall_cpp.cpp **** 
  73:src/syscall_cpp.cpp ****     return 0;
  74:src/syscall_cpp.cpp **** }
  75:src/syscall_cpp.cpp **** 
  76:src/syscall_cpp.cpp **** void Thread::join() {
  77:src/syscall_cpp.cpp ****     if (myHandle) thread_join(myHandle);
  78:src/syscall_cpp.cpp **** }
  79:src/syscall_cpp.cpp **** 
  80:src/syscall_cpp.cpp **** void Thread::dispatch() {
  81:src/syscall_cpp.cpp ****     thread_dispatch();
  82:src/syscall_cpp.cpp **** }
  83:src/syscall_cpp.cpp **** 
GAS LISTING /tmp/ccUY1dgg.s 			page 5


  84:src/syscall_cpp.cpp **** int Thread::sleep(time_t t) {
  85:src/syscall_cpp.cpp ****     time_sleep(t);
  86:src/syscall_cpp.cpp ****     return 0;
  87:src/syscall_cpp.cpp **** }
  88:src/syscall_cpp.cpp **** 
  89:src/syscall_cpp.cpp **** Thread::Thread() {
  90:src/syscall_cpp.cpp ****     this->body = wrapper;
  91:src/syscall_cpp.cpp ****     this->arg = this;
  92:src/syscall_cpp.cpp ****     uint64* stack = (uint64*)mem_alloc(DEFAULT_STACK_SIZE);
  93:src/syscall_cpp.cpp ****     //stavljanje argumenata za sistemski poziv
  94:src/syscall_cpp.cpp ****     __asm__ volatile("mv a4, %[sp]": :[sp] "r"(stack):"a5", "a0", "a1", "a2", "a3", "a4", "a6", "a7
  95:src/syscall_cpp.cpp ****     __asm__ volatile("mv a3, %[arg]": :[arg] "r"(arg):"a5", "a0", "a1", "a2", "a3", "a4", "a6", "a7
  96:src/syscall_cpp.cpp ****     __asm__ volatile("mv a2, %[function]": :[function] "r"(
  97:src/syscall_cpp.cpp ****             body):"a5", "a0", "a1", "a2", "a3", "a4", "a6", "a7");
  98:src/syscall_cpp.cpp ****     __asm__ volatile("mv a1, %[handle]": :[handle] "r"(&myHandle):"a5", "a0", "a1", "a2", "a3", "a4
  99:src/syscall_cpp.cpp ****     __asm__ volatile("li a0, 0x80");
 100:src/syscall_cpp.cpp ****     //a0 = 0x80
 101:src/syscall_cpp.cpp ****     //a1 = adresa pokazivaca na rucku niti
 102:src/syscall_cpp.cpp ****     //a2 = prva adresa funkcije koju nit izvrsava
 103:src/syscall_cpp.cpp ****     //a3 = pokazivac na argumente funkcije
 104:src/syscall_cpp.cpp ****     //a4 = pokazivac na najnizu adresu steka (stek raste ka nizim adresama, pokazuje na poslednju z
 105:src/syscall_cpp.cpp **** 
 106:src/syscall_cpp.cpp ****     __asm__ volatile("ecall");
 107:src/syscall_cpp.cpp **** }
 108:src/syscall_cpp.cpp **** 
 109:src/syscall_cpp.cpp **** void Thread::wrapper(void* thread) {
  64              		.loc 2 109 36 is_stmt 1
  65              		.cfi_startproc
  66              	.LVL2:
 110:src/syscall_cpp.cpp ****     if (thread != nullptr) {
  67              		.loc 2 110 5
  68 0000 63080502 		beqz	a0,.L8
 109:src/syscall_cpp.cpp ****     if (thread != nullptr) {
  69              		.loc 2 109 36 is_stmt 0
  70 0004 130101FF 		addi	sp,sp,-16
  71              		.cfi_def_cfa_offset 16
  72 0008 23341100 		sd	ra,8(sp)
  73 000c 23308100 		sd	s0,0(sp)
  74              		.cfi_offset 1, -8
  75              		.cfi_offset 8, -16
  76 0010 13040101 		addi	s0,sp,16
  77              		.cfi_def_cfa 8, 0
 111:src/syscall_cpp.cpp ****         ((Thread*)thread)->run();
  78              		.loc 2 111 9 is_stmt 1
  79              		.loc 2 111 32 is_stmt 0
  80 0014 83370500 		ld	a5,0(a0)
  81 0018 83B70701 		ld	a5,16(a5)
  82              		.loc 2 111 31
  83 001c E7800700 		jalr	a5
  84              	.LVL3:
 112:src/syscall_cpp.cpp ****     }
 113:src/syscall_cpp.cpp **** }
  85              		.loc 2 113 1
  86 0020 83308100 		ld	ra,8(sp)
  87              		.cfi_restore 1
  88 0024 03340100 		ld	s0,0(sp)
  89              		.cfi_restore 8
GAS LISTING /tmp/ccUY1dgg.s 			page 6


  90              		.cfi_def_cfa 2, 16
  91 0028 13010101 		addi	sp,sp,16
  92              		.cfi_def_cfa_offset 0
  93 002c 67800000 		jr	ra
  94              	.LVL4:
  95              	.L8:
  96 0030 67800000 		ret
  97              		.cfi_endproc
  98              	.LFE64:
 100              		.align	2
 101              		.globl	_ZN6ThreadD2Ev
 103              	_ZN6ThreadD2Ev:
 104              	.LFB54:
  57:src/syscall_cpp.cpp ****     __asm__ volatile("mv a1, %[handle]": :[handle] "r"(myHandle):"a5", "a0", "a1", "a2", "a3", "a4"
 105              		.loc 2 57 1 is_stmt 1
 106              		.cfi_startproc
 107              		.cfi_personality 0x9b,DW.ref.__gxx_personality_v0
 108              		.cfi_lsda 0x1b,.LLSDA54
 109              	.LVL5:
 110 0034 130101FE 		addi	sp,sp,-32
 111              		.cfi_def_cfa_offset 32
 112 0038 233C1100 		sd	ra,24(sp)
 113 003c 23388100 		sd	s0,16(sp)
 114 0040 23349100 		sd	s1,8(sp)
 115              		.cfi_offset 1, -8
 116              		.cfi_offset 8, -16
 117              		.cfi_offset 9, -24
 118 0044 13040102 		addi	s0,sp,32
 119              		.cfi_def_cfa 8, 0
 120 0048 13030500 		mv	t1,a0
 121              	.LBB35:
  57:src/syscall_cpp.cpp ****     __asm__ volatile("mv a1, %[handle]": :[handle] "r"(myHandle):"a5", "a0", "a1", "a2", "a3", "a4"
 122              		.loc 2 57 17 is_stmt 0
 123 004c 97070000 		lla	a5,_ZTV6Thread+16
 123      93870700 
 124 0054 2330F500 		sd	a5,0(a0)
  58:src/syscall_cpp.cpp ****     __asm__ volatile("li a0, 0x15");
 125              		.loc 2 58 5 is_stmt 1
  58:src/syscall_cpp.cpp ****     __asm__ volatile("li a0, 0x15");
 126              		.loc 2 58 56 is_stmt 0
 127 0058 033E8500 		ld	t3,8(a0)
  58:src/syscall_cpp.cpp ****     __asm__ volatile("li a0, 0x15");
 128              		.loc 2 58 113
 129              	#APP
 130              	# 58 "src/syscall_cpp.cpp" 1
 131              		mv a1, t3
 132              	# 0 "" 2
 133              	.LVL6:
  59:src/syscall_cpp.cpp **** 
 134              		.loc 2 59 5 is_stmt 1
  59:src/syscall_cpp.cpp **** 
 135              		.loc 2 59 36 is_stmt 0
 136              	# 59 "src/syscall_cpp.cpp" 1
  61:src/syscall_cpp.cpp **** 
 137              		li a0, 0x15
 138              	# 0 "" 2
 139              		.loc 2 61 5 is_stmt 1
GAS LISTING /tmp/ccUY1dgg.s 			page 7


  61:src/syscall_cpp.cpp **** 
 140              		.loc 2 61 30 is_stmt 0
 141              	# 61 "src/syscall_cpp.cpp" 1
  63:src/syscall_cpp.cpp **** }
 142              		ecall
 143              	# 0 "" 2
 144              		.loc 2 63 5 is_stmt 1
  63:src/syscall_cpp.cpp **** }
 145              		.loc 2 63 12 is_stmt 0
 146              	#NO_APP
 147 0068 83348300 		ld	s1,8(t1)
  63:src/syscall_cpp.cpp **** }
 148              		.loc 2 63 20
 149 006c 63880402 		beqz	s1,.L11
 150              	.LVL7:
 151              	.L14:
 152              	.LBB36:
 153              	.LBB37:
 154              	.LBB38:
 155              		.file 3 "src/../h/../h/ThreadQueue.hpp"
   1:src/../h/../h/ThreadQueue.hpp **** //
   2:src/../h/../h/ThreadQueue.hpp **** // Created by os on 6/4/23.
   3:src/../h/../h/ThreadQueue.hpp **** //
   4:src/../h/../h/ThreadQueue.hpp **** 
   5:src/../h/../h/ThreadQueue.hpp **** #ifndef PROJEKAT2023_THREADQUEUE_HPP
   6:src/../h/../h/ThreadQueue.hpp **** #define PROJEKAT2023_THREADQUEUE_HPP
   7:src/../h/../h/ThreadQueue.hpp **** 
   8:src/../h/../h/ThreadQueue.hpp **** #include "../h/syscall_c.hpp"
   9:src/../h/../h/ThreadQueue.hpp **** 
  10:src/../h/../h/ThreadQueue.hpp **** class TCB;
  11:src/../h/../h/ThreadQueue.hpp **** 
  12:src/../h/../h/ThreadQueue.hpp **** class ThreadQueue {
  13:src/../h/../h/ThreadQueue.hpp **** private:
  14:src/../h/../h/ThreadQueue.hpp ****     struct Node {
  15:src/../h/../h/ThreadQueue.hpp ****         TCB* data;
  16:src/../h/../h/ThreadQueue.hpp ****         Node* next;
  17:src/../h/../h/ThreadQueue.hpp **** 
  18:src/../h/../h/ThreadQueue.hpp ****         Node(TCB* d) : data(d), next(nullptr) {}
  19:src/../h/../h/ThreadQueue.hpp **** 
  20:src/../h/../h/ThreadQueue.hpp ****         static void* operator new(size_t size) {
  21:src/../h/../h/ThreadQueue.hpp ****             return mem_alloc(size);
  22:src/../h/../h/ThreadQueue.hpp ****         }
  23:src/../h/../h/ThreadQueue.hpp **** 
  24:src/../h/../h/ThreadQueue.hpp ****         static void operator delete(void* ptr) {
  25:src/../h/../h/ThreadQueue.hpp ****             mem_free(ptr);
  26:src/../h/../h/ThreadQueue.hpp ****         }
  27:src/../h/../h/ThreadQueue.hpp ****     };
  28:src/../h/../h/ThreadQueue.hpp **** 
  29:src/../h/../h/ThreadQueue.hpp ****     Node* front;
  30:src/../h/../h/ThreadQueue.hpp ****     Node* back;
  31:src/../h/../h/ThreadQueue.hpp **** 
  32:src/../h/../h/ThreadQueue.hpp **** public:
  33:src/../h/../h/ThreadQueue.hpp ****     ThreadQueue() : front(nullptr), back(nullptr) {}
  34:src/../h/../h/ThreadQueue.hpp **** 
  35:src/../h/../h/ThreadQueue.hpp ****     ThreadQueue(const ThreadQueue &) = delete;
  36:src/../h/../h/ThreadQueue.hpp **** 
  37:src/../h/../h/ThreadQueue.hpp ****     ThreadQueue &operator=(const ThreadQueue &) = delete;
GAS LISTING /tmp/ccUY1dgg.s 			page 8


  38:src/../h/../h/ThreadQueue.hpp **** 
  39:src/../h/../h/ThreadQueue.hpp ****     ~ThreadQueue() {
  40:src/../h/../h/ThreadQueue.hpp ****         while (!isEmpty()) {
 156              		.loc 3 40 9 is_stmt 1
 157              		.loc 3 40 16
 158              	.LBB39:
 159              	.LBB40:
  41:src/../h/../h/ThreadQueue.hpp ****             Node* node = front;
  42:src/../h/../h/ThreadQueue.hpp ****             front = front->next;
  43:src/../h/../h/ThreadQueue.hpp ****             delete node;
  44:src/../h/../h/ThreadQueue.hpp ****         }
  45:src/../h/../h/ThreadQueue.hpp ****     }
  46:src/../h/../h/ThreadQueue.hpp **** 
  47:src/../h/../h/ThreadQueue.hpp ****     bool isEmpty() const {
  48:src/../h/../h/ThreadQueue.hpp ****         return front == nullptr;
 160              		.loc 3 48 9
 161              		.loc 3 48 16 is_stmt 0
 162 0070 03B58404 		ld	a0,72(s1)
 163              	.LBE40:
 164              	.LBE39:
  40:src/../h/../h/ThreadQueue.hpp ****             Node* node = front;
 165              		.loc 3 40 16
 166 0074 630E0500 		beqz	a0,.L13
 167              	.LBB41:
  41:src/../h/../h/ThreadQueue.hpp ****             Node* node = front;
 168              		.loc 3 41 13 is_stmt 1
 169              	.LVL8:
  42:src/../h/../h/ThreadQueue.hpp ****             delete node;
 170              		.loc 3 42 13
  42:src/../h/../h/ThreadQueue.hpp ****             delete node;
 171              		.loc 3 42 28 is_stmt 0
 172 0078 83378500 		ld	a5,8(a0)
  42:src/../h/../h/ThreadQueue.hpp ****             delete node;
 173              		.loc 3 42 19
 174 007c 23B4F404 		sd	a5,72(s1)
  43:src/../h/../h/ThreadQueue.hpp ****         }
 175              		.loc 3 43 13 is_stmt 1
  43:src/../h/../h/ThreadQueue.hpp ****         }
 176              		.loc 3 43 24 is_stmt 0
 177 0080 E30805FE 		beqz	a0,.L14
 178              	.LVL9:
 179              	.LBB42:
 180              	.LBB43:
  25:src/../h/../h/ThreadQueue.hpp ****         }
 181              		.loc 3 25 13 is_stmt 1
  25:src/../h/../h/ThreadQueue.hpp ****         }
 182              		.loc 3 25 21 is_stmt 0
 183 0084 97000000 		call	_Z8mem_freePv@plt
 183      E7800000 
 184              	.LVL10:
  26:src/../h/../h/ThreadQueue.hpp ****     };
 185              		.loc 3 26 9
 186 008c 6FF05FFE 		j	.L14
 187              	.L13:
 188              	.LBE43:
 189              	.LBE42:
 190              	.LBE41:
GAS LISTING /tmp/ccUY1dgg.s 			page 9


 191              	.LBE38:
 192              	.LBE37:
 193              	.LBE36:
  63:src/syscall_cpp.cpp **** }
 194              		.loc 2 63 12
 195 0090 13850400 		mv	a0,s1
 196 0094 97000000 		call	_ZN3TCBdlEPv@plt
 196      E7800000 
 197              	.LVL11:
 198              	.L11:
 199              	.LBE35:
  64:src/syscall_cpp.cpp **** 
 200              		.loc 2 64 1
 201 009c 83308101 		ld	ra,24(sp)
 202              		.cfi_restore 1
 203 00a0 03340101 		ld	s0,16(sp)
 204              		.cfi_restore 8
 205              		.cfi_def_cfa 2, 32
 206 00a4 83348100 		ld	s1,8(sp)
 207              		.cfi_restore 9
 208 00a8 13010102 		addi	sp,sp,32
 209              		.cfi_def_cfa_offset 0
 210 00ac 67800000 		jr	ra
 211              		.cfi_endproc
 212              	.LFE54:
 213              		.globl	__gxx_personality_v0
 214              		.section	.gcc_except_table,"a",@progbits
 215              	.LLSDA54:
 216 0000 FF       		.byte	0xff
 217 0001 FF       		.byte	0xff
 218 0002 03       		.byte	0x3
 219 0003 00       		.byte	0
 220              		.text
 222              		.globl	_ZN6ThreadD1Ev
 223              		.set	_ZN6ThreadD1Ev,_ZN6ThreadD2Ev
 224              		.section	.text._ZN14PeriodicThreadD2Ev,"axG",@progbits,_ZN14PeriodicThreadD5Ev,comdat
 225              		.align	2
 226              		.weak	_ZN14PeriodicThreadD2Ev
 228              	_ZN14PeriodicThreadD2Ev:
 229              	.LFB82:
  80:src/../h/syscall_cpp.hpp **** public:
 230              		.loc 1 80 7 is_stmt 1
 231              		.cfi_startproc
 232              	.LVL12:
 233 0000 130101FF 		addi	sp,sp,-16
 234              		.cfi_def_cfa_offset 16
 235 0004 23341100 		sd	ra,8(sp)
 236 0008 23308100 		sd	s0,0(sp)
 237              		.cfi_offset 1, -8
 238              		.cfi_offset 8, -16
 239 000c 13040101 		addi	s0,sp,16
 240              		.cfi_def_cfa 8, 0
 241              	.LBB44:
  80:src/../h/syscall_cpp.hpp **** public:
 242              		.loc 1 80 7 is_stmt 0
 243 0010 97070000 		lla	a5,_ZTV14PeriodicThread+16
 243      93870700 
GAS LISTING /tmp/ccUY1dgg.s 			page 10


 244 0018 2330F500 		sd	a5,0(a0)
 245 001c 97000000 		call	_ZN6ThreadD2Ev
 245      E7800000 
 246              	.LVL13:
 247              	.LBE44:
 248 0024 83308100 		ld	ra,8(sp)
 249              		.cfi_restore 1
 250 0028 03340100 		ld	s0,0(sp)
 251              		.cfi_restore 8
 252              		.cfi_def_cfa 2, 16
 253 002c 13010101 		addi	sp,sp,16
 254              		.cfi_def_cfa_offset 0
 255 0030 67800000 		jr	ra
 256              		.cfi_endproc
 257              	.LFE82:
 259              		.weak	_ZN14PeriodicThreadD1Ev
 260              		.set	_ZN14PeriodicThreadD1Ev,_ZN14PeriodicThreadD2Ev
 261              		.text
 262              		.align	2
 263              		.globl	_ZN9SemaphoreD2Ev
 265              	_ZN9SemaphoreD2Ev:
 266              	.LFB69:
 114:src/syscall_cpp.cpp **** 
 115:src/syscall_cpp.cpp **** Semaphore::Semaphore(unsigned int init) {
 116:src/syscall_cpp.cpp ****     sem_open(&myHandle, init);
 117:src/syscall_cpp.cpp **** }
 118:src/syscall_cpp.cpp **** 
 119:src/syscall_cpp.cpp **** Semaphore::~Semaphore() {
 267              		.loc 2 119 1 is_stmt 1
 268              		.cfi_startproc
 269              		.cfi_personality 0x9b,DW.ref.__gxx_personality_v0
 270              		.cfi_lsda 0x1b,.LLSDA69
 271              	.LVL14:
 272 00b0 130101FF 		addi	sp,sp,-16
 273              		.cfi_def_cfa_offset 16
 274 00b4 23341100 		sd	ra,8(sp)
 275 00b8 23308100 		sd	s0,0(sp)
 276              		.cfi_offset 1, -8
 277              		.cfi_offset 8, -16
 278 00bc 13040101 		addi	s0,sp,16
 279              		.cfi_def_cfa 8, 0
 280              	.LBB45:
 281              		.loc 2 119 23 is_stmt 0
 282 00c0 97070000 		lla	a5,_ZTV9Semaphore+16
 282      93870700 
 283 00c8 2330F500 		sd	a5,0(a0)
 120:src/syscall_cpp.cpp ****     sem_close(myHandle);
 284              		.loc 2 120 5 is_stmt 1
 285              		.loc 2 120 14 is_stmt 0
 286 00cc 03358500 		ld	a0,8(a0)
 287              	.LVL15:
 288 00d0 97000000 		call	_Z9sem_closeP4KSem@plt
 288      E7800000 
 289              	.LVL16:
 290              	.LBE45:
 121:src/syscall_cpp.cpp **** }
 291              		.loc 2 121 1
GAS LISTING /tmp/ccUY1dgg.s 			page 11


 292 00d8 83308100 		ld	ra,8(sp)
 293              		.cfi_restore 1
 294 00dc 03340100 		ld	s0,0(sp)
 295              		.cfi_restore 8
 296              		.cfi_def_cfa 2, 16
 297 00e0 13010101 		addi	sp,sp,16
 298              		.cfi_def_cfa_offset 0
 299 00e4 67800000 		jr	ra
 300              		.cfi_endproc
 301              	.LFE69:
 302              		.section	.gcc_except_table
 303              	.LLSDA69:
 304 0004 FF       		.byte	0xff
 305 0005 FF       		.byte	0xff
 306 0006 03       		.byte	0x3
 307 0007 00       		.byte	0
 308              		.text
 310              		.globl	_ZN9SemaphoreD1Ev
 311              		.set	_ZN9SemaphoreD1Ev,_ZN9SemaphoreD2Ev
 312              		.align	2
 313              		.globl	_Znwm
 315              	_Znwm:
 316              	.LFB43:
  13:src/syscall_cpp.cpp ****     return mem_alloc(size);
 317              		.loc 2 13 33 is_stmt 1
 318              		.cfi_startproc
 319              	.LVL17:
 320 00e8 130101FF 		addi	sp,sp,-16
 321              		.cfi_def_cfa_offset 16
 322 00ec 23341100 		sd	ra,8(sp)
 323 00f0 23308100 		sd	s0,0(sp)
 324              		.cfi_offset 1, -8
 325              		.cfi_offset 8, -16
 326 00f4 13040101 		addi	s0,sp,16
 327              		.cfi_def_cfa 8, 0
  14:src/syscall_cpp.cpp **** }
 328              		.loc 2 14 5
  14:src/syscall_cpp.cpp **** }
 329              		.loc 2 14 21 is_stmt 0
 330 00f8 97000000 		call	_Z9mem_allocm@plt
 330      E7800000 
 331              	.LVL18:
  15:src/syscall_cpp.cpp **** 
 332              		.loc 2 15 1
 333 0100 83308100 		ld	ra,8(sp)
 334              		.cfi_restore 1
 335 0104 03340100 		ld	s0,0(sp)
 336              		.cfi_restore 8
 337              		.cfi_def_cfa 2, 16
 338 0108 13010101 		addi	sp,sp,16
 339              		.cfi_def_cfa_offset 0
 340 010c 67800000 		jr	ra
 341              		.cfi_endproc
 342              	.LFE43:
 344              		.align	2
 345              		.globl	_Znam
 347              	_Znam:
GAS LISTING /tmp/ccUY1dgg.s 			page 12


 348              	.LFB44:
  17:src/syscall_cpp.cpp ****     return mem_alloc(size);
 349              		.loc 2 17 35 is_stmt 1
 350              		.cfi_startproc
 351              	.LVL19:
 352 0110 130101FF 		addi	sp,sp,-16
 353              		.cfi_def_cfa_offset 16
 354 0114 23341100 		sd	ra,8(sp)
 355 0118 23308100 		sd	s0,0(sp)
 356              		.cfi_offset 1, -8
 357              		.cfi_offset 8, -16
 358 011c 13040101 		addi	s0,sp,16
 359              		.cfi_def_cfa 8, 0
  18:src/syscall_cpp.cpp **** }
 360              		.loc 2 18 5
  18:src/syscall_cpp.cpp **** }
 361              		.loc 2 18 21 is_stmt 0
 362 0120 97000000 		call	_Z9mem_allocm@plt
 362      E7800000 
 363              	.LVL20:
  19:src/syscall_cpp.cpp **** 
 364              		.loc 2 19 1
 365 0128 83308100 		ld	ra,8(sp)
 366              		.cfi_restore 1
 367 012c 03340100 		ld	s0,0(sp)
 368              		.cfi_restore 8
 369              		.cfi_def_cfa 2, 16
 370 0130 13010101 		addi	sp,sp,16
 371              		.cfi_def_cfa_offset 0
 372 0134 67800000 		jr	ra
 373              		.cfi_endproc
 374              	.LFE44:
 376              		.align	2
 377              		.globl	_ZdlPv
 379              	_ZdlPv:
 380              	.LFB45:
  23:src/syscall_cpp.cpp **** mem_free(ptr);
 381              		.loc 2 23 10 is_stmt 1
 382              		.cfi_startproc
 383              		.cfi_personality 0x9b,DW.ref.__gxx_personality_v0
 384              		.cfi_lsda 0x1b,.LLSDA45
 385              	.LVL21:
 386 0138 130101FF 		addi	sp,sp,-16
 387              		.cfi_def_cfa_offset 16
 388 013c 23341100 		sd	ra,8(sp)
 389 0140 23308100 		sd	s0,0(sp)
 390              		.cfi_offset 1, -8
 391              		.cfi_offset 8, -16
 392 0144 13040101 		addi	s0,sp,16
 393              		.cfi_def_cfa 8, 0
  24:src/syscall_cpp.cpp **** }
 394              		.loc 2 24 1
  24:src/syscall_cpp.cpp **** }
 395              		.loc 2 24 9 is_stmt 0
 396 0148 97000000 		call	_Z8mem_freePv@plt
 396      E7800000 
 397              	.LVL22:
GAS LISTING /tmp/ccUY1dgg.s 			page 13


  25:src/syscall_cpp.cpp **** 
 398              		.loc 2 25 1
 399 0150 83308100 		ld	ra,8(sp)
 400              		.cfi_restore 1
 401 0154 03340100 		ld	s0,0(sp)
 402              		.cfi_restore 8
 403              		.cfi_def_cfa 2, 16
 404 0158 13010101 		addi	sp,sp,16
 405              		.cfi_def_cfa_offset 0
 406 015c 67800000 		jr	ra
 407              		.cfi_endproc
 408              	.LFE45:
 409              		.section	.gcc_except_table
 410              	.LLSDA45:
 411 0008 FF       		.byte	0xff
 412 0009 FF       		.byte	0xff
 413 000a 03       		.byte	0x3
 414 000b 00       		.byte	0
 415              		.text
 417              		.align	2
 418              		.globl	_ZN9SemaphoreD0Ev
 420              	_ZN9SemaphoreD0Ev:
 421              	.LFB71:
 119:src/syscall_cpp.cpp ****     sem_close(myHandle);
 422              		.loc 2 119 1 is_stmt 1
 423              		.cfi_startproc
 424              	.LVL23:
 425 0160 130101FE 		addi	sp,sp,-32
 426              		.cfi_def_cfa_offset 32
 427 0164 233C1100 		sd	ra,24(sp)
 428 0168 23388100 		sd	s0,16(sp)
 429 016c 23349100 		sd	s1,8(sp)
 430              		.cfi_offset 1, -8
 431              		.cfi_offset 8, -16
 432              		.cfi_offset 9, -24
 433 0170 13040102 		addi	s0,sp,32
 434              		.cfi_def_cfa 8, 0
 435 0174 93040500 		mv	s1,a0
 436              		.loc 2 121 1 is_stmt 0
 437 0178 97000000 		call	_ZN9SemaphoreD1Ev
 437      E7800000 
 438              	.LVL24:
 439 0180 13850400 		mv	a0,s1
 440 0184 97000000 		call	_ZdlPv
 440      E7800000 
 441              	.LVL25:
 442 018c 83308101 		ld	ra,24(sp)
 443              		.cfi_restore 1
 444 0190 03340101 		ld	s0,16(sp)
 445              		.cfi_restore 8
 446              		.cfi_def_cfa 2, 32
 447 0194 83348100 		ld	s1,8(sp)
 448              		.cfi_restore 9
 449              	.LVL26:
 450 0198 13010102 		addi	sp,sp,32
 451              		.cfi_def_cfa_offset 0
 452 019c 67800000 		jr	ra
GAS LISTING /tmp/ccUY1dgg.s 			page 14


 453              		.cfi_endproc
 454              	.LFE71:
 456              		.align	2
 457              		.globl	_ZN6ThreadD0Ev
 459              	_ZN6ThreadD0Ev:
 460              	.LFB56:
  57:src/syscall_cpp.cpp ****     __asm__ volatile("mv a1, %[handle]": :[handle] "r"(myHandle):"a5", "a0", "a1", "a2", "a3", "a4"
 461              		.loc 2 57 1 is_stmt 1
 462              		.cfi_startproc
 463              	.LVL27:
 464 01a0 130101FE 		addi	sp,sp,-32
 465              		.cfi_def_cfa_offset 32
 466 01a4 233C1100 		sd	ra,24(sp)
 467 01a8 23388100 		sd	s0,16(sp)
 468 01ac 23349100 		sd	s1,8(sp)
 469              		.cfi_offset 1, -8
 470              		.cfi_offset 8, -16
 471              		.cfi_offset 9, -24
 472 01b0 13040102 		addi	s0,sp,32
 473              		.cfi_def_cfa 8, 0
 474 01b4 93040500 		mv	s1,a0
  64:src/syscall_cpp.cpp **** 
 475              		.loc 2 64 1 is_stmt 0
 476 01b8 97000000 		call	_ZN6ThreadD1Ev
 476      E7800000 
 477              	.LVL28:
 478 01c0 13850400 		mv	a0,s1
 479 01c4 97000000 		call	_ZdlPv
 479      E7800000 
 480              	.LVL29:
 481 01cc 83308101 		ld	ra,24(sp)
 482              		.cfi_restore 1
 483 01d0 03340101 		ld	s0,16(sp)
 484              		.cfi_restore 8
 485              		.cfi_def_cfa 2, 32
 486 01d4 83348100 		ld	s1,8(sp)
 487              		.cfi_restore 9
 488              	.LVL30:
 489 01d8 13010102 		addi	sp,sp,32
 490              		.cfi_def_cfa_offset 0
 491 01dc 67800000 		jr	ra
 492              		.cfi_endproc
 493              	.LFE56:
 495              		.section	.text._ZN14PeriodicThreadD0Ev,"axG",@progbits,_ZN14PeriodicThreadD5Ev,comdat
 496              		.align	2
 497              		.weak	_ZN14PeriodicThreadD0Ev
 499              	_ZN14PeriodicThreadD0Ev:
 500              	.LFB84:
  80:src/../h/syscall_cpp.hpp **** public:
 501              		.loc 1 80 7 is_stmt 1
 502              		.cfi_startproc
 503              	.LVL31:
 504 0000 130101FE 		addi	sp,sp,-32
 505              		.cfi_def_cfa_offset 32
 506 0004 233C1100 		sd	ra,24(sp)
 507 0008 23388100 		sd	s0,16(sp)
 508 000c 23349100 		sd	s1,8(sp)
GAS LISTING /tmp/ccUY1dgg.s 			page 15


 509              		.cfi_offset 1, -8
 510              		.cfi_offset 8, -16
 511              		.cfi_offset 9, -24
 512 0010 13040102 		addi	s0,sp,32
 513              		.cfi_def_cfa 8, 0
 514 0014 93040500 		mv	s1,a0
 515              	.LVL32:
 516              	.LBB46:
 517              	.LBB47:
  80:src/../h/syscall_cpp.hpp **** public:
 518              		.loc 1 80 7 is_stmt 0
 519 0018 97070000 		lla	a5,_ZTV14PeriodicThread+16
 519      93870700 
 520 0020 2330F500 		sd	a5,0(a0)
 521 0024 97000000 		call	_ZN6ThreadD2Ev
 521      E7800000 
 522              	.LVL33:
 523              	.LBE47:
 524              	.LBE46:
 525 002c 13850400 		mv	a0,s1
 526 0030 97000000 		call	_ZdlPv
 526      E7800000 
 527              	.LVL34:
 528 0038 83308101 		ld	ra,24(sp)
 529              		.cfi_restore 1
 530 003c 03340101 		ld	s0,16(sp)
 531              		.cfi_restore 8
 532              		.cfi_def_cfa 2, 32
 533 0040 83348100 		ld	s1,8(sp)
 534              		.cfi_restore 9
 535              	.LVL35:
 536 0044 13010102 		addi	sp,sp,32
 537              		.cfi_def_cfa_offset 0
 538 0048 67800000 		jr	ra
 539              		.cfi_endproc
 540              	.LFE84:
 542              		.text
 543              		.align	2
 544              		.globl	_ZdaPv
 546              	_ZdaPv:
 547              	.LFB46:
  29:src/syscall_cpp.cpp **** mem_free(ptr);
 548              		.loc 2 29 10 is_stmt 1
 549              		.cfi_startproc
 550              		.cfi_personality 0x9b,DW.ref.__gxx_personality_v0
 551              		.cfi_lsda 0x1b,.LLSDA46
 552              	.LVL36:
 553 01e0 130101FF 		addi	sp,sp,-16
 554              		.cfi_def_cfa_offset 16
 555 01e4 23341100 		sd	ra,8(sp)
 556 01e8 23308100 		sd	s0,0(sp)
 557              		.cfi_offset 1, -8
 558              		.cfi_offset 8, -16
 559 01ec 13040101 		addi	s0,sp,16
 560              		.cfi_def_cfa 8, 0
  30:src/syscall_cpp.cpp **** }
 561              		.loc 2 30 1
GAS LISTING /tmp/ccUY1dgg.s 			page 16


  30:src/syscall_cpp.cpp **** }
 562              		.loc 2 30 9 is_stmt 0
 563 01f0 97000000 		call	_Z8mem_freePv@plt
 563      E7800000 
 564              	.LVL37:
  31:src/syscall_cpp.cpp **** 
 565              		.loc 2 31 1
 566 01f8 83308100 		ld	ra,8(sp)
 567              		.cfi_restore 1
 568 01fc 03340100 		ld	s0,0(sp)
 569              		.cfi_restore 8
 570              		.cfi_def_cfa 2, 16
 571 0200 13010101 		addi	sp,sp,16
 572              		.cfi_def_cfa_offset 0
 573 0204 67800000 		jr	ra
 574              		.cfi_endproc
 575              	.LFE46:
 576              		.section	.gcc_except_table
 577              	.LLSDA46:
 578 000c FF       		.byte	0xff
 579 000d FF       		.byte	0xff
 580 000e 03       		.byte	0x3
 581 000f 00       		.byte	0
 582              		.text
 584              		.align	2
 585              		.globl	_ZN6ThreadC2EPFvPvES0_
 587              	_ZN6ThreadC2EPFvPvES0_:
 588              	.LFB48:
  33:src/syscall_cpp.cpp ****     this->body = body;
 589              		.loc 2 33 1 is_stmt 1
 590              		.cfi_startproc
 591              	.LVL38:
 592 0208 130101FD 		addi	sp,sp,-48
 593              		.cfi_def_cfa_offset 48
 594 020c 23341102 		sd	ra,40(sp)
 595 0210 23308102 		sd	s0,32(sp)
 596 0214 233C9100 		sd	s1,24(sp)
 597 0218 23382101 		sd	s2,16(sp)
 598 021c 23343101 		sd	s3,8(sp)
 599              		.cfi_offset 1, -8
 600              		.cfi_offset 8, -16
 601              		.cfi_offset 9, -24
 602              		.cfi_offset 18, -32
 603              		.cfi_offset 19, -40
 604 0220 13040103 		addi	s0,sp,48
 605              		.cfi_def_cfa 8, 0
 606 0224 93040500 		mv	s1,a0
 607 0228 13890500 		mv	s2,a1
 608 022c 93090600 		mv	s3,a2
 609              	.LBB48:
  33:src/syscall_cpp.cpp ****     this->body = body;
 610              		.loc 2 33 47 is_stmt 0
 611 0230 97070000 		lla	a5,_ZTV6Thread+16
 611      93870700 
 612 0238 2330F500 		sd	a5,0(a0)
 613              	.LBB49:
  34:src/syscall_cpp.cpp ****     this->arg = arg;
GAS LISTING /tmp/ccUY1dgg.s 			page 17


 614              		.loc 2 34 5 is_stmt 1
  34:src/syscall_cpp.cpp ****     this->arg = arg;
 615              		.loc 2 34 16 is_stmt 0
 616 023c 2338B500 		sd	a1,16(a0)
  35:src/syscall_cpp.cpp ****     //stvaranje steka ako se ne radi o main kernel niti, posto ona automatski ima stek
 617              		.loc 2 35 5 is_stmt 1
  35:src/syscall_cpp.cpp ****     //stvaranje steka ako se ne radi o main kernel niti, posto ona automatski ima stek
 618              		.loc 2 35 15 is_stmt 0
 619 0240 233CC500 		sd	a2,24(a0)
  37:src/syscall_cpp.cpp ****     if (body != (TCB::Body)main) {
 620              		.loc 2 37 5 is_stmt 1
 621              	.LVL39:
  38:src/syscall_cpp.cpp ****         stack = (uint64*)mem_alloc(DEFAULT_STACK_SIZE);
 622              		.loc 2 38 5
 623 0244 97070000 		la	a5,main
 623      83B70700 
 624 024c 6386F504 		beq	a1,a5,.L37
  39:src/syscall_cpp.cpp ****     }
 625              		.loc 2 39 9
  39:src/syscall_cpp.cpp ****     }
 626              		.loc 2 39 35 is_stmt 0
 627 0250 37150000 		li	a0,4096
 628              	.LVL40:
 629 0254 97000000 		call	_Z9mem_allocm@plt
 629      E7800000 
 630              	.LVL41:
 631 025c 13030500 		mv	t1,a0
 632              	.LVL42:
 633              	.L36:
  42:src/syscall_cpp.cpp ****     __asm__ volatile("mv a3, %[arg]": :[arg] "r"(arg):"a5", "a0", "a1", "a2", "a3", "a4", "a6", "a7
 634              		.loc 2 42 5 is_stmt 1
  42:src/syscall_cpp.cpp ****     __asm__ volatile("mv a3, %[arg]": :[arg] "r"(arg):"a5", "a0", "a1", "a2", "a3", "a4", "a6", "a7
 635              		.loc 2 42 102 is_stmt 0
 636              	#APP
 637              	# 42 "src/syscall_cpp.cpp" 1
  43:src/syscall_cpp.cpp ****     __asm__ volatile("mv a2, %[function]": :[function] "r"(
 638              		mv a4, t1
 639              	# 0 "" 2
 640              		.loc 2 43 5 is_stmt 1
  43:src/syscall_cpp.cpp ****     __asm__ volatile("mv a2, %[function]": :[function] "r"(
 641              		.loc 2 43 102 is_stmt 0
 642              	# 43 "src/syscall_cpp.cpp" 1
  44:src/syscall_cpp.cpp ****             body):"a5", "a0", "a1", "a2", "a3", "a4", "a6", "a7");
 643              		mv a3, s3
 644              	# 0 "" 2
 645              		.loc 2 44 5 is_stmt 1
  45:src/syscall_cpp.cpp ****     __asm__ volatile("mv a1, %[handle]": :[handle] "r"(&myHandle):"a5", "a0", "a1", "a2", "a3", "a4
 646              		.loc 2 45 66 is_stmt 0
 647              	# 45 "src/syscall_cpp.cpp" 1
  46:src/syscall_cpp.cpp ****     __asm__ volatile("li a0, 0x80");
 648              		mv a2, s2
 649              	# 0 "" 2
 650              		.loc 2 46 5 is_stmt 1
  46:src/syscall_cpp.cpp ****     __asm__ volatile("li a0, 0x80");
 651              		.loc 2 46 56 is_stmt 0
 652              	#NO_APP
 653 026c 93848400 		addi	s1,s1,8
GAS LISTING /tmp/ccUY1dgg.s 			page 18


 654              	.LVL43:
  46:src/syscall_cpp.cpp ****     __asm__ volatile("li a0, 0x80");
 655              		.loc 2 46 114
 656              	#APP
 657              	# 46 "src/syscall_cpp.cpp" 1
  47:src/syscall_cpp.cpp ****     //a0 = 0x80
 658              		mv a1, s1
 659              	# 0 "" 2
 660              		.loc 2 47 5 is_stmt 1
  47:src/syscall_cpp.cpp ****     //a0 = 0x80
 661              		.loc 2 47 36 is_stmt 0
 662              	# 47 "src/syscall_cpp.cpp" 1
  54:src/syscall_cpp.cpp **** }
 663              		li a0, 0x80
 664              	# 0 "" 2
 665              		.loc 2 54 5 is_stmt 1
  54:src/syscall_cpp.cpp **** }
 666              		.loc 2 54 30 is_stmt 0
 667              	# 54 "src/syscall_cpp.cpp" 1
 668              		ecall
 669              	# 0 "" 2
 670              	#NO_APP
 671              	.LBE49:
 672              	.LBE48:
  55:src/syscall_cpp.cpp **** 
 673              		.loc 2 55 1
 674 027c 83308102 		ld	ra,40(sp)
 675              		.cfi_remember_state
 676              		.cfi_restore 1
 677 0280 03340102 		ld	s0,32(sp)
 678              		.cfi_restore 8
 679              		.cfi_def_cfa 2, 48
 680 0284 83348101 		ld	s1,24(sp)
 681              		.cfi_restore 9
 682              	.LVL44:
 683 0288 03390101 		ld	s2,16(sp)
 684              		.cfi_restore 18
 685              	.LVL45:
 686 028c 83398100 		ld	s3,8(sp)
 687              		.cfi_restore 19
 688              	.LVL46:
 689 0290 13010103 		addi	sp,sp,48
 690              		.cfi_def_cfa_offset 0
 691 0294 67800000 		jr	ra
 692              	.LVL47:
 693              	.L37:
 694              		.cfi_restore_state
 695              	.LBB51:
 696              	.LBB50:
  37:src/syscall_cpp.cpp ****     if (body != (TCB::Body)main) {
 697              		.loc 2 37 13
 698 0298 13030000 		li	t1,0
 699 029c 6FF05FFC 		j	.L36
 700              	.LBE50:
 701              	.LBE51:
 702              		.cfi_endproc
 703              	.LFE48:
GAS LISTING /tmp/ccUY1dgg.s 			page 19


 705              		.globl	_ZN6ThreadC1EPFvPvES0_
 706              		.set	_ZN6ThreadC1EPFvPvES0_,_ZN6ThreadC2EPFvPvES0_
 707              		.align	2
 708              		.globl	_ZN6Thread5startEv
 710              	_ZN6Thread5startEv:
 711              	.LFB57:
  66:src/syscall_cpp.cpp ****     if (myHandle == nullptr || myHandle->getStatus() != TCB::CREATED) return -1;
 712              		.loc 2 66 21 is_stmt 1
 713              		.cfi_startproc
 714              	.LVL48:
 715 02a0 130101FF 		addi	sp,sp,-16
 716              		.cfi_def_cfa_offset 16
 717 02a4 23348100 		sd	s0,8(sp)
 718              		.cfi_offset 8, -8
 719 02a8 13040101 		addi	s0,sp,16
 720              		.cfi_def_cfa 8, 0
  67:src/syscall_cpp.cpp ****     __asm__ volatile("mv a1, %[handle]": :[handle] "r"(myHandle):"a5", "a0", "a1", "a2", "a3", "a4"
 721              		.loc 2 67 5
  67:src/syscall_cpp.cpp ****     __asm__ volatile("mv a1, %[handle]": :[handle] "r"(myHandle):"a5", "a0", "a1", "a2", "a3", "a4"
 722              		.loc 2 67 9 is_stmt 0
 723 02ac 03338500 		ld	t1,8(a0)
  67:src/syscall_cpp.cpp ****     __asm__ volatile("mv a1, %[handle]": :[handle] "r"(myHandle):"a5", "a0", "a1", "a2", "a3", "a4"
 724              		.loc 2 67 29
 725 02b0 63040302 		beqz	t1,.L41
 726              	.LVL49:
 727              	.LBB52:
 728              	.LBB53:
 729              		.file 4 "src/../h/TCB.hpp"
   1:src/../h/TCB.hpp **** //
   2:src/../h/TCB.hpp **** // Created by os on 5/23/23.
   3:src/../h/TCB.hpp **** //
   4:src/../h/TCB.hpp **** 
   5:src/../h/TCB.hpp **** #ifndef PROJEKAT2023_TCB_HPP
   6:src/../h/TCB.hpp **** #define PROJEKAT2023_TCB_HPP
   7:src/../h/TCB.hpp **** 
   8:src/../h/TCB.hpp **** #include "../lib/hw.h"
   9:src/../h/TCB.hpp **** #include "../h/ThreadQueue.hpp"
  10:src/../h/TCB.hpp **** 
  11:src/../h/TCB.hpp **** int main();
  12:src/../h/TCB.hpp **** 
  13:src/../h/TCB.hpp **** class TCB {
  14:src/../h/TCB.hpp **** public:
  15:src/../h/TCB.hpp ****     friend class Scheduler;
  16:src/../h/TCB.hpp **** 
  17:src/../h/TCB.hpp ****     using Body = void (*)(void*);
  18:src/../h/TCB.hpp **** 
  19:src/../h/TCB.hpp ****     enum ThreadStatus {
  20:src/../h/TCB.hpp ****         CREATED, ACTIVE, BLOCKED, JOINING, SLEEPING, FINISHED
  21:src/../h/TCB.hpp ****     };
  22:src/../h/TCB.hpp **** 
  23:src/../h/TCB.hpp ****     static TCB* createThread(Body function, void* args, uint64* stack);
  24:src/../h/TCB.hpp **** 
  25:src/../h/TCB.hpp ****     void setStatus(ThreadStatus stat) { this->status = stat; }
  26:src/../h/TCB.hpp **** 
  27:src/../h/TCB.hpp ****     ThreadStatus getStatus() { return this->status; }
 730              		.loc 4 27 32 is_stmt 1 discriminator 2
 731              		.loc 4 27 45 is_stmt 0 discriminator 2
GAS LISTING /tmp/ccUY1dgg.s 			page 20


 732 02b4 83278305 		lw	a5,88(t1)
 733              	.LVL50:
 734              	.LBE53:
 735              	.LBE52:
  67:src/syscall_cpp.cpp ****     __asm__ volatile("mv a1, %[handle]": :[handle] "r"(myHandle):"a5", "a0", "a1", "a2", "a3", "a4"
 736              		.loc 2 67 29 discriminator 2
 737 02b8 63940702 		bnez	a5,.L42
  68:src/syscall_cpp.cpp ****     __asm__ volatile("li a0, 0x81");
 738              		.loc 2 68 5 is_stmt 1
  68:src/syscall_cpp.cpp ****     __asm__ volatile("li a0, 0x81");
 739              		.loc 2 68 113 is_stmt 0
 740              	#APP
 741              	# 68 "src/syscall_cpp.cpp" 1
 742              		mv a1, t1
 743              	# 0 "" 2
 744              	.LVL51:
  69:src/syscall_cpp.cpp **** 
 745              		.loc 2 69 5 is_stmt 1
  69:src/syscall_cpp.cpp **** 
 746              		.loc 2 69 36 is_stmt 0
 747              	# 69 "src/syscall_cpp.cpp" 1
  71:src/syscall_cpp.cpp **** 
 748              		li a0, 0x81
 749              	# 0 "" 2
 750              		.loc 2 71 5 is_stmt 1
  71:src/syscall_cpp.cpp **** 
 751              		.loc 2 71 30 is_stmt 0
 752              	# 71 "src/syscall_cpp.cpp" 1
  73:src/syscall_cpp.cpp **** }
 753              		ecall
 754              	# 0 "" 2
 755              		.loc 2 73 5 is_stmt 1
  73:src/syscall_cpp.cpp **** }
 756              		.loc 2 73 12 is_stmt 0
 757              	#NO_APP
 758 02c8 13050000 		li	a0,0
 759              	.L40:
  74:src/syscall_cpp.cpp **** 
 760              		.loc 2 74 1
 761 02cc 03348100 		ld	s0,8(sp)
 762              		.cfi_remember_state
 763              		.cfi_restore 8
 764              		.cfi_def_cfa 2, 16
 765 02d0 13010101 		addi	sp,sp,16
 766              		.cfi_def_cfa_offset 0
 767 02d4 67800000 		jr	ra
 768              	.LVL52:
 769              	.L41:
 770              		.cfi_restore_state
  67:src/syscall_cpp.cpp ****     __asm__ volatile("mv a1, %[handle]": :[handle] "r"(myHandle):"a5", "a0", "a1", "a2", "a3", "a4"
 771              		.loc 2 67 79
 772 02d8 1305F0FF 		li	a0,-1
 773              	.LVL53:
 774 02dc 6FF01FFF 		j	.L40
 775              	.LVL54:
 776              	.L42:
 777 02e0 1305F0FF 		li	a0,-1
GAS LISTING /tmp/ccUY1dgg.s 			page 21


 778              	.LVL55:
 779 02e4 6FF09FFE 		j	.L40
 780              		.cfi_endproc
 781              	.LFE57:
 783              		.align	2
 784              		.globl	_ZN6Thread4joinEv
 786              	_ZN6Thread4joinEv:
 787              	.LFB58:
  76:src/syscall_cpp.cpp ****     if (myHandle) thread_join(myHandle);
 788              		.loc 2 76 21 is_stmt 1
 789              		.cfi_startproc
 790              	.LVL56:
  77:src/syscall_cpp.cpp **** }
 791              		.loc 2 77 5
  77:src/syscall_cpp.cpp **** }
 792              		.loc 2 77 9 is_stmt 0
 793 02e8 03358500 		ld	a0,8(a0)
 794              	.LVL57:
  77:src/syscall_cpp.cpp **** }
 795              		.loc 2 77 5
 796 02ec 63060502 		beqz	a0,.L47
  76:src/syscall_cpp.cpp ****     if (myHandle) thread_join(myHandle);
 797              		.loc 2 76 21 discriminator 1
 798 02f0 130101FF 		addi	sp,sp,-16
 799              		.cfi_def_cfa_offset 16
 800 02f4 23341100 		sd	ra,8(sp)
 801 02f8 23308100 		sd	s0,0(sp)
 802              		.cfi_offset 1, -8
 803              		.cfi_offset 8, -16
 804 02fc 13040101 		addi	s0,sp,16
 805              		.cfi_def_cfa 8, 0
  77:src/syscall_cpp.cpp **** }
 806              		.loc 2 77 19 is_stmt 1 discriminator 1
  77:src/syscall_cpp.cpp **** }
 807              		.loc 2 77 30 is_stmt 0 discriminator 1
 808 0300 97000000 		call	_Z11thread_joinP3TCB@plt
 808      E7800000 
 809              	.LVL58:
  78:src/syscall_cpp.cpp **** 
 810              		.loc 2 78 1 discriminator 1
 811 0308 83308100 		ld	ra,8(sp)
 812              		.cfi_restore 1
 813 030c 03340100 		ld	s0,0(sp)
 814              		.cfi_restore 8
 815              		.cfi_def_cfa 2, 16
 816 0310 13010101 		addi	sp,sp,16
 817              		.cfi_def_cfa_offset 0
 818 0314 67800000 		jr	ra
 819              	.L47:
 820 0318 67800000 		ret
 821              		.cfi_endproc
 822              	.LFE58:
 824              		.align	2
 825              		.globl	_ZN6Thread8dispatchEv
 827              	_ZN6Thread8dispatchEv:
 828              	.LFB59:
  80:src/syscall_cpp.cpp ****     thread_dispatch();
GAS LISTING /tmp/ccUY1dgg.s 			page 22


 829              		.loc 2 80 25 is_stmt 1
 830              		.cfi_startproc
 831 031c 130101FF 		addi	sp,sp,-16
 832              		.cfi_def_cfa_offset 16
 833 0320 23341100 		sd	ra,8(sp)
 834 0324 23308100 		sd	s0,0(sp)
 835              		.cfi_offset 1, -8
 836              		.cfi_offset 8, -16
 837 0328 13040101 		addi	s0,sp,16
 838              		.cfi_def_cfa 8, 0
  81:src/syscall_cpp.cpp **** }
 839              		.loc 2 81 5
  81:src/syscall_cpp.cpp **** }
 840              		.loc 2 81 20 is_stmt 0
 841 032c 97000000 		call	_Z15thread_dispatchv@plt
 841      E7800000 
 842              	.LVL59:
  82:src/syscall_cpp.cpp **** 
 843              		.loc 2 82 1
 844 0334 83308100 		ld	ra,8(sp)
 845              		.cfi_restore 1
 846 0338 03340100 		ld	s0,0(sp)
 847              		.cfi_restore 8
 848              		.cfi_def_cfa 2, 16
 849 033c 13010101 		addi	sp,sp,16
 850              		.cfi_def_cfa_offset 0
 851 0340 67800000 		jr	ra
 852              		.cfi_endproc
 853              	.LFE59:
 855              		.align	2
 856              		.globl	_ZN6Thread5sleepEm
 858              	_ZN6Thread5sleepEm:
 859              	.LFB60:
  84:src/syscall_cpp.cpp ****     time_sleep(t);
 860              		.loc 2 84 29 is_stmt 1
 861              		.cfi_startproc
 862              	.LVL60:
 863 0344 130101FF 		addi	sp,sp,-16
 864              		.cfi_def_cfa_offset 16
 865 0348 23341100 		sd	ra,8(sp)
 866 034c 23308100 		sd	s0,0(sp)
 867              		.cfi_offset 1, -8
 868              		.cfi_offset 8, -16
 869 0350 13040101 		addi	s0,sp,16
 870              		.cfi_def_cfa 8, 0
  85:src/syscall_cpp.cpp ****     return 0;
 871              		.loc 2 85 5
  85:src/syscall_cpp.cpp ****     return 0;
 872              		.loc 2 85 15 is_stmt 0
 873 0354 97000000 		call	_Z10time_sleepm@plt
 873      E7800000 
 874              	.LVL61:
  86:src/syscall_cpp.cpp **** }
 875              		.loc 2 86 5 is_stmt 1
  87:src/syscall_cpp.cpp **** 
 876              		.loc 2 87 1 is_stmt 0
 877 035c 13050000 		li	a0,0
GAS LISTING /tmp/ccUY1dgg.s 			page 23


 878 0360 83308100 		ld	ra,8(sp)
 879              		.cfi_restore 1
 880 0364 03340100 		ld	s0,0(sp)
 881              		.cfi_restore 8
 882              		.cfi_def_cfa 2, 16
 883 0368 13010101 		addi	sp,sp,16
 884              		.cfi_def_cfa_offset 0
 885 036c 67800000 		jr	ra
 886              		.cfi_endproc
 887              	.LFE60:
 889              		.align	2
 890              		.globl	_ZN14PeriodicThread3runEv
 892              	_ZN14PeriodicThread3runEv:
 893              	.LFB78:
 122:src/syscall_cpp.cpp **** 
 123:src/syscall_cpp.cpp **** int Semaphore::wait() {
 124:src/syscall_cpp.cpp ****     return sem_wait(myHandle);
 125:src/syscall_cpp.cpp **** }
 126:src/syscall_cpp.cpp **** 
 127:src/syscall_cpp.cpp **** int Semaphore::signal() {
 128:src/syscall_cpp.cpp ****     return sem_signal(myHandle);
 129:src/syscall_cpp.cpp **** }
 130:src/syscall_cpp.cpp **** 
 131:src/syscall_cpp.cpp **** void PeriodicThread::terminate() {
 132:src/syscall_cpp.cpp ****     this->period = -1;
 133:src/syscall_cpp.cpp ****     join();
 134:src/syscall_cpp.cpp **** }
 135:src/syscall_cpp.cpp **** 
 136:src/syscall_cpp.cpp **** PeriodicThread::PeriodicThread(time_t period) : Thread(), period(period) {
 137:src/syscall_cpp.cpp ****     if (this->period < 0) this->period = 2;
 138:src/syscall_cpp.cpp **** }
 139:src/syscall_cpp.cpp **** 
 140:src/syscall_cpp.cpp **** void PeriodicThread::run() {
 894              		.loc 2 140 28 is_stmt 1
 895              		.cfi_startproc
 896              	.LVL62:
 897 0370 130101FE 		addi	sp,sp,-32
 898              		.cfi_def_cfa_offset 32
 899 0374 233C1100 		sd	ra,24(sp)
 900 0378 23388100 		sd	s0,16(sp)
 901 037c 23349100 		sd	s1,8(sp)
 902              		.cfi_offset 1, -8
 903              		.cfi_offset 8, -16
 904              		.cfi_offset 9, -24
 905 0380 13040102 		addi	s0,sp,32
 906              		.cfi_def_cfa 8, 0
 907 0384 93040500 		mv	s1,a0
 908              	.LVL63:
 909              	.L56:
 141:src/syscall_cpp.cpp ****     while (period != -1UL) {
 910              		.loc 2 141 5
 911              		.loc 2 141 19
 912              		.loc 2 141 12 is_stmt 0
 913 0388 03B70402 		ld	a4,32(s1)
 914              		.loc 2 141 19
 915 038c 9307F0FF 		li	a5,-1
 916 0390 6306F702 		beq	a4,a5,.L55
GAS LISTING /tmp/ccUY1dgg.s 			page 24


 142:src/syscall_cpp.cpp ****         periodicActivation();
 917              		.loc 2 142 9 is_stmt 1
 918              		.loc 2 142 28 is_stmt 0
 919 0394 83B70400 		ld	a5,0(s1)
 920 0398 83B78701 		ld	a5,24(a5)
 921              		.loc 2 142 27
 922 039c 13850400 		mv	a0,s1
 923 03a0 E7800700 		jalr	a5
 924              	.LVL64:
 143:src/syscall_cpp.cpp ****         if (period == -1UL) break;
 925              		.loc 2 143 9 is_stmt 1
 926              		.loc 2 143 13 is_stmt 0
 927 03a4 03B50402 		ld	a0,32(s1)
 928              		.loc 2 143 9
 929 03a8 9307F0FF 		li	a5,-1
 930 03ac 6308F500 		beq	a0,a5,.L55
 144:src/syscall_cpp.cpp ****         sleep(period);
 931              		.loc 2 144 9 is_stmt 1
 932              		.loc 2 144 14 is_stmt 0
 933 03b0 97000000 		call	_ZN6Thread5sleepEm
 933      E7800000 
 934              	.LVL65:
 141:src/syscall_cpp.cpp ****         periodicActivation();
 935              		.loc 2 141 5
 936 03b8 6FF01FFD 		j	.L56
 937              	.L55:
 145:src/syscall_cpp.cpp ****     }
 146:src/syscall_cpp.cpp ****     thread_exit();
 938              		.loc 2 146 5 is_stmt 1
 939              		.loc 2 146 16 is_stmt 0
 940 03bc 97000000 		call	_Z11thread_exitv@plt
 940      E7800000 
 941              	.LVL66:
 147:src/syscall_cpp.cpp **** }
 942              		.loc 2 147 1
 943 03c4 83308101 		ld	ra,24(sp)
 944              		.cfi_restore 1
 945 03c8 03340101 		ld	s0,16(sp)
 946              		.cfi_restore 8
 947              		.cfi_def_cfa 2, 32
 948 03cc 83348100 		ld	s1,8(sp)
 949              		.cfi_restore 9
 950              	.LVL67:
 951 03d0 13010102 		addi	sp,sp,32
 952              		.cfi_def_cfa_offset 0
 953 03d4 67800000 		jr	ra
 954              		.cfi_endproc
 955              	.LFE78:
 957              		.align	2
 958              		.globl	_ZN6ThreadC2Ev
 960              	_ZN6ThreadC2Ev:
 961              	.LFB62:
  89:src/syscall_cpp.cpp ****     this->body = wrapper;
 962              		.loc 2 89 1 is_stmt 1
 963              		.cfi_startproc
 964              	.LVL68:
 965 03d8 130101FE 		addi	sp,sp,-32
GAS LISTING /tmp/ccUY1dgg.s 			page 25


 966              		.cfi_def_cfa_offset 32
 967 03dc 233C1100 		sd	ra,24(sp)
 968 03e0 23388100 		sd	s0,16(sp)
 969 03e4 23349100 		sd	s1,8(sp)
 970              		.cfi_offset 1, -8
 971              		.cfi_offset 8, -16
 972              		.cfi_offset 9, -24
 973 03e8 13040102 		addi	s0,sp,32
 974              		.cfi_def_cfa 8, 0
 975 03ec 93040500 		mv	s1,a0
 976              	.LBB54:
  89:src/syscall_cpp.cpp ****     this->body = wrapper;
 977              		.loc 2 89 16 is_stmt 0
 978 03f0 97070000 		lla	a5,_ZTV6Thread+16
 978      93870700 
 979 03f8 2330F500 		sd	a5,0(a0)
 980              	.LBB55:
  90:src/syscall_cpp.cpp ****     this->arg = this;
 981              		.loc 2 90 5 is_stmt 1
  90:src/syscall_cpp.cpp ****     this->arg = this;
 982              		.loc 2 90 16 is_stmt 0
 983 03fc 97070000 		lla	a5,_ZN6Thread7wrapperEPv
 983      93870700 
 984 0404 2338F500 		sd	a5,16(a0)
  91:src/syscall_cpp.cpp ****     uint64* stack = (uint64*)mem_alloc(DEFAULT_STACK_SIZE);
 985              		.loc 2 91 5 is_stmt 1
  91:src/syscall_cpp.cpp ****     uint64* stack = (uint64*)mem_alloc(DEFAULT_STACK_SIZE);
 986              		.loc 2 91 15 is_stmt 0
 987 0408 233CA500 		sd	a0,24(a0)
  92:src/syscall_cpp.cpp ****     //stavljanje argumenata za sistemski poziv
 988              		.loc 2 92 5 is_stmt 1
  92:src/syscall_cpp.cpp ****     //stavljanje argumenata za sistemski poziv
 989              		.loc 2 92 39 is_stmt 0
 990 040c 37150000 		li	a0,4096
 991              	.LVL69:
 992 0410 97000000 		call	_Z9mem_allocm@plt
 992      E7800000 
 993              	.LVL70:
 994 0418 13030500 		mv	t1,a0
 995              	.LVL71:
  94:src/syscall_cpp.cpp ****     __asm__ volatile("mv a3, %[arg]": :[arg] "r"(arg):"a5", "a0", "a1", "a2", "a3", "a4", "a6", "a7
 996              		.loc 2 94 5 is_stmt 1
  94:src/syscall_cpp.cpp ****     __asm__ volatile("mv a3, %[arg]": :[arg] "r"(arg):"a5", "a0", "a1", "a2", "a3", "a4", "a6", "a7
 997              		.loc 2 94 102 is_stmt 0
 998              	#APP
 999              	# 94 "src/syscall_cpp.cpp" 1
  95:src/syscall_cpp.cpp ****     __asm__ volatile("mv a2, %[function]": :[function] "r"(
 1000              		mv a4, t1
 1001              	# 0 "" 2
 1002              		.loc 2 95 5 is_stmt 1
  95:src/syscall_cpp.cpp ****     __asm__ volatile("mv a2, %[function]": :[function] "r"(
 1003              		.loc 2 95 50 is_stmt 0
 1004              	#NO_APP
 1005 0420 03B38401 		ld	t1,24(s1)
 1006              	.LVL72:
  95:src/syscall_cpp.cpp ****     __asm__ volatile("mv a2, %[function]": :[function] "r"(
 1007              		.loc 2 95 102
GAS LISTING /tmp/ccUY1dgg.s 			page 26


 1008              	#APP
 1009              	# 95 "src/syscall_cpp.cpp" 1
  96:src/syscall_cpp.cpp ****             body):"a5", "a0", "a1", "a2", "a3", "a4", "a6", "a7");
 1010              		mv a3, t1
 1011              	# 0 "" 2
 1012              		.loc 2 96 5 is_stmt 1
  97:src/syscall_cpp.cpp ****     __asm__ volatile("mv a1, %[handle]": :[handle] "r"(&myHandle):"a5", "a0", "a1", "a2", "a3", "a4
 1013              		.loc 2 97 13 is_stmt 0
 1014              	#NO_APP
 1015 0428 03B30401 		ld	t1,16(s1)
  97:src/syscall_cpp.cpp ****     __asm__ volatile("mv a1, %[handle]": :[handle] "r"(&myHandle):"a5", "a0", "a1", "a2", "a3", "a4
 1016              		.loc 2 97 66
 1017              	#APP
 1018              	# 97 "src/syscall_cpp.cpp" 1
  98:src/syscall_cpp.cpp ****     __asm__ volatile("li a0, 0x80");
 1019              		mv a2, t1
 1020              	# 0 "" 2
 1021              		.loc 2 98 5 is_stmt 1
  98:src/syscall_cpp.cpp ****     __asm__ volatile("li a0, 0x80");
 1022              		.loc 2 98 56 is_stmt 0
 1023              	#NO_APP
 1024 0430 93848400 		addi	s1,s1,8
 1025              	.LVL73:
  98:src/syscall_cpp.cpp ****     __asm__ volatile("li a0, 0x80");
 1026              		.loc 2 98 114
 1027              	#APP
 1028              	# 98 "src/syscall_cpp.cpp" 1
  99:src/syscall_cpp.cpp ****     //a0 = 0x80
 1029              		mv a1, s1
 1030              	# 0 "" 2
 1031              		.loc 2 99 5 is_stmt 1
  99:src/syscall_cpp.cpp ****     //a0 = 0x80
 1032              		.loc 2 99 36 is_stmt 0
 1033              	# 99 "src/syscall_cpp.cpp" 1
 106:src/syscall_cpp.cpp **** }
 1034              		li a0, 0x80
 1035              	# 0 "" 2
 1036              		.loc 2 106 5 is_stmt 1
 106:src/syscall_cpp.cpp **** }
 1037              		.loc 2 106 30 is_stmt 0
 1038              	# 106 "src/syscall_cpp.cpp" 1
 1039              		ecall
 1040              	# 0 "" 2
 1041              	#NO_APP
 1042              	.LBE55:
 1043              	.LBE54:
 107:src/syscall_cpp.cpp **** 
 1044              		.loc 2 107 1
 1045 0440 83308101 		ld	ra,24(sp)
 1046              		.cfi_restore 1
 1047 0444 03340101 		ld	s0,16(sp)
 1048              		.cfi_restore 8
 1049              		.cfi_def_cfa 2, 32
 1050 0448 83348100 		ld	s1,8(sp)
 1051              		.cfi_restore 9
 1052              	.LVL74:
 1053 044c 13010102 		addi	sp,sp,32
GAS LISTING /tmp/ccUY1dgg.s 			page 27


 1054              		.cfi_def_cfa_offset 0
 1055 0450 67800000 		jr	ra
 1056              		.cfi_endproc
 1057              	.LFE62:
 1059              		.globl	_ZN6ThreadC1Ev
 1060              		.set	_ZN6ThreadC1Ev,_ZN6ThreadC2Ev
 1061              		.align	2
 1062              		.globl	_ZN9SemaphoreC2Ej
 1064              	_ZN9SemaphoreC2Ej:
 1065              	.LFB66:
 115:src/syscall_cpp.cpp ****     sem_open(&myHandle, init);
 1066              		.loc 2 115 1 is_stmt 1
 1067              		.cfi_startproc
 1068              	.LVL75:
 1069 0454 130101FF 		addi	sp,sp,-16
 1070              		.cfi_def_cfa_offset 16
 1071 0458 23341100 		sd	ra,8(sp)
 1072 045c 23308100 		sd	s0,0(sp)
 1073              		.cfi_offset 1, -8
 1074              		.cfi_offset 8, -16
 1075 0460 13040101 		addi	s0,sp,16
 1076              		.cfi_def_cfa 8, 0
 1077              	.LBB56:
 115:src/syscall_cpp.cpp ****     sem_open(&myHandle, init);
 1078              		.loc 2 115 39 is_stmt 0
 1079 0464 97070000 		lla	a5,_ZTV9Semaphore+16
 1079      93870700 
 1080 046c 2330F500 		sd	a5,0(a0)
 116:src/syscall_cpp.cpp **** }
 1081              		.loc 2 116 5 is_stmt 1
 116:src/syscall_cpp.cpp **** }
 1082              		.loc 2 116 13 is_stmt 0
 1083 0470 13058500 		addi	a0,a0,8
 1084              	.LVL76:
 1085 0474 97000000 		call	_Z8sem_openPP4KSemj@plt
 1085      E7800000 
 1086              	.LVL77:
 1087              	.LBE56:
 117:src/syscall_cpp.cpp **** 
 1088              		.loc 2 117 1
 1089 047c 83308100 		ld	ra,8(sp)
 1090              		.cfi_restore 1
 1091 0480 03340100 		ld	s0,0(sp)
 1092              		.cfi_restore 8
 1093              		.cfi_def_cfa 2, 16
 1094 0484 13010101 		addi	sp,sp,16
 1095              		.cfi_def_cfa_offset 0
 1096 0488 67800000 		jr	ra
 1097              		.cfi_endproc
 1098              	.LFE66:
 1100              		.globl	_ZN9SemaphoreC1Ej
 1101              		.set	_ZN9SemaphoreC1Ej,_ZN9SemaphoreC2Ej
 1102              		.align	2
 1103              		.globl	_ZN9Semaphore4waitEv
 1105              	_ZN9Semaphore4waitEv:
 1106              	.LFB72:
 123:src/syscall_cpp.cpp ****     return sem_wait(myHandle);
GAS LISTING /tmp/ccUY1dgg.s 			page 28


 1107              		.loc 2 123 23 is_stmt 1
 1108              		.cfi_startproc
 1109              	.LVL78:
 1110 048c 130101FF 		addi	sp,sp,-16
 1111              		.cfi_def_cfa_offset 16
 1112 0490 23341100 		sd	ra,8(sp)
 1113 0494 23308100 		sd	s0,0(sp)
 1114              		.cfi_offset 1, -8
 1115              		.cfi_offset 8, -16
 1116 0498 13040101 		addi	s0,sp,16
 1117              		.cfi_def_cfa 8, 0
 124:src/syscall_cpp.cpp **** }
 1118              		.loc 2 124 5
 124:src/syscall_cpp.cpp **** }
 1119              		.loc 2 124 20 is_stmt 0
 1120 049c 03358500 		ld	a0,8(a0)
 1121              	.LVL79:
 1122 04a0 97000000 		call	_Z8sem_waitP4KSem@plt
 1122      E7800000 
 1123              	.LVL80:
 125:src/syscall_cpp.cpp **** 
 1124              		.loc 2 125 1
 1125 04a8 83308100 		ld	ra,8(sp)
 1126              		.cfi_restore 1
 1127 04ac 03340100 		ld	s0,0(sp)
 1128              		.cfi_restore 8
 1129              		.cfi_def_cfa 2, 16
 1130 04b0 13010101 		addi	sp,sp,16
 1131              		.cfi_def_cfa_offset 0
 1132 04b4 67800000 		jr	ra
 1133              		.cfi_endproc
 1134              	.LFE72:
 1136              		.align	2
 1137              		.globl	_ZN9Semaphore6signalEv
 1139              	_ZN9Semaphore6signalEv:
 1140              	.LFB73:
 127:src/syscall_cpp.cpp ****     return sem_signal(myHandle);
 1141              		.loc 2 127 25 is_stmt 1
 1142              		.cfi_startproc
 1143              	.LVL81:
 1144 04b8 130101FF 		addi	sp,sp,-16
 1145              		.cfi_def_cfa_offset 16
 1146 04bc 23341100 		sd	ra,8(sp)
 1147 04c0 23308100 		sd	s0,0(sp)
 1148              		.cfi_offset 1, -8
 1149              		.cfi_offset 8, -16
 1150 04c4 13040101 		addi	s0,sp,16
 1151              		.cfi_def_cfa 8, 0
 128:src/syscall_cpp.cpp **** }
 1152              		.loc 2 128 5
 128:src/syscall_cpp.cpp **** }
 1153              		.loc 2 128 22 is_stmt 0
 1154 04c8 03358500 		ld	a0,8(a0)
 1155              	.LVL82:
 1156 04cc 97000000 		call	_Z10sem_signalP4KSem@plt
 1156      E7800000 
 1157              	.LVL83:
GAS LISTING /tmp/ccUY1dgg.s 			page 29


 129:src/syscall_cpp.cpp **** 
 1158              		.loc 2 129 1
 1159 04d4 83308100 		ld	ra,8(sp)
 1160              		.cfi_restore 1
 1161 04d8 03340100 		ld	s0,0(sp)
 1162              		.cfi_restore 8
 1163              		.cfi_def_cfa 2, 16
 1164 04dc 13010101 		addi	sp,sp,16
 1165              		.cfi_def_cfa_offset 0
 1166 04e0 67800000 		jr	ra
 1167              		.cfi_endproc
 1168              	.LFE73:
 1170              		.align	2
 1171              		.globl	_ZN14PeriodicThread9terminateEv
 1173              	_ZN14PeriodicThread9terminateEv:
 1174              	.LFB74:
 131:src/syscall_cpp.cpp ****     this->period = -1;
 1175              		.loc 2 131 34 is_stmt 1
 1176              		.cfi_startproc
 1177              	.LVL84:
 1178 04e4 130101FF 		addi	sp,sp,-16
 1179              		.cfi_def_cfa_offset 16
 1180 04e8 23341100 		sd	ra,8(sp)
 1181 04ec 23308100 		sd	s0,0(sp)
 1182              		.cfi_offset 1, -8
 1183              		.cfi_offset 8, -16
 1184 04f0 13040101 		addi	s0,sp,16
 1185              		.cfi_def_cfa 8, 0
 132:src/syscall_cpp.cpp ****     join();
 1186              		.loc 2 132 5
 132:src/syscall_cpp.cpp ****     join();
 1187              		.loc 2 132 18 is_stmt 0
 1188 04f4 9307F0FF 		li	a5,-1
 1189 04f8 2330F502 		sd	a5,32(a0)
 133:src/syscall_cpp.cpp **** }
 1190              		.loc 2 133 5 is_stmt 1
 133:src/syscall_cpp.cpp **** }
 1191              		.loc 2 133 9 is_stmt 0
 1192 04fc 97000000 		call	_ZN6Thread4joinEv
 1192      E7800000 
 1193              	.LVL85:
 134:src/syscall_cpp.cpp **** 
 1194              		.loc 2 134 1
 1195 0504 83308100 		ld	ra,8(sp)
 1196              		.cfi_restore 1
 1197 0508 03340100 		ld	s0,0(sp)
 1198              		.cfi_restore 8
 1199              		.cfi_def_cfa 2, 16
 1200 050c 13010101 		addi	sp,sp,16
 1201              		.cfi_def_cfa_offset 0
 1202 0510 67800000 		jr	ra
 1203              		.cfi_endproc
 1204              	.LFE74:
 1206              		.align	2
 1207              		.globl	_ZN14PeriodicThreadC2Em
 1209              	_ZN14PeriodicThreadC2Em:
 1210              	.LFB76:
GAS LISTING /tmp/ccUY1dgg.s 			page 30


 136:src/syscall_cpp.cpp ****     if (this->period < 0) this->period = 2;
 1211              		.loc 2 136 1 is_stmt 1
 1212              		.cfi_startproc
 1213              	.LVL86:
 1214 0514 130101FE 		addi	sp,sp,-32
 1215              		.cfi_def_cfa_offset 32
 1216 0518 233C1100 		sd	ra,24(sp)
 1217 051c 23388100 		sd	s0,16(sp)
 1218 0520 23349100 		sd	s1,8(sp)
 1219 0524 23302101 		sd	s2,0(sp)
 1220              		.cfi_offset 1, -8
 1221              		.cfi_offset 8, -16
 1222              		.cfi_offset 9, -24
 1223              		.cfi_offset 18, -32
 1224 0528 13040102 		addi	s0,sp,32
 1225              		.cfi_def_cfa 8, 0
 1226 052c 93040500 		mv	s1,a0
 1227 0530 13890500 		mv	s2,a1
 1228              	.LBB57:
 136:src/syscall_cpp.cpp ****     if (this->period < 0) this->period = 2;
 1229              		.loc 2 136 72 is_stmt 0
 1230 0534 97000000 		call	_ZN6ThreadC2Ev
 1230      E7800000 
 1231              	.LVL87:
 1232 053c 97070000 		lla	a5,_ZTV14PeriodicThread+16
 1232      93870700 
 1233 0544 23B0F400 		sd	a5,0(s1)
 1234 0548 23B02403 		sd	s2,32(s1)
 137:src/syscall_cpp.cpp **** }
 1235              		.loc 2 137 5 is_stmt 1
 1236              	.LBE57:
 138:src/syscall_cpp.cpp **** 
 1237              		.loc 2 138 1 is_stmt 0
 1238 054c 83308101 		ld	ra,24(sp)
 1239              		.cfi_restore 1
 1240 0550 03340101 		ld	s0,16(sp)
 1241              		.cfi_restore 8
 1242              		.cfi_def_cfa 2, 32
 1243 0554 83348100 		ld	s1,8(sp)
 1244              		.cfi_restore 9
 1245              	.LVL88:
 1246 0558 03390100 		ld	s2,0(sp)
 1247              		.cfi_restore 18
 1248              	.LVL89:
 1249 055c 13010102 		addi	sp,sp,32
 1250              		.cfi_def_cfa_offset 0
 1251 0560 67800000 		jr	ra
 1252              		.cfi_endproc
 1253              	.LFE76:
 1255              		.globl	_ZN14PeriodicThreadC1Em
 1256              		.set	_ZN14PeriodicThreadC1Em,_ZN14PeriodicThreadC2Em
 1257              		.align	2
 1258              		.globl	_ZN7Console4getcEv
 1260              	_ZN7Console4getcEv:
 1261              	.LFB79:
 148:src/syscall_cpp.cpp **** 
 149:src/syscall_cpp.cpp **** char Console::getc() {
GAS LISTING /tmp/ccUY1dgg.s 			page 31


 1262              		.loc 2 149 22 is_stmt 1
 1263              		.cfi_startproc
 1264 0564 130101FF 		addi	sp,sp,-16
 1265              		.cfi_def_cfa_offset 16
 1266 0568 23341100 		sd	ra,8(sp)
 1267 056c 23308100 		sd	s0,0(sp)
 1268              		.cfi_offset 1, -8
 1269              		.cfi_offset 8, -16
 1270 0570 13040101 		addi	s0,sp,16
 1271              		.cfi_def_cfa 8, 0
 150:src/syscall_cpp.cpp ****     return ::getc();
 1272              		.loc 2 150 5
 1273              		.loc 2 150 18 is_stmt 0
 1274 0574 97000000 		call	_Z4getcv@plt
 1274      E7800000 
 1275              	.LVL90:
 151:src/syscall_cpp.cpp **** }
 1276              		.loc 2 151 1
 1277 057c 83308100 		ld	ra,8(sp)
 1278              		.cfi_restore 1
 1279 0580 03340100 		ld	s0,0(sp)
 1280              		.cfi_restore 8
 1281              		.cfi_def_cfa 2, 16
 1282 0584 13010101 		addi	sp,sp,16
 1283              		.cfi_def_cfa_offset 0
 1284 0588 67800000 		jr	ra
 1285              		.cfi_endproc
 1286              	.LFE79:
 1288              		.align	2
 1289              		.globl	_ZN7Console4putcEc
 1291              	_ZN7Console4putcEc:
 1292              	.LFB80:
 152:src/syscall_cpp.cpp **** 
 153:src/syscall_cpp.cpp **** void Console::putc(char c) {
 1293              		.loc 2 153 28 is_stmt 1
 1294              		.cfi_startproc
 1295              	.LVL91:
 1296 058c 130101FF 		addi	sp,sp,-16
 1297              		.cfi_def_cfa_offset 16
 1298 0590 23341100 		sd	ra,8(sp)
 1299 0594 23308100 		sd	s0,0(sp)
 1300              		.cfi_offset 1, -8
 1301              		.cfi_offset 8, -16
 1302 0598 13040101 		addi	s0,sp,16
 1303              		.cfi_def_cfa 8, 0
 154:src/syscall_cpp.cpp ****     ::putc(c);
 1304              		.loc 2 154 5
 1305              		.loc 2 154 11 is_stmt 0
 1306 059c 97000000 		call	_Z4putcc@plt
 1306      E7800000 
 1307              	.LVL92:
 155:src/syscall_cpp.cpp **** }
 1308              		.loc 2 155 1
 1309 05a4 83308100 		ld	ra,8(sp)
 1310              		.cfi_restore 1
 1311 05a8 03340100 		ld	s0,0(sp)
 1312              		.cfi_restore 8
GAS LISTING /tmp/ccUY1dgg.s 			page 32


 1313              		.cfi_def_cfa 2, 16
 1314 05ac 13010101 		addi	sp,sp,16
 1315              		.cfi_def_cfa_offset 0
 1316 05b0 67800000 		jr	ra
 1317              		.cfi_endproc
 1318              	.LFE80:
 1320              		.weak	_ZTV6Thread
 1321              		.section	.data.rel.ro.local._ZTV6Thread,"awG",@progbits,_ZTV6Thread,comdat
 1322              		.align	3
 1325              	_ZTV6Thread:
 1326 0000 00000000 		.dword	0
 1326      00000000 
 1327 0008 00000000 		.dword	0
 1327      00000000 
 1328 0010 00000000 		.dword	_ZN6ThreadD1Ev
 1328      00000000 
 1329 0018 00000000 		.dword	_ZN6ThreadD0Ev
 1329      00000000 
 1330 0020 00000000 		.dword	_ZN6Thread3runEv
 1330      00000000 
 1331              		.weak	_ZTV9Semaphore
 1332              		.section	.data.rel.ro.local._ZTV9Semaphore,"awG",@progbits,_ZTV9Semaphore,comdat
 1333              		.align	3
 1336              	_ZTV9Semaphore:
 1337 0000 00000000 		.dword	0
 1337      00000000 
 1338 0008 00000000 		.dword	0
 1338      00000000 
 1339 0010 00000000 		.dword	_ZN9SemaphoreD1Ev
 1339      00000000 
 1340 0018 00000000 		.dword	_ZN9SemaphoreD0Ev
 1340      00000000 
 1341              		.weak	_ZTV14PeriodicThread
 1342              		.section	.data.rel.ro.local._ZTV14PeriodicThread,"awG",@progbits,_ZTV14PeriodicThread,comdat
 1343              		.align	3
 1346              	_ZTV14PeriodicThread:
 1347 0000 00000000 		.dword	0
 1347      00000000 
 1348 0008 00000000 		.dword	0
 1348      00000000 
 1349 0010 00000000 		.dword	_ZN14PeriodicThreadD1Ev
 1349      00000000 
 1350 0018 00000000 		.dword	_ZN14PeriodicThreadD0Ev
 1350      00000000 
 1351 0020 00000000 		.dword	_ZN14PeriodicThread3runEv
 1351      00000000 
 1352 0028 00000000 		.dword	_ZN14PeriodicThread18periodicActivationEv
 1352      00000000 
 1353              		.text
 1354              	.Letext0:
 1355              		.file 5 "src/../h/../lib/hw.h"
 1356              		.file 6 "src/../h/KSem.hpp"
 1357              		.file 7 "src/../h/syscall_c.hpp"
 6299              		.align	3
 6302              	DW.ref.__gxx_personality_v0:
 6303 0000 00000000 		.dword	__gxx_personality_v0
 6303      00000000 
GAS LISTING /tmp/ccUY1dgg.s 			page 33


 6304              		.ident	"GCC: (Ubuntu 9.4.0-1ubuntu1~20.04) 9.4.0"
 6305              		.section	.note.GNU-stack,"",@progbits
GAS LISTING /tmp/ccUY1dgg.s 			page 34


DEFINED SYMBOLS
                            *ABS*:0000000000000000 syscall_cpp.cpp
     /tmp/ccUY1dgg.s:10     .text._ZN6Thread3runEv:0000000000000000 _ZN6Thread3runEv
     /tmp/ccUY1dgg.s:14     .text._ZN6Thread3runEv:0000000000000000 .L0 
     /tmp/ccUY1dgg.s:16     .text._ZN6Thread3runEv:0000000000000000 .L0 
     /tmp/ccUY1dgg.s:17     .text._ZN6Thread3runEv:0000000000000004 .L0 
     /tmp/ccUY1dgg.s:19     .text._ZN6Thread3runEv:0000000000000008 .L0 
     /tmp/ccUY1dgg.s:21     .text._ZN6Thread3runEv:000000000000000c .L0 
     /tmp/ccUY1dgg.s:23     .text._ZN6Thread3runEv:000000000000000c .L0 
     /tmp/ccUY1dgg.s:24     .text._ZN6Thread3runEv:0000000000000010 .L0 
     /tmp/ccUY1dgg.s:25     .text._ZN6Thread3runEv:0000000000000010 .L0 
     /tmp/ccUY1dgg.s:27     .text._ZN6Thread3runEv:0000000000000014 .L0 
     /tmp/ccUY1dgg.s:29     .text._ZN6Thread3runEv:0000000000000018 .L0 
     /tmp/ccUY1dgg.s:36     .text._ZN14PeriodicThread18periodicActivationEv:0000000000000000 _ZN14PeriodicThread18periodicActivationEv
     /tmp/ccUY1dgg.s:39     .text._ZN14PeriodicThread18periodicActivationEv:0000000000000000 .L0 
     /tmp/ccUY1dgg.s:41     .text._ZN14PeriodicThread18periodicActivationEv:0000000000000000 .L0 
     /tmp/ccUY1dgg.s:42     .text._ZN14PeriodicThread18periodicActivationEv:0000000000000004 .L0 
     /tmp/ccUY1dgg.s:44     .text._ZN14PeriodicThread18periodicActivationEv:0000000000000008 .L0 
     /tmp/ccUY1dgg.s:46     .text._ZN14PeriodicThread18periodicActivationEv:000000000000000c .L0 
     /tmp/ccUY1dgg.s:48     .text._ZN14PeriodicThread18periodicActivationEv:000000000000000c .L0 
     /tmp/ccUY1dgg.s:49     .text._ZN14PeriodicThread18periodicActivationEv:0000000000000010 .L0 
     /tmp/ccUY1dgg.s:50     .text._ZN14PeriodicThread18periodicActivationEv:0000000000000010 .L0 
     /tmp/ccUY1dgg.s:52     .text._ZN14PeriodicThread18periodicActivationEv:0000000000000014 .L0 
     /tmp/ccUY1dgg.s:54     .text._ZN14PeriodicThread18periodicActivationEv:0000000000000018 .L0 
     /tmp/ccUY1dgg.s:61     .text:0000000000000000 _ZN6Thread7wrapperEPv
     /tmp/ccUY1dgg.s:65     .text:0000000000000000 .L0 
     /tmp/ccUY1dgg.s:67     .text:0000000000000000 .L0 
     /tmp/ccUY1dgg.s:68     .text:0000000000000000 .L0 
     /tmp/ccUY1dgg.s:70     .text:0000000000000004 .L0 
     /tmp/ccUY1dgg.s:71     .text:0000000000000008 .L0 
     /tmp/ccUY1dgg.s:74     .text:0000000000000010 .L0 
     /tmp/ccUY1dgg.s:75     .text:0000000000000010 .L0 
     /tmp/ccUY1dgg.s:77     .text:0000000000000014 .L0 
     /tmp/ccUY1dgg.s:79     .text:0000000000000014 .L0 
     /tmp/ccUY1dgg.s:80     .text:0000000000000014 .L0 
     /tmp/ccUY1dgg.s:83     .text:000000000000001c .L0 
     /tmp/ccUY1dgg.s:86     .text:0000000000000020 .L0 
     /tmp/ccUY1dgg.s:87     .text:0000000000000024 .L0 
     /tmp/ccUY1dgg.s:89     .text:0000000000000028 .L0 
     /tmp/ccUY1dgg.s:90     .text:0000000000000028 .L0 
     /tmp/ccUY1dgg.s:92     .text:000000000000002c .L0 
     /tmp/ccUY1dgg.s:97     .text:0000000000000034 .L0 
     /tmp/ccUY1dgg.s:103    .text:0000000000000034 _ZN6ThreadD2Ev
     /tmp/ccUY1dgg.s:106    .text:0000000000000034 .L0 
     /tmp/ccUY1dgg.s:6302   .data.rel.local.DW.ref.__gxx_personality_v0:0000000000000000 DW.ref.__gxx_personality_v0
     /tmp/ccUY1dgg.s:110    .text:0000000000000034 .L0 
     /tmp/ccUY1dgg.s:111    .text:0000000000000038 .L0 
     /tmp/ccUY1dgg.s:115    .text:0000000000000044 .L0 
     /tmp/ccUY1dgg.s:116    .text:0000000000000044 .L0 
     /tmp/ccUY1dgg.s:117    .text:0000000000000044 .L0 
     /tmp/ccUY1dgg.s:119    .text:0000000000000048 .L0 
     /tmp/ccUY1dgg.s:1325   .data.rel.ro.local._ZTV6Thread:0000000000000000 _ZTV6Thread
     /tmp/ccUY1dgg.s:123    .text:000000000000004c .L0 
     /tmp/ccUY1dgg.s:126    .text:0000000000000058 .L0 
     /tmp/ccUY1dgg.s:127    .text:0000000000000058 .L0 
 src/syscall_cpp.cpp:58     .text:000000000000005c .L0 
     /tmp/ccUY1dgg.s:135    .text:0000000000000060 .L0 
GAS LISTING /tmp/ccUY1dgg.s 			page 35


 src/syscall_cpp.cpp:59     .text:0000000000000060 .L0 
     /tmp/ccUY1dgg.s:140    .text:0000000000000064 .L0 
 src/syscall_cpp.cpp:61     .text:0000000000000064 .L0 
     /tmp/ccUY1dgg.s:145    .text:0000000000000068 .L0 
     /tmp/ccUY1dgg.s:147    .text:0000000000000068 .L0 
     /tmp/ccUY1dgg.s:149    .text:000000000000006c .L0 
     /tmp/ccUY1dgg.s:157    .text:0000000000000070 .L0 
     /tmp/ccUY1dgg.s:160    .text:0000000000000070 .L0 
     /tmp/ccUY1dgg.s:161    .text:0000000000000070 .L0 
     /tmp/ccUY1dgg.s:162    .text:0000000000000070 .L0 
     /tmp/ccUY1dgg.s:166    .text:0000000000000074 .L0 
     /tmp/ccUY1dgg.s:170    .text:0000000000000078 .L0 
     /tmp/ccUY1dgg.s:171    .text:0000000000000078 .L0 
     /tmp/ccUY1dgg.s:172    .text:0000000000000078 .L0 
     /tmp/ccUY1dgg.s:174    .text:000000000000007c .L0 
     /tmp/ccUY1dgg.s:176    .text:0000000000000080 .L0 
     /tmp/ccUY1dgg.s:177    .text:0000000000000080 .L0 
     /tmp/ccUY1dgg.s:182    .text:0000000000000084 .L0 
     /tmp/ccUY1dgg.s:183    .text:0000000000000084 .L0 
     /tmp/ccUY1dgg.s:186    .text:000000000000008c .L0 
     /tmp/ccUY1dgg.s:195    .text:0000000000000090 .L0 
     /tmp/ccUY1dgg.s:201    .text:000000000000009c .L0 
     /tmp/ccUY1dgg.s:202    .text:00000000000000a0 .L0 
     /tmp/ccUY1dgg.s:204    .text:00000000000000a4 .L0 
     /tmp/ccUY1dgg.s:205    .text:00000000000000a4 .L0 
     /tmp/ccUY1dgg.s:207    .text:00000000000000a8 .L0 
     /tmp/ccUY1dgg.s:209    .text:00000000000000ac .L0 
     /tmp/ccUY1dgg.s:211    .text:00000000000000b0 .L0 
     /tmp/ccUY1dgg.s:103    .text:0000000000000034 _ZN6ThreadD1Ev
     /tmp/ccUY1dgg.s:228    .text._ZN14PeriodicThreadD2Ev:0000000000000000 _ZN14PeriodicThreadD2Ev
     /tmp/ccUY1dgg.s:231    .text._ZN14PeriodicThreadD2Ev:0000000000000000 .L0 
     /tmp/ccUY1dgg.s:233    .text._ZN14PeriodicThreadD2Ev:0000000000000000 .L0 
     /tmp/ccUY1dgg.s:234    .text._ZN14PeriodicThreadD2Ev:0000000000000004 .L0 
     /tmp/ccUY1dgg.s:237    .text._ZN14PeriodicThreadD2Ev:000000000000000c .L0 
     /tmp/ccUY1dgg.s:238    .text._ZN14PeriodicThreadD2Ev:000000000000000c .L0 
     /tmp/ccUY1dgg.s:240    .text._ZN14PeriodicThreadD2Ev:0000000000000010 .L0 
     /tmp/ccUY1dgg.s:1346   .data.rel.ro.local._ZTV14PeriodicThread:0000000000000000 _ZTV14PeriodicThread
     /tmp/ccUY1dgg.s:243    .text._ZN14PeriodicThreadD2Ev:0000000000000010 .L0 
     /tmp/ccUY1dgg.s:249    .text._ZN14PeriodicThreadD2Ev:0000000000000028 .L0 
     /tmp/ccUY1dgg.s:251    .text._ZN14PeriodicThreadD2Ev:000000000000002c .L0 
     /tmp/ccUY1dgg.s:252    .text._ZN14PeriodicThreadD2Ev:000000000000002c .L0 
     /tmp/ccUY1dgg.s:254    .text._ZN14PeriodicThreadD2Ev:0000000000000030 .L0 
     /tmp/ccUY1dgg.s:256    .text._ZN14PeriodicThreadD2Ev:0000000000000034 .L0 
     /tmp/ccUY1dgg.s:228    .text._ZN14PeriodicThreadD2Ev:0000000000000000 _ZN14PeriodicThreadD1Ev
     /tmp/ccUY1dgg.s:265    .text:00000000000000b0 _ZN9SemaphoreD2Ev
     /tmp/ccUY1dgg.s:268    .text:00000000000000b0 .L0 
     /tmp/ccUY1dgg.s:272    .text:00000000000000b0 .L0 
     /tmp/ccUY1dgg.s:273    .text:00000000000000b4 .L0 
     /tmp/ccUY1dgg.s:276    .text:00000000000000bc .L0 
     /tmp/ccUY1dgg.s:277    .text:00000000000000bc .L0 
     /tmp/ccUY1dgg.s:279    .text:00000000000000c0 .L0 
     /tmp/ccUY1dgg.s:1336   .data.rel.ro.local._ZTV9Semaphore:0000000000000000 _ZTV9Semaphore
     /tmp/ccUY1dgg.s:282    .text:00000000000000c0 .L0 
     /tmp/ccUY1dgg.s:285    .text:00000000000000cc .L0 
     /tmp/ccUY1dgg.s:286    .text:00000000000000cc .L0 
     /tmp/ccUY1dgg.s:292    .text:00000000000000d8 .L0 
     /tmp/ccUY1dgg.s:293    .text:00000000000000dc .L0 
GAS LISTING /tmp/ccUY1dgg.s 			page 36


     /tmp/ccUY1dgg.s:295    .text:00000000000000e0 .L0 
     /tmp/ccUY1dgg.s:296    .text:00000000000000e0 .L0 
     /tmp/ccUY1dgg.s:298    .text:00000000000000e4 .L0 
     /tmp/ccUY1dgg.s:300    .text:00000000000000e8 .L0 
     /tmp/ccUY1dgg.s:265    .text:00000000000000b0 _ZN9SemaphoreD1Ev
     /tmp/ccUY1dgg.s:315    .text:00000000000000e8 _Znwm
     /tmp/ccUY1dgg.s:318    .text:00000000000000e8 .L0 
     /tmp/ccUY1dgg.s:320    .text:00000000000000e8 .L0 
     /tmp/ccUY1dgg.s:321    .text:00000000000000ec .L0 
     /tmp/ccUY1dgg.s:324    .text:00000000000000f4 .L0 
     /tmp/ccUY1dgg.s:325    .text:00000000000000f4 .L0 
     /tmp/ccUY1dgg.s:327    .text:00000000000000f8 .L0 
     /tmp/ccUY1dgg.s:329    .text:00000000000000f8 .L0 
     /tmp/ccUY1dgg.s:330    .text:00000000000000f8 .L0 
     /tmp/ccUY1dgg.s:333    .text:0000000000000100 .L0 
     /tmp/ccUY1dgg.s:334    .text:0000000000000104 .L0 
     /tmp/ccUY1dgg.s:336    .text:0000000000000108 .L0 
     /tmp/ccUY1dgg.s:337    .text:0000000000000108 .L0 
     /tmp/ccUY1dgg.s:339    .text:000000000000010c .L0 
     /tmp/ccUY1dgg.s:341    .text:0000000000000110 .L0 
     /tmp/ccUY1dgg.s:347    .text:0000000000000110 _Znam
     /tmp/ccUY1dgg.s:350    .text:0000000000000110 .L0 
     /tmp/ccUY1dgg.s:352    .text:0000000000000110 .L0 
     /tmp/ccUY1dgg.s:353    .text:0000000000000114 .L0 
     /tmp/ccUY1dgg.s:356    .text:000000000000011c .L0 
     /tmp/ccUY1dgg.s:357    .text:000000000000011c .L0 
     /tmp/ccUY1dgg.s:359    .text:0000000000000120 .L0 
     /tmp/ccUY1dgg.s:361    .text:0000000000000120 .L0 
     /tmp/ccUY1dgg.s:362    .text:0000000000000120 .L0 
     /tmp/ccUY1dgg.s:365    .text:0000000000000128 .L0 
     /tmp/ccUY1dgg.s:366    .text:000000000000012c .L0 
     /tmp/ccUY1dgg.s:368    .text:0000000000000130 .L0 
     /tmp/ccUY1dgg.s:369    .text:0000000000000130 .L0 
     /tmp/ccUY1dgg.s:371    .text:0000000000000134 .L0 
     /tmp/ccUY1dgg.s:373    .text:0000000000000138 .L0 
     /tmp/ccUY1dgg.s:379    .text:0000000000000138 _ZdlPv
     /tmp/ccUY1dgg.s:382    .text:0000000000000138 .L0 
     /tmp/ccUY1dgg.s:386    .text:0000000000000138 .L0 
     /tmp/ccUY1dgg.s:387    .text:000000000000013c .L0 
     /tmp/ccUY1dgg.s:390    .text:0000000000000144 .L0 
     /tmp/ccUY1dgg.s:391    .text:0000000000000144 .L0 
     /tmp/ccUY1dgg.s:393    .text:0000000000000148 .L0 
     /tmp/ccUY1dgg.s:395    .text:0000000000000148 .L0 
     /tmp/ccUY1dgg.s:396    .text:0000000000000148 .L0 
     /tmp/ccUY1dgg.s:399    .text:0000000000000150 .L0 
     /tmp/ccUY1dgg.s:400    .text:0000000000000154 .L0 
     /tmp/ccUY1dgg.s:402    .text:0000000000000158 .L0 
     /tmp/ccUY1dgg.s:403    .text:0000000000000158 .L0 
     /tmp/ccUY1dgg.s:405    .text:000000000000015c .L0 
     /tmp/ccUY1dgg.s:407    .text:0000000000000160 .L0 
     /tmp/ccUY1dgg.s:420    .text:0000000000000160 _ZN9SemaphoreD0Ev
     /tmp/ccUY1dgg.s:423    .text:0000000000000160 .L0 
     /tmp/ccUY1dgg.s:425    .text:0000000000000160 .L0 
     /tmp/ccUY1dgg.s:426    .text:0000000000000164 .L0 
     /tmp/ccUY1dgg.s:430    .text:0000000000000170 .L0 
     /tmp/ccUY1dgg.s:431    .text:0000000000000170 .L0 
     /tmp/ccUY1dgg.s:432    .text:0000000000000170 .L0 
GAS LISTING /tmp/ccUY1dgg.s 			page 37


     /tmp/ccUY1dgg.s:434    .text:0000000000000174 .L0 
     /tmp/ccUY1dgg.s:437    .text:0000000000000178 .L0 
     /tmp/ccUY1dgg.s:443    .text:0000000000000190 .L0 
     /tmp/ccUY1dgg.s:445    .text:0000000000000194 .L0 
     /tmp/ccUY1dgg.s:446    .text:0000000000000194 .L0 
     /tmp/ccUY1dgg.s:448    .text:0000000000000198 .L0 
     /tmp/ccUY1dgg.s:451    .text:000000000000019c .L0 
     /tmp/ccUY1dgg.s:453    .text:00000000000001a0 .L0 
     /tmp/ccUY1dgg.s:459    .text:00000000000001a0 _ZN6ThreadD0Ev
     /tmp/ccUY1dgg.s:462    .text:00000000000001a0 .L0 
     /tmp/ccUY1dgg.s:464    .text:00000000000001a0 .L0 
     /tmp/ccUY1dgg.s:465    .text:00000000000001a4 .L0 
     /tmp/ccUY1dgg.s:469    .text:00000000000001b0 .L0 
     /tmp/ccUY1dgg.s:470    .text:00000000000001b0 .L0 
     /tmp/ccUY1dgg.s:471    .text:00000000000001b0 .L0 
     /tmp/ccUY1dgg.s:473    .text:00000000000001b4 .L0 
     /tmp/ccUY1dgg.s:476    .text:00000000000001b8 .L0 
     /tmp/ccUY1dgg.s:482    .text:00000000000001d0 .L0 
     /tmp/ccUY1dgg.s:484    .text:00000000000001d4 .L0 
     /tmp/ccUY1dgg.s:485    .text:00000000000001d4 .L0 
     /tmp/ccUY1dgg.s:487    .text:00000000000001d8 .L0 
     /tmp/ccUY1dgg.s:490    .text:00000000000001dc .L0 
     /tmp/ccUY1dgg.s:492    .text:00000000000001e0 .L0 
     /tmp/ccUY1dgg.s:499    .text._ZN14PeriodicThreadD0Ev:0000000000000000 _ZN14PeriodicThreadD0Ev
     /tmp/ccUY1dgg.s:502    .text._ZN14PeriodicThreadD0Ev:0000000000000000 .L0 
     /tmp/ccUY1dgg.s:504    .text._ZN14PeriodicThreadD0Ev:0000000000000000 .L0 
     /tmp/ccUY1dgg.s:505    .text._ZN14PeriodicThreadD0Ev:0000000000000004 .L0 
     /tmp/ccUY1dgg.s:509    .text._ZN14PeriodicThreadD0Ev:0000000000000010 .L0 
     /tmp/ccUY1dgg.s:510    .text._ZN14PeriodicThreadD0Ev:0000000000000010 .L0 
     /tmp/ccUY1dgg.s:511    .text._ZN14PeriodicThreadD0Ev:0000000000000010 .L0 
     /tmp/ccUY1dgg.s:513    .text._ZN14PeriodicThreadD0Ev:0000000000000014 .L0 
     /tmp/ccUY1dgg.s:519    .text._ZN14PeriodicThreadD0Ev:0000000000000018 .L0 
     /tmp/ccUY1dgg.s:529    .text._ZN14PeriodicThreadD0Ev:000000000000003c .L0 
     /tmp/ccUY1dgg.s:531    .text._ZN14PeriodicThreadD0Ev:0000000000000040 .L0 
     /tmp/ccUY1dgg.s:532    .text._ZN14PeriodicThreadD0Ev:0000000000000040 .L0 
     /tmp/ccUY1dgg.s:534    .text._ZN14PeriodicThreadD0Ev:0000000000000044 .L0 
     /tmp/ccUY1dgg.s:537    .text._ZN14PeriodicThreadD0Ev:0000000000000048 .L0 
     /tmp/ccUY1dgg.s:539    .text._ZN14PeriodicThreadD0Ev:000000000000004c .L0 
     /tmp/ccUY1dgg.s:546    .text:00000000000001e0 _ZdaPv
     /tmp/ccUY1dgg.s:549    .text:00000000000001e0 .L0 
     /tmp/ccUY1dgg.s:553    .text:00000000000001e0 .L0 
     /tmp/ccUY1dgg.s:554    .text:00000000000001e4 .L0 
     /tmp/ccUY1dgg.s:557    .text:00000000000001ec .L0 
     /tmp/ccUY1dgg.s:558    .text:00000000000001ec .L0 
     /tmp/ccUY1dgg.s:560    .text:00000000000001f0 .L0 
     /tmp/ccUY1dgg.s:562    .text:00000000000001f0 .L0 
     /tmp/ccUY1dgg.s:563    .text:00000000000001f0 .L0 
     /tmp/ccUY1dgg.s:566    .text:00000000000001f8 .L0 
     /tmp/ccUY1dgg.s:567    .text:00000000000001fc .L0 
     /tmp/ccUY1dgg.s:569    .text:0000000000000200 .L0 
     /tmp/ccUY1dgg.s:570    .text:0000000000000200 .L0 
     /tmp/ccUY1dgg.s:572    .text:0000000000000204 .L0 
     /tmp/ccUY1dgg.s:574    .text:0000000000000208 .L0 
     /tmp/ccUY1dgg.s:587    .text:0000000000000208 _ZN6ThreadC2EPFvPvES0_
     /tmp/ccUY1dgg.s:590    .text:0000000000000208 .L0 
     /tmp/ccUY1dgg.s:592    .text:0000000000000208 .L0 
     /tmp/ccUY1dgg.s:593    .text:000000000000020c .L0 
GAS LISTING /tmp/ccUY1dgg.s 			page 38


     /tmp/ccUY1dgg.s:599    .text:0000000000000220 .L0 
     /tmp/ccUY1dgg.s:600    .text:0000000000000220 .L0 
     /tmp/ccUY1dgg.s:601    .text:0000000000000220 .L0 
     /tmp/ccUY1dgg.s:602    .text:0000000000000220 .L0 
     /tmp/ccUY1dgg.s:603    .text:0000000000000220 .L0 
     /tmp/ccUY1dgg.s:605    .text:0000000000000224 .L0 
     /tmp/ccUY1dgg.s:611    .text:0000000000000230 .L0 
     /tmp/ccUY1dgg.s:615    .text:000000000000023c .L0 
     /tmp/ccUY1dgg.s:616    .text:000000000000023c .L0 
     /tmp/ccUY1dgg.s:618    .text:0000000000000240 .L0 
     /tmp/ccUY1dgg.s:619    .text:0000000000000240 .L0 
     /tmp/ccUY1dgg.s:622    .text:0000000000000244 .L0 
     /tmp/ccUY1dgg.s:623    .text:0000000000000244 .L0 
     /tmp/ccUY1dgg.s:626    .text:0000000000000250 .L0 
     /tmp/ccUY1dgg.s:627    .text:0000000000000250 .L0 
     /tmp/ccUY1dgg.s:635    .text:0000000000000260 .L0 
 src/syscall_cpp.cpp:42     .text:0000000000000260 .L0 
     /tmp/ccUY1dgg.s:641    .text:0000000000000264 .L0 
 src/syscall_cpp.cpp:43     .text:0000000000000264 .L0 
     /tmp/ccUY1dgg.s:646    .text:0000000000000268 .L0 
 src/syscall_cpp.cpp:45     .text:0000000000000268 .L0 
     /tmp/ccUY1dgg.s:651    .text:000000000000026c .L0 
     /tmp/ccUY1dgg.s:653    .text:000000000000026c .L0 
 src/syscall_cpp.cpp:46     .text:0000000000000270 .L0 
     /tmp/ccUY1dgg.s:661    .text:0000000000000274 .L0 
 src/syscall_cpp.cpp:47     .text:0000000000000274 .L0 
     /tmp/ccUY1dgg.s:666    .text:0000000000000278 .L0 
 src/syscall_cpp.cpp:54     .text:0000000000000278 .L0 
     /tmp/ccUY1dgg.s:674    .text:000000000000027c .L0 
     /tmp/ccUY1dgg.s:675    .text:0000000000000280 .L0 
     /tmp/ccUY1dgg.s:676    .text:0000000000000280 .L0 
     /tmp/ccUY1dgg.s:678    .text:0000000000000284 .L0 
     /tmp/ccUY1dgg.s:679    .text:0000000000000284 .L0 
     /tmp/ccUY1dgg.s:681    .text:0000000000000288 .L0 
     /tmp/ccUY1dgg.s:684    .text:000000000000028c .L0 
     /tmp/ccUY1dgg.s:687    .text:0000000000000290 .L0 
     /tmp/ccUY1dgg.s:690    .text:0000000000000294 .L0 
     /tmp/ccUY1dgg.s:694    .text:0000000000000298 .L0 
     /tmp/ccUY1dgg.s:698    .text:0000000000000298 .L0 
     /tmp/ccUY1dgg.s:702    .text:00000000000002a0 .L0 
     /tmp/ccUY1dgg.s:587    .text:0000000000000208 _ZN6ThreadC1EPFvPvES0_
     /tmp/ccUY1dgg.s:710    .text:00000000000002a0 _ZN6Thread5startEv
     /tmp/ccUY1dgg.s:713    .text:00000000000002a0 .L0 
     /tmp/ccUY1dgg.s:715    .text:00000000000002a0 .L0 
     /tmp/ccUY1dgg.s:716    .text:00000000000002a4 .L0 
     /tmp/ccUY1dgg.s:718    .text:00000000000002a8 .L0 
     /tmp/ccUY1dgg.s:720    .text:00000000000002ac .L0 
     /tmp/ccUY1dgg.s:722    .text:00000000000002ac .L0 
     /tmp/ccUY1dgg.s:723    .text:00000000000002ac .L0 
     /tmp/ccUY1dgg.s:725    .text:00000000000002b0 .L0 
     /tmp/ccUY1dgg.s:731    .text:00000000000002b4 .L0 
     /tmp/ccUY1dgg.s:732    .text:00000000000002b4 .L0 
     /tmp/ccUY1dgg.s:737    .text:00000000000002b8 .L0 
     /tmp/ccUY1dgg.s:739    .text:00000000000002bc .L0 
 src/syscall_cpp.cpp:68     .text:00000000000002bc .L0 
     /tmp/ccUY1dgg.s:746    .text:00000000000002c0 .L0 
 src/syscall_cpp.cpp:69     .text:00000000000002c0 .L0 
GAS LISTING /tmp/ccUY1dgg.s 			page 39


     /tmp/ccUY1dgg.s:751    .text:00000000000002c4 .L0 
 src/syscall_cpp.cpp:71     .text:00000000000002c4 .L0 
     /tmp/ccUY1dgg.s:756    .text:00000000000002c8 .L0 
     /tmp/ccUY1dgg.s:758    .text:00000000000002c8 .L0 
     /tmp/ccUY1dgg.s:761    .text:00000000000002cc .L0 
     /tmp/ccUY1dgg.s:762    .text:00000000000002d0 .L0 
     /tmp/ccUY1dgg.s:763    .text:00000000000002d0 .L0 
     /tmp/ccUY1dgg.s:764    .text:00000000000002d0 .L0 
     /tmp/ccUY1dgg.s:766    .text:00000000000002d4 .L0 
     /tmp/ccUY1dgg.s:770    .text:00000000000002d8 .L0 
     /tmp/ccUY1dgg.s:772    .text:00000000000002d8 .L0 
     /tmp/ccUY1dgg.s:780    .text:00000000000002e8 .L0 
     /tmp/ccUY1dgg.s:786    .text:00000000000002e8 _ZN6Thread4joinEv
     /tmp/ccUY1dgg.s:789    .text:00000000000002e8 .L0 
     /tmp/ccUY1dgg.s:791    .text:00000000000002e8 .L0 
     /tmp/ccUY1dgg.s:792    .text:00000000000002e8 .L0 
     /tmp/ccUY1dgg.s:793    .text:00000000000002e8 .L0 
     /tmp/ccUY1dgg.s:796    .text:00000000000002ec .L0 
     /tmp/ccUY1dgg.s:798    .text:00000000000002f0 .L0 
     /tmp/ccUY1dgg.s:799    .text:00000000000002f4 .L0 
     /tmp/ccUY1dgg.s:802    .text:00000000000002fc .L0 
     /tmp/ccUY1dgg.s:803    .text:00000000000002fc .L0 
     /tmp/ccUY1dgg.s:805    .text:0000000000000300 .L0 
     /tmp/ccUY1dgg.s:807    .text:0000000000000300 .L0 
     /tmp/ccUY1dgg.s:808    .text:0000000000000300 .L0 
     /tmp/ccUY1dgg.s:811    .text:0000000000000308 .L0 
     /tmp/ccUY1dgg.s:812    .text:000000000000030c .L0 
     /tmp/ccUY1dgg.s:814    .text:0000000000000310 .L0 
     /tmp/ccUY1dgg.s:815    .text:0000000000000310 .L0 
     /tmp/ccUY1dgg.s:817    .text:0000000000000314 .L0 
     /tmp/ccUY1dgg.s:821    .text:000000000000031c .L0 
     /tmp/ccUY1dgg.s:827    .text:000000000000031c _ZN6Thread8dispatchEv
     /tmp/ccUY1dgg.s:830    .text:000000000000031c .L0 
     /tmp/ccUY1dgg.s:831    .text:000000000000031c .L0 
     /tmp/ccUY1dgg.s:832    .text:0000000000000320 .L0 
     /tmp/ccUY1dgg.s:835    .text:0000000000000328 .L0 
     /tmp/ccUY1dgg.s:836    .text:0000000000000328 .L0 
     /tmp/ccUY1dgg.s:838    .text:000000000000032c .L0 
     /tmp/ccUY1dgg.s:840    .text:000000000000032c .L0 
     /tmp/ccUY1dgg.s:841    .text:000000000000032c .L0 
     /tmp/ccUY1dgg.s:844    .text:0000000000000334 .L0 
     /tmp/ccUY1dgg.s:845    .text:0000000000000338 .L0 
     /tmp/ccUY1dgg.s:847    .text:000000000000033c .L0 
     /tmp/ccUY1dgg.s:848    .text:000000000000033c .L0 
     /tmp/ccUY1dgg.s:850    .text:0000000000000340 .L0 
     /tmp/ccUY1dgg.s:852    .text:0000000000000344 .L0 
     /tmp/ccUY1dgg.s:858    .text:0000000000000344 _ZN6Thread5sleepEm
     /tmp/ccUY1dgg.s:861    .text:0000000000000344 .L0 
     /tmp/ccUY1dgg.s:863    .text:0000000000000344 .L0 
     /tmp/ccUY1dgg.s:864    .text:0000000000000348 .L0 
     /tmp/ccUY1dgg.s:867    .text:0000000000000350 .L0 
     /tmp/ccUY1dgg.s:868    .text:0000000000000350 .L0 
     /tmp/ccUY1dgg.s:870    .text:0000000000000354 .L0 
     /tmp/ccUY1dgg.s:872    .text:0000000000000354 .L0 
     /tmp/ccUY1dgg.s:873    .text:0000000000000354 .L0 
     /tmp/ccUY1dgg.s:876    .text:000000000000035c .L0 
     /tmp/ccUY1dgg.s:877    .text:000000000000035c .L0 
GAS LISTING /tmp/ccUY1dgg.s 			page 40


     /tmp/ccUY1dgg.s:879    .text:0000000000000364 .L0 
     /tmp/ccUY1dgg.s:881    .text:0000000000000368 .L0 
     /tmp/ccUY1dgg.s:882    .text:0000000000000368 .L0 
     /tmp/ccUY1dgg.s:884    .text:000000000000036c .L0 
     /tmp/ccUY1dgg.s:886    .text:0000000000000370 .L0 
     /tmp/ccUY1dgg.s:892    .text:0000000000000370 _ZN14PeriodicThread3runEv
     /tmp/ccUY1dgg.s:895    .text:0000000000000370 .L0 
     /tmp/ccUY1dgg.s:897    .text:0000000000000370 .L0 
     /tmp/ccUY1dgg.s:898    .text:0000000000000374 .L0 
     /tmp/ccUY1dgg.s:902    .text:0000000000000380 .L0 
     /tmp/ccUY1dgg.s:903    .text:0000000000000380 .L0 
     /tmp/ccUY1dgg.s:904    .text:0000000000000380 .L0 
     /tmp/ccUY1dgg.s:906    .text:0000000000000384 .L0 
     /tmp/ccUY1dgg.s:911    .text:0000000000000388 .L0 
     /tmp/ccUY1dgg.s:912    .text:0000000000000388 .L0 
     /tmp/ccUY1dgg.s:913    .text:0000000000000388 .L0 
     /tmp/ccUY1dgg.s:915    .text:000000000000038c .L0 
     /tmp/ccUY1dgg.s:918    .text:0000000000000394 .L0 
     /tmp/ccUY1dgg.s:919    .text:0000000000000394 .L0 
     /tmp/ccUY1dgg.s:922    .text:000000000000039c .L0 
     /tmp/ccUY1dgg.s:926    .text:00000000000003a4 .L0 
     /tmp/ccUY1dgg.s:927    .text:00000000000003a4 .L0 
     /tmp/ccUY1dgg.s:929    .text:00000000000003a8 .L0 
     /tmp/ccUY1dgg.s:932    .text:00000000000003b0 .L0 
     /tmp/ccUY1dgg.s:933    .text:00000000000003b0 .L0 
     /tmp/ccUY1dgg.s:936    .text:00000000000003b8 .L0 
     /tmp/ccUY1dgg.s:939    .text:00000000000003bc .L0 
     /tmp/ccUY1dgg.s:940    .text:00000000000003bc .L0 
     /tmp/ccUY1dgg.s:943    .text:00000000000003c4 .L0 
     /tmp/ccUY1dgg.s:944    .text:00000000000003c8 .L0 
     /tmp/ccUY1dgg.s:946    .text:00000000000003cc .L0 
     /tmp/ccUY1dgg.s:947    .text:00000000000003cc .L0 
     /tmp/ccUY1dgg.s:949    .text:00000000000003d0 .L0 
     /tmp/ccUY1dgg.s:952    .text:00000000000003d4 .L0 
     /tmp/ccUY1dgg.s:954    .text:00000000000003d8 .L0 
     /tmp/ccUY1dgg.s:960    .text:00000000000003d8 _ZN6ThreadC2Ev
     /tmp/ccUY1dgg.s:963    .text:00000000000003d8 .L0 
     /tmp/ccUY1dgg.s:965    .text:00000000000003d8 .L0 
     /tmp/ccUY1dgg.s:966    .text:00000000000003dc .L0 
     /tmp/ccUY1dgg.s:970    .text:00000000000003e8 .L0 
     /tmp/ccUY1dgg.s:971    .text:00000000000003e8 .L0 
     /tmp/ccUY1dgg.s:972    .text:00000000000003e8 .L0 
     /tmp/ccUY1dgg.s:974    .text:00000000000003ec .L0 
     /tmp/ccUY1dgg.s:978    .text:00000000000003f0 .L0 
     /tmp/ccUY1dgg.s:982    .text:00000000000003fc .L0 
     /tmp/ccUY1dgg.s:983    .text:00000000000003fc .L0 
     /tmp/ccUY1dgg.s:986    .text:0000000000000408 .L0 
     /tmp/ccUY1dgg.s:987    .text:0000000000000408 .L0 
     /tmp/ccUY1dgg.s:989    .text:000000000000040c .L0 
     /tmp/ccUY1dgg.s:990    .text:000000000000040c .L0 
     /tmp/ccUY1dgg.s:997    .text:000000000000041c .L0 
 src/syscall_cpp.cpp:94     .text:000000000000041c .L0 
     /tmp/ccUY1dgg.s:1003   .text:0000000000000420 .L0 
     /tmp/ccUY1dgg.s:1005   .text:0000000000000420 .L0 
 src/syscall_cpp.cpp:95     .text:0000000000000424 .L0 
     /tmp/ccUY1dgg.s:1013   .text:0000000000000428 .L0 
     /tmp/ccUY1dgg.s:1015   .text:0000000000000428 .L0 
GAS LISTING /tmp/ccUY1dgg.s 			page 41


 src/syscall_cpp.cpp:97     .text:000000000000042c .L0 
     /tmp/ccUY1dgg.s:1022   .text:0000000000000430 .L0 
     /tmp/ccUY1dgg.s:1024   .text:0000000000000430 .L0 
 src/syscall_cpp.cpp:98     .text:0000000000000434 .L0 
     /tmp/ccUY1dgg.s:1032   .text:0000000000000438 .L0 
 src/syscall_cpp.cpp:99     .text:0000000000000438 .L0 
     /tmp/ccUY1dgg.s:1037   .text:000000000000043c .L0 
 src/syscall_cpp.cpp:106    .text:000000000000043c .L0 
     /tmp/ccUY1dgg.s:1045   .text:0000000000000440 .L0 
     /tmp/ccUY1dgg.s:1046   .text:0000000000000444 .L0 
     /tmp/ccUY1dgg.s:1048   .text:0000000000000448 .L0 
     /tmp/ccUY1dgg.s:1049   .text:0000000000000448 .L0 
     /tmp/ccUY1dgg.s:1051   .text:000000000000044c .L0 
     /tmp/ccUY1dgg.s:1054   .text:0000000000000450 .L0 
     /tmp/ccUY1dgg.s:1056   .text:0000000000000454 .L0 
     /tmp/ccUY1dgg.s:960    .text:00000000000003d8 _ZN6ThreadC1Ev
     /tmp/ccUY1dgg.s:1064   .text:0000000000000454 _ZN9SemaphoreC2Ej
     /tmp/ccUY1dgg.s:1067   .text:0000000000000454 .L0 
     /tmp/ccUY1dgg.s:1069   .text:0000000000000454 .L0 
     /tmp/ccUY1dgg.s:1070   .text:0000000000000458 .L0 
     /tmp/ccUY1dgg.s:1073   .text:0000000000000460 .L0 
     /tmp/ccUY1dgg.s:1074   .text:0000000000000460 .L0 
     /tmp/ccUY1dgg.s:1076   .text:0000000000000464 .L0 
     /tmp/ccUY1dgg.s:1079   .text:0000000000000464 .L0 
     /tmp/ccUY1dgg.s:1082   .text:0000000000000470 .L0 
     /tmp/ccUY1dgg.s:1083   .text:0000000000000470 .L0 
     /tmp/ccUY1dgg.s:1089   .text:000000000000047c .L0 
     /tmp/ccUY1dgg.s:1090   .text:0000000000000480 .L0 
     /tmp/ccUY1dgg.s:1092   .text:0000000000000484 .L0 
     /tmp/ccUY1dgg.s:1093   .text:0000000000000484 .L0 
     /tmp/ccUY1dgg.s:1095   .text:0000000000000488 .L0 
     /tmp/ccUY1dgg.s:1097   .text:000000000000048c .L0 
     /tmp/ccUY1dgg.s:1064   .text:0000000000000454 _ZN9SemaphoreC1Ej
     /tmp/ccUY1dgg.s:1105   .text:000000000000048c _ZN9Semaphore4waitEv
     /tmp/ccUY1dgg.s:1108   .text:000000000000048c .L0 
     /tmp/ccUY1dgg.s:1110   .text:000000000000048c .L0 
     /tmp/ccUY1dgg.s:1111   .text:0000000000000490 .L0 
     /tmp/ccUY1dgg.s:1114   .text:0000000000000498 .L0 
     /tmp/ccUY1dgg.s:1115   .text:0000000000000498 .L0 
     /tmp/ccUY1dgg.s:1117   .text:000000000000049c .L0 
     /tmp/ccUY1dgg.s:1119   .text:000000000000049c .L0 
     /tmp/ccUY1dgg.s:1120   .text:000000000000049c .L0 
     /tmp/ccUY1dgg.s:1125   .text:00000000000004a8 .L0 
     /tmp/ccUY1dgg.s:1126   .text:00000000000004ac .L0 
     /tmp/ccUY1dgg.s:1128   .text:00000000000004b0 .L0 
     /tmp/ccUY1dgg.s:1129   .text:00000000000004b0 .L0 
     /tmp/ccUY1dgg.s:1131   .text:00000000000004b4 .L0 
     /tmp/ccUY1dgg.s:1133   .text:00000000000004b8 .L0 
     /tmp/ccUY1dgg.s:1139   .text:00000000000004b8 _ZN9Semaphore6signalEv
     /tmp/ccUY1dgg.s:1142   .text:00000000000004b8 .L0 
     /tmp/ccUY1dgg.s:1144   .text:00000000000004b8 .L0 
     /tmp/ccUY1dgg.s:1145   .text:00000000000004bc .L0 
     /tmp/ccUY1dgg.s:1148   .text:00000000000004c4 .L0 
     /tmp/ccUY1dgg.s:1149   .text:00000000000004c4 .L0 
     /tmp/ccUY1dgg.s:1151   .text:00000000000004c8 .L0 
     /tmp/ccUY1dgg.s:1153   .text:00000000000004c8 .L0 
     /tmp/ccUY1dgg.s:1154   .text:00000000000004c8 .L0 
GAS LISTING /tmp/ccUY1dgg.s 			page 42


     /tmp/ccUY1dgg.s:1159   .text:00000000000004d4 .L0 
     /tmp/ccUY1dgg.s:1160   .text:00000000000004d8 .L0 
     /tmp/ccUY1dgg.s:1162   .text:00000000000004dc .L0 
     /tmp/ccUY1dgg.s:1163   .text:00000000000004dc .L0 
     /tmp/ccUY1dgg.s:1165   .text:00000000000004e0 .L0 
     /tmp/ccUY1dgg.s:1167   .text:00000000000004e4 .L0 
     /tmp/ccUY1dgg.s:1173   .text:00000000000004e4 _ZN14PeriodicThread9terminateEv
     /tmp/ccUY1dgg.s:1176   .text:00000000000004e4 .L0 
     /tmp/ccUY1dgg.s:1178   .text:00000000000004e4 .L0 
     /tmp/ccUY1dgg.s:1179   .text:00000000000004e8 .L0 
     /tmp/ccUY1dgg.s:1182   .text:00000000000004f0 .L0 
     /tmp/ccUY1dgg.s:1183   .text:00000000000004f0 .L0 
     /tmp/ccUY1dgg.s:1185   .text:00000000000004f4 .L0 
     /tmp/ccUY1dgg.s:1187   .text:00000000000004f4 .L0 
     /tmp/ccUY1dgg.s:1188   .text:00000000000004f4 .L0 
     /tmp/ccUY1dgg.s:1191   .text:00000000000004fc .L0 
     /tmp/ccUY1dgg.s:1192   .text:00000000000004fc .L0 
     /tmp/ccUY1dgg.s:1195   .text:0000000000000504 .L0 
     /tmp/ccUY1dgg.s:1196   .text:0000000000000508 .L0 
     /tmp/ccUY1dgg.s:1198   .text:000000000000050c .L0 
     /tmp/ccUY1dgg.s:1199   .text:000000000000050c .L0 
     /tmp/ccUY1dgg.s:1201   .text:0000000000000510 .L0 
     /tmp/ccUY1dgg.s:1203   .text:0000000000000514 .L0 
     /tmp/ccUY1dgg.s:1209   .text:0000000000000514 _ZN14PeriodicThreadC2Em
     /tmp/ccUY1dgg.s:1212   .text:0000000000000514 .L0 
     /tmp/ccUY1dgg.s:1214   .text:0000000000000514 .L0 
     /tmp/ccUY1dgg.s:1215   .text:0000000000000518 .L0 
     /tmp/ccUY1dgg.s:1220   .text:0000000000000528 .L0 
     /tmp/ccUY1dgg.s:1221   .text:0000000000000528 .L0 
     /tmp/ccUY1dgg.s:1222   .text:0000000000000528 .L0 
     /tmp/ccUY1dgg.s:1223   .text:0000000000000528 .L0 
     /tmp/ccUY1dgg.s:1225   .text:000000000000052c .L0 
     /tmp/ccUY1dgg.s:1230   .text:0000000000000534 .L0 
     /tmp/ccUY1dgg.s:1237   .text:000000000000054c .L0 
     /tmp/ccUY1dgg.s:1238   .text:000000000000054c .L0 
     /tmp/ccUY1dgg.s:1239   .text:0000000000000550 .L0 
     /tmp/ccUY1dgg.s:1241   .text:0000000000000554 .L0 
     /tmp/ccUY1dgg.s:1242   .text:0000000000000554 .L0 
     /tmp/ccUY1dgg.s:1244   .text:0000000000000558 .L0 
     /tmp/ccUY1dgg.s:1247   .text:000000000000055c .L0 
     /tmp/ccUY1dgg.s:1250   .text:0000000000000560 .L0 
     /tmp/ccUY1dgg.s:1252   .text:0000000000000564 .L0 
     /tmp/ccUY1dgg.s:1209   .text:0000000000000514 _ZN14PeriodicThreadC1Em
     /tmp/ccUY1dgg.s:1260   .text:0000000000000564 _ZN7Console4getcEv
     /tmp/ccUY1dgg.s:1263   .text:0000000000000564 .L0 
     /tmp/ccUY1dgg.s:1264   .text:0000000000000564 .L0 
     /tmp/ccUY1dgg.s:1265   .text:0000000000000568 .L0 
     /tmp/ccUY1dgg.s:1268   .text:0000000000000570 .L0 
     /tmp/ccUY1dgg.s:1269   .text:0000000000000570 .L0 
     /tmp/ccUY1dgg.s:1271   .text:0000000000000574 .L0 
     /tmp/ccUY1dgg.s:1273   .text:0000000000000574 .L0 
     /tmp/ccUY1dgg.s:1274   .text:0000000000000574 .L0 
     /tmp/ccUY1dgg.s:1277   .text:000000000000057c .L0 
     /tmp/ccUY1dgg.s:1278   .text:0000000000000580 .L0 
     /tmp/ccUY1dgg.s:1280   .text:0000000000000584 .L0 
     /tmp/ccUY1dgg.s:1281   .text:0000000000000584 .L0 
     /tmp/ccUY1dgg.s:1283   .text:0000000000000588 .L0 
GAS LISTING /tmp/ccUY1dgg.s 			page 43


     /tmp/ccUY1dgg.s:1285   .text:000000000000058c .L0 
     /tmp/ccUY1dgg.s:1291   .text:000000000000058c _ZN7Console4putcEc
     /tmp/ccUY1dgg.s:1294   .text:000000000000058c .L0 
     /tmp/ccUY1dgg.s:1296   .text:000000000000058c .L0 
     /tmp/ccUY1dgg.s:1297   .text:0000000000000590 .L0 
     /tmp/ccUY1dgg.s:1300   .text:0000000000000598 .L0 
     /tmp/ccUY1dgg.s:1301   .text:0000000000000598 .L0 
     /tmp/ccUY1dgg.s:1303   .text:000000000000059c .L0 
     /tmp/ccUY1dgg.s:1305   .text:000000000000059c .L0 
     /tmp/ccUY1dgg.s:1306   .text:000000000000059c .L0 
     /tmp/ccUY1dgg.s:1309   .text:00000000000005a4 .L0 
     /tmp/ccUY1dgg.s:1310   .text:00000000000005a8 .L0 
     /tmp/ccUY1dgg.s:1312   .text:00000000000005ac .L0 
     /tmp/ccUY1dgg.s:1313   .text:00000000000005ac .L0 
     /tmp/ccUY1dgg.s:1315   .text:00000000000005b0 .L0 
     /tmp/ccUY1dgg.s:1317   .text:00000000000005b4 .L0 
     /tmp/ccUY1dgg.s:32     .text._ZN6Thread3runEv:0000000000000018 .L0 
     /tmp/ccUY1dgg.s:57     .text._ZN14PeriodicThread18periodicActivationEv:0000000000000018 .L0 
     /tmp/ccUY1dgg.s:1358   .text:00000000000005b4 .L0 
     /tmp/ccUY1dgg.s:261    .text._ZN14PeriodicThreadD2Ev:0000000000000034 .L0 
     /tmp/ccUY1dgg.s:542    .text._ZN14PeriodicThreadD0Ev:000000000000004c .L0 
     /tmp/ccUY1dgg.s:123    .text:000000000000004c .L0 
     /tmp/ccUY1dgg.s:282    .text:00000000000000c0 .L0 
     /tmp/ccUY1dgg.s:611    .text:0000000000000230 .L0 
     /tmp/ccUY1dgg.s:623    .text:0000000000000244 .L0 
     /tmp/ccUY1dgg.s:978    .text:00000000000003f0 .L0 
     /tmp/ccUY1dgg.s:983    .text:00000000000003fc .L0 
     /tmp/ccUY1dgg.s:1079   .text:0000000000000464 .L0 
     /tmp/ccUY1dgg.s:1232   .text:000000000000053c .L0 
     /tmp/ccUY1dgg.s:95     .text:0000000000000030 .L8
     /tmp/ccUY1dgg.s:198    .text:000000000000009c .L11
     /tmp/ccUY1dgg.s:187    .text:0000000000000090 .L13
     /tmp/ccUY1dgg.s:151    .text:0000000000000070 .L14
     /tmp/ccUY1dgg.s:693    .text:0000000000000298 .L37
     /tmp/ccUY1dgg.s:633    .text:0000000000000260 .L36
     /tmp/ccUY1dgg.s:769    .text:00000000000002d8 .L41
     /tmp/ccUY1dgg.s:776    .text:00000000000002e0 .L42
     /tmp/ccUY1dgg.s:759    .text:00000000000002cc .L40
     /tmp/ccUY1dgg.s:819    .text:0000000000000318 .L47
     /tmp/ccUY1dgg.s:937    .text:00000000000003bc .L55
     /tmp/ccUY1dgg.s:909    .text:0000000000000388 .L56
     /tmp/ccUY1dgg.s:243    .text._ZN14PeriodicThreadD2Ev:0000000000000010 .L0 
     /tmp/ccUY1dgg.s:519    .text._ZN14PeriodicThreadD0Ev:0000000000000018 .L0 
     /tmp/ccUY1dgg.s:3825   .debug_abbrev:0000000000000000 .Ldebug_abbrev0
     /tmp/ccUY1dgg.s:6200   .debug_str:0000000000000a67 .LASF218
     /tmp/ccUY1dgg.s:6008   .debug_str:00000000000004c9 .LASF219
     /tmp/ccUY1dgg.s:6148   .debug_str:00000000000008eb .LASF220
     /tmp/ccUY1dgg.s:5818   .debug_ranges:0000000000000000 .Ldebug_ranges0
     /tmp/ccUY1dgg.s:5838   .debug_line:0000000000000000 .Ldebug_line0
     /tmp/ccUY1dgg.s:6116   .debug_str:00000000000007f8 .LASF3
     /tmp/ccUY1dgg.s:5994   .debug_str:0000000000000466 .LASF0
     /tmp/ccUY1dgg.s:6026   .debug_str:000000000000054b .LASF1
     /tmp/ccUY1dgg.s:6132   .debug_str:000000000000088a .LASF2
     /tmp/ccUY1dgg.s:6142   .debug_str:00000000000008c4 .LASF4
     /tmp/ccUY1dgg.s:6010   .debug_str:00000000000004dd .LASF5
     /tmp/ccUY1dgg.s:5856   .debug_str:0000000000000092 .LASF6
     /tmp/ccUY1dgg.s:6094   .debug_str:000000000000074c .LASF7
GAS LISTING /tmp/ccUY1dgg.s 			page 44


     /tmp/ccUY1dgg.s:6090   .debug_str:0000000000000729 .LASF8
     /tmp/ccUY1dgg.s:6018   .debug_str:000000000000051b .LASF9
     /tmp/ccUY1dgg.s:5964   .debug_str:000000000000037e .LASF10
     /tmp/ccUY1dgg.s:5976   .debug_str:00000000000003e3 .LASF11
     /tmp/ccUY1dgg.s:5898   .debug_str:00000000000001c5 .LASF12
     /tmp/ccUY1dgg.s:5956   .debug_str:000000000000034d .LASF13
     /tmp/ccUY1dgg.s:5914   .debug_str:000000000000022f .LASF14
     /tmp/ccUY1dgg.s:5896   .debug_str:00000000000001b5 .LASF15
     /tmp/ccUY1dgg.s:6174   .debug_str:00000000000009c3 .LASF16
     /tmp/ccUY1dgg.s:5944   .debug_str:00000000000002ee .LASF17
     /tmp/ccUY1dgg.s:6164   .debug_str:0000000000000979 .LASF18
     /tmp/ccUY1dgg.s:6246   .debug_str:0000000000000c8e .LASF19
     /tmp/ccUY1dgg.s:6154   .debug_str:0000000000000926 .LASF221
     /tmp/ccUY1dgg.s:6100   .debug_str:000000000000077c .LASF20
     /tmp/ccUY1dgg.s:5928   .debug_str:00000000000002a9 .LASF21
     /tmp/ccUY1dgg.s:6044   .debug_str:00000000000005df .LASF22
     /tmp/ccUY1dgg.s:5858   .debug_str:0000000000000099 .LASF23
     /tmp/ccUY1dgg.s:5906   .debug_str:00000000000001f5 .LASF24
     /tmp/ccUY1dgg.s:5888   .debug_str:000000000000017c .LASF25
     /tmp/ccUY1dgg.s:6180   .debug_str:00000000000009ee .LASF110
     /tmp/ccUY1dgg.s:6172   .debug_str:00000000000009b6 .LASF26
     /tmp/ccUY1dgg.s:6260   .debug_str:0000000000000d0f .LASF28
     /tmp/ccUY1dgg.s:6082   .debug_str:00000000000006fb .LASF222
     /tmp/ccUY1dgg.s:5902   .debug_str:00000000000001d9 .LASF27
     /tmp/ccUY1dgg.s:5978   .debug_str:00000000000003f1 .LASF29
     /tmp/ccUY1dgg.s:5996   .debug_str:0000000000000473 .LASF30
     /tmp/ccUY1dgg.s:6042   .debug_str:00000000000005cb .LASF32
     /tmp/ccUY1dgg.s:6034   .debug_str:000000000000057f .LASF31
     /tmp/ccUY1dgg.s:6112   .debug_str:00000000000007d0 .LASF33
     /tmp/ccUY1dgg.s:6104   .debug_str:000000000000079f .LASF34
     /tmp/ccUY1dgg.s:6046   .debug_str:00000000000005e7 .LASF35
     /tmp/ccUY1dgg.s:6258   .debug_str:0000000000000cf7 .LASF36
     /tmp/ccUY1dgg.s:6262   .debug_str:0000000000000d31 .LASF37
     /tmp/ccUY1dgg.s:5912   .debug_str:0000000000000220 .LASF38
     /tmp/ccUY1dgg.s:6230   .debug_str:0000000000000c1a .LASF39
     /tmp/ccUY1dgg.s:6086   .debug_str:000000000000070b .LASF40
     /tmp/ccUY1dgg.s:6130   .debug_str:000000000000086b .LASF41
     /tmp/ccUY1dgg.s:5966   .debug_str:000000000000038e .LASF42
     /tmp/ccUY1dgg.s:6160   .debug_str:0000000000000950 .LASF44
     /tmp/ccUY1dgg.s:5842   .debug_str:000000000000002a .LASF46
     /tmp/ccUY1dgg.s:6188   .debug_str:0000000000000a0b .LASF48
     /tmp/ccUY1dgg.s:6228   .debug_str:0000000000000c06 .LASF43
     /tmp/ccUY1dgg.s:6078   .debug_str:00000000000006d5 .LASF45
     /tmp/ccUY1dgg.s:6226   .debug_str:0000000000000bfb .LASF47
     /tmp/ccUY1dgg.s:5958   .debug_str:000000000000035c .LASF49
     /tmp/ccUY1dgg.s:6248   .debug_str:0000000000000c97 .LASF50
     /tmp/ccUY1dgg.s:6146   .debug_str:00000000000008d0 .LASF51
     /tmp/ccUY1dgg.s:5936   .debug_str:00000000000002c3 .LASF52
     /tmp/ccUY1dgg.s:5910   .debug_str:000000000000020d .LASF54
     /tmp/ccUY1dgg.s:6238   .debug_str:0000000000000c64 .LASF53
     /tmp/ccUY1dgg.s:5864   .debug_str:00000000000000d0 .LASF55
     /tmp/ccUY1dgg.s:5970   .debug_str:00000000000003b9 .LASF56
     /tmp/ccUY1dgg.s:6118   .debug_str:00000000000007fd .LASF57
     /tmp/ccUY1dgg.s:6286   .debug_str:0000000000000de9 .LASF58
     /tmp/ccUY1dgg.s:5972   .debug_str:00000000000003c4 .LASF59
     /tmp/ccUY1dgg.s:5846   .debug_str:000000000000003c .LASF60
     /tmp/ccUY1dgg.s:6074   .debug_str:00000000000006c0 .LASF61
GAS LISTING /tmp/ccUY1dgg.s 			page 45


     /tmp/ccUY1dgg.s:6272   .debug_str:0000000000000d81 .LASF223
     /tmp/ccUY1dgg.s:6220   .debug_str:0000000000000bc9 .LASF62
     /tmp/ccUY1dgg.s:5894   .debug_str:00000000000001a6 .LASF63
     /tmp/ccUY1dgg.s:6280   .debug_str:0000000000000dc1 .LASF64
     /tmp/ccUY1dgg.s:6234   .debug_str:0000000000000c47 .LASF65
     /tmp/ccUY1dgg.s:6206   .debug_str:0000000000000b55 .LASF66
     /tmp/ccUY1dgg.s:6198   .debug_str:0000000000000a57 .LASF67
     /tmp/ccUY1dgg.s:6088   .debug_str:000000000000071d .LASF68
     /tmp/ccUY1dgg.s:5950   .debug_str:000000000000032b .LASF69
     /tmp/ccUY1dgg.s:6140   .debug_str:00000000000008b6 .LASF70
     /tmp/ccUY1dgg.s:6244   .debug_str:0000000000000c87 .LASF71
     /tmp/ccUY1dgg.s:6062   .debug_str:0000000000000663 .LASF72
     /tmp/ccUY1dgg.s:6288   .debug_str:0000000000000df6 .LASF73
     /tmp/ccUY1dgg.s:6196   .debug_str:0000000000000a4f .LASF74
     /tmp/ccUY1dgg.s:5892   .debug_str:0000000000000195 .LASF75
     /tmp/ccUY1dgg.s:5922   .debug_str:000000000000026e .LASF104
     /tmp/ccUY1dgg.s:5850   .debug_str:0000000000000054 .LASF106
     /tmp/ccUY1dgg.s:6144   .debug_str:00000000000008cb .LASF116
     /tmp/ccUY1dgg.s:5852   .debug_str:000000000000007c .LASF224
     /tmp/ccUY1dgg.s:6270   .debug_str:0000000000000d7b .LASF76
     /tmp/ccUY1dgg.s:6166   .debug_str:000000000000098f .LASF77
     /tmp/ccUY1dgg.s:6024   .debug_str:0000000000000543 .LASF78
     /tmp/ccUY1dgg.s:6072   .debug_str:00000000000006ad .LASF79
     /tmp/ccUY1dgg.s:5938   .debug_str:00000000000002cc .LASF80
     /tmp/ccUY1dgg.s:5940   .debug_str:00000000000002d1 .LASF81
     /tmp/ccUY1dgg.s:6178   .debug_str:00000000000009e7 .LASF82
     /tmp/ccUY1dgg.s:5876   .debug_str:000000000000012e .LASF83
     /tmp/ccUY1dgg.s:5932   .debug_str:00000000000002b5 .LASF84
     /tmp/ccUY1dgg.s:6064   .debug_str:000000000000066f .LASF85
     /tmp/ccUY1dgg.s:5942   .debug_str:00000000000002e1 .LASF86
     /tmp/ccUY1dgg.s:6232   .debug_str:0000000000000c39 .LASF87
     /tmp/ccUY1dgg.s:6084   .debug_str:0000000000000700 .LASF88
     /tmp/ccUY1dgg.s:6216   .debug_str:0000000000000b9a .LASF89
     /tmp/ccUY1dgg.s:6210   .debug_str:0000000000000b74 .LASF90
     /tmp/ccUY1dgg.s:5870   .debug_str:00000000000000fd .LASF91
     /tmp/ccUY1dgg.s:5992   .debug_str:0000000000000460 .LASF92
     /tmp/ccUY1dgg.s:6192   .debug_str:0000000000000a28 .LASF93
     /tmp/ccUY1dgg.s:5848   .debug_str:000000000000004c .LASF94
     /tmp/ccUY1dgg.s:5860   .debug_str:00000000000000a1 .LASF95
     /tmp/ccUY1dgg.s:6256   .debug_str:0000000000000cea .LASF96
     /tmp/ccUY1dgg.s:6224   .debug_str:0000000000000beb .LASF97
     /tmp/ccUY1dgg.s:6136   .debug_str:00000000000008a7 .LASF98
     /tmp/ccUY1dgg.s:6020   .debug_str:000000000000052e .LASF99
     /tmp/ccUY1dgg.s:6076   .debug_str:00000000000006cd .LASF100
     /tmp/ccUY1dgg.s:6048   .debug_str:00000000000005f9 .LASF101
     /tmp/ccUY1dgg.s:6268   .debug_str:0000000000000d76 .LASF102
     /tmp/ccUY1dgg.s:5926   .debug_str:0000000000000296 .LASF103
     /tmp/ccUY1dgg.s:6052   .debug_str:000000000000060d .LASF105
     /tmp/ccUY1dgg.s:6266   .debug_str:0000000000000d63 .LASF107
     /tmp/ccUY1dgg.s:6184   .debug_str:00000000000009fc .LASF108
     /tmp/ccUY1dgg.s:6066   .debug_str:0000000000000685 .LASF109
     /tmp/ccUY1dgg.s:5930   .debug_str:00000000000002b0 .LASF111
     /tmp/ccUY1dgg.s:5962   .debug_str:0000000000000379 .LASF112
     /tmp/ccUY1dgg.s:5900   .debug_str:00000000000001d4 .LASF113
     /tmp/ccUY1dgg.s:5948   .debug_str:000000000000030d .LASF114
     /tmp/ccUY1dgg.s:5924   .debug_str:000000000000027c .LASF115
     /tmp/ccUY1dgg.s:6102   .debug_str:0000000000000784 .LASF161
GAS LISTING /tmp/ccUY1dgg.s 			page 46


     /tmp/ccUY1dgg.s:5872   .debug_str:0000000000000115 .LASF117
     /tmp/ccUY1dgg.s:6022   .debug_str:000000000000053e .LASF118
     /tmp/ccUY1dgg.s:5882   .debug_str:000000000000014c .LASF119
     /tmp/ccUY1dgg.s:6176   .debug_str:00000000000009cf .LASF120
     /tmp/ccUY1dgg.s:6218   .debug_str:0000000000000bb1 .LASF147
     /tmp/ccUY1dgg.s:6012   .debug_str:00000000000004ef .LASF121
     /tmp/ccUY1dgg.s:5918   .debug_str:0000000000000254 .LASF122
     /tmp/ccUY1dgg.s:6000   .debug_str:000000000000048e .LASF123
     /tmp/ccUY1dgg.s:5862   .debug_str:00000000000000b4 .LASF124
     /tmp/ccUY1dgg.s:6028   .debug_str:000000000000055e .LASF125
     /tmp/ccUY1dgg.s:6060   .debug_str:0000000000000644 .LASF126
     /tmp/ccUY1dgg.s:5886   .debug_str:0000000000000173 .LASF127
     /tmp/ccUY1dgg.s:6058   .debug_str:0000000000000628 .LASF128
     /tmp/ccUY1dgg.s:5844   .debug_str:0000000000000035 .LASF129
     /tmp/ccUY1dgg.s:6038   .debug_str:000000000000059e .LASF130
     /tmp/ccUY1dgg.s:5916   .debug_str:000000000000023f .LASF131
     /tmp/ccUY1dgg.s:6250   .debug_str:0000000000000ca5 .LASF132
     /tmp/ccUY1dgg.s:6212   .debug_str:0000000000000b80 .LASF133
     /tmp/ccUY1dgg.s:5908   .debug_str:00000000000001fe .LASF134
     /tmp/ccUY1dgg.s:6222   .debug_str:0000000000000bd1 .LASF135
     /tmp/ccUY1dgg.s:6002   .debug_str:0000000000000496 .LASF136
     /tmp/ccUY1dgg.s:6186   .debug_str:0000000000000a01 .LASF137
     /tmp/ccUY1dgg.s:5968   .debug_str:0000000000000399 .LASF138
     /tmp/ccUY1dgg.s:6016   .debug_str:0000000000000503 .LASF139
     /tmp/ccUY1dgg.s:5974   .debug_str:00000000000003d0 .LASF140
     /tmp/ccUY1dgg.s:5840   .debug_str:0000000000000000 .LASF225
     /tmp/ccUY1dgg.s:6252   .debug_str:0000000000000cbb .LASF157
     /tmp/ccUY1dgg.s:5880   .debug_str:0000000000000145 .LASF141
     /tmp/ccUY1dgg.s:6070   .debug_str:000000000000069d .LASF142
     /tmp/ccUY1dgg.s:6236   .debug_str:0000000000000c4c .LASF226
     /tmp/ccUY1dgg.s:5984   .debug_str:000000000000042f .LASF143
     /tmp/ccUY1dgg.s:5884   .debug_str:0000000000000161 .LASF144
     /tmp/ccUY1dgg.s:6124   .debug_str:000000000000083f .LASF165
     /tmp/ccUY1dgg.s:6292   .debug_str:0000000000000e0e .LASF145
     /tmp/ccUY1dgg.s:6158   .debug_str:0000000000000948 .LASF146
     /tmp/ccUY1dgg.s:5952   .debug_str:0000000000000338 .LASF148
     /tmp/ccUY1dgg.s:6278   .debug_str:0000000000000dbb .LASF149
     /tmp/ccUY1dgg.s:6032   .debug_str:000000000000056c .LASF150
     /tmp/ccUY1dgg.s:6190   .debug_str:0000000000000a23 .LASF151
     /tmp/ccUY1dgg.s:6098   .debug_str:000000000000076a .LASF152
     /tmp/ccUY1dgg.s:6274   .debug_str:0000000000000d97 .LASF153
     /tmp/ccUY1dgg.s:6030   .debug_str:0000000000000566 .LASF154
     /tmp/ccUY1dgg.s:6202   .debug_str:0000000000000b2b .LASF155
     /tmp/ccUY1dgg.s:6004   .debug_str:00000000000004b1 .LASF156
     /tmp/ccUY1dgg.s:5988   .debug_str:000000000000043f .LASF158
     /tmp/ccUY1dgg.s:5946   .debug_str:0000000000000304 .LASF159
     /tmp/ccUY1dgg.s:5934   .debug_str:00000000000002be .LASF160
     /tmp/ccUY1dgg.s:6194   .debug_str:0000000000000a39 .LASF162
     /tmp/ccUY1dgg.s:6168   .debug_str:0000000000000994 .LASF163
     /tmp/ccUY1dgg.s:6122   .debug_str:000000000000082a .LASF164
     /tmp/ccUY1dgg.s:6282   .debug_str:0000000000000dc7 .LASF166
     /tmp/ccUY1dgg.s:6240   .debug_str:0000000000000c6c .LASF167
     /tmp/ccUY1dgg.s:6108   .debug_str:00000000000007bb .LASF168
     /tmp/ccUY1dgg.s:6150   .debug_str:0000000000000909 .LASF169
     /tmp/ccUY1dgg.s:6208   .debug_str:0000000000000b5f .LASF170
     /tmp/ccUY1dgg.s:6096   .debug_str:0000000000000753 .LASF171
     /tmp/ccUY1dgg.s:5990   .debug_str:0000000000000450 .LASF227
GAS LISTING /tmp/ccUY1dgg.s 			page 47


     /tmp/ccUY1dgg.s:5960   .debug_str:0000000000000374 .LASF172
     /tmp/ccUY1dgg.s:5854   .debug_str:0000000000000088 .LASF173
     /tmp/ccUY1dgg.s:6294   .debug_str:0000000000000e25 .LASF174
     /tmp/ccUY1dgg.s:500    .text._ZN14PeriodicThreadD0Ev:0000000000000000 .LFB84
     /tmp/ccUY1dgg.s:540    .text._ZN14PeriodicThreadD0Ev:000000000000004c .LFE84
     /tmp/ccUY1dgg.s:5262   .debug_loc:0000000000000000 .LLST11
     /tmp/ccUY1dgg.s:516    .text._ZN14PeriodicThreadD0Ev:0000000000000018 .LBB46
     /tmp/ccUY1dgg.s:524    .text._ZN14PeriodicThreadD0Ev:000000000000002c .LBE46
     /tmp/ccUY1dgg.s:5280   .debug_loc:000000000000004c .LLST12
     /tmp/ccUY1dgg.s:522    .text._ZN14PeriodicThreadD0Ev:000000000000002c .LVL33
     /tmp/ccUY1dgg.s:527    .text._ZN14PeriodicThreadD0Ev:0000000000000038 .LVL34
     /tmp/ccUY1dgg.s:6128   .debug_str:0000000000000853 .LASF175
     /tmp/ccUY1dgg.s:229    .text._ZN14PeriodicThreadD2Ev:0000000000000000 .LFB82
     /tmp/ccUY1dgg.s:257    .text._ZN14PeriodicThreadD2Ev:0000000000000034 .LFE82
     /tmp/ccUY1dgg.s:5291   .debug_loc:0000000000000082 .LLST4
     /tmp/ccUY1dgg.s:246    .text._ZN14PeriodicThreadD2Ev:0000000000000024 .LVL13
     /tmp/ccUY1dgg.s:1292   .text:000000000000058c .LFB80
     /tmp/ccUY1dgg.s:1318   .text:00000000000005b4 .LFE80
     /tmp/ccUY1dgg.s:5305   .debug_loc:00000000000000bb .LLST32
     /tmp/ccUY1dgg.s:1307   .text:00000000000005a4 .LVL92
     /tmp/ccUY1dgg.s:1261   .text:0000000000000564 .LFB79
     /tmp/ccUY1dgg.s:1286   .text:000000000000058c .LFE79
     /tmp/ccUY1dgg.s:1275   .text:000000000000057c .LVL90
     /tmp/ccUY1dgg.s:893    .text:0000000000000370 .LFB78
     /tmp/ccUY1dgg.s:955    .text:00000000000003d8 .LFE78
     /tmp/ccUY1dgg.s:5319   .debug_loc:00000000000000f4 .LLST22
     /tmp/ccUY1dgg.s:924    .text:00000000000003a4 .LVL64
     /tmp/ccUY1dgg.s:934    .text:00000000000003b8 .LVL65
     /tmp/ccUY1dgg.s:941    .text:00000000000003c4 .LVL66
     /tmp/ccUY1dgg.s:6170   .debug_str:000000000000099e .LASF176
     /tmp/ccUY1dgg.s:1210   .text:0000000000000514 .LFB76
     /tmp/ccUY1dgg.s:1253   .text:0000000000000564 .LFE76
     /tmp/ccUY1dgg.s:5337   .debug_loc:0000000000000140 .LLST30
     /tmp/ccUY1dgg.s:5355   .debug_loc:000000000000018c .LLST31
     /tmp/ccUY1dgg.s:1231   .text:000000000000053c .LVL87
     /tmp/ccUY1dgg.s:1174   .text:00000000000004e4 .LFB74
     /tmp/ccUY1dgg.s:1204   .text:0000000000000514 .LFE74
     /tmp/ccUY1dgg.s:5374   .debug_loc:00000000000001d9 .LLST29
     /tmp/ccUY1dgg.s:1193   .text:0000000000000504 .LVL85
     /tmp/ccUY1dgg.s:1140   .text:00000000000004b8 .LFB73
     /tmp/ccUY1dgg.s:1168   .text:00000000000004e4 .LFE73
     /tmp/ccUY1dgg.s:5388   .debug_loc:0000000000000212 .LLST28
     /tmp/ccUY1dgg.s:1157   .text:00000000000004d4 .LVL83
     /tmp/ccUY1dgg.s:1106   .text:000000000000048c .LFB72
     /tmp/ccUY1dgg.s:1134   .text:00000000000004b8 .LFE72
     /tmp/ccUY1dgg.s:5402   .debug_loc:000000000000024b .LLST27
     /tmp/ccUY1dgg.s:1123   .text:00000000000004a8 .LVL80
     /tmp/ccUY1dgg.s:6036   .debug_str:000000000000058c .LASF177
     /tmp/ccUY1dgg.s:421    .text:0000000000000160 .LFB71
     /tmp/ccUY1dgg.s:454    .text:00000000000001a0 .LFE71
     /tmp/ccUY1dgg.s:5416   .debug_loc:0000000000000284 .LLST9
     /tmp/ccUY1dgg.s:438    .text:0000000000000180 .LVL24
     /tmp/ccUY1dgg.s:441    .text:000000000000018c .LVL25
     /tmp/ccUY1dgg.s:5866   .debug_str:00000000000000e2 .LASF178
     /tmp/ccUY1dgg.s:266    .text:00000000000000b0 .LFB69
     /tmp/ccUY1dgg.s:301    .text:00000000000000e8 .LFE69
     /tmp/ccUY1dgg.s:5434   .debug_loc:00000000000002d0 .LLST5
GAS LISTING /tmp/ccUY1dgg.s 			page 48


     /tmp/ccUY1dgg.s:289    .text:00000000000000d8 .LVL16
     /tmp/ccUY1dgg.s:5878   .debug_str:0000000000000140 .LASF179
     /tmp/ccUY1dgg.s:5904   .debug_str:00000000000001e3 .LASF180
     /tmp/ccUY1dgg.s:1065   .text:0000000000000454 .LFB66
     /tmp/ccUY1dgg.s:1098   .text:000000000000048c .LFE66
     /tmp/ccUY1dgg.s:5448   .debug_loc:0000000000000309 .LLST25
     /tmp/ccUY1dgg.s:5468   .debug_loc:0000000000000357 .LLST26
     /tmp/ccUY1dgg.s:1086   .text:000000000000047c .LVL77
     /tmp/ccUY1dgg.s:62     .text:0000000000000000 .LFB64
     /tmp/ccUY1dgg.s:98     .text:0000000000000034 .LFE64
     /tmp/ccUY1dgg.s:6126   .debug_str:000000000000084c .LASF181
     /tmp/ccUY1dgg.s:5482   .debug_loc:0000000000000390 .LLST0
     /tmp/ccUY1dgg.s:84     .text:0000000000000020 .LVL3
     /tmp/ccUY1dgg.s:6134   .debug_str:0000000000000898 .LASF182
     /tmp/ccUY1dgg.s:961    .text:00000000000003d8 .LFB62
     /tmp/ccUY1dgg.s:1057   .text:0000000000000454 .LFE62
     /tmp/ccUY1dgg.s:5500   .debug_loc:00000000000003dc .LLST23
     /tmp/ccUY1dgg.s:993    .text:0000000000000418 .LVL70
     /tmp/ccUY1dgg.s:980    .text:00000000000003fc .LBB55
     /tmp/ccUY1dgg.s:1042   .text:0000000000000440 .LBE55
     /tmp/ccUY1dgg.s:5524   .debug_loc:000000000000043d .LLST24
     /tmp/ccUY1dgg.s:859    .text:0000000000000344 .LFB60
     /tmp/ccUY1dgg.s:887    .text:0000000000000370 .LFE60
     /tmp/ccUY1dgg.s:5531   .debug_loc:0000000000000460 .LLST21
     /tmp/ccUY1dgg.s:874    .text:000000000000035c .LVL61
     /tmp/ccUY1dgg.s:828    .text:000000000000031c .LFB59
     /tmp/ccUY1dgg.s:853    .text:0000000000000344 .LFE59
     /tmp/ccUY1dgg.s:842    .text:0000000000000334 .LVL59
     /tmp/ccUY1dgg.s:787    .text:00000000000002e8 .LFB58
     /tmp/ccUY1dgg.s:822    .text:000000000000031c .LFE58
     /tmp/ccUY1dgg.s:5545   .debug_loc:0000000000000499 .LLST20
     /tmp/ccUY1dgg.s:809    .text:0000000000000308 .LVL58
     /tmp/ccUY1dgg.s:711    .text:00000000000002a0 .LFB57
     /tmp/ccUY1dgg.s:781    .text:00000000000002e8 .LFE57
     /tmp/ccUY1dgg.s:5559   .debug_loc:00000000000004d2 .LLST18
     /tmp/ccUY1dgg.s:727    .text:00000000000002b4 .LBB52
     /tmp/ccUY1dgg.s:735    .text:00000000000002b8 .LBE52
     /tmp/ccUY1dgg.s:5595   .debug_loc:000000000000055d .LLST19
     /tmp/ccUY1dgg.s:6040   .debug_str:00000000000005bc .LASF183
     /tmp/ccUY1dgg.s:460    .text:00000000000001a0 .LFB56
     /tmp/ccUY1dgg.s:493    .text:00000000000001e0 .LFE56
     /tmp/ccUY1dgg.s:5602   .debug_loc:0000000000000580 .LLST10
     /tmp/ccUY1dgg.s:477    .text:00000000000001c0 .LVL28
     /tmp/ccUY1dgg.s:480    .text:00000000000001cc .LVL29
     /tmp/ccUY1dgg.s:6264   .debug_str:0000000000000d54 .LASF184
     /tmp/ccUY1dgg.s:104    .text:0000000000000034 .LFB54
     /tmp/ccUY1dgg.s:212    .text:00000000000000b0 .LFE54
     /tmp/ccUY1dgg.s:5620   .debug_loc:00000000000005cc .LLST1
     /tmp/ccUY1dgg.s:152    .text:0000000000000070 .LBB36
     /tmp/ccUY1dgg.s:193    .text:0000000000000090 .LBE36
     /tmp/ccUY1dgg.s:153    .text:0000000000000070 .LBB37
     /tmp/ccUY1dgg.s:192    .text:0000000000000090 .LBE37
     /tmp/ccUY1dgg.s:158    .text:0000000000000070 .LBB39
     /tmp/ccUY1dgg.s:164    .text:0000000000000074 .LBE39
     /tmp/ccUY1dgg.s:167    .text:0000000000000078 .LBB41
     /tmp/ccUY1dgg.s:190    .text:0000000000000090 .LBE41
     /tmp/ccUY1dgg.s:5638   .debug_loc:0000000000000618 .LLST2
GAS LISTING /tmp/ccUY1dgg.s 			page 49


     /tmp/ccUY1dgg.s:179    .text:0000000000000084 .LBB42
     /tmp/ccUY1dgg.s:189    .text:0000000000000090 .LBE42
     /tmp/ccUY1dgg.s:5645   .debug_loc:000000000000063b .LLST3
     /tmp/ccUY1dgg.s:184    .text:000000000000008c .LVL10
     /tmp/ccUY1dgg.s:197    .text:000000000000009c .LVL11
     /tmp/ccUY1dgg.s:6056   .debug_str:000000000000061c .LASF194
     /tmp/ccUY1dgg.s:6204   .debug_str:0000000000000b3e .LASF185
     /tmp/ccUY1dgg.s:588    .text:0000000000000208 .LFB48
     /tmp/ccUY1dgg.s:703    .text:00000000000002a0 .LFE48
     /tmp/ccUY1dgg.s:5652   .debug_loc:000000000000065e .LLST14
     /tmp/ccUY1dgg.s:5680   .debug_loc:00000000000006d2 .LLST15
     /tmp/ccUY1dgg.s:5702   .debug_loc:0000000000000731 .LLST16
     /tmp/ccUY1dgg.s:630    .text:000000000000025c .LVL41
     /tmp/ccUY1dgg.s:5724   .debug_loc:0000000000000790 .LLST17
     /tmp/ccUY1dgg.s:6162   .debug_str:0000000000000966 .LASF186
     /tmp/ccUY1dgg.s:6014   .debug_str:00000000000004fc .LASF187
     /tmp/ccUY1dgg.s:547    .text:00000000000001e0 .LFB46
     /tmp/ccUY1dgg.s:575    .text:0000000000000208 .LFE46
     /tmp/ccUY1dgg.s:5741   .debug_loc:00000000000007db .LLST13
     /tmp/ccUY1dgg.s:564    .text:00000000000001f8 .LVL37
     /tmp/ccUY1dgg.s:6080   .debug_str:00000000000006f4 .LASF188
     /tmp/ccUY1dgg.s:380    .text:0000000000000138 .LFB45
     /tmp/ccUY1dgg.s:408    .text:0000000000000160 .LFE45
     /tmp/ccUY1dgg.s:5755   .debug_loc:0000000000000814 .LLST8
     /tmp/ccUY1dgg.s:397    .text:0000000000000150 .LVL22
     /tmp/ccUY1dgg.s:5890   .debug_str:0000000000000185 .LASF189
     /tmp/ccUY1dgg.s:6182   .debug_str:00000000000009f6 .LASF190
     /tmp/ccUY1dgg.s:348    .text:0000000000000110 .LFB44
     /tmp/ccUY1dgg.s:374    .text:0000000000000138 .LFE44
     /tmp/ccUY1dgg.s:5920   .debug_str:0000000000000269 .LASF191
     /tmp/ccUY1dgg.s:5769   .debug_loc:000000000000084d .LLST7
     /tmp/ccUY1dgg.s:363    .text:0000000000000128 .LVL20
     /tmp/ccUY1dgg.s:5954   .debug_str:0000000000000347 .LASF192
     /tmp/ccUY1dgg.s:316    .text:00000000000000e8 .LFB43
     /tmp/ccUY1dgg.s:342    .text:0000000000000110 .LFE43
     /tmp/ccUY1dgg.s:5783   .debug_loc:0000000000000886 .LLST6
     /tmp/ccUY1dgg.s:331    .text:0000000000000100 .LVL18
     /tmp/ccUY1dgg.s:6138   .debug_str:00000000000008b1 .LASF193
     /tmp/ccUY1dgg.s:6214   .debug_str:0000000000000b85 .LASF195
     /tmp/ccUY1dgg.s:37     .text._ZN14PeriodicThread18periodicActivationEv:0000000000000000 .LFB1
     /tmp/ccUY1dgg.s:55     .text._ZN14PeriodicThread18periodicActivationEv:0000000000000018 .LFE1
     /tmp/ccUY1dgg.s:11     .text._ZN6Thread3runEv:0000000000000000 .LFB0
     /tmp/ccUY1dgg.s:30     .text._ZN6Thread3runEv:0000000000000018 .LFE0
     /tmp/ccUY1dgg.s:6006   .debug_str:00000000000004c0 .LASF196
     /tmp/ccUY1dgg.s:6242   .debug_str:0000000000000c7e .LASF197
     /tmp/ccUY1dgg.s:5998   .debug_str:000000000000047d .LASF198
     /tmp/ccUY1dgg.s:6050   .debug_str:0000000000000601 .LASF199
     /tmp/ccUY1dgg.s:6120   .debug_str:0000000000000815 .LASF200
     /tmp/ccUY1dgg.s:5982   .debug_str:0000000000000424 .LASF201
     /tmp/ccUY1dgg.s:6284   .debug_str:0000000000000dd7 .LASF202
     /tmp/ccUY1dgg.s:6290   .debug_str:0000000000000e05 .LASF203
     /tmp/ccUY1dgg.s:5874   .debug_str:000000000000011b .LASF204
     /tmp/ccUY1dgg.s:6110   .debug_str:00000000000007c6 .LASF205
     /tmp/ccUY1dgg.s:6106   .debug_str:00000000000007a7 .LASF206
     /tmp/ccUY1dgg.s:5868   .debug_str:00000000000000f4 .LASF207
     /tmp/ccUY1dgg.s:5980   .debug_str:0000000000000416 .LASF208
     /tmp/ccUY1dgg.s:6054   .debug_str:0000000000000612 .LASF209
GAS LISTING /tmp/ccUY1dgg.s 			page 50


     /tmp/ccUY1dgg.s:6092   .debug_str:000000000000073c .LASF210
     /tmp/ccUY1dgg.s:6152   .debug_str:000000000000091b .LASF211
     /tmp/ccUY1dgg.s:6254   .debug_str:0000000000000cd5 .LASF212
     /tmp/ccUY1dgg.s:6114   .debug_str:00000000000007e8 .LASF213
     /tmp/ccUY1dgg.s:6156   .debug_str:0000000000000933 .LASF214
     /tmp/ccUY1dgg.s:6068   .debug_str:0000000000000691 .LASF215
     /tmp/ccUY1dgg.s:6276   .debug_str:0000000000000dad .LASF216
     /tmp/ccUY1dgg.s:5986   .debug_str:0000000000000436 .LASF217
     /tmp/ccUY1dgg.s:503    .text._ZN14PeriodicThreadD0Ev:0000000000000000 .LVL31
     /tmp/ccUY1dgg.s:535    .text._ZN14PeriodicThreadD0Ev:0000000000000044 .LVL35
     /tmp/ccUY1dgg.s:515    .text._ZN14PeriodicThreadD0Ev:0000000000000018 .LVL32
     /tmp/ccUY1dgg.s:232    .text._ZN14PeriodicThreadD2Ev:0000000000000000 .LVL12
     /tmp/ccUY1dgg.s:1295   .text:000000000000058c .LVL91
     /tmp/ccUY1dgg.s:896    .text:0000000000000370 .LVL62
     /tmp/ccUY1dgg.s:908    .text:0000000000000388 .LVL63
     /tmp/ccUY1dgg.s:950    .text:00000000000003d0 .LVL67
     /tmp/ccUY1dgg.s:1213   .text:0000000000000514 .LVL86
     /tmp/ccUY1dgg.s:1245   .text:0000000000000558 .LVL88
     /tmp/ccUY1dgg.s:1248   .text:000000000000055c .LVL89
     /tmp/ccUY1dgg.s:1177   .text:00000000000004e4 .LVL84
     /tmp/ccUY1dgg.s:1143   .text:00000000000004b8 .LVL81
     /tmp/ccUY1dgg.s:1155   .text:00000000000004cc .LVL82
     /tmp/ccUY1dgg.s:1109   .text:000000000000048c .LVL78
     /tmp/ccUY1dgg.s:1121   .text:00000000000004a0 .LVL79
     /tmp/ccUY1dgg.s:424    .text:0000000000000160 .LVL23
     /tmp/ccUY1dgg.s:449    .text:0000000000000198 .LVL26
     /tmp/ccUY1dgg.s:271    .text:00000000000000b0 .LVL14
     /tmp/ccUY1dgg.s:287    .text:00000000000000d0 .LVL15
     /tmp/ccUY1dgg.s:1068   .text:0000000000000454 .LVL75
     /tmp/ccUY1dgg.s:1084   .text:0000000000000474 .LVL76
     /tmp/ccUY1dgg.s:66     .text:0000000000000000 .LVL2
     /tmp/ccUY1dgg.s:94     .text:0000000000000030 .LVL4
     /tmp/ccUY1dgg.s:964    .text:00000000000003d8 .LVL68
     /tmp/ccUY1dgg.s:991    .text:0000000000000410 .LVL69
     /tmp/ccUY1dgg.s:1025   .text:0000000000000434 .LVL73
     /tmp/ccUY1dgg.s:1052   .text:000000000000044c .LVL74
     /tmp/ccUY1dgg.s:995    .text:000000000000041c .LVL71
     /tmp/ccUY1dgg.s:1006   .text:0000000000000424 .LVL72
     /tmp/ccUY1dgg.s:862    .text:0000000000000344 .LVL60
     /tmp/ccUY1dgg.s:790    .text:00000000000002e8 .LVL56
     /tmp/ccUY1dgg.s:794    .text:00000000000002ec .LVL57
     /tmp/ccUY1dgg.s:714    .text:00000000000002a0 .LVL48
     /tmp/ccUY1dgg.s:744    .text:00000000000002c0 .LVL51
     /tmp/ccUY1dgg.s:768    .text:00000000000002d8 .LVL52
     /tmp/ccUY1dgg.s:773    .text:00000000000002dc .LVL53
     /tmp/ccUY1dgg.s:775    .text:00000000000002e0 .LVL54
     /tmp/ccUY1dgg.s:778    .text:00000000000002e4 .LVL55
     /tmp/ccUY1dgg.s:726    .text:00000000000002b4 .LVL49
     /tmp/ccUY1dgg.s:733    .text:00000000000002b8 .LVL50
     /tmp/ccUY1dgg.s:463    .text:00000000000001a0 .LVL27
     /tmp/ccUY1dgg.s:488    .text:00000000000001d8 .LVL30
     /tmp/ccUY1dgg.s:109    .text:0000000000000034 .LVL5
     /tmp/ccUY1dgg.s:133    .text:0000000000000060 .LVL6
     /tmp/ccUY1dgg.s:150    .text:0000000000000070 .LVL7
     /tmp/ccUY1dgg.s:169    .text:0000000000000078 .LVL8
     /tmp/ccUY1dgg.s:178    .text:0000000000000084 .LVL9
     /tmp/ccUY1dgg.s:591    .text:0000000000000208 .LVL38
GAS LISTING /tmp/ccUY1dgg.s 			page 51


     /tmp/ccUY1dgg.s:628    .text:0000000000000254 .LVL40
     /tmp/ccUY1dgg.s:654    .text:0000000000000270 .LVL43
     /tmp/ccUY1dgg.s:682    .text:0000000000000288 .LVL44
     /tmp/ccUY1dgg.s:692    .text:0000000000000298 .LVL47
     /tmp/ccUY1dgg.s:685    .text:000000000000028c .LVL45
     /tmp/ccUY1dgg.s:688    .text:0000000000000290 .LVL46
     /tmp/ccUY1dgg.s:621    .text:0000000000000244 .LVL39
     /tmp/ccUY1dgg.s:632    .text:0000000000000260 .LVL42
     /tmp/ccUY1dgg.s:552    .text:00000000000001e0 .LVL36
     /tmp/ccUY1dgg.s:385    .text:0000000000000138 .LVL21
     /tmp/ccUY1dgg.s:351    .text:0000000000000110 .LVL19
     /tmp/ccUY1dgg.s:319    .text:00000000000000e8 .LVL17
     /tmp/ccUY1dgg.s:1359   .debug_info:0000000000000000 .Ldebug_info0
     /tmp/ccUY1dgg.s:5      .text:0000000000000000 .Ltext0
     /tmp/ccUY1dgg.s:1354   .text:00000000000005b4 .Letext0
     /tmp/ccUY1dgg.s:613    .text:000000000000023c .LBB49
     /tmp/ccUY1dgg.s:671    .text:000000000000027c .LBE49
     /tmp/ccUY1dgg.s:696    .text:0000000000000298 .LBB50
     /tmp/ccUY1dgg.s:700    .text:00000000000002a0 .LBE50
     /tmp/ccUY1dgg.s:215    .gcc_except_table:0000000000000000 .LLSDA54
     /tmp/ccUY1dgg.s:303    .gcc_except_table:0000000000000004 .LLSDA69
     /tmp/ccUY1dgg.s:410    .gcc_except_table:0000000000000008 .LLSDA45
     /tmp/ccUY1dgg.s:577    .gcc_except_table:000000000000000c .LLSDA46
                           .group:0000000000000000 _ZN14PeriodicThreadD5Ev

UNDEFINED SYMBOLS
_Z8mem_freePv
_ZN3TCBdlEPv
__gxx_personality_v0
_Z9sem_closeP4KSem
_Z9mem_allocm
main
_Z11thread_joinP3TCB
_Z15thread_dispatchv
_Z10time_sleepm
_Z11thread_exitv
_Z8sem_openPP4KSemj
_Z8sem_waitP4KSem
_Z10sem_signalP4KSem
_Z4getcv
_Z4putcc
