GAS LISTING /tmp/ccPwnx9J.s 			page 1


   1              		.file	"syscall_cpp.cpp"
   2              		.option pic
   3              		.option norelax
   4              		.text
   5              	.Ltext0:
   6              		.section	.text._ZN6Thread3runEv,"axG",@progbits,_ZN6Thread3runEv,comdat
   7              		.align	2
   8              		.weak	_ZN6Thread3runEv
  10              	_ZN6Thread3runEv:
  11              	.LFB0:
  12              		.file 1 "src/../h/syscall_cpp.hpp"
   1:src/../h/syscall_cpp.hpp **** #ifndef _syscall_cpp
   2:src/../h/syscall_cpp.hpp **** #define _syscall_cpp
   3:src/../h/syscall_cpp.hpp **** 
   4:src/../h/syscall_cpp.hpp **** #include "../lib/hw.h"
   5:src/../h/syscall_cpp.hpp **** 
   6:src/../h/syscall_cpp.hpp **** void* operator new(size_t);
   7:src/../h/syscall_cpp.hpp **** 
   8:src/../h/syscall_cpp.hpp **** void* operator new[](size_t);
   9:src/../h/syscall_cpp.hpp **** 
  10:src/../h/syscall_cpp.hpp **** void operator delete(void*)
  11:src/../h/syscall_cpp.hpp **** 
  12:src/../h/syscall_cpp.hpp **** noexcept;
  13:src/../h/syscall_cpp.hpp **** 
  14:src/../h/syscall_cpp.hpp **** void operator delete[](void*)
  15:src/../h/syscall_cpp.hpp **** 
  16:src/../h/syscall_cpp.hpp **** noexcept;
  17:src/../h/syscall_cpp.hpp **** 
  18:src/../h/syscall_cpp.hpp **** class TCB;
  19:src/../h/syscall_cpp.hpp **** 
  20:src/../h/syscall_cpp.hpp **** typedef TCB* thread_t;
  21:src/../h/syscall_cpp.hpp **** 
  22:src/../h/syscall_cpp.hpp **** class KSem;
  23:src/../h/syscall_cpp.hpp **** 
  24:src/../h/syscall_cpp.hpp **** typedef KSem* sem_t;
  25:src/../h/syscall_cpp.hpp **** 
  26:src/../h/syscall_cpp.hpp **** class Thread {
  27:src/../h/syscall_cpp.hpp **** public:
  28:src/../h/syscall_cpp.hpp ****     //konstruktor koji pravi nit koja izvrsava zadatu funkciju sa zadatim argumentima, ne pokrece n
  29:src/../h/syscall_cpp.hpp ****     Thread(void (* body)(void*), void* arg);
  30:src/../h/syscall_cpp.hpp **** 
  31:src/../h/syscall_cpp.hpp ****     virtual ~Thread();
  32:src/../h/syscall_cpp.hpp **** 
  33:src/../h/syscall_cpp.hpp ****     //stavlja nit u Scheduler
  34:src/../h/syscall_cpp.hpp ****     int start();
  35:src/../h/syscall_cpp.hpp **** 
  36:src/../h/syscall_cpp.hpp ****     //pozivajuca (running) nit se suspenduje dok se nit ciji se metod poziva(this) ne zavrsi
  37:src/../h/syscall_cpp.hpp ****     void join();
  38:src/../h/syscall_cpp.hpp **** 
  39:src/../h/syscall_cpp.hpp ****     //sinhrona promena konteksta
  40:src/../h/syscall_cpp.hpp ****     static void dispatch();
  41:src/../h/syscall_cpp.hpp **** 
  42:src/../h/syscall_cpp.hpp ****     //uspavljuje tekucu nit na zadati period
  43:src/../h/syscall_cpp.hpp ****     static int sleep(time_t);
  44:src/../h/syscall_cpp.hpp **** 
  45:src/../h/syscall_cpp.hpp **** protected:
  46:src/../h/syscall_cpp.hpp ****     //konstruktor koji pravi nit koja izvrsava run metodu, ne stavlja je u Scheduler
GAS LISTING /tmp/ccPwnx9J.s 			page 2


  47:src/../h/syscall_cpp.hpp ****     Thread();
  48:src/../h/syscall_cpp.hpp **** 
  49:src/../h/syscall_cpp.hpp ****     //funkcija koju nit izvrsava, samo ako je nit napravljena podrazumevanim konstruktorom
  50:src/../h/syscall_cpp.hpp ****     virtual void run() {}
  13              		.loc 1 50 18
  14              		.cfi_startproc
  15              	.LVL0:
  16 0000 130101FF 		addi	sp,sp,-16
  17              		.cfi_def_cfa_offset 16
  18 0004 23348100 		sd	s0,8(sp)
  19              		.cfi_offset 8, -8
  20 0008 13040101 		addi	s0,sp,16
  21              		.cfi_def_cfa 8, 0
  22              		.loc 1 50 25 is_stmt 0
  23 000c 03348100 		ld	s0,8(sp)
  24              		.cfi_restore 8
  25              		.cfi_def_cfa 2, 16
  26 0010 13010101 		addi	sp,sp,16
  27              		.cfi_def_cfa_offset 0
  28 0014 67800000 		jr	ra
  29              		.cfi_endproc
  30              	.LFE0:
  32              		.section	.text._ZN14PeriodicThread18periodicActivationEv,"axG",@progbits,_ZN14PeriodicThread18peri
  33              		.align	2
  34              		.weak	_ZN14PeriodicThread18periodicActivationEv
  36              	_ZN14PeriodicThread18periodicActivationEv:
  37              	.LFB1:
  51:src/../h/syscall_cpp.hpp **** 
  52:src/../h/syscall_cpp.hpp **** private:
  53:src/../h/syscall_cpp.hpp ****     //pokazivac na TCB strukturu kernela
  54:src/../h/syscall_cpp.hpp ****     thread_t myHandle;
  55:src/../h/syscall_cpp.hpp **** 
  56:src/../h/syscall_cpp.hpp ****     void (* body)(void*);
  57:src/../h/syscall_cpp.hpp **** 
  58:src/../h/syscall_cpp.hpp ****     void* arg;
  59:src/../h/syscall_cpp.hpp **** 
  60:src/../h/syscall_cpp.hpp ****     static void wrapper(void* thread);
  61:src/../h/syscall_cpp.hpp **** };
  62:src/../h/syscall_cpp.hpp **** 
  63:src/../h/syscall_cpp.hpp **** 
  64:src/../h/syscall_cpp.hpp **** class Semaphore {
  65:src/../h/syscall_cpp.hpp **** public:
  66:src/../h/syscall_cpp.hpp **** 
  67:src/../h/syscall_cpp.hpp ****     Semaphore(unsigned init = 1);
  68:src/../h/syscall_cpp.hpp **** 
  69:src/../h/syscall_cpp.hpp ****     virtual ~Semaphore();
  70:src/../h/syscall_cpp.hpp **** 
  71:src/../h/syscall_cpp.hpp ****     int wait();
  72:src/../h/syscall_cpp.hpp **** 
  73:src/../h/syscall_cpp.hpp ****     int signal();
  74:src/../h/syscall_cpp.hpp **** 
  75:src/../h/syscall_cpp.hpp **** private:
  76:src/../h/syscall_cpp.hpp ****     sem_t myHandle;
  77:src/../h/syscall_cpp.hpp **** 
  78:src/../h/syscall_cpp.hpp **** };
  79:src/../h/syscall_cpp.hpp **** 
  80:src/../h/syscall_cpp.hpp **** 
GAS LISTING /tmp/ccPwnx9J.s 			page 3


  81:src/../h/syscall_cpp.hpp **** class PeriodicThread : public Thread {
  82:src/../h/syscall_cpp.hpp **** public:
  83:src/../h/syscall_cpp.hpp ****     void terminate();
  84:src/../h/syscall_cpp.hpp **** 
  85:src/../h/syscall_cpp.hpp **** protected:
  86:src/../h/syscall_cpp.hpp ****     PeriodicThread(time_t period);
  87:src/../h/syscall_cpp.hpp **** 
  88:src/../h/syscall_cpp.hpp ****     virtual void periodicActivation() {}
  38              		.loc 1 88 18 is_stmt 1
  39              		.cfi_startproc
  40              	.LVL1:
  41 0000 130101FF 		addi	sp,sp,-16
  42              		.cfi_def_cfa_offset 16
  43 0004 23348100 		sd	s0,8(sp)
  44              		.cfi_offset 8, -8
  45 0008 13040101 		addi	s0,sp,16
  46              		.cfi_def_cfa 8, 0
  47              		.loc 1 88 40 is_stmt 0
  48 000c 03348100 		ld	s0,8(sp)
  49              		.cfi_restore 8
  50              		.cfi_def_cfa 2, 16
  51 0010 13010101 		addi	sp,sp,16
  52              		.cfi_def_cfa_offset 0
  53 0014 67800000 		jr	ra
  54              		.cfi_endproc
  55              	.LFE1:
  57              		.text
  58              		.align	2
  59              		.globl	_ZN6Thread7wrapperEPv
  61              	_ZN6Thread7wrapperEPv:
  62              	.LFB55:
  63              		.file 2 "src/syscall_cpp.cpp"
   1:src/syscall_cpp.cpp **** //
   2:src/syscall_cpp.cpp **** // Created by os on 5/29/23.
   3:src/syscall_cpp.cpp **** //
   4:src/syscall_cpp.cpp **** #include "../h/syscall_cpp.hpp"
   5:src/syscall_cpp.cpp **** #include "../h/syscall_c.hpp"
   6:src/syscall_cpp.cpp **** #include "../h/TCB.hpp"
   7:src/syscall_cpp.cpp **** #include "../h/KSem.hpp"
   8:src/syscall_cpp.cpp **** #include "../h/Scheduler.hpp"
   9:src/syscall_cpp.cpp **** 
  10:src/syscall_cpp.cpp **** //override globalnog new
  11:src/syscall_cpp.cpp **** void* operator new(size_t size) {
  12:src/syscall_cpp.cpp ****     return mem_alloc(size);
  13:src/syscall_cpp.cpp **** }
  14:src/syscall_cpp.cpp **** 
  15:src/syscall_cpp.cpp **** void* operator new[](size_t size) {
  16:src/syscall_cpp.cpp ****     return mem_alloc(size);
  17:src/syscall_cpp.cpp **** }
  18:src/syscall_cpp.cpp **** 
  19:src/syscall_cpp.cpp **** void operator delete(void* ptr)
  20:src/syscall_cpp.cpp **** 
  21:src/syscall_cpp.cpp **** noexcept {
  22:src/syscall_cpp.cpp **** mem_free(ptr);
  23:src/syscall_cpp.cpp **** }
  24:src/syscall_cpp.cpp **** 
  25:src/syscall_cpp.cpp **** void operator delete[](void* ptr)
GAS LISTING /tmp/ccPwnx9J.s 			page 4


  26:src/syscall_cpp.cpp **** 
  27:src/syscall_cpp.cpp **** noexcept {
  28:src/syscall_cpp.cpp **** mem_free(ptr);
  29:src/syscall_cpp.cpp **** }
  30:src/syscall_cpp.cpp **** 
  31:src/syscall_cpp.cpp **** Thread::Thread(void (* body)(void*), void* arg) {
  32:src/syscall_cpp.cpp ****     this->body = body;
  33:src/syscall_cpp.cpp ****     this->arg = arg;
  34:src/syscall_cpp.cpp ****     //stvaranje steka ako se ne radi o main kernel niti, posto ona automatski ima stek
  35:src/syscall_cpp.cpp ****     uint64* stack = nullptr;
  36:src/syscall_cpp.cpp ****     if (body != nullptr) {
  37:src/syscall_cpp.cpp ****         stack = (uint64*)mem_alloc(DEFAULT_STACK_SIZE);
  38:src/syscall_cpp.cpp ****     }
  39:src/syscall_cpp.cpp ****     //stavljanje argumenata za sistemski poziv
  40:src/syscall_cpp.cpp ****     __asm__ volatile("mv a4, %[sp]": :[sp] "r"(stack):"a5", "a0", "a1", "a2", "a3", "a4", "a6", "a7
  41:src/syscall_cpp.cpp ****     __asm__ volatile("mv a3, %[arg]": :[arg] "r"(arg):"a5", "a0", "a1", "a2", "a3", "a4", "a6", "a7
  42:src/syscall_cpp.cpp ****     __asm__ volatile("mv a2, %[function]": :[function] "r"(
  43:src/syscall_cpp.cpp ****             body):"a5", "a0", "a1", "a2", "a3", "a4", "a6", "a7");
  44:src/syscall_cpp.cpp ****     __asm__ volatile("mv a1, %[handle]": :[handle] "r"(&myHandle):"a5", "a0", "a1", "a2", "a3", "a4
  45:src/syscall_cpp.cpp ****     __asm__ volatile("li a0, 0x80");
  46:src/syscall_cpp.cpp ****     //a0 = 0x80
  47:src/syscall_cpp.cpp ****     //a1 = adresa pokazivaca na rucku niti
  48:src/syscall_cpp.cpp ****     //a2 = prva adresa funkcije koju nit izvrsava
  49:src/syscall_cpp.cpp ****     //a3 = pokazivac na argumente funkcije
  50:src/syscall_cpp.cpp ****     //a4 = pokazivac na najnizu adresu steka (stek raste ka nizim adresama, pokazuje na poslednju z
  51:src/syscall_cpp.cpp **** 
  52:src/syscall_cpp.cpp ****     __asm__ volatile("ecall");
  53:src/syscall_cpp.cpp **** }
  54:src/syscall_cpp.cpp **** 
  55:src/syscall_cpp.cpp **** Thread::~Thread() {
  56:src/syscall_cpp.cpp ****     //ne treba da se gasi running nit, vec nit na koju pokazuje rucka od this
  57:src/syscall_cpp.cpp ****     thread_join(this->myHandle);
  58:src/syscall_cpp.cpp ****     delete myHandle;
  59:src/syscall_cpp.cpp **** 
  60:src/syscall_cpp.cpp ****     //ovo nije dobro
  61:src/syscall_cpp.cpp ****     //thread_exit();
  62:src/syscall_cpp.cpp **** }
  63:src/syscall_cpp.cpp **** 
  64:src/syscall_cpp.cpp **** int Thread::start() {
  65:src/syscall_cpp.cpp ****     if (myHandle == nullptr) return -1;
  66:src/syscall_cpp.cpp ****     __asm__ volatile("mv a1, %[handle]": :[handle] "r"(myHandle):"a5", "a0", "a1", "a2", "a3", "a4"
  67:src/syscall_cpp.cpp ****     __asm__ volatile("li a0, 0x81");
  68:src/syscall_cpp.cpp **** 
  69:src/syscall_cpp.cpp ****     __asm__ volatile("ecall");
  70:src/syscall_cpp.cpp **** 
  71:src/syscall_cpp.cpp ****     return 0;
  72:src/syscall_cpp.cpp **** }
  73:src/syscall_cpp.cpp **** 
  74:src/syscall_cpp.cpp **** void Thread::join() {
  75:src/syscall_cpp.cpp ****     thread_join(myHandle);
  76:src/syscall_cpp.cpp **** }
  77:src/syscall_cpp.cpp **** 
  78:src/syscall_cpp.cpp **** void Thread::dispatch() {
  79:src/syscall_cpp.cpp ****     thread_dispatch();
  80:src/syscall_cpp.cpp **** }
  81:src/syscall_cpp.cpp **** 
  82:src/syscall_cpp.cpp **** int Thread::sleep(time_t t) {
GAS LISTING /tmp/ccPwnx9J.s 			page 5


  83:src/syscall_cpp.cpp ****     //Scheduler::putToSleep(TCB::running, t);
  84:src/syscall_cpp.cpp ****     time_sleep(t);
  85:src/syscall_cpp.cpp ****     return 0;
  86:src/syscall_cpp.cpp **** }
  87:src/syscall_cpp.cpp **** 
  88:src/syscall_cpp.cpp **** Thread::Thread() {
  89:src/syscall_cpp.cpp ****     this->body = wrapper;
  90:src/syscall_cpp.cpp ****     this->arg = this;
  91:src/syscall_cpp.cpp ****     //stvaranje steka ako se ne radi o main kernel niti, posto ona automatski ima stek
  92:src/syscall_cpp.cpp ****     uint64* stack = nullptr;
  93:src/syscall_cpp.cpp ****     if (body != nullptr) {
  94:src/syscall_cpp.cpp ****         stack = (uint64*)mem_alloc(DEFAULT_STACK_SIZE);
  95:src/syscall_cpp.cpp ****     }
  96:src/syscall_cpp.cpp ****     //uint64* stack = (start_routine != nullptr ? (uint64*)MemoryAllocator::kmalloc(DEFAULT_STACK_S
  97:src/syscall_cpp.cpp ****     //stavljanje argumenata za sistemski poziv
  98:src/syscall_cpp.cpp ****     __asm__ volatile("mv a4, %[sp]": :[sp] "r"(stack):"a5", "a0", "a1", "a2", "a3", "a4", "a6", "a7
  99:src/syscall_cpp.cpp ****     __asm__ volatile("mv a3, %[arg]": :[arg] "r"(arg):"a5", "a0", "a1", "a2", "a3", "a4", "a6", "a7
 100:src/syscall_cpp.cpp ****     __asm__ volatile("mv a2, %[function]": :[function] "r"(
 101:src/syscall_cpp.cpp ****             body):"a5", "a0", "a1", "a2", "a3", "a4", "a6", "a7");
 102:src/syscall_cpp.cpp ****     __asm__ volatile("mv a1, %[handle]": :[handle] "r"(&myHandle):"a5", "a0", "a1", "a2", "a3", "a4
 103:src/syscall_cpp.cpp ****     __asm__ volatile("li a0, 0x80");
 104:src/syscall_cpp.cpp ****     //a0 = 0x80
 105:src/syscall_cpp.cpp ****     //a1 = adresa pokazivaca na rucku niti
 106:src/syscall_cpp.cpp ****     //a2 = prva adresa funkcije koju nit izvrsava
 107:src/syscall_cpp.cpp ****     //a3 = pokazivac na argumente funkcije
 108:src/syscall_cpp.cpp ****     //a4 = pokazivac na najnizu adresu steka (stek raste ka nizim adresama, pokazuje na poslednju z
 109:src/syscall_cpp.cpp **** 
 110:src/syscall_cpp.cpp ****     __asm__ volatile("ecall");
 111:src/syscall_cpp.cpp **** }
 112:src/syscall_cpp.cpp **** 
 113:src/syscall_cpp.cpp **** void Thread::wrapper(void* thread) {
  64              		.loc 2 113 36 is_stmt 1
  65              		.cfi_startproc
  66              	.LVL2:
 114:src/syscall_cpp.cpp ****     if (thread != nullptr) {
  67              		.loc 2 114 5
  68 0000 63080502 		beqz	a0,.L8
 113:src/syscall_cpp.cpp ****     if (thread != nullptr) {
  69              		.loc 2 113 36 is_stmt 0
  70 0004 130101FF 		addi	sp,sp,-16
  71              		.cfi_def_cfa_offset 16
  72 0008 23341100 		sd	ra,8(sp)
  73 000c 23308100 		sd	s0,0(sp)
  74              		.cfi_offset 1, -8
  75              		.cfi_offset 8, -16
  76 0010 13040101 		addi	s0,sp,16
  77              		.cfi_def_cfa 8, 0
 115:src/syscall_cpp.cpp ****         ((Thread*)thread)->run();
  78              		.loc 2 115 9 is_stmt 1
  79              		.loc 2 115 32 is_stmt 0
  80 0014 83370500 		ld	a5,0(a0)
  81 0018 83B70701 		ld	a5,16(a5)
  82              		.loc 2 115 31
  83 001c E7800700 		jalr	a5
  84              	.LVL3:
 116:src/syscall_cpp.cpp ****     }
 117:src/syscall_cpp.cpp **** }
GAS LISTING /tmp/ccPwnx9J.s 			page 6


  85              		.loc 2 117 1
  86 0020 83308100 		ld	ra,8(sp)
  87              		.cfi_restore 1
  88 0024 03340100 		ld	s0,0(sp)
  89              		.cfi_restore 8
  90              		.cfi_def_cfa 2, 16
  91 0028 13010101 		addi	sp,sp,16
  92              		.cfi_def_cfa_offset 0
  93 002c 67800000 		jr	ra
  94              	.LVL4:
  95              	.L8:
  96 0030 67800000 		ret
  97              		.cfi_endproc
  98              	.LFE55:
 100              		.align	2
 101              		.globl	_ZN6ThreadD2Ev
 103              	_ZN6ThreadD2Ev:
 104              	.LFB45:
  55:src/syscall_cpp.cpp ****     //ne treba da se gasi running nit, vec nit na koju pokazuje rucka od this
 105              		.loc 2 55 1 is_stmt 1
 106              		.cfi_startproc
 107              		.cfi_personality 0x9b,DW.ref.__gxx_personality_v0
 108              		.cfi_lsda 0x1b,.LLSDA45
 109              	.LVL5:
 110 0034 130101FE 		addi	sp,sp,-32
 111              		.cfi_def_cfa_offset 32
 112 0038 233C1100 		sd	ra,24(sp)
 113 003c 23388100 		sd	s0,16(sp)
 114 0040 23349100 		sd	s1,8(sp)
 115              		.cfi_offset 1, -8
 116              		.cfi_offset 8, -16
 117              		.cfi_offset 9, -24
 118 0044 13040102 		addi	s0,sp,32
 119              		.cfi_def_cfa 8, 0
 120 0048 93040500 		mv	s1,a0
 121              	.LBB54:
  55:src/syscall_cpp.cpp ****     //ne treba da se gasi running nit, vec nit na koju pokazuje rucka od this
 122              		.loc 2 55 17 is_stmt 0
 123 004c 97070000 		lla	a5,_ZTV6Thread+16
 123      93870700 
 124 0054 2330F500 		sd	a5,0(a0)
  57:src/syscall_cpp.cpp ****     delete myHandle;
 125              		.loc 2 57 5 is_stmt 1
  57:src/syscall_cpp.cpp ****     delete myHandle;
 126              		.loc 2 57 16 is_stmt 0
 127 0058 03358500 		ld	a0,8(a0)
 128              	.LVL6:
 129 005c 97000000 		call	_Z11thread_joinP3TCB@plt
 129      E7800000 
 130              	.LVL7:
  58:src/syscall_cpp.cpp **** 
 131              		.loc 2 58 5 is_stmt 1
  58:src/syscall_cpp.cpp **** 
 132              		.loc 2 58 12 is_stmt 0
 133 0064 83B48400 		ld	s1,8(s1)
 134              	.LVL8:
  58:src/syscall_cpp.cpp **** 
GAS LISTING /tmp/ccPwnx9J.s 			page 7


 135              		.loc 2 58 20
 136 0068 63880402 		beqz	s1,.L11
 137              	.L14:
 138              	.LBB55:
 139              	.LBB56:
 140              	.LBB57:
 141              		.file 3 "src/../h/../h/ThreadQueue.hpp"
   1:src/../h/../h/ThreadQueue.hpp **** //
   2:src/../h/../h/ThreadQueue.hpp **** // Created by os on 6/4/23.
   3:src/../h/../h/ThreadQueue.hpp **** //
   4:src/../h/../h/ThreadQueue.hpp **** 
   5:src/../h/../h/ThreadQueue.hpp **** #ifndef PROJEKAT2023_THREADQUEUE_HPP
   6:src/../h/../h/ThreadQueue.hpp **** #define PROJEKAT2023_THREADQUEUE_HPP
   7:src/../h/../h/ThreadQueue.hpp **** 
   8:src/../h/../h/ThreadQueue.hpp **** #include "../visak/MemoryAllocator.hpp"
   9:src/../h/../h/ThreadQueue.hpp **** #include "../h/syscall_c.hpp"
  10:src/../h/../h/ThreadQueue.hpp **** 
  11:src/../h/../h/ThreadQueue.hpp **** class TCB;
  12:src/../h/../h/ThreadQueue.hpp **** 
  13:src/../h/../h/ThreadQueue.hpp **** class ThreadQueue {
  14:src/../h/../h/ThreadQueue.hpp **** private:
  15:src/../h/../h/ThreadQueue.hpp ****     struct Node {
  16:src/../h/../h/ThreadQueue.hpp ****         TCB *data;
  17:src/../h/../h/ThreadQueue.hpp ****         Node *next;
  18:src/../h/../h/ThreadQueue.hpp **** 
  19:src/../h/../h/ThreadQueue.hpp ****         Node(TCB *d) : data(d), next(nullptr) {}
  20:src/../h/../h/ThreadQueue.hpp **** 
  21:src/../h/../h/ThreadQueue.hpp ****         static void *operator new(size_t size) {
  22:src/../h/../h/ThreadQueue.hpp ****             return mem_alloc(size);
  23:src/../h/../h/ThreadQueue.hpp ****         }
  24:src/../h/../h/ThreadQueue.hpp **** 
  25:src/../h/../h/ThreadQueue.hpp ****         static void operator delete(void *ptr) {
  26:src/../h/../h/ThreadQueue.hpp ****             mem_free(ptr);
  27:src/../h/../h/ThreadQueue.hpp ****         }
  28:src/../h/../h/ThreadQueue.hpp ****     };
  29:src/../h/../h/ThreadQueue.hpp **** 
  30:src/../h/../h/ThreadQueue.hpp ****     Node *front;
  31:src/../h/../h/ThreadQueue.hpp ****     Node *back;
  32:src/../h/../h/ThreadQueue.hpp **** 
  33:src/../h/../h/ThreadQueue.hpp **** public:
  34:src/../h/../h/ThreadQueue.hpp ****     ThreadQueue() : front(nullptr), back(nullptr) {}
  35:src/../h/../h/ThreadQueue.hpp **** 
  36:src/../h/../h/ThreadQueue.hpp ****     ThreadQueue(const ThreadQueue &) = delete;
  37:src/../h/../h/ThreadQueue.hpp **** 
  38:src/../h/../h/ThreadQueue.hpp ****     ThreadQueue &operator=(const ThreadQueue &) = delete;
  39:src/../h/../h/ThreadQueue.hpp **** 
  40:src/../h/../h/ThreadQueue.hpp ****     ~ThreadQueue() {
  41:src/../h/../h/ThreadQueue.hpp ****         while (!isEmpty()) {
 142              		.loc 3 41 9 is_stmt 1
 143              		.loc 3 41 16
 144              	.LVL9:
 145              	.LBB58:
 146              	.LBB59:
  42:src/../h/../h/ThreadQueue.hpp ****             Node *node = front;
  43:src/../h/../h/ThreadQueue.hpp ****             front = front->next;
  44:src/../h/../h/ThreadQueue.hpp ****             delete node;
  45:src/../h/../h/ThreadQueue.hpp ****         }
GAS LISTING /tmp/ccPwnx9J.s 			page 8


  46:src/../h/../h/ThreadQueue.hpp ****     }
  47:src/../h/../h/ThreadQueue.hpp **** 
  48:src/../h/../h/ThreadQueue.hpp ****     bool isEmpty() const {
  49:src/../h/../h/ThreadQueue.hpp ****         bool ret = front == nullptr;
 147              		.loc 3 49 9
 148              		.loc 3 49 20 is_stmt 0
 149 006c 03B58404 		ld	a0,72(s1)
 150              	.LVL10:
  50:src/../h/../h/ThreadQueue.hpp ****         return ret;
 151              		.loc 3 50 9 is_stmt 1
 152              	.LBE59:
 153              	.LBE58:
  41:src/../h/../h/ThreadQueue.hpp ****             Node *node = front;
 154              		.loc 3 41 16 is_stmt 0
 155 0070 630E0500 		beqz	a0,.L13
 156              	.LBB60:
  42:src/../h/../h/ThreadQueue.hpp ****             Node *node = front;
 157              		.loc 3 42 13 is_stmt 1
 158              	.LVL11:
  43:src/../h/../h/ThreadQueue.hpp ****             delete node;
 159              		.loc 3 43 13
  43:src/../h/../h/ThreadQueue.hpp ****             delete node;
 160              		.loc 3 43 28 is_stmt 0
 161 0074 83378500 		ld	a5,8(a0)
  43:src/../h/../h/ThreadQueue.hpp ****             delete node;
 162              		.loc 3 43 19
 163 0078 23B4F404 		sd	a5,72(s1)
  44:src/../h/../h/ThreadQueue.hpp ****         }
 164              		.loc 3 44 13 is_stmt 1
  44:src/../h/../h/ThreadQueue.hpp ****         }
 165              		.loc 3 44 24 is_stmt 0
 166 007c E30805FE 		beqz	a0,.L14
 167              	.LVL12:
 168              	.LBB61:
 169              	.LBB62:
  26:src/../h/../h/ThreadQueue.hpp ****         }
 170              		.loc 3 26 13 is_stmt 1
  26:src/../h/../h/ThreadQueue.hpp ****         }
 171              		.loc 3 26 21 is_stmt 0
 172 0080 97000000 		call	_Z8mem_freePv@plt
 172      E7800000 
 173              	.LVL13:
  27:src/../h/../h/ThreadQueue.hpp ****     };
 174              		.loc 3 27 9
 175 0088 6FF05FFE 		j	.L14
 176              	.L13:
 177              	.LBE62:
 178              	.LBE61:
 179              	.LBE60:
 180              	.LBE57:
 181              	.LBE56:
 182              	.LBE55:
  58:src/syscall_cpp.cpp **** 
 183              		.loc 2 58 12
 184 008c 13850400 		mv	a0,s1
 185 0090 97000000 		call	_ZN3TCBdlEPv@plt
 185      E7800000 
GAS LISTING /tmp/ccPwnx9J.s 			page 9


 186              	.LVL14:
 187              	.L11:
 188              	.LBE54:
  62:src/syscall_cpp.cpp **** 
 189              		.loc 2 62 1
 190 0098 83308101 		ld	ra,24(sp)
 191              		.cfi_restore 1
 192 009c 03340101 		ld	s0,16(sp)
 193              		.cfi_restore 8
 194              		.cfi_def_cfa 2, 32
 195 00a0 83348100 		ld	s1,8(sp)
 196              		.cfi_restore 9
 197 00a4 13010102 		addi	sp,sp,32
 198              		.cfi_def_cfa_offset 0
 199 00a8 67800000 		jr	ra
 200              		.cfi_endproc
 201              	.LFE45:
 202              		.globl	__gxx_personality_v0
 203              		.section	.gcc_except_table,"a",@progbits
 204              	.LLSDA45:
 205 0000 FF       		.byte	0xff
 206 0001 FF       		.byte	0xff
 207 0002 03       		.byte	0x3
 208 0003 00       		.byte	0
 209              		.text
 211              		.globl	_ZN6ThreadD1Ev
 212              		.set	_ZN6ThreadD1Ev,_ZN6ThreadD2Ev
 213              		.section	.text._ZN14PeriodicThreadD2Ev,"axG",@progbits,_ZN14PeriodicThreadD5Ev,comdat
 214              		.align	2
 215              		.weak	_ZN14PeriodicThreadD2Ev
 217              	_ZN14PeriodicThreadD2Ev:
 218              	.LFB76:
  81:src/../h/syscall_cpp.hpp **** public:
 219              		.loc 1 81 7 is_stmt 1
 220              		.cfi_startproc
 221              	.LVL15:
 222 0000 130101FF 		addi	sp,sp,-16
 223              		.cfi_def_cfa_offset 16
 224 0004 23341100 		sd	ra,8(sp)
 225 0008 23308100 		sd	s0,0(sp)
 226              		.cfi_offset 1, -8
 227              		.cfi_offset 8, -16
 228 000c 13040101 		addi	s0,sp,16
 229              		.cfi_def_cfa 8, 0
 230              	.LBB63:
  81:src/../h/syscall_cpp.hpp **** public:
 231              		.loc 1 81 7 is_stmt 0
 232 0010 97070000 		lla	a5,_ZTV14PeriodicThread+16
 232      93870700 
 233 0018 2330F500 		sd	a5,0(a0)
 234 001c 97000000 		call	_ZN6ThreadD2Ev
 234      E7800000 
 235              	.LVL16:
 236              	.LBE63:
 237 0024 83308100 		ld	ra,8(sp)
 238              		.cfi_restore 1
 239 0028 03340100 		ld	s0,0(sp)
GAS LISTING /tmp/ccPwnx9J.s 			page 10


 240              		.cfi_restore 8
 241              		.cfi_def_cfa 2, 16
 242 002c 13010101 		addi	sp,sp,16
 243              		.cfi_def_cfa_offset 0
 244 0030 67800000 		jr	ra
 245              		.cfi_endproc
 246              	.LFE76:
 248              		.weak	_ZN14PeriodicThreadD1Ev
 249              		.set	_ZN14PeriodicThreadD1Ev,_ZN14PeriodicThreadD2Ev
 250              		.text
 251              		.align	2
 252              		.globl	_ZN9SemaphoreD2Ev
 254              	_ZN9SemaphoreD2Ev:
 255              	.LFB63:
 118:src/syscall_cpp.cpp **** 
 119:src/syscall_cpp.cpp **** Semaphore::Semaphore(unsigned int init) {
 120:src/syscall_cpp.cpp ****     sem_open(&myHandle, init);
 121:src/syscall_cpp.cpp **** }
 122:src/syscall_cpp.cpp **** 
 123:src/syscall_cpp.cpp **** Semaphore::~Semaphore() {
 256              		.loc 2 123 1 is_stmt 1
 257              		.cfi_startproc
 258              		.cfi_personality 0x9b,DW.ref.__gxx_personality_v0
 259              		.cfi_lsda 0x1b,.LLSDA63
 260              	.LVL17:
 261 00ac 130101FE 		addi	sp,sp,-32
 262              		.cfi_def_cfa_offset 32
 263 00b0 233C1100 		sd	ra,24(sp)
 264 00b4 23388100 		sd	s0,16(sp)
 265 00b8 23349100 		sd	s1,8(sp)
 266              		.cfi_offset 1, -8
 267              		.cfi_offset 8, -16
 268              		.cfi_offset 9, -24
 269 00bc 13040102 		addi	s0,sp,32
 270              		.cfi_def_cfa 8, 0
 271 00c0 93040500 		mv	s1,a0
 272              	.LBB64:
 273              		.loc 2 123 23 is_stmt 0
 274 00c4 97070000 		lla	a5,_ZTV9Semaphore+16
 274      93870700 
 275 00cc 2330F500 		sd	a5,0(a0)
 124:src/syscall_cpp.cpp ****     sem_close(myHandle);
 276              		.loc 2 124 5 is_stmt 1
 277              		.loc 2 124 14 is_stmt 0
 278 00d0 03358500 		ld	a0,8(a0)
 279              	.LVL18:
 280 00d4 97000000 		call	_Z9sem_closeP4KSem@plt
 280      E7800000 
 281              	.LVL19:
 125:src/syscall_cpp.cpp ****     delete myHandle;
 282              		.loc 2 125 5 is_stmt 1
 283              		.loc 2 125 12 is_stmt 0
 284 00dc 83B48400 		ld	s1,8(s1)
 285              	.LVL20:
 286              		.loc 2 125 20
 287 00e0 63880402 		beqz	s1,.L19
 288              	.L22:
GAS LISTING /tmp/ccPwnx9J.s 			page 11


 289              	.LBB65:
 290              	.LBB66:
 291              	.LBB67:
  41:src/../h/../h/ThreadQueue.hpp ****             Node *node = front;
 292              		.loc 3 41 9 is_stmt 1
  41:src/../h/../h/ThreadQueue.hpp ****             Node *node = front;
 293              		.loc 3 41 16
 294              	.LVL21:
 295              	.LBB68:
 296              	.LBB69:
  49:src/../h/../h/ThreadQueue.hpp ****         return ret;
 297              		.loc 3 49 9
  49:src/../h/../h/ThreadQueue.hpp ****         return ret;
 298              		.loc 3 49 20 is_stmt 0
 299 00e4 03B58400 		ld	a0,8(s1)
 300              	.LVL22:
 301              		.loc 3 50 9 is_stmt 1
 302              	.LBE69:
 303              	.LBE68:
  41:src/../h/../h/ThreadQueue.hpp ****             Node *node = front;
 304              		.loc 3 41 16 is_stmt 0
 305 00e8 630E0500 		beqz	a0,.L21
 306              	.LBB70:
  42:src/../h/../h/ThreadQueue.hpp ****             front = front->next;
 307              		.loc 3 42 13 is_stmt 1
 308              	.LVL23:
  43:src/../h/../h/ThreadQueue.hpp ****             delete node;
 309              		.loc 3 43 13
  43:src/../h/../h/ThreadQueue.hpp ****             delete node;
 310              		.loc 3 43 28 is_stmt 0
 311 00ec 83378500 		ld	a5,8(a0)
  43:src/../h/../h/ThreadQueue.hpp ****             delete node;
 312              		.loc 3 43 19
 313 00f0 23B4F400 		sd	a5,8(s1)
  44:src/../h/../h/ThreadQueue.hpp ****         }
 314              		.loc 3 44 13 is_stmt 1
  44:src/../h/../h/ThreadQueue.hpp ****         }
 315              		.loc 3 44 24 is_stmt 0
 316 00f4 E30805FE 		beqz	a0,.L22
 317              	.LVL24:
 318              	.LBB71:
 319              	.LBB72:
  26:src/../h/../h/ThreadQueue.hpp ****         }
 320              		.loc 3 26 13 is_stmt 1
  26:src/../h/../h/ThreadQueue.hpp ****         }
 321              		.loc 3 26 21 is_stmt 0
 322 00f8 97000000 		call	_Z8mem_freePv@plt
 322      E7800000 
 323              	.LVL25:
  27:src/../h/../h/ThreadQueue.hpp ****     };
 324              		.loc 3 27 9
 325 0100 6FF05FFE 		j	.L22
 326              	.L21:
 327              	.LBE72:
 328              	.LBE71:
 329              	.LBE70:
 330              	.LBE67:
GAS LISTING /tmp/ccPwnx9J.s 			page 12


 331              	.LBE66:
 332              	.LBE65:
 333              		.loc 2 125 12
 334 0104 13850400 		mv	a0,s1
 335 0108 97000000 		call	_ZN4KSemdlEPv@plt
 335      E7800000 
 336              	.LVL26:
 337              	.L19:
 338              	.LBE64:
 126:src/syscall_cpp.cpp **** }
 339              		.loc 2 126 1
 340 0110 83308101 		ld	ra,24(sp)
 341              		.cfi_restore 1
 342 0114 03340101 		ld	s0,16(sp)
 343              		.cfi_restore 8
 344              		.cfi_def_cfa 2, 32
 345 0118 83348100 		ld	s1,8(sp)
 346              		.cfi_restore 9
 347 011c 13010102 		addi	sp,sp,32
 348              		.cfi_def_cfa_offset 0
 349 0120 67800000 		jr	ra
 350              		.cfi_endproc
 351              	.LFE63:
 352              		.section	.gcc_except_table
 353              	.LLSDA63:
 354 0004 FF       		.byte	0xff
 355 0005 FF       		.byte	0xff
 356 0006 03       		.byte	0x3
 357 0007 00       		.byte	0
 358              		.text
 360              		.globl	_ZN9SemaphoreD1Ev
 361              		.set	_ZN9SemaphoreD1Ev,_ZN9SemaphoreD2Ev
 362              		.align	2
 363              		.globl	_Znwm
 365              	_Znwm:
 366              	.LFB34:
  11:src/syscall_cpp.cpp ****     return mem_alloc(size);
 367              		.loc 2 11 33 is_stmt 1
 368              		.cfi_startproc
 369              	.LVL27:
 370 0124 130101FF 		addi	sp,sp,-16
 371              		.cfi_def_cfa_offset 16
 372 0128 23341100 		sd	ra,8(sp)
 373 012c 23308100 		sd	s0,0(sp)
 374              		.cfi_offset 1, -8
 375              		.cfi_offset 8, -16
 376 0130 13040101 		addi	s0,sp,16
 377              		.cfi_def_cfa 8, 0
  12:src/syscall_cpp.cpp **** }
 378              		.loc 2 12 5
  12:src/syscall_cpp.cpp **** }
 379              		.loc 2 12 21 is_stmt 0
 380 0134 97000000 		call	_Z9mem_allocm@plt
 380      E7800000 
 381              	.LVL28:
  13:src/syscall_cpp.cpp **** 
 382              		.loc 2 13 1
GAS LISTING /tmp/ccPwnx9J.s 			page 13


 383 013c 83308100 		ld	ra,8(sp)
 384              		.cfi_restore 1
 385 0140 03340100 		ld	s0,0(sp)
 386              		.cfi_restore 8
 387              		.cfi_def_cfa 2, 16
 388 0144 13010101 		addi	sp,sp,16
 389              		.cfi_def_cfa_offset 0
 390 0148 67800000 		jr	ra
 391              		.cfi_endproc
 392              	.LFE34:
 394              		.align	2
 395              		.globl	_Znam
 397              	_Znam:
 398              	.LFB35:
  15:src/syscall_cpp.cpp ****     return mem_alloc(size);
 399              		.loc 2 15 35 is_stmt 1
 400              		.cfi_startproc
 401              	.LVL29:
 402 014c 130101FF 		addi	sp,sp,-16
 403              		.cfi_def_cfa_offset 16
 404 0150 23341100 		sd	ra,8(sp)
 405 0154 23308100 		sd	s0,0(sp)
 406              		.cfi_offset 1, -8
 407              		.cfi_offset 8, -16
 408 0158 13040101 		addi	s0,sp,16
 409              		.cfi_def_cfa 8, 0
  16:src/syscall_cpp.cpp **** }
 410              		.loc 2 16 5
  16:src/syscall_cpp.cpp **** }
 411              		.loc 2 16 21 is_stmt 0
 412 015c 97000000 		call	_Z9mem_allocm@plt
 412      E7800000 
 413              	.LVL30:
  17:src/syscall_cpp.cpp **** 
 414              		.loc 2 17 1
 415 0164 83308100 		ld	ra,8(sp)
 416              		.cfi_restore 1
 417 0168 03340100 		ld	s0,0(sp)
 418              		.cfi_restore 8
 419              		.cfi_def_cfa 2, 16
 420 016c 13010101 		addi	sp,sp,16
 421              		.cfi_def_cfa_offset 0
 422 0170 67800000 		jr	ra
 423              		.cfi_endproc
 424              	.LFE35:
 426              		.align	2
 427              		.globl	_ZdlPv
 429              	_ZdlPv:
 430              	.LFB36:
  21:src/syscall_cpp.cpp **** mem_free(ptr);
 431              		.loc 2 21 10 is_stmt 1
 432              		.cfi_startproc
 433              		.cfi_personality 0x9b,DW.ref.__gxx_personality_v0
 434              		.cfi_lsda 0x1b,.LLSDA36
 435              	.LVL31:
 436 0174 130101FF 		addi	sp,sp,-16
 437              		.cfi_def_cfa_offset 16
GAS LISTING /tmp/ccPwnx9J.s 			page 14


 438 0178 23341100 		sd	ra,8(sp)
 439 017c 23308100 		sd	s0,0(sp)
 440              		.cfi_offset 1, -8
 441              		.cfi_offset 8, -16
 442 0180 13040101 		addi	s0,sp,16
 443              		.cfi_def_cfa 8, 0
  22:src/syscall_cpp.cpp **** }
 444              		.loc 2 22 1
  22:src/syscall_cpp.cpp **** }
 445              		.loc 2 22 9 is_stmt 0
 446 0184 97000000 		call	_Z8mem_freePv@plt
 446      E7800000 
 447              	.LVL32:
  23:src/syscall_cpp.cpp **** 
 448              		.loc 2 23 1
 449 018c 83308100 		ld	ra,8(sp)
 450              		.cfi_restore 1
 451 0190 03340100 		ld	s0,0(sp)
 452              		.cfi_restore 8
 453              		.cfi_def_cfa 2, 16
 454 0194 13010101 		addi	sp,sp,16
 455              		.cfi_def_cfa_offset 0
 456 0198 67800000 		jr	ra
 457              		.cfi_endproc
 458              	.LFE36:
 459              		.section	.gcc_except_table
 460              	.LLSDA36:
 461 0008 FF       		.byte	0xff
 462 0009 FF       		.byte	0xff
 463 000a 03       		.byte	0x3
 464 000b 00       		.byte	0
 465              		.text
 467              		.align	2
 468              		.globl	_ZN6ThreadD0Ev
 470              	_ZN6ThreadD0Ev:
 471              	.LFB47:
  55:src/syscall_cpp.cpp ****     //ne treba da se gasi running nit, vec nit na koju pokazuje rucka od this
 472              		.loc 2 55 1 is_stmt 1
 473              		.cfi_startproc
 474              	.LVL33:
 475 019c 130101FE 		addi	sp,sp,-32
 476              		.cfi_def_cfa_offset 32
 477 01a0 233C1100 		sd	ra,24(sp)
 478 01a4 23388100 		sd	s0,16(sp)
 479 01a8 23349100 		sd	s1,8(sp)
 480              		.cfi_offset 1, -8
 481              		.cfi_offset 8, -16
 482              		.cfi_offset 9, -24
 483 01ac 13040102 		addi	s0,sp,32
 484              		.cfi_def_cfa 8, 0
 485 01b0 93040500 		mv	s1,a0
  62:src/syscall_cpp.cpp **** 
 486              		.loc 2 62 1 is_stmt 0
 487 01b4 97000000 		call	_ZN6ThreadD1Ev
 487      E7800000 
 488              	.LVL34:
 489 01bc 13850400 		mv	a0,s1
GAS LISTING /tmp/ccPwnx9J.s 			page 15


 490 01c0 97000000 		call	_ZdlPv
 490      E7800000 
 491              	.LVL35:
 492 01c8 83308101 		ld	ra,24(sp)
 493              		.cfi_restore 1
 494 01cc 03340101 		ld	s0,16(sp)
 495              		.cfi_restore 8
 496              		.cfi_def_cfa 2, 32
 497 01d0 83348100 		ld	s1,8(sp)
 498              		.cfi_restore 9
 499              	.LVL36:
 500 01d4 13010102 		addi	sp,sp,32
 501              		.cfi_def_cfa_offset 0
 502 01d8 67800000 		jr	ra
 503              		.cfi_endproc
 504              	.LFE47:
 506              		.section	.text._ZN14PeriodicThreadD0Ev,"axG",@progbits,_ZN14PeriodicThreadD5Ev,comdat
 507              		.align	2
 508              		.weak	_ZN14PeriodicThreadD0Ev
 510              	_ZN14PeriodicThreadD0Ev:
 511              	.LFB78:
  81:src/../h/syscall_cpp.hpp **** public:
 512              		.loc 1 81 7 is_stmt 1
 513              		.cfi_startproc
 514              	.LVL37:
 515 0000 130101FE 		addi	sp,sp,-32
 516              		.cfi_def_cfa_offset 32
 517 0004 233C1100 		sd	ra,24(sp)
 518 0008 23388100 		sd	s0,16(sp)
 519 000c 23349100 		sd	s1,8(sp)
 520              		.cfi_offset 1, -8
 521              		.cfi_offset 8, -16
 522              		.cfi_offset 9, -24
 523 0010 13040102 		addi	s0,sp,32
 524              		.cfi_def_cfa 8, 0
 525 0014 93040500 		mv	s1,a0
 526              	.LVL38:
 527              	.LBB73:
 528              	.LBB74:
  81:src/../h/syscall_cpp.hpp **** public:
 529              		.loc 1 81 7 is_stmt 0
 530 0018 97070000 		lla	a5,_ZTV14PeriodicThread+16
 530      93870700 
 531 0020 2330F500 		sd	a5,0(a0)
 532 0024 97000000 		call	_ZN6ThreadD2Ev
 532      E7800000 
 533              	.LVL39:
 534              	.LBE74:
 535              	.LBE73:
 536 002c 13850400 		mv	a0,s1
 537 0030 97000000 		call	_ZdlPv
 537      E7800000 
 538              	.LVL40:
 539 0038 83308101 		ld	ra,24(sp)
 540              		.cfi_restore 1
 541 003c 03340101 		ld	s0,16(sp)
 542              		.cfi_restore 8
GAS LISTING /tmp/ccPwnx9J.s 			page 16


 543              		.cfi_def_cfa 2, 32
 544 0040 83348100 		ld	s1,8(sp)
 545              		.cfi_restore 9
 546              	.LVL41:
 547 0044 13010102 		addi	sp,sp,32
 548              		.cfi_def_cfa_offset 0
 549 0048 67800000 		jr	ra
 550              		.cfi_endproc
 551              	.LFE78:
 553              		.text
 554              		.align	2
 555              		.globl	_ZN9SemaphoreD0Ev
 557              	_ZN9SemaphoreD0Ev:
 558              	.LFB65:
 123:src/syscall_cpp.cpp ****     sem_close(myHandle);
 559              		.loc 2 123 1 is_stmt 1
 560              		.cfi_startproc
 561              	.LVL42:
 562 01dc 130101FE 		addi	sp,sp,-32
 563              		.cfi_def_cfa_offset 32
 564 01e0 233C1100 		sd	ra,24(sp)
 565 01e4 23388100 		sd	s0,16(sp)
 566 01e8 23349100 		sd	s1,8(sp)
 567              		.cfi_offset 1, -8
 568              		.cfi_offset 8, -16
 569              		.cfi_offset 9, -24
 570 01ec 13040102 		addi	s0,sp,32
 571              		.cfi_def_cfa 8, 0
 572 01f0 93040500 		mv	s1,a0
 573              		.loc 2 126 1 is_stmt 0
 574 01f4 97000000 		call	_ZN9SemaphoreD1Ev
 574      E7800000 
 575              	.LVL43:
 576 01fc 13850400 		mv	a0,s1
 577 0200 97000000 		call	_ZdlPv
 577      E7800000 
 578              	.LVL44:
 579 0208 83308101 		ld	ra,24(sp)
 580              		.cfi_restore 1
 581 020c 03340101 		ld	s0,16(sp)
 582              		.cfi_restore 8
 583              		.cfi_def_cfa 2, 32
 584 0210 83348100 		ld	s1,8(sp)
 585              		.cfi_restore 9
 586              	.LVL45:
 587 0214 13010102 		addi	sp,sp,32
 588              		.cfi_def_cfa_offset 0
 589 0218 67800000 		jr	ra
 590              		.cfi_endproc
 591              	.LFE65:
 593              		.align	2
 594              		.globl	_ZdaPv
 596              	_ZdaPv:
 597              	.LFB37:
  27:src/syscall_cpp.cpp **** mem_free(ptr);
 598              		.loc 2 27 10 is_stmt 1
 599              		.cfi_startproc
GAS LISTING /tmp/ccPwnx9J.s 			page 17


 600              		.cfi_personality 0x9b,DW.ref.__gxx_personality_v0
 601              		.cfi_lsda 0x1b,.LLSDA37
 602              	.LVL46:
 603 021c 130101FF 		addi	sp,sp,-16
 604              		.cfi_def_cfa_offset 16
 605 0220 23341100 		sd	ra,8(sp)
 606 0224 23308100 		sd	s0,0(sp)
 607              		.cfi_offset 1, -8
 608              		.cfi_offset 8, -16
 609 0228 13040101 		addi	s0,sp,16
 610              		.cfi_def_cfa 8, 0
  28:src/syscall_cpp.cpp **** }
 611              		.loc 2 28 1
  28:src/syscall_cpp.cpp **** }
 612              		.loc 2 28 9 is_stmt 0
 613 022c 97000000 		call	_Z8mem_freePv@plt
 613      E7800000 
 614              	.LVL47:
  29:src/syscall_cpp.cpp **** 
 615              		.loc 2 29 1
 616 0234 83308100 		ld	ra,8(sp)
 617              		.cfi_restore 1
 618 0238 03340100 		ld	s0,0(sp)
 619              		.cfi_restore 8
 620              		.cfi_def_cfa 2, 16
 621 023c 13010101 		addi	sp,sp,16
 622              		.cfi_def_cfa_offset 0
 623 0240 67800000 		jr	ra
 624              		.cfi_endproc
 625              	.LFE37:
 626              		.section	.gcc_except_table
 627              	.LLSDA37:
 628 000c FF       		.byte	0xff
 629 000d FF       		.byte	0xff
 630 000e 03       		.byte	0x3
 631 000f 00       		.byte	0
 632              		.text
 634              		.align	2
 635              		.globl	_ZN6ThreadC2EPFvPvES0_
 637              	_ZN6ThreadC2EPFvPvES0_:
 638              	.LFB39:
  31:src/syscall_cpp.cpp ****     this->body = body;
 639              		.loc 2 31 1 is_stmt 1
 640              		.cfi_startproc
 641              	.LVL48:
 642 0244 130101FD 		addi	sp,sp,-48
 643              		.cfi_def_cfa_offset 48
 644 0248 23341102 		sd	ra,40(sp)
 645 024c 23308102 		sd	s0,32(sp)
 646 0250 233C9100 		sd	s1,24(sp)
 647 0254 23382101 		sd	s2,16(sp)
 648 0258 23343101 		sd	s3,8(sp)
 649              		.cfi_offset 1, -8
 650              		.cfi_offset 8, -16
 651              		.cfi_offset 9, -24
 652              		.cfi_offset 18, -32
 653              		.cfi_offset 19, -40
GAS LISTING /tmp/ccPwnx9J.s 			page 18


 654 025c 13040103 		addi	s0,sp,48
 655              		.cfi_def_cfa 8, 0
 656 0260 93040500 		mv	s1,a0
 657 0264 13890500 		mv	s2,a1
 658 0268 93090600 		mv	s3,a2
 659              	.LBB75:
  31:src/syscall_cpp.cpp ****     this->body = body;
 660              		.loc 2 31 47 is_stmt 0
 661 026c 97070000 		lla	a5,_ZTV6Thread+16
 661      93870700 
 662 0274 2330F500 		sd	a5,0(a0)
 663              	.LBB76:
  32:src/syscall_cpp.cpp ****     this->arg = arg;
 664              		.loc 2 32 5 is_stmt 1
  32:src/syscall_cpp.cpp ****     this->arg = arg;
 665              		.loc 2 32 16 is_stmt 0
 666 0278 2338B500 		sd	a1,16(a0)
  33:src/syscall_cpp.cpp ****     //stvaranje steka ako se ne radi o main kernel niti, posto ona automatski ima stek
 667              		.loc 2 33 5 is_stmt 1
  33:src/syscall_cpp.cpp ****     //stvaranje steka ako se ne radi o main kernel niti, posto ona automatski ima stek
 668              		.loc 2 33 15 is_stmt 0
 669 027c 233CC500 		sd	a2,24(a0)
  35:src/syscall_cpp.cpp ****     if (body != nullptr) {
 670              		.loc 2 35 5 is_stmt 1
 671              	.LVL49:
  36:src/syscall_cpp.cpp ****         stack = (uint64*)mem_alloc(DEFAULT_STACK_SIZE);
 672              		.loc 2 36 5
 673 0280 63860504 		beqz	a1,.L41
  37:src/syscall_cpp.cpp ****     }
 674              		.loc 2 37 9
  37:src/syscall_cpp.cpp ****     }
 675              		.loc 2 37 35 is_stmt 0
 676 0284 37150000 		li	a0,4096
 677              	.LVL50:
 678 0288 97000000 		call	_Z9mem_allocm@plt
 678      E7800000 
 679              	.LVL51:
 680 0290 13030500 		mv	t1,a0
 681              	.LVL52:
 682              	.L40:
  40:src/syscall_cpp.cpp ****     __asm__ volatile("mv a3, %[arg]": :[arg] "r"(arg):"a5", "a0", "a1", "a2", "a3", "a4", "a6", "a7
 683              		.loc 2 40 5 is_stmt 1
  40:src/syscall_cpp.cpp ****     __asm__ volatile("mv a3, %[arg]": :[arg] "r"(arg):"a5", "a0", "a1", "a2", "a3", "a4", "a6", "a7
 684              		.loc 2 40 102 is_stmt 0
 685              	#APP
 686              	# 40 "src/syscall_cpp.cpp" 1
  41:src/syscall_cpp.cpp ****     __asm__ volatile("mv a2, %[function]": :[function] "r"(
 687              		mv a4, t1
 688              	# 0 "" 2
 689              		.loc 2 41 5 is_stmt 1
  41:src/syscall_cpp.cpp ****     __asm__ volatile("mv a2, %[function]": :[function] "r"(
 690              		.loc 2 41 102 is_stmt 0
 691              	# 41 "src/syscall_cpp.cpp" 1
  42:src/syscall_cpp.cpp ****             body):"a5", "a0", "a1", "a2", "a3", "a4", "a6", "a7");
 692              		mv a3, s3
 693              	# 0 "" 2
 694              		.loc 2 42 5 is_stmt 1
GAS LISTING /tmp/ccPwnx9J.s 			page 19


  43:src/syscall_cpp.cpp ****     __asm__ volatile("mv a1, %[handle]": :[handle] "r"(&myHandle):"a5", "a0", "a1", "a2", "a3", "a4
 695              		.loc 2 43 66 is_stmt 0
 696              	# 43 "src/syscall_cpp.cpp" 1
  44:src/syscall_cpp.cpp ****     __asm__ volatile("li a0, 0x80");
 697              		mv a2, s2
 698              	# 0 "" 2
 699              		.loc 2 44 5 is_stmt 1
  44:src/syscall_cpp.cpp ****     __asm__ volatile("li a0, 0x80");
 700              		.loc 2 44 56 is_stmt 0
 701              	#NO_APP
 702 02a0 93848400 		addi	s1,s1,8
 703              	.LVL53:
  44:src/syscall_cpp.cpp ****     __asm__ volatile("li a0, 0x80");
 704              		.loc 2 44 114
 705              	#APP
 706              	# 44 "src/syscall_cpp.cpp" 1
  45:src/syscall_cpp.cpp ****     //a0 = 0x80
 707              		mv a1, s1
 708              	# 0 "" 2
 709              		.loc 2 45 5 is_stmt 1
  45:src/syscall_cpp.cpp ****     //a0 = 0x80
 710              		.loc 2 45 36 is_stmt 0
 711              	# 45 "src/syscall_cpp.cpp" 1
  52:src/syscall_cpp.cpp **** }
 712              		li a0, 0x80
 713              	# 0 "" 2
 714              		.loc 2 52 5 is_stmt 1
  52:src/syscall_cpp.cpp **** }
 715              		.loc 2 52 30 is_stmt 0
 716              	# 52 "src/syscall_cpp.cpp" 1
 717              		ecall
 718              	# 0 "" 2
 719              	#NO_APP
 720              	.LBE76:
 721              	.LBE75:
  53:src/syscall_cpp.cpp **** 
 722              		.loc 2 53 1
 723 02b0 83308102 		ld	ra,40(sp)
 724              		.cfi_remember_state
 725              		.cfi_restore 1
 726 02b4 03340102 		ld	s0,32(sp)
 727              		.cfi_restore 8
 728              		.cfi_def_cfa 2, 48
 729 02b8 83348101 		ld	s1,24(sp)
 730              		.cfi_restore 9
 731              	.LVL54:
 732 02bc 03390101 		ld	s2,16(sp)
 733              		.cfi_restore 18
 734              	.LVL55:
 735 02c0 83398100 		ld	s3,8(sp)
 736              		.cfi_restore 19
 737              	.LVL56:
 738 02c4 13010103 		addi	sp,sp,48
 739              		.cfi_def_cfa_offset 0
 740 02c8 67800000 		jr	ra
 741              	.LVL57:
 742              	.L41:
GAS LISTING /tmp/ccPwnx9J.s 			page 20


 743              		.cfi_restore_state
 744              	.LBB78:
 745              	.LBB77:
  35:src/syscall_cpp.cpp ****     if (body != nullptr) {
 746              		.loc 2 35 13
 747 02cc 13030000 		li	t1,0
 748 02d0 6FF05FFC 		j	.L40
 749              	.LBE77:
 750              	.LBE78:
 751              		.cfi_endproc
 752              	.LFE39:
 754              		.globl	_ZN6ThreadC1EPFvPvES0_
 755              		.set	_ZN6ThreadC1EPFvPvES0_,_ZN6ThreadC2EPFvPvES0_
 756              		.align	2
 757              		.globl	_ZN6Thread5startEv
 759              	_ZN6Thread5startEv:
 760              	.LFB48:
  64:src/syscall_cpp.cpp ****     if (myHandle == nullptr) return -1;
 761              		.loc 2 64 21 is_stmt 1
 762              		.cfi_startproc
 763              	.LVL58:
 764 02d4 130101FF 		addi	sp,sp,-16
 765              		.cfi_def_cfa_offset 16
 766 02d8 23348100 		sd	s0,8(sp)
 767              		.cfi_offset 8, -8
 768 02dc 13040101 		addi	s0,sp,16
 769              		.cfi_def_cfa 8, 0
  65:src/syscall_cpp.cpp ****     __asm__ volatile("mv a1, %[handle]": :[handle] "r"(myHandle):"a5", "a0", "a1", "a2", "a3", "a4"
 770              		.loc 2 65 5
  65:src/syscall_cpp.cpp ****     __asm__ volatile("mv a1, %[handle]": :[handle] "r"(myHandle):"a5", "a0", "a1", "a2", "a3", "a4"
 771              		.loc 2 65 9 is_stmt 0
 772 02e0 03338500 		ld	t1,8(a0)
  65:src/syscall_cpp.cpp ****     __asm__ volatile("mv a1, %[handle]": :[handle] "r"(myHandle):"a5", "a0", "a1", "a2", "a3", "a4"
 773              		.loc 2 65 5
 774 02e4 63000302 		beqz	t1,.L45
  66:src/syscall_cpp.cpp ****     __asm__ volatile("li a0, 0x81");
 775              		.loc 2 66 5 is_stmt 1
  66:src/syscall_cpp.cpp ****     __asm__ volatile("li a0, 0x81");
 776              		.loc 2 66 113 is_stmt 0
 777              	#APP
 778              	# 66 "src/syscall_cpp.cpp" 1
 779              		mv a1, t1
 780              	# 0 "" 2
 781              	.LVL59:
  67:src/syscall_cpp.cpp **** 
 782              		.loc 2 67 5 is_stmt 1
  67:src/syscall_cpp.cpp **** 
 783              		.loc 2 67 36 is_stmt 0
 784              	# 67 "src/syscall_cpp.cpp" 1
  69:src/syscall_cpp.cpp **** 
 785              		li a0, 0x81
 786              	# 0 "" 2
 787              		.loc 2 69 5 is_stmt 1
  69:src/syscall_cpp.cpp **** 
 788              		.loc 2 69 30 is_stmt 0
 789              	# 69 "src/syscall_cpp.cpp" 1
  71:src/syscall_cpp.cpp **** }
GAS LISTING /tmp/ccPwnx9J.s 			page 21


 790              		ecall
 791              	# 0 "" 2
 792              		.loc 2 71 5 is_stmt 1
  71:src/syscall_cpp.cpp **** }
 793              		.loc 2 71 12 is_stmt 0
 794              	#NO_APP
 795 02f4 13050000 		li	a0,0
 796              	.L44:
  72:src/syscall_cpp.cpp **** 
 797              		.loc 2 72 1
 798 02f8 03348100 		ld	s0,8(sp)
 799              		.cfi_remember_state
 800              		.cfi_restore 8
 801              		.cfi_def_cfa 2, 16
 802 02fc 13010101 		addi	sp,sp,16
 803              		.cfi_def_cfa_offset 0
 804 0300 67800000 		jr	ra
 805              	.LVL60:
 806              	.L45:
 807              		.cfi_restore_state
  65:src/syscall_cpp.cpp ****     __asm__ volatile("mv a1, %[handle]": :[handle] "r"(myHandle):"a5", "a0", "a1", "a2", "a3", "a4"
 808              		.loc 2 65 38
 809 0304 1305F0FF 		li	a0,-1
 810              	.LVL61:
 811 0308 6FF01FFF 		j	.L44
 812              		.cfi_endproc
 813              	.LFE48:
 815              		.align	2
 816              		.globl	_ZN6Thread4joinEv
 818              	_ZN6Thread4joinEv:
 819              	.LFB49:
  74:src/syscall_cpp.cpp ****     thread_join(myHandle);
 820              		.loc 2 74 21 is_stmt 1
 821              		.cfi_startproc
 822              	.LVL62:
 823 030c 130101FF 		addi	sp,sp,-16
 824              		.cfi_def_cfa_offset 16
 825 0310 23341100 		sd	ra,8(sp)
 826 0314 23308100 		sd	s0,0(sp)
 827              		.cfi_offset 1, -8
 828              		.cfi_offset 8, -16
 829 0318 13040101 		addi	s0,sp,16
 830              		.cfi_def_cfa 8, 0
  75:src/syscall_cpp.cpp **** }
 831              		.loc 2 75 5
  75:src/syscall_cpp.cpp **** }
 832              		.loc 2 75 16 is_stmt 0
 833 031c 03358500 		ld	a0,8(a0)
 834              	.LVL63:
 835 0320 97000000 		call	_Z11thread_joinP3TCB@plt
 835      E7800000 
 836              	.LVL64:
  76:src/syscall_cpp.cpp **** 
 837              		.loc 2 76 1
 838 0328 83308100 		ld	ra,8(sp)
 839              		.cfi_restore 1
 840 032c 03340100 		ld	s0,0(sp)
GAS LISTING /tmp/ccPwnx9J.s 			page 22


 841              		.cfi_restore 8
 842              		.cfi_def_cfa 2, 16
 843 0330 13010101 		addi	sp,sp,16
 844              		.cfi_def_cfa_offset 0
 845 0334 67800000 		jr	ra
 846              		.cfi_endproc
 847              	.LFE49:
 849              		.align	2
 850              		.globl	_ZN6Thread8dispatchEv
 852              	_ZN6Thread8dispatchEv:
 853              	.LFB50:
  78:src/syscall_cpp.cpp ****     thread_dispatch();
 854              		.loc 2 78 25 is_stmt 1
 855              		.cfi_startproc
 856 0338 130101FF 		addi	sp,sp,-16
 857              		.cfi_def_cfa_offset 16
 858 033c 23341100 		sd	ra,8(sp)
 859 0340 23308100 		sd	s0,0(sp)
 860              		.cfi_offset 1, -8
 861              		.cfi_offset 8, -16
 862 0344 13040101 		addi	s0,sp,16
 863              		.cfi_def_cfa 8, 0
  79:src/syscall_cpp.cpp **** }
 864              		.loc 2 79 5
  79:src/syscall_cpp.cpp **** }
 865              		.loc 2 79 20 is_stmt 0
 866 0348 97000000 		call	_Z15thread_dispatchv@plt
 866      E7800000 
 867              	.LVL65:
  80:src/syscall_cpp.cpp **** 
 868              		.loc 2 80 1
 869 0350 83308100 		ld	ra,8(sp)
 870              		.cfi_restore 1
 871 0354 03340100 		ld	s0,0(sp)
 872              		.cfi_restore 8
 873              		.cfi_def_cfa 2, 16
 874 0358 13010101 		addi	sp,sp,16
 875              		.cfi_def_cfa_offset 0
 876 035c 67800000 		jr	ra
 877              		.cfi_endproc
 878              	.LFE50:
 880              		.align	2
 881              		.globl	_ZN6Thread5sleepEm
 883              	_ZN6Thread5sleepEm:
 884              	.LFB51:
  82:src/syscall_cpp.cpp ****     //Scheduler::putToSleep(TCB::running, t);
 885              		.loc 2 82 29 is_stmt 1
 886              		.cfi_startproc
 887              	.LVL66:
 888 0360 130101FF 		addi	sp,sp,-16
 889              		.cfi_def_cfa_offset 16
 890 0364 23341100 		sd	ra,8(sp)
 891 0368 23308100 		sd	s0,0(sp)
 892              		.cfi_offset 1, -8
 893              		.cfi_offset 8, -16
 894 036c 13040101 		addi	s0,sp,16
 895              		.cfi_def_cfa 8, 0
GAS LISTING /tmp/ccPwnx9J.s 			page 23


  84:src/syscall_cpp.cpp ****     return 0;
 896              		.loc 2 84 5
  84:src/syscall_cpp.cpp ****     return 0;
 897              		.loc 2 84 15 is_stmt 0
 898 0370 97000000 		call	_Z10time_sleepm@plt
 898      E7800000 
 899              	.LVL67:
  85:src/syscall_cpp.cpp **** }
 900              		.loc 2 85 5 is_stmt 1
  86:src/syscall_cpp.cpp **** 
 901              		.loc 2 86 1 is_stmt 0
 902 0378 13050000 		li	a0,0
 903 037c 83308100 		ld	ra,8(sp)
 904              		.cfi_restore 1
 905 0380 03340100 		ld	s0,0(sp)
 906              		.cfi_restore 8
 907              		.cfi_def_cfa 2, 16
 908 0384 13010101 		addi	sp,sp,16
 909              		.cfi_def_cfa_offset 0
 910 0388 67800000 		jr	ra
 911              		.cfi_endproc
 912              	.LFE51:
 914              		.align	2
 915              		.globl	_ZN14PeriodicThread3runEv
 917              	_ZN14PeriodicThread3runEv:
 918              	.LFB72:
 127:src/syscall_cpp.cpp **** 
 128:src/syscall_cpp.cpp **** int Semaphore::wait() {
 129:src/syscall_cpp.cpp ****     return sem_wait(myHandle);
 130:src/syscall_cpp.cpp **** }
 131:src/syscall_cpp.cpp **** 
 132:src/syscall_cpp.cpp **** int Semaphore::signal() {
 133:src/syscall_cpp.cpp ****     return sem_signal(myHandle);
 134:src/syscall_cpp.cpp **** }
 135:src/syscall_cpp.cpp **** 
 136:src/syscall_cpp.cpp **** void PeriodicThread::terminate() {
 137:src/syscall_cpp.cpp **** }
 138:src/syscall_cpp.cpp **** 
 139:src/syscall_cpp.cpp **** PeriodicThread::PeriodicThread(time_t period) : Thread(), period(period) {
 140:src/syscall_cpp.cpp ****     if (this->period < 0) this->period = 2;
 141:src/syscall_cpp.cpp **** }
 142:src/syscall_cpp.cpp **** 
 143:src/syscall_cpp.cpp **** void PeriodicThread::run() {
 919              		.loc 2 143 28 is_stmt 1
 920              		.cfi_startproc
 921              	.LVL68:
 922 038c 130101FE 		addi	sp,sp,-32
 923              		.cfi_def_cfa_offset 32
 924 0390 233C1100 		sd	ra,24(sp)
 925 0394 23388100 		sd	s0,16(sp)
 926 0398 23349100 		sd	s1,8(sp)
 927              		.cfi_offset 1, -8
 928              		.cfi_offset 8, -16
 929              		.cfi_offset 9, -24
 930 039c 13040102 		addi	s0,sp,32
 931              		.cfi_def_cfa 8, 0
 932 03a0 93040500 		mv	s1,a0
GAS LISTING /tmp/ccPwnx9J.s 			page 24


 933              	.LVL69:
 934              	.L54:
 144:src/syscall_cpp.cpp ****     while (1) {
 935              		.loc 2 144 5 discriminator 1
 145:src/syscall_cpp.cpp ****         periodicActivation();
 936              		.loc 2 145 9 discriminator 1
 937              		.loc 2 145 28 is_stmt 0 discriminator 1
 938 03a4 83B70400 		ld	a5,0(s1)
 939 03a8 83B78701 		ld	a5,24(a5)
 940              		.loc 2 145 27 discriminator 1
 941 03ac 13850400 		mv	a0,s1
 942 03b0 E7800700 		jalr	a5
 943              	.LVL70:
 146:src/syscall_cpp.cpp ****         sleep(period);
 944              		.loc 2 146 9 is_stmt 1 discriminator 1
 945              		.loc 2 146 14 is_stmt 0 discriminator 1
 946 03b4 03B50402 		ld	a0,32(s1)
 947 03b8 97000000 		call	_ZN6Thread5sleepEm
 947      E7800000 
 948              	.LVL71:
 144:src/syscall_cpp.cpp ****     while (1) {
 949              		.loc 2 144 5 is_stmt 1 discriminator 1
 950 03c0 6FF05FFE 		j	.L54
 951              		.cfi_endproc
 952              	.LFE72:
 954              		.align	2
 955              		.globl	_ZN6ThreadC2Ev
 957              	_ZN6ThreadC2Ev:
 958              	.LFB53:
  88:src/syscall_cpp.cpp ****     this->body = wrapper;
 959              		.loc 2 88 1
 960              		.cfi_startproc
 961              	.LVL72:
 962 03c4 130101FE 		addi	sp,sp,-32
 963              		.cfi_def_cfa_offset 32
 964 03c8 233C1100 		sd	ra,24(sp)
 965 03cc 23388100 		sd	s0,16(sp)
 966 03d0 23349100 		sd	s1,8(sp)
 967              		.cfi_offset 1, -8
 968              		.cfi_offset 8, -16
 969              		.cfi_offset 9, -24
 970 03d4 13040102 		addi	s0,sp,32
 971              		.cfi_def_cfa 8, 0
 972 03d8 93040500 		mv	s1,a0
 973              	.LBB79:
  88:src/syscall_cpp.cpp ****     this->body = wrapper;
 974              		.loc 2 88 16 is_stmt 0
 975 03dc 97070000 		lla	a5,_ZTV6Thread+16
 975      93870700 
 976 03e4 2330F500 		sd	a5,0(a0)
 977              	.LBB80:
  89:src/syscall_cpp.cpp ****     this->arg = this;
 978              		.loc 2 89 5 is_stmt 1
  89:src/syscall_cpp.cpp ****     this->arg = this;
 979              		.loc 2 89 16 is_stmt 0
 980 03e8 97070000 		lla	a5,_ZN6Thread7wrapperEPv
 980      93870700 
GAS LISTING /tmp/ccPwnx9J.s 			page 25


 981 03f0 2338F500 		sd	a5,16(a0)
  90:src/syscall_cpp.cpp ****     //stvaranje steka ako se ne radi o main kernel niti, posto ona automatski ima stek
 982              		.loc 2 90 5 is_stmt 1
  90:src/syscall_cpp.cpp ****     //stvaranje steka ako se ne radi o main kernel niti, posto ona automatski ima stek
 983              		.loc 2 90 15 is_stmt 0
 984 03f4 233CA500 		sd	a0,24(a0)
  92:src/syscall_cpp.cpp ****     if (body != nullptr) {
 985              		.loc 2 92 5 is_stmt 1
 986              	.LVL73:
  93:src/syscall_cpp.cpp ****         stack = (uint64*)mem_alloc(DEFAULT_STACK_SIZE);
 987              		.loc 2 93 5
  94:src/syscall_cpp.cpp ****     }
 988              		.loc 2 94 9
  94:src/syscall_cpp.cpp ****     }
 989              		.loc 2 94 35 is_stmt 0
 990 03f8 37150000 		li	a0,4096
 991              	.LVL74:
 992 03fc 97000000 		call	_Z9mem_allocm@plt
 992      E7800000 
 993              	.LVL75:
 994 0404 13030500 		mv	t1,a0
 995              	.LVL76:
  98:src/syscall_cpp.cpp ****     __asm__ volatile("mv a3, %[arg]": :[arg] "r"(arg):"a5", "a0", "a1", "a2", "a3", "a4", "a6", "a7
 996              		.loc 2 98 5 is_stmt 1
  98:src/syscall_cpp.cpp ****     __asm__ volatile("mv a3, %[arg]": :[arg] "r"(arg):"a5", "a0", "a1", "a2", "a3", "a4", "a6", "a7
 997              		.loc 2 98 102 is_stmt 0
 998              	#APP
 999              	# 98 "src/syscall_cpp.cpp" 1
  99:src/syscall_cpp.cpp ****     __asm__ volatile("mv a2, %[function]": :[function] "r"(
 1000              		mv a4, t1
 1001              	# 0 "" 2
 1002              		.loc 2 99 5 is_stmt 1
  99:src/syscall_cpp.cpp ****     __asm__ volatile("mv a2, %[function]": :[function] "r"(
 1003              		.loc 2 99 50 is_stmt 0
 1004              	#NO_APP
 1005 040c 03B38401 		ld	t1,24(s1)
 1006              	.LVL77:
  99:src/syscall_cpp.cpp ****     __asm__ volatile("mv a2, %[function]": :[function] "r"(
 1007              		.loc 2 99 102
 1008              	#APP
 1009              	# 99 "src/syscall_cpp.cpp" 1
 100:src/syscall_cpp.cpp ****             body):"a5", "a0", "a1", "a2", "a3", "a4", "a6", "a7");
 1010              		mv a3, t1
 1011              	# 0 "" 2
 1012              		.loc 2 100 5 is_stmt 1
 101:src/syscall_cpp.cpp ****     __asm__ volatile("mv a1, %[handle]": :[handle] "r"(&myHandle):"a5", "a0", "a1", "a2", "a3", "a4
 1013              		.loc 2 101 13 is_stmt 0
 1014              	#NO_APP
 1015 0414 03B30401 		ld	t1,16(s1)
 101:src/syscall_cpp.cpp ****     __asm__ volatile("mv a1, %[handle]": :[handle] "r"(&myHandle):"a5", "a0", "a1", "a2", "a3", "a4
 1016              		.loc 2 101 66
 1017              	#APP
 1018              	# 101 "src/syscall_cpp.cpp" 1
 102:src/syscall_cpp.cpp ****     __asm__ volatile("li a0, 0x80");
 1019              		mv a2, t1
 1020              	# 0 "" 2
 1021              		.loc 2 102 5 is_stmt 1
GAS LISTING /tmp/ccPwnx9J.s 			page 26


 102:src/syscall_cpp.cpp ****     __asm__ volatile("li a0, 0x80");
 1022              		.loc 2 102 56 is_stmt 0
 1023              	#NO_APP
 1024 041c 93848400 		addi	s1,s1,8
 1025              	.LVL78:
 102:src/syscall_cpp.cpp ****     __asm__ volatile("li a0, 0x80");
 1026              		.loc 2 102 114
 1027              	#APP
 1028              	# 102 "src/syscall_cpp.cpp" 1
 103:src/syscall_cpp.cpp ****     //a0 = 0x80
 1029              		mv a1, s1
 1030              	# 0 "" 2
 1031              		.loc 2 103 5 is_stmt 1
 103:src/syscall_cpp.cpp ****     //a0 = 0x80
 1032              		.loc 2 103 36 is_stmt 0
 1033              	# 103 "src/syscall_cpp.cpp" 1
 110:src/syscall_cpp.cpp **** }
 1034              		li a0, 0x80
 1035              	# 0 "" 2
 1036              		.loc 2 110 5 is_stmt 1
 110:src/syscall_cpp.cpp **** }
 1037              		.loc 2 110 30 is_stmt 0
 1038              	# 110 "src/syscall_cpp.cpp" 1
 1039              		ecall
 1040              	# 0 "" 2
 1041              	#NO_APP
 1042              	.LBE80:
 1043              	.LBE79:
 111:src/syscall_cpp.cpp **** 
 1044              		.loc 2 111 1
 1045 042c 83308101 		ld	ra,24(sp)
 1046              		.cfi_restore 1
 1047 0430 03340101 		ld	s0,16(sp)
 1048              		.cfi_restore 8
 1049              		.cfi_def_cfa 2, 32
 1050 0434 83348100 		ld	s1,8(sp)
 1051              		.cfi_restore 9
 1052              	.LVL79:
 1053 0438 13010102 		addi	sp,sp,32
 1054              		.cfi_def_cfa_offset 0
 1055 043c 67800000 		jr	ra
 1056              		.cfi_endproc
 1057              	.LFE53:
 1059              		.globl	_ZN6ThreadC1Ev
 1060              		.set	_ZN6ThreadC1Ev,_ZN6ThreadC2Ev
 1061              		.align	2
 1062              		.globl	_ZN9SemaphoreC2Ej
 1064              	_ZN9SemaphoreC2Ej:
 1065              	.LFB57:
 119:src/syscall_cpp.cpp ****     sem_open(&myHandle, init);
 1066              		.loc 2 119 1 is_stmt 1
 1067              		.cfi_startproc
 1068              	.LVL80:
 1069 0440 130101FF 		addi	sp,sp,-16
 1070              		.cfi_def_cfa_offset 16
 1071 0444 23341100 		sd	ra,8(sp)
 1072 0448 23308100 		sd	s0,0(sp)
GAS LISTING /tmp/ccPwnx9J.s 			page 27


 1073              		.cfi_offset 1, -8
 1074              		.cfi_offset 8, -16
 1075 044c 13040101 		addi	s0,sp,16
 1076              		.cfi_def_cfa 8, 0
 1077              	.LBB81:
 119:src/syscall_cpp.cpp ****     sem_open(&myHandle, init);
 1078              		.loc 2 119 39 is_stmt 0
 1079 0450 97070000 		lla	a5,_ZTV9Semaphore+16
 1079      93870700 
 1080 0458 2330F500 		sd	a5,0(a0)
 120:src/syscall_cpp.cpp **** }
 1081              		.loc 2 120 5 is_stmt 1
 120:src/syscall_cpp.cpp **** }
 1082              		.loc 2 120 13 is_stmt 0
 1083 045c 13058500 		addi	a0,a0,8
 1084              	.LVL81:
 1085 0460 97000000 		call	_Z8sem_openPP4KSemj@plt
 1085      E7800000 
 1086              	.LVL82:
 1087              	.LBE81:
 121:src/syscall_cpp.cpp **** 
 1088              		.loc 2 121 1
 1089 0468 83308100 		ld	ra,8(sp)
 1090              		.cfi_restore 1
 1091 046c 03340100 		ld	s0,0(sp)
 1092              		.cfi_restore 8
 1093              		.cfi_def_cfa 2, 16
 1094 0470 13010101 		addi	sp,sp,16
 1095              		.cfi_def_cfa_offset 0
 1096 0474 67800000 		jr	ra
 1097              		.cfi_endproc
 1098              	.LFE57:
 1100              		.globl	_ZN9SemaphoreC1Ej
 1101              		.set	_ZN9SemaphoreC1Ej,_ZN9SemaphoreC2Ej
 1102              		.align	2
 1103              		.globl	_ZN9Semaphore4waitEv
 1105              	_ZN9Semaphore4waitEv:
 1106              	.LFB66:
 128:src/syscall_cpp.cpp ****     return sem_wait(myHandle);
 1107              		.loc 2 128 23 is_stmt 1
 1108              		.cfi_startproc
 1109              	.LVL83:
 1110 0478 130101FF 		addi	sp,sp,-16
 1111              		.cfi_def_cfa_offset 16
 1112 047c 23341100 		sd	ra,8(sp)
 1113 0480 23308100 		sd	s0,0(sp)
 1114              		.cfi_offset 1, -8
 1115              		.cfi_offset 8, -16
 1116 0484 13040101 		addi	s0,sp,16
 1117              		.cfi_def_cfa 8, 0
 129:src/syscall_cpp.cpp **** }
 1118              		.loc 2 129 5
 129:src/syscall_cpp.cpp **** }
 1119              		.loc 2 129 20 is_stmt 0
 1120 0488 03358500 		ld	a0,8(a0)
 1121              	.LVL84:
 1122 048c 97000000 		call	_Z8sem_waitP4KSem@plt
GAS LISTING /tmp/ccPwnx9J.s 			page 28


 1122      E7800000 
 1123              	.LVL85:
 130:src/syscall_cpp.cpp **** 
 1124              		.loc 2 130 1
 1125 0494 83308100 		ld	ra,8(sp)
 1126              		.cfi_restore 1
 1127 0498 03340100 		ld	s0,0(sp)
 1128              		.cfi_restore 8
 1129              		.cfi_def_cfa 2, 16
 1130 049c 13010101 		addi	sp,sp,16
 1131              		.cfi_def_cfa_offset 0
 1132 04a0 67800000 		jr	ra
 1133              		.cfi_endproc
 1134              	.LFE66:
 1136              		.align	2
 1137              		.globl	_ZN9Semaphore6signalEv
 1139              	_ZN9Semaphore6signalEv:
 1140              	.LFB67:
 132:src/syscall_cpp.cpp ****     return sem_signal(myHandle);
 1141              		.loc 2 132 25 is_stmt 1
 1142              		.cfi_startproc
 1143              	.LVL86:
 1144 04a4 130101FF 		addi	sp,sp,-16
 1145              		.cfi_def_cfa_offset 16
 1146 04a8 23341100 		sd	ra,8(sp)
 1147 04ac 23308100 		sd	s0,0(sp)
 1148              		.cfi_offset 1, -8
 1149              		.cfi_offset 8, -16
 1150 04b0 13040101 		addi	s0,sp,16
 1151              		.cfi_def_cfa 8, 0
 133:src/syscall_cpp.cpp **** }
 1152              		.loc 2 133 5
 133:src/syscall_cpp.cpp **** }
 1153              		.loc 2 133 22 is_stmt 0
 1154 04b4 03358500 		ld	a0,8(a0)
 1155              	.LVL87:
 1156 04b8 97000000 		call	_Z10sem_signalP4KSem@plt
 1156      E7800000 
 1157              	.LVL88:
 134:src/syscall_cpp.cpp **** 
 1158              		.loc 2 134 1
 1159 04c0 83308100 		ld	ra,8(sp)
 1160              		.cfi_restore 1
 1161 04c4 03340100 		ld	s0,0(sp)
 1162              		.cfi_restore 8
 1163              		.cfi_def_cfa 2, 16
 1164 04c8 13010101 		addi	sp,sp,16
 1165              		.cfi_def_cfa_offset 0
 1166 04cc 67800000 		jr	ra
 1167              		.cfi_endproc
 1168              	.LFE67:
 1170              		.align	2
 1171              		.globl	_ZN14PeriodicThread9terminateEv
 1173              	_ZN14PeriodicThread9terminateEv:
 1174              	.LFB68:
 136:src/syscall_cpp.cpp **** }
 1175              		.loc 2 136 34 is_stmt 1
GAS LISTING /tmp/ccPwnx9J.s 			page 29


 1176              		.cfi_startproc
 1177              	.LVL89:
 1178 04d0 130101FF 		addi	sp,sp,-16
 1179              		.cfi_def_cfa_offset 16
 1180 04d4 23348100 		sd	s0,8(sp)
 1181              		.cfi_offset 8, -8
 1182 04d8 13040101 		addi	s0,sp,16
 1183              		.cfi_def_cfa 8, 0
 137:src/syscall_cpp.cpp **** 
 1184              		.loc 2 137 1 is_stmt 0
 1185 04dc 03348100 		ld	s0,8(sp)
 1186              		.cfi_restore 8
 1187              		.cfi_def_cfa 2, 16
 1188 04e0 13010101 		addi	sp,sp,16
 1189              		.cfi_def_cfa_offset 0
 1190 04e4 67800000 		jr	ra
 1191              		.cfi_endproc
 1192              	.LFE68:
 1194              		.align	2
 1195              		.globl	_ZN14PeriodicThreadC2Em
 1197              	_ZN14PeriodicThreadC2Em:
 1198              	.LFB70:
 139:src/syscall_cpp.cpp ****     if (this->period < 0) this->period = 2;
 1199              		.loc 2 139 1 is_stmt 1
 1200              		.cfi_startproc
 1201              	.LVL90:
 1202 04e8 130101FE 		addi	sp,sp,-32
 1203              		.cfi_def_cfa_offset 32
 1204 04ec 233C1100 		sd	ra,24(sp)
 1205 04f0 23388100 		sd	s0,16(sp)
 1206 04f4 23349100 		sd	s1,8(sp)
 1207 04f8 23302101 		sd	s2,0(sp)
 1208              		.cfi_offset 1, -8
 1209              		.cfi_offset 8, -16
 1210              		.cfi_offset 9, -24
 1211              		.cfi_offset 18, -32
 1212 04fc 13040102 		addi	s0,sp,32
 1213              		.cfi_def_cfa 8, 0
 1214 0500 93040500 		mv	s1,a0
 1215 0504 13890500 		mv	s2,a1
 1216              	.LBB82:
 139:src/syscall_cpp.cpp ****     if (this->period < 0) this->period = 2;
 1217              		.loc 2 139 72 is_stmt 0
 1218 0508 97000000 		call	_ZN6ThreadC2Ev
 1218      E7800000 
 1219              	.LVL91:
 1220 0510 97070000 		lla	a5,_ZTV14PeriodicThread+16
 1220      93870700 
 1221 0518 23B0F400 		sd	a5,0(s1)
 1222 051c 23B02403 		sd	s2,32(s1)
 140:src/syscall_cpp.cpp **** }
 1223              		.loc 2 140 5 is_stmt 1
 1224              	.LBE82:
 141:src/syscall_cpp.cpp **** 
 1225              		.loc 2 141 1 is_stmt 0
 1226 0520 83308101 		ld	ra,24(sp)
 1227              		.cfi_restore 1
GAS LISTING /tmp/ccPwnx9J.s 			page 30


 1228 0524 03340101 		ld	s0,16(sp)
 1229              		.cfi_restore 8
 1230              		.cfi_def_cfa 2, 32
 1231 0528 83348100 		ld	s1,8(sp)
 1232              		.cfi_restore 9
 1233              	.LVL92:
 1234 052c 03390100 		ld	s2,0(sp)
 1235              		.cfi_restore 18
 1236              	.LVL93:
 1237 0530 13010102 		addi	sp,sp,32
 1238              		.cfi_def_cfa_offset 0
 1239 0534 67800000 		jr	ra
 1240              		.cfi_endproc
 1241              	.LFE70:
 1243              		.globl	_ZN14PeriodicThreadC1Em
 1244              		.set	_ZN14PeriodicThreadC1Em,_ZN14PeriodicThreadC2Em
 1245              		.align	2
 1246              		.globl	_ZN7Console4getcEv
 1248              	_ZN7Console4getcEv:
 1249              	.LFB73:
 147:src/syscall_cpp.cpp ****     }
 148:src/syscall_cpp.cpp **** }
 149:src/syscall_cpp.cpp **** 
 150:src/syscall_cpp.cpp **** char Console::getc() {
 1250              		.loc 2 150 22 is_stmt 1
 1251              		.cfi_startproc
 1252 0538 130101FF 		addi	sp,sp,-16
 1253              		.cfi_def_cfa_offset 16
 1254 053c 23341100 		sd	ra,8(sp)
 1255 0540 23308100 		sd	s0,0(sp)
 1256              		.cfi_offset 1, -8
 1257              		.cfi_offset 8, -16
 1258 0544 13040101 		addi	s0,sp,16
 1259              		.cfi_def_cfa 8, 0
 151:src/syscall_cpp.cpp ****     return ::getc();
 1260              		.loc 2 151 5
 1261              		.loc 2 151 18 is_stmt 0
 1262 0548 97000000 		call	_Z4getcv@plt
 1262      E7800000 
 1263              	.LVL94:
 152:src/syscall_cpp.cpp **** }
 1264              		.loc 2 152 1
 1265 0550 83308100 		ld	ra,8(sp)
 1266              		.cfi_restore 1
 1267 0554 03340100 		ld	s0,0(sp)
 1268              		.cfi_restore 8
 1269              		.cfi_def_cfa 2, 16
 1270 0558 13010101 		addi	sp,sp,16
 1271              		.cfi_def_cfa_offset 0
 1272 055c 67800000 		jr	ra
 1273              		.cfi_endproc
 1274              	.LFE73:
 1276              		.align	2
 1277              		.globl	_ZN7Console4putcEc
 1279              	_ZN7Console4putcEc:
 1280              	.LFB74:
 153:src/syscall_cpp.cpp **** 
GAS LISTING /tmp/ccPwnx9J.s 			page 31


 154:src/syscall_cpp.cpp **** void Console::putc(char c) {
 1281              		.loc 2 154 28 is_stmt 1
 1282              		.cfi_startproc
 1283              	.LVL95:
 1284 0560 130101FF 		addi	sp,sp,-16
 1285              		.cfi_def_cfa_offset 16
 1286 0564 23341100 		sd	ra,8(sp)
 1287 0568 23308100 		sd	s0,0(sp)
 1288              		.cfi_offset 1, -8
 1289              		.cfi_offset 8, -16
 1290 056c 13040101 		addi	s0,sp,16
 1291              		.cfi_def_cfa 8, 0
 155:src/syscall_cpp.cpp ****     ::putc(c);
 1292              		.loc 2 155 5
 1293              		.loc 2 155 11 is_stmt 0
 1294 0570 97000000 		call	_Z4putcc@plt
 1294      E7800000 
 1295              	.LVL96:
 156:src/syscall_cpp.cpp **** }
 1296              		.loc 2 156 1
 1297 0578 83308100 		ld	ra,8(sp)
 1298              		.cfi_restore 1
 1299 057c 03340100 		ld	s0,0(sp)
 1300              		.cfi_restore 8
 1301              		.cfi_def_cfa 2, 16
 1302 0580 13010101 		addi	sp,sp,16
 1303              		.cfi_def_cfa_offset 0
 1304 0584 67800000 		jr	ra
 1305              		.cfi_endproc
 1306              	.LFE74:
 1308              		.weak	_ZTV6Thread
 1309              		.section	.data.rel.ro.local._ZTV6Thread,"awG",@progbits,_ZTV6Thread,comdat
 1310              		.align	3
 1313              	_ZTV6Thread:
 1314 0000 00000000 		.dword	0
 1314      00000000 
 1315 0008 00000000 		.dword	0
 1315      00000000 
 1316 0010 00000000 		.dword	_ZN6ThreadD1Ev
 1316      00000000 
 1317 0018 00000000 		.dword	_ZN6ThreadD0Ev
 1317      00000000 
 1318 0020 00000000 		.dword	_ZN6Thread3runEv
 1318      00000000 
 1319              		.weak	_ZTV9Semaphore
 1320              		.section	.data.rel.ro.local._ZTV9Semaphore,"awG",@progbits,_ZTV9Semaphore,comdat
 1321              		.align	3
 1324              	_ZTV9Semaphore:
 1325 0000 00000000 		.dword	0
 1325      00000000 
 1326 0008 00000000 		.dword	0
 1326      00000000 
 1327 0010 00000000 		.dword	_ZN9SemaphoreD1Ev
 1327      00000000 
 1328 0018 00000000 		.dword	_ZN9SemaphoreD0Ev
 1328      00000000 
 1329              		.weak	_ZTV14PeriodicThread
GAS LISTING /tmp/ccPwnx9J.s 			page 32


 1330              		.section	.data.rel.ro.local._ZTV14PeriodicThread,"awG",@progbits,_ZTV14PeriodicThread,comdat
 1331              		.align	3
 1334              	_ZTV14PeriodicThread:
 1335 0000 00000000 		.dword	0
 1335      00000000 
 1336 0008 00000000 		.dword	0
 1336      00000000 
 1337 0010 00000000 		.dword	_ZN14PeriodicThreadD1Ev
 1337      00000000 
 1338 0018 00000000 		.dword	_ZN14PeriodicThreadD0Ev
 1338      00000000 
 1339 0020 00000000 		.dword	_ZN14PeriodicThread3runEv
 1339      00000000 
 1340 0028 00000000 		.dword	_ZN14PeriodicThread18periodicActivationEv
 1340      00000000 
 1341              		.text
 1342              	.Letext0:
 1343              		.file 4 "src/../h/../lib/hw.h"
 1344              		.file 5 "src/../h/TCB.hpp"
 1345              		.file 6 "src/../h/KSem.hpp"
 1346              		.file 7 "src/../h/syscall_c.hpp"
 6231              		.align	3
 6234              	DW.ref.__gxx_personality_v0:
 6235 0000 00000000 		.dword	__gxx_personality_v0
 6235      00000000 
 6236              		.ident	"GCC: (Ubuntu 9.4.0-1ubuntu1~20.04) 9.4.0"
 6237              		.section	.note.GNU-stack,"",@progbits
GAS LISTING /tmp/ccPwnx9J.s 			page 33


DEFINED SYMBOLS
                            *ABS*:0000000000000000 syscall_cpp.cpp
     /tmp/ccPwnx9J.s:10     .text._ZN6Thread3runEv:0000000000000000 _ZN6Thread3runEv
     /tmp/ccPwnx9J.s:14     .text._ZN6Thread3runEv:0000000000000000 .L0 
     /tmp/ccPwnx9J.s:16     .text._ZN6Thread3runEv:0000000000000000 .L0 
     /tmp/ccPwnx9J.s:17     .text._ZN6Thread3runEv:0000000000000004 .L0 
     /tmp/ccPwnx9J.s:19     .text._ZN6Thread3runEv:0000000000000008 .L0 
     /tmp/ccPwnx9J.s:21     .text._ZN6Thread3runEv:000000000000000c .L0 
     /tmp/ccPwnx9J.s:23     .text._ZN6Thread3runEv:000000000000000c .L0 
     /tmp/ccPwnx9J.s:24     .text._ZN6Thread3runEv:0000000000000010 .L0 
     /tmp/ccPwnx9J.s:25     .text._ZN6Thread3runEv:0000000000000010 .L0 
     /tmp/ccPwnx9J.s:27     .text._ZN6Thread3runEv:0000000000000014 .L0 
     /tmp/ccPwnx9J.s:29     .text._ZN6Thread3runEv:0000000000000018 .L0 
     /tmp/ccPwnx9J.s:36     .text._ZN14PeriodicThread18periodicActivationEv:0000000000000000 _ZN14PeriodicThread18periodicActivationEv
     /tmp/ccPwnx9J.s:39     .text._ZN14PeriodicThread18periodicActivationEv:0000000000000000 .L0 
     /tmp/ccPwnx9J.s:41     .text._ZN14PeriodicThread18periodicActivationEv:0000000000000000 .L0 
     /tmp/ccPwnx9J.s:42     .text._ZN14PeriodicThread18periodicActivationEv:0000000000000004 .L0 
     /tmp/ccPwnx9J.s:44     .text._ZN14PeriodicThread18periodicActivationEv:0000000000000008 .L0 
     /tmp/ccPwnx9J.s:46     .text._ZN14PeriodicThread18periodicActivationEv:000000000000000c .L0 
     /tmp/ccPwnx9J.s:48     .text._ZN14PeriodicThread18periodicActivationEv:000000000000000c .L0 
     /tmp/ccPwnx9J.s:49     .text._ZN14PeriodicThread18periodicActivationEv:0000000000000010 .L0 
     /tmp/ccPwnx9J.s:50     .text._ZN14PeriodicThread18periodicActivationEv:0000000000000010 .L0 
     /tmp/ccPwnx9J.s:52     .text._ZN14PeriodicThread18periodicActivationEv:0000000000000014 .L0 
     /tmp/ccPwnx9J.s:54     .text._ZN14PeriodicThread18periodicActivationEv:0000000000000018 .L0 
     /tmp/ccPwnx9J.s:61     .text:0000000000000000 _ZN6Thread7wrapperEPv
     /tmp/ccPwnx9J.s:65     .text:0000000000000000 .L0 
     /tmp/ccPwnx9J.s:67     .text:0000000000000000 .L0 
     /tmp/ccPwnx9J.s:68     .text:0000000000000000 .L0 
     /tmp/ccPwnx9J.s:70     .text:0000000000000004 .L0 
     /tmp/ccPwnx9J.s:71     .text:0000000000000008 .L0 
     /tmp/ccPwnx9J.s:74     .text:0000000000000010 .L0 
     /tmp/ccPwnx9J.s:75     .text:0000000000000010 .L0 
     /tmp/ccPwnx9J.s:77     .text:0000000000000014 .L0 
     /tmp/ccPwnx9J.s:79     .text:0000000000000014 .L0 
     /tmp/ccPwnx9J.s:80     .text:0000000000000014 .L0 
     /tmp/ccPwnx9J.s:83     .text:000000000000001c .L0 
     /tmp/ccPwnx9J.s:86     .text:0000000000000020 .L0 
     /tmp/ccPwnx9J.s:87     .text:0000000000000024 .L0 
     /tmp/ccPwnx9J.s:89     .text:0000000000000028 .L0 
     /tmp/ccPwnx9J.s:90     .text:0000000000000028 .L0 
     /tmp/ccPwnx9J.s:92     .text:000000000000002c .L0 
     /tmp/ccPwnx9J.s:97     .text:0000000000000034 .L0 
     /tmp/ccPwnx9J.s:103    .text:0000000000000034 _ZN6ThreadD2Ev
     /tmp/ccPwnx9J.s:106    .text:0000000000000034 .L0 
     /tmp/ccPwnx9J.s:6234   .data.rel.local.DW.ref.__gxx_personality_v0:0000000000000000 DW.ref.__gxx_personality_v0
     /tmp/ccPwnx9J.s:110    .text:0000000000000034 .L0 
     /tmp/ccPwnx9J.s:111    .text:0000000000000038 .L0 
     /tmp/ccPwnx9J.s:115    .text:0000000000000044 .L0 
     /tmp/ccPwnx9J.s:116    .text:0000000000000044 .L0 
     /tmp/ccPwnx9J.s:117    .text:0000000000000044 .L0 
     /tmp/ccPwnx9J.s:119    .text:0000000000000048 .L0 
     /tmp/ccPwnx9J.s:1313   .data.rel.ro.local._ZTV6Thread:0000000000000000 _ZTV6Thread
     /tmp/ccPwnx9J.s:123    .text:000000000000004c .L0 
     /tmp/ccPwnx9J.s:126    .text:0000000000000058 .L0 
     /tmp/ccPwnx9J.s:127    .text:0000000000000058 .L0 
     /tmp/ccPwnx9J.s:132    .text:0000000000000064 .L0 
     /tmp/ccPwnx9J.s:133    .text:0000000000000064 .L0 
GAS LISTING /tmp/ccPwnx9J.s 			page 34


     /tmp/ccPwnx9J.s:136    .text:0000000000000068 .L0 
     /tmp/ccPwnx9J.s:143    .text:000000000000006c .L0 
     /tmp/ccPwnx9J.s:147    .text:000000000000006c .L0 
     /tmp/ccPwnx9J.s:148    .text:000000000000006c .L0 
     /tmp/ccPwnx9J.s:149    .text:000000000000006c .L0 
     /tmp/ccPwnx9J.s:154    .text:0000000000000070 .L0 
     /tmp/ccPwnx9J.s:155    .text:0000000000000070 .L0 
     /tmp/ccPwnx9J.s:159    .text:0000000000000074 .L0 
     /tmp/ccPwnx9J.s:160    .text:0000000000000074 .L0 
     /tmp/ccPwnx9J.s:161    .text:0000000000000074 .L0 
     /tmp/ccPwnx9J.s:163    .text:0000000000000078 .L0 
     /tmp/ccPwnx9J.s:165    .text:000000000000007c .L0 
     /tmp/ccPwnx9J.s:166    .text:000000000000007c .L0 
     /tmp/ccPwnx9J.s:171    .text:0000000000000080 .L0 
     /tmp/ccPwnx9J.s:172    .text:0000000000000080 .L0 
     /tmp/ccPwnx9J.s:175    .text:0000000000000088 .L0 
     /tmp/ccPwnx9J.s:184    .text:000000000000008c .L0 
     /tmp/ccPwnx9J.s:190    .text:0000000000000098 .L0 
     /tmp/ccPwnx9J.s:191    .text:000000000000009c .L0 
     /tmp/ccPwnx9J.s:193    .text:00000000000000a0 .L0 
     /tmp/ccPwnx9J.s:194    .text:00000000000000a0 .L0 
     /tmp/ccPwnx9J.s:196    .text:00000000000000a4 .L0 
     /tmp/ccPwnx9J.s:198    .text:00000000000000a8 .L0 
     /tmp/ccPwnx9J.s:200    .text:00000000000000ac .L0 
     /tmp/ccPwnx9J.s:103    .text:0000000000000034 _ZN6ThreadD1Ev
     /tmp/ccPwnx9J.s:217    .text._ZN14PeriodicThreadD2Ev:0000000000000000 _ZN14PeriodicThreadD2Ev
     /tmp/ccPwnx9J.s:220    .text._ZN14PeriodicThreadD2Ev:0000000000000000 .L0 
     /tmp/ccPwnx9J.s:222    .text._ZN14PeriodicThreadD2Ev:0000000000000000 .L0 
     /tmp/ccPwnx9J.s:223    .text._ZN14PeriodicThreadD2Ev:0000000000000004 .L0 
     /tmp/ccPwnx9J.s:226    .text._ZN14PeriodicThreadD2Ev:000000000000000c .L0 
     /tmp/ccPwnx9J.s:227    .text._ZN14PeriodicThreadD2Ev:000000000000000c .L0 
     /tmp/ccPwnx9J.s:229    .text._ZN14PeriodicThreadD2Ev:0000000000000010 .L0 
     /tmp/ccPwnx9J.s:1334   .data.rel.ro.local._ZTV14PeriodicThread:0000000000000000 _ZTV14PeriodicThread
     /tmp/ccPwnx9J.s:232    .text._ZN14PeriodicThreadD2Ev:0000000000000010 .L0 
     /tmp/ccPwnx9J.s:238    .text._ZN14PeriodicThreadD2Ev:0000000000000028 .L0 
     /tmp/ccPwnx9J.s:240    .text._ZN14PeriodicThreadD2Ev:000000000000002c .L0 
     /tmp/ccPwnx9J.s:241    .text._ZN14PeriodicThreadD2Ev:000000000000002c .L0 
     /tmp/ccPwnx9J.s:243    .text._ZN14PeriodicThreadD2Ev:0000000000000030 .L0 
     /tmp/ccPwnx9J.s:245    .text._ZN14PeriodicThreadD2Ev:0000000000000034 .L0 
     /tmp/ccPwnx9J.s:217    .text._ZN14PeriodicThreadD2Ev:0000000000000000 _ZN14PeriodicThreadD1Ev
     /tmp/ccPwnx9J.s:254    .text:00000000000000ac _ZN9SemaphoreD2Ev
     /tmp/ccPwnx9J.s:257    .text:00000000000000ac .L0 
     /tmp/ccPwnx9J.s:261    .text:00000000000000ac .L0 
     /tmp/ccPwnx9J.s:262    .text:00000000000000b0 .L0 
     /tmp/ccPwnx9J.s:266    .text:00000000000000bc .L0 
     /tmp/ccPwnx9J.s:267    .text:00000000000000bc .L0 
     /tmp/ccPwnx9J.s:268    .text:00000000000000bc .L0 
     /tmp/ccPwnx9J.s:270    .text:00000000000000c0 .L0 
     /tmp/ccPwnx9J.s:1324   .data.rel.ro.local._ZTV9Semaphore:0000000000000000 _ZTV9Semaphore
     /tmp/ccPwnx9J.s:274    .text:00000000000000c4 .L0 
     /tmp/ccPwnx9J.s:277    .text:00000000000000d0 .L0 
     /tmp/ccPwnx9J.s:278    .text:00000000000000d0 .L0 
     /tmp/ccPwnx9J.s:283    .text:00000000000000dc .L0 
     /tmp/ccPwnx9J.s:284    .text:00000000000000dc .L0 
     /tmp/ccPwnx9J.s:287    .text:00000000000000e0 .L0 
     /tmp/ccPwnx9J.s:293    .text:00000000000000e4 .L0 
     /tmp/ccPwnx9J.s:297    .text:00000000000000e4 .L0 
GAS LISTING /tmp/ccPwnx9J.s 			page 35


     /tmp/ccPwnx9J.s:298    .text:00000000000000e4 .L0 
     /tmp/ccPwnx9J.s:299    .text:00000000000000e4 .L0 
     /tmp/ccPwnx9J.s:304    .text:00000000000000e8 .L0 
     /tmp/ccPwnx9J.s:305    .text:00000000000000e8 .L0 
     /tmp/ccPwnx9J.s:309    .text:00000000000000ec .L0 
     /tmp/ccPwnx9J.s:310    .text:00000000000000ec .L0 
     /tmp/ccPwnx9J.s:311    .text:00000000000000ec .L0 
     /tmp/ccPwnx9J.s:313    .text:00000000000000f0 .L0 
     /tmp/ccPwnx9J.s:315    .text:00000000000000f4 .L0 
     /tmp/ccPwnx9J.s:316    .text:00000000000000f4 .L0 
     /tmp/ccPwnx9J.s:321    .text:00000000000000f8 .L0 
     /tmp/ccPwnx9J.s:322    .text:00000000000000f8 .L0 
     /tmp/ccPwnx9J.s:325    .text:0000000000000100 .L0 
     /tmp/ccPwnx9J.s:334    .text:0000000000000104 .L0 
     /tmp/ccPwnx9J.s:340    .text:0000000000000110 .L0 
     /tmp/ccPwnx9J.s:341    .text:0000000000000114 .L0 
     /tmp/ccPwnx9J.s:343    .text:0000000000000118 .L0 
     /tmp/ccPwnx9J.s:344    .text:0000000000000118 .L0 
     /tmp/ccPwnx9J.s:346    .text:000000000000011c .L0 
     /tmp/ccPwnx9J.s:348    .text:0000000000000120 .L0 
     /tmp/ccPwnx9J.s:350    .text:0000000000000124 .L0 
     /tmp/ccPwnx9J.s:254    .text:00000000000000ac _ZN9SemaphoreD1Ev
     /tmp/ccPwnx9J.s:365    .text:0000000000000124 _Znwm
     /tmp/ccPwnx9J.s:368    .text:0000000000000124 .L0 
     /tmp/ccPwnx9J.s:370    .text:0000000000000124 .L0 
     /tmp/ccPwnx9J.s:371    .text:0000000000000128 .L0 
     /tmp/ccPwnx9J.s:374    .text:0000000000000130 .L0 
     /tmp/ccPwnx9J.s:375    .text:0000000000000130 .L0 
     /tmp/ccPwnx9J.s:377    .text:0000000000000134 .L0 
     /tmp/ccPwnx9J.s:379    .text:0000000000000134 .L0 
     /tmp/ccPwnx9J.s:380    .text:0000000000000134 .L0 
     /tmp/ccPwnx9J.s:383    .text:000000000000013c .L0 
     /tmp/ccPwnx9J.s:384    .text:0000000000000140 .L0 
     /tmp/ccPwnx9J.s:386    .text:0000000000000144 .L0 
     /tmp/ccPwnx9J.s:387    .text:0000000000000144 .L0 
     /tmp/ccPwnx9J.s:389    .text:0000000000000148 .L0 
     /tmp/ccPwnx9J.s:391    .text:000000000000014c .L0 
     /tmp/ccPwnx9J.s:397    .text:000000000000014c _Znam
     /tmp/ccPwnx9J.s:400    .text:000000000000014c .L0 
     /tmp/ccPwnx9J.s:402    .text:000000000000014c .L0 
     /tmp/ccPwnx9J.s:403    .text:0000000000000150 .L0 
     /tmp/ccPwnx9J.s:406    .text:0000000000000158 .L0 
     /tmp/ccPwnx9J.s:407    .text:0000000000000158 .L0 
     /tmp/ccPwnx9J.s:409    .text:000000000000015c .L0 
     /tmp/ccPwnx9J.s:411    .text:000000000000015c .L0 
     /tmp/ccPwnx9J.s:412    .text:000000000000015c .L0 
     /tmp/ccPwnx9J.s:415    .text:0000000000000164 .L0 
     /tmp/ccPwnx9J.s:416    .text:0000000000000168 .L0 
     /tmp/ccPwnx9J.s:418    .text:000000000000016c .L0 
     /tmp/ccPwnx9J.s:419    .text:000000000000016c .L0 
     /tmp/ccPwnx9J.s:421    .text:0000000000000170 .L0 
     /tmp/ccPwnx9J.s:423    .text:0000000000000174 .L0 
     /tmp/ccPwnx9J.s:429    .text:0000000000000174 _ZdlPv
     /tmp/ccPwnx9J.s:432    .text:0000000000000174 .L0 
     /tmp/ccPwnx9J.s:436    .text:0000000000000174 .L0 
     /tmp/ccPwnx9J.s:437    .text:0000000000000178 .L0 
     /tmp/ccPwnx9J.s:440    .text:0000000000000180 .L0 
GAS LISTING /tmp/ccPwnx9J.s 			page 36


     /tmp/ccPwnx9J.s:441    .text:0000000000000180 .L0 
     /tmp/ccPwnx9J.s:443    .text:0000000000000184 .L0 
     /tmp/ccPwnx9J.s:445    .text:0000000000000184 .L0 
     /tmp/ccPwnx9J.s:446    .text:0000000000000184 .L0 
     /tmp/ccPwnx9J.s:449    .text:000000000000018c .L0 
     /tmp/ccPwnx9J.s:450    .text:0000000000000190 .L0 
     /tmp/ccPwnx9J.s:452    .text:0000000000000194 .L0 
     /tmp/ccPwnx9J.s:453    .text:0000000000000194 .L0 
     /tmp/ccPwnx9J.s:455    .text:0000000000000198 .L0 
     /tmp/ccPwnx9J.s:457    .text:000000000000019c .L0 
     /tmp/ccPwnx9J.s:470    .text:000000000000019c _ZN6ThreadD0Ev
     /tmp/ccPwnx9J.s:473    .text:000000000000019c .L0 
     /tmp/ccPwnx9J.s:475    .text:000000000000019c .L0 
     /tmp/ccPwnx9J.s:476    .text:00000000000001a0 .L0 
     /tmp/ccPwnx9J.s:480    .text:00000000000001ac .L0 
     /tmp/ccPwnx9J.s:481    .text:00000000000001ac .L0 
     /tmp/ccPwnx9J.s:482    .text:00000000000001ac .L0 
     /tmp/ccPwnx9J.s:484    .text:00000000000001b0 .L0 
     /tmp/ccPwnx9J.s:487    .text:00000000000001b4 .L0 
     /tmp/ccPwnx9J.s:493    .text:00000000000001cc .L0 
     /tmp/ccPwnx9J.s:495    .text:00000000000001d0 .L0 
     /tmp/ccPwnx9J.s:496    .text:00000000000001d0 .L0 
     /tmp/ccPwnx9J.s:498    .text:00000000000001d4 .L0 
     /tmp/ccPwnx9J.s:501    .text:00000000000001d8 .L0 
     /tmp/ccPwnx9J.s:503    .text:00000000000001dc .L0 
     /tmp/ccPwnx9J.s:510    .text._ZN14PeriodicThreadD0Ev:0000000000000000 _ZN14PeriodicThreadD0Ev
     /tmp/ccPwnx9J.s:513    .text._ZN14PeriodicThreadD0Ev:0000000000000000 .L0 
     /tmp/ccPwnx9J.s:515    .text._ZN14PeriodicThreadD0Ev:0000000000000000 .L0 
     /tmp/ccPwnx9J.s:516    .text._ZN14PeriodicThreadD0Ev:0000000000000004 .L0 
     /tmp/ccPwnx9J.s:520    .text._ZN14PeriodicThreadD0Ev:0000000000000010 .L0 
     /tmp/ccPwnx9J.s:521    .text._ZN14PeriodicThreadD0Ev:0000000000000010 .L0 
     /tmp/ccPwnx9J.s:522    .text._ZN14PeriodicThreadD0Ev:0000000000000010 .L0 
     /tmp/ccPwnx9J.s:524    .text._ZN14PeriodicThreadD0Ev:0000000000000014 .L0 
     /tmp/ccPwnx9J.s:530    .text._ZN14PeriodicThreadD0Ev:0000000000000018 .L0 
     /tmp/ccPwnx9J.s:540    .text._ZN14PeriodicThreadD0Ev:000000000000003c .L0 
     /tmp/ccPwnx9J.s:542    .text._ZN14PeriodicThreadD0Ev:0000000000000040 .L0 
     /tmp/ccPwnx9J.s:543    .text._ZN14PeriodicThreadD0Ev:0000000000000040 .L0 
     /tmp/ccPwnx9J.s:545    .text._ZN14PeriodicThreadD0Ev:0000000000000044 .L0 
     /tmp/ccPwnx9J.s:548    .text._ZN14PeriodicThreadD0Ev:0000000000000048 .L0 
     /tmp/ccPwnx9J.s:550    .text._ZN14PeriodicThreadD0Ev:000000000000004c .L0 
     /tmp/ccPwnx9J.s:557    .text:00000000000001dc _ZN9SemaphoreD0Ev
     /tmp/ccPwnx9J.s:560    .text:00000000000001dc .L0 
     /tmp/ccPwnx9J.s:562    .text:00000000000001dc .L0 
     /tmp/ccPwnx9J.s:563    .text:00000000000001e0 .L0 
     /tmp/ccPwnx9J.s:567    .text:00000000000001ec .L0 
     /tmp/ccPwnx9J.s:568    .text:00000000000001ec .L0 
     /tmp/ccPwnx9J.s:569    .text:00000000000001ec .L0 
     /tmp/ccPwnx9J.s:571    .text:00000000000001f0 .L0 
     /tmp/ccPwnx9J.s:574    .text:00000000000001f4 .L0 
     /tmp/ccPwnx9J.s:580    .text:000000000000020c .L0 
     /tmp/ccPwnx9J.s:582    .text:0000000000000210 .L0 
     /tmp/ccPwnx9J.s:583    .text:0000000000000210 .L0 
     /tmp/ccPwnx9J.s:585    .text:0000000000000214 .L0 
     /tmp/ccPwnx9J.s:588    .text:0000000000000218 .L0 
     /tmp/ccPwnx9J.s:590    .text:000000000000021c .L0 
     /tmp/ccPwnx9J.s:596    .text:000000000000021c _ZdaPv
     /tmp/ccPwnx9J.s:599    .text:000000000000021c .L0 
GAS LISTING /tmp/ccPwnx9J.s 			page 37


     /tmp/ccPwnx9J.s:603    .text:000000000000021c .L0 
     /tmp/ccPwnx9J.s:604    .text:0000000000000220 .L0 
     /tmp/ccPwnx9J.s:607    .text:0000000000000228 .L0 
     /tmp/ccPwnx9J.s:608    .text:0000000000000228 .L0 
     /tmp/ccPwnx9J.s:610    .text:000000000000022c .L0 
     /tmp/ccPwnx9J.s:612    .text:000000000000022c .L0 
     /tmp/ccPwnx9J.s:613    .text:000000000000022c .L0 
     /tmp/ccPwnx9J.s:616    .text:0000000000000234 .L0 
     /tmp/ccPwnx9J.s:617    .text:0000000000000238 .L0 
     /tmp/ccPwnx9J.s:619    .text:000000000000023c .L0 
     /tmp/ccPwnx9J.s:620    .text:000000000000023c .L0 
     /tmp/ccPwnx9J.s:622    .text:0000000000000240 .L0 
     /tmp/ccPwnx9J.s:624    .text:0000000000000244 .L0 
     /tmp/ccPwnx9J.s:637    .text:0000000000000244 _ZN6ThreadC2EPFvPvES0_
     /tmp/ccPwnx9J.s:640    .text:0000000000000244 .L0 
     /tmp/ccPwnx9J.s:642    .text:0000000000000244 .L0 
     /tmp/ccPwnx9J.s:643    .text:0000000000000248 .L0 
     /tmp/ccPwnx9J.s:649    .text:000000000000025c .L0 
     /tmp/ccPwnx9J.s:650    .text:000000000000025c .L0 
     /tmp/ccPwnx9J.s:651    .text:000000000000025c .L0 
     /tmp/ccPwnx9J.s:652    .text:000000000000025c .L0 
     /tmp/ccPwnx9J.s:653    .text:000000000000025c .L0 
     /tmp/ccPwnx9J.s:655    .text:0000000000000260 .L0 
     /tmp/ccPwnx9J.s:661    .text:000000000000026c .L0 
     /tmp/ccPwnx9J.s:665    .text:0000000000000278 .L0 
     /tmp/ccPwnx9J.s:666    .text:0000000000000278 .L0 
     /tmp/ccPwnx9J.s:668    .text:000000000000027c .L0 
     /tmp/ccPwnx9J.s:669    .text:000000000000027c .L0 
     /tmp/ccPwnx9J.s:672    .text:0000000000000280 .L0 
     /tmp/ccPwnx9J.s:673    .text:0000000000000280 .L0 
     /tmp/ccPwnx9J.s:675    .text:0000000000000284 .L0 
     /tmp/ccPwnx9J.s:676    .text:0000000000000284 .L0 
     /tmp/ccPwnx9J.s:684    .text:0000000000000294 .L0 
 src/syscall_cpp.cpp:40     .text:0000000000000294 .L0 
     /tmp/ccPwnx9J.s:690    .text:0000000000000298 .L0 
 src/syscall_cpp.cpp:41     .text:0000000000000298 .L0 
     /tmp/ccPwnx9J.s:695    .text:000000000000029c .L0 
 src/syscall_cpp.cpp:43     .text:000000000000029c .L0 
     /tmp/ccPwnx9J.s:700    .text:00000000000002a0 .L0 
     /tmp/ccPwnx9J.s:702    .text:00000000000002a0 .L0 
 src/syscall_cpp.cpp:44     .text:00000000000002a4 .L0 
     /tmp/ccPwnx9J.s:710    .text:00000000000002a8 .L0 
 src/syscall_cpp.cpp:45     .text:00000000000002a8 .L0 
     /tmp/ccPwnx9J.s:715    .text:00000000000002ac .L0 
 src/syscall_cpp.cpp:52     .text:00000000000002ac .L0 
     /tmp/ccPwnx9J.s:723    .text:00000000000002b0 .L0 
     /tmp/ccPwnx9J.s:724    .text:00000000000002b4 .L0 
     /tmp/ccPwnx9J.s:725    .text:00000000000002b4 .L0 
     /tmp/ccPwnx9J.s:727    .text:00000000000002b8 .L0 
     /tmp/ccPwnx9J.s:728    .text:00000000000002b8 .L0 
     /tmp/ccPwnx9J.s:730    .text:00000000000002bc .L0 
     /tmp/ccPwnx9J.s:733    .text:00000000000002c0 .L0 
     /tmp/ccPwnx9J.s:736    .text:00000000000002c4 .L0 
     /tmp/ccPwnx9J.s:739    .text:00000000000002c8 .L0 
     /tmp/ccPwnx9J.s:743    .text:00000000000002cc .L0 
     /tmp/ccPwnx9J.s:747    .text:00000000000002cc .L0 
     /tmp/ccPwnx9J.s:751    .text:00000000000002d4 .L0 
GAS LISTING /tmp/ccPwnx9J.s 			page 38


     /tmp/ccPwnx9J.s:637    .text:0000000000000244 _ZN6ThreadC1EPFvPvES0_
     /tmp/ccPwnx9J.s:759    .text:00000000000002d4 _ZN6Thread5startEv
     /tmp/ccPwnx9J.s:762    .text:00000000000002d4 .L0 
     /tmp/ccPwnx9J.s:764    .text:00000000000002d4 .L0 
     /tmp/ccPwnx9J.s:765    .text:00000000000002d8 .L0 
     /tmp/ccPwnx9J.s:767    .text:00000000000002dc .L0 
     /tmp/ccPwnx9J.s:769    .text:00000000000002e0 .L0 
     /tmp/ccPwnx9J.s:771    .text:00000000000002e0 .L0 
     /tmp/ccPwnx9J.s:772    .text:00000000000002e0 .L0 
     /tmp/ccPwnx9J.s:774    .text:00000000000002e4 .L0 
     /tmp/ccPwnx9J.s:776    .text:00000000000002e8 .L0 
 src/syscall_cpp.cpp:66     .text:00000000000002e8 .L0 
     /tmp/ccPwnx9J.s:783    .text:00000000000002ec .L0 
 src/syscall_cpp.cpp:67     .text:00000000000002ec .L0 
     /tmp/ccPwnx9J.s:788    .text:00000000000002f0 .L0 
 src/syscall_cpp.cpp:69     .text:00000000000002f0 .L0 
     /tmp/ccPwnx9J.s:793    .text:00000000000002f4 .L0 
     /tmp/ccPwnx9J.s:795    .text:00000000000002f4 .L0 
     /tmp/ccPwnx9J.s:798    .text:00000000000002f8 .L0 
     /tmp/ccPwnx9J.s:799    .text:00000000000002fc .L0 
     /tmp/ccPwnx9J.s:800    .text:00000000000002fc .L0 
     /tmp/ccPwnx9J.s:801    .text:00000000000002fc .L0 
     /tmp/ccPwnx9J.s:803    .text:0000000000000300 .L0 
     /tmp/ccPwnx9J.s:807    .text:0000000000000304 .L0 
     /tmp/ccPwnx9J.s:809    .text:0000000000000304 .L0 
     /tmp/ccPwnx9J.s:812    .text:000000000000030c .L0 
     /tmp/ccPwnx9J.s:818    .text:000000000000030c _ZN6Thread4joinEv
     /tmp/ccPwnx9J.s:821    .text:000000000000030c .L0 
     /tmp/ccPwnx9J.s:823    .text:000000000000030c .L0 
     /tmp/ccPwnx9J.s:824    .text:0000000000000310 .L0 
     /tmp/ccPwnx9J.s:827    .text:0000000000000318 .L0 
     /tmp/ccPwnx9J.s:828    .text:0000000000000318 .L0 
     /tmp/ccPwnx9J.s:830    .text:000000000000031c .L0 
     /tmp/ccPwnx9J.s:832    .text:000000000000031c .L0 
     /tmp/ccPwnx9J.s:833    .text:000000000000031c .L0 
     /tmp/ccPwnx9J.s:838    .text:0000000000000328 .L0 
     /tmp/ccPwnx9J.s:839    .text:000000000000032c .L0 
     /tmp/ccPwnx9J.s:841    .text:0000000000000330 .L0 
     /tmp/ccPwnx9J.s:842    .text:0000000000000330 .L0 
     /tmp/ccPwnx9J.s:844    .text:0000000000000334 .L0 
     /tmp/ccPwnx9J.s:846    .text:0000000000000338 .L0 
     /tmp/ccPwnx9J.s:852    .text:0000000000000338 _ZN6Thread8dispatchEv
     /tmp/ccPwnx9J.s:855    .text:0000000000000338 .L0 
     /tmp/ccPwnx9J.s:856    .text:0000000000000338 .L0 
     /tmp/ccPwnx9J.s:857    .text:000000000000033c .L0 
     /tmp/ccPwnx9J.s:860    .text:0000000000000344 .L0 
     /tmp/ccPwnx9J.s:861    .text:0000000000000344 .L0 
     /tmp/ccPwnx9J.s:863    .text:0000000000000348 .L0 
     /tmp/ccPwnx9J.s:865    .text:0000000000000348 .L0 
     /tmp/ccPwnx9J.s:866    .text:0000000000000348 .L0 
     /tmp/ccPwnx9J.s:869    .text:0000000000000350 .L0 
     /tmp/ccPwnx9J.s:870    .text:0000000000000354 .L0 
     /tmp/ccPwnx9J.s:872    .text:0000000000000358 .L0 
     /tmp/ccPwnx9J.s:873    .text:0000000000000358 .L0 
     /tmp/ccPwnx9J.s:875    .text:000000000000035c .L0 
     /tmp/ccPwnx9J.s:877    .text:0000000000000360 .L0 
     /tmp/ccPwnx9J.s:883    .text:0000000000000360 _ZN6Thread5sleepEm
GAS LISTING /tmp/ccPwnx9J.s 			page 39


     /tmp/ccPwnx9J.s:886    .text:0000000000000360 .L0 
     /tmp/ccPwnx9J.s:888    .text:0000000000000360 .L0 
     /tmp/ccPwnx9J.s:889    .text:0000000000000364 .L0 
     /tmp/ccPwnx9J.s:892    .text:000000000000036c .L0 
     /tmp/ccPwnx9J.s:893    .text:000000000000036c .L0 
     /tmp/ccPwnx9J.s:895    .text:0000000000000370 .L0 
     /tmp/ccPwnx9J.s:897    .text:0000000000000370 .L0 
     /tmp/ccPwnx9J.s:898    .text:0000000000000370 .L0 
     /tmp/ccPwnx9J.s:901    .text:0000000000000378 .L0 
     /tmp/ccPwnx9J.s:902    .text:0000000000000378 .L0 
     /tmp/ccPwnx9J.s:904    .text:0000000000000380 .L0 
     /tmp/ccPwnx9J.s:906    .text:0000000000000384 .L0 
     /tmp/ccPwnx9J.s:907    .text:0000000000000384 .L0 
     /tmp/ccPwnx9J.s:909    .text:0000000000000388 .L0 
     /tmp/ccPwnx9J.s:911    .text:000000000000038c .L0 
     /tmp/ccPwnx9J.s:917    .text:000000000000038c _ZN14PeriodicThread3runEv
     /tmp/ccPwnx9J.s:920    .text:000000000000038c .L0 
     /tmp/ccPwnx9J.s:922    .text:000000000000038c .L0 
     /tmp/ccPwnx9J.s:923    .text:0000000000000390 .L0 
     /tmp/ccPwnx9J.s:927    .text:000000000000039c .L0 
     /tmp/ccPwnx9J.s:928    .text:000000000000039c .L0 
     /tmp/ccPwnx9J.s:929    .text:000000000000039c .L0 
     /tmp/ccPwnx9J.s:931    .text:00000000000003a0 .L0 
     /tmp/ccPwnx9J.s:936    .text:00000000000003a4 .L0 
     /tmp/ccPwnx9J.s:937    .text:00000000000003a4 .L0 
     /tmp/ccPwnx9J.s:938    .text:00000000000003a4 .L0 
     /tmp/ccPwnx9J.s:941    .text:00000000000003ac .L0 
     /tmp/ccPwnx9J.s:945    .text:00000000000003b4 .L0 
     /tmp/ccPwnx9J.s:946    .text:00000000000003b4 .L0 
     /tmp/ccPwnx9J.s:950    .text:00000000000003c0 .L0 
     /tmp/ccPwnx9J.s:951    .text:00000000000003c4 .L0 
     /tmp/ccPwnx9J.s:957    .text:00000000000003c4 _ZN6ThreadC2Ev
     /tmp/ccPwnx9J.s:960    .text:00000000000003c4 .L0 
     /tmp/ccPwnx9J.s:962    .text:00000000000003c4 .L0 
     /tmp/ccPwnx9J.s:963    .text:00000000000003c8 .L0 
     /tmp/ccPwnx9J.s:967    .text:00000000000003d4 .L0 
     /tmp/ccPwnx9J.s:968    .text:00000000000003d4 .L0 
     /tmp/ccPwnx9J.s:969    .text:00000000000003d4 .L0 
     /tmp/ccPwnx9J.s:971    .text:00000000000003d8 .L0 
     /tmp/ccPwnx9J.s:975    .text:00000000000003dc .L0 
     /tmp/ccPwnx9J.s:979    .text:00000000000003e8 .L0 
     /tmp/ccPwnx9J.s:980    .text:00000000000003e8 .L0 
     /tmp/ccPwnx9J.s:983    .text:00000000000003f4 .L0 
     /tmp/ccPwnx9J.s:984    .text:00000000000003f4 .L0 
     /tmp/ccPwnx9J.s:987    .text:00000000000003f8 .L0 
     /tmp/ccPwnx9J.s:988    .text:00000000000003f8 .L0 
     /tmp/ccPwnx9J.s:989    .text:00000000000003f8 .L0 
     /tmp/ccPwnx9J.s:990    .text:00000000000003f8 .L0 
     /tmp/ccPwnx9J.s:997    .text:0000000000000408 .L0 
 src/syscall_cpp.cpp:98     .text:0000000000000408 .L0 
     /tmp/ccPwnx9J.s:1003   .text:000000000000040c .L0 
     /tmp/ccPwnx9J.s:1005   .text:000000000000040c .L0 
 src/syscall_cpp.cpp:99     .text:0000000000000410 .L0 
     /tmp/ccPwnx9J.s:1013   .text:0000000000000414 .L0 
     /tmp/ccPwnx9J.s:1015   .text:0000000000000414 .L0 
 src/syscall_cpp.cpp:101    .text:0000000000000418 .L0 
     /tmp/ccPwnx9J.s:1022   .text:000000000000041c .L0 
GAS LISTING /tmp/ccPwnx9J.s 			page 40


     /tmp/ccPwnx9J.s:1024   .text:000000000000041c .L0 
 src/syscall_cpp.cpp:102    .text:0000000000000420 .L0 
     /tmp/ccPwnx9J.s:1032   .text:0000000000000424 .L0 
 src/syscall_cpp.cpp:103    .text:0000000000000424 .L0 
     /tmp/ccPwnx9J.s:1037   .text:0000000000000428 .L0 
 src/syscall_cpp.cpp:110    .text:0000000000000428 .L0 
     /tmp/ccPwnx9J.s:1045   .text:000000000000042c .L0 
     /tmp/ccPwnx9J.s:1046   .text:0000000000000430 .L0 
     /tmp/ccPwnx9J.s:1048   .text:0000000000000434 .L0 
     /tmp/ccPwnx9J.s:1049   .text:0000000000000434 .L0 
     /tmp/ccPwnx9J.s:1051   .text:0000000000000438 .L0 
     /tmp/ccPwnx9J.s:1054   .text:000000000000043c .L0 
     /tmp/ccPwnx9J.s:1056   .text:0000000000000440 .L0 
     /tmp/ccPwnx9J.s:957    .text:00000000000003c4 _ZN6ThreadC1Ev
     /tmp/ccPwnx9J.s:1064   .text:0000000000000440 _ZN9SemaphoreC2Ej
     /tmp/ccPwnx9J.s:1067   .text:0000000000000440 .L0 
     /tmp/ccPwnx9J.s:1069   .text:0000000000000440 .L0 
     /tmp/ccPwnx9J.s:1070   .text:0000000000000444 .L0 
     /tmp/ccPwnx9J.s:1073   .text:000000000000044c .L0 
     /tmp/ccPwnx9J.s:1074   .text:000000000000044c .L0 
     /tmp/ccPwnx9J.s:1076   .text:0000000000000450 .L0 
     /tmp/ccPwnx9J.s:1079   .text:0000000000000450 .L0 
     /tmp/ccPwnx9J.s:1082   .text:000000000000045c .L0 
     /tmp/ccPwnx9J.s:1083   .text:000000000000045c .L0 
     /tmp/ccPwnx9J.s:1089   .text:0000000000000468 .L0 
     /tmp/ccPwnx9J.s:1090   .text:000000000000046c .L0 
     /tmp/ccPwnx9J.s:1092   .text:0000000000000470 .L0 
     /tmp/ccPwnx9J.s:1093   .text:0000000000000470 .L0 
     /tmp/ccPwnx9J.s:1095   .text:0000000000000474 .L0 
     /tmp/ccPwnx9J.s:1097   .text:0000000000000478 .L0 
     /tmp/ccPwnx9J.s:1064   .text:0000000000000440 _ZN9SemaphoreC1Ej
     /tmp/ccPwnx9J.s:1105   .text:0000000000000478 _ZN9Semaphore4waitEv
     /tmp/ccPwnx9J.s:1108   .text:0000000000000478 .L0 
     /tmp/ccPwnx9J.s:1110   .text:0000000000000478 .L0 
     /tmp/ccPwnx9J.s:1111   .text:000000000000047c .L0 
     /tmp/ccPwnx9J.s:1114   .text:0000000000000484 .L0 
     /tmp/ccPwnx9J.s:1115   .text:0000000000000484 .L0 
     /tmp/ccPwnx9J.s:1117   .text:0000000000000488 .L0 
     /tmp/ccPwnx9J.s:1119   .text:0000000000000488 .L0 
     /tmp/ccPwnx9J.s:1120   .text:0000000000000488 .L0 
     /tmp/ccPwnx9J.s:1125   .text:0000000000000494 .L0 
     /tmp/ccPwnx9J.s:1126   .text:0000000000000498 .L0 
     /tmp/ccPwnx9J.s:1128   .text:000000000000049c .L0 
     /tmp/ccPwnx9J.s:1129   .text:000000000000049c .L0 
     /tmp/ccPwnx9J.s:1131   .text:00000000000004a0 .L0 
     /tmp/ccPwnx9J.s:1133   .text:00000000000004a4 .L0 
     /tmp/ccPwnx9J.s:1139   .text:00000000000004a4 _ZN9Semaphore6signalEv
     /tmp/ccPwnx9J.s:1142   .text:00000000000004a4 .L0 
     /tmp/ccPwnx9J.s:1144   .text:00000000000004a4 .L0 
     /tmp/ccPwnx9J.s:1145   .text:00000000000004a8 .L0 
     /tmp/ccPwnx9J.s:1148   .text:00000000000004b0 .L0 
     /tmp/ccPwnx9J.s:1149   .text:00000000000004b0 .L0 
     /tmp/ccPwnx9J.s:1151   .text:00000000000004b4 .L0 
     /tmp/ccPwnx9J.s:1153   .text:00000000000004b4 .L0 
     /tmp/ccPwnx9J.s:1154   .text:00000000000004b4 .L0 
     /tmp/ccPwnx9J.s:1159   .text:00000000000004c0 .L0 
     /tmp/ccPwnx9J.s:1160   .text:00000000000004c4 .L0 
GAS LISTING /tmp/ccPwnx9J.s 			page 41


     /tmp/ccPwnx9J.s:1162   .text:00000000000004c8 .L0 
     /tmp/ccPwnx9J.s:1163   .text:00000000000004c8 .L0 
     /tmp/ccPwnx9J.s:1165   .text:00000000000004cc .L0 
     /tmp/ccPwnx9J.s:1167   .text:00000000000004d0 .L0 
     /tmp/ccPwnx9J.s:1173   .text:00000000000004d0 _ZN14PeriodicThread9terminateEv
     /tmp/ccPwnx9J.s:1176   .text:00000000000004d0 .L0 
     /tmp/ccPwnx9J.s:1178   .text:00000000000004d0 .L0 
     /tmp/ccPwnx9J.s:1179   .text:00000000000004d4 .L0 
     /tmp/ccPwnx9J.s:1181   .text:00000000000004d8 .L0 
     /tmp/ccPwnx9J.s:1183   .text:00000000000004dc .L0 
     /tmp/ccPwnx9J.s:1185   .text:00000000000004dc .L0 
     /tmp/ccPwnx9J.s:1186   .text:00000000000004e0 .L0 
     /tmp/ccPwnx9J.s:1187   .text:00000000000004e0 .L0 
     /tmp/ccPwnx9J.s:1189   .text:00000000000004e4 .L0 
     /tmp/ccPwnx9J.s:1191   .text:00000000000004e8 .L0 
     /tmp/ccPwnx9J.s:1197   .text:00000000000004e8 _ZN14PeriodicThreadC2Em
     /tmp/ccPwnx9J.s:1200   .text:00000000000004e8 .L0 
     /tmp/ccPwnx9J.s:1202   .text:00000000000004e8 .L0 
     /tmp/ccPwnx9J.s:1203   .text:00000000000004ec .L0 
     /tmp/ccPwnx9J.s:1208   .text:00000000000004fc .L0 
     /tmp/ccPwnx9J.s:1209   .text:00000000000004fc .L0 
     /tmp/ccPwnx9J.s:1210   .text:00000000000004fc .L0 
     /tmp/ccPwnx9J.s:1211   .text:00000000000004fc .L0 
     /tmp/ccPwnx9J.s:1213   .text:0000000000000500 .L0 
     /tmp/ccPwnx9J.s:1218   .text:0000000000000508 .L0 
     /tmp/ccPwnx9J.s:1225   .text:0000000000000520 .L0 
     /tmp/ccPwnx9J.s:1226   .text:0000000000000520 .L0 
     /tmp/ccPwnx9J.s:1227   .text:0000000000000524 .L0 
     /tmp/ccPwnx9J.s:1229   .text:0000000000000528 .L0 
     /tmp/ccPwnx9J.s:1230   .text:0000000000000528 .L0 
     /tmp/ccPwnx9J.s:1232   .text:000000000000052c .L0 
     /tmp/ccPwnx9J.s:1235   .text:0000000000000530 .L0 
     /tmp/ccPwnx9J.s:1238   .text:0000000000000534 .L0 
     /tmp/ccPwnx9J.s:1240   .text:0000000000000538 .L0 
     /tmp/ccPwnx9J.s:1197   .text:00000000000004e8 _ZN14PeriodicThreadC1Em
     /tmp/ccPwnx9J.s:1248   .text:0000000000000538 _ZN7Console4getcEv
     /tmp/ccPwnx9J.s:1251   .text:0000000000000538 .L0 
     /tmp/ccPwnx9J.s:1252   .text:0000000000000538 .L0 
     /tmp/ccPwnx9J.s:1253   .text:000000000000053c .L0 
     /tmp/ccPwnx9J.s:1256   .text:0000000000000544 .L0 
     /tmp/ccPwnx9J.s:1257   .text:0000000000000544 .L0 
     /tmp/ccPwnx9J.s:1259   .text:0000000000000548 .L0 
     /tmp/ccPwnx9J.s:1261   .text:0000000000000548 .L0 
     /tmp/ccPwnx9J.s:1262   .text:0000000000000548 .L0 
     /tmp/ccPwnx9J.s:1265   .text:0000000000000550 .L0 
     /tmp/ccPwnx9J.s:1266   .text:0000000000000554 .L0 
     /tmp/ccPwnx9J.s:1268   .text:0000000000000558 .L0 
     /tmp/ccPwnx9J.s:1269   .text:0000000000000558 .L0 
     /tmp/ccPwnx9J.s:1271   .text:000000000000055c .L0 
     /tmp/ccPwnx9J.s:1273   .text:0000000000000560 .L0 
     /tmp/ccPwnx9J.s:1279   .text:0000000000000560 _ZN7Console4putcEc
     /tmp/ccPwnx9J.s:1282   .text:0000000000000560 .L0 
     /tmp/ccPwnx9J.s:1284   .text:0000000000000560 .L0 
     /tmp/ccPwnx9J.s:1285   .text:0000000000000564 .L0 
     /tmp/ccPwnx9J.s:1288   .text:000000000000056c .L0 
     /tmp/ccPwnx9J.s:1289   .text:000000000000056c .L0 
     /tmp/ccPwnx9J.s:1291   .text:0000000000000570 .L0 
GAS LISTING /tmp/ccPwnx9J.s 			page 42


     /tmp/ccPwnx9J.s:1293   .text:0000000000000570 .L0 
     /tmp/ccPwnx9J.s:1294   .text:0000000000000570 .L0 
     /tmp/ccPwnx9J.s:1297   .text:0000000000000578 .L0 
     /tmp/ccPwnx9J.s:1298   .text:000000000000057c .L0 
     /tmp/ccPwnx9J.s:1300   .text:0000000000000580 .L0 
     /tmp/ccPwnx9J.s:1301   .text:0000000000000580 .L0 
     /tmp/ccPwnx9J.s:1303   .text:0000000000000584 .L0 
     /tmp/ccPwnx9J.s:1305   .text:0000000000000588 .L0 
     /tmp/ccPwnx9J.s:32     .text._ZN6Thread3runEv:0000000000000018 .L0 
     /tmp/ccPwnx9J.s:57     .text._ZN14PeriodicThread18periodicActivationEv:0000000000000018 .L0 
     /tmp/ccPwnx9J.s:1347   .text:0000000000000588 .L0 
     /tmp/ccPwnx9J.s:250    .text._ZN14PeriodicThreadD2Ev:0000000000000034 .L0 
     /tmp/ccPwnx9J.s:553    .text._ZN14PeriodicThreadD0Ev:000000000000004c .L0 
     /tmp/ccPwnx9J.s:123    .text:000000000000004c .L0 
     /tmp/ccPwnx9J.s:274    .text:00000000000000c4 .L0 
     /tmp/ccPwnx9J.s:661    .text:000000000000026c .L0 
     /tmp/ccPwnx9J.s:975    .text:00000000000003dc .L0 
     /tmp/ccPwnx9J.s:980    .text:00000000000003e8 .L0 
     /tmp/ccPwnx9J.s:1079   .text:0000000000000450 .L0 
     /tmp/ccPwnx9J.s:1220   .text:0000000000000510 .L0 
     /tmp/ccPwnx9J.s:95     .text:0000000000000030 .L8
     /tmp/ccPwnx9J.s:187    .text:0000000000000098 .L11
     /tmp/ccPwnx9J.s:176    .text:000000000000008c .L13
     /tmp/ccPwnx9J.s:137    .text:000000000000006c .L14
     /tmp/ccPwnx9J.s:337    .text:0000000000000110 .L19
     /tmp/ccPwnx9J.s:326    .text:0000000000000104 .L21
     /tmp/ccPwnx9J.s:288    .text:00000000000000e4 .L22
     /tmp/ccPwnx9J.s:742    .text:00000000000002cc .L41
     /tmp/ccPwnx9J.s:682    .text:0000000000000294 .L40
     /tmp/ccPwnx9J.s:806    .text:0000000000000304 .L45
     /tmp/ccPwnx9J.s:796    .text:00000000000002f8 .L44
     /tmp/ccPwnx9J.s:934    .text:00000000000003a4 .L54
     /tmp/ccPwnx9J.s:232    .text._ZN14PeriodicThreadD2Ev:0000000000000010 .L0 
     /tmp/ccPwnx9J.s:530    .text._ZN14PeriodicThreadD0Ev:0000000000000018 .L0 
     /tmp/ccPwnx9J.s:3786   .debug_abbrev:0000000000000000 .Ldebug_abbrev0
     /tmp/ccPwnx9J.s:6140   .debug_str:00000000000009a6 .LASF203
     /tmp/ccPwnx9J.s:5960   .debug_str:000000000000049e .LASF204
     /tmp/ccPwnx9J.s:6088   .debug_str:0000000000000848 .LASF205
     /tmp/ccPwnx9J.s:5780   .debug_ranges:0000000000000000 .Ldebug_ranges0
     /tmp/ccPwnx9J.s:5800   .debug_line:0000000000000000 .Ldebug_line0
     /tmp/ccPwnx9J.s:6056   .debug_str:0000000000000770 .LASF3
     /tmp/ccPwnx9J.s:5952   .debug_str:0000000000000470 .LASF0
     /tmp/ccPwnx9J.s:5976   .debug_str:000000000000051e .LASF1
     /tmp/ccPwnx9J.s:6070   .debug_str:00000000000007d0 .LASF2
     /tmp/ccPwnx9J.s:6082   .debug_str:0000000000000822 .LASF4
     /tmp/ccPwnx9J.s:5962   .debug_str:00000000000004b2 .LASF5
     /tmp/ccPwnx9J.s:5818   .debug_str:0000000000000092 .LASF6
     /tmp/ccPwnx9J.s:6036   .debug_str:00000000000006db .LASF7
     /tmp/ccPwnx9J.s:6030   .debug_str:00000000000006a0 .LASF8
     /tmp/ccPwnx9J.s:5968   .debug_str:00000000000004ee .LASF9
     /tmp/ccPwnx9J.s:5922   .debug_str:0000000000000371 .LASF10
     /tmp/ccPwnx9J.s:5934   .debug_str:00000000000003ed .LASF11
     /tmp/ccPwnx9J.s:5860   .debug_str:00000000000001af .LASF12
     /tmp/ccPwnx9J.s:5916   .debug_str:0000000000000345 .LASF13
     /tmp/ccPwnx9J.s:5876   .debug_str:000000000000021c .LASF14
     /tmp/ccPwnx9J.s:5858   .debug_str:000000000000019f .LASF15
     /tmp/ccPwnx9J.s:6112   .debug_str:000000000000090a .LASF16
GAS LISTING /tmp/ccPwnx9J.s 			page 43


     /tmp/ccPwnx9J.s:5906   .debug_str:00000000000002e0 .LASF17
     /tmp/ccPwnx9J.s:6102   .debug_str:00000000000008c0 .LASF18
     /tmp/ccPwnx9J.s:6186   .debug_str:0000000000000b9b .LASF19
     /tmp/ccPwnx9J.s:6094   .debug_str:0000000000000883 .LASF206
     /tmp/ccPwnx9J.s:6040   .debug_str:00000000000006f4 .LASF20
     /tmp/ccPwnx9J.s:5890   .debug_str:0000000000000296 .LASF21
     /tmp/ccPwnx9J.s:5992   .debug_str:0000000000000594 .LASF22
     /tmp/ccPwnx9J.s:5820   .debug_str:0000000000000099 .LASF23
     /tmp/ccPwnx9J.s:5868   .debug_str:00000000000001df .LASF24
     /tmp/ccPwnx9J.s:5848   .debug_str:0000000000000159 .LASF25
     /tmp/ccPwnx9J.s:6118   .debug_str:0000000000000926 .LASF100
     /tmp/ccPwnx9J.s:5864   .debug_str:00000000000001c3 .LASF26
     /tmp/ccPwnx9J.s:5936   .debug_str:00000000000003fb .LASF28
     /tmp/ccPwnx9J.s:5954   .debug_str:000000000000047d .LASF30
     /tmp/ccPwnx9J.s:5990   .debug_str:0000000000000580 .LASF32
     /tmp/ccPwnx9J.s:6110   .debug_str:00000000000008fd .LASF27
     /tmp/ccPwnx9J.s:6196   .debug_str:0000000000000bea .LASF29
     /tmp/ccPwnx9J.s:6024   .debug_str:0000000000000679 .LASF207
     /tmp/ccPwnx9J.s:6212   .debug_str:0000000000000c66 .LASF38
     /tmp/ccPwnx9J.s:5964   .debug_str:00000000000004c4 .LASF40
     /tmp/ccPwnx9J.s:5984   .debug_str:0000000000000552 .LASF31
     /tmp/ccPwnx9J.s:6052   .debug_str:0000000000000748 .LASF33
     /tmp/ccPwnx9J.s:5894   .debug_str:00000000000002a2 .LASF34
     /tmp/ccPwnx9J.s:6078   .debug_str:00000000000007fc .LASF35
     /tmp/ccPwnx9J.s:6044   .debug_str:0000000000000717 .LASF36
     /tmp/ccPwnx9J.s:5994   .debug_str:000000000000059c .LASF37
     /tmp/ccPwnx9J.s:6164   .debug_str:0000000000000b1e .LASF39
     /tmp/ccPwnx9J.s:5918   .debug_str:0000000000000354 .LASF41
     /tmp/ccPwnx9J.s:6188   .debug_str:0000000000000ba4 .LASF42
     /tmp/ccPwnx9J.s:5914   .debug_str:000000000000032c .LASF44
     /tmp/ccPwnx9J.s:5980   .debug_str:0000000000000539 .LASF43
     /tmp/ccPwnx9J.s:6144   .debug_str:0000000000000a7d .LASF45
     /tmp/ccPwnx9J.s:5896   .debug_str:00000000000002af .LASF46
     /tmp/ccPwnx9J.s:5872   .debug_str:00000000000001f7 .LASF47
     /tmp/ccPwnx9J.s:6180   .debug_str:0000000000000b83 .LASF48
     /tmp/ccPwnx9J.s:5826   .debug_str:00000000000000d0 .LASF49
     /tmp/ccPwnx9J.s:6136   .debug_str:000000000000098e .LASF50
     /tmp/ccPwnx9J.s:5852   .debug_str:0000000000000172 .LASF51
     /tmp/ccPwnx9J.s:6220   .debug_str:0000000000000c94 .LASF52
     /tmp/ccPwnx9J.s:5930   .debug_str:00000000000003ce .LASF53
     /tmp/ccPwnx9J.s:5808   .debug_str:000000000000003c .LASF54
     /tmp/ccPwnx9J.s:6018   .debug_str:000000000000065d .LASF55
     /tmp/ccPwnx9J.s:6158   .debug_str:0000000000000aec .LASF56
     /tmp/ccPwnx9J.s:5856   .debug_str:0000000000000190 .LASF57
     /tmp/ccPwnx9J.s:6214   .debug_str:0000000000000c6c .LASF58
     /tmp/ccPwnx9J.s:6174   .debug_str:0000000000000b5e .LASF59
     /tmp/ccPwnx9J.s:6148   .debug_str:0000000000000aa4 .LASF60
     /tmp/ccPwnx9J.s:6138   .debug_str:0000000000000996 .LASF61
     /tmp/ccPwnx9J.s:6028   .debug_str:0000000000000694 .LASF62
     /tmp/ccPwnx9J.s:5804   .debug_str:000000000000002a .LASF63
     /tmp/ccPwnx9J.s:6080   .debug_str:0000000000000814 .LASF64
     /tmp/ccPwnx9J.s:6184   .debug_str:0000000000000b94 .LASF65
     /tmp/ccPwnx9J.s:6208   .debug_str:0000000000000c42 .LASF208
     /tmp/ccPwnx9J.s:5884   .debug_str:000000000000025b .LASF93
     /tmp/ccPwnx9J.s:5812   .debug_str:0000000000000054 .LASF95
     /tmp/ccPwnx9J.s:6084   .debug_str:0000000000000829 .LASF88
     /tmp/ccPwnx9J.s:5814   .debug_str:000000000000007c .LASF90
GAS LISTING /tmp/ccPwnx9J.s 			page 44


     /tmp/ccPwnx9J.s:6206   .debug_str:0000000000000c3c .LASF66
     /tmp/ccPwnx9J.s:6104   .debug_str:00000000000008d6 .LASF67
     /tmp/ccPwnx9J.s:5974   .debug_str:0000000000000516 .LASF68
     /tmp/ccPwnx9J.s:6016   .debug_str:000000000000064a .LASF69
     /tmp/ccPwnx9J.s:5898   .debug_str:00000000000002b8 .LASF70
     /tmp/ccPwnx9J.s:5902   .debug_str:00000000000002c3 .LASF71
     /tmp/ccPwnx9J.s:6116   .debug_str:000000000000091f .LASF72
     /tmp/ccPwnx9J.s:5838   .debug_str:000000000000012b .LASF73
     /tmp/ccPwnx9J.s:6198   .debug_str:0000000000000c0c .LASF74
     /tmp/ccPwnx9J.s:6008   .debug_str:000000000000060c .LASF75
     /tmp/ccPwnx9J.s:5904   .debug_str:00000000000002d3 .LASF76
     /tmp/ccPwnx9J.s:6170   .debug_str:0000000000000b4a .LASF77
     /tmp/ccPwnx9J.s:5950   .debug_str:000000000000046a .LASF78
     /tmp/ccPwnx9J.s:6132   .debug_str:0000000000000967 .LASF79
     /tmp/ccPwnx9J.s:5810   .debug_str:000000000000004c .LASF80
     /tmp/ccPwnx9J.s:5822   .debug_str:00000000000000a1 .LASF81
     /tmp/ccPwnx9J.s:6194   .debug_str:0000000000000bdd .LASF82
     /tmp/ccPwnx9J.s:6162   .debug_str:0000000000000b0e .LASF83
     /tmp/ccPwnx9J.s:6074   .debug_str:00000000000007ed .LASF84
     /tmp/ccPwnx9J.s:5970   .debug_str:0000000000000501 .LASF85
     /tmp/ccPwnx9J.s:6020   .debug_str:000000000000066a .LASF86
     /tmp/ccPwnx9J.s:6178   .debug_str:0000000000000b7b .LASF87
     /tmp/ccPwnx9J.s:5900   .debug_str:00000000000002bd .LASF89
     /tmp/ccPwnx9J.s:6156   .debug_str:0000000000000adf .LASF91
     /tmp/ccPwnx9J.s:5996   .debug_str:00000000000005ae .LASF92
     /tmp/ccPwnx9J.s:6204   .debug_str:0000000000000c37 .LASF184
     /tmp/ccPwnx9J.s:5888   .debug_str:0000000000000283 .LASF209
     /tmp/ccPwnx9J.s:5998   .debug_str:00000000000005b6 .LASF94
     /tmp/ccPwnx9J.s:6202   .debug_str:0000000000000c24 .LASF96
     /tmp/ccPwnx9J.s:6124   .debug_str:0000000000000941 .LASF97
     /tmp/ccPwnx9J.s:6058   .debug_str:0000000000000775 .LASF98
     /tmp/ccPwnx9J.s:6010   .debug_str:0000000000000622 .LASF99
     /tmp/ccPwnx9J.s:5892   .debug_str:000000000000029d .LASF101
     /tmp/ccPwnx9J.s:6154   .debug_str:0000000000000ada .LASF102
     /tmp/ccPwnx9J.s:5862   .debug_str:00000000000001be .LASF103
     /tmp/ccPwnx9J.s:5910   .debug_str:00000000000002ff .LASF104
     /tmp/ccPwnx9J.s:5886   .debug_str:0000000000000269 .LASF105
     /tmp/ccPwnx9J.s:6042   .debug_str:00000000000006fc .LASF146
     /tmp/ccPwnx9J.s:6168   .debug_str:0000000000000b44 .LASF106
     /tmp/ccPwnx9J.s:5972   .debug_str:0000000000000511 .LASF107
     /tmp/ccPwnx9J.s:5832   .debug_str:00000000000000fd .LASF108
     /tmp/ccPwnx9J.s:5928   .debug_str:00000000000003b6 .LASF109
     /tmp/ccPwnx9J.s:6032   .debug_str:00000000000006b3 .LASF133
     /tmp/ccPwnx9J.s:6120   .debug_str:000000000000092e .LASF110
     /tmp/ccPwnx9J.s:5880   .debug_str:0000000000000241 .LASF111
     /tmp/ccPwnx9J.s:5956   .debug_str:0000000000000487 .LASF112
     /tmp/ccPwnx9J.s:5824   .debug_str:00000000000000b4 .LASF113
     /tmp/ccPwnx9J.s:5978   .debug_str:0000000000000531 .LASF114
     /tmp/ccPwnx9J.s:6006   .debug_str:00000000000005ed .LASF115
     /tmp/ccPwnx9J.s:5846   .debug_str:0000000000000150 .LASF116
     /tmp/ccPwnx9J.s:6004   .debug_str:00000000000005d1 .LASF117
     /tmp/ccPwnx9J.s:5878   .debug_str:000000000000022c .LASF118
     /tmp/ccPwnx9J.s:6190   .debug_str:0000000000000bb2 .LASF119
     /tmp/ccPwnx9J.s:5870   .debug_str:00000000000001e8 .LASF120
     /tmp/ccPwnx9J.s:6160   .debug_str:0000000000000af4 .LASF121
     /tmp/ccPwnx9J.s:6166   .debug_str:0000000000000b29 .LASF122
     /tmp/ccPwnx9J.s:6126   .debug_str:0000000000000946 .LASF123
GAS LISTING /tmp/ccPwnx9J.s 			page 45


     /tmp/ccPwnx9J.s:5926   .debug_str:0000000000000396 .LASF124
     /tmp/ccPwnx9J.s:5966   .debug_str:00000000000004d6 .LASF125
     /tmp/ccPwnx9J.s:5932   .debug_str:00000000000003da .LASF126
     /tmp/ccPwnx9J.s:5802   .debug_str:0000000000000000 .LASF210
     /tmp/ccPwnx9J.s:6086   .debug_str:000000000000082e .LASF142
     /tmp/ccPwnx9J.s:5842   .debug_str:0000000000000142 .LASF127
     /tmp/ccPwnx9J.s:6014   .debug_str:000000000000063a .LASF128
     /tmp/ccPwnx9J.s:6176   .debug_str:0000000000000b63 .LASF211
     /tmp/ccPwnx9J.s:5942   .debug_str:0000000000000439 .LASF129
     /tmp/ccPwnx9J.s:5874   .debug_str:000000000000020a .LASF130
     /tmp/ccPwnx9J.s:6064   .debug_str:00000000000007a4 .LASF150
     /tmp/ccPwnx9J.s:6224   .debug_str:0000000000000caa .LASF131
     /tmp/ccPwnx9J.s:6098   .debug_str:00000000000008a5 .LASF132
     /tmp/ccPwnx9J.s:5912   .debug_str:000000000000031d .LASF134
     /tmp/ccPwnx9J.s:5982   .debug_str:000000000000053f .LASF135
     /tmp/ccPwnx9J.s:6130   .debug_str:0000000000000962 .LASF136
     /tmp/ccPwnx9J.s:6038   .debug_str:00000000000006e2 .LASF137
     /tmp/ccPwnx9J.s:6026   .debug_str:000000000000067e .LASF138
     /tmp/ccPwnx9J.s:5834   .debug_str:0000000000000112 .LASF139
     /tmp/ccPwnx9J.s:6142   .debug_str:0000000000000a6a .LASF140
     /tmp/ccPwnx9J.s:5958   .debug_str:000000000000048f .LASF141
     /tmp/ccPwnx9J.s:5946   .debug_str:0000000000000449 .LASF143
     /tmp/ccPwnx9J.s:5908   .debug_str:00000000000002f6 .LASF144
     /tmp/ccPwnx9J.s:5806   .debug_str:0000000000000037 .LASF145
     /tmp/ccPwnx9J.s:6134   .debug_str:0000000000000978 .LASF147
     /tmp/ccPwnx9J.s:6106   .debug_str:00000000000008db .LASF148
     /tmp/ccPwnx9J.s:6062   .debug_str:000000000000078f .LASF149
     /tmp/ccPwnx9J.s:6216   .debug_str:0000000000000c72 .LASF151
     /tmp/ccPwnx9J.s:6128   .debug_str:0000000000000950 .LASF152
     /tmp/ccPwnx9J.s:6048   .debug_str:0000000000000733 .LASF153
     /tmp/ccPwnx9J.s:6090   .debug_str:0000000000000866 .LASF154
     /tmp/ccPwnx9J.s:6150   .debug_str:0000000000000aae .LASF155
     /tmp/ccPwnx9J.s:6152   .debug_str:0000000000000ac3 .LASF156
     /tmp/ccPwnx9J.s:5948   .debug_str:000000000000045a .LASF212
     /tmp/ccPwnx9J.s:5920   .debug_str:000000000000036c .LASF157
     /tmp/ccPwnx9J.s:5816   .debug_str:0000000000000088 .LASF158
     /tmp/ccPwnx9J.s:6226   .debug_str:0000000000000cc1 .LASF159
     /tmp/ccPwnx9J.s:511    .text._ZN14PeriodicThreadD0Ev:0000000000000000 .LFB78
     /tmp/ccPwnx9J.s:551    .text._ZN14PeriodicThreadD0Ev:000000000000004c .LFE78
     /tmp/ccPwnx9J.s:5240   .debug_loc:0000000000000000 .LLST12
     /tmp/ccPwnx9J.s:527    .text._ZN14PeriodicThreadD0Ev:0000000000000018 .LBB73
     /tmp/ccPwnx9J.s:535    .text._ZN14PeriodicThreadD0Ev:000000000000002c .LBE73
     /tmp/ccPwnx9J.s:5258   .debug_loc:000000000000004c .LLST13
     /tmp/ccPwnx9J.s:533    .text._ZN14PeriodicThreadD0Ev:000000000000002c .LVL39
     /tmp/ccPwnx9J.s:538    .text._ZN14PeriodicThreadD0Ev:0000000000000038 .LVL40
     /tmp/ccPwnx9J.s:6068   .debug_str:00000000000007b8 .LASF160
     /tmp/ccPwnx9J.s:218    .text._ZN14PeriodicThreadD2Ev:0000000000000000 .LFB76
     /tmp/ccPwnx9J.s:246    .text._ZN14PeriodicThreadD2Ev:0000000000000034 .LFE76
     /tmp/ccPwnx9J.s:5269   .debug_loc:0000000000000082 .LLST4
     /tmp/ccPwnx9J.s:235    .text._ZN14PeriodicThreadD2Ev:0000000000000024 .LVL16
     /tmp/ccPwnx9J.s:1280   .text:0000000000000560 .LFB74
     /tmp/ccPwnx9J.s:1306   .text:0000000000000588 .LFE74
     /tmp/ccPwnx9J.s:5283   .debug_loc:00000000000000bb .LLST32
     /tmp/ccPwnx9J.s:1295   .text:0000000000000578 .LVL96
     /tmp/ccPwnx9J.s:1249   .text:0000000000000538 .LFB73
     /tmp/ccPwnx9J.s:1274   .text:0000000000000560 .LFE73
     /tmp/ccPwnx9J.s:1263   .text:0000000000000550 .LVL94
GAS LISTING /tmp/ccPwnx9J.s 			page 46


     /tmp/ccPwnx9J.s:918    .text:000000000000038c .LFB72
     /tmp/ccPwnx9J.s:952    .text:00000000000003c4 .LFE72
     /tmp/ccPwnx9J.s:5297   .debug_loc:00000000000000f4 .LLST23
     /tmp/ccPwnx9J.s:943    .text:00000000000003b4 .LVL70
     /tmp/ccPwnx9J.s:948    .text:00000000000003c0 .LVL71
     /tmp/ccPwnx9J.s:6108   .debug_str:00000000000008e5 .LASF161
     /tmp/ccPwnx9J.s:1198   .text:00000000000004e8 .LFB70
     /tmp/ccPwnx9J.s:1241   .text:0000000000000538 .LFE70
     /tmp/ccPwnx9J.s:5308   .debug_loc:000000000000012a .LLST30
     /tmp/ccPwnx9J.s:5326   .debug_loc:0000000000000176 .LLST31
     /tmp/ccPwnx9J.s:1219   .text:0000000000000510 .LVL91
     /tmp/ccPwnx9J.s:1174   .text:00000000000004d0 .LFB68
     /tmp/ccPwnx9J.s:1192   .text:00000000000004e8 .LFE68
     /tmp/ccPwnx9J.s:1140   .text:00000000000004a4 .LFB67
     /tmp/ccPwnx9J.s:1168   .text:00000000000004d0 .LFE67
     /tmp/ccPwnx9J.s:5345   .debug_loc:00000000000001c3 .LLST29
     /tmp/ccPwnx9J.s:1157   .text:00000000000004c0 .LVL88
     /tmp/ccPwnx9J.s:1106   .text:0000000000000478 .LFB66
     /tmp/ccPwnx9J.s:1134   .text:00000000000004a4 .LFE66
     /tmp/ccPwnx9J.s:5359   .debug_loc:00000000000001fc .LLST28
     /tmp/ccPwnx9J.s:1123   .text:0000000000000494 .LVL85
     /tmp/ccPwnx9J.s:5986   .debug_str:000000000000055f .LASF162
     /tmp/ccPwnx9J.s:558    .text:00000000000001dc .LFB65
     /tmp/ccPwnx9J.s:591    .text:000000000000021c .LFE65
     /tmp/ccPwnx9J.s:5373   .debug_loc:0000000000000235 .LLST14
     /tmp/ccPwnx9J.s:575    .text:00000000000001fc .LVL43
     /tmp/ccPwnx9J.s:578    .text:0000000000000208 .LVL44
     /tmp/ccPwnx9J.s:5828   .debug_str:00000000000000e2 .LASF163
     /tmp/ccPwnx9J.s:255    .text:00000000000000ac .LFB63
     /tmp/ccPwnx9J.s:351    .text:0000000000000124 .LFE63
     /tmp/ccPwnx9J.s:5391   .debug_loc:0000000000000281 .LLST5
     /tmp/ccPwnx9J.s:289    .text:00000000000000e4 .LBB65
     /tmp/ccPwnx9J.s:332    .text:0000000000000104 .LBE65
     /tmp/ccPwnx9J.s:290    .text:00000000000000e4 .LBB66
     /tmp/ccPwnx9J.s:331    .text:0000000000000104 .LBE66
     /tmp/ccPwnx9J.s:295    .text:00000000000000e4 .LBB68
     /tmp/ccPwnx9J.s:303    .text:00000000000000e8 .LBE68
     /tmp/ccPwnx9J.s:306    .text:00000000000000ec .LBB70
     /tmp/ccPwnx9J.s:329    .text:0000000000000104 .LBE70
     /tmp/ccPwnx9J.s:5409   .debug_loc:00000000000002cd .LLST6
     /tmp/ccPwnx9J.s:318    .text:00000000000000f8 .LBB71
     /tmp/ccPwnx9J.s:328    .text:0000000000000104 .LBE71
     /tmp/ccPwnx9J.s:5416   .debug_loc:00000000000002f0 .LLST7
     /tmp/ccPwnx9J.s:323    .text:0000000000000100 .LVL25
     /tmp/ccPwnx9J.s:281    .text:00000000000000dc .LVL19
     /tmp/ccPwnx9J.s:336    .text:0000000000000110 .LVL26
     /tmp/ccPwnx9J.s:5854   .debug_str:0000000000000183 .LASF170
     /tmp/ccPwnx9J.s:5840   .debug_str:000000000000013d .LASF164
     /tmp/ccPwnx9J.s:5866   .debug_str:00000000000001cd .LASF165
     /tmp/ccPwnx9J.s:1065   .text:0000000000000440 .LFB57
     /tmp/ccPwnx9J.s:1098   .text:0000000000000478 .LFE57
     /tmp/ccPwnx9J.s:5423   .debug_loc:0000000000000313 .LLST26
     /tmp/ccPwnx9J.s:5443   .debug_loc:0000000000000361 .LLST27
     /tmp/ccPwnx9J.s:1086   .text:0000000000000468 .LVL82
     /tmp/ccPwnx9J.s:62     .text:0000000000000000 .LFB55
     /tmp/ccPwnx9J.s:98     .text:0000000000000034 .LFE55
     /tmp/ccPwnx9J.s:6066   .debug_str:00000000000007b1 .LASF166
GAS LISTING /tmp/ccPwnx9J.s 			page 47


     /tmp/ccPwnx9J.s:5457   .debug_loc:000000000000039a .LLST0
     /tmp/ccPwnx9J.s:84     .text:0000000000000020 .LVL3
     /tmp/ccPwnx9J.s:6072   .debug_str:00000000000007de .LASF167
     /tmp/ccPwnx9J.s:958    .text:00000000000003c4 .LFB53
     /tmp/ccPwnx9J.s:1057   .text:0000000000000440 .LFE53
     /tmp/ccPwnx9J.s:5475   .debug_loc:00000000000003e6 .LLST24
     /tmp/ccPwnx9J.s:993    .text:0000000000000404 .LVL75
     /tmp/ccPwnx9J.s:977    .text:00000000000003e8 .LBB80
     /tmp/ccPwnx9J.s:1042   .text:000000000000042c .LBE80
     /tmp/ccPwnx9J.s:5499   .debug_loc:0000000000000447 .LLST25
     /tmp/ccPwnx9J.s:884    .text:0000000000000360 .LFB51
     /tmp/ccPwnx9J.s:912    .text:000000000000038c .LFE51
     /tmp/ccPwnx9J.s:5511   .debug_loc:000000000000047e .LLST22
     /tmp/ccPwnx9J.s:899    .text:0000000000000378 .LVL67
     /tmp/ccPwnx9J.s:853    .text:0000000000000338 .LFB50
     /tmp/ccPwnx9J.s:878    .text:0000000000000360 .LFE50
     /tmp/ccPwnx9J.s:867    .text:0000000000000350 .LVL65
     /tmp/ccPwnx9J.s:819    .text:000000000000030c .LFB49
     /tmp/ccPwnx9J.s:847    .text:0000000000000338 .LFE49
     /tmp/ccPwnx9J.s:5525   .debug_loc:00000000000004b7 .LLST21
     /tmp/ccPwnx9J.s:836    .text:0000000000000328 .LVL64
     /tmp/ccPwnx9J.s:760    .text:00000000000002d4 .LFB48
     /tmp/ccPwnx9J.s:813    .text:000000000000030c .LFE48
     /tmp/ccPwnx9J.s:5539   .debug_loc:00000000000004f0 .LLST20
     /tmp/ccPwnx9J.s:5988   .debug_str:0000000000000571 .LASF168
     /tmp/ccPwnx9J.s:471    .text:000000000000019c .LFB47
     /tmp/ccPwnx9J.s:504    .text:00000000000001dc .LFE47
     /tmp/ccPwnx9J.s:5564   .debug_loc:0000000000000552 .LLST11
     /tmp/ccPwnx9J.s:488    .text:00000000000001bc .LVL34
     /tmp/ccPwnx9J.s:491    .text:00000000000001c8 .LVL35
     /tmp/ccPwnx9J.s:6200   .debug_str:0000000000000c15 .LASF169
     /tmp/ccPwnx9J.s:104    .text:0000000000000034 .LFB45
     /tmp/ccPwnx9J.s:201    .text:00000000000000ac .LFE45
     /tmp/ccPwnx9J.s:5582   .debug_loc:000000000000059e .LLST1
     /tmp/ccPwnx9J.s:138    .text:000000000000006c .LBB55
     /tmp/ccPwnx9J.s:182    .text:000000000000008c .LBE55
     /tmp/ccPwnx9J.s:139    .text:000000000000006c .LBB56
     /tmp/ccPwnx9J.s:181    .text:000000000000008c .LBE56
     /tmp/ccPwnx9J.s:145    .text:000000000000006c .LBB58
     /tmp/ccPwnx9J.s:153    .text:0000000000000070 .LBE58
     /tmp/ccPwnx9J.s:156    .text:0000000000000074 .LBB60
     /tmp/ccPwnx9J.s:179    .text:000000000000008c .LBE60
     /tmp/ccPwnx9J.s:5600   .debug_loc:00000000000005ea .LLST2
     /tmp/ccPwnx9J.s:168    .text:0000000000000080 .LBB61
     /tmp/ccPwnx9J.s:178    .text:000000000000008c .LBE61
     /tmp/ccPwnx9J.s:5607   .debug_loc:000000000000060d .LLST3
     /tmp/ccPwnx9J.s:173    .text:0000000000000088 .LVL13
     /tmp/ccPwnx9J.s:130    .text:0000000000000064 .LVL7
     /tmp/ccPwnx9J.s:186    .text:0000000000000098 .LVL14
     /tmp/ccPwnx9J.s:6002   .debug_str:00000000000005c5 .LASF171
     /tmp/ccPwnx9J.s:6146   .debug_str:0000000000000a8d .LASF172
     /tmp/ccPwnx9J.s:638    .text:0000000000000244 .LFB39
     /tmp/ccPwnx9J.s:752    .text:00000000000002d4 .LFE39
     /tmp/ccPwnx9J.s:5614   .debug_loc:0000000000000630 .LLST16
     /tmp/ccPwnx9J.s:5642   .debug_loc:00000000000006a4 .LLST17
     /tmp/ccPwnx9J.s:5664   .debug_loc:0000000000000703 .LLST18
     /tmp/ccPwnx9J.s:679    .text:0000000000000290 .LVL51
GAS LISTING /tmp/ccPwnx9J.s 			page 48


     /tmp/ccPwnx9J.s:5686   .debug_loc:0000000000000762 .LLST19
     /tmp/ccPwnx9J.s:6100   .debug_str:00000000000008ad .LASF173
     /tmp/ccPwnx9J.s:5844   .debug_str:0000000000000149 .LASF174
     /tmp/ccPwnx9J.s:597    .text:000000000000021c .LFB37
     /tmp/ccPwnx9J.s:625    .text:0000000000000244 .LFE37
     /tmp/ccPwnx9J.s:5703   .debug_loc:00000000000007ad .LLST15
     /tmp/ccPwnx9J.s:614    .text:0000000000000234 .LVL47
     /tmp/ccPwnx9J.s:6022   .debug_str:0000000000000672 .LASF175
     /tmp/ccPwnx9J.s:430    .text:0000000000000174 .LFB36
     /tmp/ccPwnx9J.s:458    .text:000000000000019c .LFE36
     /tmp/ccPwnx9J.s:5717   .debug_loc:00000000000007e6 .LLST10
     /tmp/ccPwnx9J.s:447    .text:000000000000018c .LVL32
     /tmp/ccPwnx9J.s:5850   .debug_str:0000000000000162 .LASF176
     /tmp/ccPwnx9J.s:6122   .debug_str:000000000000093b .LASF177
     /tmp/ccPwnx9J.s:398    .text:000000000000014c .LFB35
     /tmp/ccPwnx9J.s:424    .text:0000000000000174 .LFE35
     /tmp/ccPwnx9J.s:5882   .debug_str:0000000000000256 .LASF178
     /tmp/ccPwnx9J.s:5731   .debug_loc:000000000000081f .LLST9
     /tmp/ccPwnx9J.s:413    .text:0000000000000164 .LVL30
     /tmp/ccPwnx9J.s:6172   .debug_str:0000000000000b58 .LASF179
     /tmp/ccPwnx9J.s:366    .text:0000000000000124 .LFB34
     /tmp/ccPwnx9J.s:392    .text:000000000000014c .LFE34
     /tmp/ccPwnx9J.s:5745   .debug_loc:0000000000000858 .LLST8
     /tmp/ccPwnx9J.s:381    .text:000000000000013c .LVL28
     /tmp/ccPwnx9J.s:6076   .debug_str:00000000000007f7 .LASF180
     /tmp/ccPwnx9J.s:5924   .debug_str:0000000000000381 .LASF181
     /tmp/ccPwnx9J.s:37     .text._ZN14PeriodicThread18periodicActivationEv:0000000000000000 .LFB1
     /tmp/ccPwnx9J.s:55     .text._ZN14PeriodicThread18periodicActivationEv:0000000000000018 .LFE1
     /tmp/ccPwnx9J.s:11     .text._ZN6Thread3runEv:0000000000000000 .LFB0
     /tmp/ccPwnx9J.s:30     .text._ZN6Thread3runEv:0000000000000018 .LFE0
     /tmp/ccPwnx9J.s:6114   .debug_str:0000000000000916 .LASF182
     /tmp/ccPwnx9J.s:6182   .debug_str:0000000000000b8b .LASF183
     /tmp/ccPwnx9J.s:6060   .debug_str:000000000000077a .LASF185
     /tmp/ccPwnx9J.s:5940   .debug_str:000000000000042e .LASF186
     /tmp/ccPwnx9J.s:6218   .debug_str:0000000000000c82 .LASF187
     /tmp/ccPwnx9J.s:6222   .debug_str:0000000000000ca1 .LASF188
     /tmp/ccPwnx9J.s:6210   .debug_str:0000000000000c58 .LASF189
     /tmp/ccPwnx9J.s:5944   .debug_str:0000000000000440 .LASF190
     /tmp/ccPwnx9J.s:5836   .debug_str:0000000000000118 .LASF191
     /tmp/ccPwnx9J.s:6050   .debug_str:000000000000073e .LASF192
     /tmp/ccPwnx9J.s:6046   .debug_str:000000000000071f .LASF193
     /tmp/ccPwnx9J.s:5830   .debug_str:00000000000000f4 .LASF194
     /tmp/ccPwnx9J.s:5938   .debug_str:0000000000000420 .LASF195
     /tmp/ccPwnx9J.s:6000   .debug_str:00000000000005bb .LASF196
     /tmp/ccPwnx9J.s:6034   .debug_str:00000000000006cb .LASF197
     /tmp/ccPwnx9J.s:6092   .debug_str:0000000000000878 .LASF198
     /tmp/ccPwnx9J.s:6192   .debug_str:0000000000000bc8 .LASF199
     /tmp/ccPwnx9J.s:6054   .debug_str:0000000000000760 .LASF200
     /tmp/ccPwnx9J.s:6096   .debug_str:0000000000000890 .LASF201
     /tmp/ccPwnx9J.s:6012   .debug_str:000000000000062e .LASF202
     /tmp/ccPwnx9J.s:514    .text._ZN14PeriodicThreadD0Ev:0000000000000000 .LVL37
     /tmp/ccPwnx9J.s:546    .text._ZN14PeriodicThreadD0Ev:0000000000000044 .LVL41
     /tmp/ccPwnx9J.s:526    .text._ZN14PeriodicThreadD0Ev:0000000000000018 .LVL38
     /tmp/ccPwnx9J.s:221    .text._ZN14PeriodicThreadD2Ev:0000000000000000 .LVL15
     /tmp/ccPwnx9J.s:1283   .text:0000000000000560 .LVL95
     /tmp/ccPwnx9J.s:921    .text:000000000000038c .LVL68
     /tmp/ccPwnx9J.s:933    .text:00000000000003a4 .LVL69
GAS LISTING /tmp/ccPwnx9J.s 			page 49


     /tmp/ccPwnx9J.s:1201   .text:00000000000004e8 .LVL90
     /tmp/ccPwnx9J.s:1233   .text:000000000000052c .LVL92
     /tmp/ccPwnx9J.s:1236   .text:0000000000000530 .LVL93
     /tmp/ccPwnx9J.s:1143   .text:00000000000004a4 .LVL86
     /tmp/ccPwnx9J.s:1155   .text:00000000000004b8 .LVL87
     /tmp/ccPwnx9J.s:1109   .text:0000000000000478 .LVL83
     /tmp/ccPwnx9J.s:1121   .text:000000000000048c .LVL84
     /tmp/ccPwnx9J.s:561    .text:00000000000001dc .LVL42
     /tmp/ccPwnx9J.s:586    .text:0000000000000214 .LVL45
     /tmp/ccPwnx9J.s:260    .text:00000000000000ac .LVL17
     /tmp/ccPwnx9J.s:279    .text:00000000000000d4 .LVL18
     /tmp/ccPwnx9J.s:285    .text:00000000000000e0 .LVL20
     /tmp/ccPwnx9J.s:308    .text:00000000000000ec .LVL23
     /tmp/ccPwnx9J.s:317    .text:00000000000000f8 .LVL24
     /tmp/ccPwnx9J.s:1068   .text:0000000000000440 .LVL80
     /tmp/ccPwnx9J.s:1084   .text:0000000000000460 .LVL81
     /tmp/ccPwnx9J.s:66     .text:0000000000000000 .LVL2
     /tmp/ccPwnx9J.s:94     .text:0000000000000030 .LVL4
     /tmp/ccPwnx9J.s:961    .text:00000000000003c4 .LVL72
     /tmp/ccPwnx9J.s:991    .text:00000000000003fc .LVL74
     /tmp/ccPwnx9J.s:1025   .text:0000000000000420 .LVL78
     /tmp/ccPwnx9J.s:1052   .text:0000000000000438 .LVL79
     /tmp/ccPwnx9J.s:986    .text:00000000000003f8 .LVL73
     /tmp/ccPwnx9J.s:995    .text:0000000000000408 .LVL76
     /tmp/ccPwnx9J.s:1006   .text:0000000000000410 .LVL77
     /tmp/ccPwnx9J.s:887    .text:0000000000000360 .LVL66
     /tmp/ccPwnx9J.s:822    .text:000000000000030c .LVL62
     /tmp/ccPwnx9J.s:834    .text:0000000000000320 .LVL63
     /tmp/ccPwnx9J.s:763    .text:00000000000002d4 .LVL58
     /tmp/ccPwnx9J.s:781    .text:00000000000002ec .LVL59
     /tmp/ccPwnx9J.s:805    .text:0000000000000304 .LVL60
     /tmp/ccPwnx9J.s:810    .text:0000000000000308 .LVL61
     /tmp/ccPwnx9J.s:474    .text:000000000000019c .LVL33
     /tmp/ccPwnx9J.s:499    .text:00000000000001d4 .LVL36
     /tmp/ccPwnx9J.s:109    .text:0000000000000034 .LVL5
     /tmp/ccPwnx9J.s:128    .text:000000000000005c .LVL6
     /tmp/ccPwnx9J.s:134    .text:0000000000000068 .LVL8
     /tmp/ccPwnx9J.s:158    .text:0000000000000074 .LVL11
     /tmp/ccPwnx9J.s:167    .text:0000000000000080 .LVL12
     /tmp/ccPwnx9J.s:641    .text:0000000000000244 .LVL48
     /tmp/ccPwnx9J.s:677    .text:0000000000000288 .LVL50
     /tmp/ccPwnx9J.s:703    .text:00000000000002a4 .LVL53
     /tmp/ccPwnx9J.s:731    .text:00000000000002bc .LVL54
     /tmp/ccPwnx9J.s:741    .text:00000000000002cc .LVL57
     /tmp/ccPwnx9J.s:734    .text:00000000000002c0 .LVL55
     /tmp/ccPwnx9J.s:737    .text:00000000000002c4 .LVL56
     /tmp/ccPwnx9J.s:671    .text:0000000000000280 .LVL49
     /tmp/ccPwnx9J.s:681    .text:0000000000000294 .LVL52
     /tmp/ccPwnx9J.s:602    .text:000000000000021c .LVL46
     /tmp/ccPwnx9J.s:435    .text:0000000000000174 .LVL31
     /tmp/ccPwnx9J.s:401    .text:000000000000014c .LVL29
     /tmp/ccPwnx9J.s:369    .text:0000000000000124 .LVL27
     /tmp/ccPwnx9J.s:1348   .debug_info:0000000000000000 .Ldebug_info0
     /tmp/ccPwnx9J.s:5      .text:0000000000000000 .Ltext0
     /tmp/ccPwnx9J.s:1342   .text:0000000000000588 .Letext0
     /tmp/ccPwnx9J.s:663    .text:0000000000000278 .LBB76
     /tmp/ccPwnx9J.s:720    .text:00000000000002b0 .LBE76
GAS LISTING /tmp/ccPwnx9J.s 			page 50


     /tmp/ccPwnx9J.s:745    .text:00000000000002cc .LBB77
     /tmp/ccPwnx9J.s:749    .text:00000000000002d4 .LBE77
     /tmp/ccPwnx9J.s:204    .gcc_except_table:0000000000000000 .LLSDA45
     /tmp/ccPwnx9J.s:353    .gcc_except_table:0000000000000004 .LLSDA63
     /tmp/ccPwnx9J.s:460    .gcc_except_table:0000000000000008 .LLSDA36
     /tmp/ccPwnx9J.s:627    .gcc_except_table:000000000000000c .LLSDA37
                           .group:0000000000000000 _ZN14PeriodicThreadD5Ev

UNDEFINED SYMBOLS
_Z11thread_joinP3TCB
_Z8mem_freePv
_ZN3TCBdlEPv
__gxx_personality_v0
_Z9sem_closeP4KSem
_ZN4KSemdlEPv
_Z9mem_allocm
_Z15thread_dispatchv
_Z10time_sleepm
_Z8sem_openPP4KSemj
_Z8sem_waitP4KSem
_Z10sem_signalP4KSem
_Z4getcv
_Z4putcc
