GAS LISTING /tmp/cccIxXNl.s 			page 1


   1              		.file	"syscall_cpp.cpp"
   2              		.option pic
   3              		.option norelax
   4              		.text
   5              	.Ltext0:
   6              		.section	.text._ZN6Thread3runEv,"axG",@progbits,_ZN6Thread3runEv,comdat
   7              		.align	2
   8              		.weak	_ZN6Thread3runEv
  10              	_ZN6Thread3runEv:
  11              	.LFB0:
  12              		.file 1 "src/../h/syscall_cpp.hpp"
   1:src/../h/syscall_cpp.hpp **** #ifndef _syscall_cpp
   2:src/../h/syscall_cpp.hpp **** #define _syscall_cpp
   3:src/../h/syscall_cpp.hpp **** 
   4:src/../h/syscall_cpp.hpp **** #include "../lib/hw.h"
   5:src/../h/syscall_cpp.hpp **** 
   6:src/../h/syscall_cpp.hpp **** void* operator new(size_t);
   7:src/../h/syscall_cpp.hpp **** 
   8:src/../h/syscall_cpp.hpp **** void* operator new[](size_t);
   9:src/../h/syscall_cpp.hpp **** 
  10:src/../h/syscall_cpp.hpp **** void operator delete(void*)
  11:src/../h/syscall_cpp.hpp **** 
  12:src/../h/syscall_cpp.hpp **** noexcept;
  13:src/../h/syscall_cpp.hpp **** 
  14:src/../h/syscall_cpp.hpp **** void operator delete[](void*)
  15:src/../h/syscall_cpp.hpp **** 
  16:src/../h/syscall_cpp.hpp **** noexcept;
  17:src/../h/syscall_cpp.hpp **** 
  18:src/../h/syscall_cpp.hpp **** class TCB;
  19:src/../h/syscall_cpp.hpp **** 
  20:src/../h/syscall_cpp.hpp **** typedef TCB* thread_t;
  21:src/../h/syscall_cpp.hpp **** 
  22:src/../h/syscall_cpp.hpp **** class KSem;
  23:src/../h/syscall_cpp.hpp **** 
  24:src/../h/syscall_cpp.hpp **** typedef KSem* sem_t;
  25:src/../h/syscall_cpp.hpp **** 
  26:src/../h/syscall_cpp.hpp **** class Thread {
  27:src/../h/syscall_cpp.hpp **** public:
  28:src/../h/syscall_cpp.hpp **** 	Thread(void (* body)(void*), void* arg);
  29:src/../h/syscall_cpp.hpp **** 
  30:src/../h/syscall_cpp.hpp **** 	virtual ~Thread();
  31:src/../h/syscall_cpp.hpp **** 
  32:src/../h/syscall_cpp.hpp **** 	int start();
  33:src/../h/syscall_cpp.hpp **** 
  34:src/../h/syscall_cpp.hpp **** 	void join();
  35:src/../h/syscall_cpp.hpp **** 
  36:src/../h/syscall_cpp.hpp **** 	static void dispatch();
  37:src/../h/syscall_cpp.hpp **** 
  38:src/../h/syscall_cpp.hpp **** 	static int sleep(time_t);
  39:src/../h/syscall_cpp.hpp **** 
  40:src/../h/syscall_cpp.hpp **** protected:
  41:src/../h/syscall_cpp.hpp **** 	Thread();
  42:src/../h/syscall_cpp.hpp **** 
  43:src/../h/syscall_cpp.hpp **** 	virtual void run() {}
  13              		.loc 1 43 15
  14              		.cfi_startproc
  15              	.LVL0:
GAS LISTING /tmp/cccIxXNl.s 			page 2


  16 0000 130101FF 		addi	sp,sp,-16
  17              		.cfi_def_cfa_offset 16
  18 0004 23348100 		sd	s0,8(sp)
  19              		.cfi_offset 8, -8
  20 0008 13040101 		addi	s0,sp,16
  21              		.cfi_def_cfa 8, 0
  22              		.loc 1 43 22 is_stmt 0
  23 000c 03348100 		ld	s0,8(sp)
  24              		.cfi_restore 8
  25              		.cfi_def_cfa 2, 16
  26 0010 13010101 		addi	sp,sp,16
  27              		.cfi_def_cfa_offset 0
  28 0014 67800000 		jr	ra
  29              		.cfi_endproc
  30              	.LFE0:
  32              		.section	.text._ZN14PeriodicThread18periodicActivationEv,"axG",@progbits,_ZN14PeriodicThread18peri
  33              		.align	2
  34              		.weak	_ZN14PeriodicThread18periodicActivationEv
  36              	_ZN14PeriodicThread18periodicActivationEv:
  37              	.LFB1:
  44:src/../h/syscall_cpp.hpp **** 
  45:src/../h/syscall_cpp.hpp **** private:
  46:src/../h/syscall_cpp.hpp **** 	thread_t myHandle;
  47:src/../h/syscall_cpp.hpp **** 
  48:src/../h/syscall_cpp.hpp **** 	void (* body)(void*);
  49:src/../h/syscall_cpp.hpp **** 
  50:src/../h/syscall_cpp.hpp **** 	void* arg;
  51:src/../h/syscall_cpp.hpp **** 
  52:src/../h/syscall_cpp.hpp **** 	static void wrapper(void* thread);
  53:src/../h/syscall_cpp.hpp **** };
  54:src/../h/syscall_cpp.hpp **** 
  55:src/../h/syscall_cpp.hpp **** 
  56:src/../h/syscall_cpp.hpp **** class Semaphore {
  57:src/../h/syscall_cpp.hpp **** public:
  58:src/../h/syscall_cpp.hpp **** 
  59:src/../h/syscall_cpp.hpp **** 	Semaphore(unsigned init = 1);
  60:src/../h/syscall_cpp.hpp **** 
  61:src/../h/syscall_cpp.hpp **** 	virtual ~Semaphore();
  62:src/../h/syscall_cpp.hpp **** 
  63:src/../h/syscall_cpp.hpp **** 	int wait();
  64:src/../h/syscall_cpp.hpp **** 
  65:src/../h/syscall_cpp.hpp **** 	int signal();
  66:src/../h/syscall_cpp.hpp **** 
  67:src/../h/syscall_cpp.hpp **** private:
  68:src/../h/syscall_cpp.hpp **** 	sem_t myHandle;
  69:src/../h/syscall_cpp.hpp **** 
  70:src/../h/syscall_cpp.hpp **** };
  71:src/../h/syscall_cpp.hpp **** 
  72:src/../h/syscall_cpp.hpp **** 
  73:src/../h/syscall_cpp.hpp **** class PeriodicThread : public Thread {
  74:src/../h/syscall_cpp.hpp **** public:
  75:src/../h/syscall_cpp.hpp **** 	void terminate();
  76:src/../h/syscall_cpp.hpp **** 
  77:src/../h/syscall_cpp.hpp **** protected:
  78:src/../h/syscall_cpp.hpp **** 	PeriodicThread(time_t period);
  79:src/../h/syscall_cpp.hpp **** 
  80:src/../h/syscall_cpp.hpp **** 	virtual void periodicActivation() {}
GAS LISTING /tmp/cccIxXNl.s 			page 3


  38              		.loc 1 80 15 is_stmt 1
  39              		.cfi_startproc
  40              	.LVL1:
  41 0000 130101FF 		addi	sp,sp,-16
  42              		.cfi_def_cfa_offset 16
  43 0004 23348100 		sd	s0,8(sp)
  44              		.cfi_offset 8, -8
  45 0008 13040101 		addi	s0,sp,16
  46              		.cfi_def_cfa 8, 0
  47              		.loc 1 80 37 is_stmt 0
  48 000c 03348100 		ld	s0,8(sp)
  49              		.cfi_restore 8
  50              		.cfi_def_cfa 2, 16
  51 0010 13010101 		addi	sp,sp,16
  52              		.cfi_def_cfa_offset 0
  53 0014 67800000 		jr	ra
  54              		.cfi_endproc
  55              	.LFE1:
  57              		.text
  58              		.align	2
  59              		.globl	_ZN6Thread7wrapperEPv
  61              	_ZN6Thread7wrapperEPv:
  62              	.LFB53:
  63              		.file 2 "src/syscall_cpp.cpp"
   1:src/syscall_cpp.cpp **** //
   2:src/syscall_cpp.cpp **** // Created by os on 5/29/23.
   3:src/syscall_cpp.cpp **** //
   4:src/syscall_cpp.cpp **** #include "../h/syscall_cpp.hpp"
   5:src/syscall_cpp.cpp **** #include "../h/syscall_c.hpp"
   6:src/syscall_cpp.cpp **** #include "../h/TCB.hpp"
   7:src/syscall_cpp.cpp **** #include "../h/KSem.hpp"
   8:src/syscall_cpp.cpp **** #include "../h/Scheduler.hpp"
   9:src/syscall_cpp.cpp **** 
  10:src/syscall_cpp.cpp **** //override globalnog new
  11:src/syscall_cpp.cpp **** void* operator new(size_t size) {
  12:src/syscall_cpp.cpp **** 	return mem_alloc(size);
  13:src/syscall_cpp.cpp **** }
  14:src/syscall_cpp.cpp **** 
  15:src/syscall_cpp.cpp **** void* operator new[](size_t size) {
  16:src/syscall_cpp.cpp **** 	return mem_alloc(size);
  17:src/syscall_cpp.cpp **** }
  18:src/syscall_cpp.cpp **** 
  19:src/syscall_cpp.cpp **** void operator delete(void* ptr)
  20:src/syscall_cpp.cpp **** 
  21:src/syscall_cpp.cpp **** noexcept {
  22:src/syscall_cpp.cpp **** mem_free(ptr);
  23:src/syscall_cpp.cpp **** }
  24:src/syscall_cpp.cpp **** 
  25:src/syscall_cpp.cpp **** void operator delete[](void* ptr)
  26:src/syscall_cpp.cpp **** 
  27:src/syscall_cpp.cpp **** noexcept {
  28:src/syscall_cpp.cpp **** mem_free(ptr);
  29:src/syscall_cpp.cpp **** }
  30:src/syscall_cpp.cpp **** 
  31:src/syscall_cpp.cpp **** //konstruktor za Thread
  32:src/syscall_cpp.cpp **** Thread::Thread(void (* body)(void*), void* arg) {
  33:src/syscall_cpp.cpp **** 	this->body = body;
GAS LISTING /tmp/cccIxXNl.s 			page 4


  34:src/syscall_cpp.cpp **** 	this->arg = arg;
  35:src/syscall_cpp.cpp **** 	//stvaranje steka ako se ne radi o main kernel niti, posto ona automatski ima stek
  36:src/syscall_cpp.cpp **** 	uint64* stack = nullptr;
  37:src/syscall_cpp.cpp **** 	if (body != nullptr) {
  38:src/syscall_cpp.cpp **** 		stack = (uint64*)mem_alloc(DEFAULT_STACK_SIZE);
  39:src/syscall_cpp.cpp **** 	}
  40:src/syscall_cpp.cpp **** 	//uint64* stack = (start_routine != nullptr ? (uint64*)MemoryAllocator::kmalloc(DEFAULT_STACK_SIZE
  41:src/syscall_cpp.cpp **** 	//stavljanje argumenata za sistemski poziv
  42:src/syscall_cpp.cpp **** 	__asm__ volatile("mv a4, %[sp]": :[sp] "r"(stack):"a5", "a0", "a1", "a2", "a3", "a4", "a6", "a7");
  43:src/syscall_cpp.cpp **** 	__asm__ volatile("mv a3, %[arg]": :[arg] "r"(arg):"a5", "a0", "a1", "a2", "a3", "a4", "a6", "a7");
  44:src/syscall_cpp.cpp **** 	__asm__ volatile("mv a2, %[function]": :[function] "r"(
  45:src/syscall_cpp.cpp **** 			body):"a5", "a0", "a1", "a2", "a3", "a4", "a6", "a7");
  46:src/syscall_cpp.cpp **** 	__asm__ volatile("mv a1, %[handle]": :[handle] "r"(&myHandle):"a5", "a0", "a1", "a2", "a3", "a4", 
  47:src/syscall_cpp.cpp **** 	__asm__ volatile("li a0, 0x80");
  48:src/syscall_cpp.cpp **** 	//a0 = 0x80
  49:src/syscall_cpp.cpp **** 	//a1 = adresa pokazivaca na rucku niti
  50:src/syscall_cpp.cpp **** 	//a2 = prva adresa funkcije koju nit izvrsava
  51:src/syscall_cpp.cpp **** 	//a3 = pokazivac na argumente funkcije
  52:src/syscall_cpp.cpp **** 	//a4 = pokazivac na najnizu adresu steka (stek raste ka nizim adresama, pokazuje na poslednju zauz
  53:src/syscall_cpp.cpp **** 
  54:src/syscall_cpp.cpp **** 	__asm__ volatile("ecall");
  55:src/syscall_cpp.cpp **** }
  56:src/syscall_cpp.cpp **** 
  57:src/syscall_cpp.cpp **** Thread::~Thread() {
  58:src/syscall_cpp.cpp **** 	thread_exit();
  59:src/syscall_cpp.cpp **** }
  60:src/syscall_cpp.cpp **** 
  61:src/syscall_cpp.cpp **** int Thread::start() {
  62:src/syscall_cpp.cpp **** 	if (myHandle == nullptr) return -1;
  63:src/syscall_cpp.cpp **** 	__asm__ volatile("mv a1, %[handle]": :[handle] "r"(myHandle):"a5", "a0", "a1", "a2", "a3", "a4", "
  64:src/syscall_cpp.cpp **** 	__asm__ volatile("li a0, 0x81");
  65:src/syscall_cpp.cpp **** 
  66:src/syscall_cpp.cpp **** 	__asm__ volatile("ecall");
  67:src/syscall_cpp.cpp **** 
  68:src/syscall_cpp.cpp **** 	return 0;
  69:src/syscall_cpp.cpp **** }
  70:src/syscall_cpp.cpp **** 
  71:src/syscall_cpp.cpp **** void Thread::join() {
  72:src/syscall_cpp.cpp **** 	thread_join(myHandle);
  73:src/syscall_cpp.cpp **** }
  74:src/syscall_cpp.cpp **** 
  75:src/syscall_cpp.cpp **** void Thread::dispatch() {
  76:src/syscall_cpp.cpp **** 	thread_dispatch();
  77:src/syscall_cpp.cpp **** }
  78:src/syscall_cpp.cpp **** 
  79:src/syscall_cpp.cpp **** int Thread::sleep(time_t t) {
  80:src/syscall_cpp.cpp **** 	Scheduler::putToSleep(TCB::running, t);
  81:src/syscall_cpp.cpp **** 	return 0;
  82:src/syscall_cpp.cpp **** }
  83:src/syscall_cpp.cpp **** 
  84:src/syscall_cpp.cpp **** Thread::Thread() {
  85:src/syscall_cpp.cpp **** 	this->body = wrapper;
  86:src/syscall_cpp.cpp **** 	this->arg = this;
  87:src/syscall_cpp.cpp **** 	//stvaranje steka ako se ne radi o main kernel niti, posto ona automatski ima stek
  88:src/syscall_cpp.cpp **** 	uint64* stack = nullptr;
  89:src/syscall_cpp.cpp **** 	if (body != nullptr) {
  90:src/syscall_cpp.cpp **** 		stack = (uint64*)mem_alloc(DEFAULT_STACK_SIZE);
GAS LISTING /tmp/cccIxXNl.s 			page 5


  91:src/syscall_cpp.cpp **** 	}
  92:src/syscall_cpp.cpp **** 	//uint64* stack = (start_routine != nullptr ? (uint64*)MemoryAllocator::kmalloc(DEFAULT_STACK_SIZE
  93:src/syscall_cpp.cpp **** 	//stavljanje argumenata za sistemski poziv
  94:src/syscall_cpp.cpp **** 	__asm__ volatile("mv a4, %[sp]": :[sp] "r"(stack):"a5", "a0", "a1", "a2", "a3", "a4", "a6", "a7");
  95:src/syscall_cpp.cpp **** 	__asm__ volatile("mv a3, %[arg]": :[arg] "r"(arg):"a5", "a0", "a1", "a2", "a3", "a4", "a6", "a7");
  96:src/syscall_cpp.cpp **** 	__asm__ volatile("mv a2, %[function]": :[function] "r"(
  97:src/syscall_cpp.cpp **** 			body):"a5", "a0", "a1", "a2", "a3", "a4", "a6", "a7");
  98:src/syscall_cpp.cpp **** 	__asm__ volatile("mv a1, %[handle]": :[handle] "r"(&myHandle):"a5", "a0", "a1", "a2", "a3", "a4", 
  99:src/syscall_cpp.cpp **** 	__asm__ volatile("li a0, 0x80");
 100:src/syscall_cpp.cpp **** 	//a0 = 0x80
 101:src/syscall_cpp.cpp **** 	//a1 = adresa pokazivaca na rucku niti
 102:src/syscall_cpp.cpp **** 	//a2 = prva adresa funkcije koju nit izvrsava
 103:src/syscall_cpp.cpp **** 	//a3 = pokazivac na argumente funkcije
 104:src/syscall_cpp.cpp **** 	//a4 = pokazivac na najnizu adresu steka (stek raste ka nizim adresama, pokazuje na poslednju zauz
 105:src/syscall_cpp.cpp **** 
 106:src/syscall_cpp.cpp **** 	__asm__ volatile("ecall");
 107:src/syscall_cpp.cpp **** }
 108:src/syscall_cpp.cpp **** 
 109:src/syscall_cpp.cpp **** void Thread::wrapper(void* thread) {
  64              		.loc 2 109 36 is_stmt 1
  65              		.cfi_startproc
  66              	.LVL2:
 110:src/syscall_cpp.cpp **** 	if(thread!=nullptr){
  67              		.loc 2 110 2
  68 0000 63080502 		beqz	a0,.L8
 109:src/syscall_cpp.cpp **** 	if(thread!=nullptr){
  69              		.loc 2 109 36 is_stmt 0
  70 0004 130101FF 		addi	sp,sp,-16
  71              		.cfi_def_cfa_offset 16
  72 0008 23341100 		sd	ra,8(sp)
  73 000c 23308100 		sd	s0,0(sp)
  74              		.cfi_offset 1, -8
  75              		.cfi_offset 8, -16
  76 0010 13040101 		addi	s0,sp,16
  77              		.cfi_def_cfa 8, 0
 111:src/syscall_cpp.cpp **** 		((Thread*)thread)->run();
  78              		.loc 2 111 3 is_stmt 1
  79              		.loc 2 111 26 is_stmt 0
  80 0014 83370500 		ld	a5,0(a0)
  81 0018 83B70701 		ld	a5,16(a5)
  82              		.loc 2 111 25
  83 001c E7800700 		jalr	a5
  84              	.LVL3:
 112:src/syscall_cpp.cpp **** 	}
 113:src/syscall_cpp.cpp **** }
  85              		.loc 2 113 1
  86 0020 83308100 		ld	ra,8(sp)
  87              		.cfi_restore 1
  88 0024 03340100 		ld	s0,0(sp)
  89              		.cfi_restore 8
  90              		.cfi_def_cfa 2, 16
  91 0028 13010101 		addi	sp,sp,16
  92              		.cfi_def_cfa_offset 0
  93 002c 67800000 		jr	ra
  94              	.LVL4:
  95              	.L8:
  96 0030 67800000 		ret
GAS LISTING /tmp/cccIxXNl.s 			page 6


  97              		.cfi_endproc
  98              	.LFE53:
 100              		.align	2
 101              		.globl	_ZN6ThreadD2Ev
 103              	_ZN6ThreadD2Ev:
 104              	.LFB43:
  57:src/syscall_cpp.cpp **** 	thread_exit();
 105              		.loc 2 57 1 is_stmt 1
 106              		.cfi_startproc
 107              		.cfi_personality 0x9b,DW.ref.__gxx_personality_v0
 108              		.cfi_lsda 0x1b,.LLSDA43
 109              	.LVL5:
 110 0034 130101FF 		addi	sp,sp,-16
 111              		.cfi_def_cfa_offset 16
 112 0038 23341100 		sd	ra,8(sp)
 113 003c 23308100 		sd	s0,0(sp)
 114              		.cfi_offset 1, -8
 115              		.cfi_offset 8, -16
 116 0040 13040101 		addi	s0,sp,16
 117              		.cfi_def_cfa 8, 0
 118              	.LBB33:
  57:src/syscall_cpp.cpp **** 	thread_exit();
 119              		.loc 2 57 17 is_stmt 0
 120 0044 97070000 		lla	a5,_ZTV6Thread+16
 120      93870700 
 121 004c 2330F500 		sd	a5,0(a0)
  58:src/syscall_cpp.cpp **** }
 122              		.loc 2 58 2 is_stmt 1
  58:src/syscall_cpp.cpp **** }
 123              		.loc 2 58 13 is_stmt 0
 124 0050 97000000 		call	_Z11thread_exitv@plt
 124      E7800000 
 125              	.LVL6:
 126              	.LBE33:
  59:src/syscall_cpp.cpp **** 
 127              		.loc 2 59 1
 128 0058 83308100 		ld	ra,8(sp)
 129              		.cfi_restore 1
 130 005c 03340100 		ld	s0,0(sp)
 131              		.cfi_restore 8
 132              		.cfi_def_cfa 2, 16
 133 0060 13010101 		addi	sp,sp,16
 134              		.cfi_def_cfa_offset 0
 135 0064 67800000 		jr	ra
 136              		.cfi_endproc
 137              	.LFE43:
 138              		.globl	__gxx_personality_v0
 139              		.section	.gcc_except_table,"a",@progbits
 140              	.LLSDA43:
 141 0000 FF       		.byte	0xff
 142 0001 FF       		.byte	0xff
 143 0002 03       		.byte	0x3
 144 0003 00       		.byte	0
 145              		.text
 147              		.globl	_ZN6ThreadD1Ev
 148              		.set	_ZN6ThreadD1Ev,_ZN6ThreadD2Ev
 149              		.section	.text._ZN14PeriodicThreadD2Ev,"axG",@progbits,_ZN14PeriodicThreadD5Ev,comdat
GAS LISTING /tmp/cccIxXNl.s 			page 7


 150              		.align	2
 151              		.weak	_ZN14PeriodicThreadD2Ev
 153              	_ZN14PeriodicThreadD2Ev:
 154              	.LFB73:
  73:src/../h/syscall_cpp.hpp **** public:
 155              		.loc 1 73 7 is_stmt 1
 156              		.cfi_startproc
 157              	.LVL7:
 158 0000 130101FF 		addi	sp,sp,-16
 159              		.cfi_def_cfa_offset 16
 160 0004 23341100 		sd	ra,8(sp)
 161 0008 23308100 		sd	s0,0(sp)
 162              		.cfi_offset 1, -8
 163              		.cfi_offset 8, -16
 164 000c 13040101 		addi	s0,sp,16
 165              		.cfi_def_cfa 8, 0
 166              	.LBB34:
  73:src/../h/syscall_cpp.hpp **** public:
 167              		.loc 1 73 7 is_stmt 0
 168 0010 97070000 		lla	a5,_ZTV14PeriodicThread+16
 168      93870700 
 169 0018 2330F500 		sd	a5,0(a0)
 170 001c 97000000 		call	_ZN6ThreadD2Ev
 170      E7800000 
 171              	.LVL8:
 172              	.LBE34:
 173 0024 83308100 		ld	ra,8(sp)
 174              		.cfi_restore 1
 175 0028 03340100 		ld	s0,0(sp)
 176              		.cfi_restore 8
 177              		.cfi_def_cfa 2, 16
 178 002c 13010101 		addi	sp,sp,16
 179              		.cfi_def_cfa_offset 0
 180 0030 67800000 		jr	ra
 181              		.cfi_endproc
 182              	.LFE73:
 184              		.weak	_ZN14PeriodicThreadD1Ev
 185              		.set	_ZN14PeriodicThreadD1Ev,_ZN14PeriodicThreadD2Ev
 186              		.text
 187              		.align	2
 188              		.globl	_ZN9SemaphoreD2Ev
 190              	_ZN9SemaphoreD2Ev:
 191              	.LFB61:
 114:src/syscall_cpp.cpp **** 
 115:src/syscall_cpp.cpp **** Semaphore::Semaphore(unsigned int init) {
 116:src/syscall_cpp.cpp **** 	sem_open(&myHandle, init);
 117:src/syscall_cpp.cpp **** }
 118:src/syscall_cpp.cpp **** 
 119:src/syscall_cpp.cpp **** Semaphore::~Semaphore() {
 192              		.loc 2 119 1 is_stmt 1
 193              		.cfi_startproc
 194              		.cfi_personality 0x9b,DW.ref.__gxx_personality_v0
 195              		.cfi_lsda 0x1b,.LLSDA61
 196              	.LVL9:
 197 0068 130101FE 		addi	sp,sp,-32
 198              		.cfi_def_cfa_offset 32
 199 006c 233C1100 		sd	ra,24(sp)
GAS LISTING /tmp/cccIxXNl.s 			page 8


 200 0070 23388100 		sd	s0,16(sp)
 201 0074 23349100 		sd	s1,8(sp)
 202              		.cfi_offset 1, -8
 203              		.cfi_offset 8, -16
 204              		.cfi_offset 9, -24
 205 0078 13040102 		addi	s0,sp,32
 206              		.cfi_def_cfa 8, 0
 207 007c 93040500 		mv	s1,a0
 208              	.LBB35:
 209              		.loc 2 119 23 is_stmt 0
 210 0080 97070000 		lla	a5,_ZTV9Semaphore+16
 210      93870700 
 211 0088 2330F500 		sd	a5,0(a0)
 120:src/syscall_cpp.cpp **** 	sem_close(myHandle);
 212              		.loc 2 120 2 is_stmt 1
 213              		.loc 2 120 11 is_stmt 0
 214 008c 03358500 		ld	a0,8(a0)
 215              	.LVL10:
 216 0090 97000000 		call	_Z9sem_closeP4KSem@plt
 216      E7800000 
 217              	.LVL11:
 121:src/syscall_cpp.cpp **** 	delete myHandle;
 218              		.loc 2 121 2 is_stmt 1
 219              		.loc 2 121 9 is_stmt 0
 220 0098 83B48400 		ld	s1,8(s1)
 221              	.LVL12:
 222              		.loc 2 121 17
 223 009c 63880402 		beqz	s1,.L15
 224              	.L18:
 225              	.LBB36:
 226              	.LBB37:
 227              	.LBB38:
 228              		.file 3 "src/../h/../h/ThreadQueue.hpp"
   1:src/../h/../h/ThreadQueue.hpp **** //
   2:src/../h/../h/ThreadQueue.hpp **** // Created by os on 6/4/23.
   3:src/../h/../h/ThreadQueue.hpp **** //
   4:src/../h/../h/ThreadQueue.hpp **** 
   5:src/../h/../h/ThreadQueue.hpp **** #ifndef PROJEKAT2023_THREADQUEUE_HPP
   6:src/../h/../h/ThreadQueue.hpp **** #define PROJEKAT2023_THREADQUEUE_HPP
   7:src/../h/../h/ThreadQueue.hpp **** 
   8:src/../h/../h/ThreadQueue.hpp **** #include "../h/MemoryAllocator.hpp"
   9:src/../h/../h/ThreadQueue.hpp **** #include "../h/syscall_c.hpp"
  10:src/../h/../h/ThreadQueue.hpp **** 
  11:src/../h/../h/ThreadQueue.hpp **** class TCB;
  12:src/../h/../h/ThreadQueue.hpp **** 
  13:src/../h/../h/ThreadQueue.hpp **** class ThreadQueue {
  14:src/../h/../h/ThreadQueue.hpp **** private:
  15:src/../h/../h/ThreadQueue.hpp **** 	struct Node {
  16:src/../h/../h/ThreadQueue.hpp **** 		TCB* data;
  17:src/../h/../h/ThreadQueue.hpp **** 		Node* next;
  18:src/../h/../h/ThreadQueue.hpp **** 
  19:src/../h/../h/ThreadQueue.hpp **** 		Node(TCB* d) : data(d), next(nullptr) {}
  20:src/../h/../h/ThreadQueue.hpp **** 
  21:src/../h/../h/ThreadQueue.hpp **** 		static void* operator new(size_t size) {
  22:src/../h/../h/ThreadQueue.hpp **** 			return mem_alloc(size);
  23:src/../h/../h/ThreadQueue.hpp **** 		}
  24:src/../h/../h/ThreadQueue.hpp **** 
GAS LISTING /tmp/cccIxXNl.s 			page 9


  25:src/../h/../h/ThreadQueue.hpp **** 		static void operator delete(void* ptr) {
  26:src/../h/../h/ThreadQueue.hpp **** 			mem_free(ptr);
  27:src/../h/../h/ThreadQueue.hpp **** 		}
  28:src/../h/../h/ThreadQueue.hpp **** 	};
  29:src/../h/../h/ThreadQueue.hpp **** 
  30:src/../h/../h/ThreadQueue.hpp **** 	Node* front;
  31:src/../h/../h/ThreadQueue.hpp **** 	Node* back;
  32:src/../h/../h/ThreadQueue.hpp **** 
  33:src/../h/../h/ThreadQueue.hpp **** public:
  34:src/../h/../h/ThreadQueue.hpp **** 	ThreadQueue() : front(nullptr), back(nullptr) {}
  35:src/../h/../h/ThreadQueue.hpp **** 
  36:src/../h/../h/ThreadQueue.hpp **** 	ThreadQueue(const ThreadQueue&) = delete;
  37:src/../h/../h/ThreadQueue.hpp **** 
  38:src/../h/../h/ThreadQueue.hpp **** 	ThreadQueue& operator=(const ThreadQueue&) = delete;
  39:src/../h/../h/ThreadQueue.hpp **** 
  40:src/../h/../h/ThreadQueue.hpp **** 	~ThreadQueue() {
  41:src/../h/../h/ThreadQueue.hpp **** 		while (!isEmpty()) {
 229              		.loc 3 41 3 is_stmt 1
 230              		.loc 3 41 10
 231              	.LVL13:
 232              	.LBB39:
 233              	.LBB40:
  42:src/../h/../h/ThreadQueue.hpp **** 			Node* node = front;
  43:src/../h/../h/ThreadQueue.hpp **** 			front = front->next;
  44:src/../h/../h/ThreadQueue.hpp **** 			delete node;
  45:src/../h/../h/ThreadQueue.hpp **** 		}
  46:src/../h/../h/ThreadQueue.hpp **** 	}
  47:src/../h/../h/ThreadQueue.hpp **** 
  48:src/../h/../h/ThreadQueue.hpp **** 	bool isEmpty() const {
  49:src/../h/../h/ThreadQueue.hpp **** 		return front == nullptr;
 234              		.loc 3 49 3
 235              		.loc 3 49 10 is_stmt 0
 236 00a0 03B58400 		ld	a0,8(s1)
 237              	.LBE40:
 238              	.LBE39:
  41:src/../h/../h/ThreadQueue.hpp **** 			Node* node = front;
 239              		.loc 3 41 10
 240 00a4 630E0500 		beqz	a0,.L17
 241              	.LBB41:
  42:src/../h/../h/ThreadQueue.hpp **** 			Node* node = front;
 242              		.loc 3 42 4 is_stmt 1
 243              	.LVL14:
  43:src/../h/../h/ThreadQueue.hpp **** 			delete node;
 244              		.loc 3 43 4
  43:src/../h/../h/ThreadQueue.hpp **** 			delete node;
 245              		.loc 3 43 19 is_stmt 0
 246 00a8 83378500 		ld	a5,8(a0)
  43:src/../h/../h/ThreadQueue.hpp **** 			delete node;
 247              		.loc 3 43 10
 248 00ac 23B4F400 		sd	a5,8(s1)
  44:src/../h/../h/ThreadQueue.hpp **** 		}
 249              		.loc 3 44 4 is_stmt 1
  44:src/../h/../h/ThreadQueue.hpp **** 		}
 250              		.loc 3 44 15 is_stmt 0
 251 00b0 E30805FE 		beqz	a0,.L18
 252              	.LVL15:
 253              	.LBB42:
GAS LISTING /tmp/cccIxXNl.s 			page 10


 254              	.LBB43:
  26:src/../h/../h/ThreadQueue.hpp **** 		}
 255              		.loc 3 26 4 is_stmt 1
  26:src/../h/../h/ThreadQueue.hpp **** 		}
 256              		.loc 3 26 12 is_stmt 0
 257 00b4 97000000 		call	_Z8mem_freePv@plt
 257      E7800000 
 258              	.LVL16:
  27:src/../h/../h/ThreadQueue.hpp **** 	};
 259              		.loc 3 27 3
 260 00bc 6FF05FFE 		j	.L18
 261              	.L17:
 262              	.LBE43:
 263              	.LBE42:
 264              	.LBE41:
 265              	.LBE38:
 266              	.LBE37:
 267              	.LBE36:
 268              		.loc 2 121 9
 269 00c0 13850400 		mv	a0,s1
 270 00c4 97000000 		call	_ZN4KSemdlEPv@plt
 270      E7800000 
 271              	.LVL17:
 272              	.L15:
 273              	.LBE35:
 122:src/syscall_cpp.cpp **** }
 274              		.loc 2 122 1
 275 00cc 83308101 		ld	ra,24(sp)
 276              		.cfi_restore 1
 277 00d0 03340101 		ld	s0,16(sp)
 278              		.cfi_restore 8
 279              		.cfi_def_cfa 2, 32
 280 00d4 83348100 		ld	s1,8(sp)
 281              		.cfi_restore 9
 282 00d8 13010102 		addi	sp,sp,32
 283              		.cfi_def_cfa_offset 0
 284 00dc 67800000 		jr	ra
 285              		.cfi_endproc
 286              	.LFE61:
 287              		.section	.gcc_except_table
 288              	.LLSDA61:
 289 0004 FF       		.byte	0xff
 290 0005 FF       		.byte	0xff
 291 0006 03       		.byte	0x3
 292 0007 00       		.byte	0
 293              		.text
 295              		.globl	_ZN9SemaphoreD1Ev
 296              		.set	_ZN9SemaphoreD1Ev,_ZN9SemaphoreD2Ev
 297              		.align	2
 298              		.globl	_Znwm
 300              	_Znwm:
 301              	.LFB35:
  11:src/syscall_cpp.cpp **** 	return mem_alloc(size);
 302              		.loc 2 11 33 is_stmt 1
 303              		.cfi_startproc
 304              	.LVL18:
 305 00e0 130101FF 		addi	sp,sp,-16
GAS LISTING /tmp/cccIxXNl.s 			page 11


 306              		.cfi_def_cfa_offset 16
 307 00e4 23341100 		sd	ra,8(sp)
 308 00e8 23308100 		sd	s0,0(sp)
 309              		.cfi_offset 1, -8
 310              		.cfi_offset 8, -16
 311 00ec 13040101 		addi	s0,sp,16
 312              		.cfi_def_cfa 8, 0
  12:src/syscall_cpp.cpp **** }
 313              		.loc 2 12 2
  12:src/syscall_cpp.cpp **** }
 314              		.loc 2 12 18 is_stmt 0
 315 00f0 97000000 		call	_Z9mem_allocm@plt
 315      E7800000 
 316              	.LVL19:
  13:src/syscall_cpp.cpp **** 
 317              		.loc 2 13 1
 318 00f8 83308100 		ld	ra,8(sp)
 319              		.cfi_restore 1
 320 00fc 03340100 		ld	s0,0(sp)
 321              		.cfi_restore 8
 322              		.cfi_def_cfa 2, 16
 323 0100 13010101 		addi	sp,sp,16
 324              		.cfi_def_cfa_offset 0
 325 0104 67800000 		jr	ra
 326              		.cfi_endproc
 327              	.LFE35:
 329              		.align	2
 330              		.globl	_Znam
 332              	_Znam:
 333              	.LFB36:
  15:src/syscall_cpp.cpp **** 	return mem_alloc(size);
 334              		.loc 2 15 35 is_stmt 1
 335              		.cfi_startproc
 336              	.LVL20:
 337 0108 130101FF 		addi	sp,sp,-16
 338              		.cfi_def_cfa_offset 16
 339 010c 23341100 		sd	ra,8(sp)
 340 0110 23308100 		sd	s0,0(sp)
 341              		.cfi_offset 1, -8
 342              		.cfi_offset 8, -16
 343 0114 13040101 		addi	s0,sp,16
 344              		.cfi_def_cfa 8, 0
  16:src/syscall_cpp.cpp **** }
 345              		.loc 2 16 2
  16:src/syscall_cpp.cpp **** }
 346              		.loc 2 16 18 is_stmt 0
 347 0118 97000000 		call	_Z9mem_allocm@plt
 347      E7800000 
 348              	.LVL21:
  17:src/syscall_cpp.cpp **** 
 349              		.loc 2 17 1
 350 0120 83308100 		ld	ra,8(sp)
 351              		.cfi_restore 1
 352 0124 03340100 		ld	s0,0(sp)
 353              		.cfi_restore 8
 354              		.cfi_def_cfa 2, 16
 355 0128 13010101 		addi	sp,sp,16
GAS LISTING /tmp/cccIxXNl.s 			page 12


 356              		.cfi_def_cfa_offset 0
 357 012c 67800000 		jr	ra
 358              		.cfi_endproc
 359              	.LFE36:
 361              		.align	2
 362              		.globl	_ZdlPv
 364              	_ZdlPv:
 365              	.LFB37:
  21:src/syscall_cpp.cpp **** mem_free(ptr);
 366              		.loc 2 21 10 is_stmt 1
 367              		.cfi_startproc
 368              		.cfi_personality 0x9b,DW.ref.__gxx_personality_v0
 369              		.cfi_lsda 0x1b,.LLSDA37
 370              	.LVL22:
 371 0130 130101FF 		addi	sp,sp,-16
 372              		.cfi_def_cfa_offset 16
 373 0134 23341100 		sd	ra,8(sp)
 374 0138 23308100 		sd	s0,0(sp)
 375              		.cfi_offset 1, -8
 376              		.cfi_offset 8, -16
 377 013c 13040101 		addi	s0,sp,16
 378              		.cfi_def_cfa 8, 0
  22:src/syscall_cpp.cpp **** }
 379              		.loc 2 22 1
  22:src/syscall_cpp.cpp **** }
 380              		.loc 2 22 9 is_stmt 0
 381 0140 97000000 		call	_Z8mem_freePv@plt
 381      E7800000 
 382              	.LVL23:
  23:src/syscall_cpp.cpp **** 
 383              		.loc 2 23 1
 384 0148 83308100 		ld	ra,8(sp)
 385              		.cfi_restore 1
 386 014c 03340100 		ld	s0,0(sp)
 387              		.cfi_restore 8
 388              		.cfi_def_cfa 2, 16
 389 0150 13010101 		addi	sp,sp,16
 390              		.cfi_def_cfa_offset 0
 391 0154 67800000 		jr	ra
 392              		.cfi_endproc
 393              	.LFE37:
 394              		.section	.gcc_except_table
 395              	.LLSDA37:
 396 0008 FF       		.byte	0xff
 397 0009 FF       		.byte	0xff
 398 000a 03       		.byte	0x3
 399 000b 00       		.byte	0
 400              		.text
 402              		.align	2
 403              		.globl	_ZN6ThreadD0Ev
 405              	_ZN6ThreadD0Ev:
 406              	.LFB45:
  57:src/syscall_cpp.cpp **** 	thread_exit();
 407              		.loc 2 57 1 is_stmt 1
 408              		.cfi_startproc
 409              	.LVL24:
 410 0158 130101FE 		addi	sp,sp,-32
GAS LISTING /tmp/cccIxXNl.s 			page 13


 411              		.cfi_def_cfa_offset 32
 412 015c 233C1100 		sd	ra,24(sp)
 413 0160 23388100 		sd	s0,16(sp)
 414 0164 23349100 		sd	s1,8(sp)
 415              		.cfi_offset 1, -8
 416              		.cfi_offset 8, -16
 417              		.cfi_offset 9, -24
 418 0168 13040102 		addi	s0,sp,32
 419              		.cfi_def_cfa 8, 0
 420 016c 93040500 		mv	s1,a0
  59:src/syscall_cpp.cpp **** 
 421              		.loc 2 59 1 is_stmt 0
 422 0170 97000000 		call	_ZN6ThreadD1Ev
 422      E7800000 
 423              	.LVL25:
 424 0178 13850400 		mv	a0,s1
 425 017c 97000000 		call	_ZdlPv
 425      E7800000 
 426              	.LVL26:
 427 0184 83308101 		ld	ra,24(sp)
 428              		.cfi_restore 1
 429 0188 03340101 		ld	s0,16(sp)
 430              		.cfi_restore 8
 431              		.cfi_def_cfa 2, 32
 432 018c 83348100 		ld	s1,8(sp)
 433              		.cfi_restore 9
 434              	.LVL27:
 435 0190 13010102 		addi	sp,sp,32
 436              		.cfi_def_cfa_offset 0
 437 0194 67800000 		jr	ra
 438              		.cfi_endproc
 439              	.LFE45:
 441              		.section	.text._ZN14PeriodicThreadD0Ev,"axG",@progbits,_ZN14PeriodicThreadD5Ev,comdat
 442              		.align	2
 443              		.weak	_ZN14PeriodicThreadD0Ev
 445              	_ZN14PeriodicThreadD0Ev:
 446              	.LFB75:
  73:src/../h/syscall_cpp.hpp **** public:
 447              		.loc 1 73 7 is_stmt 1
 448              		.cfi_startproc
 449              	.LVL28:
 450 0000 130101FE 		addi	sp,sp,-32
 451              		.cfi_def_cfa_offset 32
 452 0004 233C1100 		sd	ra,24(sp)
 453 0008 23388100 		sd	s0,16(sp)
 454 000c 23349100 		sd	s1,8(sp)
 455              		.cfi_offset 1, -8
 456              		.cfi_offset 8, -16
 457              		.cfi_offset 9, -24
 458 0010 13040102 		addi	s0,sp,32
 459              		.cfi_def_cfa 8, 0
 460 0014 93040500 		mv	s1,a0
 461              	.LVL29:
 462              	.LBB44:
 463              	.LBB45:
  73:src/../h/syscall_cpp.hpp **** public:
 464              		.loc 1 73 7 is_stmt 0
GAS LISTING /tmp/cccIxXNl.s 			page 14


 465 0018 97070000 		lla	a5,_ZTV14PeriodicThread+16
 465      93870700 
 466 0020 2330F500 		sd	a5,0(a0)
 467 0024 97000000 		call	_ZN6ThreadD2Ev
 467      E7800000 
 468              	.LVL30:
 469              	.LBE45:
 470              	.LBE44:
 471 002c 13850400 		mv	a0,s1
 472 0030 97000000 		call	_ZdlPv
 472      E7800000 
 473              	.LVL31:
 474 0038 83308101 		ld	ra,24(sp)
 475              		.cfi_restore 1
 476 003c 03340101 		ld	s0,16(sp)
 477              		.cfi_restore 8
 478              		.cfi_def_cfa 2, 32
 479 0040 83348100 		ld	s1,8(sp)
 480              		.cfi_restore 9
 481              	.LVL32:
 482 0044 13010102 		addi	sp,sp,32
 483              		.cfi_def_cfa_offset 0
 484 0048 67800000 		jr	ra
 485              		.cfi_endproc
 486              	.LFE75:
 488              		.text
 489              		.align	2
 490              		.globl	_ZN9SemaphoreD0Ev
 492              	_ZN9SemaphoreD0Ev:
 493              	.LFB63:
 119:src/syscall_cpp.cpp **** 	sem_close(myHandle);
 494              		.loc 2 119 1 is_stmt 1
 495              		.cfi_startproc
 496              	.LVL33:
 497 0198 130101FE 		addi	sp,sp,-32
 498              		.cfi_def_cfa_offset 32
 499 019c 233C1100 		sd	ra,24(sp)
 500 01a0 23388100 		sd	s0,16(sp)
 501 01a4 23349100 		sd	s1,8(sp)
 502              		.cfi_offset 1, -8
 503              		.cfi_offset 8, -16
 504              		.cfi_offset 9, -24
 505 01a8 13040102 		addi	s0,sp,32
 506              		.cfi_def_cfa 8, 0
 507 01ac 93040500 		mv	s1,a0
 508              		.loc 2 122 1 is_stmt 0
 509 01b0 97000000 		call	_ZN9SemaphoreD1Ev
 509      E7800000 
 510              	.LVL34:
 511 01b8 13850400 		mv	a0,s1
 512 01bc 97000000 		call	_ZdlPv
 512      E7800000 
 513              	.LVL35:
 514 01c4 83308101 		ld	ra,24(sp)
 515              		.cfi_restore 1
 516 01c8 03340101 		ld	s0,16(sp)
 517              		.cfi_restore 8
GAS LISTING /tmp/cccIxXNl.s 			page 15


 518              		.cfi_def_cfa 2, 32
 519 01cc 83348100 		ld	s1,8(sp)
 520              		.cfi_restore 9
 521              	.LVL36:
 522 01d0 13010102 		addi	sp,sp,32
 523              		.cfi_def_cfa_offset 0
 524 01d4 67800000 		jr	ra
 525              		.cfi_endproc
 526              	.LFE63:
 528              		.align	2
 529              		.globl	_ZdaPv
 531              	_ZdaPv:
 532              	.LFB38:
  27:src/syscall_cpp.cpp **** mem_free(ptr);
 533              		.loc 2 27 10 is_stmt 1
 534              		.cfi_startproc
 535              		.cfi_personality 0x9b,DW.ref.__gxx_personality_v0
 536              		.cfi_lsda 0x1b,.LLSDA38
 537              	.LVL37:
 538 01d8 130101FF 		addi	sp,sp,-16
 539              		.cfi_def_cfa_offset 16
 540 01dc 23341100 		sd	ra,8(sp)
 541 01e0 23308100 		sd	s0,0(sp)
 542              		.cfi_offset 1, -8
 543              		.cfi_offset 8, -16
 544 01e4 13040101 		addi	s0,sp,16
 545              		.cfi_def_cfa 8, 0
  28:src/syscall_cpp.cpp **** }
 546              		.loc 2 28 1
  28:src/syscall_cpp.cpp **** }
 547              		.loc 2 28 9 is_stmt 0
 548 01e8 97000000 		call	_Z8mem_freePv@plt
 548      E7800000 
 549              	.LVL38:
  29:src/syscall_cpp.cpp **** 
 550              		.loc 2 29 1
 551 01f0 83308100 		ld	ra,8(sp)
 552              		.cfi_restore 1
 553 01f4 03340100 		ld	s0,0(sp)
 554              		.cfi_restore 8
 555              		.cfi_def_cfa 2, 16
 556 01f8 13010101 		addi	sp,sp,16
 557              		.cfi_def_cfa_offset 0
 558 01fc 67800000 		jr	ra
 559              		.cfi_endproc
 560              	.LFE38:
 561              		.section	.gcc_except_table
 562              	.LLSDA38:
 563 000c FF       		.byte	0xff
 564 000d FF       		.byte	0xff
 565 000e 03       		.byte	0x3
 566 000f 00       		.byte	0
 567              		.text
 569              		.align	2
 570              		.globl	_ZN6ThreadC2EPFvPvES0_
 572              	_ZN6ThreadC2EPFvPvES0_:
 573              	.LFB40:
GAS LISTING /tmp/cccIxXNl.s 			page 16


  32:src/syscall_cpp.cpp **** 	this->body = body;
 574              		.loc 2 32 1 is_stmt 1
 575              		.cfi_startproc
 576              	.LVL39:
 577 0200 130101FD 		addi	sp,sp,-48
 578              		.cfi_def_cfa_offset 48
 579 0204 23341102 		sd	ra,40(sp)
 580 0208 23308102 		sd	s0,32(sp)
 581 020c 233C9100 		sd	s1,24(sp)
 582 0210 23382101 		sd	s2,16(sp)
 583 0214 23343101 		sd	s3,8(sp)
 584              		.cfi_offset 1, -8
 585              		.cfi_offset 8, -16
 586              		.cfi_offset 9, -24
 587              		.cfi_offset 18, -32
 588              		.cfi_offset 19, -40
 589 0218 13040103 		addi	s0,sp,48
 590              		.cfi_def_cfa 8, 0
 591 021c 93040500 		mv	s1,a0
 592 0220 13890500 		mv	s2,a1
 593 0224 93090600 		mv	s3,a2
 594              	.LBB46:
  32:src/syscall_cpp.cpp **** 	this->body = body;
 595              		.loc 2 32 47 is_stmt 0
 596 0228 97070000 		lla	a5,_ZTV6Thread+16
 596      93870700 
 597 0230 2330F500 		sd	a5,0(a0)
 598              	.LBB47:
  33:src/syscall_cpp.cpp **** 	this->arg = arg;
 599              		.loc 2 33 2 is_stmt 1
  33:src/syscall_cpp.cpp **** 	this->arg = arg;
 600              		.loc 2 33 13 is_stmt 0
 601 0234 2338B500 		sd	a1,16(a0)
  34:src/syscall_cpp.cpp **** 	//stvaranje steka ako se ne radi o main kernel niti, posto ona automatski ima stek
 602              		.loc 2 34 2 is_stmt 1
  34:src/syscall_cpp.cpp **** 	//stvaranje steka ako se ne radi o main kernel niti, posto ona automatski ima stek
 603              		.loc 2 34 12 is_stmt 0
 604 0238 233CC500 		sd	a2,24(a0)
  36:src/syscall_cpp.cpp **** 	if (body != nullptr) {
 605              		.loc 2 36 2 is_stmt 1
 606              	.LVL40:
  37:src/syscall_cpp.cpp **** 		stack = (uint64*)mem_alloc(DEFAULT_STACK_SIZE);
 607              		.loc 2 37 2
 608 023c 63860504 		beqz	a1,.L37
  38:src/syscall_cpp.cpp **** 	}
 609              		.loc 2 38 3
  38:src/syscall_cpp.cpp **** 	}
 610              		.loc 2 38 29 is_stmt 0
 611 0240 37150000 		li	a0,4096
 612              	.LVL41:
 613 0244 97000000 		call	_Z9mem_allocm@plt
 613      E7800000 
 614              	.LVL42:
 615 024c 13030500 		mv	t1,a0
 616              	.LVL43:
 617              	.L36:
  42:src/syscall_cpp.cpp **** 	__asm__ volatile("mv a3, %[arg]": :[arg] "r"(arg):"a5", "a0", "a1", "a2", "a3", "a4", "a6", "a7");
GAS LISTING /tmp/cccIxXNl.s 			page 17


 618              		.loc 2 42 2 is_stmt 1
  42:src/syscall_cpp.cpp **** 	__asm__ volatile("mv a3, %[arg]": :[arg] "r"(arg):"a5", "a0", "a1", "a2", "a3", "a4", "a6", "a7");
 619              		.loc 2 42 99 is_stmt 0
 620              	#APP
 621              	# 42 "src/syscall_cpp.cpp" 1
  43:src/syscall_cpp.cpp **** 	__asm__ volatile("mv a2, %[function]": :[function] "r"(
 622              		mv a4, t1
 623              	# 0 "" 2
 624              		.loc 2 43 2 is_stmt 1
  43:src/syscall_cpp.cpp **** 	__asm__ volatile("mv a2, %[function]": :[function] "r"(
 625              		.loc 2 43 99 is_stmt 0
 626              	# 43 "src/syscall_cpp.cpp" 1
  44:src/syscall_cpp.cpp **** 			body):"a5", "a0", "a1", "a2", "a3", "a4", "a6", "a7");
 627              		mv a3, s3
 628              	# 0 "" 2
 629              		.loc 2 44 2 is_stmt 1
  45:src/syscall_cpp.cpp **** 	__asm__ volatile("mv a1, %[handle]": :[handle] "r"(&myHandle):"a5", "a0", "a1", "a2", "a3", "a4", 
 630              		.loc 2 45 57 is_stmt 0
 631              	# 45 "src/syscall_cpp.cpp" 1
  46:src/syscall_cpp.cpp **** 	__asm__ volatile("li a0, 0x80");
 632              		mv a2, s2
 633              	# 0 "" 2
 634              		.loc 2 46 2 is_stmt 1
  46:src/syscall_cpp.cpp **** 	__asm__ volatile("li a0, 0x80");
 635              		.loc 2 46 53 is_stmt 0
 636              	#NO_APP
 637 025c 93848400 		addi	s1,s1,8
 638              	.LVL44:
  46:src/syscall_cpp.cpp **** 	__asm__ volatile("li a0, 0x80");
 639              		.loc 2 46 111
 640              	#APP
 641              	# 46 "src/syscall_cpp.cpp" 1
  47:src/syscall_cpp.cpp **** 	//a0 = 0x80
 642              		mv a1, s1
 643              	# 0 "" 2
 644              		.loc 2 47 2 is_stmt 1
  47:src/syscall_cpp.cpp **** 	//a0 = 0x80
 645              		.loc 2 47 33 is_stmt 0
 646              	# 47 "src/syscall_cpp.cpp" 1
  54:src/syscall_cpp.cpp **** }
 647              		li a0, 0x80
 648              	# 0 "" 2
 649              		.loc 2 54 2 is_stmt 1
  54:src/syscall_cpp.cpp **** }
 650              		.loc 2 54 27 is_stmt 0
 651              	# 54 "src/syscall_cpp.cpp" 1
 652              		ecall
 653              	# 0 "" 2
 654              	#NO_APP
 655              	.LBE47:
 656              	.LBE46:
  55:src/syscall_cpp.cpp **** 
 657              		.loc 2 55 1
 658 026c 83308102 		ld	ra,40(sp)
 659              		.cfi_remember_state
 660              		.cfi_restore 1
 661 0270 03340102 		ld	s0,32(sp)
GAS LISTING /tmp/cccIxXNl.s 			page 18


 662              		.cfi_restore 8
 663              		.cfi_def_cfa 2, 48
 664 0274 83348101 		ld	s1,24(sp)
 665              		.cfi_restore 9
 666              	.LVL45:
 667 0278 03390101 		ld	s2,16(sp)
 668              		.cfi_restore 18
 669              	.LVL46:
 670 027c 83398100 		ld	s3,8(sp)
 671              		.cfi_restore 19
 672              	.LVL47:
 673 0280 13010103 		addi	sp,sp,48
 674              		.cfi_def_cfa_offset 0
 675 0284 67800000 		jr	ra
 676              	.LVL48:
 677              	.L37:
 678              		.cfi_restore_state
 679              	.LBB49:
 680              	.LBB48:
  36:src/syscall_cpp.cpp **** 	if (body != nullptr) {
 681              		.loc 2 36 10
 682 0288 13030000 		li	t1,0
 683 028c 6FF05FFC 		j	.L36
 684              	.LBE48:
 685              	.LBE49:
 686              		.cfi_endproc
 687              	.LFE40:
 689              		.globl	_ZN6ThreadC1EPFvPvES0_
 690              		.set	_ZN6ThreadC1EPFvPvES0_,_ZN6ThreadC2EPFvPvES0_
 691              		.align	2
 692              		.globl	_ZN6Thread5startEv
 694              	_ZN6Thread5startEv:
 695              	.LFB46:
  61:src/syscall_cpp.cpp **** 	if (myHandle == nullptr) return -1;
 696              		.loc 2 61 21 is_stmt 1
 697              		.cfi_startproc
 698              	.LVL49:
 699 0290 130101FF 		addi	sp,sp,-16
 700              		.cfi_def_cfa_offset 16
 701 0294 23348100 		sd	s0,8(sp)
 702              		.cfi_offset 8, -8
 703 0298 13040101 		addi	s0,sp,16
 704              		.cfi_def_cfa 8, 0
  62:src/syscall_cpp.cpp **** 	__asm__ volatile("mv a1, %[handle]": :[handle] "r"(myHandle):"a5", "a0", "a1", "a2", "a3", "a4", "
 705              		.loc 2 62 2
  62:src/syscall_cpp.cpp **** 	__asm__ volatile("mv a1, %[handle]": :[handle] "r"(myHandle):"a5", "a0", "a1", "a2", "a3", "a4", "
 706              		.loc 2 62 6 is_stmt 0
 707 029c 03338500 		ld	t1,8(a0)
  62:src/syscall_cpp.cpp **** 	__asm__ volatile("mv a1, %[handle]": :[handle] "r"(myHandle):"a5", "a0", "a1", "a2", "a3", "a4", "
 708              		.loc 2 62 2
 709 02a0 63000302 		beqz	t1,.L41
  63:src/syscall_cpp.cpp **** 	__asm__ volatile("li a0, 0x81");
 710              		.loc 2 63 2 is_stmt 1
  63:src/syscall_cpp.cpp **** 	__asm__ volatile("li a0, 0x81");
 711              		.loc 2 63 110 is_stmt 0
 712              	#APP
 713              	# 63 "src/syscall_cpp.cpp" 1
GAS LISTING /tmp/cccIxXNl.s 			page 19


 714              		mv a1, t1
 715              	# 0 "" 2
 716              	.LVL50:
  64:src/syscall_cpp.cpp **** 
 717              		.loc 2 64 2 is_stmt 1
  64:src/syscall_cpp.cpp **** 
 718              		.loc 2 64 33 is_stmt 0
 719              	# 64 "src/syscall_cpp.cpp" 1
  66:src/syscall_cpp.cpp **** 
 720              		li a0, 0x81
 721              	# 0 "" 2
 722              		.loc 2 66 2 is_stmt 1
  66:src/syscall_cpp.cpp **** 
 723              		.loc 2 66 27 is_stmt 0
 724              	# 66 "src/syscall_cpp.cpp" 1
  68:src/syscall_cpp.cpp **** }
 725              		ecall
 726              	# 0 "" 2
 727              		.loc 2 68 2 is_stmt 1
  68:src/syscall_cpp.cpp **** }
 728              		.loc 2 68 9 is_stmt 0
 729              	#NO_APP
 730 02b0 13050000 		li	a0,0
 731              	.L40:
  69:src/syscall_cpp.cpp **** 
 732              		.loc 2 69 1
 733 02b4 03348100 		ld	s0,8(sp)
 734              		.cfi_remember_state
 735              		.cfi_restore 8
 736              		.cfi_def_cfa 2, 16
 737 02b8 13010101 		addi	sp,sp,16
 738              		.cfi_def_cfa_offset 0
 739 02bc 67800000 		jr	ra
 740              	.LVL51:
 741              	.L41:
 742              		.cfi_restore_state
  62:src/syscall_cpp.cpp **** 	__asm__ volatile("mv a1, %[handle]": :[handle] "r"(myHandle):"a5", "a0", "a1", "a2", "a3", "a4", "
 743              		.loc 2 62 35
 744 02c0 1305F0FF 		li	a0,-1
 745              	.LVL52:
 746 02c4 6FF01FFF 		j	.L40
 747              		.cfi_endproc
 748              	.LFE46:
 750              		.align	2
 751              		.globl	_ZN6Thread4joinEv
 753              	_ZN6Thread4joinEv:
 754              	.LFB47:
  71:src/syscall_cpp.cpp **** 	thread_join(myHandle);
 755              		.loc 2 71 21 is_stmt 1
 756              		.cfi_startproc
 757              	.LVL53:
 758 02c8 130101FF 		addi	sp,sp,-16
 759              		.cfi_def_cfa_offset 16
 760 02cc 23341100 		sd	ra,8(sp)
 761 02d0 23308100 		sd	s0,0(sp)
 762              		.cfi_offset 1, -8
 763              		.cfi_offset 8, -16
GAS LISTING /tmp/cccIxXNl.s 			page 20


 764 02d4 13040101 		addi	s0,sp,16
 765              		.cfi_def_cfa 8, 0
  72:src/syscall_cpp.cpp **** }
 766              		.loc 2 72 2
  72:src/syscall_cpp.cpp **** }
 767              		.loc 2 72 13 is_stmt 0
 768 02d8 03358500 		ld	a0,8(a0)
 769              	.LVL54:
 770 02dc 97000000 		call	_Z11thread_joinP3TCB@plt
 770      E7800000 
 771              	.LVL55:
  73:src/syscall_cpp.cpp **** 
 772              		.loc 2 73 1
 773 02e4 83308100 		ld	ra,8(sp)
 774              		.cfi_restore 1
 775 02e8 03340100 		ld	s0,0(sp)
 776              		.cfi_restore 8
 777              		.cfi_def_cfa 2, 16
 778 02ec 13010101 		addi	sp,sp,16
 779              		.cfi_def_cfa_offset 0
 780 02f0 67800000 		jr	ra
 781              		.cfi_endproc
 782              	.LFE47:
 784              		.align	2
 785              		.globl	_ZN6Thread8dispatchEv
 787              	_ZN6Thread8dispatchEv:
 788              	.LFB48:
  75:src/syscall_cpp.cpp **** 	thread_dispatch();
 789              		.loc 2 75 25 is_stmt 1
 790              		.cfi_startproc
 791 02f4 130101FF 		addi	sp,sp,-16
 792              		.cfi_def_cfa_offset 16
 793 02f8 23341100 		sd	ra,8(sp)
 794 02fc 23308100 		sd	s0,0(sp)
 795              		.cfi_offset 1, -8
 796              		.cfi_offset 8, -16
 797 0300 13040101 		addi	s0,sp,16
 798              		.cfi_def_cfa 8, 0
  76:src/syscall_cpp.cpp **** }
 799              		.loc 2 76 2
  76:src/syscall_cpp.cpp **** }
 800              		.loc 2 76 17 is_stmt 0
 801 0304 97000000 		call	_Z15thread_dispatchv@plt
 801      E7800000 
 802              	.LVL56:
  77:src/syscall_cpp.cpp **** 
 803              		.loc 2 77 1
 804 030c 83308100 		ld	ra,8(sp)
 805              		.cfi_restore 1
 806 0310 03340100 		ld	s0,0(sp)
 807              		.cfi_restore 8
 808              		.cfi_def_cfa 2, 16
 809 0314 13010101 		addi	sp,sp,16
 810              		.cfi_def_cfa_offset 0
 811 0318 67800000 		jr	ra
 812              		.cfi_endproc
 813              	.LFE48:
GAS LISTING /tmp/cccIxXNl.s 			page 21


 815              		.align	2
 816              		.globl	_ZN6Thread5sleepEm
 818              	_ZN6Thread5sleepEm:
 819              	.LFB49:
  79:src/syscall_cpp.cpp **** 	Scheduler::putToSleep(TCB::running, t);
 820              		.loc 2 79 29 is_stmt 1
 821              		.cfi_startproc
 822              	.LVL57:
 823 031c 130101FF 		addi	sp,sp,-16
 824              		.cfi_def_cfa_offset 16
 825 0320 23341100 		sd	ra,8(sp)
 826 0324 23308100 		sd	s0,0(sp)
 827              		.cfi_offset 1, -8
 828              		.cfi_offset 8, -16
 829 0328 13040101 		addi	s0,sp,16
 830              		.cfi_def_cfa 8, 0
 831 032c 93050500 		mv	a1,a0
  80:src/syscall_cpp.cpp **** 	return 0;
 832              		.loc 2 80 2
  80:src/syscall_cpp.cpp **** 	return 0;
 833              		.loc 2 80 23 is_stmt 0
 834 0330 97070000 		la	a5,_ZN3TCB7runningE
 834      83B70700 
 835 0338 03B50700 		ld	a0,0(a5)
 836              	.LVL58:
 837 033c 97000000 		call	_ZN9Scheduler10putToSleepEP3TCBm@plt
 837      E7800000 
 838              	.LVL59:
  81:src/syscall_cpp.cpp **** }
 839              		.loc 2 81 2 is_stmt 1
  82:src/syscall_cpp.cpp **** 
 840              		.loc 2 82 1 is_stmt 0
 841 0344 13050000 		li	a0,0
 842 0348 83308100 		ld	ra,8(sp)
 843              		.cfi_restore 1
 844 034c 03340100 		ld	s0,0(sp)
 845              		.cfi_restore 8
 846              		.cfi_def_cfa 2, 16
 847 0350 13010101 		addi	sp,sp,16
 848              		.cfi_def_cfa_offset 0
 849 0354 67800000 		jr	ra
 850              		.cfi_endproc
 851              	.LFE49:
 853              		.align	2
 854              		.globl	_ZN6ThreadC2Ev
 856              	_ZN6ThreadC2Ev:
 857              	.LFB51:
  84:src/syscall_cpp.cpp **** 	this->body = wrapper;
 858              		.loc 2 84 1 is_stmt 1
 859              		.cfi_startproc
 860              	.LVL60:
 861 0358 130101FE 		addi	sp,sp,-32
 862              		.cfi_def_cfa_offset 32
 863 035c 233C1100 		sd	ra,24(sp)
 864 0360 23388100 		sd	s0,16(sp)
 865 0364 23349100 		sd	s1,8(sp)
 866              		.cfi_offset 1, -8
GAS LISTING /tmp/cccIxXNl.s 			page 22


 867              		.cfi_offset 8, -16
 868              		.cfi_offset 9, -24
 869 0368 13040102 		addi	s0,sp,32
 870              		.cfi_def_cfa 8, 0
 871 036c 93040500 		mv	s1,a0
 872              	.LBB50:
  84:src/syscall_cpp.cpp **** 	this->body = wrapper;
 873              		.loc 2 84 16 is_stmt 0
 874 0370 97070000 		lla	a5,_ZTV6Thread+16
 874      93870700 
 875 0378 2330F500 		sd	a5,0(a0)
 876              	.LBB51:
  85:src/syscall_cpp.cpp **** 	this->arg = this;
 877              		.loc 2 85 2 is_stmt 1
  85:src/syscall_cpp.cpp **** 	this->arg = this;
 878              		.loc 2 85 13 is_stmt 0
 879 037c 97070000 		lla	a5,_ZN6Thread7wrapperEPv
 879      93870700 
 880 0384 2338F500 		sd	a5,16(a0)
  86:src/syscall_cpp.cpp **** 	//stvaranje steka ako se ne radi o main kernel niti, posto ona automatski ima stek
 881              		.loc 2 86 2 is_stmt 1
  86:src/syscall_cpp.cpp **** 	//stvaranje steka ako se ne radi o main kernel niti, posto ona automatski ima stek
 882              		.loc 2 86 12 is_stmt 0
 883 0388 233CA500 		sd	a0,24(a0)
  88:src/syscall_cpp.cpp **** 	if (body != nullptr) {
 884              		.loc 2 88 2 is_stmt 1
 885              	.LVL61:
  89:src/syscall_cpp.cpp **** 		stack = (uint64*)mem_alloc(DEFAULT_STACK_SIZE);
 886              		.loc 2 89 2
  90:src/syscall_cpp.cpp **** 	}
 887              		.loc 2 90 3
  90:src/syscall_cpp.cpp **** 	}
 888              		.loc 2 90 29 is_stmt 0
 889 038c 37150000 		li	a0,4096
 890              	.LVL62:
 891 0390 97000000 		call	_Z9mem_allocm@plt
 891      E7800000 
 892              	.LVL63:
 893 0398 13030500 		mv	t1,a0
 894              	.LVL64:
  94:src/syscall_cpp.cpp **** 	__asm__ volatile("mv a3, %[arg]": :[arg] "r"(arg):"a5", "a0", "a1", "a2", "a3", "a4", "a6", "a7");
 895              		.loc 2 94 2 is_stmt 1
  94:src/syscall_cpp.cpp **** 	__asm__ volatile("mv a3, %[arg]": :[arg] "r"(arg):"a5", "a0", "a1", "a2", "a3", "a4", "a6", "a7");
 896              		.loc 2 94 99 is_stmt 0
 897              	#APP
 898              	# 94 "src/syscall_cpp.cpp" 1
  95:src/syscall_cpp.cpp **** 	__asm__ volatile("mv a2, %[function]": :[function] "r"(
 899              		mv a4, t1
 900              	# 0 "" 2
 901              		.loc 2 95 2 is_stmt 1
  95:src/syscall_cpp.cpp **** 	__asm__ volatile("mv a2, %[function]": :[function] "r"(
 902              		.loc 2 95 47 is_stmt 0
 903              	#NO_APP
 904 03a0 03B38401 		ld	t1,24(s1)
 905              	.LVL65:
  95:src/syscall_cpp.cpp **** 	__asm__ volatile("mv a2, %[function]": :[function] "r"(
 906              		.loc 2 95 99
GAS LISTING /tmp/cccIxXNl.s 			page 23


 907              	#APP
 908              	# 95 "src/syscall_cpp.cpp" 1
  96:src/syscall_cpp.cpp **** 			body):"a5", "a0", "a1", "a2", "a3", "a4", "a6", "a7");
 909              		mv a3, t1
 910              	# 0 "" 2
 911              		.loc 2 96 2 is_stmt 1
  97:src/syscall_cpp.cpp **** 	__asm__ volatile("mv a1, %[handle]": :[handle] "r"(&myHandle):"a5", "a0", "a1", "a2", "a3", "a4", 
 912              		.loc 2 97 4 is_stmt 0
 913              	#NO_APP
 914 03a8 03B30401 		ld	t1,16(s1)
  97:src/syscall_cpp.cpp **** 	__asm__ volatile("mv a1, %[handle]": :[handle] "r"(&myHandle):"a5", "a0", "a1", "a2", "a3", "a4", 
 915              		.loc 2 97 57
 916              	#APP
 917              	# 97 "src/syscall_cpp.cpp" 1
  98:src/syscall_cpp.cpp **** 	__asm__ volatile("li a0, 0x80");
 918              		mv a2, t1
 919              	# 0 "" 2
 920              		.loc 2 98 2 is_stmt 1
  98:src/syscall_cpp.cpp **** 	__asm__ volatile("li a0, 0x80");
 921              		.loc 2 98 53 is_stmt 0
 922              	#NO_APP
 923 03b0 93848400 		addi	s1,s1,8
 924              	.LVL66:
  98:src/syscall_cpp.cpp **** 	__asm__ volatile("li a0, 0x80");
 925              		.loc 2 98 111
 926              	#APP
 927              	# 98 "src/syscall_cpp.cpp" 1
  99:src/syscall_cpp.cpp **** 	//a0 = 0x80
 928              		mv a1, s1
 929              	# 0 "" 2
 930              		.loc 2 99 2 is_stmt 1
  99:src/syscall_cpp.cpp **** 	//a0 = 0x80
 931              		.loc 2 99 33 is_stmt 0
 932              	# 99 "src/syscall_cpp.cpp" 1
 106:src/syscall_cpp.cpp **** }
 933              		li a0, 0x80
 934              	# 0 "" 2
 935              		.loc 2 106 2 is_stmt 1
 106:src/syscall_cpp.cpp **** }
 936              		.loc 2 106 27 is_stmt 0
 937              	# 106 "src/syscall_cpp.cpp" 1
 938              		ecall
 939              	# 0 "" 2
 940              	#NO_APP
 941              	.LBE51:
 942              	.LBE50:
 107:src/syscall_cpp.cpp **** 
 943              		.loc 2 107 1
 944 03c0 83308101 		ld	ra,24(sp)
 945              		.cfi_restore 1
 946 03c4 03340101 		ld	s0,16(sp)
 947              		.cfi_restore 8
 948              		.cfi_def_cfa 2, 32
 949 03c8 83348100 		ld	s1,8(sp)
 950              		.cfi_restore 9
 951              	.LVL67:
 952 03cc 13010102 		addi	sp,sp,32
GAS LISTING /tmp/cccIxXNl.s 			page 24


 953              		.cfi_def_cfa_offset 0
 954 03d0 67800000 		jr	ra
 955              		.cfi_endproc
 956              	.LFE51:
 958              		.globl	_ZN6ThreadC1Ev
 959              		.set	_ZN6ThreadC1Ev,_ZN6ThreadC2Ev
 960              		.align	2
 961              		.globl	_ZN9SemaphoreC2Ej
 963              	_ZN9SemaphoreC2Ej:
 964              	.LFB55:
 115:src/syscall_cpp.cpp **** 	sem_open(&myHandle, init);
 965              		.loc 2 115 1 is_stmt 1
 966              		.cfi_startproc
 967              	.LVL68:
 968 03d4 130101FF 		addi	sp,sp,-16
 969              		.cfi_def_cfa_offset 16
 970 03d8 23341100 		sd	ra,8(sp)
 971 03dc 23308100 		sd	s0,0(sp)
 972              		.cfi_offset 1, -8
 973              		.cfi_offset 8, -16
 974 03e0 13040101 		addi	s0,sp,16
 975              		.cfi_def_cfa 8, 0
 976              	.LBB52:
 115:src/syscall_cpp.cpp **** 	sem_open(&myHandle, init);
 977              		.loc 2 115 39 is_stmt 0
 978 03e4 97070000 		lla	a5,_ZTV9Semaphore+16
 978      93870700 
 979 03ec 2330F500 		sd	a5,0(a0)
 116:src/syscall_cpp.cpp **** }
 980              		.loc 2 116 2 is_stmt 1
 116:src/syscall_cpp.cpp **** }
 981              		.loc 2 116 10 is_stmt 0
 982 03f0 13058500 		addi	a0,a0,8
 983              	.LVL69:
 984 03f4 97000000 		call	_Z8sem_openPP4KSemj@plt
 984      E7800000 
 985              	.LVL70:
 986              	.LBE52:
 117:src/syscall_cpp.cpp **** 
 987              		.loc 2 117 1
 988 03fc 83308100 		ld	ra,8(sp)
 989              		.cfi_restore 1
 990 0400 03340100 		ld	s0,0(sp)
 991              		.cfi_restore 8
 992              		.cfi_def_cfa 2, 16
 993 0404 13010101 		addi	sp,sp,16
 994              		.cfi_def_cfa_offset 0
 995 0408 67800000 		jr	ra
 996              		.cfi_endproc
 997              	.LFE55:
 999              		.globl	_ZN9SemaphoreC1Ej
 1000              		.set	_ZN9SemaphoreC1Ej,_ZN9SemaphoreC2Ej
 1001              		.align	2
 1002              		.globl	_ZN9Semaphore4waitEv
 1004              	_ZN9Semaphore4waitEv:
 1005              	.LFB64:
 123:src/syscall_cpp.cpp **** 
GAS LISTING /tmp/cccIxXNl.s 			page 25


 124:src/syscall_cpp.cpp **** int Semaphore::wait() {
 1006              		.loc 2 124 23 is_stmt 1
 1007              		.cfi_startproc
 1008              	.LVL71:
 1009 040c 130101FF 		addi	sp,sp,-16
 1010              		.cfi_def_cfa_offset 16
 1011 0410 23341100 		sd	ra,8(sp)
 1012 0414 23308100 		sd	s0,0(sp)
 1013              		.cfi_offset 1, -8
 1014              		.cfi_offset 8, -16
 1015 0418 13040101 		addi	s0,sp,16
 1016              		.cfi_def_cfa 8, 0
 125:src/syscall_cpp.cpp **** 	return sem_wait(myHandle);
 1017              		.loc 2 125 2
 1018              		.loc 2 125 17 is_stmt 0
 1019 041c 03358500 		ld	a0,8(a0)
 1020              	.LVL72:
 1021 0420 97000000 		call	_Z8sem_waitP4KSem@plt
 1021      E7800000 
 1022              	.LVL73:
 126:src/syscall_cpp.cpp **** }
 1023              		.loc 2 126 1
 1024 0428 83308100 		ld	ra,8(sp)
 1025              		.cfi_restore 1
 1026 042c 03340100 		ld	s0,0(sp)
 1027              		.cfi_restore 8
 1028              		.cfi_def_cfa 2, 16
 1029 0430 13010101 		addi	sp,sp,16
 1030              		.cfi_def_cfa_offset 0
 1031 0434 67800000 		jr	ra
 1032              		.cfi_endproc
 1033              	.LFE64:
 1035              		.align	2
 1036              		.globl	_ZN9Semaphore6signalEv
 1038              	_ZN9Semaphore6signalEv:
 1039              	.LFB65:
 127:src/syscall_cpp.cpp **** 
 128:src/syscall_cpp.cpp **** int Semaphore::signal() {
 1040              		.loc 2 128 25 is_stmt 1
 1041              		.cfi_startproc
 1042              	.LVL74:
 1043 0438 130101FF 		addi	sp,sp,-16
 1044              		.cfi_def_cfa_offset 16
 1045 043c 23341100 		sd	ra,8(sp)
 1046 0440 23308100 		sd	s0,0(sp)
 1047              		.cfi_offset 1, -8
 1048              		.cfi_offset 8, -16
 1049 0444 13040101 		addi	s0,sp,16
 1050              		.cfi_def_cfa 8, 0
 129:src/syscall_cpp.cpp **** 	return sem_signal(myHandle);
 1051              		.loc 2 129 2
 1052              		.loc 2 129 19 is_stmt 0
 1053 0448 03358500 		ld	a0,8(a0)
 1054              	.LVL75:
 1055 044c 97000000 		call	_Z10sem_signalP4KSem@plt
 1055      E7800000 
 1056              	.LVL76:
GAS LISTING /tmp/cccIxXNl.s 			page 26


 130:src/syscall_cpp.cpp **** }
 1057              		.loc 2 130 1
 1058 0454 83308100 		ld	ra,8(sp)
 1059              		.cfi_restore 1
 1060 0458 03340100 		ld	s0,0(sp)
 1061              		.cfi_restore 8
 1062              		.cfi_def_cfa 2, 16
 1063 045c 13010101 		addi	sp,sp,16
 1064              		.cfi_def_cfa_offset 0
 1065 0460 67800000 		jr	ra
 1066              		.cfi_endproc
 1067              	.LFE65:
 1069              		.align	2
 1070              		.globl	_ZN14PeriodicThread9terminateEv
 1072              	_ZN14PeriodicThread9terminateEv:
 1073              	.LFB66:
 131:src/syscall_cpp.cpp **** 
 132:src/syscall_cpp.cpp **** void PeriodicThread::terminate() {
 1074              		.loc 2 132 34 is_stmt 1
 1075              		.cfi_startproc
 1076              	.LVL77:
 1077 0464 130101FF 		addi	sp,sp,-16
 1078              		.cfi_def_cfa_offset 16
 1079 0468 23348100 		sd	s0,8(sp)
 1080              		.cfi_offset 8, -8
 1081 046c 13040101 		addi	s0,sp,16
 1082              		.cfi_def_cfa 8, 0
 133:src/syscall_cpp.cpp **** 
 134:src/syscall_cpp.cpp **** }
 1083              		.loc 2 134 1 is_stmt 0
 1084 0470 03348100 		ld	s0,8(sp)
 1085              		.cfi_restore 8
 1086              		.cfi_def_cfa 2, 16
 1087 0474 13010101 		addi	sp,sp,16
 1088              		.cfi_def_cfa_offset 0
 1089 0478 67800000 		jr	ra
 1090              		.cfi_endproc
 1091              	.LFE66:
 1093              		.align	2
 1094              		.globl	_ZN14PeriodicThreadC2Em
 1096              	_ZN14PeriodicThreadC2Em:
 1097              	.LFB68:
 135:src/syscall_cpp.cpp **** 
 136:src/syscall_cpp.cpp **** PeriodicThread::PeriodicThread(time_t period) {
 1098              		.loc 2 136 1 is_stmt 1
 1099              		.cfi_startproc
 1100              	.LVL78:
 1101 047c 130101FE 		addi	sp,sp,-32
 1102              		.cfi_def_cfa_offset 32
 1103 0480 233C1100 		sd	ra,24(sp)
 1104 0484 23388100 		sd	s0,16(sp)
 1105 0488 23349100 		sd	s1,8(sp)
 1106              		.cfi_offset 1, -8
 1107              		.cfi_offset 8, -16
 1108              		.cfi_offset 9, -24
 1109 048c 13040102 		addi	s0,sp,32
 1110              		.cfi_def_cfa 8, 0
GAS LISTING /tmp/cccIxXNl.s 			page 27


 1111 0490 93040500 		mv	s1,a0
 1112              	.LBB53:
 1113              		.loc 2 136 45 is_stmt 0
 1114 0494 97000000 		call	_ZN6ThreadC2Ev
 1114      E7800000 
 1115              	.LVL79:
 1116 049c 97070000 		lla	a5,_ZTV14PeriodicThread+16
 1116      93870700 
 1117 04a4 23B0F400 		sd	a5,0(s1)
 1118              	.LBE53:
 137:src/syscall_cpp.cpp **** 
 138:src/syscall_cpp.cpp **** }
 1119              		.loc 2 138 1
 1120 04a8 83308101 		ld	ra,24(sp)
 1121              		.cfi_restore 1
 1122 04ac 03340101 		ld	s0,16(sp)
 1123              		.cfi_restore 8
 1124              		.cfi_def_cfa 2, 32
 1125 04b0 83348100 		ld	s1,8(sp)
 1126              		.cfi_restore 9
 1127              	.LVL80:
 1128 04b4 13010102 		addi	sp,sp,32
 1129              		.cfi_def_cfa_offset 0
 1130 04b8 67800000 		jr	ra
 1131              		.cfi_endproc
 1132              	.LFE68:
 1134              		.globl	_ZN14PeriodicThreadC1Em
 1135              		.set	_ZN14PeriodicThreadC1Em,_ZN14PeriodicThreadC2Em
 1136              		.align	2
 1137              		.globl	_ZN7Console4getcEv
 1139              	_ZN7Console4getcEv:
 1140              	.LFB70:
 139:src/syscall_cpp.cpp **** 
 140:src/syscall_cpp.cpp **** char Console::getc() {
 1141              		.loc 2 140 22 is_stmt 1
 1142              		.cfi_startproc
 1143 04bc 130101FF 		addi	sp,sp,-16
 1144              		.cfi_def_cfa_offset 16
 1145 04c0 23348100 		sd	s0,8(sp)
 1146              		.cfi_offset 8, -8
 1147 04c4 13040101 		addi	s0,sp,16
 1148              		.cfi_def_cfa 8, 0
 141:src/syscall_cpp.cpp **** 	return 0;
 1149              		.loc 2 141 2
 142:src/syscall_cpp.cpp **** }
 1150              		.loc 2 142 1 is_stmt 0
 1151 04c8 13050000 		li	a0,0
 1152 04cc 03348100 		ld	s0,8(sp)
 1153              		.cfi_restore 8
 1154              		.cfi_def_cfa 2, 16
 1155 04d0 13010101 		addi	sp,sp,16
 1156              		.cfi_def_cfa_offset 0
 1157 04d4 67800000 		jr	ra
 1158              		.cfi_endproc
 1159              	.LFE70:
 1161              		.align	2
 1162              		.globl	_ZN7Console4putcEc
GAS LISTING /tmp/cccIxXNl.s 			page 28


 1164              	_ZN7Console4putcEc:
 1165              	.LFB71:
 143:src/syscall_cpp.cpp **** 
 144:src/syscall_cpp.cpp **** void Console::putc(char) {
 1166              		.loc 2 144 26 is_stmt 1
 1167              		.cfi_startproc
 1168 04d8 130101FF 		addi	sp,sp,-16
 1169              		.cfi_def_cfa_offset 16
 1170 04dc 23348100 		sd	s0,8(sp)
 1171              		.cfi_offset 8, -8
 1172 04e0 13040101 		addi	s0,sp,16
 1173              		.cfi_def_cfa 8, 0
 145:src/syscall_cpp.cpp **** 
 146:src/syscall_cpp.cpp **** }
 1174              		.loc 2 146 1 is_stmt 0
 1175 04e4 03348100 		ld	s0,8(sp)
 1176              		.cfi_restore 8
 1177              		.cfi_def_cfa 2, 16
 1178 04e8 13010101 		addi	sp,sp,16
 1179              		.cfi_def_cfa_offset 0
 1180 04ec 67800000 		jr	ra
 1181              		.cfi_endproc
 1182              	.LFE71:
 1184              		.weak	_ZTV14PeriodicThread
 1185              		.section	.data.rel.ro.local._ZTV14PeriodicThread,"awG",@progbits,_ZTV14PeriodicThread,comdat
 1186              		.align	3
 1189              	_ZTV14PeriodicThread:
 1190 0000 00000000 		.dword	0
 1190      00000000 
 1191 0008 00000000 		.dword	0
 1191      00000000 
 1192 0010 00000000 		.dword	_ZN14PeriodicThreadD1Ev
 1192      00000000 
 1193 0018 00000000 		.dword	_ZN14PeriodicThreadD0Ev
 1193      00000000 
 1194 0020 00000000 		.dword	_ZN6Thread3runEv
 1194      00000000 
 1195 0028 00000000 		.dword	_ZN14PeriodicThread18periodicActivationEv
 1195      00000000 
 1196              		.weak	_ZTV6Thread
 1197              		.section	.data.rel.ro.local._ZTV6Thread,"awG",@progbits,_ZTV6Thread,comdat
 1198              		.align	3
 1201              	_ZTV6Thread:
 1202 0000 00000000 		.dword	0
 1202      00000000 
 1203 0008 00000000 		.dword	0
 1203      00000000 
 1204 0010 00000000 		.dword	_ZN6ThreadD1Ev
 1204      00000000 
 1205 0018 00000000 		.dword	_ZN6ThreadD0Ev
 1205      00000000 
 1206 0020 00000000 		.dword	_ZN6Thread3runEv
 1206      00000000 
 1207              		.weak	_ZTV9Semaphore
 1208              		.section	.data.rel.ro.local._ZTV9Semaphore,"awG",@progbits,_ZTV9Semaphore,comdat
 1209              		.align	3
 1212              	_ZTV9Semaphore:
GAS LISTING /tmp/cccIxXNl.s 			page 29


 1213 0000 00000000 		.dword	0
 1213      00000000 
 1214 0008 00000000 		.dword	0
 1214      00000000 
 1215 0010 00000000 		.dword	_ZN9SemaphoreD1Ev
 1215      00000000 
 1216 0018 00000000 		.dword	_ZN9SemaphoreD0Ev
 1216      00000000 
 1217              		.text
 1218              	.Letext0:
 1219              		.file 4 "src/../h/../lib/hw.h"
 1220              		.file 5 "src/../h/TCB.hpp"
 1221              		.file 6 "src/../h/KSem.hpp"
 1222              		.file 7 "src/../h/Scheduler.hpp"
 1223              		.file 8 "src/../h/syscall_c.hpp"
 6026              		.align	3
 6029              	DW.ref.__gxx_personality_v0:
 6030 0000 00000000 		.dword	__gxx_personality_v0
 6030      00000000 
 6031              		.ident	"GCC: (Ubuntu 9.4.0-1ubuntu1~20.04) 9.4.0"
 6032              		.section	.note.GNU-stack,"",@progbits
GAS LISTING /tmp/cccIxXNl.s 			page 30


DEFINED SYMBOLS
                            *ABS*:0000000000000000 syscall_cpp.cpp
     /tmp/cccIxXNl.s:10     .text._ZN6Thread3runEv:0000000000000000 _ZN6Thread3runEv
     /tmp/cccIxXNl.s:14     .text._ZN6Thread3runEv:0000000000000000 .L0 
     /tmp/cccIxXNl.s:16     .text._ZN6Thread3runEv:0000000000000000 .L0 
     /tmp/cccIxXNl.s:17     .text._ZN6Thread3runEv:0000000000000004 .L0 
     /tmp/cccIxXNl.s:19     .text._ZN6Thread3runEv:0000000000000008 .L0 
     /tmp/cccIxXNl.s:21     .text._ZN6Thread3runEv:000000000000000c .L0 
     /tmp/cccIxXNl.s:23     .text._ZN6Thread3runEv:000000000000000c .L0 
     /tmp/cccIxXNl.s:24     .text._ZN6Thread3runEv:0000000000000010 .L0 
     /tmp/cccIxXNl.s:25     .text._ZN6Thread3runEv:0000000000000010 .L0 
     /tmp/cccIxXNl.s:27     .text._ZN6Thread3runEv:0000000000000014 .L0 
     /tmp/cccIxXNl.s:29     .text._ZN6Thread3runEv:0000000000000018 .L0 
     /tmp/cccIxXNl.s:36     .text._ZN14PeriodicThread18periodicActivationEv:0000000000000000 _ZN14PeriodicThread18periodicActivationEv
     /tmp/cccIxXNl.s:39     .text._ZN14PeriodicThread18periodicActivationEv:0000000000000000 .L0 
     /tmp/cccIxXNl.s:41     .text._ZN14PeriodicThread18periodicActivationEv:0000000000000000 .L0 
     /tmp/cccIxXNl.s:42     .text._ZN14PeriodicThread18periodicActivationEv:0000000000000004 .L0 
     /tmp/cccIxXNl.s:44     .text._ZN14PeriodicThread18periodicActivationEv:0000000000000008 .L0 
     /tmp/cccIxXNl.s:46     .text._ZN14PeriodicThread18periodicActivationEv:000000000000000c .L0 
     /tmp/cccIxXNl.s:48     .text._ZN14PeriodicThread18periodicActivationEv:000000000000000c .L0 
     /tmp/cccIxXNl.s:49     .text._ZN14PeriodicThread18periodicActivationEv:0000000000000010 .L0 
     /tmp/cccIxXNl.s:50     .text._ZN14PeriodicThread18periodicActivationEv:0000000000000010 .L0 
     /tmp/cccIxXNl.s:52     .text._ZN14PeriodicThread18periodicActivationEv:0000000000000014 .L0 
     /tmp/cccIxXNl.s:54     .text._ZN14PeriodicThread18periodicActivationEv:0000000000000018 .L0 
     /tmp/cccIxXNl.s:61     .text:0000000000000000 _ZN6Thread7wrapperEPv
     /tmp/cccIxXNl.s:65     .text:0000000000000000 .L0 
     /tmp/cccIxXNl.s:67     .text:0000000000000000 .L0 
     /tmp/cccIxXNl.s:68     .text:0000000000000000 .L0 
     /tmp/cccIxXNl.s:70     .text:0000000000000004 .L0 
     /tmp/cccIxXNl.s:71     .text:0000000000000008 .L0 
     /tmp/cccIxXNl.s:74     .text:0000000000000010 .L0 
     /tmp/cccIxXNl.s:75     .text:0000000000000010 .L0 
     /tmp/cccIxXNl.s:77     .text:0000000000000014 .L0 
     /tmp/cccIxXNl.s:79     .text:0000000000000014 .L0 
     /tmp/cccIxXNl.s:80     .text:0000000000000014 .L0 
     /tmp/cccIxXNl.s:83     .text:000000000000001c .L0 
     /tmp/cccIxXNl.s:86     .text:0000000000000020 .L0 
     /tmp/cccIxXNl.s:87     .text:0000000000000024 .L0 
     /tmp/cccIxXNl.s:89     .text:0000000000000028 .L0 
     /tmp/cccIxXNl.s:90     .text:0000000000000028 .L0 
     /tmp/cccIxXNl.s:92     .text:000000000000002c .L0 
     /tmp/cccIxXNl.s:97     .text:0000000000000034 .L0 
     /tmp/cccIxXNl.s:103    .text:0000000000000034 _ZN6ThreadD2Ev
     /tmp/cccIxXNl.s:106    .text:0000000000000034 .L0 
     /tmp/cccIxXNl.s:6029   .data.rel.local.DW.ref.__gxx_personality_v0:0000000000000000 DW.ref.__gxx_personality_v0
     /tmp/cccIxXNl.s:110    .text:0000000000000034 .L0 
     /tmp/cccIxXNl.s:111    .text:0000000000000038 .L0 
     /tmp/cccIxXNl.s:114    .text:0000000000000040 .L0 
     /tmp/cccIxXNl.s:115    .text:0000000000000040 .L0 
     /tmp/cccIxXNl.s:117    .text:0000000000000044 .L0 
     /tmp/cccIxXNl.s:1201   .data.rel.ro.local._ZTV6Thread:0000000000000000 _ZTV6Thread
     /tmp/cccIxXNl.s:120    .text:0000000000000044 .L0 
     /tmp/cccIxXNl.s:123    .text:0000000000000050 .L0 
     /tmp/cccIxXNl.s:124    .text:0000000000000050 .L0 
     /tmp/cccIxXNl.s:128    .text:0000000000000058 .L0 
     /tmp/cccIxXNl.s:129    .text:000000000000005c .L0 
     /tmp/cccIxXNl.s:131    .text:0000000000000060 .L0 
GAS LISTING /tmp/cccIxXNl.s 			page 31


     /tmp/cccIxXNl.s:132    .text:0000000000000060 .L0 
     /tmp/cccIxXNl.s:134    .text:0000000000000064 .L0 
     /tmp/cccIxXNl.s:136    .text:0000000000000068 .L0 
     /tmp/cccIxXNl.s:103    .text:0000000000000034 _ZN6ThreadD1Ev
     /tmp/cccIxXNl.s:153    .text._ZN14PeriodicThreadD2Ev:0000000000000000 _ZN14PeriodicThreadD2Ev
     /tmp/cccIxXNl.s:156    .text._ZN14PeriodicThreadD2Ev:0000000000000000 .L0 
     /tmp/cccIxXNl.s:158    .text._ZN14PeriodicThreadD2Ev:0000000000000000 .L0 
     /tmp/cccIxXNl.s:159    .text._ZN14PeriodicThreadD2Ev:0000000000000004 .L0 
     /tmp/cccIxXNl.s:162    .text._ZN14PeriodicThreadD2Ev:000000000000000c .L0 
     /tmp/cccIxXNl.s:163    .text._ZN14PeriodicThreadD2Ev:000000000000000c .L0 
     /tmp/cccIxXNl.s:165    .text._ZN14PeriodicThreadD2Ev:0000000000000010 .L0 
     /tmp/cccIxXNl.s:1189   .data.rel.ro.local._ZTV14PeriodicThread:0000000000000000 _ZTV14PeriodicThread
     /tmp/cccIxXNl.s:168    .text._ZN14PeriodicThreadD2Ev:0000000000000010 .L0 
     /tmp/cccIxXNl.s:174    .text._ZN14PeriodicThreadD2Ev:0000000000000028 .L0 
     /tmp/cccIxXNl.s:176    .text._ZN14PeriodicThreadD2Ev:000000000000002c .L0 
     /tmp/cccIxXNl.s:177    .text._ZN14PeriodicThreadD2Ev:000000000000002c .L0 
     /tmp/cccIxXNl.s:179    .text._ZN14PeriodicThreadD2Ev:0000000000000030 .L0 
     /tmp/cccIxXNl.s:181    .text._ZN14PeriodicThreadD2Ev:0000000000000034 .L0 
     /tmp/cccIxXNl.s:153    .text._ZN14PeriodicThreadD2Ev:0000000000000000 _ZN14PeriodicThreadD1Ev
     /tmp/cccIxXNl.s:190    .text:0000000000000068 _ZN9SemaphoreD2Ev
     /tmp/cccIxXNl.s:193    .text:0000000000000068 .L0 
     /tmp/cccIxXNl.s:197    .text:0000000000000068 .L0 
     /tmp/cccIxXNl.s:198    .text:000000000000006c .L0 
     /tmp/cccIxXNl.s:202    .text:0000000000000078 .L0 
     /tmp/cccIxXNl.s:203    .text:0000000000000078 .L0 
     /tmp/cccIxXNl.s:204    .text:0000000000000078 .L0 
     /tmp/cccIxXNl.s:206    .text:000000000000007c .L0 
     /tmp/cccIxXNl.s:1212   .data.rel.ro.local._ZTV9Semaphore:0000000000000000 _ZTV9Semaphore
     /tmp/cccIxXNl.s:210    .text:0000000000000080 .L0 
     /tmp/cccIxXNl.s:213    .text:000000000000008c .L0 
     /tmp/cccIxXNl.s:214    .text:000000000000008c .L0 
     /tmp/cccIxXNl.s:219    .text:0000000000000098 .L0 
     /tmp/cccIxXNl.s:220    .text:0000000000000098 .L0 
     /tmp/cccIxXNl.s:223    .text:000000000000009c .L0 
     /tmp/cccIxXNl.s:230    .text:00000000000000a0 .L0 
     /tmp/cccIxXNl.s:234    .text:00000000000000a0 .L0 
     /tmp/cccIxXNl.s:235    .text:00000000000000a0 .L0 
     /tmp/cccIxXNl.s:236    .text:00000000000000a0 .L0 
     /tmp/cccIxXNl.s:240    .text:00000000000000a4 .L0 
     /tmp/cccIxXNl.s:244    .text:00000000000000a8 .L0 
     /tmp/cccIxXNl.s:245    .text:00000000000000a8 .L0 
     /tmp/cccIxXNl.s:246    .text:00000000000000a8 .L0 
     /tmp/cccIxXNl.s:248    .text:00000000000000ac .L0 
     /tmp/cccIxXNl.s:250    .text:00000000000000b0 .L0 
     /tmp/cccIxXNl.s:251    .text:00000000000000b0 .L0 
     /tmp/cccIxXNl.s:256    .text:00000000000000b4 .L0 
     /tmp/cccIxXNl.s:257    .text:00000000000000b4 .L0 
     /tmp/cccIxXNl.s:260    .text:00000000000000bc .L0 
     /tmp/cccIxXNl.s:269    .text:00000000000000c0 .L0 
     /tmp/cccIxXNl.s:275    .text:00000000000000cc .L0 
     /tmp/cccIxXNl.s:276    .text:00000000000000d0 .L0 
     /tmp/cccIxXNl.s:278    .text:00000000000000d4 .L0 
     /tmp/cccIxXNl.s:279    .text:00000000000000d4 .L0 
     /tmp/cccIxXNl.s:281    .text:00000000000000d8 .L0 
     /tmp/cccIxXNl.s:283    .text:00000000000000dc .L0 
     /tmp/cccIxXNl.s:285    .text:00000000000000e0 .L0 
     /tmp/cccIxXNl.s:190    .text:0000000000000068 _ZN9SemaphoreD1Ev
GAS LISTING /tmp/cccIxXNl.s 			page 32


     /tmp/cccIxXNl.s:300    .text:00000000000000e0 _Znwm
     /tmp/cccIxXNl.s:303    .text:00000000000000e0 .L0 
     /tmp/cccIxXNl.s:305    .text:00000000000000e0 .L0 
     /tmp/cccIxXNl.s:306    .text:00000000000000e4 .L0 
     /tmp/cccIxXNl.s:309    .text:00000000000000ec .L0 
     /tmp/cccIxXNl.s:310    .text:00000000000000ec .L0 
     /tmp/cccIxXNl.s:312    .text:00000000000000f0 .L0 
     /tmp/cccIxXNl.s:314    .text:00000000000000f0 .L0 
     /tmp/cccIxXNl.s:315    .text:00000000000000f0 .L0 
     /tmp/cccIxXNl.s:318    .text:00000000000000f8 .L0 
     /tmp/cccIxXNl.s:319    .text:00000000000000fc .L0 
     /tmp/cccIxXNl.s:321    .text:0000000000000100 .L0 
     /tmp/cccIxXNl.s:322    .text:0000000000000100 .L0 
     /tmp/cccIxXNl.s:324    .text:0000000000000104 .L0 
     /tmp/cccIxXNl.s:326    .text:0000000000000108 .L0 
     /tmp/cccIxXNl.s:332    .text:0000000000000108 _Znam
     /tmp/cccIxXNl.s:335    .text:0000000000000108 .L0 
     /tmp/cccIxXNl.s:337    .text:0000000000000108 .L0 
     /tmp/cccIxXNl.s:338    .text:000000000000010c .L0 
     /tmp/cccIxXNl.s:341    .text:0000000000000114 .L0 
     /tmp/cccIxXNl.s:342    .text:0000000000000114 .L0 
     /tmp/cccIxXNl.s:344    .text:0000000000000118 .L0 
     /tmp/cccIxXNl.s:346    .text:0000000000000118 .L0 
     /tmp/cccIxXNl.s:347    .text:0000000000000118 .L0 
     /tmp/cccIxXNl.s:350    .text:0000000000000120 .L0 
     /tmp/cccIxXNl.s:351    .text:0000000000000124 .L0 
     /tmp/cccIxXNl.s:353    .text:0000000000000128 .L0 
     /tmp/cccIxXNl.s:354    .text:0000000000000128 .L0 
     /tmp/cccIxXNl.s:356    .text:000000000000012c .L0 
     /tmp/cccIxXNl.s:358    .text:0000000000000130 .L0 
     /tmp/cccIxXNl.s:364    .text:0000000000000130 _ZdlPv
     /tmp/cccIxXNl.s:367    .text:0000000000000130 .L0 
     /tmp/cccIxXNl.s:371    .text:0000000000000130 .L0 
     /tmp/cccIxXNl.s:372    .text:0000000000000134 .L0 
     /tmp/cccIxXNl.s:375    .text:000000000000013c .L0 
     /tmp/cccIxXNl.s:376    .text:000000000000013c .L0 
     /tmp/cccIxXNl.s:378    .text:0000000000000140 .L0 
     /tmp/cccIxXNl.s:380    .text:0000000000000140 .L0 
     /tmp/cccIxXNl.s:381    .text:0000000000000140 .L0 
     /tmp/cccIxXNl.s:384    .text:0000000000000148 .L0 
     /tmp/cccIxXNl.s:385    .text:000000000000014c .L0 
     /tmp/cccIxXNl.s:387    .text:0000000000000150 .L0 
     /tmp/cccIxXNl.s:388    .text:0000000000000150 .L0 
     /tmp/cccIxXNl.s:390    .text:0000000000000154 .L0 
     /tmp/cccIxXNl.s:392    .text:0000000000000158 .L0 
     /tmp/cccIxXNl.s:405    .text:0000000000000158 _ZN6ThreadD0Ev
     /tmp/cccIxXNl.s:408    .text:0000000000000158 .L0 
     /tmp/cccIxXNl.s:410    .text:0000000000000158 .L0 
     /tmp/cccIxXNl.s:411    .text:000000000000015c .L0 
     /tmp/cccIxXNl.s:415    .text:0000000000000168 .L0 
     /tmp/cccIxXNl.s:416    .text:0000000000000168 .L0 
     /tmp/cccIxXNl.s:417    .text:0000000000000168 .L0 
     /tmp/cccIxXNl.s:419    .text:000000000000016c .L0 
     /tmp/cccIxXNl.s:422    .text:0000000000000170 .L0 
     /tmp/cccIxXNl.s:428    .text:0000000000000188 .L0 
     /tmp/cccIxXNl.s:430    .text:000000000000018c .L0 
     /tmp/cccIxXNl.s:431    .text:000000000000018c .L0 
GAS LISTING /tmp/cccIxXNl.s 			page 33


     /tmp/cccIxXNl.s:433    .text:0000000000000190 .L0 
     /tmp/cccIxXNl.s:436    .text:0000000000000194 .L0 
     /tmp/cccIxXNl.s:438    .text:0000000000000198 .L0 
     /tmp/cccIxXNl.s:445    .text._ZN14PeriodicThreadD0Ev:0000000000000000 _ZN14PeriodicThreadD0Ev
     /tmp/cccIxXNl.s:448    .text._ZN14PeriodicThreadD0Ev:0000000000000000 .L0 
     /tmp/cccIxXNl.s:450    .text._ZN14PeriodicThreadD0Ev:0000000000000000 .L0 
     /tmp/cccIxXNl.s:451    .text._ZN14PeriodicThreadD0Ev:0000000000000004 .L0 
     /tmp/cccIxXNl.s:455    .text._ZN14PeriodicThreadD0Ev:0000000000000010 .L0 
     /tmp/cccIxXNl.s:456    .text._ZN14PeriodicThreadD0Ev:0000000000000010 .L0 
     /tmp/cccIxXNl.s:457    .text._ZN14PeriodicThreadD0Ev:0000000000000010 .L0 
     /tmp/cccIxXNl.s:459    .text._ZN14PeriodicThreadD0Ev:0000000000000014 .L0 
     /tmp/cccIxXNl.s:465    .text._ZN14PeriodicThreadD0Ev:0000000000000018 .L0 
     /tmp/cccIxXNl.s:475    .text._ZN14PeriodicThreadD0Ev:000000000000003c .L0 
     /tmp/cccIxXNl.s:477    .text._ZN14PeriodicThreadD0Ev:0000000000000040 .L0 
     /tmp/cccIxXNl.s:478    .text._ZN14PeriodicThreadD0Ev:0000000000000040 .L0 
     /tmp/cccIxXNl.s:480    .text._ZN14PeriodicThreadD0Ev:0000000000000044 .L0 
     /tmp/cccIxXNl.s:483    .text._ZN14PeriodicThreadD0Ev:0000000000000048 .L0 
     /tmp/cccIxXNl.s:485    .text._ZN14PeriodicThreadD0Ev:000000000000004c .L0 
     /tmp/cccIxXNl.s:492    .text:0000000000000198 _ZN9SemaphoreD0Ev
     /tmp/cccIxXNl.s:495    .text:0000000000000198 .L0 
     /tmp/cccIxXNl.s:497    .text:0000000000000198 .L0 
     /tmp/cccIxXNl.s:498    .text:000000000000019c .L0 
     /tmp/cccIxXNl.s:502    .text:00000000000001a8 .L0 
     /tmp/cccIxXNl.s:503    .text:00000000000001a8 .L0 
     /tmp/cccIxXNl.s:504    .text:00000000000001a8 .L0 
     /tmp/cccIxXNl.s:506    .text:00000000000001ac .L0 
     /tmp/cccIxXNl.s:509    .text:00000000000001b0 .L0 
     /tmp/cccIxXNl.s:515    .text:00000000000001c8 .L0 
     /tmp/cccIxXNl.s:517    .text:00000000000001cc .L0 
     /tmp/cccIxXNl.s:518    .text:00000000000001cc .L0 
     /tmp/cccIxXNl.s:520    .text:00000000000001d0 .L0 
     /tmp/cccIxXNl.s:523    .text:00000000000001d4 .L0 
     /tmp/cccIxXNl.s:525    .text:00000000000001d8 .L0 
     /tmp/cccIxXNl.s:531    .text:00000000000001d8 _ZdaPv
     /tmp/cccIxXNl.s:534    .text:00000000000001d8 .L0 
     /tmp/cccIxXNl.s:538    .text:00000000000001d8 .L0 
     /tmp/cccIxXNl.s:539    .text:00000000000001dc .L0 
     /tmp/cccIxXNl.s:542    .text:00000000000001e4 .L0 
     /tmp/cccIxXNl.s:543    .text:00000000000001e4 .L0 
     /tmp/cccIxXNl.s:545    .text:00000000000001e8 .L0 
     /tmp/cccIxXNl.s:547    .text:00000000000001e8 .L0 
     /tmp/cccIxXNl.s:548    .text:00000000000001e8 .L0 
     /tmp/cccIxXNl.s:551    .text:00000000000001f0 .L0 
     /tmp/cccIxXNl.s:552    .text:00000000000001f4 .L0 
     /tmp/cccIxXNl.s:554    .text:00000000000001f8 .L0 
     /tmp/cccIxXNl.s:555    .text:00000000000001f8 .L0 
     /tmp/cccIxXNl.s:557    .text:00000000000001fc .L0 
     /tmp/cccIxXNl.s:559    .text:0000000000000200 .L0 
     /tmp/cccIxXNl.s:572    .text:0000000000000200 _ZN6ThreadC2EPFvPvES0_
     /tmp/cccIxXNl.s:575    .text:0000000000000200 .L0 
     /tmp/cccIxXNl.s:577    .text:0000000000000200 .L0 
     /tmp/cccIxXNl.s:578    .text:0000000000000204 .L0 
     /tmp/cccIxXNl.s:584    .text:0000000000000218 .L0 
     /tmp/cccIxXNl.s:585    .text:0000000000000218 .L0 
     /tmp/cccIxXNl.s:586    .text:0000000000000218 .L0 
     /tmp/cccIxXNl.s:587    .text:0000000000000218 .L0 
     /tmp/cccIxXNl.s:588    .text:0000000000000218 .L0 
GAS LISTING /tmp/cccIxXNl.s 			page 34


     /tmp/cccIxXNl.s:590    .text:000000000000021c .L0 
     /tmp/cccIxXNl.s:596    .text:0000000000000228 .L0 
     /tmp/cccIxXNl.s:600    .text:0000000000000234 .L0 
     /tmp/cccIxXNl.s:601    .text:0000000000000234 .L0 
     /tmp/cccIxXNl.s:603    .text:0000000000000238 .L0 
     /tmp/cccIxXNl.s:604    .text:0000000000000238 .L0 
     /tmp/cccIxXNl.s:607    .text:000000000000023c .L0 
     /tmp/cccIxXNl.s:608    .text:000000000000023c .L0 
     /tmp/cccIxXNl.s:610    .text:0000000000000240 .L0 
     /tmp/cccIxXNl.s:611    .text:0000000000000240 .L0 
     /tmp/cccIxXNl.s:619    .text:0000000000000250 .L0 
 src/syscall_cpp.cpp:42     .text:0000000000000250 .L0 
     /tmp/cccIxXNl.s:625    .text:0000000000000254 .L0 
 src/syscall_cpp.cpp:43     .text:0000000000000254 .L0 
     /tmp/cccIxXNl.s:630    .text:0000000000000258 .L0 
 src/syscall_cpp.cpp:45     .text:0000000000000258 .L0 
     /tmp/cccIxXNl.s:635    .text:000000000000025c .L0 
     /tmp/cccIxXNl.s:637    .text:000000000000025c .L0 
 src/syscall_cpp.cpp:46     .text:0000000000000260 .L0 
     /tmp/cccIxXNl.s:645    .text:0000000000000264 .L0 
 src/syscall_cpp.cpp:47     .text:0000000000000264 .L0 
     /tmp/cccIxXNl.s:650    .text:0000000000000268 .L0 
 src/syscall_cpp.cpp:54     .text:0000000000000268 .L0 
     /tmp/cccIxXNl.s:658    .text:000000000000026c .L0 
     /tmp/cccIxXNl.s:659    .text:0000000000000270 .L0 
     /tmp/cccIxXNl.s:660    .text:0000000000000270 .L0 
     /tmp/cccIxXNl.s:662    .text:0000000000000274 .L0 
     /tmp/cccIxXNl.s:663    .text:0000000000000274 .L0 
     /tmp/cccIxXNl.s:665    .text:0000000000000278 .L0 
     /tmp/cccIxXNl.s:668    .text:000000000000027c .L0 
     /tmp/cccIxXNl.s:671    .text:0000000000000280 .L0 
     /tmp/cccIxXNl.s:674    .text:0000000000000284 .L0 
     /tmp/cccIxXNl.s:678    .text:0000000000000288 .L0 
     /tmp/cccIxXNl.s:682    .text:0000000000000288 .L0 
     /tmp/cccIxXNl.s:686    .text:0000000000000290 .L0 
     /tmp/cccIxXNl.s:572    .text:0000000000000200 _ZN6ThreadC1EPFvPvES0_
     /tmp/cccIxXNl.s:694    .text:0000000000000290 _ZN6Thread5startEv
     /tmp/cccIxXNl.s:697    .text:0000000000000290 .L0 
     /tmp/cccIxXNl.s:699    .text:0000000000000290 .L0 
     /tmp/cccIxXNl.s:700    .text:0000000000000294 .L0 
     /tmp/cccIxXNl.s:702    .text:0000000000000298 .L0 
     /tmp/cccIxXNl.s:704    .text:000000000000029c .L0 
     /tmp/cccIxXNl.s:706    .text:000000000000029c .L0 
     /tmp/cccIxXNl.s:707    .text:000000000000029c .L0 
     /tmp/cccIxXNl.s:709    .text:00000000000002a0 .L0 
     /tmp/cccIxXNl.s:711    .text:00000000000002a4 .L0 
 src/syscall_cpp.cpp:63     .text:00000000000002a4 .L0 
     /tmp/cccIxXNl.s:718    .text:00000000000002a8 .L0 
 src/syscall_cpp.cpp:64     .text:00000000000002a8 .L0 
     /tmp/cccIxXNl.s:723    .text:00000000000002ac .L0 
 src/syscall_cpp.cpp:66     .text:00000000000002ac .L0 
     /tmp/cccIxXNl.s:728    .text:00000000000002b0 .L0 
     /tmp/cccIxXNl.s:730    .text:00000000000002b0 .L0 
     /tmp/cccIxXNl.s:733    .text:00000000000002b4 .L0 
     /tmp/cccIxXNl.s:734    .text:00000000000002b8 .L0 
     /tmp/cccIxXNl.s:735    .text:00000000000002b8 .L0 
     /tmp/cccIxXNl.s:736    .text:00000000000002b8 .L0 
GAS LISTING /tmp/cccIxXNl.s 			page 35


     /tmp/cccIxXNl.s:738    .text:00000000000002bc .L0 
     /tmp/cccIxXNl.s:742    .text:00000000000002c0 .L0 
     /tmp/cccIxXNl.s:744    .text:00000000000002c0 .L0 
     /tmp/cccIxXNl.s:747    .text:00000000000002c8 .L0 
     /tmp/cccIxXNl.s:753    .text:00000000000002c8 _ZN6Thread4joinEv
     /tmp/cccIxXNl.s:756    .text:00000000000002c8 .L0 
     /tmp/cccIxXNl.s:758    .text:00000000000002c8 .L0 
     /tmp/cccIxXNl.s:759    .text:00000000000002cc .L0 
     /tmp/cccIxXNl.s:762    .text:00000000000002d4 .L0 
     /tmp/cccIxXNl.s:763    .text:00000000000002d4 .L0 
     /tmp/cccIxXNl.s:765    .text:00000000000002d8 .L0 
     /tmp/cccIxXNl.s:767    .text:00000000000002d8 .L0 
     /tmp/cccIxXNl.s:768    .text:00000000000002d8 .L0 
     /tmp/cccIxXNl.s:773    .text:00000000000002e4 .L0 
     /tmp/cccIxXNl.s:774    .text:00000000000002e8 .L0 
     /tmp/cccIxXNl.s:776    .text:00000000000002ec .L0 
     /tmp/cccIxXNl.s:777    .text:00000000000002ec .L0 
     /tmp/cccIxXNl.s:779    .text:00000000000002f0 .L0 
     /tmp/cccIxXNl.s:781    .text:00000000000002f4 .L0 
     /tmp/cccIxXNl.s:787    .text:00000000000002f4 _ZN6Thread8dispatchEv
     /tmp/cccIxXNl.s:790    .text:00000000000002f4 .L0 
     /tmp/cccIxXNl.s:791    .text:00000000000002f4 .L0 
     /tmp/cccIxXNl.s:792    .text:00000000000002f8 .L0 
     /tmp/cccIxXNl.s:795    .text:0000000000000300 .L0 
     /tmp/cccIxXNl.s:796    .text:0000000000000300 .L0 
     /tmp/cccIxXNl.s:798    .text:0000000000000304 .L0 
     /tmp/cccIxXNl.s:800    .text:0000000000000304 .L0 
     /tmp/cccIxXNl.s:801    .text:0000000000000304 .L0 
     /tmp/cccIxXNl.s:804    .text:000000000000030c .L0 
     /tmp/cccIxXNl.s:805    .text:0000000000000310 .L0 
     /tmp/cccIxXNl.s:807    .text:0000000000000314 .L0 
     /tmp/cccIxXNl.s:808    .text:0000000000000314 .L0 
     /tmp/cccIxXNl.s:810    .text:0000000000000318 .L0 
     /tmp/cccIxXNl.s:812    .text:000000000000031c .L0 
     /tmp/cccIxXNl.s:818    .text:000000000000031c _ZN6Thread5sleepEm
     /tmp/cccIxXNl.s:821    .text:000000000000031c .L0 
     /tmp/cccIxXNl.s:823    .text:000000000000031c .L0 
     /tmp/cccIxXNl.s:824    .text:0000000000000320 .L0 
     /tmp/cccIxXNl.s:827    .text:0000000000000328 .L0 
     /tmp/cccIxXNl.s:828    .text:0000000000000328 .L0 
     /tmp/cccIxXNl.s:830    .text:000000000000032c .L0 
     /tmp/cccIxXNl.s:833    .text:0000000000000330 .L0 
     /tmp/cccIxXNl.s:834    .text:0000000000000330 .L0 
     /tmp/cccIxXNl.s:840    .text:0000000000000344 .L0 
     /tmp/cccIxXNl.s:841    .text:0000000000000344 .L0 
     /tmp/cccIxXNl.s:843    .text:000000000000034c .L0 
     /tmp/cccIxXNl.s:845    .text:0000000000000350 .L0 
     /tmp/cccIxXNl.s:846    .text:0000000000000350 .L0 
     /tmp/cccIxXNl.s:848    .text:0000000000000354 .L0 
     /tmp/cccIxXNl.s:850    .text:0000000000000358 .L0 
     /tmp/cccIxXNl.s:856    .text:0000000000000358 _ZN6ThreadC2Ev
     /tmp/cccIxXNl.s:859    .text:0000000000000358 .L0 
     /tmp/cccIxXNl.s:861    .text:0000000000000358 .L0 
     /tmp/cccIxXNl.s:862    .text:000000000000035c .L0 
     /tmp/cccIxXNl.s:866    .text:0000000000000368 .L0 
     /tmp/cccIxXNl.s:867    .text:0000000000000368 .L0 
     /tmp/cccIxXNl.s:868    .text:0000000000000368 .L0 
GAS LISTING /tmp/cccIxXNl.s 			page 36


     /tmp/cccIxXNl.s:870    .text:000000000000036c .L0 
     /tmp/cccIxXNl.s:874    .text:0000000000000370 .L0 
     /tmp/cccIxXNl.s:878    .text:000000000000037c .L0 
     /tmp/cccIxXNl.s:879    .text:000000000000037c .L0 
     /tmp/cccIxXNl.s:882    .text:0000000000000388 .L0 
     /tmp/cccIxXNl.s:883    .text:0000000000000388 .L0 
     /tmp/cccIxXNl.s:886    .text:000000000000038c .L0 
     /tmp/cccIxXNl.s:887    .text:000000000000038c .L0 
     /tmp/cccIxXNl.s:888    .text:000000000000038c .L0 
     /tmp/cccIxXNl.s:889    .text:000000000000038c .L0 
     /tmp/cccIxXNl.s:896    .text:000000000000039c .L0 
 src/syscall_cpp.cpp:94     .text:000000000000039c .L0 
     /tmp/cccIxXNl.s:902    .text:00000000000003a0 .L0 
     /tmp/cccIxXNl.s:904    .text:00000000000003a0 .L0 
 src/syscall_cpp.cpp:95     .text:00000000000003a4 .L0 
     /tmp/cccIxXNl.s:912    .text:00000000000003a8 .L0 
     /tmp/cccIxXNl.s:914    .text:00000000000003a8 .L0 
 src/syscall_cpp.cpp:97     .text:00000000000003ac .L0 
     /tmp/cccIxXNl.s:921    .text:00000000000003b0 .L0 
     /tmp/cccIxXNl.s:923    .text:00000000000003b0 .L0 
 src/syscall_cpp.cpp:98     .text:00000000000003b4 .L0 
     /tmp/cccIxXNl.s:931    .text:00000000000003b8 .L0 
 src/syscall_cpp.cpp:99     .text:00000000000003b8 .L0 
     /tmp/cccIxXNl.s:936    .text:00000000000003bc .L0 
 src/syscall_cpp.cpp:106    .text:00000000000003bc .L0 
     /tmp/cccIxXNl.s:944    .text:00000000000003c0 .L0 
     /tmp/cccIxXNl.s:945    .text:00000000000003c4 .L0 
     /tmp/cccIxXNl.s:947    .text:00000000000003c8 .L0 
     /tmp/cccIxXNl.s:948    .text:00000000000003c8 .L0 
     /tmp/cccIxXNl.s:950    .text:00000000000003cc .L0 
     /tmp/cccIxXNl.s:953    .text:00000000000003d0 .L0 
     /tmp/cccIxXNl.s:955    .text:00000000000003d4 .L0 
     /tmp/cccIxXNl.s:856    .text:0000000000000358 _ZN6ThreadC1Ev
     /tmp/cccIxXNl.s:963    .text:00000000000003d4 _ZN9SemaphoreC2Ej
     /tmp/cccIxXNl.s:966    .text:00000000000003d4 .L0 
     /tmp/cccIxXNl.s:968    .text:00000000000003d4 .L0 
     /tmp/cccIxXNl.s:969    .text:00000000000003d8 .L0 
     /tmp/cccIxXNl.s:972    .text:00000000000003e0 .L0 
     /tmp/cccIxXNl.s:973    .text:00000000000003e0 .L0 
     /tmp/cccIxXNl.s:975    .text:00000000000003e4 .L0 
     /tmp/cccIxXNl.s:978    .text:00000000000003e4 .L0 
     /tmp/cccIxXNl.s:981    .text:00000000000003f0 .L0 
     /tmp/cccIxXNl.s:982    .text:00000000000003f0 .L0 
     /tmp/cccIxXNl.s:988    .text:00000000000003fc .L0 
     /tmp/cccIxXNl.s:989    .text:0000000000000400 .L0 
     /tmp/cccIxXNl.s:991    .text:0000000000000404 .L0 
     /tmp/cccIxXNl.s:992    .text:0000000000000404 .L0 
     /tmp/cccIxXNl.s:994    .text:0000000000000408 .L0 
     /tmp/cccIxXNl.s:996    .text:000000000000040c .L0 
     /tmp/cccIxXNl.s:963    .text:00000000000003d4 _ZN9SemaphoreC1Ej
     /tmp/cccIxXNl.s:1004   .text:000000000000040c _ZN9Semaphore4waitEv
     /tmp/cccIxXNl.s:1007   .text:000000000000040c .L0 
     /tmp/cccIxXNl.s:1009   .text:000000000000040c .L0 
     /tmp/cccIxXNl.s:1010   .text:0000000000000410 .L0 
     /tmp/cccIxXNl.s:1013   .text:0000000000000418 .L0 
     /tmp/cccIxXNl.s:1014   .text:0000000000000418 .L0 
     /tmp/cccIxXNl.s:1016   .text:000000000000041c .L0 
GAS LISTING /tmp/cccIxXNl.s 			page 37


     /tmp/cccIxXNl.s:1018   .text:000000000000041c .L0 
     /tmp/cccIxXNl.s:1019   .text:000000000000041c .L0 
     /tmp/cccIxXNl.s:1024   .text:0000000000000428 .L0 
     /tmp/cccIxXNl.s:1025   .text:000000000000042c .L0 
     /tmp/cccIxXNl.s:1027   .text:0000000000000430 .L0 
     /tmp/cccIxXNl.s:1028   .text:0000000000000430 .L0 
     /tmp/cccIxXNl.s:1030   .text:0000000000000434 .L0 
     /tmp/cccIxXNl.s:1032   .text:0000000000000438 .L0 
     /tmp/cccIxXNl.s:1038   .text:0000000000000438 _ZN9Semaphore6signalEv
     /tmp/cccIxXNl.s:1041   .text:0000000000000438 .L0 
     /tmp/cccIxXNl.s:1043   .text:0000000000000438 .L0 
     /tmp/cccIxXNl.s:1044   .text:000000000000043c .L0 
     /tmp/cccIxXNl.s:1047   .text:0000000000000444 .L0 
     /tmp/cccIxXNl.s:1048   .text:0000000000000444 .L0 
     /tmp/cccIxXNl.s:1050   .text:0000000000000448 .L0 
     /tmp/cccIxXNl.s:1052   .text:0000000000000448 .L0 
     /tmp/cccIxXNl.s:1053   .text:0000000000000448 .L0 
     /tmp/cccIxXNl.s:1058   .text:0000000000000454 .L0 
     /tmp/cccIxXNl.s:1059   .text:0000000000000458 .L0 
     /tmp/cccIxXNl.s:1061   .text:000000000000045c .L0 
     /tmp/cccIxXNl.s:1062   .text:000000000000045c .L0 
     /tmp/cccIxXNl.s:1064   .text:0000000000000460 .L0 
     /tmp/cccIxXNl.s:1066   .text:0000000000000464 .L0 
     /tmp/cccIxXNl.s:1072   .text:0000000000000464 _ZN14PeriodicThread9terminateEv
     /tmp/cccIxXNl.s:1075   .text:0000000000000464 .L0 
     /tmp/cccIxXNl.s:1077   .text:0000000000000464 .L0 
     /tmp/cccIxXNl.s:1078   .text:0000000000000468 .L0 
     /tmp/cccIxXNl.s:1080   .text:000000000000046c .L0 
     /tmp/cccIxXNl.s:1082   .text:0000000000000470 .L0 
     /tmp/cccIxXNl.s:1084   .text:0000000000000470 .L0 
     /tmp/cccIxXNl.s:1085   .text:0000000000000474 .L0 
     /tmp/cccIxXNl.s:1086   .text:0000000000000474 .L0 
     /tmp/cccIxXNl.s:1088   .text:0000000000000478 .L0 
     /tmp/cccIxXNl.s:1090   .text:000000000000047c .L0 
     /tmp/cccIxXNl.s:1096   .text:000000000000047c _ZN14PeriodicThreadC2Em
     /tmp/cccIxXNl.s:1099   .text:000000000000047c .L0 
     /tmp/cccIxXNl.s:1101   .text:000000000000047c .L0 
     /tmp/cccIxXNl.s:1102   .text:0000000000000480 .L0 
     /tmp/cccIxXNl.s:1106   .text:000000000000048c .L0 
     /tmp/cccIxXNl.s:1107   .text:000000000000048c .L0 
     /tmp/cccIxXNl.s:1108   .text:000000000000048c .L0 
     /tmp/cccIxXNl.s:1110   .text:0000000000000490 .L0 
     /tmp/cccIxXNl.s:1114   .text:0000000000000494 .L0 
     /tmp/cccIxXNl.s:1120   .text:00000000000004a8 .L0 
     /tmp/cccIxXNl.s:1121   .text:00000000000004ac .L0 
     /tmp/cccIxXNl.s:1123   .text:00000000000004b0 .L0 
     /tmp/cccIxXNl.s:1124   .text:00000000000004b0 .L0 
     /tmp/cccIxXNl.s:1126   .text:00000000000004b4 .L0 
     /tmp/cccIxXNl.s:1129   .text:00000000000004b8 .L0 
     /tmp/cccIxXNl.s:1131   .text:00000000000004bc .L0 
     /tmp/cccIxXNl.s:1096   .text:000000000000047c _ZN14PeriodicThreadC1Em
     /tmp/cccIxXNl.s:1139   .text:00000000000004bc _ZN7Console4getcEv
     /tmp/cccIxXNl.s:1142   .text:00000000000004bc .L0 
     /tmp/cccIxXNl.s:1143   .text:00000000000004bc .L0 
     /tmp/cccIxXNl.s:1144   .text:00000000000004c0 .L0 
     /tmp/cccIxXNl.s:1146   .text:00000000000004c4 .L0 
     /tmp/cccIxXNl.s:1148   .text:00000000000004c8 .L0 
GAS LISTING /tmp/cccIxXNl.s 			page 38


     /tmp/cccIxXNl.s:1150   .text:00000000000004c8 .L0 
     /tmp/cccIxXNl.s:1151   .text:00000000000004c8 .L0 
     /tmp/cccIxXNl.s:1153   .text:00000000000004d0 .L0 
     /tmp/cccIxXNl.s:1154   .text:00000000000004d0 .L0 
     /tmp/cccIxXNl.s:1156   .text:00000000000004d4 .L0 
     /tmp/cccIxXNl.s:1158   .text:00000000000004d8 .L0 
     /tmp/cccIxXNl.s:1164   .text:00000000000004d8 _ZN7Console4putcEc
     /tmp/cccIxXNl.s:1167   .text:00000000000004d8 .L0 
     /tmp/cccIxXNl.s:1168   .text:00000000000004d8 .L0 
     /tmp/cccIxXNl.s:1169   .text:00000000000004dc .L0 
     /tmp/cccIxXNl.s:1171   .text:00000000000004e0 .L0 
     /tmp/cccIxXNl.s:1173   .text:00000000000004e4 .L0 
     /tmp/cccIxXNl.s:1175   .text:00000000000004e4 .L0 
     /tmp/cccIxXNl.s:1176   .text:00000000000004e8 .L0 
     /tmp/cccIxXNl.s:1177   .text:00000000000004e8 .L0 
     /tmp/cccIxXNl.s:1179   .text:00000000000004ec .L0 
     /tmp/cccIxXNl.s:1181   .text:00000000000004f0 .L0 
     /tmp/cccIxXNl.s:32     .text._ZN6Thread3runEv:0000000000000018 .L0 
     /tmp/cccIxXNl.s:57     .text._ZN14PeriodicThread18periodicActivationEv:0000000000000018 .L0 
     /tmp/cccIxXNl.s:1224   .text:00000000000004f0 .L0 
     /tmp/cccIxXNl.s:186    .text._ZN14PeriodicThreadD2Ev:0000000000000034 .L0 
     /tmp/cccIxXNl.s:488    .text._ZN14PeriodicThreadD0Ev:000000000000004c .L0 
     /tmp/cccIxXNl.s:120    .text:0000000000000044 .L0 
     /tmp/cccIxXNl.s:210    .text:0000000000000080 .L0 
     /tmp/cccIxXNl.s:596    .text:0000000000000228 .L0 
     /tmp/cccIxXNl.s:834    .text:0000000000000330 .L0 
     /tmp/cccIxXNl.s:874    .text:0000000000000370 .L0 
     /tmp/cccIxXNl.s:879    .text:000000000000037c .L0 
     /tmp/cccIxXNl.s:978    .text:00000000000003e4 .L0 
     /tmp/cccIxXNl.s:1116   .text:000000000000049c .L0 
     /tmp/cccIxXNl.s:95     .text:0000000000000030 .L8
     /tmp/cccIxXNl.s:272    .text:00000000000000cc .L15
     /tmp/cccIxXNl.s:261    .text:00000000000000c0 .L17
     /tmp/cccIxXNl.s:224    .text:00000000000000a0 .L18
     /tmp/cccIxXNl.s:677    .text:0000000000000288 .L37
     /tmp/cccIxXNl.s:617    .text:0000000000000250 .L36
     /tmp/cccIxXNl.s:741    .text:00000000000002c0 .L41
     /tmp/cccIxXNl.s:731    .text:00000000000002b4 .L40
     /tmp/cccIxXNl.s:168    .text._ZN14PeriodicThreadD2Ev:0000000000000010 .L0 
     /tmp/cccIxXNl.s:465    .text._ZN14PeriodicThreadD0Ev:0000000000000018 .L0 
     /tmp/cccIxXNl.s:3571   .debug_abbrev:0000000000000000 .Ldebug_abbrev0
     /tmp/cccIxXNl.s:5935   .debug_str:0000000000000a12 .LASF206
     /tmp/cccIxXNl.s:5759   .debug_str:0000000000000523 .LASF207
     /tmp/cccIxXNl.s:5877   .debug_str:0000000000000880 .LASF208
     /tmp/cccIxXNl.s:5569   .debug_ranges:0000000000000000 .Ldebug_ranges0
     /tmp/cccIxXNl.s:5589   .debug_line:0000000000000000 .Ldebug_line0
     /tmp/cccIxXNl.s:5851   .debug_str:00000000000007c9 .LASF3
     /tmp/cccIxXNl.s:5747   .debug_str:00000000000004d9 .LASF0
     /tmp/cccIxXNl.s:5777   .debug_str:00000000000005aa .LASF1
     /tmp/cccIxXNl.s:5865   .debug_str:0000000000000835 .LASF2
     /tmp/cccIxXNl.s:5875   .debug_str:0000000000000879 .LASF4
     /tmp/cccIxXNl.s:5761   .debug_str:0000000000000537 .LASF5
     /tmp/cccIxXNl.s:5607   .debug_str:0000000000000092 .LASF6
     /tmp/cccIxXNl.s:5835   .debug_str:0000000000000744 .LASF7
     /tmp/cccIxXNl.s:5831   .debug_str:0000000000000719 .LASF8
     /tmp/cccIxXNl.s:5769   .debug_str:000000000000057a .LASF9
     /tmp/cccIxXNl.s:5715   .debug_str:00000000000003dc .LASF10
GAS LISTING /tmp/cccIxXNl.s 			page 39


     /tmp/cccIxXNl.s:5727   .debug_str:0000000000000458 .LASF11
     /tmp/cccIxXNl.s:5653   .debug_str:0000000000000202 .LASF12
     /tmp/cccIxXNl.s:5707   .debug_str:00000000000003a6 .LASF13
     /tmp/cccIxXNl.s:5669   .debug_str:0000000000000286 .LASF14
     /tmp/cccIxXNl.s:5651   .debug_str:00000000000001f2 .LASF15
     /tmp/cccIxXNl.s:5901   .debug_str:000000000000093f .LASF16
     /tmp/cccIxXNl.s:5697   .debug_str:000000000000033a .LASF17
     /tmp/cccIxXNl.s:5889   .debug_str:00000000000008eb .LASF18
     /tmp/cccIxXNl.s:5975   .debug_str:0000000000000bd6 .LASF19
     /tmp/cccIxXNl.s:5909   .debug_str:000000000000097c .LASF93
     /tmp/cccIxXNl.s:5899   .debug_str:0000000000000932 .LASF20
     /tmp/cccIxXNl.s:5983   .debug_str:0000000000000c10 .LASF22
     /tmp/cccIxXNl.s:5825   .debug_str:00000000000006f2 .LASF209
     /tmp/cccIxXNl.s:6001   .debug_str:0000000000000cac .LASF34
     /tmp/cccIxXNl.s:5763   .debug_str:0000000000000549 .LASF36
     /tmp/cccIxXNl.s:5911   .debug_str:0000000000000984 .LASF24
     /tmp/cccIxXNl.s:5905   .debug_str:000000000000095f .LASF26
     /tmp/cccIxXNl.s:5637   .debug_str:0000000000000184 .LASF21
     /tmp/cccIxXNl.s:5953   .debug_str:0000000000000b44 .LASF23
     /tmp/cccIxXNl.s:5869   .debug_str:0000000000000852 .LASF25
     /tmp/cccIxXNl.s:5903   .debug_str:000000000000094b .LASF27
     /tmp/cccIxXNl.s:5915   .debug_str:000000000000099c .LASF28
     /tmp/cccIxXNl.s:5703   .debug_str:0000000000000377 .LASF29
     /tmp/cccIxXNl.s:5785   .debug_str:00000000000005de .LASF30
     /tmp/cccIxXNl.s:5847   .debug_str:00000000000007a1 .LASF31
     /tmp/cccIxXNl.s:5685   .debug_str:00000000000002fc .LASF32
     /tmp/cccIxXNl.s:5873   .debug_str:0000000000000861 .LASF33
     /tmp/cccIxXNl.s:5959   .debug_str:0000000000000b85 .LASF35
     /tmp/cccIxXNl.s:5709   .debug_str:00000000000003b5 .LASF37
     /tmp/cccIxXNl.s:5977   .debug_str:0000000000000bdf .LASF38
     /tmp/cccIxXNl.s:5705   .debug_str:000000000000038d .LASF40
     /tmp/cccIxXNl.s:5781   .debug_str:00000000000005c5 .LASF39
     /tmp/cccIxXNl.s:5939   .debug_str:0000000000000ae9 .LASF41
     /tmp/cccIxXNl.s:5687   .debug_str:0000000000000309 .LASF42
     /tmp/cccIxXNl.s:5663   .debug_str:000000000000024c .LASF43
     /tmp/cccIxXNl.s:5973   .debug_str:0000000000000bce .LASF44
     /tmp/cccIxXNl.s:5615   .debug_str:00000000000000df .LASF45
     /tmp/cccIxXNl.s:5931   .debug_str:00000000000009fa .LASF46
     /tmp/cccIxXNl.s:5645   .debug_str:00000000000001c5 .LASF47
     /tmp/cccIxXNl.s:5951   .debug_str:0000000000000b3c .LASF48
     /tmp/cccIxXNl.s:5649   .debug_str:00000000000001e3 .LASF49
     /tmp/cccIxXNl.s:6007   .debug_str:0000000000000cd3 .LASF50
     /tmp/cccIxXNl.s:5967   .debug_str:0000000000000bb7 .LASF51
     /tmp/cccIxXNl.s:5943   .debug_str:0000000000000b10 .LASF52
     /tmp/cccIxXNl.s:5887   .debug_str:00000000000008e2 .LASF53
     /tmp/cccIxXNl.s:5821   .debug_str:00000000000006e3 .LASF54
     /tmp/cccIxXNl.s:5735   .debug_str:0000000000000486 .LASF55
     /tmp/cccIxXNl.s:5933   .debug_str:0000000000000a02 .LASF56
     /tmp/cccIxXNl.s:5829   .debug_str:000000000000070d .LASF57
     /tmp/cccIxXNl.s:5593   .debug_str:000000000000002a .LASF58
     /tmp/cccIxXNl.s:5597   .debug_str:000000000000003c .LASF59
     /tmp/cccIxXNl.s:5997   .debug_str:0000000000000c88 .LASF120
     /tmp/cccIxXNl.s:5677   .debug_str:00000000000002c5 .LASF86
     /tmp/cccIxXNl.s:5601   .debug_str:0000000000000052 .LASF88
     /tmp/cccIxXNl.s:6015   .debug_str:0000000000000d0e .LASF60
     /tmp/cccIxXNl.s:5723   .debug_str:0000000000000439 .LASF61
     /tmp/cccIxXNl.s:5749   .debug_str:00000000000004e6 .LASF73
GAS LISTING /tmp/cccIxXNl.s 			page 40


     /tmp/cccIxXNl.s:5793   .debug_str:0000000000000611 .LASF99
     /tmp/cccIxXNl.s:5993   .debug_str:0000000000000c70 .LASF62
     /tmp/cccIxXNl.s:5891   .debug_str:0000000000000901 .LASF63
     /tmp/cccIxXNl.s:5775   .debug_str:00000000000005a2 .LASF64
     /tmp/cccIxXNl.s:5819   .debug_str:00000000000006d0 .LASF65
     /tmp/cccIxXNl.s:5689   .debug_str:0000000000000312 .LASF66
     /tmp/cccIxXNl.s:5693   .debug_str:000000000000031d .LASF67
     /tmp/cccIxXNl.s:5907   .debug_str:0000000000000975 .LASF68
     /tmp/cccIxXNl.s:5631   .debug_str:0000000000000166 .LASF69
     /tmp/cccIxXNl.s:5987   .debug_str:0000000000000c45 .LASF70
     /tmp/cccIxXNl.s:5811   .debug_str:0000000000000692 .LASF71
     /tmp/cccIxXNl.s:5695   .debug_str:000000000000032d .LASF72
     /tmp/cccIxXNl.s:5603   .debug_str:000000000000007a .LASF74
     /tmp/cccIxXNl.s:5745   .debug_str:00000000000004d3 .LASF75
     /tmp/cccIxXNl.s:5927   .debug_str:00000000000009d3 .LASF76
     /tmp/cccIxXNl.s:5599   .debug_str:000000000000004a .LASF77
     /tmp/cccIxXNl.s:5611   .debug_str:00000000000000b0 .LASF78
     /tmp/cccIxXNl.s:5981   .debug_str:0000000000000c03 .LASF79
     /tmp/cccIxXNl.s:5957   .debug_str:0000000000000b75 .LASF80
     /tmp/cccIxXNl.s:5681   .debug_str:00000000000002ed .LASF81
     /tmp/cccIxXNl.s:5771   .debug_str:000000000000058d .LASF82
     /tmp/cccIxXNl.s:5971   .debug_str:0000000000000bc6 .LASF83
     /tmp/cccIxXNl.s:5691   .debug_str:0000000000000317 .LASF84
     /tmp/cccIxXNl.s:5949   .debug_str:0000000000000b2f .LASF210
     /tmp/cccIxXNl.s:5797   .debug_str:0000000000000636 .LASF85
     /tmp/cccIxXNl.s:5751   .debug_str:00000000000004f6 .LASF122
     /tmp/cccIxXNl.s:5985   .debug_str:0000000000000c32 .LASF124
     /tmp/cccIxXNl.s:5801   .debug_str:000000000000064a .LASF87
     /tmp/cccIxXNl.s:5991   .debug_str:0000000000000c5d .LASF89
     /tmp/cccIxXNl.s:5919   .debug_str:00000000000009ad .LASF90
     /tmp/cccIxXNl.s:5855   .debug_str:00000000000007ef .LASF91
     /tmp/cccIxXNl.s:5813   .debug_str:00000000000006a8 .LASF92
     /tmp/cccIxXNl.s:5683   .debug_str:00000000000002f7 .LASF94
     /tmp/cccIxXNl.s:5947   .debug_str:0000000000000b2a .LASF95
     /tmp/cccIxXNl.s:5655   .debug_str:0000000000000211 .LASF96
     /tmp/cccIxXNl.s:5701   .debug_str:0000000000000359 .LASF97
     /tmp/cccIxXNl.s:5679   .debug_str:00000000000002d3 .LASF98
     /tmp/cccIxXNl.s:5839   .debug_str:000000000000075d .LASF100
     /tmp/cccIxXNl.s:5963   .debug_str:0000000000000bab .LASF101
     /tmp/cccIxXNl.s:5773   .debug_str:000000000000059d .LASF102
     /tmp/cccIxXNl.s:5621   .debug_str:000000000000010c .LASF103
     /tmp/cccIxXNl.s:5721   .debug_str:0000000000000421 .LASF104
     /tmp/cccIxXNl.s:5833   .debug_str:000000000000072c .LASF133
     /tmp/cccIxXNl.s:5913   .debug_str:000000000000098f .LASF105
     /tmp/cccIxXNl.s:5673   .debug_str:00000000000002ab .LASF106
     /tmp/cccIxXNl.s:5755   .debug_str:000000000000050c .LASF107
     /tmp/cccIxXNl.s:5613   .debug_str:00000000000000c3 .LASF108
     /tmp/cccIxXNl.s:5779   .debug_str:00000000000005bd .LASF109
     /tmp/cccIxXNl.s:5807   .debug_str:000000000000066e .LASF110
     /tmp/cccIxXNl.s:5639   .debug_str:0000000000000190 .LASF111
     /tmp/cccIxXNl.s:5641   .debug_str:0000000000000199 .LASF112
     /tmp/cccIxXNl.s:5671   .debug_str:0000000000000296 .LASF113
     /tmp/cccIxXNl.s:5979   .debug_str:0000000000000bed .LASF114
     /tmp/cccIxXNl.s:5713   .debug_str:00000000000003d2 .LASF115
     /tmp/cccIxXNl.s:5895   .debug_str:0000000000000915 .LASF116
     /tmp/cccIxXNl.s:5809   .debug_str:000000000000068d .LASF117
     /tmp/cccIxXNl.s:6005   .debug_str:0000000000000cc6 .LASF118
GAS LISTING /tmp/cccIxXNl.s 			page 41


     /tmp/cccIxXNl.s:5995   .debug_str:0000000000000c76 .LASF119
     /tmp/cccIxXNl.s:5737   .debug_str:0000000000000491 .LASF121
     /tmp/cccIxXNl.s:6003   .debug_str:0000000000000cb2 .LASF211
     /tmp/cccIxXNl.s:5945   .debug_str:0000000000000b1a .LASF123
     /tmp/cccIxXNl.s:5853   .debug_str:00000000000007ce .LASF125
     /tmp/cccIxXNl.s:5629   .debug_str:000000000000015b .LASF126
     /tmp/cccIxXNl.s:5623   .debug_str:0000000000000121 .LASF127
     /tmp/cccIxXNl.s:5791   .debug_str:000000000000060c .LASF128
     /tmp/cccIxXNl.s:5667   .debug_str:0000000000000271 .LASF129
     /tmp/cccIxXNl.s:5969   .debug_str:0000000000000bbc .LASF130
     /tmp/cccIxXNl.s:5883   .debug_str:00000000000008c5 .LASF139
     /tmp/cccIxXNl.s:6009   .debug_str:0000000000000cd9 .LASF141
     /tmp/cccIxXNl.s:5923   .debug_str:00000000000009bc .LASF131
     /tmp/cccIxXNl.s:5843   .debug_str:000000000000078c .LASF132
     /tmp/cccIxXNl.s:5879   .debug_str:000000000000089e .LASF134
     /tmp/cccIxXNl.s:5659   .debug_str:0000000000000228 .LASF135
     /tmp/cccIxXNl.s:5609   .debug_str:0000000000000099 .LASF136
     /tmp/cccIxXNl.s:5699   .debug_str:0000000000000350 .LASF137
     /tmp/cccIxXNl.s:5743   .debug_str:00000000000004c3 .LASF212
     /tmp/cccIxXNl.s:5733   .debug_str:000000000000047f .LASF138
     /tmp/cccIxXNl.s:5665   .debug_str:000000000000025f .LASF140
     /tmp/cccIxXNl.s:5859   .debug_str:0000000000000809 .LASF142
     /tmp/cccIxXNl.s:6019   .debug_str:0000000000000d24 .LASF143
     /tmp/cccIxXNl.s:5885   .debug_str:00000000000008da .LASF144
     /tmp/cccIxXNl.s:5893   .debug_str:0000000000000906 .LASF145
     /tmp/cccIxXNl.s:5783   .debug_str:00000000000005cb .LASF146
     /tmp/cccIxXNl.s:5925   .debug_str:00000000000009ce .LASF147
     /tmp/cccIxXNl.s:5837   .debug_str:000000000000074b .LASF148
     /tmp/cccIxXNl.s:5827   .debug_str:00000000000006f7 .LASF149
     /tmp/cccIxXNl.s:5625   .debug_str:0000000000000142 .LASF150
     /tmp/cccIxXNl.s:5937   .debug_str:0000000000000ad6 .LASF151
     /tmp/cccIxXNl.s:5757   .debug_str:0000000000000514 .LASF152
     /tmp/cccIxXNl.s:5741   .debug_str:00000000000004b2 .LASF213
     /tmp/cccIxXNl.s:5595   .debug_str:0000000000000037 .LASF153
     /tmp/cccIxXNl.s:5929   .debug_str:00000000000009e4 .LASF154
     /tmp/cccIxXNl.s:5661   .debug_str:000000000000023d .LASF155
     /tmp/cccIxXNl.s:5955   .debug_str:0000000000000b5b .LASF156
     /tmp/cccIxXNl.s:5961   .debug_str:0000000000000b90 .LASF157
     /tmp/cccIxXNl.s:5921   .debug_str:00000000000009b2 .LASF158
     /tmp/cccIxXNl.s:5719   .debug_str:0000000000000401 .LASF159
     /tmp/cccIxXNl.s:5767   .debug_str:0000000000000562 .LASF160
     /tmp/cccIxXNl.s:5725   .debug_str:0000000000000445 .LASF161
     /tmp/cccIxXNl.s:5591   .debug_str:0000000000000000 .LASF214
     /tmp/cccIxXNl.s:5635   .debug_str:000000000000017d .LASF162
     /tmp/cccIxXNl.s:5817   .debug_str:00000000000006c0 .LASF163
     /tmp/cccIxXNl.s:5795   .debug_str:000000000000061e .LASF215
     /tmp/cccIxXNl.s:5711   .debug_str:00000000000003cd .LASF164
     /tmp/cccIxXNl.s:5605   .debug_str:0000000000000088 .LASF165
     /tmp/cccIxXNl.s:6021   .debug_str:0000000000000d3b .LASF166
     /tmp/cccIxXNl.s:446    .text._ZN14PeriodicThreadD0Ev:0000000000000000 .LFB75
     /tmp/cccIxXNl.s:486    .text._ZN14PeriodicThreadD0Ev:000000000000004c .LFE75
     /tmp/cccIxXNl.s:5073   .debug_loc:0000000000000000 .LLST10
     /tmp/cccIxXNl.s:462    .text._ZN14PeriodicThreadD0Ev:0000000000000018 .LBB44
     /tmp/cccIxXNl.s:470    .text._ZN14PeriodicThreadD0Ev:000000000000002c .LBE44
     /tmp/cccIxXNl.s:5091   .debug_loc:000000000000004c .LLST11
     /tmp/cccIxXNl.s:468    .text._ZN14PeriodicThreadD0Ev:000000000000002c .LVL30
     /tmp/cccIxXNl.s:473    .text._ZN14PeriodicThreadD0Ev:0000000000000038 .LVL31
GAS LISTING /tmp/cccIxXNl.s 			page 42


     /tmp/cccIxXNl.s:5863   .debug_str:000000000000081d .LASF167
     /tmp/cccIxXNl.s:154    .text._ZN14PeriodicThreadD2Ev:0000000000000000 .LFB73
     /tmp/cccIxXNl.s:182    .text._ZN14PeriodicThreadD2Ev:0000000000000034 .LFE73
     /tmp/cccIxXNl.s:5102   .debug_loc:0000000000000082 .LLST2
     /tmp/cccIxXNl.s:171    .text._ZN14PeriodicThreadD2Ev:0000000000000024 .LVL8
     /tmp/cccIxXNl.s:1165   .text:00000000000004d8 .LFB71
     /tmp/cccIxXNl.s:1182   .text:00000000000004f0 .LFE71
     /tmp/cccIxXNl.s:1140   .text:00000000000004bc .LFB70
     /tmp/cccIxXNl.s:1159   .text:00000000000004d8 .LFE70
     /tmp/cccIxXNl.s:5897   .debug_str:000000000000091a .LASF168
     /tmp/cccIxXNl.s:1097   .text:000000000000047c .LFB68
     /tmp/cccIxXNl.s:1132   .text:00000000000004bc .LFE68
     /tmp/cccIxXNl.s:5116   .debug_loc:00000000000000bb .LLST27
     /tmp/cccIxXNl.s:5134   .debug_loc:0000000000000107 .LLST28
     /tmp/cccIxXNl.s:1115   .text:000000000000049c .LVL79
     /tmp/cccIxXNl.s:1073   .text:0000000000000464 .LFB66
     /tmp/cccIxXNl.s:1091   .text:000000000000047c .LFE66
     /tmp/cccIxXNl.s:1039   .text:0000000000000438 .LFB65
     /tmp/cccIxXNl.s:1067   .text:0000000000000464 .LFE65
     /tmp/cccIxXNl.s:5148   .debug_loc:0000000000000140 .LLST26
     /tmp/cccIxXNl.s:1056   .text:0000000000000454 .LVL76
     /tmp/cccIxXNl.s:1005   .text:000000000000040c .LFB64
     /tmp/cccIxXNl.s:1033   .text:0000000000000438 .LFE64
     /tmp/cccIxXNl.s:5162   .debug_loc:0000000000000179 .LLST25
     /tmp/cccIxXNl.s:1022   .text:0000000000000428 .LVL73
     /tmp/cccIxXNl.s:5787   .debug_str:00000000000005eb .LASF169
     /tmp/cccIxXNl.s:493    .text:0000000000000198 .LFB63
     /tmp/cccIxXNl.s:526    .text:00000000000001d8 .LFE63
     /tmp/cccIxXNl.s:5176   .debug_loc:00000000000001b2 .LLST12
     /tmp/cccIxXNl.s:510    .text:00000000000001b8 .LVL34
     /tmp/cccIxXNl.s:513    .text:00000000000001c4 .LVL35
     /tmp/cccIxXNl.s:5617   .debug_str:00000000000000f1 .LASF170
     /tmp/cccIxXNl.s:191    .text:0000000000000068 .LFB61
     /tmp/cccIxXNl.s:286    .text:00000000000000e0 .LFE61
     /tmp/cccIxXNl.s:5194   .debug_loc:00000000000001fe .LLST3
     /tmp/cccIxXNl.s:225    .text:00000000000000a0 .LBB36
     /tmp/cccIxXNl.s:267    .text:00000000000000c0 .LBE36
     /tmp/cccIxXNl.s:226    .text:00000000000000a0 .LBB37
     /tmp/cccIxXNl.s:266    .text:00000000000000c0 .LBE37
     /tmp/cccIxXNl.s:232    .text:00000000000000a0 .LBB39
     /tmp/cccIxXNl.s:238    .text:00000000000000a4 .LBE39
     /tmp/cccIxXNl.s:241    .text:00000000000000a8 .LBB41
     /tmp/cccIxXNl.s:264    .text:00000000000000c0 .LBE41
     /tmp/cccIxXNl.s:5212   .debug_loc:000000000000024a .LLST4
     /tmp/cccIxXNl.s:253    .text:00000000000000b4 .LBB42
     /tmp/cccIxXNl.s:263    .text:00000000000000c0 .LBE42
     /tmp/cccIxXNl.s:5219   .debug_loc:000000000000026d .LLST5
     /tmp/cccIxXNl.s:258    .text:00000000000000bc .LVL16
     /tmp/cccIxXNl.s:217    .text:0000000000000098 .LVL11
     /tmp/cccIxXNl.s:271    .text:00000000000000cc .LVL17
     /tmp/cccIxXNl.s:5647   .debug_str:00000000000001d6 .LASF186
     /tmp/cccIxXNl.s:5633   .debug_str:0000000000000178 .LASF171
     /tmp/cccIxXNl.s:5657   .debug_str:0000000000000216 .LASF172
     /tmp/cccIxXNl.s:964    .text:00000000000003d4 .LFB55
     /tmp/cccIxXNl.s:997    .text:000000000000040c .LFE55
     /tmp/cccIxXNl.s:5226   .debug_loc:0000000000000290 .LLST23
     /tmp/cccIxXNl.s:5246   .debug_loc:00000000000002de .LLST24
GAS LISTING /tmp/cccIxXNl.s 			page 43


     /tmp/cccIxXNl.s:985    .text:00000000000003fc .LVL70
     /tmp/cccIxXNl.s:62     .text:0000000000000000 .LFB53
     /tmp/cccIxXNl.s:98     .text:0000000000000034 .LFE53
     /tmp/cccIxXNl.s:5861   .debug_str:0000000000000816 .LASF174
     /tmp/cccIxXNl.s:5260   .debug_loc:0000000000000317 .LLST0
     /tmp/cccIxXNl.s:84     .text:0000000000000020 .LVL3
     /tmp/cccIxXNl.s:5867   .debug_str:0000000000000843 .LASF173
     /tmp/cccIxXNl.s:857    .text:0000000000000358 .LFB51
     /tmp/cccIxXNl.s:956    .text:00000000000003d4 .LFE51
     /tmp/cccIxXNl.s:5278   .debug_loc:0000000000000363 .LLST21
     /tmp/cccIxXNl.s:892    .text:0000000000000398 .LVL63
     /tmp/cccIxXNl.s:876    .text:000000000000037c .LBB51
     /tmp/cccIxXNl.s:941    .text:00000000000003c0 .LBE51
     /tmp/cccIxXNl.s:5302   .debug_loc:00000000000003c4 .LLST22
     /tmp/cccIxXNl.s:819    .text:000000000000031c .LFB49
     /tmp/cccIxXNl.s:851    .text:0000000000000358 .LFE49
     /tmp/cccIxXNl.s:5314   .debug_loc:00000000000003fb .LLST20
     /tmp/cccIxXNl.s:838    .text:0000000000000344 .LVL59
     /tmp/cccIxXNl.s:788    .text:00000000000002f4 .LFB48
     /tmp/cccIxXNl.s:813    .text:000000000000031c .LFE48
     /tmp/cccIxXNl.s:802    .text:000000000000030c .LVL56
     /tmp/cccIxXNl.s:754    .text:00000000000002c8 .LFB47
     /tmp/cccIxXNl.s:782    .text:00000000000002f4 .LFE47
     /tmp/cccIxXNl.s:5332   .debug_loc:0000000000000447 .LLST19
     /tmp/cccIxXNl.s:771    .text:00000000000002e4 .LVL55
     /tmp/cccIxXNl.s:695    .text:0000000000000290 .LFB46
     /tmp/cccIxXNl.s:748    .text:00000000000002c8 .LFE46
     /tmp/cccIxXNl.s:5346   .debug_loc:0000000000000480 .LLST18
     /tmp/cccIxXNl.s:5789   .debug_str:00000000000005fd .LASF175
     /tmp/cccIxXNl.s:406    .text:0000000000000158 .LFB45
     /tmp/cccIxXNl.s:439    .text:0000000000000198 .LFE45
     /tmp/cccIxXNl.s:5371   .debug_loc:00000000000004e2 .LLST9
     /tmp/cccIxXNl.s:423    .text:0000000000000178 .LVL25
     /tmp/cccIxXNl.s:426    .text:0000000000000184 .LVL26
     /tmp/cccIxXNl.s:5989   .debug_str:0000000000000c4e .LASF176
     /tmp/cccIxXNl.s:104    .text:0000000000000034 .LFB43
     /tmp/cccIxXNl.s:137    .text:0000000000000068 .LFE43
     /tmp/cccIxXNl.s:5389   .debug_loc:000000000000052e .LLST1
     /tmp/cccIxXNl.s:125    .text:0000000000000058 .LVL6
     /tmp/cccIxXNl.s:5941   .debug_str:0000000000000af9 .LASF177
     /tmp/cccIxXNl.s:573    .text:0000000000000200 .LFB40
     /tmp/cccIxXNl.s:687    .text:0000000000000290 .LFE40
     /tmp/cccIxXNl.s:5403   .debug_loc:0000000000000567 .LLST14
     /tmp/cccIxXNl.s:5431   .debug_loc:00000000000005db .LLST15
     /tmp/cccIxXNl.s:5453   .debug_loc:000000000000063a .LLST16
     /tmp/cccIxXNl.s:614    .text:000000000000024c .LVL42
     /tmp/cccIxXNl.s:5475   .debug_loc:0000000000000699 .LLST17
     /tmp/cccIxXNl.s:6011   .debug_str:0000000000000ce9 .LASF178
     /tmp/cccIxXNl.s:5765   .debug_str:000000000000055b .LASF179
     /tmp/cccIxXNl.s:532    .text:00000000000001d8 .LFB38
     /tmp/cccIxXNl.s:560    .text:0000000000000200 .LFE38
     /tmp/cccIxXNl.s:5492   .debug_loc:00000000000006e4 .LLST13
     /tmp/cccIxXNl.s:549    .text:00000000000001f0 .LVL38
     /tmp/cccIxXNl.s:5823   .debug_str:00000000000006eb .LASF180
     /tmp/cccIxXNl.s:365    .text:0000000000000130 .LFB37
     /tmp/cccIxXNl.s:393    .text:0000000000000158 .LFE37
     /tmp/cccIxXNl.s:5506   .debug_loc:000000000000071d .LLST8
GAS LISTING /tmp/cccIxXNl.s 			page 44


     /tmp/cccIxXNl.s:382    .text:0000000000000148 .LVL23
     /tmp/cccIxXNl.s:5643   .debug_str:00000000000001b5 .LASF181
     /tmp/cccIxXNl.s:5917   .debug_str:00000000000009a7 .LASF182
     /tmp/cccIxXNl.s:333    .text:0000000000000108 .LFB36
     /tmp/cccIxXNl.s:359    .text:0000000000000130 .LFE36
     /tmp/cccIxXNl.s:5675   .debug_str:00000000000002c0 .LASF183
     /tmp/cccIxXNl.s:5520   .debug_loc:0000000000000756 .LLST7
     /tmp/cccIxXNl.s:348    .text:0000000000000120 .LVL21
     /tmp/cccIxXNl.s:5965   .debug_str:0000000000000bb1 .LASF184
     /tmp/cccIxXNl.s:301    .text:00000000000000e0 .LFB35
     /tmp/cccIxXNl.s:327    .text:0000000000000108 .LFE35
     /tmp/cccIxXNl.s:5534   .debug_loc:000000000000078f .LLST6
     /tmp/cccIxXNl.s:316    .text:00000000000000f8 .LVL19
     /tmp/cccIxXNl.s:5871   .debug_str:000000000000085c .LASF185
     /tmp/cccIxXNl.s:5717   .debug_str:00000000000003ec .LASF187
     /tmp/cccIxXNl.s:37     .text._ZN14PeriodicThread18periodicActivationEv:0000000000000000 .LFB1
     /tmp/cccIxXNl.s:55     .text._ZN14PeriodicThread18periodicActivationEv:0000000000000018 .LFE1
     /tmp/cccIxXNl.s:11     .text._ZN6Thread3runEv:0000000000000000 .LFB0
     /tmp/cccIxXNl.s:30     .text._ZN6Thread3runEv:0000000000000018 .LFE0
     /tmp/cccIxXNl.s:5857   .debug_str:00000000000007f4 .LASF188
     /tmp/cccIxXNl.s:5731   .debug_str:0000000000000474 .LASF190
     /tmp/cccIxXNl.s:6013   .debug_str:0000000000000cfc .LASF189
     /tmp/cccIxXNl.s:6017   .debug_str:0000000000000d1b .LASF191
     /tmp/cccIxXNl.s:5999   .debug_str:0000000000000c9e .LASF192
     /tmp/cccIxXNl.s:5739   .debug_str:00000000000004a9 .LASF193
     /tmp/cccIxXNl.s:5627   .debug_str:0000000000000148 .LASF194
     /tmp/cccIxXNl.s:5845   .debug_str:0000000000000797 .LASF195
     /tmp/cccIxXNl.s:5841   .debug_str:0000000000000778 .LASF196
     /tmp/cccIxXNl.s:5619   .debug_str:0000000000000103 .LASF197
     /tmp/cccIxXNl.s:5729   .debug_str:0000000000000466 .LASF198
     /tmp/cccIxXNl.s:5803   .debug_str:000000000000064f .LASF199
     /tmp/cccIxXNl.s:5805   .debug_str:0000000000000659 .LASF200
     /tmp/cccIxXNl.s:5849   .debug_str:00000000000007b9 .LASF201
     /tmp/cccIxXNl.s:5881   .debug_str:00000000000008b0 .LASF202
     /tmp/cccIxXNl.s:5815   .debug_str:00000000000006b4 .LASF203
     /tmp/cccIxXNl.s:5753   .debug_str:00000000000004fb .LASF204
     /tmp/cccIxXNl.s:5799   .debug_str:000000000000063e .LASF205
     /tmp/cccIxXNl.s:449    .text._ZN14PeriodicThreadD0Ev:0000000000000000 .LVL28
     /tmp/cccIxXNl.s:481    .text._ZN14PeriodicThreadD0Ev:0000000000000044 .LVL32
     /tmp/cccIxXNl.s:461    .text._ZN14PeriodicThreadD0Ev:0000000000000018 .LVL29
     /tmp/cccIxXNl.s:157    .text._ZN14PeriodicThreadD2Ev:0000000000000000 .LVL7
     /tmp/cccIxXNl.s:1100   .text:000000000000047c .LVL78
     /tmp/cccIxXNl.s:1127   .text:00000000000004b4 .LVL80
     /tmp/cccIxXNl.s:1042   .text:0000000000000438 .LVL74
     /tmp/cccIxXNl.s:1054   .text:000000000000044c .LVL75
     /tmp/cccIxXNl.s:1008   .text:000000000000040c .LVL71
     /tmp/cccIxXNl.s:1020   .text:0000000000000420 .LVL72
     /tmp/cccIxXNl.s:496    .text:0000000000000198 .LVL33
     /tmp/cccIxXNl.s:521    .text:00000000000001d0 .LVL36
     /tmp/cccIxXNl.s:196    .text:0000000000000068 .LVL9
     /tmp/cccIxXNl.s:215    .text:0000000000000090 .LVL10
     /tmp/cccIxXNl.s:221    .text:000000000000009c .LVL12
     /tmp/cccIxXNl.s:243    .text:00000000000000a8 .LVL14
     /tmp/cccIxXNl.s:252    .text:00000000000000b4 .LVL15
     /tmp/cccIxXNl.s:967    .text:00000000000003d4 .LVL68
     /tmp/cccIxXNl.s:983    .text:00000000000003f4 .LVL69
     /tmp/cccIxXNl.s:66     .text:0000000000000000 .LVL2
GAS LISTING /tmp/cccIxXNl.s 			page 45


     /tmp/cccIxXNl.s:94     .text:0000000000000030 .LVL4
     /tmp/cccIxXNl.s:860    .text:0000000000000358 .LVL60
     /tmp/cccIxXNl.s:890    .text:0000000000000390 .LVL62
     /tmp/cccIxXNl.s:924    .text:00000000000003b4 .LVL66
     /tmp/cccIxXNl.s:951    .text:00000000000003cc .LVL67
     /tmp/cccIxXNl.s:885    .text:000000000000038c .LVL61
     /tmp/cccIxXNl.s:894    .text:000000000000039c .LVL64
     /tmp/cccIxXNl.s:905    .text:00000000000003a4 .LVL65
     /tmp/cccIxXNl.s:822    .text:000000000000031c .LVL57
     /tmp/cccIxXNl.s:836    .text:000000000000033c .LVL58
     /tmp/cccIxXNl.s:757    .text:00000000000002c8 .LVL53
     /tmp/cccIxXNl.s:769    .text:00000000000002dc .LVL54
     /tmp/cccIxXNl.s:698    .text:0000000000000290 .LVL49
     /tmp/cccIxXNl.s:716    .text:00000000000002a8 .LVL50
     /tmp/cccIxXNl.s:740    .text:00000000000002c0 .LVL51
     /tmp/cccIxXNl.s:745    .text:00000000000002c4 .LVL52
     /tmp/cccIxXNl.s:409    .text:0000000000000158 .LVL24
     /tmp/cccIxXNl.s:434    .text:0000000000000190 .LVL27
     /tmp/cccIxXNl.s:109    .text:0000000000000034 .LVL5
     /tmp/cccIxXNl.s:576    .text:0000000000000200 .LVL39
     /tmp/cccIxXNl.s:612    .text:0000000000000244 .LVL41
     /tmp/cccIxXNl.s:638    .text:0000000000000260 .LVL44
     /tmp/cccIxXNl.s:666    .text:0000000000000278 .LVL45
     /tmp/cccIxXNl.s:676    .text:0000000000000288 .LVL48
     /tmp/cccIxXNl.s:669    .text:000000000000027c .LVL46
     /tmp/cccIxXNl.s:672    .text:0000000000000280 .LVL47
     /tmp/cccIxXNl.s:606    .text:000000000000023c .LVL40
     /tmp/cccIxXNl.s:616    .text:0000000000000250 .LVL43
     /tmp/cccIxXNl.s:537    .text:00000000000001d8 .LVL37
     /tmp/cccIxXNl.s:370    .text:0000000000000130 .LVL22
     /tmp/cccIxXNl.s:336    .text:0000000000000108 .LVL20
     /tmp/cccIxXNl.s:304    .text:00000000000000e0 .LVL18
     /tmp/cccIxXNl.s:1225   .debug_info:0000000000000000 .Ldebug_info0
     /tmp/cccIxXNl.s:5      .text:0000000000000000 .Ltext0
     /tmp/cccIxXNl.s:1218   .text:00000000000004f0 .Letext0
     /tmp/cccIxXNl.s:598    .text:0000000000000234 .LBB47
     /tmp/cccIxXNl.s:655    .text:000000000000026c .LBE47
     /tmp/cccIxXNl.s:680    .text:0000000000000288 .LBB48
     /tmp/cccIxXNl.s:684    .text:0000000000000290 .LBE48
     /tmp/cccIxXNl.s:140    .gcc_except_table:0000000000000000 .LLSDA43
     /tmp/cccIxXNl.s:288    .gcc_except_table:0000000000000004 .LLSDA61
     /tmp/cccIxXNl.s:395    .gcc_except_table:0000000000000008 .LLSDA37
     /tmp/cccIxXNl.s:562    .gcc_except_table:000000000000000c .LLSDA38
                           .group:0000000000000000 _ZN14PeriodicThreadD5Ev

UNDEFINED SYMBOLS
_Z11thread_exitv
__gxx_personality_v0
_Z9sem_closeP4KSem
_Z8mem_freePv
_ZN4KSemdlEPv
_Z9mem_allocm
_Z11thread_joinP3TCB
_Z15thread_dispatchv
_ZN3TCB7runningE
_ZN9Scheduler10putToSleepEP3TCBm
_Z8sem_openPP4KSemj
GAS LISTING /tmp/cccIxXNl.s 			page 46


_Z8sem_waitP4KSem
_Z10sem_signalP4KSem
