GAS LISTING /tmp/ccTp8bvz.s 			page 1


   1              		.file	"syscall_c.cpp"
   2              		.option pic
   3              		.option norelax
   4              		.text
   5              	.Ltext0:
   6              		.align	2
   7              		.globl	_Z9mem_allocm
   9              	_Z9mem_allocm:
  10              	.LFB40:
  11              		.file 1 "src/syscall_c.cpp"
   1:src/syscall_c.cpp **** #include "../h/syscall_c.hpp"
   2:src/syscall_c.cpp **** #include "../h/Riscv.hpp"
   3:src/syscall_c.cpp **** #include "../h/MemoryAllocator.hpp"
   4:src/syscall_c.cpp **** #include "../lib/console.h"
   5:src/syscall_c.cpp **** #include "../h/TCB.hpp"
   6:src/syscall_c.cpp **** 
   7:src/syscall_c.cpp **** //poziv ecall, prelazak u sistemski rezim i odlazak u prekidnu rutinu
   8:src/syscall_c.cpp **** inline void scall() {
   9:src/syscall_c.cpp ****     __asm__ volatile("ecall");
  10:src/syscall_c.cpp **** }
  11:src/syscall_c.cpp **** 
  12:src/syscall_c.cpp **** void* mem_alloc(size_t size) {
  12              		.loc 1 12 30
  13              		.cfi_startproc
  14              	.LVL0:
  15 0000 130101FF 		addi	sp,sp,-16
  16              		.cfi_def_cfa_offset 16
  17 0004 23348100 		sd	s0,8(sp)
  18              		.cfi_offset 8, -8
  19 0008 13040101 		addi	s0,sp,16
  20              		.cfi_def_cfa 8, 0
  13:src/syscall_c.cpp ****     //na size se dodaje zaglavlje segmenta
  14:src/syscall_c.cpp ****     //size += sizeof(MemoryAllocator::UsedMemSegment);
  15:src/syscall_c.cpp ****     size += 2*sizeof(uint64);
  21              		.loc 1 15 5
  22              		.loc 1 15 10 is_stmt 0
  23 000c 13050501 		addi	a0,a0,16
  24              	.LVL1:
  16:src/syscall_c.cpp ****     //size je u bajtovima, pretvara se u blokove
  17:src/syscall_c.cpp ****     size = size / MEM_BLOCK_SIZE + (size % MEM_BLOCK_SIZE ? 1 : 0);
  25              		.loc 1 17 5 is_stmt 1
  26              		.loc 1 17 17 is_stmt 0
  27 0010 13536500 		srli	t1,a0,6
  28              		.loc 1 17 42
  29 0014 1375F503 		andi	a0,a0,63
  30              	.LVL2:
  31              		.loc 1 17 59
  32 0018 63040500 		beqz	a0,.L2
  33 001c 13051000 		li	a0,1
  34              	.L2:
  35              		.loc 1 17 10 discriminator 4
  36 0020 3303A300 		add	t1,t1,a0
  37              	.LVL3:
  18:src/syscall_c.cpp **** 
  19:src/syscall_c.cpp ****     //stavljanje argumenata za sistemski poziv
  20:src/syscall_c.cpp ****     __asm__ volatile("mv a1, %[size]": :[size] "r"(size):"a5", "a0", "a1", "a2", "a3", "a4", "a6", 
  38              		.loc 1 20 5 is_stmt 1 discriminator 4
GAS LISTING /tmp/ccTp8bvz.s 			page 2


  39              		.loc 1 20 105 is_stmt 0 discriminator 4
  40              	#APP
  41              	# 20 "src/syscall_c.cpp" 1
  21              	    __asm__ volatile("li a0, 0x01");
  42              		mv a1, t1
  43              	# 0 "" 2
  44              		.loc 1 21 5 is_stmt 1 discriminator 4
  45              		.loc 1 21 36 is_stmt 0 discriminator 4
  46              	# 21 "src/syscall_c.cpp" 1
  22              	    //a0 = 0x01
  23:src/syscall_c.cpp ****     //a1 = broj blokova velicine MEM_BLOCK_SIZE za alokaciju
  24:src/syscall_c.cpp **** 
  25:src/syscall_c.cpp ****     scall();
  47              		li a0, 0x01
  48              	# 0 "" 2
  49              		.loc 1 25 5 is_stmt 1 discriminator 4
  50              	#NO_APP
  51              	.LBB32:
  52              	.LBB33:
   9:src/syscall_c.cpp **** }
  53              		.loc 1 9 5 discriminator 4
   9:src/syscall_c.cpp **** }
  54              		.loc 1 9 30 is_stmt 0 discriminator 4
  55              	#APP
  56              	# 9 "src/syscall_c.cpp" 1
  57              		ecall
  58              	# 0 "" 2
  59              	#NO_APP
  60              	.LBE33:
  61              	.LBE32:
  26:src/syscall_c.cpp **** 
  27:src/syscall_c.cpp ****     //vraceni pokazivac pokazuje iza zaglavlja koriscenog segmenta,
  28:src/syscall_c.cpp ****     //na prvu adresu u koju korisnik sme nesto upisati
  29:src/syscall_c.cpp ****     void* ret;
  62              		.loc 1 29 5 is_stmt 1 discriminator 4
  30:src/syscall_c.cpp ****     __asm__ volatile("mv %[ptr], a0":[ptr] "=r"(ret));
  63              		.loc 1 30 5 discriminator 4
  64              		.loc 1 30 54 is_stmt 0 discriminator 4
  65              	#APP
  66              	# 30 "src/syscall_c.cpp" 1
  31              	    return ret;
  67              		mv a0, a0
  68              	# 0 "" 2
  69              	.LVL4:
  70              		.loc 1 31 5 is_stmt 1 discriminator 4
  32:src/syscall_c.cpp **** }
  71              		.loc 1 32 1 is_stmt 0 discriminator 4
  72              	#NO_APP
  73 0034 03348100 		ld	s0,8(sp)
  74              		.cfi_restore 8
  75              		.cfi_def_cfa 2, 16
  76 0038 13010101 		addi	sp,sp,16
  77              		.cfi_def_cfa_offset 0
  78 003c 67800000 		jr	ra
  79              		.cfi_endproc
  80              	.LFE40:
  82              		.align	2
GAS LISTING /tmp/ccTp8bvz.s 			page 3


  83              		.globl	_Z8mem_freePv
  85              	_Z8mem_freePv:
  86              	.LFB41:
  33:src/syscall_c.cpp **** 
  34:src/syscall_c.cpp **** int mem_free(void* ptr) {
  87              		.loc 1 34 25 is_stmt 1
  88              		.cfi_startproc
  89              	.LVL5:
  90 0040 130101FF 		addi	sp,sp,-16
  91              		.cfi_def_cfa_offset 16
  92 0044 23348100 		sd	s0,8(sp)
  93              		.cfi_offset 8, -8
  94 0048 13040101 		addi	s0,sp,16
  95              		.cfi_def_cfa 8, 0
  96 004c 13030500 		mv	t1,a0
  35:src/syscall_c.cpp ****     //stavljanje argumenata za sistemski poziv
  36:src/syscall_c.cpp ****     __asm__ volatile("mv a1, %[ptr]": :[ptr] "r"(ptr):"a5", "a0", "a1", "a2", "a3", "a4", "a6", "a7
  97              		.loc 1 36 5
  98              		.loc 1 36 102 is_stmt 0
  99              	#APP
 100              	# 36 "src/syscall_c.cpp" 1
  37              	    __asm__ volatile("li a0, 0x02");
 101              		mv a1, t1
 102              	# 0 "" 2
 103              	.LVL6:
 104              		.loc 1 37 5 is_stmt 1
 105              		.loc 1 37 36 is_stmt 0
 106              	# 37 "src/syscall_c.cpp" 1
  38              	    //a0 = 0x02
  39:src/syscall_c.cpp ****     //a1 = pokazivac na memoriju koju treba dealocirati, dobijen pomocu mem_alloc
  40:src/syscall_c.cpp **** 
  41:src/syscall_c.cpp ****     scall();
 107              		li a0, 0x02
 108              	# 0 "" 2
 109              		.loc 1 41 5 is_stmt 1
 110              	#NO_APP
 111              	.LBB34:
 112              	.LBB35:
   9:src/syscall_c.cpp **** }
 113              		.loc 1 9 5
   9:src/syscall_c.cpp **** }
 114              		.loc 1 9 30 is_stmt 0
 115              	#APP
 116              	# 9 "src/syscall_c.cpp" 1
 117              		ecall
 118              	# 0 "" 2
 119              	#NO_APP
 120              	.LBE35:
 121              	.LBE34:
  42:src/syscall_c.cpp **** 
  43:src/syscall_c.cpp ****     int status;
 122              		.loc 1 43 5 is_stmt 1
  44:src/syscall_c.cpp ****     __asm__ volatile("mv %[status], a0":[status] "=r"(status));
 123              		.loc 1 44 5
 124              		.loc 1 44 63 is_stmt 0
 125              	#APP
 126              	# 44 "src/syscall_c.cpp" 1
GAS LISTING /tmp/ccTp8bvz.s 			page 4


  45              	    return status;
 127              		mv a0, a0
 128              	# 0 "" 2
 129              	.LVL7:
 130              		.loc 1 45 5 is_stmt 1
  46:src/syscall_c.cpp **** }
 131              		.loc 1 46 1 is_stmt 0
 132              	#NO_APP
 133 0060 1B050500 		sext.w	a0,a0
 134 0064 03348100 		ld	s0,8(sp)
 135              		.cfi_restore 8
 136              		.cfi_def_cfa 2, 16
 137 0068 13010101 		addi	sp,sp,16
 138              		.cfi_def_cfa_offset 0
 139 006c 67800000 		jr	ra
 140              		.cfi_endproc
 141              	.LFE41:
 143              		.align	2
 144              		.globl	_Z13thread_createPP3TCBPFvPvES2_
 146              	_Z13thread_createPP3TCBPFvPvES2_:
 147              	.LFB42:
  47:src/syscall_c.cpp **** 
  48:src/syscall_c.cpp **** int thread_create(thread_t* handle, void (* start_routine)(void*), void* arg) {
 148              		.loc 1 48 79 is_stmt 1
 149              		.cfi_startproc
 150              	.LVL8:
 151 0070 130101FD 		addi	sp,sp,-48
 152              		.cfi_def_cfa_offset 48
 153 0074 23341102 		sd	ra,40(sp)
 154 0078 23308102 		sd	s0,32(sp)
 155 007c 233C9100 		sd	s1,24(sp)
 156 0080 23382101 		sd	s2,16(sp)
 157 0084 23343101 		sd	s3,8(sp)
 158              		.cfi_offset 1, -8
 159              		.cfi_offset 8, -16
 160              		.cfi_offset 9, -24
 161              		.cfi_offset 18, -32
 162              		.cfi_offset 19, -40
 163 0088 13040103 		addi	s0,sp,48
 164              		.cfi_def_cfa 8, 0
 165 008c 13090500 		mv	s2,a0
 166 0090 93840500 		mv	s1,a1
 167 0094 93090600 		mv	s3,a2
  49:src/syscall_c.cpp ****     //stvaranje steka ako se ne radi o main kernel niti, posto ona automatski ima stek
  50:src/syscall_c.cpp ****     uint64* stack = nullptr;
 168              		.loc 1 50 5
 169              	.LVL9:
  51:src/syscall_c.cpp ****     if (start_routine != nullptr) {
 170              		.loc 1 51 5
 171 0098 63880504 		beqz	a1,.L8
  52:src/syscall_c.cpp ****         stack = (uint64*)mem_alloc(DEFAULT_STACK_SIZE);
 172              		.loc 1 52 9
 173              		.loc 1 52 35 is_stmt 0
 174 009c 37150000 		li	a0,4096
 175              	.LVL10:
 176 00a0 97000000 		call	_Z9mem_allocm
 176      E7800000 
GAS LISTING /tmp/ccTp8bvz.s 			page 5


 177              	.LVL11:
 178 00a8 13030500 		mv	t1,a0
 179              	.LVL12:
 180              	.L7:
  53:src/syscall_c.cpp ****     }
  54:src/syscall_c.cpp ****     //stavljanje argumenata za sistemski poziv
  55:src/syscall_c.cpp ****     __asm__ volatile("mv a4, %[sp]": :[sp] "r"(stack):"a5", "a0", "a1", "a2", "a3", "a4", "a6", "a7
 181              		.loc 1 55 5 is_stmt 1
 182              		.loc 1 55 102 is_stmt 0
 183              	#APP
 184              	# 55 "src/syscall_c.cpp" 1
  56              	    __asm__ volatile("mv a3, %[arg]": :[arg] "r"(arg):"a5", "a0", "a1", "a2", "a3", "a4", "a6", "a7
 185              		mv a4, t1
 186              	# 0 "" 2
 187              		.loc 1 56 5 is_stmt 1
 188              		.loc 1 56 102 is_stmt 0
 189              	# 56 "src/syscall_c.cpp" 1
  57              	    __asm__ volatile("mv a2, %[function]": :[function] "r"(
 190              		mv a3, s3
 191              	# 0 "" 2
 192              		.loc 1 57 5 is_stmt 1
  58:src/syscall_c.cpp ****             start_routine):"a5", "a0", "a1", "a2", "a3", "a4", "a6", "a7");
 193              		.loc 1 58 75 is_stmt 0
 194              	# 58 "src/syscall_c.cpp" 1
  59              	    __asm__ volatile("mv a1, %[handle]": :[handle] "r"(handle):"a5", "a0", "a1", "a2", "a3", "a4", 
 195              		mv a2, s1
 196              	# 0 "" 2
 197              		.loc 1 59 5 is_stmt 1
 198              		.loc 1 59 111 is_stmt 0
 199              	# 59 "src/syscall_c.cpp" 1
  60              	    __asm__ volatile("li a0, 0x11");
 200              		mv a1, s2
 201              	# 0 "" 2
 202              		.loc 1 60 5 is_stmt 1
 203              		.loc 1 60 36 is_stmt 0
 204              	# 60 "src/syscall_c.cpp" 1
  61              	    //a0 = 0x11
  62:src/syscall_c.cpp ****     //a1 = adresa pokazivaca na rucku niti
  63:src/syscall_c.cpp ****     //a2 = prva adresa funkcije koju nit izvrsava
  64:src/syscall_c.cpp ****     //a3 = pokazivac na argumente funkcije
  65:src/syscall_c.cpp ****     //a4 = pokazivac na najnizu adresu steka (stek raste ka nizim adresama, pokazuje na poslednju z
  66:src/syscall_c.cpp **** 
  67:src/syscall_c.cpp ****     scall();
 205              		li a0, 0x11
 206              	# 0 "" 2
 207              		.loc 1 67 5 is_stmt 1
 208              	#NO_APP
 209              	.LBB36:
 210              	.LBB37:
   9:src/syscall_c.cpp **** }
 211              		.loc 1 9 5
   9:src/syscall_c.cpp **** }
 212              		.loc 1 9 30 is_stmt 0
 213              	#APP
 214              	# 9 "src/syscall_c.cpp" 1
 215              		ecall
 216              	# 0 "" 2
GAS LISTING /tmp/ccTp8bvz.s 			page 6


 217              	#NO_APP
 218              	.LBE37:
 219              	.LBE36:
  68:src/syscall_c.cpp **** 
  69:src/syscall_c.cpp ****     int status;
 220              		.loc 1 69 5 is_stmt 1
  70:src/syscall_c.cpp ****     __asm__ volatile("mv %[status], a0":[status] "=r"(status));
 221              		.loc 1 70 5
 222              		.loc 1 70 63 is_stmt 0
 223              	#APP
 224              	# 70 "src/syscall_c.cpp" 1
  71              	    return status;
 225              		mv a0, a0
 226              	# 0 "" 2
 227              	.LVL13:
 228              		.loc 1 71 5 is_stmt 1
  72:src/syscall_c.cpp **** }
 229              		.loc 1 72 1 is_stmt 0
 230              	#NO_APP
 231 00c8 1B050500 		sext.w	a0,a0
 232 00cc 83308102 		ld	ra,40(sp)
 233              		.cfi_remember_state
 234              		.cfi_restore 1
 235 00d0 03340102 		ld	s0,32(sp)
 236              		.cfi_restore 8
 237              		.cfi_def_cfa 2, 48
 238 00d4 83348101 		ld	s1,24(sp)
 239              		.cfi_restore 9
 240              	.LVL14:
 241 00d8 03390101 		ld	s2,16(sp)
 242              		.cfi_restore 18
 243              	.LVL15:
 244 00dc 83398100 		ld	s3,8(sp)
 245              		.cfi_restore 19
 246              	.LVL16:
 247 00e0 13010103 		addi	sp,sp,48
 248              		.cfi_def_cfa_offset 0
 249 00e4 67800000 		jr	ra
 250              	.LVL17:
 251              	.L8:
 252              		.cfi_restore_state
  50:src/syscall_c.cpp ****     if (start_routine != nullptr) {
 253              		.loc 1 50 13
 254 00e8 13030000 		li	t1,0
 255 00ec 6FF01FFC 		j	.L7
 256              		.cfi_endproc
 257              	.LFE42:
 259              		.align	2
 260              		.globl	_Z11thread_exitv
 262              	_Z11thread_exitv:
 263              	.LFB43:
  73:src/syscall_c.cpp **** 
  74:src/syscall_c.cpp **** int thread_exit() {
 264              		.loc 1 74 19 is_stmt 1
 265              		.cfi_startproc
 266 00f0 130101FF 		addi	sp,sp,-16
 267              		.cfi_def_cfa_offset 16
GAS LISTING /tmp/ccTp8bvz.s 			page 7


 268 00f4 23348100 		sd	s0,8(sp)
 269              		.cfi_offset 8, -8
 270 00f8 13040101 		addi	s0,sp,16
 271              		.cfi_def_cfa 8, 0
  75:src/syscall_c.cpp ****     //nema argumenata, samo kod sistemskog poziva
  76:src/syscall_c.cpp ****     __asm__ volatile("li a0, 0x12");
 272              		.loc 1 76 5
 273              		.loc 1 76 36 is_stmt 0
 274              	#APP
 275              	# 76 "src/syscall_c.cpp" 1
  77              	
  78:src/syscall_c.cpp ****     scall();
 276              		li a0, 0x12
 277              	# 0 "" 2
 278              		.loc 1 78 5 is_stmt 1
 279              	#NO_APP
 280              	.LBB38:
 281              	.LBB39:
   9:src/syscall_c.cpp **** }
 282              		.loc 1 9 5
   9:src/syscall_c.cpp **** }
 283              		.loc 1 9 30 is_stmt 0
 284              	#APP
 285              	# 9 "src/syscall_c.cpp" 1
 286              		ecall
 287              	# 0 "" 2
 288              	#NO_APP
 289              	.LBE39:
 290              	.LBE38:
  79:src/syscall_c.cpp **** 
  80:src/syscall_c.cpp ****     int status;
 291              		.loc 1 80 5 is_stmt 1
  81:src/syscall_c.cpp ****     __asm__ volatile("mv %[status], a0":[status] "=r"(status));
 292              		.loc 1 81 5
 293              		.loc 1 81 63 is_stmt 0
 294              	#APP
 295              	# 81 "src/syscall_c.cpp" 1
  82              	    return status;
 296              		mv a0, a0
 297              	# 0 "" 2
 298              	.LVL18:
 299              		.loc 1 82 5 is_stmt 1
  83:src/syscall_c.cpp **** }
 300              		.loc 1 83 1 is_stmt 0
 301              	#NO_APP
 302 0108 1B050500 		sext.w	a0,a0
 303 010c 03348100 		ld	s0,8(sp)
 304              		.cfi_restore 8
 305              		.cfi_def_cfa 2, 16
 306 0110 13010101 		addi	sp,sp,16
 307              		.cfi_def_cfa_offset 0
 308 0114 67800000 		jr	ra
 309              		.cfi_endproc
 310              	.LFE43:
 312              		.align	2
 313              		.globl	_Z15thread_dispatchv
 315              	_Z15thread_dispatchv:
GAS LISTING /tmp/ccTp8bvz.s 			page 8


 316              	.LFB44:
  84:src/syscall_c.cpp **** 
  85:src/syscall_c.cpp **** void thread_dispatch() {
 317              		.loc 1 85 24 is_stmt 1
 318              		.cfi_startproc
 319 0118 130101FF 		addi	sp,sp,-16
 320              		.cfi_def_cfa_offset 16
 321 011c 23348100 		sd	s0,8(sp)
 322              		.cfi_offset 8, -8
 323 0120 13040101 		addi	s0,sp,16
 324              		.cfi_def_cfa 8, 0
  86:src/syscall_c.cpp ****     //nema argumenata, samo kod sistemskog poziva
  87:src/syscall_c.cpp ****     __asm__ volatile("li a0, 0x13");
 325              		.loc 1 87 5
 326              		.loc 1 87 36 is_stmt 0
 327              	#APP
 328              	# 87 "src/syscall_c.cpp" 1
  88              	
  89:src/syscall_c.cpp ****     scall();
 329              		li a0, 0x13
 330              	# 0 "" 2
 331              		.loc 1 89 5 is_stmt 1
 332              	#NO_APP
 333              	.LBB40:
 334              	.LBB41:
   9:src/syscall_c.cpp **** }
 335              		.loc 1 9 5
   9:src/syscall_c.cpp **** }
 336              		.loc 1 9 30 is_stmt 0
 337              	#APP
 338              	# 9 "src/syscall_c.cpp" 1
 339              		ecall
 340              	# 0 "" 2
 341              	#NO_APP
 342              	.LBE41:
 343              	.LBE40:
  90:src/syscall_c.cpp ****     //nema povratne vrednosti
  91:src/syscall_c.cpp **** }
 344              		.loc 1 91 1
 345 012c 03348100 		ld	s0,8(sp)
 346              		.cfi_restore 8
 347              		.cfi_def_cfa 2, 16
 348 0130 13010101 		addi	sp,sp,16
 349              		.cfi_def_cfa_offset 0
 350 0134 67800000 		jr	ra
 351              		.cfi_endproc
 352              	.LFE44:
 354              		.align	2
 355              		.globl	_Z11thread_joinP3TCB
 357              	_Z11thread_joinP3TCB:
 358              	.LFB45:
  92:src/syscall_c.cpp **** 
  93:src/syscall_c.cpp **** void thread_join(thread_t handle) {
 359              		.loc 1 93 35 is_stmt 1
 360              		.cfi_startproc
 361              	.LVL19:
 362 0138 130101FF 		addi	sp,sp,-16
GAS LISTING /tmp/ccTp8bvz.s 			page 9


 363              		.cfi_def_cfa_offset 16
 364 013c 23348100 		sd	s0,8(sp)
 365              		.cfi_offset 8, -8
 366 0140 13040101 		addi	s0,sp,16
 367              		.cfi_def_cfa 8, 0
 368 0144 13030500 		mv	t1,a0
  94:src/syscall_c.cpp **** //stavljanje argumenata za sistemski poziv
  95:src/syscall_c.cpp ****     __asm__ volatile("mv a1, %[handle]": :[handle] "r"(handle):"a5", "a0", "a1", "a2", "a3", "a4", 
 369              		.loc 1 95 5
 370              		.loc 1 95 111 is_stmt 0
 371              	#APP
 372              	# 95 "src/syscall_c.cpp" 1
  96              	    __asm__ volatile("li a0, 0x14");
 373              		mv a1, t1
 374              	# 0 "" 2
 375              	.LVL20:
 376              		.loc 1 96 5 is_stmt 1
 377              		.loc 1 96 36 is_stmt 0
 378              	# 96 "src/syscall_c.cpp" 1
  97              	    //a0 = 0x14
  98:src/syscall_c.cpp ****     //a1 = rucka niti na koju se ceka
  99:src/syscall_c.cpp **** 
 100:src/syscall_c.cpp ****     scall();
 379              		li a0, 0x14
 380              	# 0 "" 2
 381              		.loc 1 100 5 is_stmt 1
 382              	#NO_APP
 383              	.LBB42:
 384              	.LBB43:
   9:src/syscall_c.cpp **** }
 385              		.loc 1 9 5
   9:src/syscall_c.cpp **** }
 386              		.loc 1 9 30 is_stmt 0
 387              	#APP
 388              	# 9 "src/syscall_c.cpp" 1
 389              		ecall
 390              	# 0 "" 2
 391              	#NO_APP
 392              	.LBE43:
 393              	.LBE42:
 101:src/syscall_c.cpp **** }
 394              		.loc 1 101 1
 395 0154 03348100 		ld	s0,8(sp)
 396              		.cfi_restore 8
 397              		.cfi_def_cfa 2, 16
 398 0158 13010101 		addi	sp,sp,16
 399              		.cfi_def_cfa_offset 0
 400 015c 67800000 		jr	ra
 401              		.cfi_endproc
 402              	.LFE45:
 404              		.align	2
 405              		.globl	_Z10time_sleepm
 407              	_Z10time_sleepm:
 408              	.LFB46:
 102:src/syscall_c.cpp **** 
 103:src/syscall_c.cpp **** int time_sleep(time_t timerPeriods) {
 409              		.loc 1 103 37 is_stmt 1
GAS LISTING /tmp/ccTp8bvz.s 			page 10


 410              		.cfi_startproc
 411              	.LVL21:
 412 0160 130101FF 		addi	sp,sp,-16
 413              		.cfi_def_cfa_offset 16
 414 0164 23348100 		sd	s0,8(sp)
 415              		.cfi_offset 8, -8
 416 0168 13040101 		addi	s0,sp,16
 417              		.cfi_def_cfa 8, 0
 418 016c 13030500 		mv	t1,a0
 104:src/syscall_c.cpp ****     //stavljanje argumenata za sistemski poziv
 105:src/syscall_c.cpp ****     __asm__ volatile("mv a1, %[time]": :[time] "r"(timerPeriods):"a5", "a0", "a1", "a2", "a3", "a4"
 419              		.loc 1 105 5
 420              		.loc 1 105 113 is_stmt 0
 421              	#APP
 422              	# 105 "src/syscall_c.cpp" 1
 106              	    __asm__ volatile("li a0, 0x31");
 423              		mv a1, t1
 424              	# 0 "" 2
 425              	.LVL22:
 426              		.loc 1 106 5 is_stmt 1
 427              		.loc 1 106 36 is_stmt 0
 428              	# 106 "src/syscall_c.cpp" 1
 107              	    //a0 = 0x31
 108:src/syscall_c.cpp ****     //a1 = broj perioda tajmera na koji se uspavljuje nit
 109:src/syscall_c.cpp **** 
 110:src/syscall_c.cpp ****     scall();
 429              		li a0, 0x31
 430              	# 0 "" 2
 431              		.loc 1 110 5 is_stmt 1
 432              	#NO_APP
 433              	.LBB44:
 434              	.LBB45:
   9:src/syscall_c.cpp **** }
 435              		.loc 1 9 5
   9:src/syscall_c.cpp **** }
 436              		.loc 1 9 30 is_stmt 0
 437              	#APP
 438              	# 9 "src/syscall_c.cpp" 1
 439              		ecall
 440              	# 0 "" 2
 441              	#NO_APP
 442              	.LBE45:
 443              	.LBE44:
 111:src/syscall_c.cpp **** 
 112:src/syscall_c.cpp ****     int status;
 444              		.loc 1 112 5 is_stmt 1
 113:src/syscall_c.cpp ****     __asm__ volatile("mv %[status], a0":[status] "=r"(status));
 445              		.loc 1 113 5
 446              		.loc 1 113 63 is_stmt 0
 447              	#APP
 448              	# 113 "src/syscall_c.cpp" 1
 114              	    return status;
 449              		mv a0, a0
 450              	# 0 "" 2
 451              	.LVL23:
 452              		.loc 1 114 5 is_stmt 1
 115:src/syscall_c.cpp **** }
GAS LISTING /tmp/ccTp8bvz.s 			page 11


 453              		.loc 1 115 1 is_stmt 0
 454              	#NO_APP
 455 0180 1B050500 		sext.w	a0,a0
 456 0184 03348100 		ld	s0,8(sp)
 457              		.cfi_restore 8
 458              		.cfi_def_cfa 2, 16
 459 0188 13010101 		addi	sp,sp,16
 460              		.cfi_def_cfa_offset 0
 461 018c 67800000 		jr	ra
 462              		.cfi_endproc
 463              	.LFE46:
 465              		.align	2
 466              		.globl	_Z8sem_openPP4KSemj
 468              	_Z8sem_openPP4KSemj:
 469              	.LFB47:
 116:src/syscall_c.cpp **** 
 117:src/syscall_c.cpp **** int sem_open(sem_t* handle, unsigned int init) {
 470              		.loc 1 117 48 is_stmt 1
 471              		.cfi_startproc
 472              	.LVL24:
 473 0190 130101FF 		addi	sp,sp,-16
 474              		.cfi_def_cfa_offset 16
 475 0194 23348100 		sd	s0,8(sp)
 476              		.cfi_offset 8, -8
 477 0198 13040101 		addi	s0,sp,16
 478              		.cfi_def_cfa 8, 0
 479 019c 13030500 		mv	t1,a0
 480 01a0 138E0500 		mv	t3,a1
 118:src/syscall_c.cpp ****     //stavljanje argumenata za sistemski poziv
 119:src/syscall_c.cpp ****     __asm__ volatile("mv a2, %[val]": :[val] "r"(init):"a5", "a0", "a1", "a2", "a3", "a4", "a6", "a
 481              		.loc 1 119 5
 482              		.loc 1 119 103 is_stmt 0
 483              	#APP
 484              	# 119 "src/syscall_c.cpp" 1
 120              	    __asm__ volatile("mv a1, %[handle]": :[handle] "r"(handle):"a5", "a0", "a1", "a2", "a3", "a4", 
 485              		mv a2, t3
 486              	# 0 "" 2
 487              	.LVL25:
 488              		.loc 1 120 5 is_stmt 1
 489              		.loc 1 120 111 is_stmt 0
 490              	# 120 "src/syscall_c.cpp" 1
 121              	    __asm__ volatile("li a0, 0x21");
 491              		mv a1, t1
 492              	# 0 "" 2
 493              		.loc 1 121 5 is_stmt 1
 494              		.loc 1 121 36 is_stmt 0
 495              	# 121 "src/syscall_c.cpp" 1
 122              	    //a0 = 0x21
 123:src/syscall_c.cpp ****     //a1 = pokazivac na rucku semafora
 124:src/syscall_c.cpp ****     //a2 = pocetna vrednost semafora
 125:src/syscall_c.cpp **** 
 126:src/syscall_c.cpp ****     scall();
 496              		li a0, 0x21
 497              	# 0 "" 2
 498              		.loc 1 126 5 is_stmt 1
 499              	#NO_APP
 500              	.LBB46:
GAS LISTING /tmp/ccTp8bvz.s 			page 12


 501              	.LBB47:
   9:src/syscall_c.cpp **** }
 502              		.loc 1 9 5
   9:src/syscall_c.cpp **** }
 503              		.loc 1 9 30 is_stmt 0
 504              	#APP
 505              	# 9 "src/syscall_c.cpp" 1
 506              		ecall
 507              	# 0 "" 2
 508              	#NO_APP
 509              	.LBE47:
 510              	.LBE46:
 127:src/syscall_c.cpp **** 
 128:src/syscall_c.cpp ****     //status == 0 ako je uspesno kreiran semafor; status == -1 ako nije
 129:src/syscall_c.cpp ****     int status;
 511              		.loc 1 129 5 is_stmt 1
 130:src/syscall_c.cpp ****     __asm__ volatile("mv %[status], a0":[status] "=r"(status));
 512              		.loc 1 130 5
 513              		.loc 1 130 63 is_stmt 0
 514              	#APP
 515              	# 130 "src/syscall_c.cpp" 1
 131              	    return status;
 516              		mv a0, a0
 517              	# 0 "" 2
 518              	.LVL26:
 519              		.loc 1 131 5 is_stmt 1
 132:src/syscall_c.cpp **** }
 520              		.loc 1 132 1 is_stmt 0
 521              	#NO_APP
 522 01b8 1B050500 		sext.w	a0,a0
 523 01bc 03348100 		ld	s0,8(sp)
 524              		.cfi_restore 8
 525              		.cfi_def_cfa 2, 16
 526 01c0 13010101 		addi	sp,sp,16
 527              		.cfi_def_cfa_offset 0
 528 01c4 67800000 		jr	ra
 529              		.cfi_endproc
 530              	.LFE47:
 532              		.align	2
 533              		.globl	_Z9sem_closeP4KSem
 535              	_Z9sem_closeP4KSem:
 536              	.LFB48:
 133:src/syscall_c.cpp **** 
 134:src/syscall_c.cpp **** int sem_close(sem_t handle) {
 537              		.loc 1 134 29 is_stmt 1
 538              		.cfi_startproc
 539              	.LVL27:
 540 01c8 130101FF 		addi	sp,sp,-16
 541              		.cfi_def_cfa_offset 16
 542 01cc 23348100 		sd	s0,8(sp)
 543              		.cfi_offset 8, -8
 544 01d0 13040101 		addi	s0,sp,16
 545              		.cfi_def_cfa 8, 0
 546 01d4 13030500 		mv	t1,a0
 135:src/syscall_c.cpp ****     //stavljanje argumenata za sistemski poziv
 136:src/syscall_c.cpp ****     __asm__ volatile("mv a1, %[handle]": :[handle] "r"(handle):"a5", "a0", "a1", "a2", "a3", "a4", 
 547              		.loc 1 136 5
GAS LISTING /tmp/ccTp8bvz.s 			page 13


 548              		.loc 1 136 111 is_stmt 0
 549              	#APP
 550              	# 136 "src/syscall_c.cpp" 1
 137              	    __asm__ volatile("li a0, 0x22");
 551              		mv a1, t1
 552              	# 0 "" 2
 553              	.LVL28:
 554              		.loc 1 137 5 is_stmt 1
 555              		.loc 1 137 36 is_stmt 0
 556              	# 137 "src/syscall_c.cpp" 1
 138              	    //a0 = 0x22
 139:src/syscall_c.cpp ****     //a1 = rucka semafora (pokazivac na semafor u kernelu)
 140:src/syscall_c.cpp **** 
 141:src/syscall_c.cpp ****     scall();
 557              		li a0, 0x22
 558              	# 0 "" 2
 559              		.loc 1 141 5 is_stmt 1
 560              	#NO_APP
 561              	.LBB48:
 562              	.LBB49:
   9:src/syscall_c.cpp **** }
 563              		.loc 1 9 5
   9:src/syscall_c.cpp **** }
 564              		.loc 1 9 30 is_stmt 0
 565              	#APP
 566              	# 9 "src/syscall_c.cpp" 1
 567              		ecall
 568              	# 0 "" 2
 569              	#NO_APP
 570              	.LBE49:
 571              	.LBE48:
 142:src/syscall_c.cpp **** 
 143:src/syscall_c.cpp ****     int status;
 572              		.loc 1 143 5 is_stmt 1
 144:src/syscall_c.cpp ****     __asm__ volatile("mv %[status], a0":[status] "=r"(status));
 573              		.loc 1 144 5
 574              		.loc 1 144 63 is_stmt 0
 575              	#APP
 576              	# 144 "src/syscall_c.cpp" 1
 145              	    return status;
 577              		mv a0, a0
 578              	# 0 "" 2
 579              	.LVL29:
 580              		.loc 1 145 5 is_stmt 1
 146:src/syscall_c.cpp **** }
 581              		.loc 1 146 1 is_stmt 0
 582              	#NO_APP
 583 01e8 1B050500 		sext.w	a0,a0
 584 01ec 03348100 		ld	s0,8(sp)
 585              		.cfi_restore 8
 586              		.cfi_def_cfa 2, 16
 587 01f0 13010101 		addi	sp,sp,16
 588              		.cfi_def_cfa_offset 0
 589 01f4 67800000 		jr	ra
 590              		.cfi_endproc
 591              	.LFE48:
 593              		.align	2
GAS LISTING /tmp/ccTp8bvz.s 			page 14


 594              		.globl	_Z8sem_waitP4KSem
 596              	_Z8sem_waitP4KSem:
 597              	.LFB49:
 147:src/syscall_c.cpp **** 
 148:src/syscall_c.cpp **** int sem_wait(sem_t id) {
 598              		.loc 1 148 24 is_stmt 1
 599              		.cfi_startproc
 600              	.LVL30:
 601 01f8 130101FF 		addi	sp,sp,-16
 602              		.cfi_def_cfa_offset 16
 603 01fc 23348100 		sd	s0,8(sp)
 604              		.cfi_offset 8, -8
 605 0200 13040101 		addi	s0,sp,16
 606              		.cfi_def_cfa 8, 0
 607 0204 13030500 		mv	t1,a0
 149:src/syscall_c.cpp ****     //stavljanje argumenata za sistemski poziv
 150:src/syscall_c.cpp ****     __asm__ volatile("mv a1, %[handle]": :[handle] "r"(id):"a5", "a0", "a1", "a2", "a3", "a4", "a6"
 608              		.loc 1 150 5
 609              		.loc 1 150 107 is_stmt 0
 610              	#APP
 611              	# 150 "src/syscall_c.cpp" 1
 151              	    __asm__ volatile("li a0, 0x23");
 612              		mv a1, t1
 613              	# 0 "" 2
 614              	.LVL31:
 615              		.loc 1 151 5 is_stmt 1
 616              		.loc 1 151 36 is_stmt 0
 617              	# 151 "src/syscall_c.cpp" 1
 152              	    //a0 = 0x23
 153:src/syscall_c.cpp ****     //a1 = rucka semafora (pokazivac na semafor u kernelu)
 154:src/syscall_c.cpp **** 
 155:src/syscall_c.cpp ****     scall();
 618              		li a0, 0x23
 619              	# 0 "" 2
 620              		.loc 1 155 5 is_stmt 1
 621              	#NO_APP
 622              	.LBB50:
 623              	.LBB51:
   9:src/syscall_c.cpp **** }
 624              		.loc 1 9 5
   9:src/syscall_c.cpp **** }
 625              		.loc 1 9 30 is_stmt 0
 626              	#APP
 627              	# 9 "src/syscall_c.cpp" 1
 628              		ecall
 629              	# 0 "" 2
 630              	#NO_APP
 631              	.LBE51:
 632              	.LBE50:
 156:src/syscall_c.cpp **** 
 157:src/syscall_c.cpp ****     int status;
 633              		.loc 1 157 5 is_stmt 1
 158:src/syscall_c.cpp ****     __asm__ volatile("mv %[status], a0":[status] "=r"(status));
 634              		.loc 1 158 5
 635              		.loc 1 158 63 is_stmt 0
 636              	#APP
 637              	# 158 "src/syscall_c.cpp" 1
GAS LISTING /tmp/ccTp8bvz.s 			page 15


 159              	    return status;
 638              		mv a0, a0
 639              	# 0 "" 2
 640              	.LVL32:
 641              		.loc 1 159 5 is_stmt 1
 160:src/syscall_c.cpp **** }
 642              		.loc 1 160 1 is_stmt 0
 643              	#NO_APP
 644 0218 1B050500 		sext.w	a0,a0
 645 021c 03348100 		ld	s0,8(sp)
 646              		.cfi_restore 8
 647              		.cfi_def_cfa 2, 16
 648 0220 13010101 		addi	sp,sp,16
 649              		.cfi_def_cfa_offset 0
 650 0224 67800000 		jr	ra
 651              		.cfi_endproc
 652              	.LFE49:
 654              		.align	2
 655              		.globl	_Z10sem_signalP4KSem
 657              	_Z10sem_signalP4KSem:
 658              	.LFB50:
 161:src/syscall_c.cpp **** 
 162:src/syscall_c.cpp **** int sem_signal(sem_t id) {
 659              		.loc 1 162 26 is_stmt 1
 660              		.cfi_startproc
 661              	.LVL33:
 662 0228 130101FF 		addi	sp,sp,-16
 663              		.cfi_def_cfa_offset 16
 664 022c 23348100 		sd	s0,8(sp)
 665              		.cfi_offset 8, -8
 666 0230 13040101 		addi	s0,sp,16
 667              		.cfi_def_cfa 8, 0
 668 0234 13030500 		mv	t1,a0
 163:src/syscall_c.cpp ****     //stavljanje argumenata za sistemski poziv
 164:src/syscall_c.cpp ****     __asm__ volatile("mv a1, %[handle]": :[handle] "r"(id):"a5", "a0", "a1", "a2", "a3", "a4", "a6"
 669              		.loc 1 164 5
 670              		.loc 1 164 107 is_stmt 0
 671              	#APP
 672              	# 164 "src/syscall_c.cpp" 1
 165              	    __asm__ volatile("li a0, 0x24");
 673              		mv a1, t1
 674              	# 0 "" 2
 675              	.LVL34:
 676              		.loc 1 165 5 is_stmt 1
 677              		.loc 1 165 36 is_stmt 0
 678              	# 165 "src/syscall_c.cpp" 1
 166              	    //a0 = 0x24
 167:src/syscall_c.cpp ****     //a1 = rucka semafora (pokazivac na semafor u kernelu)
 168:src/syscall_c.cpp **** 
 169:src/syscall_c.cpp ****     scall();
 679              		li a0, 0x24
 680              	# 0 "" 2
 681              		.loc 1 169 5 is_stmt 1
 682              	#NO_APP
 683              	.LBB52:
 684              	.LBB53:
   9:src/syscall_c.cpp **** }
GAS LISTING /tmp/ccTp8bvz.s 			page 16


 685              		.loc 1 9 5
   9:src/syscall_c.cpp **** }
 686              		.loc 1 9 30 is_stmt 0
 687              	#APP
 688              	# 9 "src/syscall_c.cpp" 1
 689              		ecall
 690              	# 0 "" 2
 691              	#NO_APP
 692              	.LBE53:
 693              	.LBE52:
 170:src/syscall_c.cpp **** 
 171:src/syscall_c.cpp ****     int status;
 694              		.loc 1 171 5 is_stmt 1
 172:src/syscall_c.cpp ****     __asm__ volatile("mv %[status], a0":[status] "=r"(status));
 695              		.loc 1 172 5
 696              		.loc 1 172 63 is_stmt 0
 697              	#APP
 698              	# 172 "src/syscall_c.cpp" 1
 173              	    return status;
 699              		mv a0, a0
 700              	# 0 "" 2
 701              	.LVL35:
 702              		.loc 1 173 5 is_stmt 1
 174:src/syscall_c.cpp **** }
 703              		.loc 1 174 1 is_stmt 0
 704              	#NO_APP
 705 0248 1B050500 		sext.w	a0,a0
 706 024c 03348100 		ld	s0,8(sp)
 707              		.cfi_restore 8
 708              		.cfi_def_cfa 2, 16
 709 0250 13010101 		addi	sp,sp,16
 710              		.cfi_def_cfa_offset 0
 711 0254 67800000 		jr	ra
 712              		.cfi_endproc
 713              	.LFE50:
 715              		.align	2
 716              		.globl	_Z4getcv
 718              	_Z4getcv:
 719              	.LFB51:
 175:src/syscall_c.cpp **** 
 176:src/syscall_c.cpp **** char getc() {
 720              		.loc 1 176 13 is_stmt 1
 721              		.cfi_startproc
 722 0258 130101FF 		addi	sp,sp,-16
 723              		.cfi_def_cfa_offset 16
 724 025c 23348100 		sd	s0,8(sp)
 725              		.cfi_offset 8, -8
 726 0260 13040101 		addi	s0,sp,16
 727              		.cfi_def_cfa 8, 0
 177:src/syscall_c.cpp ****     //nema argumenata
 178:src/syscall_c.cpp ****     __asm__ volatile("li a0, 0x41");
 728              		.loc 1 178 5
 729              		.loc 1 178 36 is_stmt 0
 730              	#APP
 731              	# 178 "src/syscall_c.cpp" 1
 179              	
 180:src/syscall_c.cpp ****     scall();
GAS LISTING /tmp/ccTp8bvz.s 			page 17


 732              		li a0, 0x41
 733              	# 0 "" 2
 734              		.loc 1 180 5 is_stmt 1
 735              	#NO_APP
 736              	.LBB54:
 737              	.LBB55:
   9:src/syscall_c.cpp **** }
 738              		.loc 1 9 5
   9:src/syscall_c.cpp **** }
 739              		.loc 1 9 30 is_stmt 0
 740              	#APP
 741              	# 9 "src/syscall_c.cpp" 1
 742              		ecall
 743              	# 0 "" 2
 744              	#NO_APP
 745              	.LBE55:
 746              	.LBE54:
 181:src/syscall_c.cpp **** 
 182:src/syscall_c.cpp ****     char character;
 747              		.loc 1 182 5 is_stmt 1
 183:src/syscall_c.cpp ****     __asm__ volatile("mv %[c], a0":[c] "=r"(character));
 748              		.loc 1 183 5
 749              		.loc 1 183 56 is_stmt 0
 750              	#APP
 751              	# 183 "src/syscall_c.cpp" 1
 184              	    return character;
 752              		mv a0, a0
 753              	# 0 "" 2
 754              	.LVL36:
 755              		.loc 1 184 5 is_stmt 1
 185:src/syscall_c.cpp **** }
 756              		.loc 1 185 1 is_stmt 0
 757              	#NO_APP
 758 0270 1375F50F 		andi	a0,a0,0xff
 759 0274 03348100 		ld	s0,8(sp)
 760              		.cfi_restore 8
 761              		.cfi_def_cfa 2, 16
 762 0278 13010101 		addi	sp,sp,16
 763              		.cfi_def_cfa_offset 0
 764 027c 67800000 		jr	ra
 765              		.cfi_endproc
 766              	.LFE51:
 768              		.align	2
 769              		.globl	_Z4putcc
 771              	_Z4putcc:
 772              	.LFB52:
 186:src/syscall_c.cpp **** 
 187:src/syscall_c.cpp **** void putc(char c) {
 773              		.loc 1 187 19 is_stmt 1
 774              		.cfi_startproc
 775              	.LVL37:
 776 0280 130101FF 		addi	sp,sp,-16
 777              		.cfi_def_cfa_offset 16
 778 0284 23348100 		sd	s0,8(sp)
 779              		.cfi_offset 8, -8
 780 0288 13040101 		addi	s0,sp,16
 781              		.cfi_def_cfa 8, 0
GAS LISTING /tmp/ccTp8bvz.s 			page 18


 782 028c 13030500 		mv	t1,a0
 188:src/syscall_c.cpp ****     //stavljanje argumenata
 189:src/syscall_c.cpp ****     __asm__ volatile("mv a1, %[c]": :[c] "r"(c):"a5", "a0", "a1", "a2", "a3", "a4", "a6", "a7");
 783              		.loc 1 189 5
 784              		.loc 1 189 96 is_stmt 0
 785              	#APP
 786              	# 189 "src/syscall_c.cpp" 1
 190              	    __asm__ volatile("li a0, 0x42");
 787              		mv a1, t1
 788              	# 0 "" 2
 789              	.LVL38:
 790              		.loc 1 190 5 is_stmt 1
 791              		.loc 1 190 36 is_stmt 0
 792              	# 190 "src/syscall_c.cpp" 1
 191              	
 192:src/syscall_c.cpp ****     scall();
 793              		li a0, 0x42
 794              	# 0 "" 2
 795              		.loc 1 192 5 is_stmt 1
 796              	#NO_APP
 797              	.LBB56:
 798              	.LBB57:
   9:src/syscall_c.cpp **** }
 799              		.loc 1 9 5
   9:src/syscall_c.cpp **** }
 800              		.loc 1 9 30 is_stmt 0
 801              	#APP
 802              	# 9 "src/syscall_c.cpp" 1
 803              		ecall
 804              	# 0 "" 2
 805              	#NO_APP
 806              	.LBE57:
 807              	.LBE56:
 193:src/syscall_c.cpp ****     //nema povratne vrednosti
 194:src/syscall_c.cpp **** }
 808              		.loc 1 194 1
 809 029c 03348100 		ld	s0,8(sp)
 810              		.cfi_restore 8
 811              		.cfi_def_cfa 2, 16
 812 02a0 13010101 		addi	sp,sp,16
 813              		.cfi_def_cfa_offset 0
 814 02a4 67800000 		jr	ra
 815              		.cfi_endproc
 816              	.LFE52:
 818              		.align	2
 819              		.globl	_Z12thread_allocPP3TCBPFvPvES2_
 821              	_Z12thread_allocPP3TCBPFvPvES2_:
 822              	.LFB53:
 195:src/syscall_c.cpp **** 
 196:src/syscall_c.cpp **** int thread_alloc(thread_t* handle, TCB::Body function, void* arg) {
 823              		.loc 1 196 67 is_stmt 1
 824              		.cfi_startproc
 825              	.LVL39:
 826 02a8 130101FD 		addi	sp,sp,-48
 827              		.cfi_def_cfa_offset 48
 828 02ac 23341102 		sd	ra,40(sp)
 829 02b0 23308102 		sd	s0,32(sp)
GAS LISTING /tmp/ccTp8bvz.s 			page 19


 830 02b4 233C9100 		sd	s1,24(sp)
 831 02b8 23382101 		sd	s2,16(sp)
 832 02bc 23343101 		sd	s3,8(sp)
 833              		.cfi_offset 1, -8
 834              		.cfi_offset 8, -16
 835              		.cfi_offset 9, -24
 836              		.cfi_offset 18, -32
 837              		.cfi_offset 19, -40
 838 02c0 13040103 		addi	s0,sp,48
 839              		.cfi_def_cfa 8, 0
 840 02c4 13090500 		mv	s2,a0
 841 02c8 93840500 		mv	s1,a1
 842 02cc 93090600 		mv	s3,a2
 197:src/syscall_c.cpp ****     //stvaranje steka ako se ne radi o main kernel niti, posto ona automatski ima stek
 198:src/syscall_c.cpp ****     uint64* stack = nullptr;
 843              		.loc 1 198 5
 844              	.LVL40:
 199:src/syscall_c.cpp ****     if (function != nullptr) {
 845              		.loc 1 199 5
 846 02d0 63880504 		beqz	a1,.L32
 200:src/syscall_c.cpp ****         stack = (uint64*)mem_alloc(DEFAULT_STACK_SIZE);
 847              		.loc 1 200 9
 848              		.loc 1 200 35 is_stmt 0
 849 02d4 37150000 		li	a0,4096
 850              	.LVL41:
 851 02d8 97000000 		call	_Z9mem_allocm
 851      E7800000 
 852              	.LVL42:
 853 02e0 13030500 		mv	t1,a0
 854              	.LVL43:
 855              	.L31:
 201:src/syscall_c.cpp ****     }
 202:src/syscall_c.cpp ****     //uint64* stack = (start_routine != nullptr ? (uint64*)MemoryAllocator::kmalloc(DEFAULT_STACK_S
 203:src/syscall_c.cpp ****     //stavljanje argumenata za sistemski poziv
 204:src/syscall_c.cpp ****     __asm__ volatile("mv a4, %[sp]": :[sp] "r"(stack):"a5", "a0", "a1", "a2", "a3", "a4", "a6", "a7
 856              		.loc 1 204 5 is_stmt 1
 857              		.loc 1 204 102 is_stmt 0
 858              	#APP
 859              	# 204 "src/syscall_c.cpp" 1
 205              	    __asm__ volatile("mv a3, %[arg]": :[arg] "r"(arg):"a5", "a0", "a1", "a2", "a3", "a4", "a6", "a7
 860              		mv a4, t1
 861              	# 0 "" 2
 862              		.loc 1 205 5 is_stmt 1
 863              		.loc 1 205 102 is_stmt 0
 864              	# 205 "src/syscall_c.cpp" 1
 206              	    __asm__ volatile("mv a2, %[function]": :[function] "r"(
 865              		mv a3, s3
 866              	# 0 "" 2
 867              		.loc 1 206 5 is_stmt 1
 207:src/syscall_c.cpp ****             function):"a5", "a0", "a1", "a2", "a3", "a4", "a6", "a7");
 868              		.loc 1 207 70 is_stmt 0
 869              	# 207 "src/syscall_c.cpp" 1
 208              	    __asm__ volatile("mv a1, %[handle]": :[handle] "r"(handle):"a5", "a0", "a1", "a2", "a3", "a4", 
 870              		mv a2, s1
 871              	# 0 "" 2
 872              		.loc 1 208 5 is_stmt 1
 873              		.loc 1 208 111 is_stmt 0
GAS LISTING /tmp/ccTp8bvz.s 			page 20


 874              	# 208 "src/syscall_c.cpp" 1
 209              	    __asm__ volatile("li a0, 0x80");
 875              		mv a1, s2
 876              	# 0 "" 2
 877              		.loc 1 209 5 is_stmt 1
 878              		.loc 1 209 36 is_stmt 0
 879              	# 209 "src/syscall_c.cpp" 1
 210              	    //a0 = 0x80
 211:src/syscall_c.cpp ****     //a1 = adresa pokazivaca na rucku niti
 212:src/syscall_c.cpp ****     //a2 = prva adresa funkcije koju nit izvrsava
 213:src/syscall_c.cpp ****     //a3 = pokazivac na argumente funkcije
 214:src/syscall_c.cpp ****     //a4 = pokazivac na najnizu adresu steka (stek raste ka nizim adresama, pokazuje na poslednju z
 215:src/syscall_c.cpp **** 
 216:src/syscall_c.cpp ****     scall();
 880              		li a0, 0x80
 881              	# 0 "" 2
 882              		.loc 1 216 5 is_stmt 1
 883              	#NO_APP
 884              	.LBB58:
 885              	.LBB59:
   9:src/syscall_c.cpp **** }
 886              		.loc 1 9 5
   9:src/syscall_c.cpp **** }
 887              		.loc 1 9 30 is_stmt 0
 888              	#APP
 889              	# 9 "src/syscall_c.cpp" 1
 890              		ecall
 891              	# 0 "" 2
 892              	#NO_APP
 893              	.LBE59:
 894              	.LBE58:
 217:src/syscall_c.cpp **** 
 218:src/syscall_c.cpp ****     int status;
 895              		.loc 1 218 5 is_stmt 1
 219:src/syscall_c.cpp ****     __asm__ volatile("mv %[status], a0":[status] "=r"(status));
 896              		.loc 1 219 5
 897              		.loc 1 219 63 is_stmt 0
 898              	#APP
 899              	# 219 "src/syscall_c.cpp" 1
 220              	    return status;
 900              		mv a0, a0
 901              	# 0 "" 2
 902              	.LVL44:
 903              		.loc 1 220 5 is_stmt 1
 221:src/syscall_c.cpp **** }
 904              		.loc 1 221 1 is_stmt 0
 905              	#NO_APP
 906 0300 1B050500 		sext.w	a0,a0
 907 0304 83308102 		ld	ra,40(sp)
 908              		.cfi_remember_state
 909              		.cfi_restore 1
 910 0308 03340102 		ld	s0,32(sp)
 911              		.cfi_restore 8
 912              		.cfi_def_cfa 2, 48
 913 030c 83348101 		ld	s1,24(sp)
 914              		.cfi_restore 9
 915              	.LVL45:
GAS LISTING /tmp/ccTp8bvz.s 			page 21


 916 0310 03390101 		ld	s2,16(sp)
 917              		.cfi_restore 18
 918              	.LVL46:
 919 0314 83398100 		ld	s3,8(sp)
 920              		.cfi_restore 19
 921              	.LVL47:
 922 0318 13010103 		addi	sp,sp,48
 923              		.cfi_def_cfa_offset 0
 924 031c 67800000 		jr	ra
 925              	.LVL48:
 926              	.L32:
 927              		.cfi_restore_state
 198:src/syscall_c.cpp ****     if (function != nullptr) {
 928              		.loc 1 198 13
 929 0320 13030000 		li	t1,0
 930 0324 6FF01FFC 		j	.L31
 931              		.cfi_endproc
 932              	.LFE53:
 934              		.align	2
 935              		.globl	_Z12thread_startP3TCB
 937              	_Z12thread_startP3TCB:
 938              	.LFB54:
 222:src/syscall_c.cpp **** 
 223:src/syscall_c.cpp **** void thread_start(thread_t handle) {
 939              		.loc 1 223 36 is_stmt 1
 940              		.cfi_startproc
 941              	.LVL49:
 942 0328 130101FF 		addi	sp,sp,-16
 943              		.cfi_def_cfa_offset 16
 944 032c 23348100 		sd	s0,8(sp)
 945              		.cfi_offset 8, -8
 946 0330 13040101 		addi	s0,sp,16
 947              		.cfi_def_cfa 8, 0
 948 0334 13030500 		mv	t1,a0
 224:src/syscall_c.cpp ****     __asm__ volatile("mv a1, %[handle]": :[handle] "r"(handle):"a5", "a0", "a1", "a2", "a3", "a4", 
 949              		.loc 1 224 5
 950              		.loc 1 224 111 is_stmt 0
 951              	#APP
 952              	# 224 "src/syscall_c.cpp" 1
 225              	    __asm__ volatile("li a0, 0x81");
 953              		mv a1, t1
 954              	# 0 "" 2
 955              	.LVL50:
 956              		.loc 1 225 5 is_stmt 1
 957              		.loc 1 225 36 is_stmt 0
 958              	# 225 "src/syscall_c.cpp" 1
 226              	
 227:src/syscall_c.cpp ****     scall();
 959              		li a0, 0x81
 960              	# 0 "" 2
 961              		.loc 1 227 5 is_stmt 1
 962              	#NO_APP
 963              	.LBB60:
 964              	.LBB61:
   9:src/syscall_c.cpp **** }
 965              		.loc 1 9 5
   9:src/syscall_c.cpp **** }
GAS LISTING /tmp/ccTp8bvz.s 			page 22


 966              		.loc 1 9 30 is_stmt 0
 967              	#APP
 968              	# 9 "src/syscall_c.cpp" 1
 969              		ecall
 970              	# 0 "" 2
 971              	#NO_APP
 972              	.LBE61:
 973              	.LBE60:
 228:src/syscall_c.cpp **** }
 974              		.loc 1 228 1
 975 0344 03348100 		ld	s0,8(sp)
 976              		.cfi_restore 8
 977              		.cfi_def_cfa 2, 16
 978 0348 13010101 		addi	sp,sp,16
 979              		.cfi_def_cfa_offset 0
 980 034c 67800000 		jr	ra
 981              		.cfi_endproc
 982              	.LFE54:
 984              	.Letext0:
 985              		.file 2 "src/../h/../lib/hw.h"
 986              		.file 3 "src/../h/syscall_c.hpp"
 987              		.file 4 "src/../h/TCB.hpp"
 988              		.file 5 "src/../h/../h/ThreadQueue.hpp"
GAS LISTING /tmp/ccTp8bvz.s 			page 23


DEFINED SYMBOLS
                            *ABS*:0000000000000000 syscall_c.cpp
     /tmp/ccTp8bvz.s:9      .text:0000000000000000 _Z9mem_allocm
     /tmp/ccTp8bvz.s:13     .text:0000000000000000 .L0 
     /tmp/ccTp8bvz.s:15     .text:0000000000000000 .L0 
     /tmp/ccTp8bvz.s:16     .text:0000000000000004 .L0 
     /tmp/ccTp8bvz.s:18     .text:0000000000000008 .L0 
     /tmp/ccTp8bvz.s:20     .text:000000000000000c .L0 
     /tmp/ccTp8bvz.s:22     .text:000000000000000c .L0 
     /tmp/ccTp8bvz.s:23     .text:000000000000000c .L0 
     /tmp/ccTp8bvz.s:26     .text:0000000000000010 .L0 
     /tmp/ccTp8bvz.s:27     .text:0000000000000010 .L0 
     /tmp/ccTp8bvz.s:29     .text:0000000000000014 .L0 
     /tmp/ccTp8bvz.s:32     .text:0000000000000018 .L0 
     /tmp/ccTp8bvz.s:36     .text:0000000000000020 .L0 
     /tmp/ccTp8bvz.s:39     .text:0000000000000024 .L0 
   src/syscall_c.cpp:20     .text:0000000000000024 .L0 
     /tmp/ccTp8bvz.s:45     .text:0000000000000028 .L0 
   src/syscall_c.cpp:21     .text:0000000000000028 .L0 
     /tmp/ccTp8bvz.s:53     .text:000000000000002c .L0 
     /tmp/ccTp8bvz.s:54     .text:000000000000002c .L0 
   src/syscall_c.cpp:9      .text:000000000000002c .L0 
     /tmp/ccTp8bvz.s:63     .text:0000000000000030 .L0 
     /tmp/ccTp8bvz.s:64     .text:0000000000000030 .L0 
   src/syscall_c.cpp:30     .text:0000000000000030 .L0 
     /tmp/ccTp8bvz.s:71     .text:0000000000000034 .L0 
     /tmp/ccTp8bvz.s:73     .text:0000000000000034 .L0 
     /tmp/ccTp8bvz.s:74     .text:0000000000000038 .L0 
     /tmp/ccTp8bvz.s:75     .text:0000000000000038 .L0 
     /tmp/ccTp8bvz.s:77     .text:000000000000003c .L0 
     /tmp/ccTp8bvz.s:79     .text:0000000000000040 .L0 
     /tmp/ccTp8bvz.s:85     .text:0000000000000040 _Z8mem_freePv
     /tmp/ccTp8bvz.s:88     .text:0000000000000040 .L0 
     /tmp/ccTp8bvz.s:90     .text:0000000000000040 .L0 
     /tmp/ccTp8bvz.s:91     .text:0000000000000044 .L0 
     /tmp/ccTp8bvz.s:93     .text:0000000000000048 .L0 
     /tmp/ccTp8bvz.s:95     .text:000000000000004c .L0 
     /tmp/ccTp8bvz.s:98     .text:0000000000000050 .L0 
   src/syscall_c.cpp:36     .text:0000000000000050 .L0 
     /tmp/ccTp8bvz.s:105    .text:0000000000000054 .L0 
   src/syscall_c.cpp:37     .text:0000000000000054 .L0 
     /tmp/ccTp8bvz.s:113    .text:0000000000000058 .L0 
     /tmp/ccTp8bvz.s:114    .text:0000000000000058 .L0 
   src/syscall_c.cpp:9      .text:0000000000000058 .L0 
     /tmp/ccTp8bvz.s:123    .text:000000000000005c .L0 
     /tmp/ccTp8bvz.s:124    .text:000000000000005c .L0 
   src/syscall_c.cpp:44     .text:000000000000005c .L0 
     /tmp/ccTp8bvz.s:131    .text:0000000000000060 .L0 
     /tmp/ccTp8bvz.s:133    .text:0000000000000060 .L0 
     /tmp/ccTp8bvz.s:135    .text:0000000000000068 .L0 
     /tmp/ccTp8bvz.s:136    .text:0000000000000068 .L0 
     /tmp/ccTp8bvz.s:138    .text:000000000000006c .L0 
     /tmp/ccTp8bvz.s:140    .text:0000000000000070 .L0 
     /tmp/ccTp8bvz.s:146    .text:0000000000000070 _Z13thread_createPP3TCBPFvPvES2_
     /tmp/ccTp8bvz.s:149    .text:0000000000000070 .L0 
     /tmp/ccTp8bvz.s:151    .text:0000000000000070 .L0 
     /tmp/ccTp8bvz.s:152    .text:0000000000000074 .L0 
GAS LISTING /tmp/ccTp8bvz.s 			page 24


     /tmp/ccTp8bvz.s:158    .text:0000000000000088 .L0 
     /tmp/ccTp8bvz.s:159    .text:0000000000000088 .L0 
     /tmp/ccTp8bvz.s:160    .text:0000000000000088 .L0 
     /tmp/ccTp8bvz.s:161    .text:0000000000000088 .L0 
     /tmp/ccTp8bvz.s:162    .text:0000000000000088 .L0 
     /tmp/ccTp8bvz.s:164    .text:000000000000008c .L0 
     /tmp/ccTp8bvz.s:170    .text:0000000000000098 .L0 
     /tmp/ccTp8bvz.s:171    .text:0000000000000098 .L0 
     /tmp/ccTp8bvz.s:173    .text:000000000000009c .L0 
     /tmp/ccTp8bvz.s:174    .text:000000000000009c .L0 
     /tmp/ccTp8bvz.s:182    .text:00000000000000ac .L0 
   src/syscall_c.cpp:55     .text:00000000000000ac .L0 
     /tmp/ccTp8bvz.s:188    .text:00000000000000b0 .L0 
   src/syscall_c.cpp:56     .text:00000000000000b0 .L0 
     /tmp/ccTp8bvz.s:193    .text:00000000000000b4 .L0 
   src/syscall_c.cpp:58     .text:00000000000000b4 .L0 
     /tmp/ccTp8bvz.s:198    .text:00000000000000b8 .L0 
   src/syscall_c.cpp:59     .text:00000000000000b8 .L0 
     /tmp/ccTp8bvz.s:203    .text:00000000000000bc .L0 
   src/syscall_c.cpp:60     .text:00000000000000bc .L0 
     /tmp/ccTp8bvz.s:211    .text:00000000000000c0 .L0 
     /tmp/ccTp8bvz.s:212    .text:00000000000000c0 .L0 
   src/syscall_c.cpp:9      .text:00000000000000c0 .L0 
     /tmp/ccTp8bvz.s:221    .text:00000000000000c4 .L0 
     /tmp/ccTp8bvz.s:222    .text:00000000000000c4 .L0 
   src/syscall_c.cpp:70     .text:00000000000000c4 .L0 
     /tmp/ccTp8bvz.s:229    .text:00000000000000c8 .L0 
     /tmp/ccTp8bvz.s:231    .text:00000000000000c8 .L0 
     /tmp/ccTp8bvz.s:233    .text:00000000000000d0 .L0 
     /tmp/ccTp8bvz.s:234    .text:00000000000000d0 .L0 
     /tmp/ccTp8bvz.s:236    .text:00000000000000d4 .L0 
     /tmp/ccTp8bvz.s:237    .text:00000000000000d4 .L0 
     /tmp/ccTp8bvz.s:239    .text:00000000000000d8 .L0 
     /tmp/ccTp8bvz.s:242    .text:00000000000000dc .L0 
     /tmp/ccTp8bvz.s:245    .text:00000000000000e0 .L0 
     /tmp/ccTp8bvz.s:248    .text:00000000000000e4 .L0 
     /tmp/ccTp8bvz.s:252    .text:00000000000000e8 .L0 
     /tmp/ccTp8bvz.s:254    .text:00000000000000e8 .L0 
     /tmp/ccTp8bvz.s:256    .text:00000000000000f0 .L0 
     /tmp/ccTp8bvz.s:262    .text:00000000000000f0 _Z11thread_exitv
     /tmp/ccTp8bvz.s:265    .text:00000000000000f0 .L0 
     /tmp/ccTp8bvz.s:266    .text:00000000000000f0 .L0 
     /tmp/ccTp8bvz.s:267    .text:00000000000000f4 .L0 
     /tmp/ccTp8bvz.s:269    .text:00000000000000f8 .L0 
     /tmp/ccTp8bvz.s:271    .text:00000000000000fc .L0 
     /tmp/ccTp8bvz.s:273    .text:00000000000000fc .L0 
   src/syscall_c.cpp:76     .text:00000000000000fc .L0 
     /tmp/ccTp8bvz.s:282    .text:0000000000000100 .L0 
     /tmp/ccTp8bvz.s:283    .text:0000000000000100 .L0 
   src/syscall_c.cpp:9      .text:0000000000000100 .L0 
     /tmp/ccTp8bvz.s:292    .text:0000000000000104 .L0 
     /tmp/ccTp8bvz.s:293    .text:0000000000000104 .L0 
   src/syscall_c.cpp:81     .text:0000000000000104 .L0 
     /tmp/ccTp8bvz.s:300    .text:0000000000000108 .L0 
     /tmp/ccTp8bvz.s:302    .text:0000000000000108 .L0 
     /tmp/ccTp8bvz.s:304    .text:0000000000000110 .L0 
     /tmp/ccTp8bvz.s:305    .text:0000000000000110 .L0 
GAS LISTING /tmp/ccTp8bvz.s 			page 25


     /tmp/ccTp8bvz.s:307    .text:0000000000000114 .L0 
     /tmp/ccTp8bvz.s:309    .text:0000000000000118 .L0 
     /tmp/ccTp8bvz.s:315    .text:0000000000000118 _Z15thread_dispatchv
     /tmp/ccTp8bvz.s:318    .text:0000000000000118 .L0 
     /tmp/ccTp8bvz.s:319    .text:0000000000000118 .L0 
     /tmp/ccTp8bvz.s:320    .text:000000000000011c .L0 
     /tmp/ccTp8bvz.s:322    .text:0000000000000120 .L0 
     /tmp/ccTp8bvz.s:324    .text:0000000000000124 .L0 
     /tmp/ccTp8bvz.s:326    .text:0000000000000124 .L0 
   src/syscall_c.cpp:87     .text:0000000000000124 .L0 
     /tmp/ccTp8bvz.s:335    .text:0000000000000128 .L0 
     /tmp/ccTp8bvz.s:336    .text:0000000000000128 .L0 
   src/syscall_c.cpp:9      .text:0000000000000128 .L0 
     /tmp/ccTp8bvz.s:345    .text:000000000000012c .L0 
     /tmp/ccTp8bvz.s:346    .text:0000000000000130 .L0 
     /tmp/ccTp8bvz.s:347    .text:0000000000000130 .L0 
     /tmp/ccTp8bvz.s:349    .text:0000000000000134 .L0 
     /tmp/ccTp8bvz.s:351    .text:0000000000000138 .L0 
     /tmp/ccTp8bvz.s:357    .text:0000000000000138 _Z11thread_joinP3TCB
     /tmp/ccTp8bvz.s:360    .text:0000000000000138 .L0 
     /tmp/ccTp8bvz.s:362    .text:0000000000000138 .L0 
     /tmp/ccTp8bvz.s:363    .text:000000000000013c .L0 
     /tmp/ccTp8bvz.s:365    .text:0000000000000140 .L0 
     /tmp/ccTp8bvz.s:367    .text:0000000000000144 .L0 
     /tmp/ccTp8bvz.s:370    .text:0000000000000148 .L0 
   src/syscall_c.cpp:95     .text:0000000000000148 .L0 
     /tmp/ccTp8bvz.s:377    .text:000000000000014c .L0 
   src/syscall_c.cpp:96     .text:000000000000014c .L0 
     /tmp/ccTp8bvz.s:385    .text:0000000000000150 .L0 
     /tmp/ccTp8bvz.s:386    .text:0000000000000150 .L0 
   src/syscall_c.cpp:9      .text:0000000000000150 .L0 
     /tmp/ccTp8bvz.s:395    .text:0000000000000154 .L0 
     /tmp/ccTp8bvz.s:396    .text:0000000000000158 .L0 
     /tmp/ccTp8bvz.s:397    .text:0000000000000158 .L0 
     /tmp/ccTp8bvz.s:399    .text:000000000000015c .L0 
     /tmp/ccTp8bvz.s:401    .text:0000000000000160 .L0 
     /tmp/ccTp8bvz.s:407    .text:0000000000000160 _Z10time_sleepm
     /tmp/ccTp8bvz.s:410    .text:0000000000000160 .L0 
     /tmp/ccTp8bvz.s:412    .text:0000000000000160 .L0 
     /tmp/ccTp8bvz.s:413    .text:0000000000000164 .L0 
     /tmp/ccTp8bvz.s:415    .text:0000000000000168 .L0 
     /tmp/ccTp8bvz.s:417    .text:000000000000016c .L0 
     /tmp/ccTp8bvz.s:420    .text:0000000000000170 .L0 
   src/syscall_c.cpp:105    .text:0000000000000170 .L0 
     /tmp/ccTp8bvz.s:427    .text:0000000000000174 .L0 
   src/syscall_c.cpp:106    .text:0000000000000174 .L0 
     /tmp/ccTp8bvz.s:435    .text:0000000000000178 .L0 
     /tmp/ccTp8bvz.s:436    .text:0000000000000178 .L0 
   src/syscall_c.cpp:9      .text:0000000000000178 .L0 
     /tmp/ccTp8bvz.s:445    .text:000000000000017c .L0 
     /tmp/ccTp8bvz.s:446    .text:000000000000017c .L0 
   src/syscall_c.cpp:113    .text:000000000000017c .L0 
     /tmp/ccTp8bvz.s:453    .text:0000000000000180 .L0 
     /tmp/ccTp8bvz.s:455    .text:0000000000000180 .L0 
     /tmp/ccTp8bvz.s:457    .text:0000000000000188 .L0 
     /tmp/ccTp8bvz.s:458    .text:0000000000000188 .L0 
     /tmp/ccTp8bvz.s:460    .text:000000000000018c .L0 
GAS LISTING /tmp/ccTp8bvz.s 			page 26


     /tmp/ccTp8bvz.s:462    .text:0000000000000190 .L0 
     /tmp/ccTp8bvz.s:468    .text:0000000000000190 _Z8sem_openPP4KSemj
     /tmp/ccTp8bvz.s:471    .text:0000000000000190 .L0 
     /tmp/ccTp8bvz.s:473    .text:0000000000000190 .L0 
     /tmp/ccTp8bvz.s:474    .text:0000000000000194 .L0 
     /tmp/ccTp8bvz.s:476    .text:0000000000000198 .L0 
     /tmp/ccTp8bvz.s:478    .text:000000000000019c .L0 
     /tmp/ccTp8bvz.s:482    .text:00000000000001a4 .L0 
   src/syscall_c.cpp:119    .text:00000000000001a4 .L0 
     /tmp/ccTp8bvz.s:489    .text:00000000000001a8 .L0 
   src/syscall_c.cpp:120    .text:00000000000001a8 .L0 
     /tmp/ccTp8bvz.s:494    .text:00000000000001ac .L0 
   src/syscall_c.cpp:121    .text:00000000000001ac .L0 
     /tmp/ccTp8bvz.s:502    .text:00000000000001b0 .L0 
     /tmp/ccTp8bvz.s:503    .text:00000000000001b0 .L0 
   src/syscall_c.cpp:9      .text:00000000000001b0 .L0 
     /tmp/ccTp8bvz.s:512    .text:00000000000001b4 .L0 
     /tmp/ccTp8bvz.s:513    .text:00000000000001b4 .L0 
   src/syscall_c.cpp:130    .text:00000000000001b4 .L0 
     /tmp/ccTp8bvz.s:520    .text:00000000000001b8 .L0 
     /tmp/ccTp8bvz.s:522    .text:00000000000001b8 .L0 
     /tmp/ccTp8bvz.s:524    .text:00000000000001c0 .L0 
     /tmp/ccTp8bvz.s:525    .text:00000000000001c0 .L0 
     /tmp/ccTp8bvz.s:527    .text:00000000000001c4 .L0 
     /tmp/ccTp8bvz.s:529    .text:00000000000001c8 .L0 
     /tmp/ccTp8bvz.s:535    .text:00000000000001c8 _Z9sem_closeP4KSem
     /tmp/ccTp8bvz.s:538    .text:00000000000001c8 .L0 
     /tmp/ccTp8bvz.s:540    .text:00000000000001c8 .L0 
     /tmp/ccTp8bvz.s:541    .text:00000000000001cc .L0 
     /tmp/ccTp8bvz.s:543    .text:00000000000001d0 .L0 
     /tmp/ccTp8bvz.s:545    .text:00000000000001d4 .L0 
     /tmp/ccTp8bvz.s:548    .text:00000000000001d8 .L0 
   src/syscall_c.cpp:136    .text:00000000000001d8 .L0 
     /tmp/ccTp8bvz.s:555    .text:00000000000001dc .L0 
   src/syscall_c.cpp:137    .text:00000000000001dc .L0 
     /tmp/ccTp8bvz.s:563    .text:00000000000001e0 .L0 
     /tmp/ccTp8bvz.s:564    .text:00000000000001e0 .L0 
   src/syscall_c.cpp:9      .text:00000000000001e0 .L0 
     /tmp/ccTp8bvz.s:573    .text:00000000000001e4 .L0 
     /tmp/ccTp8bvz.s:574    .text:00000000000001e4 .L0 
   src/syscall_c.cpp:144    .text:00000000000001e4 .L0 
     /tmp/ccTp8bvz.s:581    .text:00000000000001e8 .L0 
     /tmp/ccTp8bvz.s:583    .text:00000000000001e8 .L0 
     /tmp/ccTp8bvz.s:585    .text:00000000000001f0 .L0 
     /tmp/ccTp8bvz.s:586    .text:00000000000001f0 .L0 
     /tmp/ccTp8bvz.s:588    .text:00000000000001f4 .L0 
     /tmp/ccTp8bvz.s:590    .text:00000000000001f8 .L0 
     /tmp/ccTp8bvz.s:596    .text:00000000000001f8 _Z8sem_waitP4KSem
     /tmp/ccTp8bvz.s:599    .text:00000000000001f8 .L0 
     /tmp/ccTp8bvz.s:601    .text:00000000000001f8 .L0 
     /tmp/ccTp8bvz.s:602    .text:00000000000001fc .L0 
     /tmp/ccTp8bvz.s:604    .text:0000000000000200 .L0 
     /tmp/ccTp8bvz.s:606    .text:0000000000000204 .L0 
     /tmp/ccTp8bvz.s:609    .text:0000000000000208 .L0 
   src/syscall_c.cpp:150    .text:0000000000000208 .L0 
     /tmp/ccTp8bvz.s:616    .text:000000000000020c .L0 
   src/syscall_c.cpp:151    .text:000000000000020c .L0 
GAS LISTING /tmp/ccTp8bvz.s 			page 27


     /tmp/ccTp8bvz.s:624    .text:0000000000000210 .L0 
     /tmp/ccTp8bvz.s:625    .text:0000000000000210 .L0 
   src/syscall_c.cpp:9      .text:0000000000000210 .L0 
     /tmp/ccTp8bvz.s:634    .text:0000000000000214 .L0 
     /tmp/ccTp8bvz.s:635    .text:0000000000000214 .L0 
   src/syscall_c.cpp:158    .text:0000000000000214 .L0 
     /tmp/ccTp8bvz.s:642    .text:0000000000000218 .L0 
     /tmp/ccTp8bvz.s:644    .text:0000000000000218 .L0 
     /tmp/ccTp8bvz.s:646    .text:0000000000000220 .L0 
     /tmp/ccTp8bvz.s:647    .text:0000000000000220 .L0 
     /tmp/ccTp8bvz.s:649    .text:0000000000000224 .L0 
     /tmp/ccTp8bvz.s:651    .text:0000000000000228 .L0 
     /tmp/ccTp8bvz.s:657    .text:0000000000000228 _Z10sem_signalP4KSem
     /tmp/ccTp8bvz.s:660    .text:0000000000000228 .L0 
     /tmp/ccTp8bvz.s:662    .text:0000000000000228 .L0 
     /tmp/ccTp8bvz.s:663    .text:000000000000022c .L0 
     /tmp/ccTp8bvz.s:665    .text:0000000000000230 .L0 
     /tmp/ccTp8bvz.s:667    .text:0000000000000234 .L0 
     /tmp/ccTp8bvz.s:670    .text:0000000000000238 .L0 
   src/syscall_c.cpp:164    .text:0000000000000238 .L0 
     /tmp/ccTp8bvz.s:677    .text:000000000000023c .L0 
   src/syscall_c.cpp:165    .text:000000000000023c .L0 
     /tmp/ccTp8bvz.s:685    .text:0000000000000240 .L0 
     /tmp/ccTp8bvz.s:686    .text:0000000000000240 .L0 
   src/syscall_c.cpp:9      .text:0000000000000240 .L0 
     /tmp/ccTp8bvz.s:695    .text:0000000000000244 .L0 
     /tmp/ccTp8bvz.s:696    .text:0000000000000244 .L0 
   src/syscall_c.cpp:172    .text:0000000000000244 .L0 
     /tmp/ccTp8bvz.s:703    .text:0000000000000248 .L0 
     /tmp/ccTp8bvz.s:705    .text:0000000000000248 .L0 
     /tmp/ccTp8bvz.s:707    .text:0000000000000250 .L0 
     /tmp/ccTp8bvz.s:708    .text:0000000000000250 .L0 
     /tmp/ccTp8bvz.s:710    .text:0000000000000254 .L0 
     /tmp/ccTp8bvz.s:712    .text:0000000000000258 .L0 
     /tmp/ccTp8bvz.s:718    .text:0000000000000258 _Z4getcv
     /tmp/ccTp8bvz.s:721    .text:0000000000000258 .L0 
     /tmp/ccTp8bvz.s:722    .text:0000000000000258 .L0 
     /tmp/ccTp8bvz.s:723    .text:000000000000025c .L0 
     /tmp/ccTp8bvz.s:725    .text:0000000000000260 .L0 
     /tmp/ccTp8bvz.s:727    .text:0000000000000264 .L0 
     /tmp/ccTp8bvz.s:729    .text:0000000000000264 .L0 
   src/syscall_c.cpp:178    .text:0000000000000264 .L0 
     /tmp/ccTp8bvz.s:738    .text:0000000000000268 .L0 
     /tmp/ccTp8bvz.s:739    .text:0000000000000268 .L0 
   src/syscall_c.cpp:9      .text:0000000000000268 .L0 
     /tmp/ccTp8bvz.s:748    .text:000000000000026c .L0 
     /tmp/ccTp8bvz.s:749    .text:000000000000026c .L0 
   src/syscall_c.cpp:183    .text:000000000000026c .L0 
     /tmp/ccTp8bvz.s:756    .text:0000000000000270 .L0 
     /tmp/ccTp8bvz.s:758    .text:0000000000000270 .L0 
     /tmp/ccTp8bvz.s:760    .text:0000000000000278 .L0 
     /tmp/ccTp8bvz.s:761    .text:0000000000000278 .L0 
     /tmp/ccTp8bvz.s:763    .text:000000000000027c .L0 
     /tmp/ccTp8bvz.s:765    .text:0000000000000280 .L0 
     /tmp/ccTp8bvz.s:771    .text:0000000000000280 _Z4putcc
     /tmp/ccTp8bvz.s:774    .text:0000000000000280 .L0 
     /tmp/ccTp8bvz.s:776    .text:0000000000000280 .L0 
GAS LISTING /tmp/ccTp8bvz.s 			page 28


     /tmp/ccTp8bvz.s:777    .text:0000000000000284 .L0 
     /tmp/ccTp8bvz.s:779    .text:0000000000000288 .L0 
     /tmp/ccTp8bvz.s:781    .text:000000000000028c .L0 
     /tmp/ccTp8bvz.s:784    .text:0000000000000290 .L0 
   src/syscall_c.cpp:189    .text:0000000000000290 .L0 
     /tmp/ccTp8bvz.s:791    .text:0000000000000294 .L0 
   src/syscall_c.cpp:190    .text:0000000000000294 .L0 
     /tmp/ccTp8bvz.s:799    .text:0000000000000298 .L0 
     /tmp/ccTp8bvz.s:800    .text:0000000000000298 .L0 
   src/syscall_c.cpp:9      .text:0000000000000298 .L0 
     /tmp/ccTp8bvz.s:809    .text:000000000000029c .L0 
     /tmp/ccTp8bvz.s:810    .text:00000000000002a0 .L0 
     /tmp/ccTp8bvz.s:811    .text:00000000000002a0 .L0 
     /tmp/ccTp8bvz.s:813    .text:00000000000002a4 .L0 
     /tmp/ccTp8bvz.s:815    .text:00000000000002a8 .L0 
     /tmp/ccTp8bvz.s:821    .text:00000000000002a8 _Z12thread_allocPP3TCBPFvPvES2_
     /tmp/ccTp8bvz.s:824    .text:00000000000002a8 .L0 
     /tmp/ccTp8bvz.s:826    .text:00000000000002a8 .L0 
     /tmp/ccTp8bvz.s:827    .text:00000000000002ac .L0 
     /tmp/ccTp8bvz.s:833    .text:00000000000002c0 .L0 
     /tmp/ccTp8bvz.s:834    .text:00000000000002c0 .L0 
     /tmp/ccTp8bvz.s:835    .text:00000000000002c0 .L0 
     /tmp/ccTp8bvz.s:836    .text:00000000000002c0 .L0 
     /tmp/ccTp8bvz.s:837    .text:00000000000002c0 .L0 
     /tmp/ccTp8bvz.s:839    .text:00000000000002c4 .L0 
     /tmp/ccTp8bvz.s:845    .text:00000000000002d0 .L0 
     /tmp/ccTp8bvz.s:846    .text:00000000000002d0 .L0 
     /tmp/ccTp8bvz.s:848    .text:00000000000002d4 .L0 
     /tmp/ccTp8bvz.s:849    .text:00000000000002d4 .L0 
     /tmp/ccTp8bvz.s:857    .text:00000000000002e4 .L0 
   src/syscall_c.cpp:204    .text:00000000000002e4 .L0 
     /tmp/ccTp8bvz.s:863    .text:00000000000002e8 .L0 
   src/syscall_c.cpp:205    .text:00000000000002e8 .L0 
     /tmp/ccTp8bvz.s:868    .text:00000000000002ec .L0 
   src/syscall_c.cpp:207    .text:00000000000002ec .L0 
     /tmp/ccTp8bvz.s:873    .text:00000000000002f0 .L0 
   src/syscall_c.cpp:208    .text:00000000000002f0 .L0 
     /tmp/ccTp8bvz.s:878    .text:00000000000002f4 .L0 
   src/syscall_c.cpp:209    .text:00000000000002f4 .L0 
     /tmp/ccTp8bvz.s:886    .text:00000000000002f8 .L0 
     /tmp/ccTp8bvz.s:887    .text:00000000000002f8 .L0 
   src/syscall_c.cpp:9      .text:00000000000002f8 .L0 
     /tmp/ccTp8bvz.s:896    .text:00000000000002fc .L0 
     /tmp/ccTp8bvz.s:897    .text:00000000000002fc .L0 
   src/syscall_c.cpp:219    .text:00000000000002fc .L0 
     /tmp/ccTp8bvz.s:904    .text:0000000000000300 .L0 
     /tmp/ccTp8bvz.s:906    .text:0000000000000300 .L0 
     /tmp/ccTp8bvz.s:908    .text:0000000000000308 .L0 
     /tmp/ccTp8bvz.s:909    .text:0000000000000308 .L0 
     /tmp/ccTp8bvz.s:911    .text:000000000000030c .L0 
     /tmp/ccTp8bvz.s:912    .text:000000000000030c .L0 
     /tmp/ccTp8bvz.s:914    .text:0000000000000310 .L0 
     /tmp/ccTp8bvz.s:917    .text:0000000000000314 .L0 
     /tmp/ccTp8bvz.s:920    .text:0000000000000318 .L0 
     /tmp/ccTp8bvz.s:923    .text:000000000000031c .L0 
     /tmp/ccTp8bvz.s:927    .text:0000000000000320 .L0 
     /tmp/ccTp8bvz.s:929    .text:0000000000000320 .L0 
GAS LISTING /tmp/ccTp8bvz.s 			page 29


     /tmp/ccTp8bvz.s:931    .text:0000000000000328 .L0 
     /tmp/ccTp8bvz.s:937    .text:0000000000000328 _Z12thread_startP3TCB
     /tmp/ccTp8bvz.s:940    .text:0000000000000328 .L0 
     /tmp/ccTp8bvz.s:942    .text:0000000000000328 .L0 
     /tmp/ccTp8bvz.s:943    .text:000000000000032c .L0 
     /tmp/ccTp8bvz.s:945    .text:0000000000000330 .L0 
     /tmp/ccTp8bvz.s:947    .text:0000000000000334 .L0 
     /tmp/ccTp8bvz.s:950    .text:0000000000000338 .L0 
   src/syscall_c.cpp:224    .text:0000000000000338 .L0 
     /tmp/ccTp8bvz.s:957    .text:000000000000033c .L0 
   src/syscall_c.cpp:225    .text:000000000000033c .L0 
     /tmp/ccTp8bvz.s:965    .text:0000000000000340 .L0 
     /tmp/ccTp8bvz.s:966    .text:0000000000000340 .L0 
   src/syscall_c.cpp:9      .text:0000000000000340 .L0 
     /tmp/ccTp8bvz.s:975    .text:0000000000000344 .L0 
     /tmp/ccTp8bvz.s:976    .text:0000000000000348 .L0 
     /tmp/ccTp8bvz.s:977    .text:0000000000000348 .L0 
     /tmp/ccTp8bvz.s:979    .text:000000000000034c .L0 
     /tmp/ccTp8bvz.s:981    .text:0000000000000350 .L0 
     /tmp/ccTp8bvz.s:989    .text:0000000000000350 .L0 
     /tmp/ccTp8bvz.s:34     .text:0000000000000020 .L2
     /tmp/ccTp8bvz.s:251    .text:00000000000000e8 .L8
     /tmp/ccTp8bvz.s:180    .text:00000000000000ac .L7
     /tmp/ccTp8bvz.s:926    .text:0000000000000320 .L32
     /tmp/ccTp8bvz.s:855    .text:00000000000002e4 .L31
     /tmp/ccTp8bvz.s:2256   .debug_abbrev:0000000000000000 .Ldebug_abbrev0
     /tmp/ccTp8bvz.s:3642   .debug_str:000000000000063b .LASF128
     /tmp/ccTp8bvz.s:3552   .debug_str:000000000000039a .LASF129
     /tmp/ccTp8bvz.s:3616   .debug_str:0000000000000594 .LASF130
     /tmp/ccTp8bvz.s:5      .text:0000000000000000 .Ltext0
     /tmp/ccTp8bvz.s:984    .text:0000000000000350 .Letext0
     /tmp/ccTp8bvz.s:3424   .debug_line:0000000000000000 .Ldebug_line0
     /tmp/ccTp8bvz.s:3516   .debug_str:00000000000002bb .LASF0
     /tmp/ccTp8bvz.s:3534   .debug_str:0000000000000329 .LASF1
     /tmp/ccTp8bvz.s:3606   .debug_str:000000000000054f .LASF2
     /tmp/ccTp8bvz.s:3614   .debug_str:000000000000058d .LASF4
     /tmp/ccTp8bvz.s:3522   .debug_str:00000000000002e3 .LASF3
     /tmp/ccTp8bvz.s:3432   .debug_str:0000000000000045 .LASF5
     /tmp/ccTp8bvz.s:3584   .debug_str:00000000000004ac .LASF6
     /tmp/ccTp8bvz.s:3578   .debug_str:000000000000047c .LASF7
     /tmp/ccTp8bvz.s:3526   .debug_str:0000000000000307 .LASF8
     /tmp/ccTp8bvz.s:3500   .debug_str:0000000000000232 .LASF9
     /tmp/ccTp8bvz.s:3506   .debug_str:0000000000000266 .LASF10
     /tmp/ccTp8bvz.s:3456   .debug_str:00000000000000f1 .LASF11
     /tmp/ccTp8bvz.s:3496   .debug_str:000000000000020b .LASF12
     /tmp/ccTp8bvz.s:3466   .debug_str:000000000000012b .LASF13
     /tmp/ccTp8bvz.s:3454   .debug_str:00000000000000e1 .LASF14
     /tmp/ccTp8bvz.s:3628   .debug_str:00000000000005f4 .LASF15
     /tmp/ccTp8bvz.s:3490   .debug_str:00000000000001be .LASF16
     /tmp/ccTp8bvz.s:3622   .debug_str:00000000000005cc .LASF17
     /tmp/ccTp8bvz.s:3668   .debug_str:000000000000077e .LASF18
     /tmp/ccTp8bvz.s:3618   .debug_str:00000000000005b2 .LASF131
     /tmp/ccTp8bvz.s:3588   .debug_str:00000000000004c1 .LASF19
     /tmp/ccTp8bvz.s:3476   .debug_str:0000000000000181 .LASF20
     /tmp/ccTp8bvz.s:3546   .debug_str:0000000000000381 .LASF21
     /tmp/ccTp8bvz.s:3434   .debug_str:000000000000004c .LASF22
     /tmp/ccTp8bvz.s:3462   .debug_str:000000000000010f .LASF23
GAS LISTING /tmp/ccTp8bvz.s 			page 30


     /tmp/ccTp8bvz.s:3448   .debug_str:00000000000000b8 .LASF24
     /tmp/ccTp8bvz.s:3632   .debug_str:0000000000000609 .LASF66
     /tmp/ccTp8bvz.s:3460   .debug_str:0000000000000105 .LASF25
     /tmp/ccTp8bvz.s:3508   .debug_str:0000000000000274 .LASF27
     /tmp/ccTp8bvz.s:3518   .debug_str:00000000000002c8 .LASF29
     /tmp/ccTp8bvz.s:3542   .debug_str:0000000000000357 .LASF31
     /tmp/ccTp8bvz.s:3626   .debug_str:00000000000005e7 .LASF26
     /tmp/ccTp8bvz.s:3676   .debug_str:00000000000007c0 .LASF28
     /tmp/ccTp8bvz.s:3574   .debug_str:000000000000046b .LASF132
     /tmp/ccTp8bvz.s:3692   .debug_str:0000000000000842 .LASF35
     /tmp/ccTp8bvz.s:3524   .debug_str:00000000000002f5 .LASF37
     /tmp/ccTp8bvz.s:3540   .debug_str:000000000000034a .LASF30
     /tmp/ccTp8bvz.s:3596   .debug_str:0000000000000502 .LASF32
     /tmp/ccTp8bvz.s:3480   .debug_str:000000000000018d .LASF33
     /tmp/ccTp8bvz.s:3610   .debug_str:0000000000000567 .LASF34
     /tmp/ccTp8bvz.s:3654   .debug_str:0000000000000742 .LASF36
     /tmp/ccTp8bvz.s:3498   .debug_str:000000000000021a .LASF38
     /tmp/ccTp8bvz.s:3670   .debug_str:0000000000000787 .LASF39
     /tmp/ccTp8bvz.s:3494   .debug_str:00000000000001f2 .LASF41
     /tmp/ccTp8bvz.s:3538   .debug_str:0000000000000344 .LASF40
     /tmp/ccTp8bvz.s:3644   .debug_str:00000000000006ff .LASF42
     /tmp/ccTp8bvz.s:3482   .debug_str:000000000000019a .LASF43
     /tmp/ccTp8bvz.s:3464   .debug_str:0000000000000118 .LASF44
     /tmp/ccTp8bvz.s:3662   .debug_str:0000000000000766 .LASF45
     /tmp/ccTp8bvz.s:3438   .debug_str:0000000000000070 .LASF46
     /tmp/ccTp8bvz.s:3638   .debug_str:0000000000000623 .LASF47
     /tmp/ccTp8bvz.s:3450   .debug_str:00000000000000c1 .LASF48
     /tmp/ccTp8bvz.s:3698   .debug_str:0000000000000860 .LASF49
     /tmp/ccTp8bvz.s:3504   .debug_str:000000000000025a .LASF50
     /tmp/ccTp8bvz.s:3428   .debug_str:000000000000000d .LASF51
     /tmp/ccTp8bvz.s:3570   .debug_str:000000000000043d .LASF52
     /tmp/ccTp8bvz.s:3650   .debug_str:0000000000000731 .LASF53
     /tmp/ccTp8bvz.s:3452   .debug_str:00000000000000d2 .LASF54
     /tmp/ccTp8bvz.s:3694   .debug_str:0000000000000848 .LASF55
     /tmp/ccTp8bvz.s:3658   .debug_str:0000000000000753 .LASF56
     /tmp/ccTp8bvz.s:3646   .debug_str:000000000000070f .LASF57
     /tmp/ccTp8bvz.s:3640   .debug_str:000000000000062b .LASF58
     /tmp/ccTp8bvz.s:3576   .debug_str:0000000000000470 .LASF59
     /tmp/ccTp8bvz.s:3426   .debug_str:0000000000000000 .LASF60
     /tmp/ccTp8bvz.s:3612   .debug_str:000000000000057f .LASF61
     /tmp/ccTp8bvz.s:3666   .debug_str:0000000000000777 .LASF62
     /tmp/ccTp8bvz.s:3688   .debug_str:000000000000081e .LASF133
     /tmp/ccTp8bvz.s:3472   .debug_str:0000000000000159 .LASF72
     /tmp/ccTp8bvz.s:3430   .debug_str:000000000000001d .LASF73
     /tmp/ccTp8bvz.s:3686   .debug_str:0000000000000818 .LASF63
     /tmp/ccTp8bvz.s:3624   .debug_str:00000000000005e2 .LASF134
     /tmp/ccTp8bvz.s:3600   .debug_str:000000000000052a .LASF64
     /tmp/ccTp8bvz.s:3564   .debug_str:0000000000000410 .LASF65
     /tmp/ccTp8bvz.s:3478   .debug_str:0000000000000188 .LASF67
     /tmp/ccTp8bvz.s:3528   .debug_str:000000000000031a .LASF68
     /tmp/ccTp8bvz.s:3458   .debug_str:0000000000000100 .LASF69
     /tmp/ccTp8bvz.s:3492   .debug_str:00000000000001d4 .LASF70
     /tmp/ccTp8bvz.s:3474   .debug_str:0000000000000167 .LASF71
     /tmp/ccTp8bvz.s:3590   .debug_str:00000000000004c9 .LASF74
     /tmp/ccTp8bvz.s:3656   .debug_str:000000000000074d .LASF75
     /tmp/ccTp8bvz.s:3530   .debug_str:000000000000031f .LASF76
     /tmp/ccTp8bvz.s:3440   .debug_str:0000000000000082 .LASF77
GAS LISTING /tmp/ccTp8bvz.s 			page 31


     /tmp/ccTp8bvz.s:3502   .debug_str:0000000000000242 .LASF78
     /tmp/ccTp8bvz.s:3608   .debug_str:000000000000055d .LASF90
     /tmp/ccTp8bvz.s:3648   .debug_str:0000000000000719 .LASF92
     /tmp/ccTp8bvz.s:3634   .debug_str:0000000000000611 .LASF79
     /tmp/ccTp8bvz.s:3674   .debug_str:00000000000007ab .LASF80
     /tmp/ccTp8bvz.s:3486   .debug_str:00000000000001b0 .LASF81
     /tmp/ccTp8bvz.s:3436   .debug_str:0000000000000054 .LASF82
     /tmp/ccTp8bvz.s:3536   .debug_str:000000000000033c .LASF83
     /tmp/ccTp8bvz.s:3560   .debug_str:00000000000003e7 .LASF84
     /tmp/ccTp8bvz.s:3446   .debug_str:00000000000000af .LASF85
     /tmp/ccTp8bvz.s:3558   .debug_str:00000000000003cb .LASF86
     /tmp/ccTp8bvz.s:3468   .debug_str:000000000000013b .LASF87
     /tmp/ccTp8bvz.s:3672   .debug_str:0000000000000795 .LASF135
     /tmp/ccTp8bvz.s:3580   .debug_str:000000000000048f .LASF88
     /tmp/ccTp8bvz.s:3544   .debug_str:000000000000036b .LASF89
     /tmp/ccTp8bvz.s:938    .text:0000000000000328 .LFB54
     /tmp/ccTp8bvz.s:982    .text:0000000000000350 .LFE54
     /tmp/ccTp8bvz.s:3684   .debug_str:0000000000000811 .LASF94
     /tmp/ccTp8bvz.s:3091   .debug_loc:0000000000000000 .LLST20
     /tmp/ccTp8bvz.s:963    .text:0000000000000340 .LBB60
     /tmp/ccTp8bvz.s:973    .text:0000000000000344 .LBE60
     /tmp/ccTp8bvz.s:3620   .debug_str:00000000000005bf .LASF91
     /tmp/ccTp8bvz.s:3678   .debug_str:00000000000007e2 .LASF93
     /tmp/ccTp8bvz.s:822    .text:00000000000002a8 .LFB53
     /tmp/ccTp8bvz.s:932    .text:0000000000000328 .LFE53
     /tmp/ccTp8bvz.s:3102   .debug_loc:0000000000000036 .LLST15
     /tmp/ccTp8bvz.s:3470   .debug_str:0000000000000150 .LASF95
     /tmp/ccTp8bvz.s:3124   .debug_loc:0000000000000095 .LLST16
     /tmp/ccTp8bvz.s:3146   .debug_loc:00000000000000f4 .LLST17
     /tmp/ccTp8bvz.s:3168   .debug_loc:0000000000000153 .LLST18
     /tmp/ccTp8bvz.s:3185   .debug_loc:000000000000019e .LLST19
     /tmp/ccTp8bvz.s:884    .text:00000000000002f8 .LBB58
     /tmp/ccTp8bvz.s:894    .text:00000000000002fc .LBE58
     /tmp/ccTp8bvz.s:852    .text:00000000000002e0 .LVL42
     /tmp/ccTp8bvz.s:3550   .debug_str:0000000000000395 .LASF96
     /tmp/ccTp8bvz.s:3630   .debug_str:0000000000000600 .LASF97
     /tmp/ccTp8bvz.s:772    .text:0000000000000280 .LFB52
     /tmp/ccTp8bvz.s:816    .text:00000000000002a8 .LFE52
     /tmp/ccTp8bvz.s:3192   .debug_loc:00000000000001c1 .LLST14
     /tmp/ccTp8bvz.s:797    .text:0000000000000298 .LBB56
     /tmp/ccTp8bvz.s:807    .text:000000000000029c .LBE56
     /tmp/ccTp8bvz.s:3636   .debug_str:000000000000061e .LASF98
     /tmp/ccTp8bvz.s:3682   .debug_str:000000000000080c .LASF99
     /tmp/ccTp8bvz.s:3664   .debug_str:000000000000076e .LASF100
     /tmp/ccTp8bvz.s:719    .text:0000000000000258 .LFB51
     /tmp/ccTp8bvz.s:766    .text:0000000000000280 .LFE51
     /tmp/ccTp8bvz.s:3562   .debug_str:0000000000000406 .LASF101
     /tmp/ccTp8bvz.s:736    .text:0000000000000268 .LBB54
     /tmp/ccTp8bvz.s:746    .text:000000000000026c .LBE54
     /tmp/ccTp8bvz.s:3512   .debug_str:00000000000002a7 .LASF102
     /tmp/ccTp8bvz.s:3602   .debug_str:000000000000052f .LASF103
     /tmp/ccTp8bvz.s:658    .text:0000000000000228 .LFB50
     /tmp/ccTp8bvz.s:713    .text:0000000000000258 .LFE50
     /tmp/ccTp8bvz.s:3206   .debug_loc:00000000000001fa .LLST13
     /tmp/ccTp8bvz.s:683    .text:0000000000000240 .LBB52
     /tmp/ccTp8bvz.s:693    .text:0000000000000244 .LBE52
     /tmp/ccTp8bvz.s:3700   .debug_str:000000000000086d .LASF104
GAS LISTING /tmp/ccTp8bvz.s 			page 32


     /tmp/ccTp8bvz.s:3696   .debug_str:000000000000084e .LASF105
     /tmp/ccTp8bvz.s:597    .text:00000000000001f8 .LFB49
     /tmp/ccTp8bvz.s:652    .text:0000000000000228 .LFE49
     /tmp/ccTp8bvz.s:3217   .debug_loc:0000000000000230 .LLST12
     /tmp/ccTp8bvz.s:622    .text:0000000000000210 .LBB50
     /tmp/ccTp8bvz.s:632    .text:0000000000000214 .LBE50
     /tmp/ccTp8bvz.s:3594   .debug_str:00000000000004f8 .LASF106
     /tmp/ccTp8bvz.s:3442   .debug_str:0000000000000097 .LASF107
     /tmp/ccTp8bvz.s:536    .text:00000000000001c8 .LFB48
     /tmp/ccTp8bvz.s:591    .text:00000000000001f8 .LFE48
     /tmp/ccTp8bvz.s:3228   .debug_loc:0000000000000266 .LLST11
     /tmp/ccTp8bvz.s:561    .text:00000000000001e0 .LBB48
     /tmp/ccTp8bvz.s:571    .text:00000000000001e4 .LBE48
     /tmp/ccTp8bvz.s:3652   .debug_str:0000000000000739 .LASF108
     /tmp/ccTp8bvz.s:3592   .debug_str:00000000000004e4 .LASF109
     /tmp/ccTp8bvz.s:469    .text:0000000000000190 .LFB47
     /tmp/ccTp8bvz.s:530    .text:00000000000001c8 .LFE47
     /tmp/ccTp8bvz.s:3239   .debug_loc:000000000000029c .LLST9
     /tmp/ccTp8bvz.s:3444   .debug_str:00000000000000aa .LASF110
     /tmp/ccTp8bvz.s:3250   .debug_loc:00000000000002d2 .LLST10
     /tmp/ccTp8bvz.s:500    .text:00000000000001b0 .LBB46
     /tmp/ccTp8bvz.s:510    .text:00000000000001b4 .LBE46
     /tmp/ccTp8bvz.s:3604   .debug_str:0000000000000544 .LASF111
     /tmp/ccTp8bvz.s:3582   .debug_str:000000000000049c .LASF112
     /tmp/ccTp8bvz.s:408    .text:0000000000000160 .LFB46
     /tmp/ccTp8bvz.s:463    .text:0000000000000190 .LFE46
     /tmp/ccTp8bvz.s:3484   .debug_str:00000000000001a3 .LASF113
     /tmp/ccTp8bvz.s:3264   .debug_loc:000000000000030b .LLST8
     /tmp/ccTp8bvz.s:433    .text:0000000000000178 .LBB44
     /tmp/ccTp8bvz.s:443    .text:000000000000017c .LBE44
     /tmp/ccTp8bvz.s:3566   .debug_str:000000000000041c .LASF114
     /tmp/ccTp8bvz.s:3568   .debug_str:0000000000000428 .LASF115
     /tmp/ccTp8bvz.s:358    .text:0000000000000138 .LFB45
     /tmp/ccTp8bvz.s:402    .text:0000000000000160 .LFE45
     /tmp/ccTp8bvz.s:3275   .debug_loc:0000000000000341 .LLST7
     /tmp/ccTp8bvz.s:383    .text:0000000000000150 .LBB42
     /tmp/ccTp8bvz.s:393    .text:0000000000000154 .LBE42
     /tmp/ccTp8bvz.s:3598   .debug_str:000000000000051a .LASF116
     /tmp/ccTp8bvz.s:3556   .debug_str:00000000000003b6 .LASF117
     /tmp/ccTp8bvz.s:316    .text:0000000000000118 .LFB44
     /tmp/ccTp8bvz.s:352    .text:0000000000000138 .LFE44
     /tmp/ccTp8bvz.s:333    .text:0000000000000128 .LBB40
     /tmp/ccTp8bvz.s:343    .text:000000000000012c .LBE40
     /tmp/ccTp8bvz.s:3548   .debug_str:0000000000000389 .LASF118
     /tmp/ccTp8bvz.s:3520   .debug_str:00000000000002d2 .LASF119
     /tmp/ccTp8bvz.s:263    .text:00000000000000f0 .LFB43
     /tmp/ccTp8bvz.s:310    .text:0000000000000118 .LFE43
     /tmp/ccTp8bvz.s:280    .text:0000000000000100 .LBB38
     /tmp/ccTp8bvz.s:290    .text:0000000000000104 .LBE38
     /tmp/ccTp8bvz.s:3660   .debug_str:0000000000000758 .LASF120
     /tmp/ccTp8bvz.s:3572   .debug_str:000000000000044a .LASF121
     /tmp/ccTp8bvz.s:147    .text:0000000000000070 .LFB42
     /tmp/ccTp8bvz.s:257    .text:00000000000000f0 .LFE42
     /tmp/ccTp8bvz.s:3286   .debug_loc:0000000000000377 .LLST2
     /tmp/ccTp8bvz.s:3586   .debug_str:00000000000004b3 .LASF122
     /tmp/ccTp8bvz.s:3308   .debug_loc:00000000000003d6 .LLST3
     /tmp/ccTp8bvz.s:3330   .debug_loc:0000000000000435 .LLST4
GAS LISTING /tmp/ccTp8bvz.s 			page 33


     /tmp/ccTp8bvz.s:3352   .debug_loc:0000000000000494 .LLST5
     /tmp/ccTp8bvz.s:3369   .debug_loc:00000000000004df .LLST6
     /tmp/ccTp8bvz.s:209    .text:00000000000000c0 .LBB36
     /tmp/ccTp8bvz.s:219    .text:00000000000000c4 .LBE36
     /tmp/ccTp8bvz.s:177    .text:00000000000000a8 .LVL11
     /tmp/ccTp8bvz.s:3514   .debug_str:00000000000002b2 .LASF123
     /tmp/ccTp8bvz.s:3690   .debug_str:0000000000000834 .LASF124
     /tmp/ccTp8bvz.s:86     .text:0000000000000040 .LFB41
     /tmp/ccTp8bvz.s:141    .text:0000000000000070 .LFE41
     /tmp/ccTp8bvz.s:3376   .debug_loc:0000000000000502 .LLST1
     /tmp/ccTp8bvz.s:111    .text:0000000000000058 .LBB34
     /tmp/ccTp8bvz.s:121    .text:000000000000005c .LBE34
     /tmp/ccTp8bvz.s:3554   .debug_str:00000000000003ac .LASF125
     /tmp/ccTp8bvz.s:3510   .debug_str:0000000000000299 .LASF126
     /tmp/ccTp8bvz.s:10     .text:0000000000000000 .LFB40
     /tmp/ccTp8bvz.s:80     .text:0000000000000040 .LFE40
     /tmp/ccTp8bvz.s:3532   .debug_str:0000000000000324 .LASF127
     /tmp/ccTp8bvz.s:3387   .debug_loc:0000000000000538 .LLST0
     /tmp/ccTp8bvz.s:51     .text:000000000000002c .LBB32
     /tmp/ccTp8bvz.s:61     .text:0000000000000030 .LBE32
     /tmp/ccTp8bvz.s:3488   .debug_str:00000000000001b8 .LASF136
     /tmp/ccTp8bvz.s:3680   .debug_str:0000000000000802 .LASF137
     /tmp/ccTp8bvz.s:941    .text:0000000000000328 .LVL49
     /tmp/ccTp8bvz.s:955    .text:000000000000033c .LVL50
     /tmp/ccTp8bvz.s:825    .text:00000000000002a8 .LVL39
     /tmp/ccTp8bvz.s:850    .text:00000000000002d8 .LVL41
     /tmp/ccTp8bvz.s:918    .text:0000000000000314 .LVL46
     /tmp/ccTp8bvz.s:925    .text:0000000000000320 .LVL48
     /tmp/ccTp8bvz.s:915    .text:0000000000000310 .LVL45
     /tmp/ccTp8bvz.s:921    .text:0000000000000318 .LVL47
     /tmp/ccTp8bvz.s:844    .text:00000000000002d0 .LVL40
     /tmp/ccTp8bvz.s:854    .text:00000000000002e4 .LVL43
     /tmp/ccTp8bvz.s:902    .text:0000000000000300 .LVL44
     /tmp/ccTp8bvz.s:775    .text:0000000000000280 .LVL37
     /tmp/ccTp8bvz.s:789    .text:0000000000000294 .LVL38
     /tmp/ccTp8bvz.s:661    .text:0000000000000228 .LVL33
     /tmp/ccTp8bvz.s:675    .text:000000000000023c .LVL34
     /tmp/ccTp8bvz.s:600    .text:00000000000001f8 .LVL30
     /tmp/ccTp8bvz.s:614    .text:000000000000020c .LVL31
     /tmp/ccTp8bvz.s:539    .text:00000000000001c8 .LVL27
     /tmp/ccTp8bvz.s:553    .text:00000000000001dc .LVL28
     /tmp/ccTp8bvz.s:472    .text:0000000000000190 .LVL24
     /tmp/ccTp8bvz.s:487    .text:00000000000001a8 .LVL25
     /tmp/ccTp8bvz.s:411    .text:0000000000000160 .LVL21
     /tmp/ccTp8bvz.s:425    .text:0000000000000174 .LVL22
     /tmp/ccTp8bvz.s:361    .text:0000000000000138 .LVL19
     /tmp/ccTp8bvz.s:375    .text:000000000000014c .LVL20
     /tmp/ccTp8bvz.s:150    .text:0000000000000070 .LVL8
     /tmp/ccTp8bvz.s:175    .text:00000000000000a0 .LVL10
     /tmp/ccTp8bvz.s:243    .text:00000000000000dc .LVL15
     /tmp/ccTp8bvz.s:250    .text:00000000000000e8 .LVL17
     /tmp/ccTp8bvz.s:240    .text:00000000000000d8 .LVL14
     /tmp/ccTp8bvz.s:246    .text:00000000000000e0 .LVL16
     /tmp/ccTp8bvz.s:169    .text:0000000000000098 .LVL9
     /tmp/ccTp8bvz.s:179    .text:00000000000000ac .LVL12
     /tmp/ccTp8bvz.s:227    .text:00000000000000c8 .LVL13
     /tmp/ccTp8bvz.s:89     .text:0000000000000040 .LVL5
GAS LISTING /tmp/ccTp8bvz.s 			page 34


     /tmp/ccTp8bvz.s:103    .text:0000000000000054 .LVL6
     /tmp/ccTp8bvz.s:14     .text:0000000000000000 .LVL0
     /tmp/ccTp8bvz.s:24     .text:0000000000000010 .LVL1
     /tmp/ccTp8bvz.s:30     .text:0000000000000018 .LVL2
     /tmp/ccTp8bvz.s:37     .text:0000000000000024 .LVL3
     /tmp/ccTp8bvz.s:990    .debug_info:0000000000000000 .Ldebug_info0

NO UNDEFINED SYMBOLS
