GAS LISTING /tmp/cchcTNVL.s 			page 1


   1              		.file	"syscall_cpp.cpp"
   2              		.option pic
   3              		.option norelax
   4              		.text
   5              	.Ltext0:
   6              		.section	.text._ZN6Thread3runEv,"axG",@progbits,_ZN6Thread3runEv,comdat
   7              		.align	2
   8              		.weak	_ZN6Thread3runEv
  10              	_ZN6Thread3runEv:
  11              	.LFB0:
  12              		.file 1 "src/../h/syscall_cpp.hpp"
   1:src/../h/syscall_cpp.hpp **** #ifndef _syscall_cpp
   2:src/../h/syscall_cpp.hpp **** #define _syscall_cpp
   3:src/../h/syscall_cpp.hpp **** 
   4:src/../h/syscall_cpp.hpp **** #include "../lib/hw.h"
   5:src/../h/syscall_cpp.hpp **** 
   6:src/../h/syscall_cpp.hpp **** void* operator new(size_t);
   7:src/../h/syscall_cpp.hpp **** 
   8:src/../h/syscall_cpp.hpp **** void* operator new[](size_t);
   9:src/../h/syscall_cpp.hpp **** 
  10:src/../h/syscall_cpp.hpp **** void operator delete(void*)
  11:src/../h/syscall_cpp.hpp **** 
  12:src/../h/syscall_cpp.hpp **** noexcept;
  13:src/../h/syscall_cpp.hpp **** 
  14:src/../h/syscall_cpp.hpp **** void operator delete[](void*)
  15:src/../h/syscall_cpp.hpp **** 
  16:src/../h/syscall_cpp.hpp **** noexcept;
  17:src/../h/syscall_cpp.hpp **** 
  18:src/../h/syscall_cpp.hpp **** class TCB;
  19:src/../h/syscall_cpp.hpp **** 
  20:src/../h/syscall_cpp.hpp **** typedef TCB* thread_t;
  21:src/../h/syscall_cpp.hpp **** 
  22:src/../h/syscall_cpp.hpp **** class KSem;
  23:src/../h/syscall_cpp.hpp **** 
  24:src/../h/syscall_cpp.hpp **** typedef KSem* sem_t;
  25:src/../h/syscall_cpp.hpp **** 
  26:src/../h/syscall_cpp.hpp **** class Thread {
  27:src/../h/syscall_cpp.hpp **** public:
  28:src/../h/syscall_cpp.hpp ****     //konstruktor koji pravi nit koja izvrsava zadatu funkciju sa zadatim argumentima, ne pokrece n
  29:src/../h/syscall_cpp.hpp ****     Thread(void (* body)(void*), void* arg);
  30:src/../h/syscall_cpp.hpp **** 
  31:src/../h/syscall_cpp.hpp ****     virtual ~Thread();
  32:src/../h/syscall_cpp.hpp **** 
  33:src/../h/syscall_cpp.hpp ****     //stavlja nit u Scheduler
  34:src/../h/syscall_cpp.hpp ****     int start();
  35:src/../h/syscall_cpp.hpp **** 
  36:src/../h/syscall_cpp.hpp ****     //pozivajuca (running) nit se suspenduje dok se nit ciji se metod poziva(this) ne zavrsi
  37:src/../h/syscall_cpp.hpp ****     void join();
  38:src/../h/syscall_cpp.hpp **** 
  39:src/../h/syscall_cpp.hpp ****     //sinhrona promena konteksta
  40:src/../h/syscall_cpp.hpp ****     static void dispatch();
  41:src/../h/syscall_cpp.hpp **** 
  42:src/../h/syscall_cpp.hpp ****     //uspavljuje tekucu nit na zadati period
  43:src/../h/syscall_cpp.hpp ****     static int sleep(time_t);
  44:src/../h/syscall_cpp.hpp **** 
  45:src/../h/syscall_cpp.hpp **** protected:
  46:src/../h/syscall_cpp.hpp ****     //konstruktor koji pravi nit koja izvrsava run metodu, ne stavlja je u Scheduler
GAS LISTING /tmp/cchcTNVL.s 			page 2


  47:src/../h/syscall_cpp.hpp ****     Thread();
  48:src/../h/syscall_cpp.hpp **** 
  49:src/../h/syscall_cpp.hpp ****     //funkcija koju nit izvrsava, samo ako je nit napravljena podrazumevanim konstruktorom
  50:src/../h/syscall_cpp.hpp ****     virtual void run() {}
  13              		.loc 1 50 18
  14              		.cfi_startproc
  15              	.LVL0:
  16 0000 130101FF 		addi	sp,sp,-16
  17              		.cfi_def_cfa_offset 16
  18 0004 23348100 		sd	s0,8(sp)
  19              		.cfi_offset 8, -8
  20 0008 13040101 		addi	s0,sp,16
  21              		.cfi_def_cfa 8, 0
  22              		.loc 1 50 25 is_stmt 0
  23 000c 03348100 		ld	s0,8(sp)
  24              		.cfi_restore 8
  25              		.cfi_def_cfa 2, 16
  26 0010 13010101 		addi	sp,sp,16
  27              		.cfi_def_cfa_offset 0
  28 0014 67800000 		jr	ra
  29              		.cfi_endproc
  30              	.LFE0:
  32              		.section	.text._ZN14PeriodicThread18periodicActivationEv,"axG",@progbits,_ZN14PeriodicThread18peri
  33              		.align	2
  34              		.weak	_ZN14PeriodicThread18periodicActivationEv
  36              	_ZN14PeriodicThread18periodicActivationEv:
  37              	.LFB1:
  51:src/../h/syscall_cpp.hpp **** 
  52:src/../h/syscall_cpp.hpp **** private:
  53:src/../h/syscall_cpp.hpp ****     //pokazivac na TCB strukturu kernela
  54:src/../h/syscall_cpp.hpp ****     thread_t myHandle;
  55:src/../h/syscall_cpp.hpp **** 
  56:src/../h/syscall_cpp.hpp ****     void (* body)(void*);
  57:src/../h/syscall_cpp.hpp **** 
  58:src/../h/syscall_cpp.hpp ****     void* arg;
  59:src/../h/syscall_cpp.hpp **** 
  60:src/../h/syscall_cpp.hpp ****     static void wrapper(void* thread);
  61:src/../h/syscall_cpp.hpp **** };
  62:src/../h/syscall_cpp.hpp **** 
  63:src/../h/syscall_cpp.hpp **** 
  64:src/../h/syscall_cpp.hpp **** class Semaphore {
  65:src/../h/syscall_cpp.hpp **** public:
  66:src/../h/syscall_cpp.hpp **** 
  67:src/../h/syscall_cpp.hpp ****     Semaphore(unsigned init = 1);
  68:src/../h/syscall_cpp.hpp **** 
  69:src/../h/syscall_cpp.hpp ****     virtual ~Semaphore();
  70:src/../h/syscall_cpp.hpp **** 
  71:src/../h/syscall_cpp.hpp ****     int wait();
  72:src/../h/syscall_cpp.hpp **** 
  73:src/../h/syscall_cpp.hpp ****     int signal();
  74:src/../h/syscall_cpp.hpp **** 
  75:src/../h/syscall_cpp.hpp **** private:
  76:src/../h/syscall_cpp.hpp ****     sem_t myHandle;
  77:src/../h/syscall_cpp.hpp **** 
  78:src/../h/syscall_cpp.hpp **** };
  79:src/../h/syscall_cpp.hpp **** 
  80:src/../h/syscall_cpp.hpp **** 
GAS LISTING /tmp/cchcTNVL.s 			page 3


  81:src/../h/syscall_cpp.hpp **** class PeriodicThread : public Thread {
  82:src/../h/syscall_cpp.hpp **** public:
  83:src/../h/syscall_cpp.hpp ****     void terminate();
  84:src/../h/syscall_cpp.hpp **** 
  85:src/../h/syscall_cpp.hpp **** protected:
  86:src/../h/syscall_cpp.hpp ****     PeriodicThread(time_t period);
  87:src/../h/syscall_cpp.hpp **** 
  88:src/../h/syscall_cpp.hpp ****     virtual void periodicActivation() {}
  38              		.loc 1 88 18 is_stmt 1
  39              		.cfi_startproc
  40              	.LVL1:
  41 0000 130101FF 		addi	sp,sp,-16
  42              		.cfi_def_cfa_offset 16
  43 0004 23348100 		sd	s0,8(sp)
  44              		.cfi_offset 8, -8
  45 0008 13040101 		addi	s0,sp,16
  46              		.cfi_def_cfa 8, 0
  47              		.loc 1 88 40 is_stmt 0
  48 000c 03348100 		ld	s0,8(sp)
  49              		.cfi_restore 8
  50              		.cfi_def_cfa 2, 16
  51 0010 13010101 		addi	sp,sp,16
  52              		.cfi_def_cfa_offset 0
  53 0014 67800000 		jr	ra
  54              		.cfi_endproc
  55              	.LFE1:
  57              		.text
  58              		.align	2
  59              		.globl	_ZN6Thread7wrapperEPv
  61              	_ZN6Thread7wrapperEPv:
  62              	.LFB55:
  63              		.file 2 "src/syscall_cpp.cpp"
   1:src/syscall_cpp.cpp **** //
   2:src/syscall_cpp.cpp **** // Created by os on 5/29/23.
   3:src/syscall_cpp.cpp **** //
   4:src/syscall_cpp.cpp **** #include "../h/syscall_cpp.hpp"
   5:src/syscall_cpp.cpp **** #include "../h/syscall_c.hpp"
   6:src/syscall_cpp.cpp **** #include "../h/TCB.hpp"
   7:src/syscall_cpp.cpp **** #include "../h/KSem.hpp"
   8:src/syscall_cpp.cpp **** #include "../h/Scheduler.hpp"
   9:src/syscall_cpp.cpp **** 
  10:src/syscall_cpp.cpp **** int main();
  11:src/syscall_cpp.cpp **** 
  12:src/syscall_cpp.cpp **** //override globalnog new
  13:src/syscall_cpp.cpp **** void* operator new(size_t size) {
  14:src/syscall_cpp.cpp ****     return mem_alloc(size);
  15:src/syscall_cpp.cpp **** }
  16:src/syscall_cpp.cpp **** 
  17:src/syscall_cpp.cpp **** void* operator new[](size_t size) {
  18:src/syscall_cpp.cpp ****     return mem_alloc(size);
  19:src/syscall_cpp.cpp **** }
  20:src/syscall_cpp.cpp **** 
  21:src/syscall_cpp.cpp **** void operator delete(void* ptr)
  22:src/syscall_cpp.cpp **** 
  23:src/syscall_cpp.cpp **** noexcept {
  24:src/syscall_cpp.cpp **** mem_free(ptr);
  25:src/syscall_cpp.cpp **** }
GAS LISTING /tmp/cchcTNVL.s 			page 4


  26:src/syscall_cpp.cpp **** 
  27:src/syscall_cpp.cpp **** void operator delete[](void* ptr)
  28:src/syscall_cpp.cpp **** 
  29:src/syscall_cpp.cpp **** noexcept {
  30:src/syscall_cpp.cpp **** mem_free(ptr);
  31:src/syscall_cpp.cpp **** }
  32:src/syscall_cpp.cpp **** 
  33:src/syscall_cpp.cpp **** Thread::Thread(void (* body)(void*), void* arg) {
  34:src/syscall_cpp.cpp ****     this->body = body;
  35:src/syscall_cpp.cpp ****     this->arg = arg;
  36:src/syscall_cpp.cpp ****     //stvaranje steka ako se ne radi o main kernel niti, posto ona automatski ima stek
  37:src/syscall_cpp.cpp ****     uint64* stack = nullptr;
  38:src/syscall_cpp.cpp ****     if (body != (TCB::Body)main) {
  39:src/syscall_cpp.cpp ****         stack = (uint64*)mem_alloc(DEFAULT_STACK_SIZE);
  40:src/syscall_cpp.cpp ****     }
  41:src/syscall_cpp.cpp ****     //stavljanje argumenata za sistemski poziv
  42:src/syscall_cpp.cpp ****     __asm__ volatile("mv a4, %[sp]": :[sp] "r"(stack):"a5", "a0", "a1", "a2", "a3", "a4", "a6", "a7
  43:src/syscall_cpp.cpp ****     __asm__ volatile("mv a3, %[arg]": :[arg] "r"(arg):"a5", "a0", "a1", "a2", "a3", "a4", "a6", "a7
  44:src/syscall_cpp.cpp ****     __asm__ volatile("mv a2, %[function]": :[function] "r"(
  45:src/syscall_cpp.cpp ****             body):"a5", "a0", "a1", "a2", "a3", "a4", "a6", "a7");
  46:src/syscall_cpp.cpp ****     __asm__ volatile("mv a1, %[handle]": :[handle] "r"(&myHandle):"a5", "a0", "a1", "a2", "a3", "a4
  47:src/syscall_cpp.cpp ****     __asm__ volatile("li a0, 0x80");
  48:src/syscall_cpp.cpp ****     //a0 = 0x80
  49:src/syscall_cpp.cpp ****     //a1 = adresa pokazivaca na rucku niti
  50:src/syscall_cpp.cpp ****     //a2 = prva adresa funkcije koju nit izvrsava
  51:src/syscall_cpp.cpp ****     //a3 = pokazivac na argumente funkcije
  52:src/syscall_cpp.cpp ****     //a4 = pokazivac na najnizu adresu steka (stek raste ka nizim adresama, pokazuje na poslednju z
  53:src/syscall_cpp.cpp **** 
  54:src/syscall_cpp.cpp ****     __asm__ volatile("ecall");
  55:src/syscall_cpp.cpp **** }
  56:src/syscall_cpp.cpp **** 
  57:src/syscall_cpp.cpp **** Thread::~Thread() {
  58:src/syscall_cpp.cpp ****     //ne treba da se gasi running nit, vec nit na koju pokazuje rucka od this
  59:src/syscall_cpp.cpp ****     thread_join(this->myHandle);
  60:src/syscall_cpp.cpp ****     delete myHandle;
  61:src/syscall_cpp.cpp **** }
  62:src/syscall_cpp.cpp **** 
  63:src/syscall_cpp.cpp **** int Thread::start() {
  64:src/syscall_cpp.cpp ****     if (myHandle == nullptr) return -1;
  65:src/syscall_cpp.cpp ****     __asm__ volatile("mv a1, %[handle]": :[handle] "r"(myHandle):"a5", "a0", "a1", "a2", "a3", "a4"
  66:src/syscall_cpp.cpp ****     __asm__ volatile("li a0, 0x81");
  67:src/syscall_cpp.cpp **** 
  68:src/syscall_cpp.cpp ****     __asm__ volatile("ecall");
  69:src/syscall_cpp.cpp **** 
  70:src/syscall_cpp.cpp ****     return 0;
  71:src/syscall_cpp.cpp **** }
  72:src/syscall_cpp.cpp **** 
  73:src/syscall_cpp.cpp **** void Thread::join() {
  74:src/syscall_cpp.cpp ****     thread_join(myHandle);
  75:src/syscall_cpp.cpp **** }
  76:src/syscall_cpp.cpp **** 
  77:src/syscall_cpp.cpp **** void Thread::dispatch() {
  78:src/syscall_cpp.cpp ****     thread_dispatch();
  79:src/syscall_cpp.cpp **** }
  80:src/syscall_cpp.cpp **** 
  81:src/syscall_cpp.cpp **** int Thread::sleep(time_t t) {
  82:src/syscall_cpp.cpp ****     time_sleep(t);
GAS LISTING /tmp/cchcTNVL.s 			page 5


  83:src/syscall_cpp.cpp ****     return 0;
  84:src/syscall_cpp.cpp **** }
  85:src/syscall_cpp.cpp **** 
  86:src/syscall_cpp.cpp **** Thread::Thread() {
  87:src/syscall_cpp.cpp ****     this->body = wrapper;
  88:src/syscall_cpp.cpp ****     this->arg = this;
  89:src/syscall_cpp.cpp ****     uint64* stack = (uint64*)mem_alloc(DEFAULT_STACK_SIZE);
  90:src/syscall_cpp.cpp ****     //stavljanje argumenata za sistemski poziv
  91:src/syscall_cpp.cpp ****     __asm__ volatile("mv a4, %[sp]": :[sp] "r"(stack):"a5", "a0", "a1", "a2", "a3", "a4", "a6", "a7
  92:src/syscall_cpp.cpp ****     __asm__ volatile("mv a3, %[arg]": :[arg] "r"(arg):"a5", "a0", "a1", "a2", "a3", "a4", "a6", "a7
  93:src/syscall_cpp.cpp ****     __asm__ volatile("mv a2, %[function]": :[function] "r"(
  94:src/syscall_cpp.cpp ****             body):"a5", "a0", "a1", "a2", "a3", "a4", "a6", "a7");
  95:src/syscall_cpp.cpp ****     __asm__ volatile("mv a1, %[handle]": :[handle] "r"(&myHandle):"a5", "a0", "a1", "a2", "a3", "a4
  96:src/syscall_cpp.cpp ****     __asm__ volatile("li a0, 0x80");
  97:src/syscall_cpp.cpp ****     //a0 = 0x80
  98:src/syscall_cpp.cpp ****     //a1 = adresa pokazivaca na rucku niti
  99:src/syscall_cpp.cpp ****     //a2 = prva adresa funkcije koju nit izvrsava
 100:src/syscall_cpp.cpp ****     //a3 = pokazivac na argumente funkcije
 101:src/syscall_cpp.cpp ****     //a4 = pokazivac na najnizu adresu steka (stek raste ka nizim adresama, pokazuje na poslednju z
 102:src/syscall_cpp.cpp **** 
 103:src/syscall_cpp.cpp ****     __asm__ volatile("ecall");
 104:src/syscall_cpp.cpp **** }
 105:src/syscall_cpp.cpp **** 
 106:src/syscall_cpp.cpp **** void Thread::wrapper(void* thread) {
  64              		.loc 2 106 36 is_stmt 1
  65              		.cfi_startproc
  66              	.LVL2:
 107:src/syscall_cpp.cpp ****     if (thread != nullptr) {
  67              		.loc 2 107 5
  68 0000 63080502 		beqz	a0,.L8
 106:src/syscall_cpp.cpp ****     if (thread != nullptr) {
  69              		.loc 2 106 36 is_stmt 0
  70 0004 130101FF 		addi	sp,sp,-16
  71              		.cfi_def_cfa_offset 16
  72 0008 23341100 		sd	ra,8(sp)
  73 000c 23308100 		sd	s0,0(sp)
  74              		.cfi_offset 1, -8
  75              		.cfi_offset 8, -16
  76 0010 13040101 		addi	s0,sp,16
  77              		.cfi_def_cfa 8, 0
 108:src/syscall_cpp.cpp ****         ((Thread*)thread)->run();
  78              		.loc 2 108 9 is_stmt 1
  79              		.loc 2 108 32 is_stmt 0
  80 0014 83370500 		ld	a5,0(a0)
  81 0018 83B70701 		ld	a5,16(a5)
  82              		.loc 2 108 31
  83 001c E7800700 		jalr	a5
  84              	.LVL3:
 109:src/syscall_cpp.cpp ****     }
 110:src/syscall_cpp.cpp **** }
  85              		.loc 2 110 1
  86 0020 83308100 		ld	ra,8(sp)
  87              		.cfi_restore 1
  88 0024 03340100 		ld	s0,0(sp)
  89              		.cfi_restore 8
  90              		.cfi_def_cfa 2, 16
  91 0028 13010101 		addi	sp,sp,16
GAS LISTING /tmp/cchcTNVL.s 			page 6


  92              		.cfi_def_cfa_offset 0
  93 002c 67800000 		jr	ra
  94              	.LVL4:
  95              	.L8:
  96 0030 67800000 		ret
  97              		.cfi_endproc
  98              	.LFE55:
 100              		.align	2
 101              		.globl	_ZN6ThreadD2Ev
 103              	_ZN6ThreadD2Ev:
 104              	.LFB45:
  57:src/syscall_cpp.cpp ****     //ne treba da se gasi running nit, vec nit na koju pokazuje rucka od this
 105              		.loc 2 57 1 is_stmt 1
 106              		.cfi_startproc
 107              		.cfi_personality 0x9b,DW.ref.__gxx_personality_v0
 108              		.cfi_lsda 0x1b,.LLSDA45
 109              	.LVL5:
 110 0034 130101FE 		addi	sp,sp,-32
 111              		.cfi_def_cfa_offset 32
 112 0038 233C1100 		sd	ra,24(sp)
 113 003c 23388100 		sd	s0,16(sp)
 114 0040 23349100 		sd	s1,8(sp)
 115              		.cfi_offset 1, -8
 116              		.cfi_offset 8, -16
 117              		.cfi_offset 9, -24
 118 0044 13040102 		addi	s0,sp,32
 119              		.cfi_def_cfa 8, 0
 120 0048 93040500 		mv	s1,a0
 121              	.LBB54:
  57:src/syscall_cpp.cpp ****     //ne treba da se gasi running nit, vec nit na koju pokazuje rucka od this
 122              		.loc 2 57 17 is_stmt 0
 123 004c 97070000 		lla	a5,_ZTV6Thread+16
 123      93870700 
 124 0054 2330F500 		sd	a5,0(a0)
  59:src/syscall_cpp.cpp ****     delete myHandle;
 125              		.loc 2 59 5 is_stmt 1
  59:src/syscall_cpp.cpp ****     delete myHandle;
 126              		.loc 2 59 16 is_stmt 0
 127 0058 03358500 		ld	a0,8(a0)
 128              	.LVL6:
 129 005c 97000000 		call	_Z11thread_joinP3TCB@plt
 129      E7800000 
 130              	.LVL7:
  60:src/syscall_cpp.cpp **** }
 131              		.loc 2 60 5 is_stmt 1
  60:src/syscall_cpp.cpp **** }
 132              		.loc 2 60 12 is_stmt 0
 133 0064 83B48400 		ld	s1,8(s1)
 134              	.LVL8:
  60:src/syscall_cpp.cpp **** }
 135              		.loc 2 60 20
 136 0068 63880402 		beqz	s1,.L11
 137              	.L14:
 138              	.LBB55:
 139              	.LBB56:
 140              	.LBB57:
 141              		.file 3 "src/../h/../h/ThreadQueue.hpp"
GAS LISTING /tmp/cchcTNVL.s 			page 7


   1:src/../h/../h/ThreadQueue.hpp **** //
   2:src/../h/../h/ThreadQueue.hpp **** // Created by os on 6/4/23.
   3:src/../h/../h/ThreadQueue.hpp **** //
   4:src/../h/../h/ThreadQueue.hpp **** 
   5:src/../h/../h/ThreadQueue.hpp **** #ifndef PROJEKAT2023_THREADQUEUE_HPP
   6:src/../h/../h/ThreadQueue.hpp **** #define PROJEKAT2023_THREADQUEUE_HPP
   7:src/../h/../h/ThreadQueue.hpp **** 
   8:src/../h/../h/ThreadQueue.hpp **** #include "../h/syscall_c.hpp"
   9:src/../h/../h/ThreadQueue.hpp **** 
  10:src/../h/../h/ThreadQueue.hpp **** class TCB;
  11:src/../h/../h/ThreadQueue.hpp **** 
  12:src/../h/../h/ThreadQueue.hpp **** class ThreadQueue {
  13:src/../h/../h/ThreadQueue.hpp **** private:
  14:src/../h/../h/ThreadQueue.hpp ****     struct Node {
  15:src/../h/../h/ThreadQueue.hpp ****         TCB* data;
  16:src/../h/../h/ThreadQueue.hpp ****         Node* next;
  17:src/../h/../h/ThreadQueue.hpp **** 
  18:src/../h/../h/ThreadQueue.hpp ****         Node(TCB* d) : data(d), next(nullptr) {}
  19:src/../h/../h/ThreadQueue.hpp **** 
  20:src/../h/../h/ThreadQueue.hpp ****         static void* operator new(size_t size) {
  21:src/../h/../h/ThreadQueue.hpp ****             return mem_alloc(size);
  22:src/../h/../h/ThreadQueue.hpp ****         }
  23:src/../h/../h/ThreadQueue.hpp **** 
  24:src/../h/../h/ThreadQueue.hpp ****         static void operator delete(void* ptr) {
  25:src/../h/../h/ThreadQueue.hpp ****             mem_free(ptr);
  26:src/../h/../h/ThreadQueue.hpp ****         }
  27:src/../h/../h/ThreadQueue.hpp ****     };
  28:src/../h/../h/ThreadQueue.hpp **** 
  29:src/../h/../h/ThreadQueue.hpp ****     Node* front;
  30:src/../h/../h/ThreadQueue.hpp ****     Node* back;
  31:src/../h/../h/ThreadQueue.hpp **** 
  32:src/../h/../h/ThreadQueue.hpp **** public:
  33:src/../h/../h/ThreadQueue.hpp ****     ThreadQueue() : front(nullptr), back(nullptr) {}
  34:src/../h/../h/ThreadQueue.hpp **** 
  35:src/../h/../h/ThreadQueue.hpp ****     ThreadQueue(const ThreadQueue &) = delete;
  36:src/../h/../h/ThreadQueue.hpp **** 
  37:src/../h/../h/ThreadQueue.hpp ****     ThreadQueue &operator=(const ThreadQueue &) = delete;
  38:src/../h/../h/ThreadQueue.hpp **** 
  39:src/../h/../h/ThreadQueue.hpp ****     ~ThreadQueue() {
  40:src/../h/../h/ThreadQueue.hpp ****         while (!isEmpty()) {
 142              		.loc 3 40 9 is_stmt 1
 143              		.loc 3 40 16
 144              	.LVL9:
 145              	.LBB58:
 146              	.LBB59:
  41:src/../h/../h/ThreadQueue.hpp ****             Node* node = front;
  42:src/../h/../h/ThreadQueue.hpp ****             front = front->next;
  43:src/../h/../h/ThreadQueue.hpp ****             delete node;
  44:src/../h/../h/ThreadQueue.hpp ****         }
  45:src/../h/../h/ThreadQueue.hpp ****     }
  46:src/../h/../h/ThreadQueue.hpp **** 
  47:src/../h/../h/ThreadQueue.hpp ****     bool isEmpty() const {
  48:src/../h/../h/ThreadQueue.hpp ****         return front == nullptr;
 147              		.loc 3 48 9
 148              		.loc 3 48 16 is_stmt 0
 149 006c 03B58404 		ld	a0,72(s1)
 150              	.LBE59:
GAS LISTING /tmp/cchcTNVL.s 			page 8


 151              	.LBE58:
  40:src/../h/../h/ThreadQueue.hpp ****             Node* node = front;
 152              		.loc 3 40 16
 153 0070 630E0500 		beqz	a0,.L13
 154              	.LBB60:
  41:src/../h/../h/ThreadQueue.hpp ****             Node* node = front;
 155              		.loc 3 41 13 is_stmt 1
 156              	.LVL10:
  42:src/../h/../h/ThreadQueue.hpp ****             delete node;
 157              		.loc 3 42 13
  42:src/../h/../h/ThreadQueue.hpp ****             delete node;
 158              		.loc 3 42 28 is_stmt 0
 159 0074 83378500 		ld	a5,8(a0)
  42:src/../h/../h/ThreadQueue.hpp ****             delete node;
 160              		.loc 3 42 19
 161 0078 23B4F404 		sd	a5,72(s1)
  43:src/../h/../h/ThreadQueue.hpp ****         }
 162              		.loc 3 43 13 is_stmt 1
  43:src/../h/../h/ThreadQueue.hpp ****         }
 163              		.loc 3 43 24 is_stmt 0
 164 007c E30805FE 		beqz	a0,.L14
 165              	.LVL11:
 166              	.LBB61:
 167              	.LBB62:
  25:src/../h/../h/ThreadQueue.hpp ****         }
 168              		.loc 3 25 13 is_stmt 1
  25:src/../h/../h/ThreadQueue.hpp ****         }
 169              		.loc 3 25 21 is_stmt 0
 170 0080 97000000 		call	_Z8mem_freePv@plt
 170      E7800000 
 171              	.LVL12:
  26:src/../h/../h/ThreadQueue.hpp ****     };
 172              		.loc 3 26 9
 173 0088 6FF05FFE 		j	.L14
 174              	.L13:
 175              	.LBE62:
 176              	.LBE61:
 177              	.LBE60:
 178              	.LBE57:
 179              	.LBE56:
 180              	.LBE55:
  60:src/syscall_cpp.cpp **** }
 181              		.loc 2 60 12
 182 008c 13850400 		mv	a0,s1
 183 0090 97000000 		call	_ZN3TCBdlEPv@plt
 183      E7800000 
 184              	.LVL13:
 185              	.L11:
 186              	.LBE54:
  61:src/syscall_cpp.cpp **** 
 187              		.loc 2 61 1
 188 0098 83308101 		ld	ra,24(sp)
 189              		.cfi_restore 1
 190 009c 03340101 		ld	s0,16(sp)
 191              		.cfi_restore 8
 192              		.cfi_def_cfa 2, 32
 193 00a0 83348100 		ld	s1,8(sp)
GAS LISTING /tmp/cchcTNVL.s 			page 9


 194              		.cfi_restore 9
 195 00a4 13010102 		addi	sp,sp,32
 196              		.cfi_def_cfa_offset 0
 197 00a8 67800000 		jr	ra
 198              		.cfi_endproc
 199              	.LFE45:
 200              		.globl	__gxx_personality_v0
 201              		.section	.gcc_except_table,"a",@progbits
 202              	.LLSDA45:
 203 0000 FF       		.byte	0xff
 204 0001 FF       		.byte	0xff
 205 0002 03       		.byte	0x3
 206 0003 00       		.byte	0
 207              		.text
 209              		.globl	_ZN6ThreadD1Ev
 210              		.set	_ZN6ThreadD1Ev,_ZN6ThreadD2Ev
 211              		.section	.text._ZN14PeriodicThreadD2Ev,"axG",@progbits,_ZN14PeriodicThreadD5Ev,comdat
 212              		.align	2
 213              		.weak	_ZN14PeriodicThreadD2Ev
 215              	_ZN14PeriodicThreadD2Ev:
 216              	.LFB76:
  81:src/../h/syscall_cpp.hpp **** public:
 217              		.loc 1 81 7 is_stmt 1
 218              		.cfi_startproc
 219              	.LVL14:
 220 0000 130101FF 		addi	sp,sp,-16
 221              		.cfi_def_cfa_offset 16
 222 0004 23341100 		sd	ra,8(sp)
 223 0008 23308100 		sd	s0,0(sp)
 224              		.cfi_offset 1, -8
 225              		.cfi_offset 8, -16
 226 000c 13040101 		addi	s0,sp,16
 227              		.cfi_def_cfa 8, 0
 228              	.LBB63:
  81:src/../h/syscall_cpp.hpp **** public:
 229              		.loc 1 81 7 is_stmt 0
 230 0010 97070000 		lla	a5,_ZTV14PeriodicThread+16
 230      93870700 
 231 0018 2330F500 		sd	a5,0(a0)
 232 001c 97000000 		call	_ZN6ThreadD2Ev
 232      E7800000 
 233              	.LVL15:
 234              	.LBE63:
 235 0024 83308100 		ld	ra,8(sp)
 236              		.cfi_restore 1
 237 0028 03340100 		ld	s0,0(sp)
 238              		.cfi_restore 8
 239              		.cfi_def_cfa 2, 16
 240 002c 13010101 		addi	sp,sp,16
 241              		.cfi_def_cfa_offset 0
 242 0030 67800000 		jr	ra
 243              		.cfi_endproc
 244              	.LFE76:
 246              		.weak	_ZN14PeriodicThreadD1Ev
 247              		.set	_ZN14PeriodicThreadD1Ev,_ZN14PeriodicThreadD2Ev
 248              		.text
 249              		.align	2
GAS LISTING /tmp/cchcTNVL.s 			page 10


 250              		.globl	_ZN9SemaphoreD2Ev
 252              	_ZN9SemaphoreD2Ev:
 253              	.LFB63:
 111:src/syscall_cpp.cpp **** 
 112:src/syscall_cpp.cpp **** Semaphore::Semaphore(unsigned int init) {
 113:src/syscall_cpp.cpp ****     sem_open(&myHandle, init);
 114:src/syscall_cpp.cpp **** }
 115:src/syscall_cpp.cpp **** 
 116:src/syscall_cpp.cpp **** Semaphore::~Semaphore() {
 254              		.loc 2 116 1 is_stmt 1
 255              		.cfi_startproc
 256              		.cfi_personality 0x9b,DW.ref.__gxx_personality_v0
 257              		.cfi_lsda 0x1b,.LLSDA63
 258              	.LVL16:
 259 00ac 130101FE 		addi	sp,sp,-32
 260              		.cfi_def_cfa_offset 32
 261 00b0 233C1100 		sd	ra,24(sp)
 262 00b4 23388100 		sd	s0,16(sp)
 263 00b8 23349100 		sd	s1,8(sp)
 264              		.cfi_offset 1, -8
 265              		.cfi_offset 8, -16
 266              		.cfi_offset 9, -24
 267 00bc 13040102 		addi	s0,sp,32
 268              		.cfi_def_cfa 8, 0
 269 00c0 93040500 		mv	s1,a0
 270              	.LBB64:
 271              		.loc 2 116 23 is_stmt 0
 272 00c4 97070000 		lla	a5,_ZTV9Semaphore+16
 272      93870700 
 273 00cc 2330F500 		sd	a5,0(a0)
 117:src/syscall_cpp.cpp ****     sem_close(myHandle);
 274              		.loc 2 117 5 is_stmt 1
 275              		.loc 2 117 14 is_stmt 0
 276 00d0 03358500 		ld	a0,8(a0)
 277              	.LVL17:
 278 00d4 97000000 		call	_Z9sem_closeP4KSem@plt
 278      E7800000 
 279              	.LVL18:
 118:src/syscall_cpp.cpp ****     delete myHandle;
 280              		.loc 2 118 5 is_stmt 1
 281              		.loc 2 118 12 is_stmt 0
 282 00dc 83B48400 		ld	s1,8(s1)
 283              	.LVL19:
 284              		.loc 2 118 20
 285 00e0 63880402 		beqz	s1,.L19
 286              	.L22:
 287              	.LBB65:
 288              	.LBB66:
 289              	.LBB67:
  40:src/../h/../h/ThreadQueue.hpp ****             Node* node = front;
 290              		.loc 3 40 9 is_stmt 1
  40:src/../h/../h/ThreadQueue.hpp ****             Node* node = front;
 291              		.loc 3 40 16
 292              	.LVL20:
 293              	.LBB68:
 294              	.LBB69:
 295              		.loc 3 48 9
GAS LISTING /tmp/cchcTNVL.s 			page 11


 296              		.loc 3 48 16 is_stmt 0
 297 00e4 03B58400 		ld	a0,8(s1)
 298              	.LBE69:
 299              	.LBE68:
  40:src/../h/../h/ThreadQueue.hpp ****             Node* node = front;
 300              		.loc 3 40 16
 301 00e8 630E0500 		beqz	a0,.L21
 302              	.LBB70:
  41:src/../h/../h/ThreadQueue.hpp ****             front = front->next;
 303              		.loc 3 41 13 is_stmt 1
 304              	.LVL21:
  42:src/../h/../h/ThreadQueue.hpp ****             delete node;
 305              		.loc 3 42 13
  42:src/../h/../h/ThreadQueue.hpp ****             delete node;
 306              		.loc 3 42 28 is_stmt 0
 307 00ec 83378500 		ld	a5,8(a0)
  42:src/../h/../h/ThreadQueue.hpp ****             delete node;
 308              		.loc 3 42 19
 309 00f0 23B4F400 		sd	a5,8(s1)
  43:src/../h/../h/ThreadQueue.hpp ****         }
 310              		.loc 3 43 13 is_stmt 1
  43:src/../h/../h/ThreadQueue.hpp ****         }
 311              		.loc 3 43 24 is_stmt 0
 312 00f4 E30805FE 		beqz	a0,.L22
 313              	.LVL22:
 314              	.LBB71:
 315              	.LBB72:
  25:src/../h/../h/ThreadQueue.hpp ****         }
 316              		.loc 3 25 13 is_stmt 1
  25:src/../h/../h/ThreadQueue.hpp ****         }
 317              		.loc 3 25 21 is_stmt 0
 318 00f8 97000000 		call	_Z8mem_freePv@plt
 318      E7800000 
 319              	.LVL23:
  26:src/../h/../h/ThreadQueue.hpp ****     };
 320              		.loc 3 26 9
 321 0100 6FF05FFE 		j	.L22
 322              	.L21:
 323              	.LBE72:
 324              	.LBE71:
 325              	.LBE70:
 326              	.LBE67:
 327              	.LBE66:
 328              	.LBE65:
 329              		.loc 2 118 12
 330 0104 13850400 		mv	a0,s1
 331 0108 97000000 		call	_ZN4KSemdlEPv@plt
 331      E7800000 
 332              	.LVL24:
 333              	.L19:
 334              	.LBE64:
 119:src/syscall_cpp.cpp **** }
 335              		.loc 2 119 1
 336 0110 83308101 		ld	ra,24(sp)
 337              		.cfi_restore 1
 338 0114 03340101 		ld	s0,16(sp)
 339              		.cfi_restore 8
GAS LISTING /tmp/cchcTNVL.s 			page 12


 340              		.cfi_def_cfa 2, 32
 341 0118 83348100 		ld	s1,8(sp)
 342              		.cfi_restore 9
 343 011c 13010102 		addi	sp,sp,32
 344              		.cfi_def_cfa_offset 0
 345 0120 67800000 		jr	ra
 346              		.cfi_endproc
 347              	.LFE63:
 348              		.section	.gcc_except_table
 349              	.LLSDA63:
 350 0004 FF       		.byte	0xff
 351 0005 FF       		.byte	0xff
 352 0006 03       		.byte	0x3
 353 0007 00       		.byte	0
 354              		.text
 356              		.globl	_ZN9SemaphoreD1Ev
 357              		.set	_ZN9SemaphoreD1Ev,_ZN9SemaphoreD2Ev
 358              		.align	2
 359              		.globl	_Znwm
 361              	_Znwm:
 362              	.LFB34:
  13:src/syscall_cpp.cpp ****     return mem_alloc(size);
 363              		.loc 2 13 33 is_stmt 1
 364              		.cfi_startproc
 365              	.LVL25:
 366 0124 130101FF 		addi	sp,sp,-16
 367              		.cfi_def_cfa_offset 16
 368 0128 23341100 		sd	ra,8(sp)
 369 012c 23308100 		sd	s0,0(sp)
 370              		.cfi_offset 1, -8
 371              		.cfi_offset 8, -16
 372 0130 13040101 		addi	s0,sp,16
 373              		.cfi_def_cfa 8, 0
  14:src/syscall_cpp.cpp **** }
 374              		.loc 2 14 5
  14:src/syscall_cpp.cpp **** }
 375              		.loc 2 14 21 is_stmt 0
 376 0134 97000000 		call	_Z9mem_allocm@plt
 376      E7800000 
 377              	.LVL26:
  15:src/syscall_cpp.cpp **** 
 378              		.loc 2 15 1
 379 013c 83308100 		ld	ra,8(sp)
 380              		.cfi_restore 1
 381 0140 03340100 		ld	s0,0(sp)
 382              		.cfi_restore 8
 383              		.cfi_def_cfa 2, 16
 384 0144 13010101 		addi	sp,sp,16
 385              		.cfi_def_cfa_offset 0
 386 0148 67800000 		jr	ra
 387              		.cfi_endproc
 388              	.LFE34:
 390              		.align	2
 391              		.globl	_Znam
 393              	_Znam:
 394              	.LFB35:
  17:src/syscall_cpp.cpp ****     return mem_alloc(size);
GAS LISTING /tmp/cchcTNVL.s 			page 13


 395              		.loc 2 17 35 is_stmt 1
 396              		.cfi_startproc
 397              	.LVL27:
 398 014c 130101FF 		addi	sp,sp,-16
 399              		.cfi_def_cfa_offset 16
 400 0150 23341100 		sd	ra,8(sp)
 401 0154 23308100 		sd	s0,0(sp)
 402              		.cfi_offset 1, -8
 403              		.cfi_offset 8, -16
 404 0158 13040101 		addi	s0,sp,16
 405              		.cfi_def_cfa 8, 0
  18:src/syscall_cpp.cpp **** }
 406              		.loc 2 18 5
  18:src/syscall_cpp.cpp **** }
 407              		.loc 2 18 21 is_stmt 0
 408 015c 97000000 		call	_Z9mem_allocm@plt
 408      E7800000 
 409              	.LVL28:
  19:src/syscall_cpp.cpp **** 
 410              		.loc 2 19 1
 411 0164 83308100 		ld	ra,8(sp)
 412              		.cfi_restore 1
 413 0168 03340100 		ld	s0,0(sp)
 414              		.cfi_restore 8
 415              		.cfi_def_cfa 2, 16
 416 016c 13010101 		addi	sp,sp,16
 417              		.cfi_def_cfa_offset 0
 418 0170 67800000 		jr	ra
 419              		.cfi_endproc
 420              	.LFE35:
 422              		.align	2
 423              		.globl	_ZdlPv
 425              	_ZdlPv:
 426              	.LFB36:
  23:src/syscall_cpp.cpp **** mem_free(ptr);
 427              		.loc 2 23 10 is_stmt 1
 428              		.cfi_startproc
 429              		.cfi_personality 0x9b,DW.ref.__gxx_personality_v0
 430              		.cfi_lsda 0x1b,.LLSDA36
 431              	.LVL29:
 432 0174 130101FF 		addi	sp,sp,-16
 433              		.cfi_def_cfa_offset 16
 434 0178 23341100 		sd	ra,8(sp)
 435 017c 23308100 		sd	s0,0(sp)
 436              		.cfi_offset 1, -8
 437              		.cfi_offset 8, -16
 438 0180 13040101 		addi	s0,sp,16
 439              		.cfi_def_cfa 8, 0
  24:src/syscall_cpp.cpp **** }
 440              		.loc 2 24 1
  24:src/syscall_cpp.cpp **** }
 441              		.loc 2 24 9 is_stmt 0
 442 0184 97000000 		call	_Z8mem_freePv@plt
 442      E7800000 
 443              	.LVL30:
  25:src/syscall_cpp.cpp **** 
 444              		.loc 2 25 1
GAS LISTING /tmp/cchcTNVL.s 			page 14


 445 018c 83308100 		ld	ra,8(sp)
 446              		.cfi_restore 1
 447 0190 03340100 		ld	s0,0(sp)
 448              		.cfi_restore 8
 449              		.cfi_def_cfa 2, 16
 450 0194 13010101 		addi	sp,sp,16
 451              		.cfi_def_cfa_offset 0
 452 0198 67800000 		jr	ra
 453              		.cfi_endproc
 454              	.LFE36:
 455              		.section	.gcc_except_table
 456              	.LLSDA36:
 457 0008 FF       		.byte	0xff
 458 0009 FF       		.byte	0xff
 459 000a 03       		.byte	0x3
 460 000b 00       		.byte	0
 461              		.text
 463              		.align	2
 464              		.globl	_ZN6ThreadD0Ev
 466              	_ZN6ThreadD0Ev:
 467              	.LFB47:
  57:src/syscall_cpp.cpp ****     //ne treba da se gasi running nit, vec nit na koju pokazuje rucka od this
 468              		.loc 2 57 1 is_stmt 1
 469              		.cfi_startproc
 470              	.LVL31:
 471 019c 130101FE 		addi	sp,sp,-32
 472              		.cfi_def_cfa_offset 32
 473 01a0 233C1100 		sd	ra,24(sp)
 474 01a4 23388100 		sd	s0,16(sp)
 475 01a8 23349100 		sd	s1,8(sp)
 476              		.cfi_offset 1, -8
 477              		.cfi_offset 8, -16
 478              		.cfi_offset 9, -24
 479 01ac 13040102 		addi	s0,sp,32
 480              		.cfi_def_cfa 8, 0
 481 01b0 93040500 		mv	s1,a0
  61:src/syscall_cpp.cpp **** 
 482              		.loc 2 61 1 is_stmt 0
 483 01b4 97000000 		call	_ZN6ThreadD1Ev
 483      E7800000 
 484              	.LVL32:
 485 01bc 13850400 		mv	a0,s1
 486 01c0 97000000 		call	_ZdlPv
 486      E7800000 
 487              	.LVL33:
 488 01c8 83308101 		ld	ra,24(sp)
 489              		.cfi_restore 1
 490 01cc 03340101 		ld	s0,16(sp)
 491              		.cfi_restore 8
 492              		.cfi_def_cfa 2, 32
 493 01d0 83348100 		ld	s1,8(sp)
 494              		.cfi_restore 9
 495              	.LVL34:
 496 01d4 13010102 		addi	sp,sp,32
 497              		.cfi_def_cfa_offset 0
 498 01d8 67800000 		jr	ra
 499              		.cfi_endproc
GAS LISTING /tmp/cchcTNVL.s 			page 15


 500              	.LFE47:
 502              		.section	.text._ZN14PeriodicThreadD0Ev,"axG",@progbits,_ZN14PeriodicThreadD5Ev,comdat
 503              		.align	2
 504              		.weak	_ZN14PeriodicThreadD0Ev
 506              	_ZN14PeriodicThreadD0Ev:
 507              	.LFB78:
  81:src/../h/syscall_cpp.hpp **** public:
 508              		.loc 1 81 7 is_stmt 1
 509              		.cfi_startproc
 510              	.LVL35:
 511 0000 130101FE 		addi	sp,sp,-32
 512              		.cfi_def_cfa_offset 32
 513 0004 233C1100 		sd	ra,24(sp)
 514 0008 23388100 		sd	s0,16(sp)
 515 000c 23349100 		sd	s1,8(sp)
 516              		.cfi_offset 1, -8
 517              		.cfi_offset 8, -16
 518              		.cfi_offset 9, -24
 519 0010 13040102 		addi	s0,sp,32
 520              		.cfi_def_cfa 8, 0
 521 0014 93040500 		mv	s1,a0
 522              	.LVL36:
 523              	.LBB73:
 524              	.LBB74:
  81:src/../h/syscall_cpp.hpp **** public:
 525              		.loc 1 81 7 is_stmt 0
 526 0018 97070000 		lla	a5,_ZTV14PeriodicThread+16
 526      93870700 
 527 0020 2330F500 		sd	a5,0(a0)
 528 0024 97000000 		call	_ZN6ThreadD2Ev
 528      E7800000 
 529              	.LVL37:
 530              	.LBE74:
 531              	.LBE73:
 532 002c 13850400 		mv	a0,s1
 533 0030 97000000 		call	_ZdlPv
 533      E7800000 
 534              	.LVL38:
 535 0038 83308101 		ld	ra,24(sp)
 536              		.cfi_restore 1
 537 003c 03340101 		ld	s0,16(sp)
 538              		.cfi_restore 8
 539              		.cfi_def_cfa 2, 32
 540 0040 83348100 		ld	s1,8(sp)
 541              		.cfi_restore 9
 542              	.LVL39:
 543 0044 13010102 		addi	sp,sp,32
 544              		.cfi_def_cfa_offset 0
 545 0048 67800000 		jr	ra
 546              		.cfi_endproc
 547              	.LFE78:
 549              		.text
 550              		.align	2
 551              		.globl	_ZN9SemaphoreD0Ev
 553              	_ZN9SemaphoreD0Ev:
 554              	.LFB65:
 116:src/syscall_cpp.cpp ****     sem_close(myHandle);
GAS LISTING /tmp/cchcTNVL.s 			page 16


 555              		.loc 2 116 1 is_stmt 1
 556              		.cfi_startproc
 557              	.LVL40:
 558 01dc 130101FE 		addi	sp,sp,-32
 559              		.cfi_def_cfa_offset 32
 560 01e0 233C1100 		sd	ra,24(sp)
 561 01e4 23388100 		sd	s0,16(sp)
 562 01e8 23349100 		sd	s1,8(sp)
 563              		.cfi_offset 1, -8
 564              		.cfi_offset 8, -16
 565              		.cfi_offset 9, -24
 566 01ec 13040102 		addi	s0,sp,32
 567              		.cfi_def_cfa 8, 0
 568 01f0 93040500 		mv	s1,a0
 569              		.loc 2 119 1 is_stmt 0
 570 01f4 97000000 		call	_ZN9SemaphoreD1Ev
 570      E7800000 
 571              	.LVL41:
 572 01fc 13850400 		mv	a0,s1
 573 0200 97000000 		call	_ZdlPv
 573      E7800000 
 574              	.LVL42:
 575 0208 83308101 		ld	ra,24(sp)
 576              		.cfi_restore 1
 577 020c 03340101 		ld	s0,16(sp)
 578              		.cfi_restore 8
 579              		.cfi_def_cfa 2, 32
 580 0210 83348100 		ld	s1,8(sp)
 581              		.cfi_restore 9
 582              	.LVL43:
 583 0214 13010102 		addi	sp,sp,32
 584              		.cfi_def_cfa_offset 0
 585 0218 67800000 		jr	ra
 586              		.cfi_endproc
 587              	.LFE65:
 589              		.align	2
 590              		.globl	_ZdaPv
 592              	_ZdaPv:
 593              	.LFB37:
  29:src/syscall_cpp.cpp **** mem_free(ptr);
 594              		.loc 2 29 10 is_stmt 1
 595              		.cfi_startproc
 596              		.cfi_personality 0x9b,DW.ref.__gxx_personality_v0
 597              		.cfi_lsda 0x1b,.LLSDA37
 598              	.LVL44:
 599 021c 130101FF 		addi	sp,sp,-16
 600              		.cfi_def_cfa_offset 16
 601 0220 23341100 		sd	ra,8(sp)
 602 0224 23308100 		sd	s0,0(sp)
 603              		.cfi_offset 1, -8
 604              		.cfi_offset 8, -16
 605 0228 13040101 		addi	s0,sp,16
 606              		.cfi_def_cfa 8, 0
  30:src/syscall_cpp.cpp **** }
 607              		.loc 2 30 1
  30:src/syscall_cpp.cpp **** }
 608              		.loc 2 30 9 is_stmt 0
GAS LISTING /tmp/cchcTNVL.s 			page 17


 609 022c 97000000 		call	_Z8mem_freePv@plt
 609      E7800000 
 610              	.LVL45:
  31:src/syscall_cpp.cpp **** 
 611              		.loc 2 31 1
 612 0234 83308100 		ld	ra,8(sp)
 613              		.cfi_restore 1
 614 0238 03340100 		ld	s0,0(sp)
 615              		.cfi_restore 8
 616              		.cfi_def_cfa 2, 16
 617 023c 13010101 		addi	sp,sp,16
 618              		.cfi_def_cfa_offset 0
 619 0240 67800000 		jr	ra
 620              		.cfi_endproc
 621              	.LFE37:
 622              		.section	.gcc_except_table
 623              	.LLSDA37:
 624 000c FF       		.byte	0xff
 625 000d FF       		.byte	0xff
 626 000e 03       		.byte	0x3
 627 000f 00       		.byte	0
 628              		.text
 630              		.align	2
 631              		.globl	_ZN6ThreadC2EPFvPvES0_
 633              	_ZN6ThreadC2EPFvPvES0_:
 634              	.LFB39:
  33:src/syscall_cpp.cpp ****     this->body = body;
 635              		.loc 2 33 1 is_stmt 1
 636              		.cfi_startproc
 637              	.LVL46:
 638 0244 130101FD 		addi	sp,sp,-48
 639              		.cfi_def_cfa_offset 48
 640 0248 23341102 		sd	ra,40(sp)
 641 024c 23308102 		sd	s0,32(sp)
 642 0250 233C9100 		sd	s1,24(sp)
 643 0254 23382101 		sd	s2,16(sp)
 644 0258 23343101 		sd	s3,8(sp)
 645              		.cfi_offset 1, -8
 646              		.cfi_offset 8, -16
 647              		.cfi_offset 9, -24
 648              		.cfi_offset 18, -32
 649              		.cfi_offset 19, -40
 650 025c 13040103 		addi	s0,sp,48
 651              		.cfi_def_cfa 8, 0
 652 0260 93040500 		mv	s1,a0
 653 0264 13890500 		mv	s2,a1
 654 0268 93090600 		mv	s3,a2
 655              	.LBB75:
  33:src/syscall_cpp.cpp ****     this->body = body;
 656              		.loc 2 33 47 is_stmt 0
 657 026c 97070000 		lla	a5,_ZTV6Thread+16
 657      93870700 
 658 0274 2330F500 		sd	a5,0(a0)
 659              	.LBB76:
  34:src/syscall_cpp.cpp ****     this->arg = arg;
 660              		.loc 2 34 5 is_stmt 1
  34:src/syscall_cpp.cpp ****     this->arg = arg;
GAS LISTING /tmp/cchcTNVL.s 			page 18


 661              		.loc 2 34 16 is_stmt 0
 662 0278 2338B500 		sd	a1,16(a0)
  35:src/syscall_cpp.cpp ****     //stvaranje steka ako se ne radi o main kernel niti, posto ona automatski ima stek
 663              		.loc 2 35 5 is_stmt 1
  35:src/syscall_cpp.cpp ****     //stvaranje steka ako se ne radi o main kernel niti, posto ona automatski ima stek
 664              		.loc 2 35 15 is_stmt 0
 665 027c 233CC500 		sd	a2,24(a0)
  37:src/syscall_cpp.cpp ****     if (body != (TCB::Body)main) {
 666              		.loc 2 37 5 is_stmt 1
 667              	.LVL47:
  38:src/syscall_cpp.cpp ****         stack = (uint64*)mem_alloc(DEFAULT_STACK_SIZE);
 668              		.loc 2 38 5
 669 0280 97070000 		la	a5,main
 669      83B70700 
 670 0288 6386F504 		beq	a1,a5,.L41
  39:src/syscall_cpp.cpp ****     }
 671              		.loc 2 39 9
  39:src/syscall_cpp.cpp ****     }
 672              		.loc 2 39 35 is_stmt 0
 673 028c 37150000 		li	a0,4096
 674              	.LVL48:
 675 0290 97000000 		call	_Z9mem_allocm@plt
 675      E7800000 
 676              	.LVL49:
 677 0298 13030500 		mv	t1,a0
 678              	.LVL50:
 679              	.L40:
  42:src/syscall_cpp.cpp ****     __asm__ volatile("mv a3, %[arg]": :[arg] "r"(arg):"a5", "a0", "a1", "a2", "a3", "a4", "a6", "a7
 680              		.loc 2 42 5 is_stmt 1
  42:src/syscall_cpp.cpp ****     __asm__ volatile("mv a3, %[arg]": :[arg] "r"(arg):"a5", "a0", "a1", "a2", "a3", "a4", "a6", "a7
 681              		.loc 2 42 102 is_stmt 0
 682              	#APP
 683              	# 42 "src/syscall_cpp.cpp" 1
  43:src/syscall_cpp.cpp ****     __asm__ volatile("mv a2, %[function]": :[function] "r"(
 684              		mv a4, t1
 685              	# 0 "" 2
 686              		.loc 2 43 5 is_stmt 1
  43:src/syscall_cpp.cpp ****     __asm__ volatile("mv a2, %[function]": :[function] "r"(
 687              		.loc 2 43 102 is_stmt 0
 688              	# 43 "src/syscall_cpp.cpp" 1
  44:src/syscall_cpp.cpp ****             body):"a5", "a0", "a1", "a2", "a3", "a4", "a6", "a7");
 689              		mv a3, s3
 690              	# 0 "" 2
 691              		.loc 2 44 5 is_stmt 1
  45:src/syscall_cpp.cpp ****     __asm__ volatile("mv a1, %[handle]": :[handle] "r"(&myHandle):"a5", "a0", "a1", "a2", "a3", "a4
 692              		.loc 2 45 66 is_stmt 0
 693              	# 45 "src/syscall_cpp.cpp" 1
  46:src/syscall_cpp.cpp ****     __asm__ volatile("li a0, 0x80");
 694              		mv a2, s2
 695              	# 0 "" 2
 696              		.loc 2 46 5 is_stmt 1
  46:src/syscall_cpp.cpp ****     __asm__ volatile("li a0, 0x80");
 697              		.loc 2 46 56 is_stmt 0
 698              	#NO_APP
 699 02a8 93848400 		addi	s1,s1,8
 700              	.LVL51:
  46:src/syscall_cpp.cpp ****     __asm__ volatile("li a0, 0x80");
GAS LISTING /tmp/cchcTNVL.s 			page 19


 701              		.loc 2 46 114
 702              	#APP
 703              	# 46 "src/syscall_cpp.cpp" 1
  47:src/syscall_cpp.cpp ****     //a0 = 0x80
 704              		mv a1, s1
 705              	# 0 "" 2
 706              		.loc 2 47 5 is_stmt 1
  47:src/syscall_cpp.cpp ****     //a0 = 0x80
 707              		.loc 2 47 36 is_stmt 0
 708              	# 47 "src/syscall_cpp.cpp" 1
  54:src/syscall_cpp.cpp **** }
 709              		li a0, 0x80
 710              	# 0 "" 2
 711              		.loc 2 54 5 is_stmt 1
  54:src/syscall_cpp.cpp **** }
 712              		.loc 2 54 30 is_stmt 0
 713              	# 54 "src/syscall_cpp.cpp" 1
 714              		ecall
 715              	# 0 "" 2
 716              	#NO_APP
 717              	.LBE76:
 718              	.LBE75:
  55:src/syscall_cpp.cpp **** 
 719              		.loc 2 55 1
 720 02b8 83308102 		ld	ra,40(sp)
 721              		.cfi_remember_state
 722              		.cfi_restore 1
 723 02bc 03340102 		ld	s0,32(sp)
 724              		.cfi_restore 8
 725              		.cfi_def_cfa 2, 48
 726 02c0 83348101 		ld	s1,24(sp)
 727              		.cfi_restore 9
 728              	.LVL52:
 729 02c4 03390101 		ld	s2,16(sp)
 730              		.cfi_restore 18
 731              	.LVL53:
 732 02c8 83398100 		ld	s3,8(sp)
 733              		.cfi_restore 19
 734              	.LVL54:
 735 02cc 13010103 		addi	sp,sp,48
 736              		.cfi_def_cfa_offset 0
 737 02d0 67800000 		jr	ra
 738              	.LVL55:
 739              	.L41:
 740              		.cfi_restore_state
 741              	.LBB78:
 742              	.LBB77:
  37:src/syscall_cpp.cpp ****     if (body != (TCB::Body)main) {
 743              		.loc 2 37 13
 744 02d4 13030000 		li	t1,0
 745 02d8 6FF05FFC 		j	.L40
 746              	.LBE77:
 747              	.LBE78:
 748              		.cfi_endproc
 749              	.LFE39:
 751              		.globl	_ZN6ThreadC1EPFvPvES0_
 752              		.set	_ZN6ThreadC1EPFvPvES0_,_ZN6ThreadC2EPFvPvES0_
GAS LISTING /tmp/cchcTNVL.s 			page 20


 753              		.align	2
 754              		.globl	_ZN6Thread5startEv
 756              	_ZN6Thread5startEv:
 757              	.LFB48:
  63:src/syscall_cpp.cpp ****     if (myHandle == nullptr) return -1;
 758              		.loc 2 63 21 is_stmt 1
 759              		.cfi_startproc
 760              	.LVL56:
 761 02dc 130101FF 		addi	sp,sp,-16
 762              		.cfi_def_cfa_offset 16
 763 02e0 23348100 		sd	s0,8(sp)
 764              		.cfi_offset 8, -8
 765 02e4 13040101 		addi	s0,sp,16
 766              		.cfi_def_cfa 8, 0
  64:src/syscall_cpp.cpp ****     __asm__ volatile("mv a1, %[handle]": :[handle] "r"(myHandle):"a5", "a0", "a1", "a2", "a3", "a4"
 767              		.loc 2 64 5
  64:src/syscall_cpp.cpp ****     __asm__ volatile("mv a1, %[handle]": :[handle] "r"(myHandle):"a5", "a0", "a1", "a2", "a3", "a4"
 768              		.loc 2 64 9 is_stmt 0
 769 02e8 03338500 		ld	t1,8(a0)
  64:src/syscall_cpp.cpp ****     __asm__ volatile("mv a1, %[handle]": :[handle] "r"(myHandle):"a5", "a0", "a1", "a2", "a3", "a4"
 770              		.loc 2 64 5
 771 02ec 63000302 		beqz	t1,.L45
  65:src/syscall_cpp.cpp ****     __asm__ volatile("li a0, 0x81");
 772              		.loc 2 65 5 is_stmt 1
  65:src/syscall_cpp.cpp ****     __asm__ volatile("li a0, 0x81");
 773              		.loc 2 65 113 is_stmt 0
 774              	#APP
 775              	# 65 "src/syscall_cpp.cpp" 1
 776              		mv a1, t1
 777              	# 0 "" 2
 778              	.LVL57:
  66:src/syscall_cpp.cpp **** 
 779              		.loc 2 66 5 is_stmt 1
  66:src/syscall_cpp.cpp **** 
 780              		.loc 2 66 36 is_stmt 0
 781              	# 66 "src/syscall_cpp.cpp" 1
  68:src/syscall_cpp.cpp **** 
 782              		li a0, 0x81
 783              	# 0 "" 2
 784              		.loc 2 68 5 is_stmt 1
  68:src/syscall_cpp.cpp **** 
 785              		.loc 2 68 30 is_stmt 0
 786              	# 68 "src/syscall_cpp.cpp" 1
  70:src/syscall_cpp.cpp **** }
 787              		ecall
 788              	# 0 "" 2
 789              		.loc 2 70 5 is_stmt 1
  70:src/syscall_cpp.cpp **** }
 790              		.loc 2 70 12 is_stmt 0
 791              	#NO_APP
 792 02fc 13050000 		li	a0,0
 793              	.L44:
  71:src/syscall_cpp.cpp **** 
 794              		.loc 2 71 1
 795 0300 03348100 		ld	s0,8(sp)
 796              		.cfi_remember_state
 797              		.cfi_restore 8
GAS LISTING /tmp/cchcTNVL.s 			page 21


 798              		.cfi_def_cfa 2, 16
 799 0304 13010101 		addi	sp,sp,16
 800              		.cfi_def_cfa_offset 0
 801 0308 67800000 		jr	ra
 802              	.LVL58:
 803              	.L45:
 804              		.cfi_restore_state
  64:src/syscall_cpp.cpp ****     __asm__ volatile("mv a1, %[handle]": :[handle] "r"(myHandle):"a5", "a0", "a1", "a2", "a3", "a4"
 805              		.loc 2 64 38
 806 030c 1305F0FF 		li	a0,-1
 807              	.LVL59:
 808 0310 6FF01FFF 		j	.L44
 809              		.cfi_endproc
 810              	.LFE48:
 812              		.align	2
 813              		.globl	_ZN6Thread4joinEv
 815              	_ZN6Thread4joinEv:
 816              	.LFB49:
  73:src/syscall_cpp.cpp ****     thread_join(myHandle);
 817              		.loc 2 73 21 is_stmt 1
 818              		.cfi_startproc
 819              	.LVL60:
 820 0314 130101FF 		addi	sp,sp,-16
 821              		.cfi_def_cfa_offset 16
 822 0318 23341100 		sd	ra,8(sp)
 823 031c 23308100 		sd	s0,0(sp)
 824              		.cfi_offset 1, -8
 825              		.cfi_offset 8, -16
 826 0320 13040101 		addi	s0,sp,16
 827              		.cfi_def_cfa 8, 0
  74:src/syscall_cpp.cpp **** }
 828              		.loc 2 74 5
  74:src/syscall_cpp.cpp **** }
 829              		.loc 2 74 16 is_stmt 0
 830 0324 03358500 		ld	a0,8(a0)
 831              	.LVL61:
 832 0328 97000000 		call	_Z11thread_joinP3TCB@plt
 832      E7800000 
 833              	.LVL62:
  75:src/syscall_cpp.cpp **** 
 834              		.loc 2 75 1
 835 0330 83308100 		ld	ra,8(sp)
 836              		.cfi_restore 1
 837 0334 03340100 		ld	s0,0(sp)
 838              		.cfi_restore 8
 839              		.cfi_def_cfa 2, 16
 840 0338 13010101 		addi	sp,sp,16
 841              		.cfi_def_cfa_offset 0
 842 033c 67800000 		jr	ra
 843              		.cfi_endproc
 844              	.LFE49:
 846              		.align	2
 847              		.globl	_ZN6Thread8dispatchEv
 849              	_ZN6Thread8dispatchEv:
 850              	.LFB50:
  77:src/syscall_cpp.cpp ****     thread_dispatch();
 851              		.loc 2 77 25 is_stmt 1
GAS LISTING /tmp/cchcTNVL.s 			page 22


 852              		.cfi_startproc
 853 0340 130101FF 		addi	sp,sp,-16
 854              		.cfi_def_cfa_offset 16
 855 0344 23341100 		sd	ra,8(sp)
 856 0348 23308100 		sd	s0,0(sp)
 857              		.cfi_offset 1, -8
 858              		.cfi_offset 8, -16
 859 034c 13040101 		addi	s0,sp,16
 860              		.cfi_def_cfa 8, 0
  78:src/syscall_cpp.cpp **** }
 861              		.loc 2 78 5
  78:src/syscall_cpp.cpp **** }
 862              		.loc 2 78 20 is_stmt 0
 863 0350 97000000 		call	_Z15thread_dispatchv@plt
 863      E7800000 
 864              	.LVL63:
  79:src/syscall_cpp.cpp **** 
 865              		.loc 2 79 1
 866 0358 83308100 		ld	ra,8(sp)
 867              		.cfi_restore 1
 868 035c 03340100 		ld	s0,0(sp)
 869              		.cfi_restore 8
 870              		.cfi_def_cfa 2, 16
 871 0360 13010101 		addi	sp,sp,16
 872              		.cfi_def_cfa_offset 0
 873 0364 67800000 		jr	ra
 874              		.cfi_endproc
 875              	.LFE50:
 877              		.align	2
 878              		.globl	_ZN6Thread5sleepEm
 880              	_ZN6Thread5sleepEm:
 881              	.LFB51:
  81:src/syscall_cpp.cpp ****     time_sleep(t);
 882              		.loc 2 81 29 is_stmt 1
 883              		.cfi_startproc
 884              	.LVL64:
 885 0368 130101FF 		addi	sp,sp,-16
 886              		.cfi_def_cfa_offset 16
 887 036c 23341100 		sd	ra,8(sp)
 888 0370 23308100 		sd	s0,0(sp)
 889              		.cfi_offset 1, -8
 890              		.cfi_offset 8, -16
 891 0374 13040101 		addi	s0,sp,16
 892              		.cfi_def_cfa 8, 0
  82:src/syscall_cpp.cpp ****     return 0;
 893              		.loc 2 82 5
  82:src/syscall_cpp.cpp ****     return 0;
 894              		.loc 2 82 15 is_stmt 0
 895 0378 97000000 		call	_Z10time_sleepm@plt
 895      E7800000 
 896              	.LVL65:
  83:src/syscall_cpp.cpp **** }
 897              		.loc 2 83 5 is_stmt 1
  84:src/syscall_cpp.cpp **** 
 898              		.loc 2 84 1 is_stmt 0
 899 0380 13050000 		li	a0,0
 900 0384 83308100 		ld	ra,8(sp)
GAS LISTING /tmp/cchcTNVL.s 			page 23


 901              		.cfi_restore 1
 902 0388 03340100 		ld	s0,0(sp)
 903              		.cfi_restore 8
 904              		.cfi_def_cfa 2, 16
 905 038c 13010101 		addi	sp,sp,16
 906              		.cfi_def_cfa_offset 0
 907 0390 67800000 		jr	ra
 908              		.cfi_endproc
 909              	.LFE51:
 911              		.align	2
 912              		.globl	_ZN14PeriodicThread3runEv
 914              	_ZN14PeriodicThread3runEv:
 915              	.LFB72:
 120:src/syscall_cpp.cpp **** 
 121:src/syscall_cpp.cpp **** int Semaphore::wait() {
 122:src/syscall_cpp.cpp ****     return sem_wait(myHandle);
 123:src/syscall_cpp.cpp **** }
 124:src/syscall_cpp.cpp **** 
 125:src/syscall_cpp.cpp **** int Semaphore::signal() {
 126:src/syscall_cpp.cpp ****     return sem_signal(myHandle);
 127:src/syscall_cpp.cpp **** }
 128:src/syscall_cpp.cpp **** 
 129:src/syscall_cpp.cpp **** void PeriodicThread::terminate() {
 130:src/syscall_cpp.cpp ****     this->period = -1;
 131:src/syscall_cpp.cpp **** }
 132:src/syscall_cpp.cpp **** 
 133:src/syscall_cpp.cpp **** PeriodicThread::PeriodicThread(time_t period) : Thread(), period(period) {
 134:src/syscall_cpp.cpp ****     if (this->period < 0) this->period = 2;
 135:src/syscall_cpp.cpp **** }
 136:src/syscall_cpp.cpp **** 
 137:src/syscall_cpp.cpp **** void PeriodicThread::run() {
 916              		.loc 2 137 28 is_stmt 1
 917              		.cfi_startproc
 918              	.LVL66:
 919 0394 130101FE 		addi	sp,sp,-32
 920              		.cfi_def_cfa_offset 32
 921 0398 233C1100 		sd	ra,24(sp)
 922 039c 23388100 		sd	s0,16(sp)
 923 03a0 23349100 		sd	s1,8(sp)
 924              		.cfi_offset 1, -8
 925              		.cfi_offset 8, -16
 926              		.cfi_offset 9, -24
 927 03a4 13040102 		addi	s0,sp,32
 928              		.cfi_def_cfa 8, 0
 929 03a8 93040500 		mv	s1,a0
 930              	.LVL67:
 931              	.L55:
 138:src/syscall_cpp.cpp ****     while (period != -1UL) {
 932              		.loc 2 138 5
 933              		.loc 2 138 19
 934              		.loc 2 138 12 is_stmt 0
 935 03ac 03B70402 		ld	a4,32(s1)
 936              		.loc 2 138 19
 937 03b0 9307F0FF 		li	a5,-1
 938 03b4 6306F702 		beq	a4,a5,.L54
 139:src/syscall_cpp.cpp ****         periodicActivation();
 939              		.loc 2 139 9 is_stmt 1
GAS LISTING /tmp/cchcTNVL.s 			page 24


 940              		.loc 2 139 28 is_stmt 0
 941 03b8 83B70400 		ld	a5,0(s1)
 942 03bc 83B78701 		ld	a5,24(a5)
 943              		.loc 2 139 27
 944 03c0 13850400 		mv	a0,s1
 945 03c4 E7800700 		jalr	a5
 946              	.LVL68:
 140:src/syscall_cpp.cpp ****         if (period == -1UL) break;
 947              		.loc 2 140 9 is_stmt 1
 948              		.loc 2 140 13 is_stmt 0
 949 03c8 03B50402 		ld	a0,32(s1)
 950              		.loc 2 140 9
 951 03cc 9307F0FF 		li	a5,-1
 952 03d0 6308F500 		beq	a0,a5,.L54
 141:src/syscall_cpp.cpp ****         sleep(period);
 953              		.loc 2 141 9 is_stmt 1
 954              		.loc 2 141 14 is_stmt 0
 955 03d4 97000000 		call	_ZN6Thread5sleepEm
 955      E7800000 
 956              	.LVL69:
 138:src/syscall_cpp.cpp ****         periodicActivation();
 957              		.loc 2 138 5
 958 03dc 6FF01FFD 		j	.L55
 959              	.L54:
 142:src/syscall_cpp.cpp ****     }
 143:src/syscall_cpp.cpp ****     thread_exit();
 960              		.loc 2 143 5 is_stmt 1
 961              		.loc 2 143 16 is_stmt 0
 962 03e0 97000000 		call	_Z11thread_exitv@plt
 962      E7800000 
 963              	.LVL70:
 144:src/syscall_cpp.cpp **** }
 964              		.loc 2 144 1
 965 03e8 83308101 		ld	ra,24(sp)
 966              		.cfi_restore 1
 967 03ec 03340101 		ld	s0,16(sp)
 968              		.cfi_restore 8
 969              		.cfi_def_cfa 2, 32
 970 03f0 83348100 		ld	s1,8(sp)
 971              		.cfi_restore 9
 972              	.LVL71:
 973 03f4 13010102 		addi	sp,sp,32
 974              		.cfi_def_cfa_offset 0
 975 03f8 67800000 		jr	ra
 976              		.cfi_endproc
 977              	.LFE72:
 979              		.align	2
 980              		.globl	_ZN6ThreadC2Ev
 982              	_ZN6ThreadC2Ev:
 983              	.LFB53:
  86:src/syscall_cpp.cpp ****     this->body = wrapper;
 984              		.loc 2 86 1 is_stmt 1
 985              		.cfi_startproc
 986              	.LVL72:
 987 03fc 130101FE 		addi	sp,sp,-32
 988              		.cfi_def_cfa_offset 32
 989 0400 233C1100 		sd	ra,24(sp)
GAS LISTING /tmp/cchcTNVL.s 			page 25


 990 0404 23388100 		sd	s0,16(sp)
 991 0408 23349100 		sd	s1,8(sp)
 992              		.cfi_offset 1, -8
 993              		.cfi_offset 8, -16
 994              		.cfi_offset 9, -24
 995 040c 13040102 		addi	s0,sp,32
 996              		.cfi_def_cfa 8, 0
 997 0410 93040500 		mv	s1,a0
 998              	.LBB79:
  86:src/syscall_cpp.cpp ****     this->body = wrapper;
 999              		.loc 2 86 16 is_stmt 0
 1000 0414 97070000 		lla	a5,_ZTV6Thread+16
 1000      93870700 
 1001 041c 2330F500 		sd	a5,0(a0)
 1002              	.LBB80:
  87:src/syscall_cpp.cpp ****     this->arg = this;
 1003              		.loc 2 87 5 is_stmt 1
  87:src/syscall_cpp.cpp ****     this->arg = this;
 1004              		.loc 2 87 16 is_stmt 0
 1005 0420 97070000 		lla	a5,_ZN6Thread7wrapperEPv
 1005      93870700 
 1006 0428 2338F500 		sd	a5,16(a0)
  88:src/syscall_cpp.cpp ****     uint64* stack = (uint64*)mem_alloc(DEFAULT_STACK_SIZE);
 1007              		.loc 2 88 5 is_stmt 1
  88:src/syscall_cpp.cpp ****     uint64* stack = (uint64*)mem_alloc(DEFAULT_STACK_SIZE);
 1008              		.loc 2 88 15 is_stmt 0
 1009 042c 233CA500 		sd	a0,24(a0)
  89:src/syscall_cpp.cpp ****     //stavljanje argumenata za sistemski poziv
 1010              		.loc 2 89 5 is_stmt 1
  89:src/syscall_cpp.cpp ****     //stavljanje argumenata za sistemski poziv
 1011              		.loc 2 89 39 is_stmt 0
 1012 0430 37150000 		li	a0,4096
 1013              	.LVL73:
 1014 0434 97000000 		call	_Z9mem_allocm@plt
 1014      E7800000 
 1015              	.LVL74:
 1016 043c 13030500 		mv	t1,a0
 1017              	.LVL75:
  91:src/syscall_cpp.cpp ****     __asm__ volatile("mv a3, %[arg]": :[arg] "r"(arg):"a5", "a0", "a1", "a2", "a3", "a4", "a6", "a7
 1018              		.loc 2 91 5 is_stmt 1
  91:src/syscall_cpp.cpp ****     __asm__ volatile("mv a3, %[arg]": :[arg] "r"(arg):"a5", "a0", "a1", "a2", "a3", "a4", "a6", "a7
 1019              		.loc 2 91 102 is_stmt 0
 1020              	#APP
 1021              	# 91 "src/syscall_cpp.cpp" 1
  92:src/syscall_cpp.cpp ****     __asm__ volatile("mv a2, %[function]": :[function] "r"(
 1022              		mv a4, t1
 1023              	# 0 "" 2
 1024              		.loc 2 92 5 is_stmt 1
  92:src/syscall_cpp.cpp ****     __asm__ volatile("mv a2, %[function]": :[function] "r"(
 1025              		.loc 2 92 50 is_stmt 0
 1026              	#NO_APP
 1027 0444 03B38401 		ld	t1,24(s1)
 1028              	.LVL76:
  92:src/syscall_cpp.cpp ****     __asm__ volatile("mv a2, %[function]": :[function] "r"(
 1029              		.loc 2 92 102
 1030              	#APP
 1031              	# 92 "src/syscall_cpp.cpp" 1
GAS LISTING /tmp/cchcTNVL.s 			page 26


  93:src/syscall_cpp.cpp ****             body):"a5", "a0", "a1", "a2", "a3", "a4", "a6", "a7");
 1032              		mv a3, t1
 1033              	# 0 "" 2
 1034              		.loc 2 93 5 is_stmt 1
  94:src/syscall_cpp.cpp ****     __asm__ volatile("mv a1, %[handle]": :[handle] "r"(&myHandle):"a5", "a0", "a1", "a2", "a3", "a4
 1035              		.loc 2 94 13 is_stmt 0
 1036              	#NO_APP
 1037 044c 03B30401 		ld	t1,16(s1)
  94:src/syscall_cpp.cpp ****     __asm__ volatile("mv a1, %[handle]": :[handle] "r"(&myHandle):"a5", "a0", "a1", "a2", "a3", "a4
 1038              		.loc 2 94 66
 1039              	#APP
 1040              	# 94 "src/syscall_cpp.cpp" 1
  95:src/syscall_cpp.cpp ****     __asm__ volatile("li a0, 0x80");
 1041              		mv a2, t1
 1042              	# 0 "" 2
 1043              		.loc 2 95 5 is_stmt 1
  95:src/syscall_cpp.cpp ****     __asm__ volatile("li a0, 0x80");
 1044              		.loc 2 95 56 is_stmt 0
 1045              	#NO_APP
 1046 0454 93848400 		addi	s1,s1,8
 1047              	.LVL77:
  95:src/syscall_cpp.cpp ****     __asm__ volatile("li a0, 0x80");
 1048              		.loc 2 95 114
 1049              	#APP
 1050              	# 95 "src/syscall_cpp.cpp" 1
  96:src/syscall_cpp.cpp ****     //a0 = 0x80
 1051              		mv a1, s1
 1052              	# 0 "" 2
 1053              		.loc 2 96 5 is_stmt 1
  96:src/syscall_cpp.cpp ****     //a0 = 0x80
 1054              		.loc 2 96 36 is_stmt 0
 1055              	# 96 "src/syscall_cpp.cpp" 1
 103:src/syscall_cpp.cpp **** }
 1056              		li a0, 0x80
 1057              	# 0 "" 2
 1058              		.loc 2 103 5 is_stmt 1
 103:src/syscall_cpp.cpp **** }
 1059              		.loc 2 103 30 is_stmt 0
 1060              	# 103 "src/syscall_cpp.cpp" 1
 1061              		ecall
 1062              	# 0 "" 2
 1063              	#NO_APP
 1064              	.LBE80:
 1065              	.LBE79:
 104:src/syscall_cpp.cpp **** 
 1066              		.loc 2 104 1
 1067 0464 83308101 		ld	ra,24(sp)
 1068              		.cfi_restore 1
 1069 0468 03340101 		ld	s0,16(sp)
 1070              		.cfi_restore 8
 1071              		.cfi_def_cfa 2, 32
 1072 046c 83348100 		ld	s1,8(sp)
 1073              		.cfi_restore 9
 1074              	.LVL78:
 1075 0470 13010102 		addi	sp,sp,32
 1076              		.cfi_def_cfa_offset 0
 1077 0474 67800000 		jr	ra
GAS LISTING /tmp/cchcTNVL.s 			page 27


 1078              		.cfi_endproc
 1079              	.LFE53:
 1081              		.globl	_ZN6ThreadC1Ev
 1082              		.set	_ZN6ThreadC1Ev,_ZN6ThreadC2Ev
 1083              		.align	2
 1084              		.globl	_ZN9SemaphoreC2Ej
 1086              	_ZN9SemaphoreC2Ej:
 1087              	.LFB57:
 112:src/syscall_cpp.cpp ****     sem_open(&myHandle, init);
 1088              		.loc 2 112 1 is_stmt 1
 1089              		.cfi_startproc
 1090              	.LVL79:
 1091 0478 130101FF 		addi	sp,sp,-16
 1092              		.cfi_def_cfa_offset 16
 1093 047c 23341100 		sd	ra,8(sp)
 1094 0480 23308100 		sd	s0,0(sp)
 1095              		.cfi_offset 1, -8
 1096              		.cfi_offset 8, -16
 1097 0484 13040101 		addi	s0,sp,16
 1098              		.cfi_def_cfa 8, 0
 1099              	.LBB81:
 112:src/syscall_cpp.cpp ****     sem_open(&myHandle, init);
 1100              		.loc 2 112 39 is_stmt 0
 1101 0488 97070000 		lla	a5,_ZTV9Semaphore+16
 1101      93870700 
 1102 0490 2330F500 		sd	a5,0(a0)
 113:src/syscall_cpp.cpp **** }
 1103              		.loc 2 113 5 is_stmt 1
 113:src/syscall_cpp.cpp **** }
 1104              		.loc 2 113 13 is_stmt 0
 1105 0494 13058500 		addi	a0,a0,8
 1106              	.LVL80:
 1107 0498 97000000 		call	_Z8sem_openPP4KSemj@plt
 1107      E7800000 
 1108              	.LVL81:
 1109              	.LBE81:
 114:src/syscall_cpp.cpp **** 
 1110              		.loc 2 114 1
 1111 04a0 83308100 		ld	ra,8(sp)
 1112              		.cfi_restore 1
 1113 04a4 03340100 		ld	s0,0(sp)
 1114              		.cfi_restore 8
 1115              		.cfi_def_cfa 2, 16
 1116 04a8 13010101 		addi	sp,sp,16
 1117              		.cfi_def_cfa_offset 0
 1118 04ac 67800000 		jr	ra
 1119              		.cfi_endproc
 1120              	.LFE57:
 1122              		.globl	_ZN9SemaphoreC1Ej
 1123              		.set	_ZN9SemaphoreC1Ej,_ZN9SemaphoreC2Ej
 1124              		.align	2
 1125              		.globl	_ZN9Semaphore4waitEv
 1127              	_ZN9Semaphore4waitEv:
 1128              	.LFB66:
 121:src/syscall_cpp.cpp ****     return sem_wait(myHandle);
 1129              		.loc 2 121 23 is_stmt 1
 1130              		.cfi_startproc
GAS LISTING /tmp/cchcTNVL.s 			page 28


 1131              	.LVL82:
 1132 04b0 130101FF 		addi	sp,sp,-16
 1133              		.cfi_def_cfa_offset 16
 1134 04b4 23341100 		sd	ra,8(sp)
 1135 04b8 23308100 		sd	s0,0(sp)
 1136              		.cfi_offset 1, -8
 1137              		.cfi_offset 8, -16
 1138 04bc 13040101 		addi	s0,sp,16
 1139              		.cfi_def_cfa 8, 0
 122:src/syscall_cpp.cpp **** }
 1140              		.loc 2 122 5
 122:src/syscall_cpp.cpp **** }
 1141              		.loc 2 122 20 is_stmt 0
 1142 04c0 03358500 		ld	a0,8(a0)
 1143              	.LVL83:
 1144 04c4 97000000 		call	_Z8sem_waitP4KSem@plt
 1144      E7800000 
 1145              	.LVL84:
 123:src/syscall_cpp.cpp **** 
 1146              		.loc 2 123 1
 1147 04cc 83308100 		ld	ra,8(sp)
 1148              		.cfi_restore 1
 1149 04d0 03340100 		ld	s0,0(sp)
 1150              		.cfi_restore 8
 1151              		.cfi_def_cfa 2, 16
 1152 04d4 13010101 		addi	sp,sp,16
 1153              		.cfi_def_cfa_offset 0
 1154 04d8 67800000 		jr	ra
 1155              		.cfi_endproc
 1156              	.LFE66:
 1158              		.align	2
 1159              		.globl	_ZN9Semaphore6signalEv
 1161              	_ZN9Semaphore6signalEv:
 1162              	.LFB67:
 125:src/syscall_cpp.cpp ****     return sem_signal(myHandle);
 1163              		.loc 2 125 25 is_stmt 1
 1164              		.cfi_startproc
 1165              	.LVL85:
 1166 04dc 130101FF 		addi	sp,sp,-16
 1167              		.cfi_def_cfa_offset 16
 1168 04e0 23341100 		sd	ra,8(sp)
 1169 04e4 23308100 		sd	s0,0(sp)
 1170              		.cfi_offset 1, -8
 1171              		.cfi_offset 8, -16
 1172 04e8 13040101 		addi	s0,sp,16
 1173              		.cfi_def_cfa 8, 0
 126:src/syscall_cpp.cpp **** }
 1174              		.loc 2 126 5
 126:src/syscall_cpp.cpp **** }
 1175              		.loc 2 126 22 is_stmt 0
 1176 04ec 03358500 		ld	a0,8(a0)
 1177              	.LVL86:
 1178 04f0 97000000 		call	_Z10sem_signalP4KSem@plt
 1178      E7800000 
 1179              	.LVL87:
 127:src/syscall_cpp.cpp **** 
 1180              		.loc 2 127 1
GAS LISTING /tmp/cchcTNVL.s 			page 29


 1181 04f8 83308100 		ld	ra,8(sp)
 1182              		.cfi_restore 1
 1183 04fc 03340100 		ld	s0,0(sp)
 1184              		.cfi_restore 8
 1185              		.cfi_def_cfa 2, 16
 1186 0500 13010101 		addi	sp,sp,16
 1187              		.cfi_def_cfa_offset 0
 1188 0504 67800000 		jr	ra
 1189              		.cfi_endproc
 1190              	.LFE67:
 1192              		.align	2
 1193              		.globl	_ZN14PeriodicThread9terminateEv
 1195              	_ZN14PeriodicThread9terminateEv:
 1196              	.LFB68:
 129:src/syscall_cpp.cpp ****     this->period = -1;
 1197              		.loc 2 129 34 is_stmt 1
 1198              		.cfi_startproc
 1199              	.LVL88:
 1200 0508 130101FF 		addi	sp,sp,-16
 1201              		.cfi_def_cfa_offset 16
 1202 050c 23348100 		sd	s0,8(sp)
 1203              		.cfi_offset 8, -8
 1204 0510 13040101 		addi	s0,sp,16
 1205              		.cfi_def_cfa 8, 0
 130:src/syscall_cpp.cpp **** }
 1206              		.loc 2 130 5
 130:src/syscall_cpp.cpp **** }
 1207              		.loc 2 130 18 is_stmt 0
 1208 0514 9307F0FF 		li	a5,-1
 1209 0518 2330F502 		sd	a5,32(a0)
 131:src/syscall_cpp.cpp **** 
 1210              		.loc 2 131 1
 1211 051c 03348100 		ld	s0,8(sp)
 1212              		.cfi_restore 8
 1213              		.cfi_def_cfa 2, 16
 1214 0520 13010101 		addi	sp,sp,16
 1215              		.cfi_def_cfa_offset 0
 1216 0524 67800000 		jr	ra
 1217              		.cfi_endproc
 1218              	.LFE68:
 1220              		.align	2
 1221              		.globl	_ZN14PeriodicThreadC2Em
 1223              	_ZN14PeriodicThreadC2Em:
 1224              	.LFB70:
 133:src/syscall_cpp.cpp ****     if (this->period < 0) this->period = 2;
 1225              		.loc 2 133 1 is_stmt 1
 1226              		.cfi_startproc
 1227              	.LVL89:
 1228 0528 130101FE 		addi	sp,sp,-32
 1229              		.cfi_def_cfa_offset 32
 1230 052c 233C1100 		sd	ra,24(sp)
 1231 0530 23388100 		sd	s0,16(sp)
 1232 0534 23349100 		sd	s1,8(sp)
 1233 0538 23302101 		sd	s2,0(sp)
 1234              		.cfi_offset 1, -8
 1235              		.cfi_offset 8, -16
 1236              		.cfi_offset 9, -24
GAS LISTING /tmp/cchcTNVL.s 			page 30


 1237              		.cfi_offset 18, -32
 1238 053c 13040102 		addi	s0,sp,32
 1239              		.cfi_def_cfa 8, 0
 1240 0540 93040500 		mv	s1,a0
 1241 0544 13890500 		mv	s2,a1
 1242              	.LBB82:
 133:src/syscall_cpp.cpp ****     if (this->period < 0) this->period = 2;
 1243              		.loc 2 133 72 is_stmt 0
 1244 0548 97000000 		call	_ZN6ThreadC2Ev
 1244      E7800000 
 1245              	.LVL90:
 1246 0550 97070000 		lla	a5,_ZTV14PeriodicThread+16
 1246      93870700 
 1247 0558 23B0F400 		sd	a5,0(s1)
 1248 055c 23B02403 		sd	s2,32(s1)
 134:src/syscall_cpp.cpp **** }
 1249              		.loc 2 134 5 is_stmt 1
 1250              	.LBE82:
 135:src/syscall_cpp.cpp **** 
 1251              		.loc 2 135 1 is_stmt 0
 1252 0560 83308101 		ld	ra,24(sp)
 1253              		.cfi_restore 1
 1254 0564 03340101 		ld	s0,16(sp)
 1255              		.cfi_restore 8
 1256              		.cfi_def_cfa 2, 32
 1257 0568 83348100 		ld	s1,8(sp)
 1258              		.cfi_restore 9
 1259              	.LVL91:
 1260 056c 03390100 		ld	s2,0(sp)
 1261              		.cfi_restore 18
 1262              	.LVL92:
 1263 0570 13010102 		addi	sp,sp,32
 1264              		.cfi_def_cfa_offset 0
 1265 0574 67800000 		jr	ra
 1266              		.cfi_endproc
 1267              	.LFE70:
 1269              		.globl	_ZN14PeriodicThreadC1Em
 1270              		.set	_ZN14PeriodicThreadC1Em,_ZN14PeriodicThreadC2Em
 1271              		.align	2
 1272              		.globl	_ZN7Console4getcEv
 1274              	_ZN7Console4getcEv:
 1275              	.LFB73:
 145:src/syscall_cpp.cpp **** 
 146:src/syscall_cpp.cpp **** char Console::getc() {
 1276              		.loc 2 146 22 is_stmt 1
 1277              		.cfi_startproc
 1278 0578 130101FF 		addi	sp,sp,-16
 1279              		.cfi_def_cfa_offset 16
 1280 057c 23341100 		sd	ra,8(sp)
 1281 0580 23308100 		sd	s0,0(sp)
 1282              		.cfi_offset 1, -8
 1283              		.cfi_offset 8, -16
 1284 0584 13040101 		addi	s0,sp,16
 1285              		.cfi_def_cfa 8, 0
 147:src/syscall_cpp.cpp ****     return ::getc();
 1286              		.loc 2 147 5
 1287              		.loc 2 147 18 is_stmt 0
GAS LISTING /tmp/cchcTNVL.s 			page 31


 1288 0588 97000000 		call	_Z4getcv@plt
 1288      E7800000 
 1289              	.LVL93:
 148:src/syscall_cpp.cpp **** }
 1290              		.loc 2 148 1
 1291 0590 83308100 		ld	ra,8(sp)
 1292              		.cfi_restore 1
 1293 0594 03340100 		ld	s0,0(sp)
 1294              		.cfi_restore 8
 1295              		.cfi_def_cfa 2, 16
 1296 0598 13010101 		addi	sp,sp,16
 1297              		.cfi_def_cfa_offset 0
 1298 059c 67800000 		jr	ra
 1299              		.cfi_endproc
 1300              	.LFE73:
 1302              		.align	2
 1303              		.globl	_ZN7Console4putcEc
 1305              	_ZN7Console4putcEc:
 1306              	.LFB74:
 149:src/syscall_cpp.cpp **** 
 150:src/syscall_cpp.cpp **** void Console::putc(char c) {
 1307              		.loc 2 150 28 is_stmt 1
 1308              		.cfi_startproc
 1309              	.LVL94:
 1310 05a0 130101FF 		addi	sp,sp,-16
 1311              		.cfi_def_cfa_offset 16
 1312 05a4 23341100 		sd	ra,8(sp)
 1313 05a8 23308100 		sd	s0,0(sp)
 1314              		.cfi_offset 1, -8
 1315              		.cfi_offset 8, -16
 1316 05ac 13040101 		addi	s0,sp,16
 1317              		.cfi_def_cfa 8, 0
 151:src/syscall_cpp.cpp ****     ::putc(c);
 1318              		.loc 2 151 5
 1319              		.loc 2 151 11 is_stmt 0
 1320 05b0 97000000 		call	_Z4putcc@plt
 1320      E7800000 
 1321              	.LVL95:
 152:src/syscall_cpp.cpp **** }
 1322              		.loc 2 152 1
 1323 05b8 83308100 		ld	ra,8(sp)
 1324              		.cfi_restore 1
 1325 05bc 03340100 		ld	s0,0(sp)
 1326              		.cfi_restore 8
 1327              		.cfi_def_cfa 2, 16
 1328 05c0 13010101 		addi	sp,sp,16
 1329              		.cfi_def_cfa_offset 0
 1330 05c4 67800000 		jr	ra
 1331              		.cfi_endproc
 1332              	.LFE74:
 1334              		.weak	_ZTV6Thread
 1335              		.section	.data.rel.ro.local._ZTV6Thread,"awG",@progbits,_ZTV6Thread,comdat
 1336              		.align	3
 1339              	_ZTV6Thread:
 1340 0000 00000000 		.dword	0
 1340      00000000 
 1341 0008 00000000 		.dword	0
GAS LISTING /tmp/cchcTNVL.s 			page 32


 1341      00000000 
 1342 0010 00000000 		.dword	_ZN6ThreadD1Ev
 1342      00000000 
 1343 0018 00000000 		.dword	_ZN6ThreadD0Ev
 1343      00000000 
 1344 0020 00000000 		.dword	_ZN6Thread3runEv
 1344      00000000 
 1345              		.weak	_ZTV9Semaphore
 1346              		.section	.data.rel.ro.local._ZTV9Semaphore,"awG",@progbits,_ZTV9Semaphore,comdat
 1347              		.align	3
 1350              	_ZTV9Semaphore:
 1351 0000 00000000 		.dword	0
 1351      00000000 
 1352 0008 00000000 		.dword	0
 1352      00000000 
 1353 0010 00000000 		.dword	_ZN9SemaphoreD1Ev
 1353      00000000 
 1354 0018 00000000 		.dword	_ZN9SemaphoreD0Ev
 1354      00000000 
 1355              		.weak	_ZTV14PeriodicThread
 1356              		.section	.data.rel.ro.local._ZTV14PeriodicThread,"awG",@progbits,_ZTV14PeriodicThread,comdat
 1357              		.align	3
 1360              	_ZTV14PeriodicThread:
 1361 0000 00000000 		.dword	0
 1361      00000000 
 1362 0008 00000000 		.dword	0
 1362      00000000 
 1363 0010 00000000 		.dword	_ZN14PeriodicThreadD1Ev
 1363      00000000 
 1364 0018 00000000 		.dword	_ZN14PeriodicThreadD0Ev
 1364      00000000 
 1365 0020 00000000 		.dword	_ZN14PeriodicThread3runEv
 1365      00000000 
 1366 0028 00000000 		.dword	_ZN14PeriodicThread18periodicActivationEv
 1366      00000000 
 1367              		.text
 1368              	.Letext0:
 1369              		.file 4 "src/../h/../lib/hw.h"
 1370              		.file 5 "src/../h/TCB.hpp"
 1371              		.file 6 "src/../h/KSem.hpp"
 1372              		.file 7 "src/../h/syscall_c.hpp"
 6274              		.align	3
 6277              	DW.ref.__gxx_personality_v0:
 6278 0000 00000000 		.dword	__gxx_personality_v0
 6278      00000000 
 6279              		.ident	"GCC: (Ubuntu 9.4.0-1ubuntu1~20.04) 9.4.0"
 6280              		.section	.note.GNU-stack,"",@progbits
GAS LISTING /tmp/cchcTNVL.s 			page 33


DEFINED SYMBOLS
                            *ABS*:0000000000000000 syscall_cpp.cpp
     /tmp/cchcTNVL.s:10     .text._ZN6Thread3runEv:0000000000000000 _ZN6Thread3runEv
     /tmp/cchcTNVL.s:14     .text._ZN6Thread3runEv:0000000000000000 .L0 
     /tmp/cchcTNVL.s:16     .text._ZN6Thread3runEv:0000000000000000 .L0 
     /tmp/cchcTNVL.s:17     .text._ZN6Thread3runEv:0000000000000004 .L0 
     /tmp/cchcTNVL.s:19     .text._ZN6Thread3runEv:0000000000000008 .L0 
     /tmp/cchcTNVL.s:21     .text._ZN6Thread3runEv:000000000000000c .L0 
     /tmp/cchcTNVL.s:23     .text._ZN6Thread3runEv:000000000000000c .L0 
     /tmp/cchcTNVL.s:24     .text._ZN6Thread3runEv:0000000000000010 .L0 
     /tmp/cchcTNVL.s:25     .text._ZN6Thread3runEv:0000000000000010 .L0 
     /tmp/cchcTNVL.s:27     .text._ZN6Thread3runEv:0000000000000014 .L0 
     /tmp/cchcTNVL.s:29     .text._ZN6Thread3runEv:0000000000000018 .L0 
     /tmp/cchcTNVL.s:36     .text._ZN14PeriodicThread18periodicActivationEv:0000000000000000 _ZN14PeriodicThread18periodicActivationEv
     /tmp/cchcTNVL.s:39     .text._ZN14PeriodicThread18periodicActivationEv:0000000000000000 .L0 
     /tmp/cchcTNVL.s:41     .text._ZN14PeriodicThread18periodicActivationEv:0000000000000000 .L0 
     /tmp/cchcTNVL.s:42     .text._ZN14PeriodicThread18periodicActivationEv:0000000000000004 .L0 
     /tmp/cchcTNVL.s:44     .text._ZN14PeriodicThread18periodicActivationEv:0000000000000008 .L0 
     /tmp/cchcTNVL.s:46     .text._ZN14PeriodicThread18periodicActivationEv:000000000000000c .L0 
     /tmp/cchcTNVL.s:48     .text._ZN14PeriodicThread18periodicActivationEv:000000000000000c .L0 
     /tmp/cchcTNVL.s:49     .text._ZN14PeriodicThread18periodicActivationEv:0000000000000010 .L0 
     /tmp/cchcTNVL.s:50     .text._ZN14PeriodicThread18periodicActivationEv:0000000000000010 .L0 
     /tmp/cchcTNVL.s:52     .text._ZN14PeriodicThread18periodicActivationEv:0000000000000014 .L0 
     /tmp/cchcTNVL.s:54     .text._ZN14PeriodicThread18periodicActivationEv:0000000000000018 .L0 
     /tmp/cchcTNVL.s:61     .text:0000000000000000 _ZN6Thread7wrapperEPv
     /tmp/cchcTNVL.s:65     .text:0000000000000000 .L0 
     /tmp/cchcTNVL.s:67     .text:0000000000000000 .L0 
     /tmp/cchcTNVL.s:68     .text:0000000000000000 .L0 
     /tmp/cchcTNVL.s:70     .text:0000000000000004 .L0 
     /tmp/cchcTNVL.s:71     .text:0000000000000008 .L0 
     /tmp/cchcTNVL.s:74     .text:0000000000000010 .L0 
     /tmp/cchcTNVL.s:75     .text:0000000000000010 .L0 
     /tmp/cchcTNVL.s:77     .text:0000000000000014 .L0 
     /tmp/cchcTNVL.s:79     .text:0000000000000014 .L0 
     /tmp/cchcTNVL.s:80     .text:0000000000000014 .L0 
     /tmp/cchcTNVL.s:83     .text:000000000000001c .L0 
     /tmp/cchcTNVL.s:86     .text:0000000000000020 .L0 
     /tmp/cchcTNVL.s:87     .text:0000000000000024 .L0 
     /tmp/cchcTNVL.s:89     .text:0000000000000028 .L0 
     /tmp/cchcTNVL.s:90     .text:0000000000000028 .L0 
     /tmp/cchcTNVL.s:92     .text:000000000000002c .L0 
     /tmp/cchcTNVL.s:97     .text:0000000000000034 .L0 
     /tmp/cchcTNVL.s:103    .text:0000000000000034 _ZN6ThreadD2Ev
     /tmp/cchcTNVL.s:106    .text:0000000000000034 .L0 
     /tmp/cchcTNVL.s:6277   .data.rel.local.DW.ref.__gxx_personality_v0:0000000000000000 DW.ref.__gxx_personality_v0
     /tmp/cchcTNVL.s:110    .text:0000000000000034 .L0 
     /tmp/cchcTNVL.s:111    .text:0000000000000038 .L0 
     /tmp/cchcTNVL.s:115    .text:0000000000000044 .L0 
     /tmp/cchcTNVL.s:116    .text:0000000000000044 .L0 
     /tmp/cchcTNVL.s:117    .text:0000000000000044 .L0 
     /tmp/cchcTNVL.s:119    .text:0000000000000048 .L0 
     /tmp/cchcTNVL.s:1339   .data.rel.ro.local._ZTV6Thread:0000000000000000 _ZTV6Thread
     /tmp/cchcTNVL.s:123    .text:000000000000004c .L0 
     /tmp/cchcTNVL.s:126    .text:0000000000000058 .L0 
     /tmp/cchcTNVL.s:127    .text:0000000000000058 .L0 
     /tmp/cchcTNVL.s:132    .text:0000000000000064 .L0 
     /tmp/cchcTNVL.s:133    .text:0000000000000064 .L0 
GAS LISTING /tmp/cchcTNVL.s 			page 34


     /tmp/cchcTNVL.s:136    .text:0000000000000068 .L0 
     /tmp/cchcTNVL.s:143    .text:000000000000006c .L0 
     /tmp/cchcTNVL.s:147    .text:000000000000006c .L0 
     /tmp/cchcTNVL.s:148    .text:000000000000006c .L0 
     /tmp/cchcTNVL.s:149    .text:000000000000006c .L0 
     /tmp/cchcTNVL.s:153    .text:0000000000000070 .L0 
     /tmp/cchcTNVL.s:157    .text:0000000000000074 .L0 
     /tmp/cchcTNVL.s:158    .text:0000000000000074 .L0 
     /tmp/cchcTNVL.s:159    .text:0000000000000074 .L0 
     /tmp/cchcTNVL.s:161    .text:0000000000000078 .L0 
     /tmp/cchcTNVL.s:163    .text:000000000000007c .L0 
     /tmp/cchcTNVL.s:164    .text:000000000000007c .L0 
     /tmp/cchcTNVL.s:169    .text:0000000000000080 .L0 
     /tmp/cchcTNVL.s:170    .text:0000000000000080 .L0 
     /tmp/cchcTNVL.s:173    .text:0000000000000088 .L0 
     /tmp/cchcTNVL.s:182    .text:000000000000008c .L0 
     /tmp/cchcTNVL.s:188    .text:0000000000000098 .L0 
     /tmp/cchcTNVL.s:189    .text:000000000000009c .L0 
     /tmp/cchcTNVL.s:191    .text:00000000000000a0 .L0 
     /tmp/cchcTNVL.s:192    .text:00000000000000a0 .L0 
     /tmp/cchcTNVL.s:194    .text:00000000000000a4 .L0 
     /tmp/cchcTNVL.s:196    .text:00000000000000a8 .L0 
     /tmp/cchcTNVL.s:198    .text:00000000000000ac .L0 
     /tmp/cchcTNVL.s:103    .text:0000000000000034 _ZN6ThreadD1Ev
     /tmp/cchcTNVL.s:215    .text._ZN14PeriodicThreadD2Ev:0000000000000000 _ZN14PeriodicThreadD2Ev
     /tmp/cchcTNVL.s:218    .text._ZN14PeriodicThreadD2Ev:0000000000000000 .L0 
     /tmp/cchcTNVL.s:220    .text._ZN14PeriodicThreadD2Ev:0000000000000000 .L0 
     /tmp/cchcTNVL.s:221    .text._ZN14PeriodicThreadD2Ev:0000000000000004 .L0 
     /tmp/cchcTNVL.s:224    .text._ZN14PeriodicThreadD2Ev:000000000000000c .L0 
     /tmp/cchcTNVL.s:225    .text._ZN14PeriodicThreadD2Ev:000000000000000c .L0 
     /tmp/cchcTNVL.s:227    .text._ZN14PeriodicThreadD2Ev:0000000000000010 .L0 
     /tmp/cchcTNVL.s:1360   .data.rel.ro.local._ZTV14PeriodicThread:0000000000000000 _ZTV14PeriodicThread
     /tmp/cchcTNVL.s:230    .text._ZN14PeriodicThreadD2Ev:0000000000000010 .L0 
     /tmp/cchcTNVL.s:236    .text._ZN14PeriodicThreadD2Ev:0000000000000028 .L0 
     /tmp/cchcTNVL.s:238    .text._ZN14PeriodicThreadD2Ev:000000000000002c .L0 
     /tmp/cchcTNVL.s:239    .text._ZN14PeriodicThreadD2Ev:000000000000002c .L0 
     /tmp/cchcTNVL.s:241    .text._ZN14PeriodicThreadD2Ev:0000000000000030 .L0 
     /tmp/cchcTNVL.s:243    .text._ZN14PeriodicThreadD2Ev:0000000000000034 .L0 
     /tmp/cchcTNVL.s:215    .text._ZN14PeriodicThreadD2Ev:0000000000000000 _ZN14PeriodicThreadD1Ev
     /tmp/cchcTNVL.s:252    .text:00000000000000ac _ZN9SemaphoreD2Ev
     /tmp/cchcTNVL.s:255    .text:00000000000000ac .L0 
     /tmp/cchcTNVL.s:259    .text:00000000000000ac .L0 
     /tmp/cchcTNVL.s:260    .text:00000000000000b0 .L0 
     /tmp/cchcTNVL.s:264    .text:00000000000000bc .L0 
     /tmp/cchcTNVL.s:265    .text:00000000000000bc .L0 
     /tmp/cchcTNVL.s:266    .text:00000000000000bc .L0 
     /tmp/cchcTNVL.s:268    .text:00000000000000c0 .L0 
     /tmp/cchcTNVL.s:1350   .data.rel.ro.local._ZTV9Semaphore:0000000000000000 _ZTV9Semaphore
     /tmp/cchcTNVL.s:272    .text:00000000000000c4 .L0 
     /tmp/cchcTNVL.s:275    .text:00000000000000d0 .L0 
     /tmp/cchcTNVL.s:276    .text:00000000000000d0 .L0 
     /tmp/cchcTNVL.s:281    .text:00000000000000dc .L0 
     /tmp/cchcTNVL.s:282    .text:00000000000000dc .L0 
     /tmp/cchcTNVL.s:285    .text:00000000000000e0 .L0 
     /tmp/cchcTNVL.s:291    .text:00000000000000e4 .L0 
     /tmp/cchcTNVL.s:295    .text:00000000000000e4 .L0 
     /tmp/cchcTNVL.s:296    .text:00000000000000e4 .L0 
GAS LISTING /tmp/cchcTNVL.s 			page 35


     /tmp/cchcTNVL.s:297    .text:00000000000000e4 .L0 
     /tmp/cchcTNVL.s:301    .text:00000000000000e8 .L0 
     /tmp/cchcTNVL.s:305    .text:00000000000000ec .L0 
     /tmp/cchcTNVL.s:306    .text:00000000000000ec .L0 
     /tmp/cchcTNVL.s:307    .text:00000000000000ec .L0 
     /tmp/cchcTNVL.s:309    .text:00000000000000f0 .L0 
     /tmp/cchcTNVL.s:311    .text:00000000000000f4 .L0 
     /tmp/cchcTNVL.s:312    .text:00000000000000f4 .L0 
     /tmp/cchcTNVL.s:317    .text:00000000000000f8 .L0 
     /tmp/cchcTNVL.s:318    .text:00000000000000f8 .L0 
     /tmp/cchcTNVL.s:321    .text:0000000000000100 .L0 
     /tmp/cchcTNVL.s:330    .text:0000000000000104 .L0 
     /tmp/cchcTNVL.s:336    .text:0000000000000110 .L0 
     /tmp/cchcTNVL.s:337    .text:0000000000000114 .L0 
     /tmp/cchcTNVL.s:339    .text:0000000000000118 .L0 
     /tmp/cchcTNVL.s:340    .text:0000000000000118 .L0 
     /tmp/cchcTNVL.s:342    .text:000000000000011c .L0 
     /tmp/cchcTNVL.s:344    .text:0000000000000120 .L0 
     /tmp/cchcTNVL.s:346    .text:0000000000000124 .L0 
     /tmp/cchcTNVL.s:252    .text:00000000000000ac _ZN9SemaphoreD1Ev
     /tmp/cchcTNVL.s:361    .text:0000000000000124 _Znwm
     /tmp/cchcTNVL.s:364    .text:0000000000000124 .L0 
     /tmp/cchcTNVL.s:366    .text:0000000000000124 .L0 
     /tmp/cchcTNVL.s:367    .text:0000000000000128 .L0 
     /tmp/cchcTNVL.s:370    .text:0000000000000130 .L0 
     /tmp/cchcTNVL.s:371    .text:0000000000000130 .L0 
     /tmp/cchcTNVL.s:373    .text:0000000000000134 .L0 
     /tmp/cchcTNVL.s:375    .text:0000000000000134 .L0 
     /tmp/cchcTNVL.s:376    .text:0000000000000134 .L0 
     /tmp/cchcTNVL.s:379    .text:000000000000013c .L0 
     /tmp/cchcTNVL.s:380    .text:0000000000000140 .L0 
     /tmp/cchcTNVL.s:382    .text:0000000000000144 .L0 
     /tmp/cchcTNVL.s:383    .text:0000000000000144 .L0 
     /tmp/cchcTNVL.s:385    .text:0000000000000148 .L0 
     /tmp/cchcTNVL.s:387    .text:000000000000014c .L0 
     /tmp/cchcTNVL.s:393    .text:000000000000014c _Znam
     /tmp/cchcTNVL.s:396    .text:000000000000014c .L0 
     /tmp/cchcTNVL.s:398    .text:000000000000014c .L0 
     /tmp/cchcTNVL.s:399    .text:0000000000000150 .L0 
     /tmp/cchcTNVL.s:402    .text:0000000000000158 .L0 
     /tmp/cchcTNVL.s:403    .text:0000000000000158 .L0 
     /tmp/cchcTNVL.s:405    .text:000000000000015c .L0 
     /tmp/cchcTNVL.s:407    .text:000000000000015c .L0 
     /tmp/cchcTNVL.s:408    .text:000000000000015c .L0 
     /tmp/cchcTNVL.s:411    .text:0000000000000164 .L0 
     /tmp/cchcTNVL.s:412    .text:0000000000000168 .L0 
     /tmp/cchcTNVL.s:414    .text:000000000000016c .L0 
     /tmp/cchcTNVL.s:415    .text:000000000000016c .L0 
     /tmp/cchcTNVL.s:417    .text:0000000000000170 .L0 
     /tmp/cchcTNVL.s:419    .text:0000000000000174 .L0 
     /tmp/cchcTNVL.s:425    .text:0000000000000174 _ZdlPv
     /tmp/cchcTNVL.s:428    .text:0000000000000174 .L0 
     /tmp/cchcTNVL.s:432    .text:0000000000000174 .L0 
     /tmp/cchcTNVL.s:433    .text:0000000000000178 .L0 
     /tmp/cchcTNVL.s:436    .text:0000000000000180 .L0 
     /tmp/cchcTNVL.s:437    .text:0000000000000180 .L0 
     /tmp/cchcTNVL.s:439    .text:0000000000000184 .L0 
GAS LISTING /tmp/cchcTNVL.s 			page 36


     /tmp/cchcTNVL.s:441    .text:0000000000000184 .L0 
     /tmp/cchcTNVL.s:442    .text:0000000000000184 .L0 
     /tmp/cchcTNVL.s:445    .text:000000000000018c .L0 
     /tmp/cchcTNVL.s:446    .text:0000000000000190 .L0 
     /tmp/cchcTNVL.s:448    .text:0000000000000194 .L0 
     /tmp/cchcTNVL.s:449    .text:0000000000000194 .L0 
     /tmp/cchcTNVL.s:451    .text:0000000000000198 .L0 
     /tmp/cchcTNVL.s:453    .text:000000000000019c .L0 
     /tmp/cchcTNVL.s:466    .text:000000000000019c _ZN6ThreadD0Ev
     /tmp/cchcTNVL.s:469    .text:000000000000019c .L0 
     /tmp/cchcTNVL.s:471    .text:000000000000019c .L0 
     /tmp/cchcTNVL.s:472    .text:00000000000001a0 .L0 
     /tmp/cchcTNVL.s:476    .text:00000000000001ac .L0 
     /tmp/cchcTNVL.s:477    .text:00000000000001ac .L0 
     /tmp/cchcTNVL.s:478    .text:00000000000001ac .L0 
     /tmp/cchcTNVL.s:480    .text:00000000000001b0 .L0 
     /tmp/cchcTNVL.s:483    .text:00000000000001b4 .L0 
     /tmp/cchcTNVL.s:489    .text:00000000000001cc .L0 
     /tmp/cchcTNVL.s:491    .text:00000000000001d0 .L0 
     /tmp/cchcTNVL.s:492    .text:00000000000001d0 .L0 
     /tmp/cchcTNVL.s:494    .text:00000000000001d4 .L0 
     /tmp/cchcTNVL.s:497    .text:00000000000001d8 .L0 
     /tmp/cchcTNVL.s:499    .text:00000000000001dc .L0 
     /tmp/cchcTNVL.s:506    .text._ZN14PeriodicThreadD0Ev:0000000000000000 _ZN14PeriodicThreadD0Ev
     /tmp/cchcTNVL.s:509    .text._ZN14PeriodicThreadD0Ev:0000000000000000 .L0 
     /tmp/cchcTNVL.s:511    .text._ZN14PeriodicThreadD0Ev:0000000000000000 .L0 
     /tmp/cchcTNVL.s:512    .text._ZN14PeriodicThreadD0Ev:0000000000000004 .L0 
     /tmp/cchcTNVL.s:516    .text._ZN14PeriodicThreadD0Ev:0000000000000010 .L0 
     /tmp/cchcTNVL.s:517    .text._ZN14PeriodicThreadD0Ev:0000000000000010 .L0 
     /tmp/cchcTNVL.s:518    .text._ZN14PeriodicThreadD0Ev:0000000000000010 .L0 
     /tmp/cchcTNVL.s:520    .text._ZN14PeriodicThreadD0Ev:0000000000000014 .L0 
     /tmp/cchcTNVL.s:526    .text._ZN14PeriodicThreadD0Ev:0000000000000018 .L0 
     /tmp/cchcTNVL.s:536    .text._ZN14PeriodicThreadD0Ev:000000000000003c .L0 
     /tmp/cchcTNVL.s:538    .text._ZN14PeriodicThreadD0Ev:0000000000000040 .L0 
     /tmp/cchcTNVL.s:539    .text._ZN14PeriodicThreadD0Ev:0000000000000040 .L0 
     /tmp/cchcTNVL.s:541    .text._ZN14PeriodicThreadD0Ev:0000000000000044 .L0 
     /tmp/cchcTNVL.s:544    .text._ZN14PeriodicThreadD0Ev:0000000000000048 .L0 
     /tmp/cchcTNVL.s:546    .text._ZN14PeriodicThreadD0Ev:000000000000004c .L0 
     /tmp/cchcTNVL.s:553    .text:00000000000001dc _ZN9SemaphoreD0Ev
     /tmp/cchcTNVL.s:556    .text:00000000000001dc .L0 
     /tmp/cchcTNVL.s:558    .text:00000000000001dc .L0 
     /tmp/cchcTNVL.s:559    .text:00000000000001e0 .L0 
     /tmp/cchcTNVL.s:563    .text:00000000000001ec .L0 
     /tmp/cchcTNVL.s:564    .text:00000000000001ec .L0 
     /tmp/cchcTNVL.s:565    .text:00000000000001ec .L0 
     /tmp/cchcTNVL.s:567    .text:00000000000001f0 .L0 
     /tmp/cchcTNVL.s:570    .text:00000000000001f4 .L0 
     /tmp/cchcTNVL.s:576    .text:000000000000020c .L0 
     /tmp/cchcTNVL.s:578    .text:0000000000000210 .L0 
     /tmp/cchcTNVL.s:579    .text:0000000000000210 .L0 
     /tmp/cchcTNVL.s:581    .text:0000000000000214 .L0 
     /tmp/cchcTNVL.s:584    .text:0000000000000218 .L0 
     /tmp/cchcTNVL.s:586    .text:000000000000021c .L0 
     /tmp/cchcTNVL.s:592    .text:000000000000021c _ZdaPv
     /tmp/cchcTNVL.s:595    .text:000000000000021c .L0 
     /tmp/cchcTNVL.s:599    .text:000000000000021c .L0 
     /tmp/cchcTNVL.s:600    .text:0000000000000220 .L0 
GAS LISTING /tmp/cchcTNVL.s 			page 37


     /tmp/cchcTNVL.s:603    .text:0000000000000228 .L0 
     /tmp/cchcTNVL.s:604    .text:0000000000000228 .L0 
     /tmp/cchcTNVL.s:606    .text:000000000000022c .L0 
     /tmp/cchcTNVL.s:608    .text:000000000000022c .L0 
     /tmp/cchcTNVL.s:609    .text:000000000000022c .L0 
     /tmp/cchcTNVL.s:612    .text:0000000000000234 .L0 
     /tmp/cchcTNVL.s:613    .text:0000000000000238 .L0 
     /tmp/cchcTNVL.s:615    .text:000000000000023c .L0 
     /tmp/cchcTNVL.s:616    .text:000000000000023c .L0 
     /tmp/cchcTNVL.s:618    .text:0000000000000240 .L0 
     /tmp/cchcTNVL.s:620    .text:0000000000000244 .L0 
     /tmp/cchcTNVL.s:633    .text:0000000000000244 _ZN6ThreadC2EPFvPvES0_
     /tmp/cchcTNVL.s:636    .text:0000000000000244 .L0 
     /tmp/cchcTNVL.s:638    .text:0000000000000244 .L0 
     /tmp/cchcTNVL.s:639    .text:0000000000000248 .L0 
     /tmp/cchcTNVL.s:645    .text:000000000000025c .L0 
     /tmp/cchcTNVL.s:646    .text:000000000000025c .L0 
     /tmp/cchcTNVL.s:647    .text:000000000000025c .L0 
     /tmp/cchcTNVL.s:648    .text:000000000000025c .L0 
     /tmp/cchcTNVL.s:649    .text:000000000000025c .L0 
     /tmp/cchcTNVL.s:651    .text:0000000000000260 .L0 
     /tmp/cchcTNVL.s:657    .text:000000000000026c .L0 
     /tmp/cchcTNVL.s:661    .text:0000000000000278 .L0 
     /tmp/cchcTNVL.s:662    .text:0000000000000278 .L0 
     /tmp/cchcTNVL.s:664    .text:000000000000027c .L0 
     /tmp/cchcTNVL.s:665    .text:000000000000027c .L0 
     /tmp/cchcTNVL.s:668    .text:0000000000000280 .L0 
     /tmp/cchcTNVL.s:669    .text:0000000000000280 .L0 
     /tmp/cchcTNVL.s:672    .text:000000000000028c .L0 
     /tmp/cchcTNVL.s:673    .text:000000000000028c .L0 
     /tmp/cchcTNVL.s:681    .text:000000000000029c .L0 
 src/syscall_cpp.cpp:42     .text:000000000000029c .L0 
     /tmp/cchcTNVL.s:687    .text:00000000000002a0 .L0 
 src/syscall_cpp.cpp:43     .text:00000000000002a0 .L0 
     /tmp/cchcTNVL.s:692    .text:00000000000002a4 .L0 
 src/syscall_cpp.cpp:45     .text:00000000000002a4 .L0 
     /tmp/cchcTNVL.s:697    .text:00000000000002a8 .L0 
     /tmp/cchcTNVL.s:699    .text:00000000000002a8 .L0 
 src/syscall_cpp.cpp:46     .text:00000000000002ac .L0 
     /tmp/cchcTNVL.s:707    .text:00000000000002b0 .L0 
 src/syscall_cpp.cpp:47     .text:00000000000002b0 .L0 
     /tmp/cchcTNVL.s:712    .text:00000000000002b4 .L0 
 src/syscall_cpp.cpp:54     .text:00000000000002b4 .L0 
     /tmp/cchcTNVL.s:720    .text:00000000000002b8 .L0 
     /tmp/cchcTNVL.s:721    .text:00000000000002bc .L0 
     /tmp/cchcTNVL.s:722    .text:00000000000002bc .L0 
     /tmp/cchcTNVL.s:724    .text:00000000000002c0 .L0 
     /tmp/cchcTNVL.s:725    .text:00000000000002c0 .L0 
     /tmp/cchcTNVL.s:727    .text:00000000000002c4 .L0 
     /tmp/cchcTNVL.s:730    .text:00000000000002c8 .L0 
     /tmp/cchcTNVL.s:733    .text:00000000000002cc .L0 
     /tmp/cchcTNVL.s:736    .text:00000000000002d0 .L0 
     /tmp/cchcTNVL.s:740    .text:00000000000002d4 .L0 
     /tmp/cchcTNVL.s:744    .text:00000000000002d4 .L0 
     /tmp/cchcTNVL.s:748    .text:00000000000002dc .L0 
     /tmp/cchcTNVL.s:633    .text:0000000000000244 _ZN6ThreadC1EPFvPvES0_
     /tmp/cchcTNVL.s:756    .text:00000000000002dc _ZN6Thread5startEv
GAS LISTING /tmp/cchcTNVL.s 			page 38


     /tmp/cchcTNVL.s:759    .text:00000000000002dc .L0 
     /tmp/cchcTNVL.s:761    .text:00000000000002dc .L0 
     /tmp/cchcTNVL.s:762    .text:00000000000002e0 .L0 
     /tmp/cchcTNVL.s:764    .text:00000000000002e4 .L0 
     /tmp/cchcTNVL.s:766    .text:00000000000002e8 .L0 
     /tmp/cchcTNVL.s:768    .text:00000000000002e8 .L0 
     /tmp/cchcTNVL.s:769    .text:00000000000002e8 .L0 
     /tmp/cchcTNVL.s:771    .text:00000000000002ec .L0 
     /tmp/cchcTNVL.s:773    .text:00000000000002f0 .L0 
 src/syscall_cpp.cpp:65     .text:00000000000002f0 .L0 
     /tmp/cchcTNVL.s:780    .text:00000000000002f4 .L0 
 src/syscall_cpp.cpp:66     .text:00000000000002f4 .L0 
     /tmp/cchcTNVL.s:785    .text:00000000000002f8 .L0 
 src/syscall_cpp.cpp:68     .text:00000000000002f8 .L0 
     /tmp/cchcTNVL.s:790    .text:00000000000002fc .L0 
     /tmp/cchcTNVL.s:792    .text:00000000000002fc .L0 
     /tmp/cchcTNVL.s:795    .text:0000000000000300 .L0 
     /tmp/cchcTNVL.s:796    .text:0000000000000304 .L0 
     /tmp/cchcTNVL.s:797    .text:0000000000000304 .L0 
     /tmp/cchcTNVL.s:798    .text:0000000000000304 .L0 
     /tmp/cchcTNVL.s:800    .text:0000000000000308 .L0 
     /tmp/cchcTNVL.s:804    .text:000000000000030c .L0 
     /tmp/cchcTNVL.s:806    .text:000000000000030c .L0 
     /tmp/cchcTNVL.s:809    .text:0000000000000314 .L0 
     /tmp/cchcTNVL.s:815    .text:0000000000000314 _ZN6Thread4joinEv
     /tmp/cchcTNVL.s:818    .text:0000000000000314 .L0 
     /tmp/cchcTNVL.s:820    .text:0000000000000314 .L0 
     /tmp/cchcTNVL.s:821    .text:0000000000000318 .L0 
     /tmp/cchcTNVL.s:824    .text:0000000000000320 .L0 
     /tmp/cchcTNVL.s:825    .text:0000000000000320 .L0 
     /tmp/cchcTNVL.s:827    .text:0000000000000324 .L0 
     /tmp/cchcTNVL.s:829    .text:0000000000000324 .L0 
     /tmp/cchcTNVL.s:830    .text:0000000000000324 .L0 
     /tmp/cchcTNVL.s:835    .text:0000000000000330 .L0 
     /tmp/cchcTNVL.s:836    .text:0000000000000334 .L0 
     /tmp/cchcTNVL.s:838    .text:0000000000000338 .L0 
     /tmp/cchcTNVL.s:839    .text:0000000000000338 .L0 
     /tmp/cchcTNVL.s:841    .text:000000000000033c .L0 
     /tmp/cchcTNVL.s:843    .text:0000000000000340 .L0 
     /tmp/cchcTNVL.s:849    .text:0000000000000340 _ZN6Thread8dispatchEv
     /tmp/cchcTNVL.s:852    .text:0000000000000340 .L0 
     /tmp/cchcTNVL.s:853    .text:0000000000000340 .L0 
     /tmp/cchcTNVL.s:854    .text:0000000000000344 .L0 
     /tmp/cchcTNVL.s:857    .text:000000000000034c .L0 
     /tmp/cchcTNVL.s:858    .text:000000000000034c .L0 
     /tmp/cchcTNVL.s:860    .text:0000000000000350 .L0 
     /tmp/cchcTNVL.s:862    .text:0000000000000350 .L0 
     /tmp/cchcTNVL.s:863    .text:0000000000000350 .L0 
     /tmp/cchcTNVL.s:866    .text:0000000000000358 .L0 
     /tmp/cchcTNVL.s:867    .text:000000000000035c .L0 
     /tmp/cchcTNVL.s:869    .text:0000000000000360 .L0 
     /tmp/cchcTNVL.s:870    .text:0000000000000360 .L0 
     /tmp/cchcTNVL.s:872    .text:0000000000000364 .L0 
     /tmp/cchcTNVL.s:874    .text:0000000000000368 .L0 
     /tmp/cchcTNVL.s:880    .text:0000000000000368 _ZN6Thread5sleepEm
     /tmp/cchcTNVL.s:883    .text:0000000000000368 .L0 
     /tmp/cchcTNVL.s:885    .text:0000000000000368 .L0 
GAS LISTING /tmp/cchcTNVL.s 			page 39


     /tmp/cchcTNVL.s:886    .text:000000000000036c .L0 
     /tmp/cchcTNVL.s:889    .text:0000000000000374 .L0 
     /tmp/cchcTNVL.s:890    .text:0000000000000374 .L0 
     /tmp/cchcTNVL.s:892    .text:0000000000000378 .L0 
     /tmp/cchcTNVL.s:894    .text:0000000000000378 .L0 
     /tmp/cchcTNVL.s:895    .text:0000000000000378 .L0 
     /tmp/cchcTNVL.s:898    .text:0000000000000380 .L0 
     /tmp/cchcTNVL.s:899    .text:0000000000000380 .L0 
     /tmp/cchcTNVL.s:901    .text:0000000000000388 .L0 
     /tmp/cchcTNVL.s:903    .text:000000000000038c .L0 
     /tmp/cchcTNVL.s:904    .text:000000000000038c .L0 
     /tmp/cchcTNVL.s:906    .text:0000000000000390 .L0 
     /tmp/cchcTNVL.s:908    .text:0000000000000394 .L0 
     /tmp/cchcTNVL.s:914    .text:0000000000000394 _ZN14PeriodicThread3runEv
     /tmp/cchcTNVL.s:917    .text:0000000000000394 .L0 
     /tmp/cchcTNVL.s:919    .text:0000000000000394 .L0 
     /tmp/cchcTNVL.s:920    .text:0000000000000398 .L0 
     /tmp/cchcTNVL.s:924    .text:00000000000003a4 .L0 
     /tmp/cchcTNVL.s:925    .text:00000000000003a4 .L0 
     /tmp/cchcTNVL.s:926    .text:00000000000003a4 .L0 
     /tmp/cchcTNVL.s:928    .text:00000000000003a8 .L0 
     /tmp/cchcTNVL.s:933    .text:00000000000003ac .L0 
     /tmp/cchcTNVL.s:934    .text:00000000000003ac .L0 
     /tmp/cchcTNVL.s:935    .text:00000000000003ac .L0 
     /tmp/cchcTNVL.s:937    .text:00000000000003b0 .L0 
     /tmp/cchcTNVL.s:940    .text:00000000000003b8 .L0 
     /tmp/cchcTNVL.s:941    .text:00000000000003b8 .L0 
     /tmp/cchcTNVL.s:944    .text:00000000000003c0 .L0 
     /tmp/cchcTNVL.s:948    .text:00000000000003c8 .L0 
     /tmp/cchcTNVL.s:949    .text:00000000000003c8 .L0 
     /tmp/cchcTNVL.s:951    .text:00000000000003cc .L0 
     /tmp/cchcTNVL.s:954    .text:00000000000003d4 .L0 
     /tmp/cchcTNVL.s:955    .text:00000000000003d4 .L0 
     /tmp/cchcTNVL.s:958    .text:00000000000003dc .L0 
     /tmp/cchcTNVL.s:961    .text:00000000000003e0 .L0 
     /tmp/cchcTNVL.s:962    .text:00000000000003e0 .L0 
     /tmp/cchcTNVL.s:965    .text:00000000000003e8 .L0 
     /tmp/cchcTNVL.s:966    .text:00000000000003ec .L0 
     /tmp/cchcTNVL.s:968    .text:00000000000003f0 .L0 
     /tmp/cchcTNVL.s:969    .text:00000000000003f0 .L0 
     /tmp/cchcTNVL.s:971    .text:00000000000003f4 .L0 
     /tmp/cchcTNVL.s:974    .text:00000000000003f8 .L0 
     /tmp/cchcTNVL.s:976    .text:00000000000003fc .L0 
     /tmp/cchcTNVL.s:982    .text:00000000000003fc _ZN6ThreadC2Ev
     /tmp/cchcTNVL.s:985    .text:00000000000003fc .L0 
     /tmp/cchcTNVL.s:987    .text:00000000000003fc .L0 
     /tmp/cchcTNVL.s:988    .text:0000000000000400 .L0 
     /tmp/cchcTNVL.s:992    .text:000000000000040c .L0 
     /tmp/cchcTNVL.s:993    .text:000000000000040c .L0 
     /tmp/cchcTNVL.s:994    .text:000000000000040c .L0 
     /tmp/cchcTNVL.s:996    .text:0000000000000410 .L0 
     /tmp/cchcTNVL.s:1000   .text:0000000000000414 .L0 
     /tmp/cchcTNVL.s:1004   .text:0000000000000420 .L0 
     /tmp/cchcTNVL.s:1005   .text:0000000000000420 .L0 
     /tmp/cchcTNVL.s:1008   .text:000000000000042c .L0 
     /tmp/cchcTNVL.s:1009   .text:000000000000042c .L0 
     /tmp/cchcTNVL.s:1011   .text:0000000000000430 .L0 
GAS LISTING /tmp/cchcTNVL.s 			page 40


     /tmp/cchcTNVL.s:1012   .text:0000000000000430 .L0 
     /tmp/cchcTNVL.s:1019   .text:0000000000000440 .L0 
 src/syscall_cpp.cpp:91     .text:0000000000000440 .L0 
     /tmp/cchcTNVL.s:1025   .text:0000000000000444 .L0 
     /tmp/cchcTNVL.s:1027   .text:0000000000000444 .L0 
 src/syscall_cpp.cpp:92     .text:0000000000000448 .L0 
     /tmp/cchcTNVL.s:1035   .text:000000000000044c .L0 
     /tmp/cchcTNVL.s:1037   .text:000000000000044c .L0 
 src/syscall_cpp.cpp:94     .text:0000000000000450 .L0 
     /tmp/cchcTNVL.s:1044   .text:0000000000000454 .L0 
     /tmp/cchcTNVL.s:1046   .text:0000000000000454 .L0 
 src/syscall_cpp.cpp:95     .text:0000000000000458 .L0 
     /tmp/cchcTNVL.s:1054   .text:000000000000045c .L0 
 src/syscall_cpp.cpp:96     .text:000000000000045c .L0 
     /tmp/cchcTNVL.s:1059   .text:0000000000000460 .L0 
 src/syscall_cpp.cpp:103    .text:0000000000000460 .L0 
     /tmp/cchcTNVL.s:1067   .text:0000000000000464 .L0 
     /tmp/cchcTNVL.s:1068   .text:0000000000000468 .L0 
     /tmp/cchcTNVL.s:1070   .text:000000000000046c .L0 
     /tmp/cchcTNVL.s:1071   .text:000000000000046c .L0 
     /tmp/cchcTNVL.s:1073   .text:0000000000000470 .L0 
     /tmp/cchcTNVL.s:1076   .text:0000000000000474 .L0 
     /tmp/cchcTNVL.s:1078   .text:0000000000000478 .L0 
     /tmp/cchcTNVL.s:982    .text:00000000000003fc _ZN6ThreadC1Ev
     /tmp/cchcTNVL.s:1086   .text:0000000000000478 _ZN9SemaphoreC2Ej
     /tmp/cchcTNVL.s:1089   .text:0000000000000478 .L0 
     /tmp/cchcTNVL.s:1091   .text:0000000000000478 .L0 
     /tmp/cchcTNVL.s:1092   .text:000000000000047c .L0 
     /tmp/cchcTNVL.s:1095   .text:0000000000000484 .L0 
     /tmp/cchcTNVL.s:1096   .text:0000000000000484 .L0 
     /tmp/cchcTNVL.s:1098   .text:0000000000000488 .L0 
     /tmp/cchcTNVL.s:1101   .text:0000000000000488 .L0 
     /tmp/cchcTNVL.s:1104   .text:0000000000000494 .L0 
     /tmp/cchcTNVL.s:1105   .text:0000000000000494 .L0 
     /tmp/cchcTNVL.s:1111   .text:00000000000004a0 .L0 
     /tmp/cchcTNVL.s:1112   .text:00000000000004a4 .L0 
     /tmp/cchcTNVL.s:1114   .text:00000000000004a8 .L0 
     /tmp/cchcTNVL.s:1115   .text:00000000000004a8 .L0 
     /tmp/cchcTNVL.s:1117   .text:00000000000004ac .L0 
     /tmp/cchcTNVL.s:1119   .text:00000000000004b0 .L0 
     /tmp/cchcTNVL.s:1086   .text:0000000000000478 _ZN9SemaphoreC1Ej
     /tmp/cchcTNVL.s:1127   .text:00000000000004b0 _ZN9Semaphore4waitEv
     /tmp/cchcTNVL.s:1130   .text:00000000000004b0 .L0 
     /tmp/cchcTNVL.s:1132   .text:00000000000004b0 .L0 
     /tmp/cchcTNVL.s:1133   .text:00000000000004b4 .L0 
     /tmp/cchcTNVL.s:1136   .text:00000000000004bc .L0 
     /tmp/cchcTNVL.s:1137   .text:00000000000004bc .L0 
     /tmp/cchcTNVL.s:1139   .text:00000000000004c0 .L0 
     /tmp/cchcTNVL.s:1141   .text:00000000000004c0 .L0 
     /tmp/cchcTNVL.s:1142   .text:00000000000004c0 .L0 
     /tmp/cchcTNVL.s:1147   .text:00000000000004cc .L0 
     /tmp/cchcTNVL.s:1148   .text:00000000000004d0 .L0 
     /tmp/cchcTNVL.s:1150   .text:00000000000004d4 .L0 
     /tmp/cchcTNVL.s:1151   .text:00000000000004d4 .L0 
     /tmp/cchcTNVL.s:1153   .text:00000000000004d8 .L0 
     /tmp/cchcTNVL.s:1155   .text:00000000000004dc .L0 
     /tmp/cchcTNVL.s:1161   .text:00000000000004dc _ZN9Semaphore6signalEv
GAS LISTING /tmp/cchcTNVL.s 			page 41


     /tmp/cchcTNVL.s:1164   .text:00000000000004dc .L0 
     /tmp/cchcTNVL.s:1166   .text:00000000000004dc .L0 
     /tmp/cchcTNVL.s:1167   .text:00000000000004e0 .L0 
     /tmp/cchcTNVL.s:1170   .text:00000000000004e8 .L0 
     /tmp/cchcTNVL.s:1171   .text:00000000000004e8 .L0 
     /tmp/cchcTNVL.s:1173   .text:00000000000004ec .L0 
     /tmp/cchcTNVL.s:1175   .text:00000000000004ec .L0 
     /tmp/cchcTNVL.s:1176   .text:00000000000004ec .L0 
     /tmp/cchcTNVL.s:1181   .text:00000000000004f8 .L0 
     /tmp/cchcTNVL.s:1182   .text:00000000000004fc .L0 
     /tmp/cchcTNVL.s:1184   .text:0000000000000500 .L0 
     /tmp/cchcTNVL.s:1185   .text:0000000000000500 .L0 
     /tmp/cchcTNVL.s:1187   .text:0000000000000504 .L0 
     /tmp/cchcTNVL.s:1189   .text:0000000000000508 .L0 
     /tmp/cchcTNVL.s:1195   .text:0000000000000508 _ZN14PeriodicThread9terminateEv
     /tmp/cchcTNVL.s:1198   .text:0000000000000508 .L0 
     /tmp/cchcTNVL.s:1200   .text:0000000000000508 .L0 
     /tmp/cchcTNVL.s:1201   .text:000000000000050c .L0 
     /tmp/cchcTNVL.s:1203   .text:0000000000000510 .L0 
     /tmp/cchcTNVL.s:1205   .text:0000000000000514 .L0 
     /tmp/cchcTNVL.s:1207   .text:0000000000000514 .L0 
     /tmp/cchcTNVL.s:1208   .text:0000000000000514 .L0 
     /tmp/cchcTNVL.s:1211   .text:000000000000051c .L0 
     /tmp/cchcTNVL.s:1212   .text:0000000000000520 .L0 
     /tmp/cchcTNVL.s:1213   .text:0000000000000520 .L0 
     /tmp/cchcTNVL.s:1215   .text:0000000000000524 .L0 
     /tmp/cchcTNVL.s:1217   .text:0000000000000528 .L0 
     /tmp/cchcTNVL.s:1223   .text:0000000000000528 _ZN14PeriodicThreadC2Em
     /tmp/cchcTNVL.s:1226   .text:0000000000000528 .L0 
     /tmp/cchcTNVL.s:1228   .text:0000000000000528 .L0 
     /tmp/cchcTNVL.s:1229   .text:000000000000052c .L0 
     /tmp/cchcTNVL.s:1234   .text:000000000000053c .L0 
     /tmp/cchcTNVL.s:1235   .text:000000000000053c .L0 
     /tmp/cchcTNVL.s:1236   .text:000000000000053c .L0 
     /tmp/cchcTNVL.s:1237   .text:000000000000053c .L0 
     /tmp/cchcTNVL.s:1239   .text:0000000000000540 .L0 
     /tmp/cchcTNVL.s:1244   .text:0000000000000548 .L0 
     /tmp/cchcTNVL.s:1251   .text:0000000000000560 .L0 
     /tmp/cchcTNVL.s:1252   .text:0000000000000560 .L0 
     /tmp/cchcTNVL.s:1253   .text:0000000000000564 .L0 
     /tmp/cchcTNVL.s:1255   .text:0000000000000568 .L0 
     /tmp/cchcTNVL.s:1256   .text:0000000000000568 .L0 
     /tmp/cchcTNVL.s:1258   .text:000000000000056c .L0 
     /tmp/cchcTNVL.s:1261   .text:0000000000000570 .L0 
     /tmp/cchcTNVL.s:1264   .text:0000000000000574 .L0 
     /tmp/cchcTNVL.s:1266   .text:0000000000000578 .L0 
     /tmp/cchcTNVL.s:1223   .text:0000000000000528 _ZN14PeriodicThreadC1Em
     /tmp/cchcTNVL.s:1274   .text:0000000000000578 _ZN7Console4getcEv
     /tmp/cchcTNVL.s:1277   .text:0000000000000578 .L0 
     /tmp/cchcTNVL.s:1278   .text:0000000000000578 .L0 
     /tmp/cchcTNVL.s:1279   .text:000000000000057c .L0 
     /tmp/cchcTNVL.s:1282   .text:0000000000000584 .L0 
     /tmp/cchcTNVL.s:1283   .text:0000000000000584 .L0 
     /tmp/cchcTNVL.s:1285   .text:0000000000000588 .L0 
     /tmp/cchcTNVL.s:1287   .text:0000000000000588 .L0 
     /tmp/cchcTNVL.s:1288   .text:0000000000000588 .L0 
     /tmp/cchcTNVL.s:1291   .text:0000000000000590 .L0 
GAS LISTING /tmp/cchcTNVL.s 			page 42


     /tmp/cchcTNVL.s:1292   .text:0000000000000594 .L0 
     /tmp/cchcTNVL.s:1294   .text:0000000000000598 .L0 
     /tmp/cchcTNVL.s:1295   .text:0000000000000598 .L0 
     /tmp/cchcTNVL.s:1297   .text:000000000000059c .L0 
     /tmp/cchcTNVL.s:1299   .text:00000000000005a0 .L0 
     /tmp/cchcTNVL.s:1305   .text:00000000000005a0 _ZN7Console4putcEc
     /tmp/cchcTNVL.s:1308   .text:00000000000005a0 .L0 
     /tmp/cchcTNVL.s:1310   .text:00000000000005a0 .L0 
     /tmp/cchcTNVL.s:1311   .text:00000000000005a4 .L0 
     /tmp/cchcTNVL.s:1314   .text:00000000000005ac .L0 
     /tmp/cchcTNVL.s:1315   .text:00000000000005ac .L0 
     /tmp/cchcTNVL.s:1317   .text:00000000000005b0 .L0 
     /tmp/cchcTNVL.s:1319   .text:00000000000005b0 .L0 
     /tmp/cchcTNVL.s:1320   .text:00000000000005b0 .L0 
     /tmp/cchcTNVL.s:1323   .text:00000000000005b8 .L0 
     /tmp/cchcTNVL.s:1324   .text:00000000000005bc .L0 
     /tmp/cchcTNVL.s:1326   .text:00000000000005c0 .L0 
     /tmp/cchcTNVL.s:1327   .text:00000000000005c0 .L0 
     /tmp/cchcTNVL.s:1329   .text:00000000000005c4 .L0 
     /tmp/cchcTNVL.s:1331   .text:00000000000005c8 .L0 
     /tmp/cchcTNVL.s:32     .text._ZN6Thread3runEv:0000000000000018 .L0 
     /tmp/cchcTNVL.s:57     .text._ZN14PeriodicThread18periodicActivationEv:0000000000000018 .L0 
     /tmp/cchcTNVL.s:1373   .text:00000000000005c8 .L0 
     /tmp/cchcTNVL.s:248    .text._ZN14PeriodicThreadD2Ev:0000000000000034 .L0 
     /tmp/cchcTNVL.s:549    .text._ZN14PeriodicThreadD0Ev:000000000000004c .L0 
     /tmp/cchcTNVL.s:123    .text:000000000000004c .L0 
     /tmp/cchcTNVL.s:272    .text:00000000000000c4 .L0 
     /tmp/cchcTNVL.s:657    .text:000000000000026c .L0 
     /tmp/cchcTNVL.s:669    .text:0000000000000280 .L0 
     /tmp/cchcTNVL.s:1000   .text:0000000000000414 .L0 
     /tmp/cchcTNVL.s:1005   .text:0000000000000420 .L0 
     /tmp/cchcTNVL.s:1101   .text:0000000000000488 .L0 
     /tmp/cchcTNVL.s:1246   .text:0000000000000550 .L0 
     /tmp/cchcTNVL.s:95     .text:0000000000000030 .L8
     /tmp/cchcTNVL.s:185    .text:0000000000000098 .L11
     /tmp/cchcTNVL.s:174    .text:000000000000008c .L13
     /tmp/cchcTNVL.s:137    .text:000000000000006c .L14
     /tmp/cchcTNVL.s:333    .text:0000000000000110 .L19
     /tmp/cchcTNVL.s:322    .text:0000000000000104 .L21
     /tmp/cchcTNVL.s:286    .text:00000000000000e4 .L22
     /tmp/cchcTNVL.s:739    .text:00000000000002d4 .L41
     /tmp/cchcTNVL.s:679    .text:000000000000029c .L40
     /tmp/cchcTNVL.s:803    .text:000000000000030c .L45
     /tmp/cchcTNVL.s:793    .text:0000000000000300 .L44
     /tmp/cchcTNVL.s:959    .text:00000000000003e0 .L54
     /tmp/cchcTNVL.s:931    .text:00000000000003ac .L55
     /tmp/cchcTNVL.s:230    .text._ZN14PeriodicThreadD2Ev:0000000000000010 .L0 
     /tmp/cchcTNVL.s:526    .text._ZN14PeriodicThreadD0Ev:0000000000000018 .L0 
     /tmp/cchcTNVL.s:3832   .debug_abbrev:0000000000000000 .Ldebug_abbrev0
     /tmp/cchcTNVL.s:6181   .debug_str:0000000000000a14 .LASF210
     /tmp/cchcTNVL.s:5995   .debug_str:00000000000004c5 .LASF211
     /tmp/cchcTNVL.s:6127   .debug_str:000000000000089a .LASF212
     /tmp/cchcTNVL.s:5811   .debug_ranges:0000000000000000 .Ldebug_ranges0
     /tmp/cchcTNVL.s:5831   .debug_line:0000000000000000 .Ldebug_line0
     /tmp/cchcTNVL.s:6095   .debug_str:00000000000007c2 .LASF3
     /tmp/cchcTNVL.s:5983   .debug_str:000000000000046b .LASF0
     /tmp/cchcTNVL.s:6011   .debug_str:0000000000000545 .LASF1
GAS LISTING /tmp/cchcTNVL.s 			page 43


     /tmp/cchcTNVL.s:6109   .debug_str:0000000000000822 .LASF2
     /tmp/cchcTNVL.s:6121   .debug_str:0000000000000874 .LASF4
     /tmp/cchcTNVL.s:5997   .debug_str:00000000000004d9 .LASF5
     /tmp/cchcTNVL.s:5849   .debug_str:0000000000000090 .LASF6
     /tmp/cchcTNVL.s:6075   .debug_str:000000000000072d .LASF7
     /tmp/cchcTNVL.s:6069   .debug_str:00000000000006f2 .LASF8
     /tmp/cchcTNVL.s:6003   .debug_str:0000000000000515 .LASF9
     /tmp/cchcTNVL.s:5953   .debug_str:0000000000000376 .LASF10
     /tmp/cchcTNVL.s:5965   .debug_str:00000000000003e8 .LASF11
     /tmp/cchcTNVL.s:5889   .debug_str:00000000000001a7 .LASF12
     /tmp/cchcTNVL.s:5947   .debug_str:000000000000034a .LASF13
     /tmp/cchcTNVL.s:5905   .debug_str:0000000000000214 .LASF14
     /tmp/cchcTNVL.s:5887   .debug_str:0000000000000197 .LASF15
     /tmp/cchcTNVL.s:6153   .debug_str:0000000000000972 .LASF16
     /tmp/cchcTNVL.s:5935   .debug_str:00000000000002d8 .LASF17
     /tmp/cchcTNVL.s:6143   .debug_str:0000000000000928 .LASF18
     /tmp/cchcTNVL.s:6229   .debug_str:0000000000000c19 .LASF19
     /tmp/cchcTNVL.s:6133   .debug_str:00000000000008d5 .LASF213
     /tmp/cchcTNVL.s:6079   .debug_str:0000000000000746 .LASF20
     /tmp/cchcTNVL.s:5919   .debug_str:000000000000028e .LASF21
     /tmp/cchcTNVL.s:6027   .debug_str:00000000000005bb .LASF22
     /tmp/cchcTNVL.s:5851   .debug_str:0000000000000097 .LASF23
     /tmp/cchcTNVL.s:5897   .debug_str:00000000000001d7 .LASF24
     /tmp/cchcTNVL.s:5877   .debug_str:0000000000000151 .LASF25
     /tmp/cchcTNVL.s:6159   .debug_str:000000000000098e .LASF105
     /tmp/cchcTNVL.s:5893   .debug_str:00000000000001bb .LASF26
     /tmp/cchcTNVL.s:5967   .debug_str:00000000000003f6 .LASF28
     /tmp/cchcTNVL.s:5985   .debug_str:0000000000000478 .LASF30
     /tmp/cchcTNVL.s:6025   .debug_str:00000000000005a7 .LASF32
     /tmp/cchcTNVL.s:6151   .debug_str:0000000000000965 .LASF27
     /tmp/cchcTNVL.s:6239   .debug_str:0000000000000c68 .LASF29
     /tmp/cchcTNVL.s:6063   .debug_str:00000000000006cb .LASF214
     /tmp/cchcTNVL.s:6255   .debug_str:0000000000000ce4 .LASF38
     /tmp/cchcTNVL.s:5999   .debug_str:00000000000004eb .LASF40
     /tmp/cchcTNVL.s:6019   .debug_str:0000000000000579 .LASF31
     /tmp/cchcTNVL.s:6091   .debug_str:000000000000079a .LASF33
     /tmp/cchcTNVL.s:5923   .debug_str:000000000000029a .LASF34
     /tmp/cchcTNVL.s:6117   .debug_str:000000000000084e .LASF35
     /tmp/cchcTNVL.s:6083   .debug_str:0000000000000769 .LASF36
     /tmp/cchcTNVL.s:6029   .debug_str:00000000000005c3 .LASF37
     /tmp/cchcTNVL.s:5955   .debug_str:0000000000000386 .LASF42
     /tmp/cchcTNVL.s:6139   .debug_str:00000000000008ff .LASF44
     /tmp/cchcTNVL.s:5835   .debug_str:000000000000002a .LASF39
     /tmp/cchcTNVL.s:6169   .debug_str:00000000000009b8 .LASF41
     /tmp/cchcTNVL.s:6207   .debug_str:0000000000000b9c .LASF43
     /tmp/cchcTNVL.s:6059   .debug_str:00000000000006a5 .LASF45
     /tmp/cchcTNVL.s:6205   .debug_str:0000000000000b91 .LASF46
     /tmp/cchcTNVL.s:5949   .debug_str:0000000000000359 .LASF47
     /tmp/cchcTNVL.s:6231   .debug_str:0000000000000c22 .LASF48
     /tmp/cchcTNVL.s:5945   .debug_str:0000000000000331 .LASF50
     /tmp/cchcTNVL.s:5925   .debug_str:00000000000002a7 .LASF49
     /tmp/cchcTNVL.s:5901   .debug_str:00000000000001ef .LASF51
     /tmp/cchcTNVL.s:6221   .debug_str:0000000000000bef .LASF52
     /tmp/cchcTNVL.s:5857   .debug_str:00000000000000ce .LASF53
     /tmp/cchcTNVL.s:6263   .debug_str:0000000000000d12 .LASF54
     /tmp/cchcTNVL.s:5961   .debug_str:00000000000003c9 .LASF55
     /tmp/cchcTNVL.s:5839   .debug_str:000000000000003a .LASF56
GAS LISTING /tmp/cchcTNVL.s 			page 44


     /tmp/cchcTNVL.s:6055   .debug_str:0000000000000690 .LASF57
     /tmp/cchcTNVL.s:6251   .debug_str:0000000000000cc0 .LASF215
     /tmp/cchcTNVL.s:6199   .debug_str:0000000000000b5f .LASF58
     /tmp/cchcTNVL.s:5885   .debug_str:0000000000000188 .LASF59
     /tmp/cchcTNVL.s:6257   .debug_str:0000000000000cea .LASF60
     /tmp/cchcTNVL.s:6215   .debug_str:0000000000000bca .LASF61
     /tmp/cchcTNVL.s:6187   .debug_str:0000000000000b02 .LASF62
     /tmp/cchcTNVL.s:6179   .debug_str:0000000000000a04 .LASF63
     /tmp/cchcTNVL.s:6067   .debug_str:00000000000006e6 .LASF64
     /tmp/cchcTNVL.s:5941   .debug_str:0000000000000315 .LASF65
     /tmp/cchcTNVL.s:6119   .debug_str:0000000000000866 .LASF66
     /tmp/cchcTNVL.s:6227   .debug_str:0000000000000c12 .LASF67
     /tmp/cchcTNVL.s:6177   .debug_str:00000000000009fc .LASF68
     /tmp/cchcTNVL.s:5881   .debug_str:000000000000016a .LASF69
     /tmp/cchcTNVL.s:5913   .debug_str:0000000000000253 .LASF99
     /tmp/cchcTNVL.s:5843   .debug_str:0000000000000052 .LASF101
     /tmp/cchcTNVL.s:6123   .debug_str:000000000000087b .LASF92
     /tmp/cchcTNVL.s:5845   .debug_str:000000000000007a .LASF94
     /tmp/cchcTNVL.s:6249   .debug_str:0000000000000cba .LASF70
     /tmp/cchcTNVL.s:6145   .debug_str:000000000000093e .LASF71
     /tmp/cchcTNVL.s:6009   .debug_str:000000000000053d .LASF72
     /tmp/cchcTNVL.s:6053   .debug_str:000000000000067d .LASF73
     /tmp/cchcTNVL.s:5927   .debug_str:00000000000002b0 .LASF74
     /tmp/cchcTNVL.s:5931   .debug_str:00000000000002bb .LASF75
     /tmp/cchcTNVL.s:6157   .debug_str:0000000000000987 .LASF76
     /tmp/cchcTNVL.s:5867   .debug_str:0000000000000123 .LASF77
     /tmp/cchcTNVL.s:6241   .debug_str:0000000000000c8a .LASF78
     /tmp/cchcTNVL.s:6045   .debug_str:000000000000063f .LASF79
     /tmp/cchcTNVL.s:5933   .debug_str:00000000000002cb .LASF80
     /tmp/cchcTNVL.s:6211   .debug_str:0000000000000bb6 .LASF81
     /tmp/cchcTNVL.s:5981   .debug_str:0000000000000465 .LASF82
     /tmp/cchcTNVL.s:6173   .debug_str:00000000000009d5 .LASF83
     /tmp/cchcTNVL.s:5841   .debug_str:000000000000004a .LASF84
     /tmp/cchcTNVL.s:5853   .debug_str:000000000000009f .LASF85
     /tmp/cchcTNVL.s:6237   .debug_str:0000000000000c5b .LASF86
     /tmp/cchcTNVL.s:6203   .debug_str:0000000000000b81 .LASF87
     /tmp/cchcTNVL.s:6113   .debug_str:000000000000083f .LASF88
     /tmp/cchcTNVL.s:6005   .debug_str:0000000000000528 .LASF89
     /tmp/cchcTNVL.s:6057   .debug_str:000000000000069d .LASF90
     /tmp/cchcTNVL.s:6219   .debug_str:0000000000000be7 .LASF91
     /tmp/cchcTNVL.s:5929   .debug_str:00000000000002b5 .LASF93
     /tmp/cchcTNVL.s:6197   .debug_str:0000000000000b52 .LASF95
     /tmp/cchcTNVL.s:6031   .debug_str:00000000000005d5 .LASF96
     /tmp/cchcTNVL.s:6247   .debug_str:0000000000000cb5 .LASF97
     /tmp/cchcTNVL.s:5917   .debug_str:000000000000027b .LASF98
     /tmp/cchcTNVL.s:6035   .debug_str:00000000000005e9 .LASF100
     /tmp/cchcTNVL.s:6245   .debug_str:0000000000000ca2 .LASF102
     /tmp/cchcTNVL.s:6165   .debug_str:00000000000009a9 .LASF103
     /tmp/cchcTNVL.s:6047   .debug_str:0000000000000655 .LASF104
     /tmp/cchcTNVL.s:5921   .debug_str:0000000000000295 .LASF106
     /tmp/cchcTNVL.s:6195   .debug_str:0000000000000b4d .LASF107
     /tmp/cchcTNVL.s:5891   .debug_str:00000000000001b6 .LASF108
     /tmp/cchcTNVL.s:5939   .debug_str:00000000000002f7 .LASF109
     /tmp/cchcTNVL.s:5915   .debug_str:0000000000000261 .LASF110
     /tmp/cchcTNVL.s:6081   .debug_str:000000000000074e .LASF152
     /tmp/cchcTNVL.s:6209   .debug_str:0000000000000bb0 .LASF111
     /tmp/cchcTNVL.s:6007   .debug_str:0000000000000538 .LASF112
GAS LISTING /tmp/cchcTNVL.s 			page 45


     /tmp/cchcTNVL.s:5863   .debug_str:00000000000000fb .LASF113
     /tmp/cchcTNVL.s:5959   .debug_str:00000000000003b1 .LASF114
     /tmp/cchcTNVL.s:6071   .debug_str:0000000000000705 .LASF139
     /tmp/cchcTNVL.s:6161   .debug_str:0000000000000996 .LASF115
     /tmp/cchcTNVL.s:5909   .debug_str:0000000000000239 .LASF116
     /tmp/cchcTNVL.s:5989   .debug_str:0000000000000493 .LASF117
     /tmp/cchcTNVL.s:5855   .debug_str:00000000000000b2 .LASF118
     /tmp/cchcTNVL.s:6013   .debug_str:0000000000000558 .LASF119
     /tmp/cchcTNVL.s:6043   .debug_str:0000000000000620 .LASF120
     /tmp/cchcTNVL.s:5875   .debug_str:0000000000000148 .LASF121
     /tmp/cchcTNVL.s:6041   .debug_str:0000000000000604 .LASF122
     /tmp/cchcTNVL.s:5907   .debug_str:0000000000000224 .LASF123
     /tmp/cchcTNVL.s:6233   .debug_str:0000000000000c30 .LASF124
     /tmp/cchcTNVL.s:6097   .debug_str:00000000000007c7 .LASF125
     /tmp/cchcTNVL.s:5899   .debug_str:00000000000001e0 .LASF126
     /tmp/cchcTNVL.s:6201   .debug_str:0000000000000b67 .LASF127
     /tmp/cchcTNVL.s:5991   .debug_str:000000000000049b .LASF128
     /tmp/cchcTNVL.s:6167   .debug_str:00000000000009ae .LASF129
     /tmp/cchcTNVL.s:5957   .debug_str:0000000000000391 .LASF130
     /tmp/cchcTNVL.s:6001   .debug_str:00000000000004fd .LASF131
     /tmp/cchcTNVL.s:5963   .debug_str:00000000000003d5 .LASF132
     /tmp/cchcTNVL.s:5833   .debug_str:0000000000000000 .LASF216
     /tmp/cchcTNVL.s:6125   .debug_str:0000000000000880 .LASF148
     /tmp/cchcTNVL.s:5871   .debug_str:000000000000013a .LASF133
     /tmp/cchcTNVL.s:6051   .debug_str:000000000000066d .LASF134
     /tmp/cchcTNVL.s:6217   .debug_str:0000000000000bcf .LASF217
     /tmp/cchcTNVL.s:5973   .debug_str:0000000000000434 .LASF135
     /tmp/cchcTNVL.s:5903   .debug_str:0000000000000202 .LASF136
     /tmp/cchcTNVL.s:6103   .debug_str:00000000000007f6 .LASF156
     /tmp/cchcTNVL.s:6267   .debug_str:0000000000000d28 .LASF137
     /tmp/cchcTNVL.s:6137   .debug_str:00000000000008f7 .LASF138
     /tmp/cchcTNVL.s:5943   .debug_str:0000000000000322 .LASF140
     /tmp/cchcTNVL.s:6017   .debug_str:0000000000000566 .LASF141
     /tmp/cchcTNVL.s:6171   .debug_str:00000000000009d0 .LASF142
     /tmp/cchcTNVL.s:6077   .debug_str:0000000000000734 .LASF143
     /tmp/cchcTNVL.s:6065   .debug_str:00000000000006d0 .LASF144
     /tmp/cchcTNVL.s:6015   .debug_str:0000000000000560 .LASF145
     /tmp/cchcTNVL.s:6183   .debug_str:0000000000000ad8 .LASF146
     /tmp/cchcTNVL.s:5993   .debug_str:00000000000004b6 .LASF147
     /tmp/cchcTNVL.s:5977   .debug_str:0000000000000444 .LASF149
     /tmp/cchcTNVL.s:5937   .debug_str:00000000000002ee .LASF150
     /tmp/cchcTNVL.s:5837   .debug_str:0000000000000035 .LASF151
     /tmp/cchcTNVL.s:6175   .debug_str:00000000000009e6 .LASF153
     /tmp/cchcTNVL.s:6147   .debug_str:0000000000000943 .LASF154
     /tmp/cchcTNVL.s:6101   .debug_str:00000000000007e1 .LASF155
     /tmp/cchcTNVL.s:6259   .debug_str:0000000000000cf0 .LASF157
     /tmp/cchcTNVL.s:6223   .debug_str:0000000000000bf7 .LASF158
     /tmp/cchcTNVL.s:6087   .debug_str:0000000000000785 .LASF159
     /tmp/cchcTNVL.s:6129   .debug_str:00000000000008b8 .LASF160
     /tmp/cchcTNVL.s:6189   .debug_str:0000000000000b0c .LASF161
     /tmp/cchcTNVL.s:6191   .debug_str:0000000000000b21 .LASF162
     /tmp/cchcTNVL.s:5979   .debug_str:0000000000000455 .LASF218
     /tmp/cchcTNVL.s:5951   .debug_str:0000000000000371 .LASF163
     /tmp/cchcTNVL.s:5847   .debug_str:0000000000000086 .LASF164
     /tmp/cchcTNVL.s:6269   .debug_str:0000000000000d3f .LASF165
     /tmp/cchcTNVL.s:507    .text._ZN14PeriodicThreadD0Ev:0000000000000000 .LFB78
     /tmp/cchcTNVL.s:547    .text._ZN14PeriodicThreadD0Ev:000000000000004c .LFE78
GAS LISTING /tmp/cchcTNVL.s 			page 46


     /tmp/cchcTNVL.s:5269   .debug_loc:0000000000000000 .LLST12
     /tmp/cchcTNVL.s:523    .text._ZN14PeriodicThreadD0Ev:0000000000000018 .LBB73
     /tmp/cchcTNVL.s:531    .text._ZN14PeriodicThreadD0Ev:000000000000002c .LBE73
     /tmp/cchcTNVL.s:5287   .debug_loc:000000000000004c .LLST13
     /tmp/cchcTNVL.s:529    .text._ZN14PeriodicThreadD0Ev:000000000000002c .LVL37
     /tmp/cchcTNVL.s:534    .text._ZN14PeriodicThreadD0Ev:0000000000000038 .LVL38
     /tmp/cchcTNVL.s:6107   .debug_str:000000000000080a .LASF166
     /tmp/cchcTNVL.s:216    .text._ZN14PeriodicThreadD2Ev:0000000000000000 .LFB76
     /tmp/cchcTNVL.s:244    .text._ZN14PeriodicThreadD2Ev:0000000000000034 .LFE76
     /tmp/cchcTNVL.s:5298   .debug_loc:0000000000000082 .LLST4
     /tmp/cchcTNVL.s:233    .text._ZN14PeriodicThreadD2Ev:0000000000000024 .LVL15
     /tmp/cchcTNVL.s:1306   .text:00000000000005a0 .LFB74
     /tmp/cchcTNVL.s:1332   .text:00000000000005c8 .LFE74
     /tmp/cchcTNVL.s:5312   .debug_loc:00000000000000bb .LLST32
     /tmp/cchcTNVL.s:1321   .text:00000000000005b8 .LVL95
     /tmp/cchcTNVL.s:1275   .text:0000000000000578 .LFB73
     /tmp/cchcTNVL.s:1300   .text:00000000000005a0 .LFE73
     /tmp/cchcTNVL.s:1289   .text:0000000000000590 .LVL93
     /tmp/cchcTNVL.s:915    .text:0000000000000394 .LFB72
     /tmp/cchcTNVL.s:977    .text:00000000000003fc .LFE72
     /tmp/cchcTNVL.s:5326   .debug_loc:00000000000000f4 .LLST23
     /tmp/cchcTNVL.s:946    .text:00000000000003c8 .LVL68
     /tmp/cchcTNVL.s:956    .text:00000000000003dc .LVL69
     /tmp/cchcTNVL.s:963    .text:00000000000003e8 .LVL70
     /tmp/cchcTNVL.s:6149   .debug_str:000000000000094d .LASF167
     /tmp/cchcTNVL.s:1224   .text:0000000000000528 .LFB70
     /tmp/cchcTNVL.s:1267   .text:0000000000000578 .LFE70
     /tmp/cchcTNVL.s:5344   .debug_loc:0000000000000140 .LLST30
     /tmp/cchcTNVL.s:5362   .debug_loc:000000000000018c .LLST31
     /tmp/cchcTNVL.s:1245   .text:0000000000000550 .LVL90
     /tmp/cchcTNVL.s:1196   .text:0000000000000508 .LFB68
     /tmp/cchcTNVL.s:1218   .text:0000000000000528 .LFE68
     /tmp/cchcTNVL.s:1162   .text:00000000000004dc .LFB67
     /tmp/cchcTNVL.s:1190   .text:0000000000000508 .LFE67
     /tmp/cchcTNVL.s:5381   .debug_loc:00000000000001d9 .LLST29
     /tmp/cchcTNVL.s:1179   .text:00000000000004f8 .LVL87
     /tmp/cchcTNVL.s:1128   .text:00000000000004b0 .LFB66
     /tmp/cchcTNVL.s:1156   .text:00000000000004dc .LFE66
     /tmp/cchcTNVL.s:5395   .debug_loc:0000000000000212 .LLST28
     /tmp/cchcTNVL.s:1145   .text:00000000000004cc .LVL84
     /tmp/cchcTNVL.s:6021   .debug_str:0000000000000586 .LASF168
     /tmp/cchcTNVL.s:554    .text:00000000000001dc .LFB65
     /tmp/cchcTNVL.s:587    .text:000000000000021c .LFE65
     /tmp/cchcTNVL.s:5409   .debug_loc:000000000000024b .LLST14
     /tmp/cchcTNVL.s:571    .text:00000000000001fc .LVL41
     /tmp/cchcTNVL.s:574    .text:0000000000000208 .LVL42
     /tmp/cchcTNVL.s:5859   .debug_str:00000000000000e0 .LASF169
     /tmp/cchcTNVL.s:253    .text:00000000000000ac .LFB63
     /tmp/cchcTNVL.s:347    .text:0000000000000124 .LFE63
     /tmp/cchcTNVL.s:5427   .debug_loc:0000000000000297 .LLST5
     /tmp/cchcTNVL.s:287    .text:00000000000000e4 .LBB65
     /tmp/cchcTNVL.s:328    .text:0000000000000104 .LBE65
     /tmp/cchcTNVL.s:288    .text:00000000000000e4 .LBB66
     /tmp/cchcTNVL.s:327    .text:0000000000000104 .LBE66
     /tmp/cchcTNVL.s:293    .text:00000000000000e4 .LBB68
     /tmp/cchcTNVL.s:299    .text:00000000000000e8 .LBE68
     /tmp/cchcTNVL.s:302    .text:00000000000000ec .LBB70
GAS LISTING /tmp/cchcTNVL.s 			page 47


     /tmp/cchcTNVL.s:325    .text:0000000000000104 .LBE70
     /tmp/cchcTNVL.s:5445   .debug_loc:00000000000002e3 .LLST6
     /tmp/cchcTNVL.s:314    .text:00000000000000f8 .LBB71
     /tmp/cchcTNVL.s:324    .text:0000000000000104 .LBE71
     /tmp/cchcTNVL.s:5452   .debug_loc:0000000000000306 .LLST7
     /tmp/cchcTNVL.s:319    .text:0000000000000100 .LVL23
     /tmp/cchcTNVL.s:279    .text:00000000000000dc .LVL18
     /tmp/cchcTNVL.s:332    .text:0000000000000110 .LVL24
     /tmp/cchcTNVL.s:5883   .debug_str:000000000000017b .LASF176
     /tmp/cchcTNVL.s:5869   .debug_str:0000000000000135 .LASF170
     /tmp/cchcTNVL.s:5895   .debug_str:00000000000001c5 .LASF171
     /tmp/cchcTNVL.s:1087   .text:0000000000000478 .LFB57
     /tmp/cchcTNVL.s:1120   .text:00000000000004b0 .LFE57
     /tmp/cchcTNVL.s:5459   .debug_loc:0000000000000329 .LLST26
     /tmp/cchcTNVL.s:5479   .debug_loc:0000000000000377 .LLST27
     /tmp/cchcTNVL.s:1108   .text:00000000000004a0 .LVL81
     /tmp/cchcTNVL.s:62     .text:0000000000000000 .LFB55
     /tmp/cchcTNVL.s:98     .text:0000000000000034 .LFE55
     /tmp/cchcTNVL.s:6105   .debug_str:0000000000000803 .LASF172
     /tmp/cchcTNVL.s:5493   .debug_loc:00000000000003b0 .LLST0
     /tmp/cchcTNVL.s:84     .text:0000000000000020 .LVL3
     /tmp/cchcTNVL.s:6111   .debug_str:0000000000000830 .LASF173
     /tmp/cchcTNVL.s:983    .text:00000000000003fc .LFB53
     /tmp/cchcTNVL.s:1079   .text:0000000000000478 .LFE53
     /tmp/cchcTNVL.s:5511   .debug_loc:00000000000003fc .LLST24
     /tmp/cchcTNVL.s:1015   .text:000000000000043c .LVL74
     /tmp/cchcTNVL.s:1002   .text:0000000000000420 .LBB80
     /tmp/cchcTNVL.s:1064   .text:0000000000000464 .LBE80
     /tmp/cchcTNVL.s:5535   .debug_loc:000000000000045d .LLST25
     /tmp/cchcTNVL.s:881    .text:0000000000000368 .LFB51
     /tmp/cchcTNVL.s:909    .text:0000000000000394 .LFE51
     /tmp/cchcTNVL.s:5542   .debug_loc:0000000000000480 .LLST22
     /tmp/cchcTNVL.s:896    .text:0000000000000380 .LVL65
     /tmp/cchcTNVL.s:850    .text:0000000000000340 .LFB50
     /tmp/cchcTNVL.s:875    .text:0000000000000368 .LFE50
     /tmp/cchcTNVL.s:864    .text:0000000000000358 .LVL63
     /tmp/cchcTNVL.s:816    .text:0000000000000314 .LFB49
     /tmp/cchcTNVL.s:844    .text:0000000000000340 .LFE49
     /tmp/cchcTNVL.s:5556   .debug_loc:00000000000004b9 .LLST21
     /tmp/cchcTNVL.s:833    .text:0000000000000330 .LVL62
     /tmp/cchcTNVL.s:757    .text:00000000000002dc .LFB48
     /tmp/cchcTNVL.s:810    .text:0000000000000314 .LFE48
     /tmp/cchcTNVL.s:5570   .debug_loc:00000000000004f2 .LLST20
     /tmp/cchcTNVL.s:6023   .debug_str:0000000000000598 .LASF174
     /tmp/cchcTNVL.s:467    .text:000000000000019c .LFB47
     /tmp/cchcTNVL.s:500    .text:00000000000001dc .LFE47
     /tmp/cchcTNVL.s:5595   .debug_loc:0000000000000554 .LLST11
     /tmp/cchcTNVL.s:484    .text:00000000000001bc .LVL32
     /tmp/cchcTNVL.s:487    .text:00000000000001c8 .LVL33
     /tmp/cchcTNVL.s:6243   .debug_str:0000000000000c93 .LASF175
     /tmp/cchcTNVL.s:104    .text:0000000000000034 .LFB45
     /tmp/cchcTNVL.s:199    .text:00000000000000ac .LFE45
     /tmp/cchcTNVL.s:5613   .debug_loc:00000000000005a0 .LLST1
     /tmp/cchcTNVL.s:138    .text:000000000000006c .LBB55
     /tmp/cchcTNVL.s:180    .text:000000000000008c .LBE55
     /tmp/cchcTNVL.s:139    .text:000000000000006c .LBB56
     /tmp/cchcTNVL.s:179    .text:000000000000008c .LBE56
GAS LISTING /tmp/cchcTNVL.s 			page 48


     /tmp/cchcTNVL.s:145    .text:000000000000006c .LBB58
     /tmp/cchcTNVL.s:151    .text:0000000000000070 .LBE58
     /tmp/cchcTNVL.s:154    .text:0000000000000074 .LBB60
     /tmp/cchcTNVL.s:177    .text:000000000000008c .LBE60
     /tmp/cchcTNVL.s:5631   .debug_loc:00000000000005ec .LLST2
     /tmp/cchcTNVL.s:166    .text:0000000000000080 .LBB61
     /tmp/cchcTNVL.s:176    .text:000000000000008c .LBE61
     /tmp/cchcTNVL.s:5638   .debug_loc:000000000000060f .LLST3
     /tmp/cchcTNVL.s:171    .text:0000000000000088 .LVL12
     /tmp/cchcTNVL.s:130    .text:0000000000000064 .LVL7
     /tmp/cchcTNVL.s:184    .text:0000000000000098 .LVL13
     /tmp/cchcTNVL.s:6039   .debug_str:00000000000005f8 .LASF177
     /tmp/cchcTNVL.s:6185   .debug_str:0000000000000aeb .LASF178
     /tmp/cchcTNVL.s:634    .text:0000000000000244 .LFB39
     /tmp/cchcTNVL.s:749    .text:00000000000002dc .LFE39
     /tmp/cchcTNVL.s:5645   .debug_loc:0000000000000632 .LLST16
     /tmp/cchcTNVL.s:5673   .debug_loc:00000000000006a6 .LLST17
     /tmp/cchcTNVL.s:5695   .debug_loc:0000000000000705 .LLST18
     /tmp/cchcTNVL.s:676    .text:0000000000000298 .LVL49
     /tmp/cchcTNVL.s:5717   .debug_loc:0000000000000764 .LLST19
     /tmp/cchcTNVL.s:6141   .debug_str:0000000000000915 .LASF179
     /tmp/cchcTNVL.s:5873   .debug_str:0000000000000141 .LASF180
     /tmp/cchcTNVL.s:593    .text:000000000000021c .LFB37
     /tmp/cchcTNVL.s:621    .text:0000000000000244 .LFE37
     /tmp/cchcTNVL.s:5734   .debug_loc:00000000000007af .LLST15
     /tmp/cchcTNVL.s:610    .text:0000000000000234 .LVL45
     /tmp/cchcTNVL.s:6061   .debug_str:00000000000006c4 .LASF181
     /tmp/cchcTNVL.s:426    .text:0000000000000174 .LFB36
     /tmp/cchcTNVL.s:454    .text:000000000000019c .LFE36
     /tmp/cchcTNVL.s:5748   .debug_loc:00000000000007e8 .LLST10
     /tmp/cchcTNVL.s:443    .text:000000000000018c .LVL30
     /tmp/cchcTNVL.s:5879   .debug_str:000000000000015a .LASF182
     /tmp/cchcTNVL.s:6163   .debug_str:00000000000009a3 .LASF183
     /tmp/cchcTNVL.s:394    .text:000000000000014c .LFB35
     /tmp/cchcTNVL.s:420    .text:0000000000000174 .LFE35
     /tmp/cchcTNVL.s:5911   .debug_str:000000000000024e .LASF184
     /tmp/cchcTNVL.s:5762   .debug_loc:0000000000000821 .LLST9
     /tmp/cchcTNVL.s:409    .text:0000000000000164 .LVL28
     /tmp/cchcTNVL.s:6213   .debug_str:0000000000000bc4 .LASF185
     /tmp/cchcTNVL.s:362    .text:0000000000000124 .LFB34
     /tmp/cchcTNVL.s:388    .text:000000000000014c .LFE34
     /tmp/cchcTNVL.s:5776   .debug_loc:000000000000085a .LLST8
     /tmp/cchcTNVL.s:377    .text:000000000000013c .LVL26
     /tmp/cchcTNVL.s:6115   .debug_str:0000000000000849 .LASF186
     /tmp/cchcTNVL.s:6193   .debug_str:0000000000000b38 .LASF187
     /tmp/cchcTNVL.s:37     .text._ZN14PeriodicThread18periodicActivationEv:0000000000000000 .LFB1
     /tmp/cchcTNVL.s:55     .text._ZN14PeriodicThread18periodicActivationEv:0000000000000018 .LFE1
     /tmp/cchcTNVL.s:11     .text._ZN6Thread3runEv:0000000000000000 .LFB0
     /tmp/cchcTNVL.s:30     .text._ZN6Thread3runEv:0000000000000018 .LFE0
     /tmp/cchcTNVL.s:6155   .debug_str:000000000000097e .LASF188
     /tmp/cchcTNVL.s:6225   .debug_str:0000000000000c09 .LASF189
     /tmp/cchcTNVL.s:5987   .debug_str:0000000000000482 .LASF190
     /tmp/cchcTNVL.s:6033   .debug_str:00000000000005dd .LASF191
     /tmp/cchcTNVL.s:6099   .debug_str:00000000000007cc .LASF192
     /tmp/cchcTNVL.s:5971   .debug_str:0000000000000429 .LASF193
     /tmp/cchcTNVL.s:6261   .debug_str:0000000000000d00 .LASF194
     /tmp/cchcTNVL.s:6265   .debug_str:0000000000000d1f .LASF195
GAS LISTING /tmp/cchcTNVL.s 			page 49


     /tmp/cchcTNVL.s:6253   .debug_str:0000000000000cd6 .LASF196
     /tmp/cchcTNVL.s:5975   .debug_str:000000000000043b .LASF197
     /tmp/cchcTNVL.s:5865   .debug_str:0000000000000110 .LASF198
     /tmp/cchcTNVL.s:6089   .debug_str:0000000000000790 .LASF199
     /tmp/cchcTNVL.s:6085   .debug_str:0000000000000771 .LASF200
     /tmp/cchcTNVL.s:5861   .debug_str:00000000000000f2 .LASF201
     /tmp/cchcTNVL.s:5969   .debug_str:000000000000041b .LASF202
     /tmp/cchcTNVL.s:6037   .debug_str:00000000000005ee .LASF203
     /tmp/cchcTNVL.s:6073   .debug_str:000000000000071d .LASF204
     /tmp/cchcTNVL.s:6131   .debug_str:00000000000008ca .LASF205
     /tmp/cchcTNVL.s:6235   .debug_str:0000000000000c46 .LASF206
     /tmp/cchcTNVL.s:6093   .debug_str:00000000000007b2 .LASF207
     /tmp/cchcTNVL.s:6135   .debug_str:00000000000008e2 .LASF208
     /tmp/cchcTNVL.s:6049   .debug_str:0000000000000661 .LASF209
     /tmp/cchcTNVL.s:510    .text._ZN14PeriodicThreadD0Ev:0000000000000000 .LVL35
     /tmp/cchcTNVL.s:542    .text._ZN14PeriodicThreadD0Ev:0000000000000044 .LVL39
     /tmp/cchcTNVL.s:522    .text._ZN14PeriodicThreadD0Ev:0000000000000018 .LVL36
     /tmp/cchcTNVL.s:219    .text._ZN14PeriodicThreadD2Ev:0000000000000000 .LVL14
     /tmp/cchcTNVL.s:1309   .text:00000000000005a0 .LVL94
     /tmp/cchcTNVL.s:918    .text:0000000000000394 .LVL66
     /tmp/cchcTNVL.s:930    .text:00000000000003ac .LVL67
     /tmp/cchcTNVL.s:972    .text:00000000000003f4 .LVL71
     /tmp/cchcTNVL.s:1227   .text:0000000000000528 .LVL89
     /tmp/cchcTNVL.s:1259   .text:000000000000056c .LVL91
     /tmp/cchcTNVL.s:1262   .text:0000000000000570 .LVL92
     /tmp/cchcTNVL.s:1165   .text:00000000000004dc .LVL85
     /tmp/cchcTNVL.s:1177   .text:00000000000004f0 .LVL86
     /tmp/cchcTNVL.s:1131   .text:00000000000004b0 .LVL82
     /tmp/cchcTNVL.s:1143   .text:00000000000004c4 .LVL83
     /tmp/cchcTNVL.s:557    .text:00000000000001dc .LVL40
     /tmp/cchcTNVL.s:582    .text:0000000000000214 .LVL43
     /tmp/cchcTNVL.s:258    .text:00000000000000ac .LVL16
     /tmp/cchcTNVL.s:277    .text:00000000000000d4 .LVL17
     /tmp/cchcTNVL.s:283    .text:00000000000000e0 .LVL19
     /tmp/cchcTNVL.s:304    .text:00000000000000ec .LVL21
     /tmp/cchcTNVL.s:313    .text:00000000000000f8 .LVL22
     /tmp/cchcTNVL.s:1090   .text:0000000000000478 .LVL79
     /tmp/cchcTNVL.s:1106   .text:0000000000000498 .LVL80
     /tmp/cchcTNVL.s:66     .text:0000000000000000 .LVL2
     /tmp/cchcTNVL.s:94     .text:0000000000000030 .LVL4
     /tmp/cchcTNVL.s:986    .text:00000000000003fc .LVL72
     /tmp/cchcTNVL.s:1013   .text:0000000000000434 .LVL73
     /tmp/cchcTNVL.s:1047   .text:0000000000000458 .LVL77
     /tmp/cchcTNVL.s:1074   .text:0000000000000470 .LVL78
     /tmp/cchcTNVL.s:1017   .text:0000000000000440 .LVL75
     /tmp/cchcTNVL.s:1028   .text:0000000000000448 .LVL76
     /tmp/cchcTNVL.s:884    .text:0000000000000368 .LVL64
     /tmp/cchcTNVL.s:819    .text:0000000000000314 .LVL60
     /tmp/cchcTNVL.s:831    .text:0000000000000328 .LVL61
     /tmp/cchcTNVL.s:760    .text:00000000000002dc .LVL56
     /tmp/cchcTNVL.s:778    .text:00000000000002f4 .LVL57
     /tmp/cchcTNVL.s:802    .text:000000000000030c .LVL58
     /tmp/cchcTNVL.s:807    .text:0000000000000310 .LVL59
     /tmp/cchcTNVL.s:470    .text:000000000000019c .LVL31
     /tmp/cchcTNVL.s:495    .text:00000000000001d4 .LVL34
     /tmp/cchcTNVL.s:109    .text:0000000000000034 .LVL5
     /tmp/cchcTNVL.s:128    .text:000000000000005c .LVL6
GAS LISTING /tmp/cchcTNVL.s 			page 50


     /tmp/cchcTNVL.s:134    .text:0000000000000068 .LVL8
     /tmp/cchcTNVL.s:156    .text:0000000000000074 .LVL10
     /tmp/cchcTNVL.s:165    .text:0000000000000080 .LVL11
     /tmp/cchcTNVL.s:637    .text:0000000000000244 .LVL46
     /tmp/cchcTNVL.s:674    .text:0000000000000290 .LVL48
     /tmp/cchcTNVL.s:700    .text:00000000000002ac .LVL51
     /tmp/cchcTNVL.s:728    .text:00000000000002c4 .LVL52
     /tmp/cchcTNVL.s:738    .text:00000000000002d4 .LVL55
     /tmp/cchcTNVL.s:731    .text:00000000000002c8 .LVL53
     /tmp/cchcTNVL.s:734    .text:00000000000002cc .LVL54
     /tmp/cchcTNVL.s:667    .text:0000000000000280 .LVL47
     /tmp/cchcTNVL.s:678    .text:000000000000029c .LVL50
     /tmp/cchcTNVL.s:598    .text:000000000000021c .LVL44
     /tmp/cchcTNVL.s:431    .text:0000000000000174 .LVL29
     /tmp/cchcTNVL.s:397    .text:000000000000014c .LVL27
     /tmp/cchcTNVL.s:365    .text:0000000000000124 .LVL25
     /tmp/cchcTNVL.s:1374   .debug_info:0000000000000000 .Ldebug_info0
     /tmp/cchcTNVL.s:5      .text:0000000000000000 .Ltext0
     /tmp/cchcTNVL.s:1368   .text:00000000000005c8 .Letext0
     /tmp/cchcTNVL.s:659    .text:0000000000000278 .LBB76
     /tmp/cchcTNVL.s:717    .text:00000000000002b8 .LBE76
     /tmp/cchcTNVL.s:742    .text:00000000000002d4 .LBB77
     /tmp/cchcTNVL.s:746    .text:00000000000002dc .LBE77
     /tmp/cchcTNVL.s:202    .gcc_except_table:0000000000000000 .LLSDA45
     /tmp/cchcTNVL.s:349    .gcc_except_table:0000000000000004 .LLSDA63
     /tmp/cchcTNVL.s:456    .gcc_except_table:0000000000000008 .LLSDA36
     /tmp/cchcTNVL.s:623    .gcc_except_table:000000000000000c .LLSDA37
                           .group:0000000000000000 _ZN14PeriodicThreadD5Ev

UNDEFINED SYMBOLS
_Z11thread_joinP3TCB
_Z8mem_freePv
_ZN3TCBdlEPv
__gxx_personality_v0
_Z9sem_closeP4KSem
_ZN4KSemdlEPv
_Z9mem_allocm
main
_Z15thread_dispatchv
_Z10time_sleepm
_Z11thread_exitv
_Z8sem_openPP4KSemj
_Z8sem_waitP4KSem
_Z10sem_signalP4KSem
_Z4getcv
_Z4putcc
