GAS LISTING /tmp/ccxuiBQM.s 			page 1


   1              		.file	"syscall_cpp.cpp"
   2              		.option pic
   3              		.option norelax
   4              		.text
   5              	.Ltext0:
   6              		.section	.text._ZN6Thread3runEv,"axG",@progbits,_ZN6Thread3runEv,comdat
   7              		.align	2
   8              		.weak	_ZN6Thread3runEv
  10              	_ZN6Thread3runEv:
  11              	.LFB0:
  12              		.file 1 "src/../h/syscall_cpp.hpp"
   1:src/../h/syscall_cpp.hpp **** #ifndef _syscall_cpp
   2:src/../h/syscall_cpp.hpp **** #define _syscall_cpp
   3:src/../h/syscall_cpp.hpp **** 
   4:src/../h/syscall_cpp.hpp **** #include "../lib/hw.h"
   5:src/../h/syscall_cpp.hpp **** 
   6:src/../h/syscall_cpp.hpp **** void* operator new(size_t);
   7:src/../h/syscall_cpp.hpp **** 
   8:src/../h/syscall_cpp.hpp **** void* operator new[](size_t);
   9:src/../h/syscall_cpp.hpp **** 
  10:src/../h/syscall_cpp.hpp **** void operator delete(void*)
  11:src/../h/syscall_cpp.hpp **** 
  12:src/../h/syscall_cpp.hpp **** noexcept;
  13:src/../h/syscall_cpp.hpp **** 
  14:src/../h/syscall_cpp.hpp **** void operator delete[](void*)
  15:src/../h/syscall_cpp.hpp **** 
  16:src/../h/syscall_cpp.hpp **** noexcept;
  17:src/../h/syscall_cpp.hpp **** 
  18:src/../h/syscall_cpp.hpp **** class TCB;
  19:src/../h/syscall_cpp.hpp **** 
  20:src/../h/syscall_cpp.hpp **** typedef TCB* thread_t;
  21:src/../h/syscall_cpp.hpp **** 
  22:src/../h/syscall_cpp.hpp **** class KSem;
  23:src/../h/syscall_cpp.hpp **** 
  24:src/../h/syscall_cpp.hpp **** typedef KSem* sem_t;
  25:src/../h/syscall_cpp.hpp **** 
  26:src/../h/syscall_cpp.hpp **** class Thread {
  27:src/../h/syscall_cpp.hpp **** public:
  28:src/../h/syscall_cpp.hpp **** 	Thread(void (* body)(void*), void* arg);
  29:src/../h/syscall_cpp.hpp **** 
  30:src/../h/syscall_cpp.hpp **** 	virtual ~Thread();
  31:src/../h/syscall_cpp.hpp **** 
  32:src/../h/syscall_cpp.hpp **** 	int start();
  33:src/../h/syscall_cpp.hpp **** 
  34:src/../h/syscall_cpp.hpp **** 	void join();
  35:src/../h/syscall_cpp.hpp **** 
  36:src/../h/syscall_cpp.hpp **** 	static void dispatch();
  37:src/../h/syscall_cpp.hpp **** 
  38:src/../h/syscall_cpp.hpp **** 	static int sleep(time_t);
  39:src/../h/syscall_cpp.hpp **** 
  40:src/../h/syscall_cpp.hpp **** protected:
  41:src/../h/syscall_cpp.hpp **** 	Thread();
  42:src/../h/syscall_cpp.hpp **** 
  43:src/../h/syscall_cpp.hpp **** 	virtual void run() {}
  13              		.loc 1 43 15
  14              		.cfi_startproc
  15              	.LVL0:
GAS LISTING /tmp/ccxuiBQM.s 			page 2


  16 0000 130101FF 		addi	sp,sp,-16
  17              		.cfi_def_cfa_offset 16
  18 0004 23348100 		sd	s0,8(sp)
  19              		.cfi_offset 8, -8
  20 0008 13040101 		addi	s0,sp,16
  21              		.cfi_def_cfa 8, 0
  22              		.loc 1 43 22 is_stmt 0
  23 000c 03348100 		ld	s0,8(sp)
  24              		.cfi_restore 8
  25              		.cfi_def_cfa 2, 16
  26 0010 13010101 		addi	sp,sp,16
  27              		.cfi_def_cfa_offset 0
  28 0014 67800000 		jr	ra
  29              		.cfi_endproc
  30              	.LFE0:
  32              		.section	.text._ZN14PeriodicThread18periodicActivationEv,"axG",@progbits,_ZN14PeriodicThread18peri
  33              		.align	2
  34              		.weak	_ZN14PeriodicThread18periodicActivationEv
  36              	_ZN14PeriodicThread18periodicActivationEv:
  37              	.LFB1:
  44:src/../h/syscall_cpp.hpp **** 
  45:src/../h/syscall_cpp.hpp **** private:
  46:src/../h/syscall_cpp.hpp **** 	thread_t myHandle;
  47:src/../h/syscall_cpp.hpp **** 
  48:src/../h/syscall_cpp.hpp **** 	void (* body)(void*);
  49:src/../h/syscall_cpp.hpp **** 
  50:src/../h/syscall_cpp.hpp **** 	void* arg;
  51:src/../h/syscall_cpp.hpp **** 
  52:src/../h/syscall_cpp.hpp **** 	static void wrapper(void* thread);
  53:src/../h/syscall_cpp.hpp **** };
  54:src/../h/syscall_cpp.hpp **** 
  55:src/../h/syscall_cpp.hpp **** 
  56:src/../h/syscall_cpp.hpp **** class Semaphore {
  57:src/../h/syscall_cpp.hpp **** public:
  58:src/../h/syscall_cpp.hpp **** 
  59:src/../h/syscall_cpp.hpp **** 	Semaphore(unsigned init = 1);
  60:src/../h/syscall_cpp.hpp **** 
  61:src/../h/syscall_cpp.hpp **** 	virtual ~Semaphore();
  62:src/../h/syscall_cpp.hpp **** 
  63:src/../h/syscall_cpp.hpp **** 	int wait();
  64:src/../h/syscall_cpp.hpp **** 
  65:src/../h/syscall_cpp.hpp **** 	int signal();
  66:src/../h/syscall_cpp.hpp **** 
  67:src/../h/syscall_cpp.hpp **** private:
  68:src/../h/syscall_cpp.hpp **** 	sem_t myHandle;
  69:src/../h/syscall_cpp.hpp **** 
  70:src/../h/syscall_cpp.hpp **** };
  71:src/../h/syscall_cpp.hpp **** 
  72:src/../h/syscall_cpp.hpp **** 
  73:src/../h/syscall_cpp.hpp **** class PeriodicThread : public Thread {
  74:src/../h/syscall_cpp.hpp **** public:
  75:src/../h/syscall_cpp.hpp **** 	void terminate();
  76:src/../h/syscall_cpp.hpp **** 
  77:src/../h/syscall_cpp.hpp **** protected:
  78:src/../h/syscall_cpp.hpp **** 	PeriodicThread(time_t period);
  79:src/../h/syscall_cpp.hpp **** 
  80:src/../h/syscall_cpp.hpp **** 	virtual void periodicActivation() {}
GAS LISTING /tmp/ccxuiBQM.s 			page 3


  38              		.loc 1 80 15 is_stmt 1
  39              		.cfi_startproc
  40              	.LVL1:
  41 0000 130101FF 		addi	sp,sp,-16
  42              		.cfi_def_cfa_offset 16
  43 0004 23348100 		sd	s0,8(sp)
  44              		.cfi_offset 8, -8
  45 0008 13040101 		addi	s0,sp,16
  46              		.cfi_def_cfa 8, 0
  47              		.loc 1 80 37 is_stmt 0
  48 000c 03348100 		ld	s0,8(sp)
  49              		.cfi_restore 8
  50              		.cfi_def_cfa 2, 16
  51 0010 13010101 		addi	sp,sp,16
  52              		.cfi_def_cfa_offset 0
  53 0014 67800000 		jr	ra
  54              		.cfi_endproc
  55              	.LFE1:
  57              		.text
  58              		.align	2
  59              		.globl	_ZN6Thread7wrapperEPv
  61              	_ZN6Thread7wrapperEPv:
  62              	.LFB56:
  63              		.file 2 "src/syscall_cpp.cpp"
   1:src/syscall_cpp.cpp **** //
   2:src/syscall_cpp.cpp **** // Created by os on 5/29/23.
   3:src/syscall_cpp.cpp **** //
   4:src/syscall_cpp.cpp **** #include "../h/syscall_cpp.hpp"
   5:src/syscall_cpp.cpp **** #include "../h/syscall_c.hpp"
   6:src/syscall_cpp.cpp **** #include "../h/TCB.hpp"
   7:src/syscall_cpp.cpp **** #include "../h/KSem.hpp"
   8:src/syscall_cpp.cpp **** #include "../h/Scheduler.hpp"
   9:src/syscall_cpp.cpp **** 
  10:src/syscall_cpp.cpp **** //override globalnog new
  11:src/syscall_cpp.cpp **** void* operator new(size_t size) {
  12:src/syscall_cpp.cpp **** 	return mem_alloc(size);
  13:src/syscall_cpp.cpp **** }
  14:src/syscall_cpp.cpp **** 
  15:src/syscall_cpp.cpp **** void* operator new[](size_t size) {
  16:src/syscall_cpp.cpp **** 	return mem_alloc(size);
  17:src/syscall_cpp.cpp **** }
  18:src/syscall_cpp.cpp **** 
  19:src/syscall_cpp.cpp **** void operator delete(void* ptr)
  20:src/syscall_cpp.cpp **** 
  21:src/syscall_cpp.cpp **** noexcept {
  22:src/syscall_cpp.cpp **** mem_free(ptr);
  23:src/syscall_cpp.cpp **** }
  24:src/syscall_cpp.cpp **** 
  25:src/syscall_cpp.cpp **** void operator delete[](void* ptr)
  26:src/syscall_cpp.cpp **** 
  27:src/syscall_cpp.cpp **** noexcept {
  28:src/syscall_cpp.cpp **** mem_free(ptr);
  29:src/syscall_cpp.cpp **** }
  30:src/syscall_cpp.cpp **** 
  31:src/syscall_cpp.cpp **** //konstruktor za Thread
  32:src/syscall_cpp.cpp **** Thread::Thread(void (* body)(void*), void* arg) {
  33:src/syscall_cpp.cpp **** 	this->body = body;
GAS LISTING /tmp/ccxuiBQM.s 			page 4


  34:src/syscall_cpp.cpp **** 	this->arg = arg;
  35:src/syscall_cpp.cpp **** 	//stvaranje steka ako se ne radi o main kernel niti, posto ona automatski ima stek
  36:src/syscall_cpp.cpp **** 	uint64* stack = nullptr;
  37:src/syscall_cpp.cpp **** 	if (body != nullptr) {
  38:src/syscall_cpp.cpp **** 		stack = (uint64*)mem_alloc(DEFAULT_STACK_SIZE);
  39:src/syscall_cpp.cpp **** 	}
  40:src/syscall_cpp.cpp **** 	//uint64* stack = (start_routine != nullptr ? (uint64*)MemoryAllocator::kmalloc(DEFAULT_STACK_SIZE
  41:src/syscall_cpp.cpp **** 	//stavljanje argumenata za sistemski poziv
  42:src/syscall_cpp.cpp **** 	__asm__ volatile("mv a4, %[sp]": :[sp] "r"(stack):"a5", "a0", "a1", "a2", "a3", "a4", "a6", "a7");
  43:src/syscall_cpp.cpp **** 	__asm__ volatile("mv a3, %[arg]": :[arg] "r"(arg):"a5", "a0", "a1", "a2", "a3", "a4", "a6", "a7");
  44:src/syscall_cpp.cpp **** 	__asm__ volatile("mv a2, %[function]": :[function] "r"(
  45:src/syscall_cpp.cpp **** 			body):"a5", "a0", "a1", "a2", "a3", "a4", "a6", "a7");
  46:src/syscall_cpp.cpp **** 	__asm__ volatile("mv a1, %[handle]": :[handle] "r"(&myHandle):"a5", "a0", "a1", "a2", "a3", "a4", 
  47:src/syscall_cpp.cpp **** 	__asm__ volatile("li a0, 0x80");
  48:src/syscall_cpp.cpp **** 	//a0 = 0x80
  49:src/syscall_cpp.cpp **** 	//a1 = adresa pokazivaca na rucku niti
  50:src/syscall_cpp.cpp **** 	//a2 = prva adresa funkcije koju nit izvrsava
  51:src/syscall_cpp.cpp **** 	//a3 = pokazivac na argumente funkcije
  52:src/syscall_cpp.cpp **** 	//a4 = pokazivac na najnizu adresu steka (stek raste ka nizim adresama, pokazuje na poslednju zauz
  53:src/syscall_cpp.cpp **** 
  54:src/syscall_cpp.cpp **** 	__asm__ volatile("ecall");
  55:src/syscall_cpp.cpp **** }
  56:src/syscall_cpp.cpp **** 
  57:src/syscall_cpp.cpp **** Thread::~Thread() {
  58:src/syscall_cpp.cpp **** 	//ne treba da se gasi running nit, vec nit na koju pokazuje rucka od this
  59:src/syscall_cpp.cpp **** 	thread_join(this->myHandle);
  60:src/syscall_cpp.cpp **** 	delete myHandle;
  61:src/syscall_cpp.cpp **** 
  62:src/syscall_cpp.cpp **** 	//ovo nije dobro
  63:src/syscall_cpp.cpp **** 	//thread_exit();
  64:src/syscall_cpp.cpp **** }
  65:src/syscall_cpp.cpp **** 
  66:src/syscall_cpp.cpp **** int Thread::start() {
  67:src/syscall_cpp.cpp **** 	if (myHandle == nullptr) return -1;
  68:src/syscall_cpp.cpp **** 	__asm__ volatile("mv a1, %[handle]": :[handle] "r"(myHandle):"a5", "a0", "a1", "a2", "a3", "a4", "
  69:src/syscall_cpp.cpp **** 	__asm__ volatile("li a0, 0x81");
  70:src/syscall_cpp.cpp **** 
  71:src/syscall_cpp.cpp **** 	__asm__ volatile("ecall");
  72:src/syscall_cpp.cpp **** 
  73:src/syscall_cpp.cpp **** 	return 0;
  74:src/syscall_cpp.cpp **** }
  75:src/syscall_cpp.cpp **** 
  76:src/syscall_cpp.cpp **** void Thread::join() {
  77:src/syscall_cpp.cpp **** 	thread_join(myHandle);
  78:src/syscall_cpp.cpp **** }
  79:src/syscall_cpp.cpp **** 
  80:src/syscall_cpp.cpp **** void Thread::dispatch() {
  81:src/syscall_cpp.cpp **** 	thread_dispatch();
  82:src/syscall_cpp.cpp **** }
  83:src/syscall_cpp.cpp **** 
  84:src/syscall_cpp.cpp **** int Thread::sleep(time_t t) {
  85:src/syscall_cpp.cpp **** 	Scheduler::putToSleep(TCB::running, t);
  86:src/syscall_cpp.cpp **** 	return 0;
  87:src/syscall_cpp.cpp **** }
  88:src/syscall_cpp.cpp **** 
  89:src/syscall_cpp.cpp **** Thread::Thread() {
  90:src/syscall_cpp.cpp **** 	this->body = wrapper;
GAS LISTING /tmp/ccxuiBQM.s 			page 5


  91:src/syscall_cpp.cpp **** 	this->arg = this;
  92:src/syscall_cpp.cpp **** 	//stvaranje steka ako se ne radi o main kernel niti, posto ona automatski ima stek
  93:src/syscall_cpp.cpp **** 	uint64* stack = nullptr;
  94:src/syscall_cpp.cpp **** 	if (body != nullptr) {
  95:src/syscall_cpp.cpp **** 		stack = (uint64*)mem_alloc(DEFAULT_STACK_SIZE);
  96:src/syscall_cpp.cpp **** 	}
  97:src/syscall_cpp.cpp **** 	//uint64* stack = (start_routine != nullptr ? (uint64*)MemoryAllocator::kmalloc(DEFAULT_STACK_SIZE
  98:src/syscall_cpp.cpp **** 	//stavljanje argumenata za sistemski poziv
  99:src/syscall_cpp.cpp **** 	__asm__ volatile("mv a4, %[sp]": :[sp] "r"(stack):"a5", "a0", "a1", "a2", "a3", "a4", "a6", "a7");
 100:src/syscall_cpp.cpp **** 	__asm__ volatile("mv a3, %[arg]": :[arg] "r"(arg):"a5", "a0", "a1", "a2", "a3", "a4", "a6", "a7");
 101:src/syscall_cpp.cpp **** 	__asm__ volatile("mv a2, %[function]": :[function] "r"(
 102:src/syscall_cpp.cpp **** 			body):"a5", "a0", "a1", "a2", "a3", "a4", "a6", "a7");
 103:src/syscall_cpp.cpp **** 	__asm__ volatile("mv a1, %[handle]": :[handle] "r"(&myHandle):"a5", "a0", "a1", "a2", "a3", "a4", 
 104:src/syscall_cpp.cpp **** 	__asm__ volatile("li a0, 0x80");
 105:src/syscall_cpp.cpp **** 	//a0 = 0x80
 106:src/syscall_cpp.cpp **** 	//a1 = adresa pokazivaca na rucku niti
 107:src/syscall_cpp.cpp **** 	//a2 = prva adresa funkcije koju nit izvrsava
 108:src/syscall_cpp.cpp **** 	//a3 = pokazivac na argumente funkcije
 109:src/syscall_cpp.cpp **** 	//a4 = pokazivac na najnizu adresu steka (stek raste ka nizim adresama, pokazuje na poslednju zauz
 110:src/syscall_cpp.cpp **** 
 111:src/syscall_cpp.cpp **** 	__asm__ volatile("ecall");
 112:src/syscall_cpp.cpp **** }
 113:src/syscall_cpp.cpp **** 
 114:src/syscall_cpp.cpp **** void Thread::wrapper(void* thread) {
  64              		.loc 2 114 36 is_stmt 1
  65              		.cfi_startproc
  66              	.LVL2:
 115:src/syscall_cpp.cpp **** 	if (thread != nullptr) {
  67              		.loc 2 115 2
  68 0000 63080502 		beqz	a0,.L8
 114:src/syscall_cpp.cpp **** 	if (thread != nullptr) {
  69              		.loc 2 114 36 is_stmt 0
  70 0004 130101FF 		addi	sp,sp,-16
  71              		.cfi_def_cfa_offset 16
  72 0008 23341100 		sd	ra,8(sp)
  73 000c 23308100 		sd	s0,0(sp)
  74              		.cfi_offset 1, -8
  75              		.cfi_offset 8, -16
  76 0010 13040101 		addi	s0,sp,16
  77              		.cfi_def_cfa 8, 0
 116:src/syscall_cpp.cpp **** 		((Thread*)thread)->run();
  78              		.loc 2 116 3 is_stmt 1
  79              		.loc 2 116 26 is_stmt 0
  80 0014 83370500 		ld	a5,0(a0)
  81 0018 83B70701 		ld	a5,16(a5)
  82              		.loc 2 116 25
  83 001c E7800700 		jalr	a5
  84              	.LVL3:
 117:src/syscall_cpp.cpp **** 	}
 118:src/syscall_cpp.cpp **** }
  85              		.loc 2 118 1
  86 0020 83308100 		ld	ra,8(sp)
  87              		.cfi_restore 1
  88 0024 03340100 		ld	s0,0(sp)
  89              		.cfi_restore 8
  90              		.cfi_def_cfa 2, 16
  91 0028 13010101 		addi	sp,sp,16
GAS LISTING /tmp/ccxuiBQM.s 			page 6


  92              		.cfi_def_cfa_offset 0
  93 002c 67800000 		jr	ra
  94              	.LVL4:
  95              	.L8:
  96 0030 67800000 		ret
  97              		.cfi_endproc
  98              	.LFE56:
 100              		.align	2
 101              		.globl	_ZN6ThreadD2Ev
 103              	_ZN6ThreadD2Ev:
 104              	.LFB46:
  57:src/syscall_cpp.cpp **** 	//ne treba da se gasi running nit, vec nit na koju pokazuje rucka od this
 105              		.loc 2 57 1 is_stmt 1
 106              		.cfi_startproc
 107              		.cfi_personality 0x9b,DW.ref.__gxx_personality_v0
 108              		.cfi_lsda 0x1b,.LLSDA46
 109              	.LVL5:
 110 0034 130101FE 		addi	sp,sp,-32
 111              		.cfi_def_cfa_offset 32
 112 0038 233C1100 		sd	ra,24(sp)
 113 003c 23388100 		sd	s0,16(sp)
 114 0040 23349100 		sd	s1,8(sp)
 115              		.cfi_offset 1, -8
 116              		.cfi_offset 8, -16
 117              		.cfi_offset 9, -24
 118 0044 13040102 		addi	s0,sp,32
 119              		.cfi_def_cfa 8, 0
 120 0048 93040500 		mv	s1,a0
 121              	.LBB54:
  57:src/syscall_cpp.cpp **** 	//ne treba da se gasi running nit, vec nit na koju pokazuje rucka od this
 122              		.loc 2 57 17 is_stmt 0
 123 004c 97070000 		lla	a5,_ZTV6Thread+16
 123      93870700 
 124 0054 2330F500 		sd	a5,0(a0)
  59:src/syscall_cpp.cpp **** 	delete myHandle;
 125              		.loc 2 59 2 is_stmt 1
  59:src/syscall_cpp.cpp **** 	delete myHandle;
 126              		.loc 2 59 13 is_stmt 0
 127 0058 03358500 		ld	a0,8(a0)
 128              	.LVL6:
 129 005c 97000000 		call	_Z11thread_joinP3TCB@plt
 129      E7800000 
 130              	.LVL7:
  60:src/syscall_cpp.cpp **** 
 131              		.loc 2 60 2 is_stmt 1
  60:src/syscall_cpp.cpp **** 
 132              		.loc 2 60 9 is_stmt 0
 133 0064 83B48400 		ld	s1,8(s1)
 134              	.LVL8:
  60:src/syscall_cpp.cpp **** 
 135              		.loc 2 60 17
 136 0068 63880402 		beqz	s1,.L11
 137              	.L14:
 138              	.LBB55:
 139              	.LBB56:
 140              	.LBB57:
 141              		.file 3 "src/../h/../h/ThreadQueue.hpp"
GAS LISTING /tmp/ccxuiBQM.s 			page 7


   1:src/../h/../h/ThreadQueue.hpp **** //
   2:src/../h/../h/ThreadQueue.hpp **** // Created by os on 6/4/23.
   3:src/../h/../h/ThreadQueue.hpp **** //
   4:src/../h/../h/ThreadQueue.hpp **** 
   5:src/../h/../h/ThreadQueue.hpp **** #ifndef PROJEKAT2023_THREADQUEUE_HPP
   6:src/../h/../h/ThreadQueue.hpp **** #define PROJEKAT2023_THREADQUEUE_HPP
   7:src/../h/../h/ThreadQueue.hpp **** 
   8:src/../h/../h/ThreadQueue.hpp **** #include "../h/MemoryAllocator.hpp"
   9:src/../h/../h/ThreadQueue.hpp **** #include "../h/syscall_c.hpp"
  10:src/../h/../h/ThreadQueue.hpp **** 
  11:src/../h/../h/ThreadQueue.hpp **** class TCB;
  12:src/../h/../h/ThreadQueue.hpp **** 
  13:src/../h/../h/ThreadQueue.hpp **** class ThreadQueue {
  14:src/../h/../h/ThreadQueue.hpp **** private:
  15:src/../h/../h/ThreadQueue.hpp ****     struct Node {
  16:src/../h/../h/ThreadQueue.hpp ****         TCB *data;
  17:src/../h/../h/ThreadQueue.hpp ****         Node *next;
  18:src/../h/../h/ThreadQueue.hpp **** 
  19:src/../h/../h/ThreadQueue.hpp ****         Node(TCB *d) : data(d), next(nullptr) {}
  20:src/../h/../h/ThreadQueue.hpp **** 
  21:src/../h/../h/ThreadQueue.hpp ****         static void *operator new(size_t size) {
  22:src/../h/../h/ThreadQueue.hpp ****             return mem_alloc(size);
  23:src/../h/../h/ThreadQueue.hpp ****         }
  24:src/../h/../h/ThreadQueue.hpp **** 
  25:src/../h/../h/ThreadQueue.hpp ****         static void operator delete(void *ptr) {
  26:src/../h/../h/ThreadQueue.hpp ****             mem_free(ptr);
  27:src/../h/../h/ThreadQueue.hpp ****         }
  28:src/../h/../h/ThreadQueue.hpp ****     };
  29:src/../h/../h/ThreadQueue.hpp **** 
  30:src/../h/../h/ThreadQueue.hpp ****     Node *front;
  31:src/../h/../h/ThreadQueue.hpp ****     Node *back;
  32:src/../h/../h/ThreadQueue.hpp **** 
  33:src/../h/../h/ThreadQueue.hpp **** public:
  34:src/../h/../h/ThreadQueue.hpp ****     ThreadQueue() : front(nullptr), back(nullptr) {}
  35:src/../h/../h/ThreadQueue.hpp **** 
  36:src/../h/../h/ThreadQueue.hpp ****     ThreadQueue(const ThreadQueue &) = delete;
  37:src/../h/../h/ThreadQueue.hpp **** 
  38:src/../h/../h/ThreadQueue.hpp ****     ThreadQueue &operator=(const ThreadQueue &) = delete;
  39:src/../h/../h/ThreadQueue.hpp **** 
  40:src/../h/../h/ThreadQueue.hpp ****     ~ThreadQueue() {
  41:src/../h/../h/ThreadQueue.hpp ****         while (!isEmpty()) {
 142              		.loc 3 41 9 is_stmt 1
 143              		.loc 3 41 16
 144              	.LVL9:
 145              	.LBB58:
 146              	.LBB59:
  42:src/../h/../h/ThreadQueue.hpp ****             Node *node = front;
  43:src/../h/../h/ThreadQueue.hpp ****             front = front->next;
  44:src/../h/../h/ThreadQueue.hpp ****             delete node;
  45:src/../h/../h/ThreadQueue.hpp ****         }
  46:src/../h/../h/ThreadQueue.hpp ****     }
  47:src/../h/../h/ThreadQueue.hpp **** 
  48:src/../h/../h/ThreadQueue.hpp ****     bool isEmpty() const {
  49:src/../h/../h/ThreadQueue.hpp ****         bool ret = front == nullptr;
 147              		.loc 3 49 9
 148              		.loc 3 49 20 is_stmt 0
 149 006c 03B50405 		ld	a0,80(s1)
GAS LISTING /tmp/ccxuiBQM.s 			page 8


 150              	.LVL10:
  50:src/../h/../h/ThreadQueue.hpp ****         return ret;
 151              		.loc 3 50 9 is_stmt 1
 152              	.LBE59:
 153              	.LBE58:
  41:src/../h/../h/ThreadQueue.hpp ****             Node *node = front;
 154              		.loc 3 41 16 is_stmt 0
 155 0070 630E0500 		beqz	a0,.L13
 156              	.LBB60:
  42:src/../h/../h/ThreadQueue.hpp ****             Node *node = front;
 157              		.loc 3 42 13 is_stmt 1
 158              	.LVL11:
  43:src/../h/../h/ThreadQueue.hpp ****             delete node;
 159              		.loc 3 43 13
  43:src/../h/../h/ThreadQueue.hpp ****             delete node;
 160              		.loc 3 43 28 is_stmt 0
 161 0074 83378500 		ld	a5,8(a0)
  43:src/../h/../h/ThreadQueue.hpp ****             delete node;
 162              		.loc 3 43 19
 163 0078 23B8F404 		sd	a5,80(s1)
  44:src/../h/../h/ThreadQueue.hpp ****         }
 164              		.loc 3 44 13 is_stmt 1
  44:src/../h/../h/ThreadQueue.hpp ****         }
 165              		.loc 3 44 24 is_stmt 0
 166 007c E30805FE 		beqz	a0,.L14
 167              	.LVL12:
 168              	.LBB61:
 169              	.LBB62:
  26:src/../h/../h/ThreadQueue.hpp ****         }
 170              		.loc 3 26 13 is_stmt 1
  26:src/../h/../h/ThreadQueue.hpp ****         }
 171              		.loc 3 26 21 is_stmt 0
 172 0080 97000000 		call	_Z8mem_freePv@plt
 172      E7800000 
 173              	.LVL13:
  27:src/../h/../h/ThreadQueue.hpp ****     };
 174              		.loc 3 27 9
 175 0088 6FF05FFE 		j	.L14
 176              	.L13:
 177              	.LBE62:
 178              	.LBE61:
 179              	.LBE60:
 180              	.LBE57:
 181              	.LBE56:
 182              	.LBE55:
  60:src/syscall_cpp.cpp **** 
 183              		.loc 2 60 9
 184 008c 13850400 		mv	a0,s1
 185 0090 97000000 		call	_ZN3TCBdlEPv@plt
 185      E7800000 
 186              	.LVL14:
 187              	.L11:
 188              	.LBE54:
  64:src/syscall_cpp.cpp **** 
 189              		.loc 2 64 1
 190 0098 83308101 		ld	ra,24(sp)
 191              		.cfi_restore 1
GAS LISTING /tmp/ccxuiBQM.s 			page 9


 192 009c 03340101 		ld	s0,16(sp)
 193              		.cfi_restore 8
 194              		.cfi_def_cfa 2, 32
 195 00a0 83348100 		ld	s1,8(sp)
 196              		.cfi_restore 9
 197 00a4 13010102 		addi	sp,sp,32
 198              		.cfi_def_cfa_offset 0
 199 00a8 67800000 		jr	ra
 200              		.cfi_endproc
 201              	.LFE46:
 202              		.globl	__gxx_personality_v0
 203              		.section	.gcc_except_table,"a",@progbits
 204              	.LLSDA46:
 205 0000 FF       		.byte	0xff
 206 0001 FF       		.byte	0xff
 207 0002 03       		.byte	0x3
 208 0003 00       		.byte	0
 209              		.text
 211              		.globl	_ZN6ThreadD1Ev
 212              		.set	_ZN6ThreadD1Ev,_ZN6ThreadD2Ev
 213              		.section	.text._ZN14PeriodicThreadD2Ev,"axG",@progbits,_ZN14PeriodicThreadD5Ev,comdat
 214              		.align	2
 215              		.weak	_ZN14PeriodicThreadD2Ev
 217              	_ZN14PeriodicThreadD2Ev:
 218              	.LFB77:
  73:src/../h/syscall_cpp.hpp **** public:
 219              		.loc 1 73 7 is_stmt 1
 220              		.cfi_startproc
 221              	.LVL15:
 222 0000 130101FF 		addi	sp,sp,-16
 223              		.cfi_def_cfa_offset 16
 224 0004 23341100 		sd	ra,8(sp)
 225 0008 23308100 		sd	s0,0(sp)
 226              		.cfi_offset 1, -8
 227              		.cfi_offset 8, -16
 228 000c 13040101 		addi	s0,sp,16
 229              		.cfi_def_cfa 8, 0
 230              	.LBB63:
  73:src/../h/syscall_cpp.hpp **** public:
 231              		.loc 1 73 7 is_stmt 0
 232 0010 97070000 		lla	a5,_ZTV14PeriodicThread+16
 232      93870700 
 233 0018 2330F500 		sd	a5,0(a0)
 234 001c 97000000 		call	_ZN6ThreadD2Ev
 234      E7800000 
 235              	.LVL16:
 236              	.LBE63:
 237 0024 83308100 		ld	ra,8(sp)
 238              		.cfi_restore 1
 239 0028 03340100 		ld	s0,0(sp)
 240              		.cfi_restore 8
 241              		.cfi_def_cfa 2, 16
 242 002c 13010101 		addi	sp,sp,16
 243              		.cfi_def_cfa_offset 0
 244 0030 67800000 		jr	ra
 245              		.cfi_endproc
 246              	.LFE77:
GAS LISTING /tmp/ccxuiBQM.s 			page 10


 248              		.weak	_ZN14PeriodicThreadD1Ev
 249              		.set	_ZN14PeriodicThreadD1Ev,_ZN14PeriodicThreadD2Ev
 250              		.text
 251              		.align	2
 252              		.globl	_ZN9SemaphoreD2Ev
 254              	_ZN9SemaphoreD2Ev:
 255              	.LFB64:
 119:src/syscall_cpp.cpp **** 
 120:src/syscall_cpp.cpp **** Semaphore::Semaphore(unsigned int init) {
 121:src/syscall_cpp.cpp **** 	sem_open(&myHandle, init);
 122:src/syscall_cpp.cpp **** }
 123:src/syscall_cpp.cpp **** 
 124:src/syscall_cpp.cpp **** Semaphore::~Semaphore() {
 256              		.loc 2 124 1 is_stmt 1
 257              		.cfi_startproc
 258              		.cfi_personality 0x9b,DW.ref.__gxx_personality_v0
 259              		.cfi_lsda 0x1b,.LLSDA64
 260              	.LVL17:
 261 00ac 130101FE 		addi	sp,sp,-32
 262              		.cfi_def_cfa_offset 32
 263 00b0 233C1100 		sd	ra,24(sp)
 264 00b4 23388100 		sd	s0,16(sp)
 265 00b8 23349100 		sd	s1,8(sp)
 266              		.cfi_offset 1, -8
 267              		.cfi_offset 8, -16
 268              		.cfi_offset 9, -24
 269 00bc 13040102 		addi	s0,sp,32
 270              		.cfi_def_cfa 8, 0
 271 00c0 93040500 		mv	s1,a0
 272              	.LBB64:
 273              		.loc 2 124 23 is_stmt 0
 274 00c4 97070000 		lla	a5,_ZTV9Semaphore+16
 274      93870700 
 275 00cc 2330F500 		sd	a5,0(a0)
 125:src/syscall_cpp.cpp **** 	sem_close(myHandle);
 276              		.loc 2 125 2 is_stmt 1
 277              		.loc 2 125 11 is_stmt 0
 278 00d0 03358500 		ld	a0,8(a0)
 279              	.LVL18:
 280 00d4 97000000 		call	_Z9sem_closeP4KSem@plt
 280      E7800000 
 281              	.LVL19:
 126:src/syscall_cpp.cpp **** 	delete myHandle;
 282              		.loc 2 126 2 is_stmt 1
 283              		.loc 2 126 9 is_stmt 0
 284 00dc 83B48400 		ld	s1,8(s1)
 285              	.LVL20:
 286              		.loc 2 126 17
 287 00e0 63880402 		beqz	s1,.L19
 288              	.L22:
 289              	.LBB65:
 290              	.LBB66:
 291              	.LBB67:
  41:src/../h/../h/ThreadQueue.hpp ****             Node *node = front;
 292              		.loc 3 41 9 is_stmt 1
  41:src/../h/../h/ThreadQueue.hpp ****             Node *node = front;
 293              		.loc 3 41 16
GAS LISTING /tmp/ccxuiBQM.s 			page 11


 294              	.LVL21:
 295              	.LBB68:
 296              	.LBB69:
  49:src/../h/../h/ThreadQueue.hpp ****         return ret;
 297              		.loc 3 49 9
  49:src/../h/../h/ThreadQueue.hpp ****         return ret;
 298              		.loc 3 49 20 is_stmt 0
 299 00e4 03B58400 		ld	a0,8(s1)
 300              	.LVL22:
 301              		.loc 3 50 9 is_stmt 1
 302              	.LBE69:
 303              	.LBE68:
  41:src/../h/../h/ThreadQueue.hpp ****             Node *node = front;
 304              		.loc 3 41 16 is_stmt 0
 305 00e8 630E0500 		beqz	a0,.L21
 306              	.LBB70:
  42:src/../h/../h/ThreadQueue.hpp ****             front = front->next;
 307              		.loc 3 42 13 is_stmt 1
 308              	.LVL23:
  43:src/../h/../h/ThreadQueue.hpp ****             delete node;
 309              		.loc 3 43 13
  43:src/../h/../h/ThreadQueue.hpp ****             delete node;
 310              		.loc 3 43 28 is_stmt 0
 311 00ec 83378500 		ld	a5,8(a0)
  43:src/../h/../h/ThreadQueue.hpp ****             delete node;
 312              		.loc 3 43 19
 313 00f0 23B4F400 		sd	a5,8(s1)
  44:src/../h/../h/ThreadQueue.hpp ****         }
 314              		.loc 3 44 13 is_stmt 1
  44:src/../h/../h/ThreadQueue.hpp ****         }
 315              		.loc 3 44 24 is_stmt 0
 316 00f4 E30805FE 		beqz	a0,.L22
 317              	.LVL24:
 318              	.LBB71:
 319              	.LBB72:
  26:src/../h/../h/ThreadQueue.hpp ****         }
 320              		.loc 3 26 13 is_stmt 1
  26:src/../h/../h/ThreadQueue.hpp ****         }
 321              		.loc 3 26 21 is_stmt 0
 322 00f8 97000000 		call	_Z8mem_freePv@plt
 322      E7800000 
 323              	.LVL25:
  27:src/../h/../h/ThreadQueue.hpp ****     };
 324              		.loc 3 27 9
 325 0100 6FF05FFE 		j	.L22
 326              	.L21:
 327              	.LBE72:
 328              	.LBE71:
 329              	.LBE70:
 330              	.LBE67:
 331              	.LBE66:
 332              	.LBE65:
 333              		.loc 2 126 9
 334 0104 13850400 		mv	a0,s1
 335 0108 97000000 		call	_ZN4KSemdlEPv@plt
 335      E7800000 
 336              	.LVL26:
GAS LISTING /tmp/ccxuiBQM.s 			page 12


 337              	.L19:
 338              	.LBE64:
 127:src/syscall_cpp.cpp **** }
 339              		.loc 2 127 1
 340 0110 83308101 		ld	ra,24(sp)
 341              		.cfi_restore 1
 342 0114 03340101 		ld	s0,16(sp)
 343              		.cfi_restore 8
 344              		.cfi_def_cfa 2, 32
 345 0118 83348100 		ld	s1,8(sp)
 346              		.cfi_restore 9
 347 011c 13010102 		addi	sp,sp,32
 348              		.cfi_def_cfa_offset 0
 349 0120 67800000 		jr	ra
 350              		.cfi_endproc
 351              	.LFE64:
 352              		.section	.gcc_except_table
 353              	.LLSDA64:
 354 0004 FF       		.byte	0xff
 355 0005 FF       		.byte	0xff
 356 0006 03       		.byte	0x3
 357 0007 00       		.byte	0
 358              		.text
 360              		.globl	_ZN9SemaphoreD1Ev
 361              		.set	_ZN9SemaphoreD1Ev,_ZN9SemaphoreD2Ev
 362              		.align	2
 363              		.globl	_Znwm
 365              	_Znwm:
 366              	.LFB35:
  11:src/syscall_cpp.cpp **** 	return mem_alloc(size);
 367              		.loc 2 11 33 is_stmt 1
 368              		.cfi_startproc
 369              	.LVL27:
 370 0124 130101FF 		addi	sp,sp,-16
 371              		.cfi_def_cfa_offset 16
 372 0128 23341100 		sd	ra,8(sp)
 373 012c 23308100 		sd	s0,0(sp)
 374              		.cfi_offset 1, -8
 375              		.cfi_offset 8, -16
 376 0130 13040101 		addi	s0,sp,16
 377              		.cfi_def_cfa 8, 0
  12:src/syscall_cpp.cpp **** }
 378              		.loc 2 12 2
  12:src/syscall_cpp.cpp **** }
 379              		.loc 2 12 18 is_stmt 0
 380 0134 97000000 		call	_Z9mem_allocm@plt
 380      E7800000 
 381              	.LVL28:
  13:src/syscall_cpp.cpp **** 
 382              		.loc 2 13 1
 383 013c 83308100 		ld	ra,8(sp)
 384              		.cfi_restore 1
 385 0140 03340100 		ld	s0,0(sp)
 386              		.cfi_restore 8
 387              		.cfi_def_cfa 2, 16
 388 0144 13010101 		addi	sp,sp,16
 389              		.cfi_def_cfa_offset 0
GAS LISTING /tmp/ccxuiBQM.s 			page 13


 390 0148 67800000 		jr	ra
 391              		.cfi_endproc
 392              	.LFE35:
 394              		.align	2
 395              		.globl	_Znam
 397              	_Znam:
 398              	.LFB36:
  15:src/syscall_cpp.cpp **** 	return mem_alloc(size);
 399              		.loc 2 15 35 is_stmt 1
 400              		.cfi_startproc
 401              	.LVL29:
 402 014c 130101FF 		addi	sp,sp,-16
 403              		.cfi_def_cfa_offset 16
 404 0150 23341100 		sd	ra,8(sp)
 405 0154 23308100 		sd	s0,0(sp)
 406              		.cfi_offset 1, -8
 407              		.cfi_offset 8, -16
 408 0158 13040101 		addi	s0,sp,16
 409              		.cfi_def_cfa 8, 0
  16:src/syscall_cpp.cpp **** }
 410              		.loc 2 16 2
  16:src/syscall_cpp.cpp **** }
 411              		.loc 2 16 18 is_stmt 0
 412 015c 97000000 		call	_Z9mem_allocm@plt
 412      E7800000 
 413              	.LVL30:
  17:src/syscall_cpp.cpp **** 
 414              		.loc 2 17 1
 415 0164 83308100 		ld	ra,8(sp)
 416              		.cfi_restore 1
 417 0168 03340100 		ld	s0,0(sp)
 418              		.cfi_restore 8
 419              		.cfi_def_cfa 2, 16
 420 016c 13010101 		addi	sp,sp,16
 421              		.cfi_def_cfa_offset 0
 422 0170 67800000 		jr	ra
 423              		.cfi_endproc
 424              	.LFE36:
 426              		.align	2
 427              		.globl	_ZdlPv
 429              	_ZdlPv:
 430              	.LFB37:
  21:src/syscall_cpp.cpp **** mem_free(ptr);
 431              		.loc 2 21 10 is_stmt 1
 432              		.cfi_startproc
 433              		.cfi_personality 0x9b,DW.ref.__gxx_personality_v0
 434              		.cfi_lsda 0x1b,.LLSDA37
 435              	.LVL31:
 436 0174 130101FF 		addi	sp,sp,-16
 437              		.cfi_def_cfa_offset 16
 438 0178 23341100 		sd	ra,8(sp)
 439 017c 23308100 		sd	s0,0(sp)
 440              		.cfi_offset 1, -8
 441              		.cfi_offset 8, -16
 442 0180 13040101 		addi	s0,sp,16
 443              		.cfi_def_cfa 8, 0
  22:src/syscall_cpp.cpp **** }
GAS LISTING /tmp/ccxuiBQM.s 			page 14


 444              		.loc 2 22 1
  22:src/syscall_cpp.cpp **** }
 445              		.loc 2 22 9 is_stmt 0
 446 0184 97000000 		call	_Z8mem_freePv@plt
 446      E7800000 
 447              	.LVL32:
  23:src/syscall_cpp.cpp **** 
 448              		.loc 2 23 1
 449 018c 83308100 		ld	ra,8(sp)
 450              		.cfi_restore 1
 451 0190 03340100 		ld	s0,0(sp)
 452              		.cfi_restore 8
 453              		.cfi_def_cfa 2, 16
 454 0194 13010101 		addi	sp,sp,16
 455              		.cfi_def_cfa_offset 0
 456 0198 67800000 		jr	ra
 457              		.cfi_endproc
 458              	.LFE37:
 459              		.section	.gcc_except_table
 460              	.LLSDA37:
 461 0008 FF       		.byte	0xff
 462 0009 FF       		.byte	0xff
 463 000a 03       		.byte	0x3
 464 000b 00       		.byte	0
 465              		.text
 467              		.align	2
 468              		.globl	_ZN6ThreadD0Ev
 470              	_ZN6ThreadD0Ev:
 471              	.LFB48:
  57:src/syscall_cpp.cpp **** 	//ne treba da se gasi running nit, vec nit na koju pokazuje rucka od this
 472              		.loc 2 57 1 is_stmt 1
 473              		.cfi_startproc
 474              	.LVL33:
 475 019c 130101FE 		addi	sp,sp,-32
 476              		.cfi_def_cfa_offset 32
 477 01a0 233C1100 		sd	ra,24(sp)
 478 01a4 23388100 		sd	s0,16(sp)
 479 01a8 23349100 		sd	s1,8(sp)
 480              		.cfi_offset 1, -8
 481              		.cfi_offset 8, -16
 482              		.cfi_offset 9, -24
 483 01ac 13040102 		addi	s0,sp,32
 484              		.cfi_def_cfa 8, 0
 485 01b0 93040500 		mv	s1,a0
  64:src/syscall_cpp.cpp **** 
 486              		.loc 2 64 1 is_stmt 0
 487 01b4 97000000 		call	_ZN6ThreadD1Ev
 487      E7800000 
 488              	.LVL34:
 489 01bc 13850400 		mv	a0,s1
 490 01c0 97000000 		call	_ZdlPv
 490      E7800000 
 491              	.LVL35:
 492 01c8 83308101 		ld	ra,24(sp)
 493              		.cfi_restore 1
 494 01cc 03340101 		ld	s0,16(sp)
 495              		.cfi_restore 8
GAS LISTING /tmp/ccxuiBQM.s 			page 15


 496              		.cfi_def_cfa 2, 32
 497 01d0 83348100 		ld	s1,8(sp)
 498              		.cfi_restore 9
 499              	.LVL36:
 500 01d4 13010102 		addi	sp,sp,32
 501              		.cfi_def_cfa_offset 0
 502 01d8 67800000 		jr	ra
 503              		.cfi_endproc
 504              	.LFE48:
 506              		.section	.text._ZN14PeriodicThreadD0Ev,"axG",@progbits,_ZN14PeriodicThreadD5Ev,comdat
 507              		.align	2
 508              		.weak	_ZN14PeriodicThreadD0Ev
 510              	_ZN14PeriodicThreadD0Ev:
 511              	.LFB79:
  73:src/../h/syscall_cpp.hpp **** public:
 512              		.loc 1 73 7 is_stmt 1
 513              		.cfi_startproc
 514              	.LVL37:
 515 0000 130101FE 		addi	sp,sp,-32
 516              		.cfi_def_cfa_offset 32
 517 0004 233C1100 		sd	ra,24(sp)
 518 0008 23388100 		sd	s0,16(sp)
 519 000c 23349100 		sd	s1,8(sp)
 520              		.cfi_offset 1, -8
 521              		.cfi_offset 8, -16
 522              		.cfi_offset 9, -24
 523 0010 13040102 		addi	s0,sp,32
 524              		.cfi_def_cfa 8, 0
 525 0014 93040500 		mv	s1,a0
 526              	.LVL38:
 527              	.LBB73:
 528              	.LBB74:
  73:src/../h/syscall_cpp.hpp **** public:
 529              		.loc 1 73 7 is_stmt 0
 530 0018 97070000 		lla	a5,_ZTV14PeriodicThread+16
 530      93870700 
 531 0020 2330F500 		sd	a5,0(a0)
 532 0024 97000000 		call	_ZN6ThreadD2Ev
 532      E7800000 
 533              	.LVL39:
 534              	.LBE74:
 535              	.LBE73:
 536 002c 13850400 		mv	a0,s1
 537 0030 97000000 		call	_ZdlPv
 537      E7800000 
 538              	.LVL40:
 539 0038 83308101 		ld	ra,24(sp)
 540              		.cfi_restore 1
 541 003c 03340101 		ld	s0,16(sp)
 542              		.cfi_restore 8
 543              		.cfi_def_cfa 2, 32
 544 0040 83348100 		ld	s1,8(sp)
 545              		.cfi_restore 9
 546              	.LVL41:
 547 0044 13010102 		addi	sp,sp,32
 548              		.cfi_def_cfa_offset 0
 549 0048 67800000 		jr	ra
GAS LISTING /tmp/ccxuiBQM.s 			page 16


 550              		.cfi_endproc
 551              	.LFE79:
 553              		.text
 554              		.align	2
 555              		.globl	_ZN9SemaphoreD0Ev
 557              	_ZN9SemaphoreD0Ev:
 558              	.LFB66:
 124:src/syscall_cpp.cpp **** 	sem_close(myHandle);
 559              		.loc 2 124 1 is_stmt 1
 560              		.cfi_startproc
 561              	.LVL42:
 562 01dc 130101FE 		addi	sp,sp,-32
 563              		.cfi_def_cfa_offset 32
 564 01e0 233C1100 		sd	ra,24(sp)
 565 01e4 23388100 		sd	s0,16(sp)
 566 01e8 23349100 		sd	s1,8(sp)
 567              		.cfi_offset 1, -8
 568              		.cfi_offset 8, -16
 569              		.cfi_offset 9, -24
 570 01ec 13040102 		addi	s0,sp,32
 571              		.cfi_def_cfa 8, 0
 572 01f0 93040500 		mv	s1,a0
 573              		.loc 2 127 1 is_stmt 0
 574 01f4 97000000 		call	_ZN9SemaphoreD1Ev
 574      E7800000 
 575              	.LVL43:
 576 01fc 13850400 		mv	a0,s1
 577 0200 97000000 		call	_ZdlPv
 577      E7800000 
 578              	.LVL44:
 579 0208 83308101 		ld	ra,24(sp)
 580              		.cfi_restore 1
 581 020c 03340101 		ld	s0,16(sp)
 582              		.cfi_restore 8
 583              		.cfi_def_cfa 2, 32
 584 0210 83348100 		ld	s1,8(sp)
 585              		.cfi_restore 9
 586              	.LVL45:
 587 0214 13010102 		addi	sp,sp,32
 588              		.cfi_def_cfa_offset 0
 589 0218 67800000 		jr	ra
 590              		.cfi_endproc
 591              	.LFE66:
 593              		.align	2
 594              		.globl	_ZdaPv
 596              	_ZdaPv:
 597              	.LFB38:
  27:src/syscall_cpp.cpp **** mem_free(ptr);
 598              		.loc 2 27 10 is_stmt 1
 599              		.cfi_startproc
 600              		.cfi_personality 0x9b,DW.ref.__gxx_personality_v0
 601              		.cfi_lsda 0x1b,.LLSDA38
 602              	.LVL46:
 603 021c 130101FF 		addi	sp,sp,-16
 604              		.cfi_def_cfa_offset 16
 605 0220 23341100 		sd	ra,8(sp)
 606 0224 23308100 		sd	s0,0(sp)
GAS LISTING /tmp/ccxuiBQM.s 			page 17


 607              		.cfi_offset 1, -8
 608              		.cfi_offset 8, -16
 609 0228 13040101 		addi	s0,sp,16
 610              		.cfi_def_cfa 8, 0
  28:src/syscall_cpp.cpp **** }
 611              		.loc 2 28 1
  28:src/syscall_cpp.cpp **** }
 612              		.loc 2 28 9 is_stmt 0
 613 022c 97000000 		call	_Z8mem_freePv@plt
 613      E7800000 
 614              	.LVL47:
  29:src/syscall_cpp.cpp **** 
 615              		.loc 2 29 1
 616 0234 83308100 		ld	ra,8(sp)
 617              		.cfi_restore 1
 618 0238 03340100 		ld	s0,0(sp)
 619              		.cfi_restore 8
 620              		.cfi_def_cfa 2, 16
 621 023c 13010101 		addi	sp,sp,16
 622              		.cfi_def_cfa_offset 0
 623 0240 67800000 		jr	ra
 624              		.cfi_endproc
 625              	.LFE38:
 626              		.section	.gcc_except_table
 627              	.LLSDA38:
 628 000c FF       		.byte	0xff
 629 000d FF       		.byte	0xff
 630 000e 03       		.byte	0x3
 631 000f 00       		.byte	0
 632              		.text
 634              		.align	2
 635              		.globl	_ZN6ThreadC2EPFvPvES0_
 637              	_ZN6ThreadC2EPFvPvES0_:
 638              	.LFB40:
  32:src/syscall_cpp.cpp **** 	this->body = body;
 639              		.loc 2 32 1 is_stmt 1
 640              		.cfi_startproc
 641              	.LVL48:
 642 0244 130101FD 		addi	sp,sp,-48
 643              		.cfi_def_cfa_offset 48
 644 0248 23341102 		sd	ra,40(sp)
 645 024c 23308102 		sd	s0,32(sp)
 646 0250 233C9100 		sd	s1,24(sp)
 647 0254 23382101 		sd	s2,16(sp)
 648 0258 23343101 		sd	s3,8(sp)
 649              		.cfi_offset 1, -8
 650              		.cfi_offset 8, -16
 651              		.cfi_offset 9, -24
 652              		.cfi_offset 18, -32
 653              		.cfi_offset 19, -40
 654 025c 13040103 		addi	s0,sp,48
 655              		.cfi_def_cfa 8, 0
 656 0260 93040500 		mv	s1,a0
 657 0264 13890500 		mv	s2,a1
 658 0268 93090600 		mv	s3,a2
 659              	.LBB75:
  32:src/syscall_cpp.cpp **** 	this->body = body;
GAS LISTING /tmp/ccxuiBQM.s 			page 18


 660              		.loc 2 32 47 is_stmt 0
 661 026c 97070000 		lla	a5,_ZTV6Thread+16
 661      93870700 
 662 0274 2330F500 		sd	a5,0(a0)
 663              	.LBB76:
  33:src/syscall_cpp.cpp **** 	this->arg = arg;
 664              		.loc 2 33 2 is_stmt 1
  33:src/syscall_cpp.cpp **** 	this->arg = arg;
 665              		.loc 2 33 13 is_stmt 0
 666 0278 2338B500 		sd	a1,16(a0)
  34:src/syscall_cpp.cpp **** 	//stvaranje steka ako se ne radi o main kernel niti, posto ona automatski ima stek
 667              		.loc 2 34 2 is_stmt 1
  34:src/syscall_cpp.cpp **** 	//stvaranje steka ako se ne radi o main kernel niti, posto ona automatski ima stek
 668              		.loc 2 34 12 is_stmt 0
 669 027c 233CC500 		sd	a2,24(a0)
  36:src/syscall_cpp.cpp **** 	if (body != nullptr) {
 670              		.loc 2 36 2 is_stmt 1
 671              	.LVL49:
  37:src/syscall_cpp.cpp **** 		stack = (uint64*)mem_alloc(DEFAULT_STACK_SIZE);
 672              		.loc 2 37 2
 673 0280 63860504 		beqz	a1,.L41
  38:src/syscall_cpp.cpp **** 	}
 674              		.loc 2 38 3
  38:src/syscall_cpp.cpp **** 	}
 675              		.loc 2 38 29 is_stmt 0
 676 0284 37150000 		li	a0,4096
 677              	.LVL50:
 678 0288 97000000 		call	_Z9mem_allocm@plt
 678      E7800000 
 679              	.LVL51:
 680 0290 13030500 		mv	t1,a0
 681              	.LVL52:
 682              	.L40:
  42:src/syscall_cpp.cpp **** 	__asm__ volatile("mv a3, %[arg]": :[arg] "r"(arg):"a5", "a0", "a1", "a2", "a3", "a4", "a6", "a7");
 683              		.loc 2 42 2 is_stmt 1
  42:src/syscall_cpp.cpp **** 	__asm__ volatile("mv a3, %[arg]": :[arg] "r"(arg):"a5", "a0", "a1", "a2", "a3", "a4", "a6", "a7");
 684              		.loc 2 42 99 is_stmt 0
 685              	#APP
 686              	# 42 "src/syscall_cpp.cpp" 1
  43:src/syscall_cpp.cpp **** 	__asm__ volatile("mv a2, %[function]": :[function] "r"(
 687              		mv a4, t1
 688              	# 0 "" 2
 689              		.loc 2 43 2 is_stmt 1
  43:src/syscall_cpp.cpp **** 	__asm__ volatile("mv a2, %[function]": :[function] "r"(
 690              		.loc 2 43 99 is_stmt 0
 691              	# 43 "src/syscall_cpp.cpp" 1
  44:src/syscall_cpp.cpp **** 			body):"a5", "a0", "a1", "a2", "a3", "a4", "a6", "a7");
 692              		mv a3, s3
 693              	# 0 "" 2
 694              		.loc 2 44 2 is_stmt 1
  45:src/syscall_cpp.cpp **** 	__asm__ volatile("mv a1, %[handle]": :[handle] "r"(&myHandle):"a5", "a0", "a1", "a2", "a3", "a4", 
 695              		.loc 2 45 57 is_stmt 0
 696              	# 45 "src/syscall_cpp.cpp" 1
  46:src/syscall_cpp.cpp **** 	__asm__ volatile("li a0, 0x80");
 697              		mv a2, s2
 698              	# 0 "" 2
 699              		.loc 2 46 2 is_stmt 1
GAS LISTING /tmp/ccxuiBQM.s 			page 19


  46:src/syscall_cpp.cpp **** 	__asm__ volatile("li a0, 0x80");
 700              		.loc 2 46 53 is_stmt 0
 701              	#NO_APP
 702 02a0 93848400 		addi	s1,s1,8
 703              	.LVL53:
  46:src/syscall_cpp.cpp **** 	__asm__ volatile("li a0, 0x80");
 704              		.loc 2 46 111
 705              	#APP
 706              	# 46 "src/syscall_cpp.cpp" 1
  47:src/syscall_cpp.cpp **** 	//a0 = 0x80
 707              		mv a1, s1
 708              	# 0 "" 2
 709              		.loc 2 47 2 is_stmt 1
  47:src/syscall_cpp.cpp **** 	//a0 = 0x80
 710              		.loc 2 47 33 is_stmt 0
 711              	# 47 "src/syscall_cpp.cpp" 1
  54:src/syscall_cpp.cpp **** }
 712              		li a0, 0x80
 713              	# 0 "" 2
 714              		.loc 2 54 2 is_stmt 1
  54:src/syscall_cpp.cpp **** }
 715              		.loc 2 54 27 is_stmt 0
 716              	# 54 "src/syscall_cpp.cpp" 1
 717              		ecall
 718              	# 0 "" 2
 719              	#NO_APP
 720              	.LBE76:
 721              	.LBE75:
  55:src/syscall_cpp.cpp **** 
 722              		.loc 2 55 1
 723 02b0 83308102 		ld	ra,40(sp)
 724              		.cfi_remember_state
 725              		.cfi_restore 1
 726 02b4 03340102 		ld	s0,32(sp)
 727              		.cfi_restore 8
 728              		.cfi_def_cfa 2, 48
 729 02b8 83348101 		ld	s1,24(sp)
 730              		.cfi_restore 9
 731              	.LVL54:
 732 02bc 03390101 		ld	s2,16(sp)
 733              		.cfi_restore 18
 734              	.LVL55:
 735 02c0 83398100 		ld	s3,8(sp)
 736              		.cfi_restore 19
 737              	.LVL56:
 738 02c4 13010103 		addi	sp,sp,48
 739              		.cfi_def_cfa_offset 0
 740 02c8 67800000 		jr	ra
 741              	.LVL57:
 742              	.L41:
 743              		.cfi_restore_state
 744              	.LBB78:
 745              	.LBB77:
  36:src/syscall_cpp.cpp **** 	if (body != nullptr) {
 746              		.loc 2 36 10
 747 02cc 13030000 		li	t1,0
 748 02d0 6FF05FFC 		j	.L40
GAS LISTING /tmp/ccxuiBQM.s 			page 20


 749              	.LBE77:
 750              	.LBE78:
 751              		.cfi_endproc
 752              	.LFE40:
 754              		.globl	_ZN6ThreadC1EPFvPvES0_
 755              		.set	_ZN6ThreadC1EPFvPvES0_,_ZN6ThreadC2EPFvPvES0_
 756              		.align	2
 757              		.globl	_ZN6Thread5startEv
 759              	_ZN6Thread5startEv:
 760              	.LFB49:
  66:src/syscall_cpp.cpp **** 	if (myHandle == nullptr) return -1;
 761              		.loc 2 66 21 is_stmt 1
 762              		.cfi_startproc
 763              	.LVL58:
 764 02d4 130101FF 		addi	sp,sp,-16
 765              		.cfi_def_cfa_offset 16
 766 02d8 23348100 		sd	s0,8(sp)
 767              		.cfi_offset 8, -8
 768 02dc 13040101 		addi	s0,sp,16
 769              		.cfi_def_cfa 8, 0
  67:src/syscall_cpp.cpp **** 	__asm__ volatile("mv a1, %[handle]": :[handle] "r"(myHandle):"a5", "a0", "a1", "a2", "a3", "a4", "
 770              		.loc 2 67 2
  67:src/syscall_cpp.cpp **** 	__asm__ volatile("mv a1, %[handle]": :[handle] "r"(myHandle):"a5", "a0", "a1", "a2", "a3", "a4", "
 771              		.loc 2 67 6 is_stmt 0
 772 02e0 03338500 		ld	t1,8(a0)
  67:src/syscall_cpp.cpp **** 	__asm__ volatile("mv a1, %[handle]": :[handle] "r"(myHandle):"a5", "a0", "a1", "a2", "a3", "a4", "
 773              		.loc 2 67 2
 774 02e4 63000302 		beqz	t1,.L45
  68:src/syscall_cpp.cpp **** 	__asm__ volatile("li a0, 0x81");
 775              		.loc 2 68 2 is_stmt 1
  68:src/syscall_cpp.cpp **** 	__asm__ volatile("li a0, 0x81");
 776              		.loc 2 68 110 is_stmt 0
 777              	#APP
 778              	# 68 "src/syscall_cpp.cpp" 1
 779              		mv a1, t1
 780              	# 0 "" 2
 781              	.LVL59:
  69:src/syscall_cpp.cpp **** 
 782              		.loc 2 69 2 is_stmt 1
  69:src/syscall_cpp.cpp **** 
 783              		.loc 2 69 33 is_stmt 0
 784              	# 69 "src/syscall_cpp.cpp" 1
  71:src/syscall_cpp.cpp **** 
 785              		li a0, 0x81
 786              	# 0 "" 2
 787              		.loc 2 71 2 is_stmt 1
  71:src/syscall_cpp.cpp **** 
 788              		.loc 2 71 27 is_stmt 0
 789              	# 71 "src/syscall_cpp.cpp" 1
  73:src/syscall_cpp.cpp **** }
 790              		ecall
 791              	# 0 "" 2
 792              		.loc 2 73 2 is_stmt 1
  73:src/syscall_cpp.cpp **** }
 793              		.loc 2 73 9 is_stmt 0
 794              	#NO_APP
 795 02f4 13050000 		li	a0,0
GAS LISTING /tmp/ccxuiBQM.s 			page 21


 796              	.L44:
  74:src/syscall_cpp.cpp **** 
 797              		.loc 2 74 1
 798 02f8 03348100 		ld	s0,8(sp)
 799              		.cfi_remember_state
 800              		.cfi_restore 8
 801              		.cfi_def_cfa 2, 16
 802 02fc 13010101 		addi	sp,sp,16
 803              		.cfi_def_cfa_offset 0
 804 0300 67800000 		jr	ra
 805              	.LVL60:
 806              	.L45:
 807              		.cfi_restore_state
  67:src/syscall_cpp.cpp **** 	__asm__ volatile("mv a1, %[handle]": :[handle] "r"(myHandle):"a5", "a0", "a1", "a2", "a3", "a4", "
 808              		.loc 2 67 35
 809 0304 1305F0FF 		li	a0,-1
 810              	.LVL61:
 811 0308 6FF01FFF 		j	.L44
 812              		.cfi_endproc
 813              	.LFE49:
 815              		.align	2
 816              		.globl	_ZN6Thread4joinEv
 818              	_ZN6Thread4joinEv:
 819              	.LFB50:
  76:src/syscall_cpp.cpp **** 	thread_join(myHandle);
 820              		.loc 2 76 21 is_stmt 1
 821              		.cfi_startproc
 822              	.LVL62:
 823 030c 130101FF 		addi	sp,sp,-16
 824              		.cfi_def_cfa_offset 16
 825 0310 23341100 		sd	ra,8(sp)
 826 0314 23308100 		sd	s0,0(sp)
 827              		.cfi_offset 1, -8
 828              		.cfi_offset 8, -16
 829 0318 13040101 		addi	s0,sp,16
 830              		.cfi_def_cfa 8, 0
  77:src/syscall_cpp.cpp **** }
 831              		.loc 2 77 2
  77:src/syscall_cpp.cpp **** }
 832              		.loc 2 77 13 is_stmt 0
 833 031c 03358500 		ld	a0,8(a0)
 834              	.LVL63:
 835 0320 97000000 		call	_Z11thread_joinP3TCB@plt
 835      E7800000 
 836              	.LVL64:
  78:src/syscall_cpp.cpp **** 
 837              		.loc 2 78 1
 838 0328 83308100 		ld	ra,8(sp)
 839              		.cfi_restore 1
 840 032c 03340100 		ld	s0,0(sp)
 841              		.cfi_restore 8
 842              		.cfi_def_cfa 2, 16
 843 0330 13010101 		addi	sp,sp,16
 844              		.cfi_def_cfa_offset 0
 845 0334 67800000 		jr	ra
 846              		.cfi_endproc
 847              	.LFE50:
GAS LISTING /tmp/ccxuiBQM.s 			page 22


 849              		.align	2
 850              		.globl	_ZN6Thread8dispatchEv
 852              	_ZN6Thread8dispatchEv:
 853              	.LFB51:
  80:src/syscall_cpp.cpp **** 	thread_dispatch();
 854              		.loc 2 80 25 is_stmt 1
 855              		.cfi_startproc
 856 0338 130101FF 		addi	sp,sp,-16
 857              		.cfi_def_cfa_offset 16
 858 033c 23341100 		sd	ra,8(sp)
 859 0340 23308100 		sd	s0,0(sp)
 860              		.cfi_offset 1, -8
 861              		.cfi_offset 8, -16
 862 0344 13040101 		addi	s0,sp,16
 863              		.cfi_def_cfa 8, 0
  81:src/syscall_cpp.cpp **** }
 864              		.loc 2 81 2
  81:src/syscall_cpp.cpp **** }
 865              		.loc 2 81 17 is_stmt 0
 866 0348 97000000 		call	_Z15thread_dispatchv@plt
 866      E7800000 
 867              	.LVL65:
  82:src/syscall_cpp.cpp **** 
 868              		.loc 2 82 1
 869 0350 83308100 		ld	ra,8(sp)
 870              		.cfi_restore 1
 871 0354 03340100 		ld	s0,0(sp)
 872              		.cfi_restore 8
 873              		.cfi_def_cfa 2, 16
 874 0358 13010101 		addi	sp,sp,16
 875              		.cfi_def_cfa_offset 0
 876 035c 67800000 		jr	ra
 877              		.cfi_endproc
 878              	.LFE51:
 880              		.align	2
 881              		.globl	_ZN6Thread5sleepEm
 883              	_ZN6Thread5sleepEm:
 884              	.LFB52:
  84:src/syscall_cpp.cpp **** 	Scheduler::putToSleep(TCB::running, t);
 885              		.loc 2 84 29 is_stmt 1
 886              		.cfi_startproc
 887              	.LVL66:
 888 0360 130101FF 		addi	sp,sp,-16
 889              		.cfi_def_cfa_offset 16
 890 0364 23341100 		sd	ra,8(sp)
 891 0368 23308100 		sd	s0,0(sp)
 892              		.cfi_offset 1, -8
 893              		.cfi_offset 8, -16
 894 036c 13040101 		addi	s0,sp,16
 895              		.cfi_def_cfa 8, 0
 896 0370 93050500 		mv	a1,a0
  85:src/syscall_cpp.cpp **** 	return 0;
 897              		.loc 2 85 2
  85:src/syscall_cpp.cpp **** 	return 0;
 898              		.loc 2 85 23 is_stmt 0
 899 0374 97070000 		la	a5,_ZN3TCB7runningE
 899      83B70700 
GAS LISTING /tmp/ccxuiBQM.s 			page 23


 900 037c 03B50700 		ld	a0,0(a5)
 901              	.LVL67:
 902 0380 97000000 		call	_ZN9Scheduler10putToSleepEP3TCBm@plt
 902      E7800000 
 903              	.LVL68:
  86:src/syscall_cpp.cpp **** }
 904              		.loc 2 86 2 is_stmt 1
  87:src/syscall_cpp.cpp **** 
 905              		.loc 2 87 1 is_stmt 0
 906 0388 13050000 		li	a0,0
 907 038c 83308100 		ld	ra,8(sp)
 908              		.cfi_restore 1
 909 0390 03340100 		ld	s0,0(sp)
 910              		.cfi_restore 8
 911              		.cfi_def_cfa 2, 16
 912 0394 13010101 		addi	sp,sp,16
 913              		.cfi_def_cfa_offset 0
 914 0398 67800000 		jr	ra
 915              		.cfi_endproc
 916              	.LFE52:
 918              		.align	2
 919              		.globl	_ZN14PeriodicThread15periodicWrapperEPv
 921              	_ZN14PeriodicThread15periodicWrapperEPv:
 922              	.LFB73:
 128:src/syscall_cpp.cpp **** 
 129:src/syscall_cpp.cpp **** int Semaphore::wait() {
 130:src/syscall_cpp.cpp **** 	return sem_wait(myHandle);
 131:src/syscall_cpp.cpp **** }
 132:src/syscall_cpp.cpp **** 
 133:src/syscall_cpp.cpp **** int Semaphore::signal() {
 134:src/syscall_cpp.cpp **** 	return sem_signal(myHandle);
 135:src/syscall_cpp.cpp **** }
 136:src/syscall_cpp.cpp **** 
 137:src/syscall_cpp.cpp **** void PeriodicThread::terminate() {
 138:src/syscall_cpp.cpp **** }
 139:src/syscall_cpp.cpp **** 
 140:src/syscall_cpp.cpp **** PeriodicThread::PeriodicThread(time_t period) : Thread(periodicWrapper, this), period(period) {
 141:src/syscall_cpp.cpp **** }
 142:src/syscall_cpp.cpp **** 
 143:src/syscall_cpp.cpp **** void PeriodicThread::periodicWrapper(void* pThread) {
 923              		.loc 2 143 53 is_stmt 1
 924              		.cfi_startproc
 925              	.LVL69:
 926 039c 130101FE 		addi	sp,sp,-32
 927              		.cfi_def_cfa_offset 32
 928 03a0 233C1100 		sd	ra,24(sp)
 929 03a4 23388100 		sd	s0,16(sp)
 930 03a8 23349100 		sd	s1,8(sp)
 931              		.cfi_offset 1, -8
 932              		.cfi_offset 8, -16
 933              		.cfi_offset 9, -24
 934 03ac 13040102 		addi	s0,sp,32
 935              		.cfi_def_cfa 8, 0
 936 03b0 93040500 		mv	s1,a0
 144:src/syscall_cpp.cpp **** 	if (pThread != nullptr) {
 937              		.loc 2 144 2
 938              	.LBB79:
GAS LISTING /tmp/ccxuiBQM.s 			page 24


 939 03b4 63020502 		beqz	a0,.L53
 940              	.LVL70:
 941              	.L55:
 942              	.LBB80:
 145:src/syscall_cpp.cpp **** 		PeriodicThread* ptr = (PeriodicThread*)pThread;
 146:src/syscall_cpp.cpp **** 		while (1) {
 943              		.loc 2 146 3 discriminator 1
 147:src/syscall_cpp.cpp **** 			ptr->periodicActivation();
 944              		.loc 2 147 4 discriminator 1
 945              		.loc 2 147 28 is_stmt 0 discriminator 1
 946 03b8 83B70400 		ld	a5,0(s1)
 947 03bc 83B78701 		ld	a5,24(a5)
 948              		.loc 2 147 27 discriminator 1
 949 03c0 13850400 		mv	a0,s1
 950 03c4 E7800700 		jalr	a5
 951              	.LVL71:
 148:src/syscall_cpp.cpp **** 			Thread::sleep(ptr->period);
 952              		.loc 2 148 4 is_stmt 1 discriminator 1
 953              		.loc 2 148 17 is_stmt 0 discriminator 1
 954 03c8 03B50402 		ld	a0,32(s1)
 955 03cc 97000000 		call	_ZN6Thread5sleepEm
 955      E7800000 
 956              	.LVL72:
 146:src/syscall_cpp.cpp **** 			ptr->periodicActivation();
 957              		.loc 2 146 3 is_stmt 1 discriminator 1
 958 03d4 6FF05FFE 		j	.L55
 959              	.L53:
 960              	.LBE80:
 961              	.LBE79:
 149:src/syscall_cpp.cpp **** 		}
 150:src/syscall_cpp.cpp **** 	}
 151:src/syscall_cpp.cpp **** }
 962              		.loc 2 151 1 is_stmt 0
 963 03d8 83308101 		ld	ra,24(sp)
 964              		.cfi_restore 1
 965 03dc 03340101 		ld	s0,16(sp)
 966              		.cfi_restore 8
 967              		.cfi_def_cfa 2, 32
 968 03e0 83348100 		ld	s1,8(sp)
 969              		.cfi_restore 9
 970              	.LVL73:
 971 03e4 13010102 		addi	sp,sp,32
 972              		.cfi_def_cfa_offset 0
 973 03e8 67800000 		jr	ra
 974              		.cfi_endproc
 975              	.LFE73:
 977              		.align	2
 978              		.globl	_ZN6ThreadC2Ev
 980              	_ZN6ThreadC2Ev:
 981              	.LFB54:
  89:src/syscall_cpp.cpp **** 	this->body = wrapper;
 982              		.loc 2 89 1 is_stmt 1
 983              		.cfi_startproc
 984              	.LVL74:
 985 03ec 130101FE 		addi	sp,sp,-32
 986              		.cfi_def_cfa_offset 32
 987 03f0 233C1100 		sd	ra,24(sp)
GAS LISTING /tmp/ccxuiBQM.s 			page 25


 988 03f4 23388100 		sd	s0,16(sp)
 989 03f8 23349100 		sd	s1,8(sp)
 990              		.cfi_offset 1, -8
 991              		.cfi_offset 8, -16
 992              		.cfi_offset 9, -24
 993 03fc 13040102 		addi	s0,sp,32
 994              		.cfi_def_cfa 8, 0
 995 0400 93040500 		mv	s1,a0
 996              	.LBB81:
  89:src/syscall_cpp.cpp **** 	this->body = wrapper;
 997              		.loc 2 89 16 is_stmt 0
 998 0404 97070000 		lla	a5,_ZTV6Thread+16
 998      93870700 
 999 040c 2330F500 		sd	a5,0(a0)
 1000              	.LBB82:
  90:src/syscall_cpp.cpp **** 	this->arg = this;
 1001              		.loc 2 90 2 is_stmt 1
  90:src/syscall_cpp.cpp **** 	this->arg = this;
 1002              		.loc 2 90 13 is_stmt 0
 1003 0410 97070000 		lla	a5,_ZN6Thread7wrapperEPv
 1003      93870700 
 1004 0418 2338F500 		sd	a5,16(a0)
  91:src/syscall_cpp.cpp **** 	//stvaranje steka ako se ne radi o main kernel niti, posto ona automatski ima stek
 1005              		.loc 2 91 2 is_stmt 1
  91:src/syscall_cpp.cpp **** 	//stvaranje steka ako se ne radi o main kernel niti, posto ona automatski ima stek
 1006              		.loc 2 91 12 is_stmt 0
 1007 041c 233CA500 		sd	a0,24(a0)
  93:src/syscall_cpp.cpp **** 	if (body != nullptr) {
 1008              		.loc 2 93 2 is_stmt 1
 1009              	.LVL75:
  94:src/syscall_cpp.cpp **** 		stack = (uint64*)mem_alloc(DEFAULT_STACK_SIZE);
 1010              		.loc 2 94 2
  95:src/syscall_cpp.cpp **** 	}
 1011              		.loc 2 95 3
  95:src/syscall_cpp.cpp **** 	}
 1012              		.loc 2 95 29 is_stmt 0
 1013 0420 37150000 		li	a0,4096
 1014              	.LVL76:
 1015 0424 97000000 		call	_Z9mem_allocm@plt
 1015      E7800000 
 1016              	.LVL77:
 1017 042c 13030500 		mv	t1,a0
 1018              	.LVL78:
  99:src/syscall_cpp.cpp **** 	__asm__ volatile("mv a3, %[arg]": :[arg] "r"(arg):"a5", "a0", "a1", "a2", "a3", "a4", "a6", "a7");
 1019              		.loc 2 99 2 is_stmt 1
  99:src/syscall_cpp.cpp **** 	__asm__ volatile("mv a3, %[arg]": :[arg] "r"(arg):"a5", "a0", "a1", "a2", "a3", "a4", "a6", "a7");
 1020              		.loc 2 99 99 is_stmt 0
 1021              	#APP
 1022              	# 99 "src/syscall_cpp.cpp" 1
 100:src/syscall_cpp.cpp **** 	__asm__ volatile("mv a2, %[function]": :[function] "r"(
 1023              		mv a4, t1
 1024              	# 0 "" 2
 1025              		.loc 2 100 2 is_stmt 1
 100:src/syscall_cpp.cpp **** 	__asm__ volatile("mv a2, %[function]": :[function] "r"(
 1026              		.loc 2 100 47 is_stmt 0
 1027              	#NO_APP
 1028 0434 03B38401 		ld	t1,24(s1)
GAS LISTING /tmp/ccxuiBQM.s 			page 26


 1029              	.LVL79:
 100:src/syscall_cpp.cpp **** 	__asm__ volatile("mv a2, %[function]": :[function] "r"(
 1030              		.loc 2 100 99
 1031              	#APP
 1032              	# 100 "src/syscall_cpp.cpp" 1
 101:src/syscall_cpp.cpp **** 			body):"a5", "a0", "a1", "a2", "a3", "a4", "a6", "a7");
 1033              		mv a3, t1
 1034              	# 0 "" 2
 1035              		.loc 2 101 2 is_stmt 1
 102:src/syscall_cpp.cpp **** 	__asm__ volatile("mv a1, %[handle]": :[handle] "r"(&myHandle):"a5", "a0", "a1", "a2", "a3", "a4", 
 1036              		.loc 2 102 4 is_stmt 0
 1037              	#NO_APP
 1038 043c 03B30401 		ld	t1,16(s1)
 102:src/syscall_cpp.cpp **** 	__asm__ volatile("mv a1, %[handle]": :[handle] "r"(&myHandle):"a5", "a0", "a1", "a2", "a3", "a4", 
 1039              		.loc 2 102 57
 1040              	#APP
 1041              	# 102 "src/syscall_cpp.cpp" 1
 103:src/syscall_cpp.cpp **** 	__asm__ volatile("li a0, 0x80");
 1042              		mv a2, t1
 1043              	# 0 "" 2
 1044              		.loc 2 103 2 is_stmt 1
 103:src/syscall_cpp.cpp **** 	__asm__ volatile("li a0, 0x80");
 1045              		.loc 2 103 53 is_stmt 0
 1046              	#NO_APP
 1047 0444 93848400 		addi	s1,s1,8
 1048              	.LVL80:
 103:src/syscall_cpp.cpp **** 	__asm__ volatile("li a0, 0x80");
 1049              		.loc 2 103 111
 1050              	#APP
 1051              	# 103 "src/syscall_cpp.cpp" 1
 104:src/syscall_cpp.cpp **** 	//a0 = 0x80
 1052              		mv a1, s1
 1053              	# 0 "" 2
 1054              		.loc 2 104 2 is_stmt 1
 104:src/syscall_cpp.cpp **** 	//a0 = 0x80
 1055              		.loc 2 104 33 is_stmt 0
 1056              	# 104 "src/syscall_cpp.cpp" 1
 111:src/syscall_cpp.cpp **** }
 1057              		li a0, 0x80
 1058              	# 0 "" 2
 1059              		.loc 2 111 2 is_stmt 1
 111:src/syscall_cpp.cpp **** }
 1060              		.loc 2 111 27 is_stmt 0
 1061              	# 111 "src/syscall_cpp.cpp" 1
 1062              		ecall
 1063              	# 0 "" 2
 1064              	#NO_APP
 1065              	.LBE82:
 1066              	.LBE81:
 112:src/syscall_cpp.cpp **** 
 1067              		.loc 2 112 1
 1068 0454 83308101 		ld	ra,24(sp)
 1069              		.cfi_restore 1
 1070 0458 03340101 		ld	s0,16(sp)
 1071              		.cfi_restore 8
 1072              		.cfi_def_cfa 2, 32
 1073 045c 83348100 		ld	s1,8(sp)
GAS LISTING /tmp/ccxuiBQM.s 			page 27


 1074              		.cfi_restore 9
 1075              	.LVL81:
 1076 0460 13010102 		addi	sp,sp,32
 1077              		.cfi_def_cfa_offset 0
 1078 0464 67800000 		jr	ra
 1079              		.cfi_endproc
 1080              	.LFE54:
 1082              		.globl	_ZN6ThreadC1Ev
 1083              		.set	_ZN6ThreadC1Ev,_ZN6ThreadC2Ev
 1084              		.align	2
 1085              		.globl	_ZN9SemaphoreC2Ej
 1087              	_ZN9SemaphoreC2Ej:
 1088              	.LFB58:
 120:src/syscall_cpp.cpp **** 	sem_open(&myHandle, init);
 1089              		.loc 2 120 1 is_stmt 1
 1090              		.cfi_startproc
 1091              	.LVL82:
 1092 0468 130101FF 		addi	sp,sp,-16
 1093              		.cfi_def_cfa_offset 16
 1094 046c 23341100 		sd	ra,8(sp)
 1095 0470 23308100 		sd	s0,0(sp)
 1096              		.cfi_offset 1, -8
 1097              		.cfi_offset 8, -16
 1098 0474 13040101 		addi	s0,sp,16
 1099              		.cfi_def_cfa 8, 0
 1100              	.LBB83:
 120:src/syscall_cpp.cpp **** 	sem_open(&myHandle, init);
 1101              		.loc 2 120 39 is_stmt 0
 1102 0478 97070000 		lla	a5,_ZTV9Semaphore+16
 1102      93870700 
 1103 0480 2330F500 		sd	a5,0(a0)
 121:src/syscall_cpp.cpp **** }
 1104              		.loc 2 121 2 is_stmt 1
 121:src/syscall_cpp.cpp **** }
 1105              		.loc 2 121 10 is_stmt 0
 1106 0484 13058500 		addi	a0,a0,8
 1107              	.LVL83:
 1108 0488 97000000 		call	_Z8sem_openPP4KSemj@plt
 1108      E7800000 
 1109              	.LVL84:
 1110              	.LBE83:
 122:src/syscall_cpp.cpp **** 
 1111              		.loc 2 122 1
 1112 0490 83308100 		ld	ra,8(sp)
 1113              		.cfi_restore 1
 1114 0494 03340100 		ld	s0,0(sp)
 1115              		.cfi_restore 8
 1116              		.cfi_def_cfa 2, 16
 1117 0498 13010101 		addi	sp,sp,16
 1118              		.cfi_def_cfa_offset 0
 1119 049c 67800000 		jr	ra
 1120              		.cfi_endproc
 1121              	.LFE58:
 1123              		.globl	_ZN9SemaphoreC1Ej
 1124              		.set	_ZN9SemaphoreC1Ej,_ZN9SemaphoreC2Ej
 1125              		.align	2
 1126              		.globl	_ZN9Semaphore4waitEv
GAS LISTING /tmp/ccxuiBQM.s 			page 28


 1128              	_ZN9Semaphore4waitEv:
 1129              	.LFB67:
 129:src/syscall_cpp.cpp **** 	return sem_wait(myHandle);
 1130              		.loc 2 129 23 is_stmt 1
 1131              		.cfi_startproc
 1132              	.LVL85:
 1133 04a0 130101FF 		addi	sp,sp,-16
 1134              		.cfi_def_cfa_offset 16
 1135 04a4 23341100 		sd	ra,8(sp)
 1136 04a8 23308100 		sd	s0,0(sp)
 1137              		.cfi_offset 1, -8
 1138              		.cfi_offset 8, -16
 1139 04ac 13040101 		addi	s0,sp,16
 1140              		.cfi_def_cfa 8, 0
 130:src/syscall_cpp.cpp **** }
 1141              		.loc 2 130 2
 130:src/syscall_cpp.cpp **** }
 1142              		.loc 2 130 17 is_stmt 0
 1143 04b0 03358500 		ld	a0,8(a0)
 1144              	.LVL86:
 1145 04b4 97000000 		call	_Z8sem_waitP4KSem@plt
 1145      E7800000 
 1146              	.LVL87:
 131:src/syscall_cpp.cpp **** 
 1147              		.loc 2 131 1
 1148 04bc 83308100 		ld	ra,8(sp)
 1149              		.cfi_restore 1
 1150 04c0 03340100 		ld	s0,0(sp)
 1151              		.cfi_restore 8
 1152              		.cfi_def_cfa 2, 16
 1153 04c4 13010101 		addi	sp,sp,16
 1154              		.cfi_def_cfa_offset 0
 1155 04c8 67800000 		jr	ra
 1156              		.cfi_endproc
 1157              	.LFE67:
 1159              		.align	2
 1160              		.globl	_ZN9Semaphore6signalEv
 1162              	_ZN9Semaphore6signalEv:
 1163              	.LFB68:
 133:src/syscall_cpp.cpp **** 	return sem_signal(myHandle);
 1164              		.loc 2 133 25 is_stmt 1
 1165              		.cfi_startproc
 1166              	.LVL88:
 1167 04cc 130101FF 		addi	sp,sp,-16
 1168              		.cfi_def_cfa_offset 16
 1169 04d0 23341100 		sd	ra,8(sp)
 1170 04d4 23308100 		sd	s0,0(sp)
 1171              		.cfi_offset 1, -8
 1172              		.cfi_offset 8, -16
 1173 04d8 13040101 		addi	s0,sp,16
 1174              		.cfi_def_cfa 8, 0
 134:src/syscall_cpp.cpp **** }
 1175              		.loc 2 134 2
 134:src/syscall_cpp.cpp **** }
 1176              		.loc 2 134 19 is_stmt 0
 1177 04dc 03358500 		ld	a0,8(a0)
 1178              	.LVL89:
GAS LISTING /tmp/ccxuiBQM.s 			page 29


 1179 04e0 97000000 		call	_Z10sem_signalP4KSem@plt
 1179      E7800000 
 1180              	.LVL90:
 135:src/syscall_cpp.cpp **** 
 1181              		.loc 2 135 1
 1182 04e8 83308100 		ld	ra,8(sp)
 1183              		.cfi_restore 1
 1184 04ec 03340100 		ld	s0,0(sp)
 1185              		.cfi_restore 8
 1186              		.cfi_def_cfa 2, 16
 1187 04f0 13010101 		addi	sp,sp,16
 1188              		.cfi_def_cfa_offset 0
 1189 04f4 67800000 		jr	ra
 1190              		.cfi_endproc
 1191              	.LFE68:
 1193              		.align	2
 1194              		.globl	_ZN14PeriodicThread9terminateEv
 1196              	_ZN14PeriodicThread9terminateEv:
 1197              	.LFB69:
 137:src/syscall_cpp.cpp **** }
 1198              		.loc 2 137 34 is_stmt 1
 1199              		.cfi_startproc
 1200              	.LVL91:
 1201 04f8 130101FF 		addi	sp,sp,-16
 1202              		.cfi_def_cfa_offset 16
 1203 04fc 23348100 		sd	s0,8(sp)
 1204              		.cfi_offset 8, -8
 1205 0500 13040101 		addi	s0,sp,16
 1206              		.cfi_def_cfa 8, 0
 138:src/syscall_cpp.cpp **** 
 1207              		.loc 2 138 1 is_stmt 0
 1208 0504 03348100 		ld	s0,8(sp)
 1209              		.cfi_restore 8
 1210              		.cfi_def_cfa 2, 16
 1211 0508 13010101 		addi	sp,sp,16
 1212              		.cfi_def_cfa_offset 0
 1213 050c 67800000 		jr	ra
 1214              		.cfi_endproc
 1215              	.LFE69:
 1217              		.align	2
 1218              		.globl	_ZN14PeriodicThreadC2Em
 1220              	_ZN14PeriodicThreadC2Em:
 1221              	.LFB71:
 140:src/syscall_cpp.cpp **** }
 1222              		.loc 2 140 1 is_stmt 1
 1223              		.cfi_startproc
 1224              	.LVL92:
 1225 0510 130101FE 		addi	sp,sp,-32
 1226              		.cfi_def_cfa_offset 32
 1227 0514 233C1100 		sd	ra,24(sp)
 1228 0518 23388100 		sd	s0,16(sp)
 1229 051c 23349100 		sd	s1,8(sp)
 1230 0520 23302101 		sd	s2,0(sp)
 1231              		.cfi_offset 1, -8
 1232              		.cfi_offset 8, -16
 1233              		.cfi_offset 9, -24
 1234              		.cfi_offset 18, -32
GAS LISTING /tmp/ccxuiBQM.s 			page 30


 1235 0524 13040102 		addi	s0,sp,32
 1236              		.cfi_def_cfa 8, 0
 1237 0528 93040500 		mv	s1,a0
 1238 052c 13890500 		mv	s2,a1
 1239              	.LBB84:
 140:src/syscall_cpp.cpp **** }
 1240              		.loc 2 140 93 is_stmt 0
 1241 0530 13060500 		mv	a2,a0
 1242 0534 97050000 		lla	a1,_ZN14PeriodicThread15periodicWrapperEPv
 1242      93850500 
 1243              	.LVL93:
 1244 053c 97000000 		call	_ZN6ThreadC2EPFvPvES0_
 1244      E7800000 
 1245              	.LVL94:
 1246 0544 97070000 		lla	a5,_ZTV14PeriodicThread+16
 1246      93870700 
 1247 054c 23B0F400 		sd	a5,0(s1)
 1248 0550 23B02403 		sd	s2,32(s1)
 1249              	.LBE84:
 141:src/syscall_cpp.cpp **** 
 1250              		.loc 2 141 1
 1251 0554 83308101 		ld	ra,24(sp)
 1252              		.cfi_restore 1
 1253 0558 03340101 		ld	s0,16(sp)
 1254              		.cfi_restore 8
 1255              		.cfi_def_cfa 2, 32
 1256 055c 83348100 		ld	s1,8(sp)
 1257              		.cfi_restore 9
 1258              	.LVL95:
 1259 0560 03390100 		ld	s2,0(sp)
 1260              		.cfi_restore 18
 1261              	.LVL96:
 1262 0564 13010102 		addi	sp,sp,32
 1263              		.cfi_def_cfa_offset 0
 1264 0568 67800000 		jr	ra
 1265              		.cfi_endproc
 1266              	.LFE71:
 1268              		.globl	_ZN14PeriodicThreadC1Em
 1269              		.set	_ZN14PeriodicThreadC1Em,_ZN14PeriodicThreadC2Em
 1270              		.align	2
 1271              		.globl	_ZN7Console4getcEv
 1273              	_ZN7Console4getcEv:
 1274              	.LFB74:
 152:src/syscall_cpp.cpp **** 
 153:src/syscall_cpp.cpp **** char Console::getc() {
 1275              		.loc 2 153 22 is_stmt 1
 1276              		.cfi_startproc
 1277 056c 130101FF 		addi	sp,sp,-16
 1278              		.cfi_def_cfa_offset 16
 1279 0570 23341100 		sd	ra,8(sp)
 1280 0574 23308100 		sd	s0,0(sp)
 1281              		.cfi_offset 1, -8
 1282              		.cfi_offset 8, -16
 1283 0578 13040101 		addi	s0,sp,16
 1284              		.cfi_def_cfa 8, 0
 154:src/syscall_cpp.cpp **** 	return ::getc();
 1285              		.loc 2 154 2
GAS LISTING /tmp/ccxuiBQM.s 			page 31


 1286              		.loc 2 154 15 is_stmt 0
 1287 057c 97000000 		call	_Z4getcv@plt
 1287      E7800000 
 1288              	.LVL97:
 155:src/syscall_cpp.cpp **** }
 1289              		.loc 2 155 1
 1290 0584 83308100 		ld	ra,8(sp)
 1291              		.cfi_restore 1
 1292 0588 03340100 		ld	s0,0(sp)
 1293              		.cfi_restore 8
 1294              		.cfi_def_cfa 2, 16
 1295 058c 13010101 		addi	sp,sp,16
 1296              		.cfi_def_cfa_offset 0
 1297 0590 67800000 		jr	ra
 1298              		.cfi_endproc
 1299              	.LFE74:
 1301              		.align	2
 1302              		.globl	_ZN7Console4putcEc
 1304              	_ZN7Console4putcEc:
 1305              	.LFB75:
 156:src/syscall_cpp.cpp **** 
 157:src/syscall_cpp.cpp **** void Console::putc(char c) {
 1306              		.loc 2 157 28 is_stmt 1
 1307              		.cfi_startproc
 1308              	.LVL98:
 1309 0594 130101FF 		addi	sp,sp,-16
 1310              		.cfi_def_cfa_offset 16
 1311 0598 23341100 		sd	ra,8(sp)
 1312 059c 23308100 		sd	s0,0(sp)
 1313              		.cfi_offset 1, -8
 1314              		.cfi_offset 8, -16
 1315 05a0 13040101 		addi	s0,sp,16
 1316              		.cfi_def_cfa 8, 0
 158:src/syscall_cpp.cpp **** 	::putc(c);
 1317              		.loc 2 158 2
 1318              		.loc 2 158 8 is_stmt 0
 1319 05a4 97000000 		call	_Z4putcc@plt
 1319      E7800000 
 1320              	.LVL99:
 159:src/syscall_cpp.cpp **** }
 1321              		.loc 2 159 1
 1322 05ac 83308100 		ld	ra,8(sp)
 1323              		.cfi_restore 1
 1324 05b0 03340100 		ld	s0,0(sp)
 1325              		.cfi_restore 8
 1326              		.cfi_def_cfa 2, 16
 1327 05b4 13010101 		addi	sp,sp,16
 1328              		.cfi_def_cfa_offset 0
 1329 05b8 67800000 		jr	ra
 1330              		.cfi_endproc
 1331              	.LFE75:
 1333              		.weak	_ZTV14PeriodicThread
 1334              		.section	.data.rel.ro.local._ZTV14PeriodicThread,"awG",@progbits,_ZTV14PeriodicThread,comdat
 1335              		.align	3
 1338              	_ZTV14PeriodicThread:
 1339 0000 00000000 		.dword	0
 1339      00000000 
GAS LISTING /tmp/ccxuiBQM.s 			page 32


 1340 0008 00000000 		.dword	0
 1340      00000000 
 1341 0010 00000000 		.dword	_ZN14PeriodicThreadD1Ev
 1341      00000000 
 1342 0018 00000000 		.dword	_ZN14PeriodicThreadD0Ev
 1342      00000000 
 1343 0020 00000000 		.dword	_ZN6Thread3runEv
 1343      00000000 
 1344 0028 00000000 		.dword	_ZN14PeriodicThread18periodicActivationEv
 1344      00000000 
 1345              		.weak	_ZTV6Thread
 1346              		.section	.data.rel.ro.local._ZTV6Thread,"awG",@progbits,_ZTV6Thread,comdat
 1347              		.align	3
 1350              	_ZTV6Thread:
 1351 0000 00000000 		.dword	0
 1351      00000000 
 1352 0008 00000000 		.dword	0
 1352      00000000 
 1353 0010 00000000 		.dword	_ZN6ThreadD1Ev
 1353      00000000 
 1354 0018 00000000 		.dword	_ZN6ThreadD0Ev
 1354      00000000 
 1355 0020 00000000 		.dword	_ZN6Thread3runEv
 1355      00000000 
 1356              		.weak	_ZTV9Semaphore
 1357              		.section	.data.rel.ro.local._ZTV9Semaphore,"awG",@progbits,_ZTV9Semaphore,comdat
 1358              		.align	3
 1361              	_ZTV9Semaphore:
 1362 0000 00000000 		.dword	0
 1362      00000000 
 1363 0008 00000000 		.dword	0
 1363      00000000 
 1364 0010 00000000 		.dword	_ZN9SemaphoreD1Ev
 1364      00000000 
 1365 0018 00000000 		.dword	_ZN9SemaphoreD0Ev
 1365      00000000 
 1366              		.text
 1367              	.Letext0:
 1368              		.file 4 "src/../h/../lib/hw.h"
 1369              		.file 5 "src/../h/TCB.hpp"
 1370              		.file 6 "src/../h/KSem.hpp"
 1371              		.file 7 "src/../h/Scheduler.hpp"
 1372              		.file 8 "src/../h/syscall_c.hpp"
 6422              		.align	3
 6425              	DW.ref.__gxx_personality_v0:
 6426 0000 00000000 		.dword	__gxx_personality_v0
 6426      00000000 
 6427              		.ident	"GCC: (Ubuntu 9.4.0-1ubuntu1~20.04) 9.4.0"
 6428              		.section	.note.GNU-stack,"",@progbits
GAS LISTING /tmp/ccxuiBQM.s 			page 33


DEFINED SYMBOLS
                            *ABS*:0000000000000000 syscall_cpp.cpp
     /tmp/ccxuiBQM.s:10     .text._ZN6Thread3runEv:0000000000000000 _ZN6Thread3runEv
     /tmp/ccxuiBQM.s:14     .text._ZN6Thread3runEv:0000000000000000 .L0 
     /tmp/ccxuiBQM.s:16     .text._ZN6Thread3runEv:0000000000000000 .L0 
     /tmp/ccxuiBQM.s:17     .text._ZN6Thread3runEv:0000000000000004 .L0 
     /tmp/ccxuiBQM.s:19     .text._ZN6Thread3runEv:0000000000000008 .L0 
     /tmp/ccxuiBQM.s:21     .text._ZN6Thread3runEv:000000000000000c .L0 
     /tmp/ccxuiBQM.s:23     .text._ZN6Thread3runEv:000000000000000c .L0 
     /tmp/ccxuiBQM.s:24     .text._ZN6Thread3runEv:0000000000000010 .L0 
     /tmp/ccxuiBQM.s:25     .text._ZN6Thread3runEv:0000000000000010 .L0 
     /tmp/ccxuiBQM.s:27     .text._ZN6Thread3runEv:0000000000000014 .L0 
     /tmp/ccxuiBQM.s:29     .text._ZN6Thread3runEv:0000000000000018 .L0 
     /tmp/ccxuiBQM.s:36     .text._ZN14PeriodicThread18periodicActivationEv:0000000000000000 _ZN14PeriodicThread18periodicActivationEv
     /tmp/ccxuiBQM.s:39     .text._ZN14PeriodicThread18periodicActivationEv:0000000000000000 .L0 
     /tmp/ccxuiBQM.s:41     .text._ZN14PeriodicThread18periodicActivationEv:0000000000000000 .L0 
     /tmp/ccxuiBQM.s:42     .text._ZN14PeriodicThread18periodicActivationEv:0000000000000004 .L0 
     /tmp/ccxuiBQM.s:44     .text._ZN14PeriodicThread18periodicActivationEv:0000000000000008 .L0 
     /tmp/ccxuiBQM.s:46     .text._ZN14PeriodicThread18periodicActivationEv:000000000000000c .L0 
     /tmp/ccxuiBQM.s:48     .text._ZN14PeriodicThread18periodicActivationEv:000000000000000c .L0 
     /tmp/ccxuiBQM.s:49     .text._ZN14PeriodicThread18periodicActivationEv:0000000000000010 .L0 
     /tmp/ccxuiBQM.s:50     .text._ZN14PeriodicThread18periodicActivationEv:0000000000000010 .L0 
     /tmp/ccxuiBQM.s:52     .text._ZN14PeriodicThread18periodicActivationEv:0000000000000014 .L0 
     /tmp/ccxuiBQM.s:54     .text._ZN14PeriodicThread18periodicActivationEv:0000000000000018 .L0 
     /tmp/ccxuiBQM.s:61     .text:0000000000000000 _ZN6Thread7wrapperEPv
     /tmp/ccxuiBQM.s:65     .text:0000000000000000 .L0 
     /tmp/ccxuiBQM.s:67     .text:0000000000000000 .L0 
     /tmp/ccxuiBQM.s:68     .text:0000000000000000 .L0 
     /tmp/ccxuiBQM.s:70     .text:0000000000000004 .L0 
     /tmp/ccxuiBQM.s:71     .text:0000000000000008 .L0 
     /tmp/ccxuiBQM.s:74     .text:0000000000000010 .L0 
     /tmp/ccxuiBQM.s:75     .text:0000000000000010 .L0 
     /tmp/ccxuiBQM.s:77     .text:0000000000000014 .L0 
     /tmp/ccxuiBQM.s:79     .text:0000000000000014 .L0 
     /tmp/ccxuiBQM.s:80     .text:0000000000000014 .L0 
     /tmp/ccxuiBQM.s:83     .text:000000000000001c .L0 
     /tmp/ccxuiBQM.s:86     .text:0000000000000020 .L0 
     /tmp/ccxuiBQM.s:87     .text:0000000000000024 .L0 
     /tmp/ccxuiBQM.s:89     .text:0000000000000028 .L0 
     /tmp/ccxuiBQM.s:90     .text:0000000000000028 .L0 
     /tmp/ccxuiBQM.s:92     .text:000000000000002c .L0 
     /tmp/ccxuiBQM.s:97     .text:0000000000000034 .L0 
     /tmp/ccxuiBQM.s:103    .text:0000000000000034 _ZN6ThreadD2Ev
     /tmp/ccxuiBQM.s:106    .text:0000000000000034 .L0 
     /tmp/ccxuiBQM.s:6425   .data.rel.local.DW.ref.__gxx_personality_v0:0000000000000000 DW.ref.__gxx_personality_v0
     /tmp/ccxuiBQM.s:110    .text:0000000000000034 .L0 
     /tmp/ccxuiBQM.s:111    .text:0000000000000038 .L0 
     /tmp/ccxuiBQM.s:115    .text:0000000000000044 .L0 
     /tmp/ccxuiBQM.s:116    .text:0000000000000044 .L0 
     /tmp/ccxuiBQM.s:117    .text:0000000000000044 .L0 
     /tmp/ccxuiBQM.s:119    .text:0000000000000048 .L0 
     /tmp/ccxuiBQM.s:1350   .data.rel.ro.local._ZTV6Thread:0000000000000000 _ZTV6Thread
     /tmp/ccxuiBQM.s:123    .text:000000000000004c .L0 
     /tmp/ccxuiBQM.s:126    .text:0000000000000058 .L0 
     /tmp/ccxuiBQM.s:127    .text:0000000000000058 .L0 
     /tmp/ccxuiBQM.s:132    .text:0000000000000064 .L0 
     /tmp/ccxuiBQM.s:133    .text:0000000000000064 .L0 
GAS LISTING /tmp/ccxuiBQM.s 			page 34


     /tmp/ccxuiBQM.s:136    .text:0000000000000068 .L0 
     /tmp/ccxuiBQM.s:143    .text:000000000000006c .L0 
     /tmp/ccxuiBQM.s:147    .text:000000000000006c .L0 
     /tmp/ccxuiBQM.s:148    .text:000000000000006c .L0 
     /tmp/ccxuiBQM.s:149    .text:000000000000006c .L0 
     /tmp/ccxuiBQM.s:154    .text:0000000000000070 .L0 
     /tmp/ccxuiBQM.s:155    .text:0000000000000070 .L0 
     /tmp/ccxuiBQM.s:159    .text:0000000000000074 .L0 
     /tmp/ccxuiBQM.s:160    .text:0000000000000074 .L0 
     /tmp/ccxuiBQM.s:161    .text:0000000000000074 .L0 
     /tmp/ccxuiBQM.s:163    .text:0000000000000078 .L0 
     /tmp/ccxuiBQM.s:165    .text:000000000000007c .L0 
     /tmp/ccxuiBQM.s:166    .text:000000000000007c .L0 
     /tmp/ccxuiBQM.s:171    .text:0000000000000080 .L0 
     /tmp/ccxuiBQM.s:172    .text:0000000000000080 .L0 
     /tmp/ccxuiBQM.s:175    .text:0000000000000088 .L0 
     /tmp/ccxuiBQM.s:184    .text:000000000000008c .L0 
     /tmp/ccxuiBQM.s:190    .text:0000000000000098 .L0 
     /tmp/ccxuiBQM.s:191    .text:000000000000009c .L0 
     /tmp/ccxuiBQM.s:193    .text:00000000000000a0 .L0 
     /tmp/ccxuiBQM.s:194    .text:00000000000000a0 .L0 
     /tmp/ccxuiBQM.s:196    .text:00000000000000a4 .L0 
     /tmp/ccxuiBQM.s:198    .text:00000000000000a8 .L0 
     /tmp/ccxuiBQM.s:200    .text:00000000000000ac .L0 
     /tmp/ccxuiBQM.s:103    .text:0000000000000034 _ZN6ThreadD1Ev
     /tmp/ccxuiBQM.s:217    .text._ZN14PeriodicThreadD2Ev:0000000000000000 _ZN14PeriodicThreadD2Ev
     /tmp/ccxuiBQM.s:220    .text._ZN14PeriodicThreadD2Ev:0000000000000000 .L0 
     /tmp/ccxuiBQM.s:222    .text._ZN14PeriodicThreadD2Ev:0000000000000000 .L0 
     /tmp/ccxuiBQM.s:223    .text._ZN14PeriodicThreadD2Ev:0000000000000004 .L0 
     /tmp/ccxuiBQM.s:226    .text._ZN14PeriodicThreadD2Ev:000000000000000c .L0 
     /tmp/ccxuiBQM.s:227    .text._ZN14PeriodicThreadD2Ev:000000000000000c .L0 
     /tmp/ccxuiBQM.s:229    .text._ZN14PeriodicThreadD2Ev:0000000000000010 .L0 
     /tmp/ccxuiBQM.s:1338   .data.rel.ro.local._ZTV14PeriodicThread:0000000000000000 _ZTV14PeriodicThread
     /tmp/ccxuiBQM.s:232    .text._ZN14PeriodicThreadD2Ev:0000000000000010 .L0 
     /tmp/ccxuiBQM.s:238    .text._ZN14PeriodicThreadD2Ev:0000000000000028 .L0 
     /tmp/ccxuiBQM.s:240    .text._ZN14PeriodicThreadD2Ev:000000000000002c .L0 
     /tmp/ccxuiBQM.s:241    .text._ZN14PeriodicThreadD2Ev:000000000000002c .L0 
     /tmp/ccxuiBQM.s:243    .text._ZN14PeriodicThreadD2Ev:0000000000000030 .L0 
     /tmp/ccxuiBQM.s:245    .text._ZN14PeriodicThreadD2Ev:0000000000000034 .L0 
     /tmp/ccxuiBQM.s:217    .text._ZN14PeriodicThreadD2Ev:0000000000000000 _ZN14PeriodicThreadD1Ev
     /tmp/ccxuiBQM.s:254    .text:00000000000000ac _ZN9SemaphoreD2Ev
     /tmp/ccxuiBQM.s:257    .text:00000000000000ac .L0 
     /tmp/ccxuiBQM.s:261    .text:00000000000000ac .L0 
     /tmp/ccxuiBQM.s:262    .text:00000000000000b0 .L0 
     /tmp/ccxuiBQM.s:266    .text:00000000000000bc .L0 
     /tmp/ccxuiBQM.s:267    .text:00000000000000bc .L0 
     /tmp/ccxuiBQM.s:268    .text:00000000000000bc .L0 
     /tmp/ccxuiBQM.s:270    .text:00000000000000c0 .L0 
     /tmp/ccxuiBQM.s:1361   .data.rel.ro.local._ZTV9Semaphore:0000000000000000 _ZTV9Semaphore
     /tmp/ccxuiBQM.s:274    .text:00000000000000c4 .L0 
     /tmp/ccxuiBQM.s:277    .text:00000000000000d0 .L0 
     /tmp/ccxuiBQM.s:278    .text:00000000000000d0 .L0 
     /tmp/ccxuiBQM.s:283    .text:00000000000000dc .L0 
     /tmp/ccxuiBQM.s:284    .text:00000000000000dc .L0 
     /tmp/ccxuiBQM.s:287    .text:00000000000000e0 .L0 
     /tmp/ccxuiBQM.s:293    .text:00000000000000e4 .L0 
     /tmp/ccxuiBQM.s:297    .text:00000000000000e4 .L0 
GAS LISTING /tmp/ccxuiBQM.s 			page 35


     /tmp/ccxuiBQM.s:298    .text:00000000000000e4 .L0 
     /tmp/ccxuiBQM.s:299    .text:00000000000000e4 .L0 
     /tmp/ccxuiBQM.s:304    .text:00000000000000e8 .L0 
     /tmp/ccxuiBQM.s:305    .text:00000000000000e8 .L0 
     /tmp/ccxuiBQM.s:309    .text:00000000000000ec .L0 
     /tmp/ccxuiBQM.s:310    .text:00000000000000ec .L0 
     /tmp/ccxuiBQM.s:311    .text:00000000000000ec .L0 
     /tmp/ccxuiBQM.s:313    .text:00000000000000f0 .L0 
     /tmp/ccxuiBQM.s:315    .text:00000000000000f4 .L0 
     /tmp/ccxuiBQM.s:316    .text:00000000000000f4 .L0 
     /tmp/ccxuiBQM.s:321    .text:00000000000000f8 .L0 
     /tmp/ccxuiBQM.s:322    .text:00000000000000f8 .L0 
     /tmp/ccxuiBQM.s:325    .text:0000000000000100 .L0 
     /tmp/ccxuiBQM.s:334    .text:0000000000000104 .L0 
     /tmp/ccxuiBQM.s:340    .text:0000000000000110 .L0 
     /tmp/ccxuiBQM.s:341    .text:0000000000000114 .L0 
     /tmp/ccxuiBQM.s:343    .text:0000000000000118 .L0 
     /tmp/ccxuiBQM.s:344    .text:0000000000000118 .L0 
     /tmp/ccxuiBQM.s:346    .text:000000000000011c .L0 
     /tmp/ccxuiBQM.s:348    .text:0000000000000120 .L0 
     /tmp/ccxuiBQM.s:350    .text:0000000000000124 .L0 
     /tmp/ccxuiBQM.s:254    .text:00000000000000ac _ZN9SemaphoreD1Ev
     /tmp/ccxuiBQM.s:365    .text:0000000000000124 _Znwm
     /tmp/ccxuiBQM.s:368    .text:0000000000000124 .L0 
     /tmp/ccxuiBQM.s:370    .text:0000000000000124 .L0 
     /tmp/ccxuiBQM.s:371    .text:0000000000000128 .L0 
     /tmp/ccxuiBQM.s:374    .text:0000000000000130 .L0 
     /tmp/ccxuiBQM.s:375    .text:0000000000000130 .L0 
     /tmp/ccxuiBQM.s:377    .text:0000000000000134 .L0 
     /tmp/ccxuiBQM.s:379    .text:0000000000000134 .L0 
     /tmp/ccxuiBQM.s:380    .text:0000000000000134 .L0 
     /tmp/ccxuiBQM.s:383    .text:000000000000013c .L0 
     /tmp/ccxuiBQM.s:384    .text:0000000000000140 .L0 
     /tmp/ccxuiBQM.s:386    .text:0000000000000144 .L0 
     /tmp/ccxuiBQM.s:387    .text:0000000000000144 .L0 
     /tmp/ccxuiBQM.s:389    .text:0000000000000148 .L0 
     /tmp/ccxuiBQM.s:391    .text:000000000000014c .L0 
     /tmp/ccxuiBQM.s:397    .text:000000000000014c _Znam
     /tmp/ccxuiBQM.s:400    .text:000000000000014c .L0 
     /tmp/ccxuiBQM.s:402    .text:000000000000014c .L0 
     /tmp/ccxuiBQM.s:403    .text:0000000000000150 .L0 
     /tmp/ccxuiBQM.s:406    .text:0000000000000158 .L0 
     /tmp/ccxuiBQM.s:407    .text:0000000000000158 .L0 
     /tmp/ccxuiBQM.s:409    .text:000000000000015c .L0 
     /tmp/ccxuiBQM.s:411    .text:000000000000015c .L0 
     /tmp/ccxuiBQM.s:412    .text:000000000000015c .L0 
     /tmp/ccxuiBQM.s:415    .text:0000000000000164 .L0 
     /tmp/ccxuiBQM.s:416    .text:0000000000000168 .L0 
     /tmp/ccxuiBQM.s:418    .text:000000000000016c .L0 
     /tmp/ccxuiBQM.s:419    .text:000000000000016c .L0 
     /tmp/ccxuiBQM.s:421    .text:0000000000000170 .L0 
     /tmp/ccxuiBQM.s:423    .text:0000000000000174 .L0 
     /tmp/ccxuiBQM.s:429    .text:0000000000000174 _ZdlPv
     /tmp/ccxuiBQM.s:432    .text:0000000000000174 .L0 
     /tmp/ccxuiBQM.s:436    .text:0000000000000174 .L0 
     /tmp/ccxuiBQM.s:437    .text:0000000000000178 .L0 
     /tmp/ccxuiBQM.s:440    .text:0000000000000180 .L0 
GAS LISTING /tmp/ccxuiBQM.s 			page 36


     /tmp/ccxuiBQM.s:441    .text:0000000000000180 .L0 
     /tmp/ccxuiBQM.s:443    .text:0000000000000184 .L0 
     /tmp/ccxuiBQM.s:445    .text:0000000000000184 .L0 
     /tmp/ccxuiBQM.s:446    .text:0000000000000184 .L0 
     /tmp/ccxuiBQM.s:449    .text:000000000000018c .L0 
     /tmp/ccxuiBQM.s:450    .text:0000000000000190 .L0 
     /tmp/ccxuiBQM.s:452    .text:0000000000000194 .L0 
     /tmp/ccxuiBQM.s:453    .text:0000000000000194 .L0 
     /tmp/ccxuiBQM.s:455    .text:0000000000000198 .L0 
     /tmp/ccxuiBQM.s:457    .text:000000000000019c .L0 
     /tmp/ccxuiBQM.s:470    .text:000000000000019c _ZN6ThreadD0Ev
     /tmp/ccxuiBQM.s:473    .text:000000000000019c .L0 
     /tmp/ccxuiBQM.s:475    .text:000000000000019c .L0 
     /tmp/ccxuiBQM.s:476    .text:00000000000001a0 .L0 
     /tmp/ccxuiBQM.s:480    .text:00000000000001ac .L0 
     /tmp/ccxuiBQM.s:481    .text:00000000000001ac .L0 
     /tmp/ccxuiBQM.s:482    .text:00000000000001ac .L0 
     /tmp/ccxuiBQM.s:484    .text:00000000000001b0 .L0 
     /tmp/ccxuiBQM.s:487    .text:00000000000001b4 .L0 
     /tmp/ccxuiBQM.s:493    .text:00000000000001cc .L0 
     /tmp/ccxuiBQM.s:495    .text:00000000000001d0 .L0 
     /tmp/ccxuiBQM.s:496    .text:00000000000001d0 .L0 
     /tmp/ccxuiBQM.s:498    .text:00000000000001d4 .L0 
     /tmp/ccxuiBQM.s:501    .text:00000000000001d8 .L0 
     /tmp/ccxuiBQM.s:503    .text:00000000000001dc .L0 
     /tmp/ccxuiBQM.s:510    .text._ZN14PeriodicThreadD0Ev:0000000000000000 _ZN14PeriodicThreadD0Ev
     /tmp/ccxuiBQM.s:513    .text._ZN14PeriodicThreadD0Ev:0000000000000000 .L0 
     /tmp/ccxuiBQM.s:515    .text._ZN14PeriodicThreadD0Ev:0000000000000000 .L0 
     /tmp/ccxuiBQM.s:516    .text._ZN14PeriodicThreadD0Ev:0000000000000004 .L0 
     /tmp/ccxuiBQM.s:520    .text._ZN14PeriodicThreadD0Ev:0000000000000010 .L0 
     /tmp/ccxuiBQM.s:521    .text._ZN14PeriodicThreadD0Ev:0000000000000010 .L0 
     /tmp/ccxuiBQM.s:522    .text._ZN14PeriodicThreadD0Ev:0000000000000010 .L0 
     /tmp/ccxuiBQM.s:524    .text._ZN14PeriodicThreadD0Ev:0000000000000014 .L0 
     /tmp/ccxuiBQM.s:530    .text._ZN14PeriodicThreadD0Ev:0000000000000018 .L0 
     /tmp/ccxuiBQM.s:540    .text._ZN14PeriodicThreadD0Ev:000000000000003c .L0 
     /tmp/ccxuiBQM.s:542    .text._ZN14PeriodicThreadD0Ev:0000000000000040 .L0 
     /tmp/ccxuiBQM.s:543    .text._ZN14PeriodicThreadD0Ev:0000000000000040 .L0 
     /tmp/ccxuiBQM.s:545    .text._ZN14PeriodicThreadD0Ev:0000000000000044 .L0 
     /tmp/ccxuiBQM.s:548    .text._ZN14PeriodicThreadD0Ev:0000000000000048 .L0 
     /tmp/ccxuiBQM.s:550    .text._ZN14PeriodicThreadD0Ev:000000000000004c .L0 
     /tmp/ccxuiBQM.s:557    .text:00000000000001dc _ZN9SemaphoreD0Ev
     /tmp/ccxuiBQM.s:560    .text:00000000000001dc .L0 
     /tmp/ccxuiBQM.s:562    .text:00000000000001dc .L0 
     /tmp/ccxuiBQM.s:563    .text:00000000000001e0 .L0 
     /tmp/ccxuiBQM.s:567    .text:00000000000001ec .L0 
     /tmp/ccxuiBQM.s:568    .text:00000000000001ec .L0 
     /tmp/ccxuiBQM.s:569    .text:00000000000001ec .L0 
     /tmp/ccxuiBQM.s:571    .text:00000000000001f0 .L0 
     /tmp/ccxuiBQM.s:574    .text:00000000000001f4 .L0 
     /tmp/ccxuiBQM.s:580    .text:000000000000020c .L0 
     /tmp/ccxuiBQM.s:582    .text:0000000000000210 .L0 
     /tmp/ccxuiBQM.s:583    .text:0000000000000210 .L0 
     /tmp/ccxuiBQM.s:585    .text:0000000000000214 .L0 
     /tmp/ccxuiBQM.s:588    .text:0000000000000218 .L0 
     /tmp/ccxuiBQM.s:590    .text:000000000000021c .L0 
     /tmp/ccxuiBQM.s:596    .text:000000000000021c _ZdaPv
     /tmp/ccxuiBQM.s:599    .text:000000000000021c .L0 
GAS LISTING /tmp/ccxuiBQM.s 			page 37


     /tmp/ccxuiBQM.s:603    .text:000000000000021c .L0 
     /tmp/ccxuiBQM.s:604    .text:0000000000000220 .L0 
     /tmp/ccxuiBQM.s:607    .text:0000000000000228 .L0 
     /tmp/ccxuiBQM.s:608    .text:0000000000000228 .L0 
     /tmp/ccxuiBQM.s:610    .text:000000000000022c .L0 
     /tmp/ccxuiBQM.s:612    .text:000000000000022c .L0 
     /tmp/ccxuiBQM.s:613    .text:000000000000022c .L0 
     /tmp/ccxuiBQM.s:616    .text:0000000000000234 .L0 
     /tmp/ccxuiBQM.s:617    .text:0000000000000238 .L0 
     /tmp/ccxuiBQM.s:619    .text:000000000000023c .L0 
     /tmp/ccxuiBQM.s:620    .text:000000000000023c .L0 
     /tmp/ccxuiBQM.s:622    .text:0000000000000240 .L0 
     /tmp/ccxuiBQM.s:624    .text:0000000000000244 .L0 
     /tmp/ccxuiBQM.s:637    .text:0000000000000244 _ZN6ThreadC2EPFvPvES0_
     /tmp/ccxuiBQM.s:640    .text:0000000000000244 .L0 
     /tmp/ccxuiBQM.s:642    .text:0000000000000244 .L0 
     /tmp/ccxuiBQM.s:643    .text:0000000000000248 .L0 
     /tmp/ccxuiBQM.s:649    .text:000000000000025c .L0 
     /tmp/ccxuiBQM.s:650    .text:000000000000025c .L0 
     /tmp/ccxuiBQM.s:651    .text:000000000000025c .L0 
     /tmp/ccxuiBQM.s:652    .text:000000000000025c .L0 
     /tmp/ccxuiBQM.s:653    .text:000000000000025c .L0 
     /tmp/ccxuiBQM.s:655    .text:0000000000000260 .L0 
     /tmp/ccxuiBQM.s:661    .text:000000000000026c .L0 
     /tmp/ccxuiBQM.s:665    .text:0000000000000278 .L0 
     /tmp/ccxuiBQM.s:666    .text:0000000000000278 .L0 
     /tmp/ccxuiBQM.s:668    .text:000000000000027c .L0 
     /tmp/ccxuiBQM.s:669    .text:000000000000027c .L0 
     /tmp/ccxuiBQM.s:672    .text:0000000000000280 .L0 
     /tmp/ccxuiBQM.s:673    .text:0000000000000280 .L0 
     /tmp/ccxuiBQM.s:675    .text:0000000000000284 .L0 
     /tmp/ccxuiBQM.s:676    .text:0000000000000284 .L0 
     /tmp/ccxuiBQM.s:684    .text:0000000000000294 .L0 
 src/syscall_cpp.cpp:42     .text:0000000000000294 .L0 
     /tmp/ccxuiBQM.s:690    .text:0000000000000298 .L0 
 src/syscall_cpp.cpp:43     .text:0000000000000298 .L0 
     /tmp/ccxuiBQM.s:695    .text:000000000000029c .L0 
 src/syscall_cpp.cpp:45     .text:000000000000029c .L0 
     /tmp/ccxuiBQM.s:700    .text:00000000000002a0 .L0 
     /tmp/ccxuiBQM.s:702    .text:00000000000002a0 .L0 
 src/syscall_cpp.cpp:46     .text:00000000000002a4 .L0 
     /tmp/ccxuiBQM.s:710    .text:00000000000002a8 .L0 
 src/syscall_cpp.cpp:47     .text:00000000000002a8 .L0 
     /tmp/ccxuiBQM.s:715    .text:00000000000002ac .L0 
 src/syscall_cpp.cpp:54     .text:00000000000002ac .L0 
     /tmp/ccxuiBQM.s:723    .text:00000000000002b0 .L0 
     /tmp/ccxuiBQM.s:724    .text:00000000000002b4 .L0 
     /tmp/ccxuiBQM.s:725    .text:00000000000002b4 .L0 
     /tmp/ccxuiBQM.s:727    .text:00000000000002b8 .L0 
     /tmp/ccxuiBQM.s:728    .text:00000000000002b8 .L0 
     /tmp/ccxuiBQM.s:730    .text:00000000000002bc .L0 
     /tmp/ccxuiBQM.s:733    .text:00000000000002c0 .L0 
     /tmp/ccxuiBQM.s:736    .text:00000000000002c4 .L0 
     /tmp/ccxuiBQM.s:739    .text:00000000000002c8 .L0 
     /tmp/ccxuiBQM.s:743    .text:00000000000002cc .L0 
     /tmp/ccxuiBQM.s:747    .text:00000000000002cc .L0 
     /tmp/ccxuiBQM.s:751    .text:00000000000002d4 .L0 
GAS LISTING /tmp/ccxuiBQM.s 			page 38


     /tmp/ccxuiBQM.s:637    .text:0000000000000244 _ZN6ThreadC1EPFvPvES0_
     /tmp/ccxuiBQM.s:759    .text:00000000000002d4 _ZN6Thread5startEv
     /tmp/ccxuiBQM.s:762    .text:00000000000002d4 .L0 
     /tmp/ccxuiBQM.s:764    .text:00000000000002d4 .L0 
     /tmp/ccxuiBQM.s:765    .text:00000000000002d8 .L0 
     /tmp/ccxuiBQM.s:767    .text:00000000000002dc .L0 
     /tmp/ccxuiBQM.s:769    .text:00000000000002e0 .L0 
     /tmp/ccxuiBQM.s:771    .text:00000000000002e0 .L0 
     /tmp/ccxuiBQM.s:772    .text:00000000000002e0 .L0 
     /tmp/ccxuiBQM.s:774    .text:00000000000002e4 .L0 
     /tmp/ccxuiBQM.s:776    .text:00000000000002e8 .L0 
 src/syscall_cpp.cpp:68     .text:00000000000002e8 .L0 
     /tmp/ccxuiBQM.s:783    .text:00000000000002ec .L0 
 src/syscall_cpp.cpp:69     .text:00000000000002ec .L0 
     /tmp/ccxuiBQM.s:788    .text:00000000000002f0 .L0 
 src/syscall_cpp.cpp:71     .text:00000000000002f0 .L0 
     /tmp/ccxuiBQM.s:793    .text:00000000000002f4 .L0 
     /tmp/ccxuiBQM.s:795    .text:00000000000002f4 .L0 
     /tmp/ccxuiBQM.s:798    .text:00000000000002f8 .L0 
     /tmp/ccxuiBQM.s:799    .text:00000000000002fc .L0 
     /tmp/ccxuiBQM.s:800    .text:00000000000002fc .L0 
     /tmp/ccxuiBQM.s:801    .text:00000000000002fc .L0 
     /tmp/ccxuiBQM.s:803    .text:0000000000000300 .L0 
     /tmp/ccxuiBQM.s:807    .text:0000000000000304 .L0 
     /tmp/ccxuiBQM.s:809    .text:0000000000000304 .L0 
     /tmp/ccxuiBQM.s:812    .text:000000000000030c .L0 
     /tmp/ccxuiBQM.s:818    .text:000000000000030c _ZN6Thread4joinEv
     /tmp/ccxuiBQM.s:821    .text:000000000000030c .L0 
     /tmp/ccxuiBQM.s:823    .text:000000000000030c .L0 
     /tmp/ccxuiBQM.s:824    .text:0000000000000310 .L0 
     /tmp/ccxuiBQM.s:827    .text:0000000000000318 .L0 
     /tmp/ccxuiBQM.s:828    .text:0000000000000318 .L0 
     /tmp/ccxuiBQM.s:830    .text:000000000000031c .L0 
     /tmp/ccxuiBQM.s:832    .text:000000000000031c .L0 
     /tmp/ccxuiBQM.s:833    .text:000000000000031c .L0 
     /tmp/ccxuiBQM.s:838    .text:0000000000000328 .L0 
     /tmp/ccxuiBQM.s:839    .text:000000000000032c .L0 
     /tmp/ccxuiBQM.s:841    .text:0000000000000330 .L0 
     /tmp/ccxuiBQM.s:842    .text:0000000000000330 .L0 
     /tmp/ccxuiBQM.s:844    .text:0000000000000334 .L0 
     /tmp/ccxuiBQM.s:846    .text:0000000000000338 .L0 
     /tmp/ccxuiBQM.s:852    .text:0000000000000338 _ZN6Thread8dispatchEv
     /tmp/ccxuiBQM.s:855    .text:0000000000000338 .L0 
     /tmp/ccxuiBQM.s:856    .text:0000000000000338 .L0 
     /tmp/ccxuiBQM.s:857    .text:000000000000033c .L0 
     /tmp/ccxuiBQM.s:860    .text:0000000000000344 .L0 
     /tmp/ccxuiBQM.s:861    .text:0000000000000344 .L0 
     /tmp/ccxuiBQM.s:863    .text:0000000000000348 .L0 
     /tmp/ccxuiBQM.s:865    .text:0000000000000348 .L0 
     /tmp/ccxuiBQM.s:866    .text:0000000000000348 .L0 
     /tmp/ccxuiBQM.s:869    .text:0000000000000350 .L0 
     /tmp/ccxuiBQM.s:870    .text:0000000000000354 .L0 
     /tmp/ccxuiBQM.s:872    .text:0000000000000358 .L0 
     /tmp/ccxuiBQM.s:873    .text:0000000000000358 .L0 
     /tmp/ccxuiBQM.s:875    .text:000000000000035c .L0 
     /tmp/ccxuiBQM.s:877    .text:0000000000000360 .L0 
     /tmp/ccxuiBQM.s:883    .text:0000000000000360 _ZN6Thread5sleepEm
GAS LISTING /tmp/ccxuiBQM.s 			page 39


     /tmp/ccxuiBQM.s:886    .text:0000000000000360 .L0 
     /tmp/ccxuiBQM.s:888    .text:0000000000000360 .L0 
     /tmp/ccxuiBQM.s:889    .text:0000000000000364 .L0 
     /tmp/ccxuiBQM.s:892    .text:000000000000036c .L0 
     /tmp/ccxuiBQM.s:893    .text:000000000000036c .L0 
     /tmp/ccxuiBQM.s:895    .text:0000000000000370 .L0 
     /tmp/ccxuiBQM.s:898    .text:0000000000000374 .L0 
     /tmp/ccxuiBQM.s:899    .text:0000000000000374 .L0 
     /tmp/ccxuiBQM.s:905    .text:0000000000000388 .L0 
     /tmp/ccxuiBQM.s:906    .text:0000000000000388 .L0 
     /tmp/ccxuiBQM.s:908    .text:0000000000000390 .L0 
     /tmp/ccxuiBQM.s:910    .text:0000000000000394 .L0 
     /tmp/ccxuiBQM.s:911    .text:0000000000000394 .L0 
     /tmp/ccxuiBQM.s:913    .text:0000000000000398 .L0 
     /tmp/ccxuiBQM.s:915    .text:000000000000039c .L0 
     /tmp/ccxuiBQM.s:921    .text:000000000000039c _ZN14PeriodicThread15periodicWrapperEPv
     /tmp/ccxuiBQM.s:924    .text:000000000000039c .L0 
     /tmp/ccxuiBQM.s:926    .text:000000000000039c .L0 
     /tmp/ccxuiBQM.s:927    .text:00000000000003a0 .L0 
     /tmp/ccxuiBQM.s:931    .text:00000000000003ac .L0 
     /tmp/ccxuiBQM.s:932    .text:00000000000003ac .L0 
     /tmp/ccxuiBQM.s:933    .text:00000000000003ac .L0 
     /tmp/ccxuiBQM.s:935    .text:00000000000003b0 .L0 
     /tmp/ccxuiBQM.s:939    .text:00000000000003b4 .L0 
     /tmp/ccxuiBQM.s:944    .text:00000000000003b8 .L0 
     /tmp/ccxuiBQM.s:945    .text:00000000000003b8 .L0 
     /tmp/ccxuiBQM.s:946    .text:00000000000003b8 .L0 
     /tmp/ccxuiBQM.s:949    .text:00000000000003c0 .L0 
     /tmp/ccxuiBQM.s:953    .text:00000000000003c8 .L0 
     /tmp/ccxuiBQM.s:954    .text:00000000000003c8 .L0 
     /tmp/ccxuiBQM.s:958    .text:00000000000003d4 .L0 
     /tmp/ccxuiBQM.s:963    .text:00000000000003d8 .L0 
     /tmp/ccxuiBQM.s:964    .text:00000000000003dc .L0 
     /tmp/ccxuiBQM.s:966    .text:00000000000003e0 .L0 
     /tmp/ccxuiBQM.s:967    .text:00000000000003e0 .L0 
     /tmp/ccxuiBQM.s:969    .text:00000000000003e4 .L0 
     /tmp/ccxuiBQM.s:972    .text:00000000000003e8 .L0 
     /tmp/ccxuiBQM.s:974    .text:00000000000003ec .L0 
     /tmp/ccxuiBQM.s:980    .text:00000000000003ec _ZN6ThreadC2Ev
     /tmp/ccxuiBQM.s:983    .text:00000000000003ec .L0 
     /tmp/ccxuiBQM.s:985    .text:00000000000003ec .L0 
     /tmp/ccxuiBQM.s:986    .text:00000000000003f0 .L0 
     /tmp/ccxuiBQM.s:990    .text:00000000000003fc .L0 
     /tmp/ccxuiBQM.s:991    .text:00000000000003fc .L0 
     /tmp/ccxuiBQM.s:992    .text:00000000000003fc .L0 
     /tmp/ccxuiBQM.s:994    .text:0000000000000400 .L0 
     /tmp/ccxuiBQM.s:998    .text:0000000000000404 .L0 
     /tmp/ccxuiBQM.s:1002   .text:0000000000000410 .L0 
     /tmp/ccxuiBQM.s:1003   .text:0000000000000410 .L0 
     /tmp/ccxuiBQM.s:1006   .text:000000000000041c .L0 
     /tmp/ccxuiBQM.s:1007   .text:000000000000041c .L0 
     /tmp/ccxuiBQM.s:1010   .text:0000000000000420 .L0 
     /tmp/ccxuiBQM.s:1011   .text:0000000000000420 .L0 
     /tmp/ccxuiBQM.s:1012   .text:0000000000000420 .L0 
     /tmp/ccxuiBQM.s:1013   .text:0000000000000420 .L0 
     /tmp/ccxuiBQM.s:1020   .text:0000000000000430 .L0 
 src/syscall_cpp.cpp:99     .text:0000000000000430 .L0 
GAS LISTING /tmp/ccxuiBQM.s 			page 40


     /tmp/ccxuiBQM.s:1026   .text:0000000000000434 .L0 
     /tmp/ccxuiBQM.s:1028   .text:0000000000000434 .L0 
 src/syscall_cpp.cpp:100    .text:0000000000000438 .L0 
     /tmp/ccxuiBQM.s:1036   .text:000000000000043c .L0 
     /tmp/ccxuiBQM.s:1038   .text:000000000000043c .L0 
 src/syscall_cpp.cpp:102    .text:0000000000000440 .L0 
     /tmp/ccxuiBQM.s:1045   .text:0000000000000444 .L0 
     /tmp/ccxuiBQM.s:1047   .text:0000000000000444 .L0 
 src/syscall_cpp.cpp:103    .text:0000000000000448 .L0 
     /tmp/ccxuiBQM.s:1055   .text:000000000000044c .L0 
 src/syscall_cpp.cpp:104    .text:000000000000044c .L0 
     /tmp/ccxuiBQM.s:1060   .text:0000000000000450 .L0 
 src/syscall_cpp.cpp:111    .text:0000000000000450 .L0 
     /tmp/ccxuiBQM.s:1068   .text:0000000000000454 .L0 
     /tmp/ccxuiBQM.s:1069   .text:0000000000000458 .L0 
     /tmp/ccxuiBQM.s:1071   .text:000000000000045c .L0 
     /tmp/ccxuiBQM.s:1072   .text:000000000000045c .L0 
     /tmp/ccxuiBQM.s:1074   .text:0000000000000460 .L0 
     /tmp/ccxuiBQM.s:1077   .text:0000000000000464 .L0 
     /tmp/ccxuiBQM.s:1079   .text:0000000000000468 .L0 
     /tmp/ccxuiBQM.s:980    .text:00000000000003ec _ZN6ThreadC1Ev
     /tmp/ccxuiBQM.s:1087   .text:0000000000000468 _ZN9SemaphoreC2Ej
     /tmp/ccxuiBQM.s:1090   .text:0000000000000468 .L0 
     /tmp/ccxuiBQM.s:1092   .text:0000000000000468 .L0 
     /tmp/ccxuiBQM.s:1093   .text:000000000000046c .L0 
     /tmp/ccxuiBQM.s:1096   .text:0000000000000474 .L0 
     /tmp/ccxuiBQM.s:1097   .text:0000000000000474 .L0 
     /tmp/ccxuiBQM.s:1099   .text:0000000000000478 .L0 
     /tmp/ccxuiBQM.s:1102   .text:0000000000000478 .L0 
     /tmp/ccxuiBQM.s:1105   .text:0000000000000484 .L0 
     /tmp/ccxuiBQM.s:1106   .text:0000000000000484 .L0 
     /tmp/ccxuiBQM.s:1112   .text:0000000000000490 .L0 
     /tmp/ccxuiBQM.s:1113   .text:0000000000000494 .L0 
     /tmp/ccxuiBQM.s:1115   .text:0000000000000498 .L0 
     /tmp/ccxuiBQM.s:1116   .text:0000000000000498 .L0 
     /tmp/ccxuiBQM.s:1118   .text:000000000000049c .L0 
     /tmp/ccxuiBQM.s:1120   .text:00000000000004a0 .L0 
     /tmp/ccxuiBQM.s:1087   .text:0000000000000468 _ZN9SemaphoreC1Ej
     /tmp/ccxuiBQM.s:1128   .text:00000000000004a0 _ZN9Semaphore4waitEv
     /tmp/ccxuiBQM.s:1131   .text:00000000000004a0 .L0 
     /tmp/ccxuiBQM.s:1133   .text:00000000000004a0 .L0 
     /tmp/ccxuiBQM.s:1134   .text:00000000000004a4 .L0 
     /tmp/ccxuiBQM.s:1137   .text:00000000000004ac .L0 
     /tmp/ccxuiBQM.s:1138   .text:00000000000004ac .L0 
     /tmp/ccxuiBQM.s:1140   .text:00000000000004b0 .L0 
     /tmp/ccxuiBQM.s:1142   .text:00000000000004b0 .L0 
     /tmp/ccxuiBQM.s:1143   .text:00000000000004b0 .L0 
     /tmp/ccxuiBQM.s:1148   .text:00000000000004bc .L0 
     /tmp/ccxuiBQM.s:1149   .text:00000000000004c0 .L0 
     /tmp/ccxuiBQM.s:1151   .text:00000000000004c4 .L0 
     /tmp/ccxuiBQM.s:1152   .text:00000000000004c4 .L0 
     /tmp/ccxuiBQM.s:1154   .text:00000000000004c8 .L0 
     /tmp/ccxuiBQM.s:1156   .text:00000000000004cc .L0 
     /tmp/ccxuiBQM.s:1162   .text:00000000000004cc _ZN9Semaphore6signalEv
     /tmp/ccxuiBQM.s:1165   .text:00000000000004cc .L0 
     /tmp/ccxuiBQM.s:1167   .text:00000000000004cc .L0 
     /tmp/ccxuiBQM.s:1168   .text:00000000000004d0 .L0 
GAS LISTING /tmp/ccxuiBQM.s 			page 41


     /tmp/ccxuiBQM.s:1171   .text:00000000000004d8 .L0 
     /tmp/ccxuiBQM.s:1172   .text:00000000000004d8 .L0 
     /tmp/ccxuiBQM.s:1174   .text:00000000000004dc .L0 
     /tmp/ccxuiBQM.s:1176   .text:00000000000004dc .L0 
     /tmp/ccxuiBQM.s:1177   .text:00000000000004dc .L0 
     /tmp/ccxuiBQM.s:1182   .text:00000000000004e8 .L0 
     /tmp/ccxuiBQM.s:1183   .text:00000000000004ec .L0 
     /tmp/ccxuiBQM.s:1185   .text:00000000000004f0 .L0 
     /tmp/ccxuiBQM.s:1186   .text:00000000000004f0 .L0 
     /tmp/ccxuiBQM.s:1188   .text:00000000000004f4 .L0 
     /tmp/ccxuiBQM.s:1190   .text:00000000000004f8 .L0 
     /tmp/ccxuiBQM.s:1196   .text:00000000000004f8 _ZN14PeriodicThread9terminateEv
     /tmp/ccxuiBQM.s:1199   .text:00000000000004f8 .L0 
     /tmp/ccxuiBQM.s:1201   .text:00000000000004f8 .L0 
     /tmp/ccxuiBQM.s:1202   .text:00000000000004fc .L0 
     /tmp/ccxuiBQM.s:1204   .text:0000000000000500 .L0 
     /tmp/ccxuiBQM.s:1206   .text:0000000000000504 .L0 
     /tmp/ccxuiBQM.s:1208   .text:0000000000000504 .L0 
     /tmp/ccxuiBQM.s:1209   .text:0000000000000508 .L0 
     /tmp/ccxuiBQM.s:1210   .text:0000000000000508 .L0 
     /tmp/ccxuiBQM.s:1212   .text:000000000000050c .L0 
     /tmp/ccxuiBQM.s:1214   .text:0000000000000510 .L0 
     /tmp/ccxuiBQM.s:1220   .text:0000000000000510 _ZN14PeriodicThreadC2Em
     /tmp/ccxuiBQM.s:1223   .text:0000000000000510 .L0 
     /tmp/ccxuiBQM.s:1225   .text:0000000000000510 .L0 
     /tmp/ccxuiBQM.s:1226   .text:0000000000000514 .L0 
     /tmp/ccxuiBQM.s:1231   .text:0000000000000524 .L0 
     /tmp/ccxuiBQM.s:1232   .text:0000000000000524 .L0 
     /tmp/ccxuiBQM.s:1233   .text:0000000000000524 .L0 
     /tmp/ccxuiBQM.s:1234   .text:0000000000000524 .L0 
     /tmp/ccxuiBQM.s:1236   .text:0000000000000528 .L0 
     /tmp/ccxuiBQM.s:1241   .text:0000000000000530 .L0 
     /tmp/ccxuiBQM.s:1251   .text:0000000000000554 .L0 
     /tmp/ccxuiBQM.s:1252   .text:0000000000000558 .L0 
     /tmp/ccxuiBQM.s:1254   .text:000000000000055c .L0 
     /tmp/ccxuiBQM.s:1255   .text:000000000000055c .L0 
     /tmp/ccxuiBQM.s:1257   .text:0000000000000560 .L0 
     /tmp/ccxuiBQM.s:1260   .text:0000000000000564 .L0 
     /tmp/ccxuiBQM.s:1263   .text:0000000000000568 .L0 
     /tmp/ccxuiBQM.s:1265   .text:000000000000056c .L0 
     /tmp/ccxuiBQM.s:1220   .text:0000000000000510 _ZN14PeriodicThreadC1Em
     /tmp/ccxuiBQM.s:1273   .text:000000000000056c _ZN7Console4getcEv
     /tmp/ccxuiBQM.s:1276   .text:000000000000056c .L0 
     /tmp/ccxuiBQM.s:1277   .text:000000000000056c .L0 
     /tmp/ccxuiBQM.s:1278   .text:0000000000000570 .L0 
     /tmp/ccxuiBQM.s:1281   .text:0000000000000578 .L0 
     /tmp/ccxuiBQM.s:1282   .text:0000000000000578 .L0 
     /tmp/ccxuiBQM.s:1284   .text:000000000000057c .L0 
     /tmp/ccxuiBQM.s:1286   .text:000000000000057c .L0 
     /tmp/ccxuiBQM.s:1287   .text:000000000000057c .L0 
     /tmp/ccxuiBQM.s:1290   .text:0000000000000584 .L0 
     /tmp/ccxuiBQM.s:1291   .text:0000000000000588 .L0 
     /tmp/ccxuiBQM.s:1293   .text:000000000000058c .L0 
     /tmp/ccxuiBQM.s:1294   .text:000000000000058c .L0 
     /tmp/ccxuiBQM.s:1296   .text:0000000000000590 .L0 
     /tmp/ccxuiBQM.s:1298   .text:0000000000000594 .L0 
     /tmp/ccxuiBQM.s:1304   .text:0000000000000594 _ZN7Console4putcEc
GAS LISTING /tmp/ccxuiBQM.s 			page 42


     /tmp/ccxuiBQM.s:1307   .text:0000000000000594 .L0 
     /tmp/ccxuiBQM.s:1309   .text:0000000000000594 .L0 
     /tmp/ccxuiBQM.s:1310   .text:0000000000000598 .L0 
     /tmp/ccxuiBQM.s:1313   .text:00000000000005a0 .L0 
     /tmp/ccxuiBQM.s:1314   .text:00000000000005a0 .L0 
     /tmp/ccxuiBQM.s:1316   .text:00000000000005a4 .L0 
     /tmp/ccxuiBQM.s:1318   .text:00000000000005a4 .L0 
     /tmp/ccxuiBQM.s:1319   .text:00000000000005a4 .L0 
     /tmp/ccxuiBQM.s:1322   .text:00000000000005ac .L0 
     /tmp/ccxuiBQM.s:1323   .text:00000000000005b0 .L0 
     /tmp/ccxuiBQM.s:1325   .text:00000000000005b4 .L0 
     /tmp/ccxuiBQM.s:1326   .text:00000000000005b4 .L0 
     /tmp/ccxuiBQM.s:1328   .text:00000000000005b8 .L0 
     /tmp/ccxuiBQM.s:1330   .text:00000000000005bc .L0 
     /tmp/ccxuiBQM.s:32     .text._ZN6Thread3runEv:0000000000000018 .L0 
     /tmp/ccxuiBQM.s:57     .text._ZN14PeriodicThread18periodicActivationEv:0000000000000018 .L0 
     /tmp/ccxuiBQM.s:1373   .text:00000000000005bc .L0 
     /tmp/ccxuiBQM.s:250    .text._ZN14PeriodicThreadD2Ev:0000000000000034 .L0 
     /tmp/ccxuiBQM.s:553    .text._ZN14PeriodicThreadD0Ev:000000000000004c .L0 
     /tmp/ccxuiBQM.s:123    .text:000000000000004c .L0 
     /tmp/ccxuiBQM.s:274    .text:00000000000000c4 .L0 
     /tmp/ccxuiBQM.s:661    .text:000000000000026c .L0 
     /tmp/ccxuiBQM.s:899    .text:0000000000000374 .L0 
     /tmp/ccxuiBQM.s:998    .text:0000000000000404 .L0 
     /tmp/ccxuiBQM.s:1003   .text:0000000000000410 .L0 
     /tmp/ccxuiBQM.s:1102   .text:0000000000000478 .L0 
     /tmp/ccxuiBQM.s:1242   .text:0000000000000534 .L0 
     /tmp/ccxuiBQM.s:1246   .text:0000000000000544 .L0 
     /tmp/ccxuiBQM.s:95     .text:0000000000000030 .L8
     /tmp/ccxuiBQM.s:187    .text:0000000000000098 .L11
     /tmp/ccxuiBQM.s:176    .text:000000000000008c .L13
     /tmp/ccxuiBQM.s:137    .text:000000000000006c .L14
     /tmp/ccxuiBQM.s:337    .text:0000000000000110 .L19
     /tmp/ccxuiBQM.s:326    .text:0000000000000104 .L21
     /tmp/ccxuiBQM.s:288    .text:00000000000000e4 .L22
     /tmp/ccxuiBQM.s:742    .text:00000000000002cc .L41
     /tmp/ccxuiBQM.s:682    .text:0000000000000294 .L40
     /tmp/ccxuiBQM.s:806    .text:0000000000000304 .L45
     /tmp/ccxuiBQM.s:796    .text:00000000000002f8 .L44
     /tmp/ccxuiBQM.s:959    .text:00000000000003d8 .L53
     /tmp/ccxuiBQM.s:941    .text:00000000000003b8 .L55
     /tmp/ccxuiBQM.s:232    .text._ZN14PeriodicThreadD2Ev:0000000000000010 .L0 
     /tmp/ccxuiBQM.s:530    .text._ZN14PeriodicThreadD0Ev:0000000000000018 .L0 
     /tmp/ccxuiBQM.s:3909   .debug_abbrev:0000000000000000 .Ldebug_abbrev0
     /tmp/ccxuiBQM.s:6325   .debug_str:0000000000000a38 .LASF213
     /tmp/ccxuiBQM.s:6141   .debug_str:000000000000050a .LASF214
     /tmp/ccxuiBQM.s:6265   .debug_str:000000000000089d .LASF215
     /tmp/ccxuiBQM.s:5953   .debug_ranges:0000000000000000 .Ldebug_ranges0
     /tmp/ccxuiBQM.s:5973   .debug_line:0000000000000000 .Ldebug_line0
     /tmp/ccxuiBQM.s:6235   .debug_str:00000000000007d3 .LASF3
     /tmp/ccxuiBQM.s:6133   .debug_str:00000000000004e1 .LASF0
     /tmp/ccxuiBQM.s:6159   .debug_str:0000000000000591 .LASF1
     /tmp/ccxuiBQM.s:6249   .debug_str:000000000000083f .LASF2
     /tmp/ccxuiBQM.s:6261   .debug_str:0000000000000891 .LASF4
     /tmp/ccxuiBQM.s:6143   .debug_str:000000000000051e .LASF5
     /tmp/ccxuiBQM.s:5991   .debug_str:0000000000000092 .LASF6
     /tmp/ccxuiBQM.s:6219   .debug_str:000000000000074e .LASF7
GAS LISTING /tmp/ccxuiBQM.s 			page 43


     /tmp/ccxuiBQM.s:6215   .debug_str:0000000000000723 .LASF8
     /tmp/ccxuiBQM.s:6151   .debug_str:0000000000000561 .LASF9
     /tmp/ccxuiBQM.s:6101   .debug_str:00000000000003e4 .LASF10
     /tmp/ccxuiBQM.s:6113   .debug_str:0000000000000460 .LASF11
     /tmp/ccxuiBQM.s:6037   .debug_str:0000000000000202 .LASF12
     /tmp/ccxuiBQM.s:6093   .debug_str:00000000000003ae .LASF13
     /tmp/ccxuiBQM.s:6053   .debug_str:0000000000000286 .LASF14
     /tmp/ccxuiBQM.s:6035   .debug_str:00000000000001f2 .LASF15
     /tmp/ccxuiBQM.s:6289   .debug_str:000000000000095c .LASF16
     /tmp/ccxuiBQM.s:6083   .debug_str:0000000000000342 .LASF17
     /tmp/ccxuiBQM.s:6277   .debug_str:0000000000000908 .LASF18
     /tmp/ccxuiBQM.s:6369   .debug_str:0000000000000c13 .LASF19
     /tmp/ccxuiBQM.s:6299   .debug_str:00000000000009a2 .LASF97
     /tmp/ccxuiBQM.s:6287   .debug_str:000000000000094f .LASF20
     /tmp/ccxuiBQM.s:6379   .debug_str:0000000000000c62 .LASF22
     /tmp/ccxuiBQM.s:6207   .debug_str:00000000000006d4 .LASF216
     /tmp/ccxuiBQM.s:6397   .debug_str:0000000000000cfe .LASF34
     /tmp/ccxuiBQM.s:6145   .debug_str:0000000000000530 .LASF36
     /tmp/ccxuiBQM.s:6301   .debug_str:00000000000009aa .LASF24
     /tmp/ccxuiBQM.s:6295   .debug_str:0000000000000985 .LASF26
     /tmp/ccxuiBQM.s:6021   .debug_str:0000000000000184 .LASF21
     /tmp/ccxuiBQM.s:6343   .debug_str:0000000000000b6a .LASF23
     /tmp/ccxuiBQM.s:6253   .debug_str:000000000000085c .LASF25
     /tmp/ccxuiBQM.s:6293   .debug_str:0000000000000971 .LASF27
     /tmp/ccxuiBQM.s:6305   .debug_str:00000000000009c2 .LASF28
     /tmp/ccxuiBQM.s:6089   .debug_str:000000000000037f .LASF29
     /tmp/ccxuiBQM.s:6167   .debug_str:00000000000005c5 .LASF30
     /tmp/ccxuiBQM.s:6231   .debug_str:00000000000007ab .LASF31
     /tmp/ccxuiBQM.s:6069   .debug_str:00000000000002fc .LASF32
     /tmp/ccxuiBQM.s:6257   .debug_str:000000000000086b .LASF33
     /tmp/ccxuiBQM.s:6349   .debug_str:0000000000000bab .LASF35
     /tmp/ccxuiBQM.s:6095   .debug_str:00000000000003bd .LASF37
     /tmp/ccxuiBQM.s:6371   .debug_str:0000000000000c1c .LASF38
     /tmp/ccxuiBQM.s:6091   .debug_str:0000000000000395 .LASF40
     /tmp/ccxuiBQM.s:6163   .debug_str:00000000000005ac .LASF39
     /tmp/ccxuiBQM.s:6329   .debug_str:0000000000000b0f .LASF41
     /tmp/ccxuiBQM.s:6071   .debug_str:0000000000000309 .LASF42
     /tmp/ccxuiBQM.s:6047   .debug_str:000000000000024c .LASF43
     /tmp/ccxuiBQM.s:6365   .debug_str:0000000000000c02 .LASF44
     /tmp/ccxuiBQM.s:5999   .debug_str:00000000000000df .LASF45
     /tmp/ccxuiBQM.s:6321   .debug_str:0000000000000a20 .LASF46
     /tmp/ccxuiBQM.s:6029   .debug_str:00000000000001c5 .LASF47
     /tmp/ccxuiBQM.s:6411   .debug_str:0000000000000d60 .LASF48
     /tmp/ccxuiBQM.s:6109   .debug_str:0000000000000441 .LASF49
     /tmp/ccxuiBQM.s:5981   .debug_str:000000000000003c .LASF50
     /tmp/ccxuiBQM.s:6175   .debug_str:00000000000005f8 .LASF51
     /tmp/ccxuiBQM.s:6341   .debug_str:0000000000000b62 .LASF52
     /tmp/ccxuiBQM.s:6033   .debug_str:00000000000001e3 .LASF53
     /tmp/ccxuiBQM.s:6403   .debug_str:0000000000000d25 .LASF54
     /tmp/ccxuiBQM.s:6359   .debug_str:0000000000000beb .LASF55
     /tmp/ccxuiBQM.s:6333   .debug_str:0000000000000b36 .LASF56
     /tmp/ccxuiBQM.s:6275   .debug_str:00000000000008ff .LASF57
     /tmp/ccxuiBQM.s:6203   .debug_str:00000000000006c5 .LASF58
     /tmp/ccxuiBQM.s:6121   .debug_str:000000000000048e .LASF59
     /tmp/ccxuiBQM.s:6323   .debug_str:0000000000000a28 .LASF60
     /tmp/ccxuiBQM.s:6211   .debug_str:00000000000006ef .LASF61
     /tmp/ccxuiBQM.s:5977   .debug_str:000000000000002a .LASF62
GAS LISTING /tmp/ccxuiBQM.s 			page 44


     /tmp/ccxuiBQM.s:6259   .debug_str:0000000000000883 .LASF63
     /tmp/ccxuiBQM.s:6393   .debug_str:0000000000000cda .LASF122
     /tmp/ccxuiBQM.s:6061   .debug_str:00000000000002c5 .LASF90
     /tmp/ccxuiBQM.s:5985   .debug_str:0000000000000054 .LASF92
     /tmp/ccxuiBQM.s:6263   .debug_str:0000000000000898 .LASF85
     /tmp/ccxuiBQM.s:5987   .debug_str:000000000000007c .LASF87
     /tmp/ccxuiBQM.s:6389   .debug_str:0000000000000cc2 .LASF64
     /tmp/ccxuiBQM.s:6279   .debug_str:000000000000091e .LASF65
     /tmp/ccxuiBQM.s:6157   .debug_str:0000000000000589 .LASF66
     /tmp/ccxuiBQM.s:6201   .debug_str:00000000000006b2 .LASF67
     /tmp/ccxuiBQM.s:6073   .debug_str:0000000000000312 .LASF68
     /tmp/ccxuiBQM.s:6077   .debug_str:000000000000031d .LASF69
     /tmp/ccxuiBQM.s:6297   .debug_str:000000000000099b .LASF70
     /tmp/ccxuiBQM.s:6015   .debug_str:0000000000000166 .LASF71
     /tmp/ccxuiBQM.s:6383   .debug_str:0000000000000c97 .LASF72
     /tmp/ccxuiBQM.s:6193   .debug_str:0000000000000674 .LASF73
     /tmp/ccxuiBQM.s:6079   .debug_str:000000000000032d .LASF74
     /tmp/ccxuiBQM.s:6355   .debug_str:0000000000000bd7 .LASF75
     /tmp/ccxuiBQM.s:6131   .debug_str:00000000000004db .LASF76
     /tmp/ccxuiBQM.s:6317   .debug_str:00000000000009f9 .LASF77
     /tmp/ccxuiBQM.s:5983   .debug_str:000000000000004c .LASF78
     /tmp/ccxuiBQM.s:5995   .debug_str:00000000000000b0 .LASF79
     /tmp/ccxuiBQM.s:6377   .debug_str:0000000000000c55 .LASF80
     /tmp/ccxuiBQM.s:6347   .debug_str:0000000000000b9b .LASF81
     /tmp/ccxuiBQM.s:6065   .debug_str:00000000000002ed .LASF82
     /tmp/ccxuiBQM.s:6153   .debug_str:0000000000000574 .LASF83
     /tmp/ccxuiBQM.s:6363   .debug_str:0000000000000bfa .LASF84
     /tmp/ccxuiBQM.s:6075   .debug_str:0000000000000317 .LASF86
     /tmp/ccxuiBQM.s:6339   .debug_str:0000000000000b55 .LASF88
     /tmp/ccxuiBQM.s:6179   .debug_str:000000000000061d .LASF89
     /tmp/ccxuiBQM.s:6135   .debug_str:00000000000004ee .LASF124
     /tmp/ccxuiBQM.s:6381   .debug_str:0000000000000c84 .LASF126
     /tmp/ccxuiBQM.s:6181   .debug_str:0000000000000625 .LASF91
     /tmp/ccxuiBQM.s:6387   .debug_str:0000000000000caf .LASF93
     /tmp/ccxuiBQM.s:6309   .debug_str:00000000000009d3 .LASF94
     /tmp/ccxuiBQM.s:6239   .debug_str:00000000000007f9 .LASF95
     /tmp/ccxuiBQM.s:6195   .debug_str:000000000000068a .LASF96
     /tmp/ccxuiBQM.s:6067   .debug_str:00000000000002f7 .LASF98
     /tmp/ccxuiBQM.s:6337   .debug_str:0000000000000b50 .LASF99
     /tmp/ccxuiBQM.s:6039   .debug_str:0000000000000211 .LASF100
     /tmp/ccxuiBQM.s:6087   .debug_str:0000000000000361 .LASF101
     /tmp/ccxuiBQM.s:6063   .debug_str:00000000000002d3 .LASF102
     /tmp/ccxuiBQM.s:6223   .debug_str:0000000000000767 .LASF156
     /tmp/ccxuiBQM.s:6353   .debug_str:0000000000000bd1 .LASF103
     /tmp/ccxuiBQM.s:6155   .debug_str:0000000000000584 .LASF104
     /tmp/ccxuiBQM.s:6005   .debug_str:000000000000010c .LASF105
     /tmp/ccxuiBQM.s:6107   .debug_str:0000000000000429 .LASF106
     /tmp/ccxuiBQM.s:6217   .debug_str:0000000000000736 .LASF135
     /tmp/ccxuiBQM.s:6303   .debug_str:00000000000009b5 .LASF107
     /tmp/ccxuiBQM.s:6057   .debug_str:00000000000002ab .LASF108
     /tmp/ccxuiBQM.s:6137   .debug_str:00000000000004f3 .LASF109
     /tmp/ccxuiBQM.s:5997   .debug_str:00000000000000c3 .LASF110
     /tmp/ccxuiBQM.s:6161   .debug_str:00000000000005a4 .LASF111
     /tmp/ccxuiBQM.s:6189   .debug_str:0000000000000650 .LASF112
     /tmp/ccxuiBQM.s:6023   .debug_str:0000000000000190 .LASF113
     /tmp/ccxuiBQM.s:6025   .debug_str:0000000000000199 .LASF114
     /tmp/ccxuiBQM.s:6055   .debug_str:0000000000000296 .LASF115
GAS LISTING /tmp/ccxuiBQM.s 			page 45


     /tmp/ccxuiBQM.s:6373   .debug_str:0000000000000c2a .LASF116
     /tmp/ccxuiBQM.s:6099   .debug_str:00000000000003da .LASF117
     /tmp/ccxuiBQM.s:6283   .debug_str:0000000000000932 .LASF118
     /tmp/ccxuiBQM.s:6191   .debug_str:000000000000066f .LASF119
     /tmp/ccxuiBQM.s:6401   .debug_str:0000000000000d18 .LASF120
     /tmp/ccxuiBQM.s:6391   .debug_str:0000000000000cc8 .LASF121
     /tmp/ccxuiBQM.s:6123   .debug_str:0000000000000499 .LASF123
     /tmp/ccxuiBQM.s:6399   .debug_str:0000000000000d04 .LASF217
     /tmp/ccxuiBQM.s:6335   .debug_str:0000000000000b40 .LASF125
     /tmp/ccxuiBQM.s:6237   .debug_str:00000000000007d8 .LASF127
     /tmp/ccxuiBQM.s:6013   .debug_str:000000000000015b .LASF128
     /tmp/ccxuiBQM.s:6007   .debug_str:0000000000000121 .LASF129
     /tmp/ccxuiBQM.s:6173   .debug_str:00000000000005f3 .LASF130
     /tmp/ccxuiBQM.s:6051   .debug_str:0000000000000271 .LASF131
     /tmp/ccxuiBQM.s:6361   .debug_str:0000000000000bf0 .LASF132
     /tmp/ccxuiBQM.s:6271   .debug_str:00000000000008e2 .LASF141
     /tmp/ccxuiBQM.s:6405   .debug_str:0000000000000d2b .LASF143
     /tmp/ccxuiBQM.s:6313   .debug_str:00000000000009e2 .LASF133
     /tmp/ccxuiBQM.s:6227   .debug_str:0000000000000796 .LASF134
     /tmp/ccxuiBQM.s:6267   .debug_str:00000000000008bb .LASF136
     /tmp/ccxuiBQM.s:6043   .debug_str:0000000000000228 .LASF137
     /tmp/ccxuiBQM.s:5993   .debug_str:0000000000000099 .LASF138
     /tmp/ccxuiBQM.s:6085   .debug_str:0000000000000358 .LASF139
     /tmp/ccxuiBQM.s:6129   .debug_str:00000000000004cb .LASF218
     /tmp/ccxuiBQM.s:6119   .debug_str:0000000000000487 .LASF140
     /tmp/ccxuiBQM.s:6049   .debug_str:000000000000025f .LASF142
     /tmp/ccxuiBQM.s:6243   .debug_str:0000000000000813 .LASF144
     /tmp/ccxuiBQM.s:6415   .debug_str:0000000000000d76 .LASF145
     /tmp/ccxuiBQM.s:6273   .debug_str:00000000000008f7 .LASF146
     /tmp/ccxuiBQM.s:6281   .debug_str:0000000000000923 .LASF147
     /tmp/ccxuiBQM.s:6165   .debug_str:00000000000005b2 .LASF148
     /tmp/ccxuiBQM.s:6315   .debug_str:00000000000009f4 .LASF149
     /tmp/ccxuiBQM.s:6221   .debug_str:0000000000000755 .LASF150
     /tmp/ccxuiBQM.s:6209   .debug_str:00000000000006d9 .LASF151
     /tmp/ccxuiBQM.s:6009   .debug_str:0000000000000142 .LASF152
     /tmp/ccxuiBQM.s:6327   .debug_str:0000000000000afc .LASF153
     /tmp/ccxuiBQM.s:6139   .debug_str:00000000000004fb .LASF154
     /tmp/ccxuiBQM.s:6127   .debug_str:00000000000004ba .LASF219
     /tmp/ccxuiBQM.s:5979   .debug_str:0000000000000037 .LASF155
     /tmp/ccxuiBQM.s:6319   .debug_str:0000000000000a0a .LASF157
     /tmp/ccxuiBQM.s:6045   .debug_str:000000000000023d .LASF158
     /tmp/ccxuiBQM.s:6345   .debug_str:0000000000000b81 .LASF159
     /tmp/ccxuiBQM.s:6351   .debug_str:0000000000000bb6 .LASF160
     /tmp/ccxuiBQM.s:6311   .debug_str:00000000000009d8 .LASF161
     /tmp/ccxuiBQM.s:6105   .debug_str:0000000000000409 .LASF162
     /tmp/ccxuiBQM.s:6149   .debug_str:0000000000000549 .LASF163
     /tmp/ccxuiBQM.s:6111   .debug_str:000000000000044d .LASF164
     /tmp/ccxuiBQM.s:5975   .debug_str:0000000000000000 .LASF220
     /tmp/ccxuiBQM.s:6019   .debug_str:000000000000017d .LASF165
     /tmp/ccxuiBQM.s:6183   .debug_str:000000000000062a .LASF166
     /tmp/ccxuiBQM.s:6213   .debug_str:00000000000006fb .LASF167
     /tmp/ccxuiBQM.s:6199   .debug_str:00000000000006a2 .LASF168
     /tmp/ccxuiBQM.s:6177   .debug_str:0000000000000605 .LASF221
     /tmp/ccxuiBQM.s:6097   .debug_str:00000000000003d5 .LASF169
     /tmp/ccxuiBQM.s:5989   .debug_str:0000000000000088 .LASF170
     /tmp/ccxuiBQM.s:6417   .debug_str:0000000000000d8d .LASF171
     /tmp/ccxuiBQM.s:511    .text._ZN14PeriodicThreadD0Ev:0000000000000000 .LFB79
GAS LISTING /tmp/ccxuiBQM.s 			page 46


     /tmp/ccxuiBQM.s:551    .text._ZN14PeriodicThreadD0Ev:000000000000004c .LFE79
     /tmp/ccxuiBQM.s:5405   .debug_loc:0000000000000000 .LLST12
     /tmp/ccxuiBQM.s:527    .text._ZN14PeriodicThreadD0Ev:0000000000000018 .LBB73
     /tmp/ccxuiBQM.s:535    .text._ZN14PeriodicThreadD0Ev:000000000000002c .LBE73
     /tmp/ccxuiBQM.s:5423   .debug_loc:000000000000004c .LLST13
     /tmp/ccxuiBQM.s:533    .text._ZN14PeriodicThreadD0Ev:000000000000002c .LVL39
     /tmp/ccxuiBQM.s:538    .text._ZN14PeriodicThreadD0Ev:0000000000000038 .LVL40
     /tmp/ccxuiBQM.s:6247   .debug_str:0000000000000827 .LASF172
     /tmp/ccxuiBQM.s:218    .text._ZN14PeriodicThreadD2Ev:0000000000000000 .LFB77
     /tmp/ccxuiBQM.s:246    .text._ZN14PeriodicThreadD2Ev:0000000000000034 .LFE77
     /tmp/ccxuiBQM.s:5434   .debug_loc:0000000000000082 .LLST4
     /tmp/ccxuiBQM.s:235    .text._ZN14PeriodicThreadD2Ev:0000000000000024 .LVL16
     /tmp/ccxuiBQM.s:1305   .text:0000000000000594 .LFB75
     /tmp/ccxuiBQM.s:1331   .text:00000000000005bc .LFE75
     /tmp/ccxuiBQM.s:5448   .debug_loc:00000000000000bb .LLST32
     /tmp/ccxuiBQM.s:1320   .text:00000000000005ac .LVL99
     /tmp/ccxuiBQM.s:1274   .text:000000000000056c .LFB74
     /tmp/ccxuiBQM.s:1299   .text:0000000000000594 .LFE74
     /tmp/ccxuiBQM.s:1288   .text:0000000000000584 .LVL97
     /tmp/ccxuiBQM.s:922    .text:000000000000039c .LFB73
     /tmp/ccxuiBQM.s:975    .text:00000000000003ec .LFE73
     /tmp/ccxuiBQM.s:6081   .debug_str:000000000000033a .LASF173
     /tmp/ccxuiBQM.s:5462   .debug_loc:00000000000000f4 .LLST23
     /tmp/ccxuiBQM.s:942    .text:00000000000003b8 .LBB80
     /tmp/ccxuiBQM.s:960    .text:00000000000003d8 .LBE80
     /tmp/ccxuiBQM.s:951    .text:00000000000003c8 .LVL71
     /tmp/ccxuiBQM.s:956    .text:00000000000003d4 .LVL72
     /tmp/ccxuiBQM.s:6285   .debug_str:0000000000000937 .LASF174
     /tmp/ccxuiBQM.s:1221   .text:0000000000000510 .LFB71
     /tmp/ccxuiBQM.s:1266   .text:000000000000056c .LFE71
     /tmp/ccxuiBQM.s:5477   .debug_loc:000000000000013d .LLST30
     /tmp/ccxuiBQM.s:5495   .debug_loc:0000000000000189 .LLST31
     /tmp/ccxuiBQM.s:1245   .text:0000000000000544 .LVL94
     /tmp/ccxuiBQM.s:1197   .text:00000000000004f8 .LFB69
     /tmp/ccxuiBQM.s:1215   .text:0000000000000510 .LFE69
     /tmp/ccxuiBQM.s:1163   .text:00000000000004cc .LFB68
     /tmp/ccxuiBQM.s:1191   .text:00000000000004f8 .LFE68
     /tmp/ccxuiBQM.s:5514   .debug_loc:00000000000001d6 .LLST29
     /tmp/ccxuiBQM.s:1180   .text:00000000000004e8 .LVL90
     /tmp/ccxuiBQM.s:1129   .text:00000000000004a0 .LFB67
     /tmp/ccxuiBQM.s:1157   .text:00000000000004cc .LFE67
     /tmp/ccxuiBQM.s:5528   .debug_loc:000000000000020f .LLST28
     /tmp/ccxuiBQM.s:1146   .text:00000000000004bc .LVL87
     /tmp/ccxuiBQM.s:6169   .debug_str:00000000000005d2 .LASF175
     /tmp/ccxuiBQM.s:558    .text:00000000000001dc .LFB66
     /tmp/ccxuiBQM.s:591    .text:000000000000021c .LFE66
     /tmp/ccxuiBQM.s:5542   .debug_loc:0000000000000248 .LLST14
     /tmp/ccxuiBQM.s:575    .text:00000000000001fc .LVL43
     /tmp/ccxuiBQM.s:578    .text:0000000000000208 .LVL44
     /tmp/ccxuiBQM.s:6001   .debug_str:00000000000000f1 .LASF176
     /tmp/ccxuiBQM.s:255    .text:00000000000000ac .LFB64
     /tmp/ccxuiBQM.s:351    .text:0000000000000124 .LFE64
     /tmp/ccxuiBQM.s:5560   .debug_loc:0000000000000294 .LLST5
     /tmp/ccxuiBQM.s:289    .text:00000000000000e4 .LBB65
     /tmp/ccxuiBQM.s:332    .text:0000000000000104 .LBE65
     /tmp/ccxuiBQM.s:290    .text:00000000000000e4 .LBB66
     /tmp/ccxuiBQM.s:331    .text:0000000000000104 .LBE66
GAS LISTING /tmp/ccxuiBQM.s 			page 47


     /tmp/ccxuiBQM.s:295    .text:00000000000000e4 .LBB68
     /tmp/ccxuiBQM.s:303    .text:00000000000000e8 .LBE68
     /tmp/ccxuiBQM.s:306    .text:00000000000000ec .LBB70
     /tmp/ccxuiBQM.s:329    .text:0000000000000104 .LBE70
     /tmp/ccxuiBQM.s:5578   .debug_loc:00000000000002e0 .LLST6
     /tmp/ccxuiBQM.s:318    .text:00000000000000f8 .LBB71
     /tmp/ccxuiBQM.s:328    .text:0000000000000104 .LBE71
     /tmp/ccxuiBQM.s:5585   .debug_loc:0000000000000303 .LLST7
     /tmp/ccxuiBQM.s:323    .text:0000000000000100 .LVL25
     /tmp/ccxuiBQM.s:281    .text:00000000000000dc .LVL19
     /tmp/ccxuiBQM.s:336    .text:0000000000000110 .LVL26
     /tmp/ccxuiBQM.s:6031   .debug_str:00000000000001d6 .LASF183
     /tmp/ccxuiBQM.s:6017   .debug_str:0000000000000178 .LASF177
     /tmp/ccxuiBQM.s:6041   .debug_str:0000000000000216 .LASF178
     /tmp/ccxuiBQM.s:1088   .text:0000000000000468 .LFB58
     /tmp/ccxuiBQM.s:1121   .text:00000000000004a0 .LFE58
     /tmp/ccxuiBQM.s:5592   .debug_loc:0000000000000326 .LLST26
     /tmp/ccxuiBQM.s:5612   .debug_loc:0000000000000374 .LLST27
     /tmp/ccxuiBQM.s:1109   .text:0000000000000490 .LVL84
     /tmp/ccxuiBQM.s:62     .text:0000000000000000 .LFB56
     /tmp/ccxuiBQM.s:98     .text:0000000000000034 .LFE56
     /tmp/ccxuiBQM.s:6245   .debug_str:0000000000000820 .LASF179
     /tmp/ccxuiBQM.s:5626   .debug_loc:00000000000003ad .LLST0
     /tmp/ccxuiBQM.s:84     .text:0000000000000020 .LVL3
     /tmp/ccxuiBQM.s:6251   .debug_str:000000000000084d .LASF180
     /tmp/ccxuiBQM.s:981    .text:00000000000003ec .LFB54
     /tmp/ccxuiBQM.s:1080   .text:0000000000000468 .LFE54
     /tmp/ccxuiBQM.s:5644   .debug_loc:00000000000003f9 .LLST24
     /tmp/ccxuiBQM.s:1016   .text:000000000000042c .LVL77
     /tmp/ccxuiBQM.s:1000   .text:0000000000000410 .LBB82
     /tmp/ccxuiBQM.s:1065   .text:0000000000000454 .LBE82
     /tmp/ccxuiBQM.s:5668   .debug_loc:000000000000045a .LLST25
     /tmp/ccxuiBQM.s:884    .text:0000000000000360 .LFB52
     /tmp/ccxuiBQM.s:916    .text:000000000000039c .LFE52
     /tmp/ccxuiBQM.s:5680   .debug_loc:0000000000000491 .LLST22
     /tmp/ccxuiBQM.s:903    .text:0000000000000388 .LVL68
     /tmp/ccxuiBQM.s:853    .text:0000000000000338 .LFB51
     /tmp/ccxuiBQM.s:878    .text:0000000000000360 .LFE51
     /tmp/ccxuiBQM.s:867    .text:0000000000000350 .LVL65
     /tmp/ccxuiBQM.s:819    .text:000000000000030c .LFB50
     /tmp/ccxuiBQM.s:847    .text:0000000000000338 .LFE50
     /tmp/ccxuiBQM.s:5698   .debug_loc:00000000000004dd .LLST21
     /tmp/ccxuiBQM.s:836    .text:0000000000000328 .LVL64
     /tmp/ccxuiBQM.s:760    .text:00000000000002d4 .LFB49
     /tmp/ccxuiBQM.s:813    .text:000000000000030c .LFE49
     /tmp/ccxuiBQM.s:5712   .debug_loc:0000000000000516 .LLST20
     /tmp/ccxuiBQM.s:6171   .debug_str:00000000000005e4 .LASF181
     /tmp/ccxuiBQM.s:471    .text:000000000000019c .LFB48
     /tmp/ccxuiBQM.s:504    .text:00000000000001dc .LFE48
     /tmp/ccxuiBQM.s:5737   .debug_loc:0000000000000578 .LLST11
     /tmp/ccxuiBQM.s:488    .text:00000000000001bc .LVL34
     /tmp/ccxuiBQM.s:491    .text:00000000000001c8 .LVL35
     /tmp/ccxuiBQM.s:6385   .debug_str:0000000000000ca0 .LASF182
     /tmp/ccxuiBQM.s:104    .text:0000000000000034 .LFB46
     /tmp/ccxuiBQM.s:201    .text:00000000000000ac .LFE46
     /tmp/ccxuiBQM.s:5755   .debug_loc:00000000000005c4 .LLST1
     /tmp/ccxuiBQM.s:138    .text:000000000000006c .LBB55
GAS LISTING /tmp/ccxuiBQM.s 			page 48


     /tmp/ccxuiBQM.s:182    .text:000000000000008c .LBE55
     /tmp/ccxuiBQM.s:139    .text:000000000000006c .LBB56
     /tmp/ccxuiBQM.s:181    .text:000000000000008c .LBE56
     /tmp/ccxuiBQM.s:145    .text:000000000000006c .LBB58
     /tmp/ccxuiBQM.s:153    .text:0000000000000070 .LBE58
     /tmp/ccxuiBQM.s:156    .text:0000000000000074 .LBB60
     /tmp/ccxuiBQM.s:179    .text:000000000000008c .LBE60
     /tmp/ccxuiBQM.s:5773   .debug_loc:0000000000000610 .LLST2
     /tmp/ccxuiBQM.s:168    .text:0000000000000080 .LBB61
     /tmp/ccxuiBQM.s:178    .text:000000000000008c .LBE61
     /tmp/ccxuiBQM.s:5780   .debug_loc:0000000000000633 .LLST3
     /tmp/ccxuiBQM.s:173    .text:0000000000000088 .LVL13
     /tmp/ccxuiBQM.s:130    .text:0000000000000064 .LVL7
     /tmp/ccxuiBQM.s:186    .text:0000000000000098 .LVL14
     /tmp/ccxuiBQM.s:6187   .debug_str:0000000000000644 .LASF184
     /tmp/ccxuiBQM.s:6331   .debug_str:0000000000000b1f .LASF185
     /tmp/ccxuiBQM.s:638    .text:0000000000000244 .LFB40
     /tmp/ccxuiBQM.s:752    .text:00000000000002d4 .LFE40
     /tmp/ccxuiBQM.s:5787   .debug_loc:0000000000000656 .LLST16
     /tmp/ccxuiBQM.s:5815   .debug_loc:00000000000006ca .LLST17
     /tmp/ccxuiBQM.s:5837   .debug_loc:0000000000000729 .LLST18
     /tmp/ccxuiBQM.s:679    .text:0000000000000290 .LVL51
     /tmp/ccxuiBQM.s:5859   .debug_loc:0000000000000788 .LLST19
     /tmp/ccxuiBQM.s:6407   .debug_str:0000000000000d3b .LASF186
     /tmp/ccxuiBQM.s:6147   .debug_str:0000000000000542 .LASF187
     /tmp/ccxuiBQM.s:597    .text:000000000000021c .LFB38
     /tmp/ccxuiBQM.s:625    .text:0000000000000244 .LFE38
     /tmp/ccxuiBQM.s:5876   .debug_loc:00000000000007d3 .LLST15
     /tmp/ccxuiBQM.s:614    .text:0000000000000234 .LVL47
     /tmp/ccxuiBQM.s:6205   .debug_str:00000000000006cd .LASF188
     /tmp/ccxuiBQM.s:430    .text:0000000000000174 .LFB37
     /tmp/ccxuiBQM.s:458    .text:000000000000019c .LFE37
     /tmp/ccxuiBQM.s:5890   .debug_loc:000000000000080c .LLST10
     /tmp/ccxuiBQM.s:447    .text:000000000000018c .LVL32
     /tmp/ccxuiBQM.s:6027   .debug_str:00000000000001b5 .LASF189
     /tmp/ccxuiBQM.s:6307   .debug_str:00000000000009cd .LASF190
     /tmp/ccxuiBQM.s:398    .text:000000000000014c .LFB36
     /tmp/ccxuiBQM.s:424    .text:0000000000000174 .LFE36
     /tmp/ccxuiBQM.s:6059   .debug_str:00000000000002c0 .LASF191
     /tmp/ccxuiBQM.s:5904   .debug_loc:0000000000000845 .LLST9
     /tmp/ccxuiBQM.s:413    .text:0000000000000164 .LVL30
     /tmp/ccxuiBQM.s:6357   .debug_str:0000000000000be5 .LASF192
     /tmp/ccxuiBQM.s:366    .text:0000000000000124 .LFB35
     /tmp/ccxuiBQM.s:392    .text:000000000000014c .LFE35
     /tmp/ccxuiBQM.s:5918   .debug_loc:000000000000087e .LLST8
     /tmp/ccxuiBQM.s:381    .text:000000000000013c .LVL28
     /tmp/ccxuiBQM.s:6255   .debug_str:0000000000000866 .LASF193
     /tmp/ccxuiBQM.s:6103   .debug_str:00000000000003f4 .LASF194
     /tmp/ccxuiBQM.s:37     .text._ZN14PeriodicThread18periodicActivationEv:0000000000000000 .LFB1
     /tmp/ccxuiBQM.s:55     .text._ZN14PeriodicThread18periodicActivationEv:0000000000000018 .LFE1
     /tmp/ccxuiBQM.s:11     .text._ZN6Thread3runEv:0000000000000000 .LFB0
     /tmp/ccxuiBQM.s:30     .text._ZN6Thread3runEv:0000000000000018 .LFE0
     /tmp/ccxuiBQM.s:6291   .debug_str:0000000000000968 .LASF195
     /tmp/ccxuiBQM.s:6367   .debug_str:0000000000000c0a .LASF196
     /tmp/ccxuiBQM.s:6241   .debug_str:00000000000007fe .LASF197
     /tmp/ccxuiBQM.s:6117   .debug_str:000000000000047c .LASF198
     /tmp/ccxuiBQM.s:6409   .debug_str:0000000000000d4e .LASF199
GAS LISTING /tmp/ccxuiBQM.s 			page 49


     /tmp/ccxuiBQM.s:6413   .debug_str:0000000000000d6d .LASF200
     /tmp/ccxuiBQM.s:6395   .debug_str:0000000000000cf0 .LASF201
     /tmp/ccxuiBQM.s:6125   .debug_str:00000000000004b1 .LASF202
     /tmp/ccxuiBQM.s:6011   .debug_str:0000000000000148 .LASF203
     /tmp/ccxuiBQM.s:6229   .debug_str:00000000000007a1 .LASF204
     /tmp/ccxuiBQM.s:6225   .debug_str:0000000000000782 .LASF205
     /tmp/ccxuiBQM.s:6003   .debug_str:0000000000000103 .LASF206
     /tmp/ccxuiBQM.s:6115   .debug_str:000000000000046e .LASF207
     /tmp/ccxuiBQM.s:6185   .debug_str:000000000000063a .LASF208
     /tmp/ccxuiBQM.s:6375   .debug_str:0000000000000c40 .LASF209
     /tmp/ccxuiBQM.s:6233   .debug_str:00000000000007c3 .LASF210
     /tmp/ccxuiBQM.s:6269   .debug_str:00000000000008cd .LASF211
     /tmp/ccxuiBQM.s:6197   .debug_str:0000000000000696 .LASF212
     /tmp/ccxuiBQM.s:514    .text._ZN14PeriodicThreadD0Ev:0000000000000000 .LVL37
     /tmp/ccxuiBQM.s:546    .text._ZN14PeriodicThreadD0Ev:0000000000000044 .LVL41
     /tmp/ccxuiBQM.s:526    .text._ZN14PeriodicThreadD0Ev:0000000000000018 .LVL38
     /tmp/ccxuiBQM.s:221    .text._ZN14PeriodicThreadD2Ev:0000000000000000 .LVL15
     /tmp/ccxuiBQM.s:1308   .text:0000000000000594 .LVL98
     /tmp/ccxuiBQM.s:925    .text:000000000000039c .LVL69
     /tmp/ccxuiBQM.s:940    .text:00000000000003b8 .LVL70
     /tmp/ccxuiBQM.s:970    .text:00000000000003e4 .LVL73
     /tmp/ccxuiBQM.s:1224   .text:0000000000000510 .LVL92
     /tmp/ccxuiBQM.s:1258   .text:0000000000000560 .LVL95
     /tmp/ccxuiBQM.s:1243   .text:000000000000053c .LVL93
     /tmp/ccxuiBQM.s:1261   .text:0000000000000564 .LVL96
     /tmp/ccxuiBQM.s:1166   .text:00000000000004cc .LVL88
     /tmp/ccxuiBQM.s:1178   .text:00000000000004e0 .LVL89
     /tmp/ccxuiBQM.s:1132   .text:00000000000004a0 .LVL85
     /tmp/ccxuiBQM.s:1144   .text:00000000000004b4 .LVL86
     /tmp/ccxuiBQM.s:561    .text:00000000000001dc .LVL42
     /tmp/ccxuiBQM.s:586    .text:0000000000000214 .LVL45
     /tmp/ccxuiBQM.s:260    .text:00000000000000ac .LVL17
     /tmp/ccxuiBQM.s:279    .text:00000000000000d4 .LVL18
     /tmp/ccxuiBQM.s:285    .text:00000000000000e0 .LVL20
     /tmp/ccxuiBQM.s:308    .text:00000000000000ec .LVL23
     /tmp/ccxuiBQM.s:317    .text:00000000000000f8 .LVL24
     /tmp/ccxuiBQM.s:1091   .text:0000000000000468 .LVL82
     /tmp/ccxuiBQM.s:1107   .text:0000000000000488 .LVL83
     /tmp/ccxuiBQM.s:66     .text:0000000000000000 .LVL2
     /tmp/ccxuiBQM.s:94     .text:0000000000000030 .LVL4
     /tmp/ccxuiBQM.s:984    .text:00000000000003ec .LVL74
     /tmp/ccxuiBQM.s:1014   .text:0000000000000424 .LVL76
     /tmp/ccxuiBQM.s:1048   .text:0000000000000448 .LVL80
     /tmp/ccxuiBQM.s:1075   .text:0000000000000460 .LVL81
     /tmp/ccxuiBQM.s:1009   .text:0000000000000420 .LVL75
     /tmp/ccxuiBQM.s:1018   .text:0000000000000430 .LVL78
     /tmp/ccxuiBQM.s:1029   .text:0000000000000438 .LVL79
     /tmp/ccxuiBQM.s:887    .text:0000000000000360 .LVL66
     /tmp/ccxuiBQM.s:901    .text:0000000000000380 .LVL67
     /tmp/ccxuiBQM.s:822    .text:000000000000030c .LVL62
     /tmp/ccxuiBQM.s:834    .text:0000000000000320 .LVL63
     /tmp/ccxuiBQM.s:763    .text:00000000000002d4 .LVL58
     /tmp/ccxuiBQM.s:781    .text:00000000000002ec .LVL59
     /tmp/ccxuiBQM.s:805    .text:0000000000000304 .LVL60
     /tmp/ccxuiBQM.s:810    .text:0000000000000308 .LVL61
     /tmp/ccxuiBQM.s:474    .text:000000000000019c .LVL33
     /tmp/ccxuiBQM.s:499    .text:00000000000001d4 .LVL36
GAS LISTING /tmp/ccxuiBQM.s 			page 50


     /tmp/ccxuiBQM.s:109    .text:0000000000000034 .LVL5
     /tmp/ccxuiBQM.s:128    .text:000000000000005c .LVL6
     /tmp/ccxuiBQM.s:134    .text:0000000000000068 .LVL8
     /tmp/ccxuiBQM.s:158    .text:0000000000000074 .LVL11
     /tmp/ccxuiBQM.s:167    .text:0000000000000080 .LVL12
     /tmp/ccxuiBQM.s:641    .text:0000000000000244 .LVL48
     /tmp/ccxuiBQM.s:677    .text:0000000000000288 .LVL50
     /tmp/ccxuiBQM.s:703    .text:00000000000002a4 .LVL53
     /tmp/ccxuiBQM.s:731    .text:00000000000002bc .LVL54
     /tmp/ccxuiBQM.s:741    .text:00000000000002cc .LVL57
     /tmp/ccxuiBQM.s:734    .text:00000000000002c0 .LVL55
     /tmp/ccxuiBQM.s:737    .text:00000000000002c4 .LVL56
     /tmp/ccxuiBQM.s:671    .text:0000000000000280 .LVL49
     /tmp/ccxuiBQM.s:681    .text:0000000000000294 .LVL52
     /tmp/ccxuiBQM.s:602    .text:000000000000021c .LVL46
     /tmp/ccxuiBQM.s:435    .text:0000000000000174 .LVL31
     /tmp/ccxuiBQM.s:401    .text:000000000000014c .LVL29
     /tmp/ccxuiBQM.s:369    .text:0000000000000124 .LVL27
     /tmp/ccxuiBQM.s:1374   .debug_info:0000000000000000 .Ldebug_info0
     /tmp/ccxuiBQM.s:5      .text:0000000000000000 .Ltext0
     /tmp/ccxuiBQM.s:1367   .text:00000000000005bc .Letext0
     /tmp/ccxuiBQM.s:663    .text:0000000000000278 .LBB76
     /tmp/ccxuiBQM.s:720    .text:00000000000002b0 .LBE76
     /tmp/ccxuiBQM.s:745    .text:00000000000002cc .LBB77
     /tmp/ccxuiBQM.s:749    .text:00000000000002d4 .LBE77
     /tmp/ccxuiBQM.s:204    .gcc_except_table:0000000000000000 .LLSDA46
     /tmp/ccxuiBQM.s:353    .gcc_except_table:0000000000000004 .LLSDA64
     /tmp/ccxuiBQM.s:460    .gcc_except_table:0000000000000008 .LLSDA37
     /tmp/ccxuiBQM.s:627    .gcc_except_table:000000000000000c .LLSDA38
                           .group:0000000000000000 _ZN14PeriodicThreadD5Ev

UNDEFINED SYMBOLS
_Z11thread_joinP3TCB
_Z8mem_freePv
_ZN3TCBdlEPv
__gxx_personality_v0
_Z9sem_closeP4KSem
_ZN4KSemdlEPv
_Z9mem_allocm
_Z15thread_dispatchv
_ZN3TCB7runningE
_ZN9Scheduler10putToSleepEP3TCBm
_Z8sem_openPP4KSemj
_Z8sem_waitP4KSem
_Z10sem_signalP4KSem
_Z4getcv
_Z4putcc
