GAS LISTING /tmp/ccMEipbl.s 			page 1


   1              		.file	"syscall_cpp.cpp"
   2              		.option pic
   3              		.option norelax
   4              		.text
   5              	.Ltext0:
   6              		.section	.text._ZN6Thread3runEv,"axG",@progbits,_ZN6Thread3runEv,comdat
   7              		.align	2
   8              		.weak	_ZN6Thread3runEv
  10              	_ZN6Thread3runEv:
  11              	.LFB0:
  12              		.file 1 "src/../h/syscall_cpp.hpp"
   1:src/../h/syscall_cpp.hpp **** #ifndef _syscall_cpp
   2:src/../h/syscall_cpp.hpp **** #define _syscall_cpp
   3:src/../h/syscall_cpp.hpp **** 
   4:src/../h/syscall_cpp.hpp **** #include "../lib/hw.h"
   5:src/../h/syscall_cpp.hpp **** 
   6:src/../h/syscall_cpp.hpp **** void* operator new(size_t);
   7:src/../h/syscall_cpp.hpp **** 
   8:src/../h/syscall_cpp.hpp **** void* operator new[](size_t);
   9:src/../h/syscall_cpp.hpp **** 
  10:src/../h/syscall_cpp.hpp **** void operator delete(void*)
  11:src/../h/syscall_cpp.hpp **** 
  12:src/../h/syscall_cpp.hpp **** noexcept;
  13:src/../h/syscall_cpp.hpp **** 
  14:src/../h/syscall_cpp.hpp **** void operator delete[](void*)
  15:src/../h/syscall_cpp.hpp **** 
  16:src/../h/syscall_cpp.hpp **** noexcept;
  17:src/../h/syscall_cpp.hpp **** 
  18:src/../h/syscall_cpp.hpp **** class TCB;
  19:src/../h/syscall_cpp.hpp **** 
  20:src/../h/syscall_cpp.hpp **** typedef TCB* thread_t;
  21:src/../h/syscall_cpp.hpp **** 
  22:src/../h/syscall_cpp.hpp **** class KSem;
  23:src/../h/syscall_cpp.hpp **** 
  24:src/../h/syscall_cpp.hpp **** typedef KSem* sem_t;
  25:src/../h/syscall_cpp.hpp **** 
  26:src/../h/syscall_cpp.hpp **** class Thread {
  27:src/../h/syscall_cpp.hpp **** public:
  28:src/../h/syscall_cpp.hpp **** 	Thread(void (* body)(void*), void* arg);
  29:src/../h/syscall_cpp.hpp **** 
  30:src/../h/syscall_cpp.hpp **** 	virtual ~Thread();
  31:src/../h/syscall_cpp.hpp **** 
  32:src/../h/syscall_cpp.hpp **** 	int start();
  33:src/../h/syscall_cpp.hpp **** 
  34:src/../h/syscall_cpp.hpp **** 	void join();
  35:src/../h/syscall_cpp.hpp **** 
  36:src/../h/syscall_cpp.hpp **** 	static void dispatch();
  37:src/../h/syscall_cpp.hpp **** 
  38:src/../h/syscall_cpp.hpp **** 	static int sleep(time_t);
  39:src/../h/syscall_cpp.hpp **** 
  40:src/../h/syscall_cpp.hpp **** protected:
  41:src/../h/syscall_cpp.hpp **** 	Thread();
  42:src/../h/syscall_cpp.hpp **** 
  43:src/../h/syscall_cpp.hpp **** 	virtual void run() {}
  13              		.loc 1 43 15
  14              		.cfi_startproc
  15              	.LVL0:
GAS LISTING /tmp/ccMEipbl.s 			page 2


  16 0000 130101FF 		addi	sp,sp,-16
  17              		.cfi_def_cfa_offset 16
  18 0004 23348100 		sd	s0,8(sp)
  19              		.cfi_offset 8, -8
  20 0008 13040101 		addi	s0,sp,16
  21              		.cfi_def_cfa 8, 0
  22              		.loc 1 43 22 is_stmt 0
  23 000c 03348100 		ld	s0,8(sp)
  24              		.cfi_restore 8
  25              		.cfi_def_cfa 2, 16
  26 0010 13010101 		addi	sp,sp,16
  27              		.cfi_def_cfa_offset 0
  28 0014 67800000 		jr	ra
  29              		.cfi_endproc
  30              	.LFE0:
  32              		.section	.text._ZN14PeriodicThread18periodicActivationEv,"axG",@progbits,_ZN14PeriodicThread18peri
  33              		.align	2
  34              		.weak	_ZN14PeriodicThread18periodicActivationEv
  36              	_ZN14PeriodicThread18periodicActivationEv:
  37              	.LFB1:
  44:src/../h/syscall_cpp.hpp **** 
  45:src/../h/syscall_cpp.hpp **** private:
  46:src/../h/syscall_cpp.hpp **** 	thread_t myHandle;
  47:src/../h/syscall_cpp.hpp **** 
  48:src/../h/syscall_cpp.hpp **** 	void (* body)(void*);
  49:src/../h/syscall_cpp.hpp **** 
  50:src/../h/syscall_cpp.hpp **** 	void* arg;
  51:src/../h/syscall_cpp.hpp **** };
  52:src/../h/syscall_cpp.hpp **** 
  53:src/../h/syscall_cpp.hpp **** 
  54:src/../h/syscall_cpp.hpp **** class Semaphore {
  55:src/../h/syscall_cpp.hpp **** public:
  56:src/../h/syscall_cpp.hpp **** 
  57:src/../h/syscall_cpp.hpp **** 	Semaphore(unsigned init = 1);
  58:src/../h/syscall_cpp.hpp **** 
  59:src/../h/syscall_cpp.hpp **** 	virtual ~Semaphore();
  60:src/../h/syscall_cpp.hpp **** 
  61:src/../h/syscall_cpp.hpp **** 	int wait();
  62:src/../h/syscall_cpp.hpp **** 
  63:src/../h/syscall_cpp.hpp **** 	int signal();
  64:src/../h/syscall_cpp.hpp **** 
  65:src/../h/syscall_cpp.hpp **** private:
  66:src/../h/syscall_cpp.hpp **** 	sem_t myHandle;
  67:src/../h/syscall_cpp.hpp **** 
  68:src/../h/syscall_cpp.hpp **** };
  69:src/../h/syscall_cpp.hpp **** 
  70:src/../h/syscall_cpp.hpp **** 
  71:src/../h/syscall_cpp.hpp **** class PeriodicThread : public Thread {
  72:src/../h/syscall_cpp.hpp **** public:
  73:src/../h/syscall_cpp.hpp **** 	void terminate();
  74:src/../h/syscall_cpp.hpp **** 
  75:src/../h/syscall_cpp.hpp **** protected:
  76:src/../h/syscall_cpp.hpp **** 	PeriodicThread(time_t period);
  77:src/../h/syscall_cpp.hpp **** 
  78:src/../h/syscall_cpp.hpp **** 	virtual void periodicActivation() {}
  38              		.loc 1 78 15 is_stmt 1
  39              		.cfi_startproc
GAS LISTING /tmp/ccMEipbl.s 			page 3


  40              	.LVL1:
  41 0000 130101FF 		addi	sp,sp,-16
  42              		.cfi_def_cfa_offset 16
  43 0004 23348100 		sd	s0,8(sp)
  44              		.cfi_offset 8, -8
  45 0008 13040101 		addi	s0,sp,16
  46              		.cfi_def_cfa 8, 0
  47              		.loc 1 78 37 is_stmt 0
  48 000c 03348100 		ld	s0,8(sp)
  49              		.cfi_restore 8
  50              		.cfi_def_cfa 2, 16
  51 0010 13010101 		addi	sp,sp,16
  52              		.cfi_def_cfa_offset 0
  53 0014 67800000 		jr	ra
  54              		.cfi_endproc
  55              	.LFE1:
  57              		.text
  58              		.align	2
  59              		.globl	_ZN6ThreadD2Ev
  61              	_ZN6ThreadD2Ev:
  62              	.LFB43:
  63              		.file 2 "src/syscall_cpp.cpp"
   1:src/syscall_cpp.cpp **** //
   2:src/syscall_cpp.cpp **** // Created by os on 5/29/23.
   3:src/syscall_cpp.cpp **** //
   4:src/syscall_cpp.cpp **** #include "../h/syscall_cpp.hpp"
   5:src/syscall_cpp.cpp **** #include "../h/syscall_c.hpp"
   6:src/syscall_cpp.cpp **** #include "../h/TCB.hpp"
   7:src/syscall_cpp.cpp **** #include "../h/KSem.hpp"
   8:src/syscall_cpp.cpp **** #include "../h/Scheduler.hpp"
   9:src/syscall_cpp.cpp **** 
  10:src/syscall_cpp.cpp **** //override globalnog new
  11:src/syscall_cpp.cpp **** void* operator new(size_t size) {
  12:src/syscall_cpp.cpp **** 	return mem_alloc(size);
  13:src/syscall_cpp.cpp **** }
  14:src/syscall_cpp.cpp **** 
  15:src/syscall_cpp.cpp **** void* operator new[](size_t size) {
  16:src/syscall_cpp.cpp **** 	return mem_alloc(size);
  17:src/syscall_cpp.cpp **** }
  18:src/syscall_cpp.cpp **** 
  19:src/syscall_cpp.cpp **** void operator delete(void* ptr)
  20:src/syscall_cpp.cpp **** 
  21:src/syscall_cpp.cpp **** noexcept {
  22:src/syscall_cpp.cpp **** mem_free(ptr);
  23:src/syscall_cpp.cpp **** }
  24:src/syscall_cpp.cpp **** 
  25:src/syscall_cpp.cpp **** void operator delete[](void* ptr)
  26:src/syscall_cpp.cpp **** 
  27:src/syscall_cpp.cpp **** noexcept {
  28:src/syscall_cpp.cpp **** mem_free(ptr);
  29:src/syscall_cpp.cpp **** }
  30:src/syscall_cpp.cpp **** 
  31:src/syscall_cpp.cpp **** //konstruktor za Thread
  32:src/syscall_cpp.cpp **** Thread::Thread(void (* body)(void*), void* arg) {
  33:src/syscall_cpp.cpp **** 	this->body = body;
  34:src/syscall_cpp.cpp **** 	this->arg = arg;
  35:src/syscall_cpp.cpp **** 	//stvaranje steka ako se ne radi o main kernel niti, posto ona automatski ima stek
GAS LISTING /tmp/ccMEipbl.s 			page 4


  36:src/syscall_cpp.cpp **** 	uint64* stack = nullptr;
  37:src/syscall_cpp.cpp **** 	if (body != nullptr) {
  38:src/syscall_cpp.cpp **** 		stack = (uint64*)mem_alloc(DEFAULT_STACK_SIZE);
  39:src/syscall_cpp.cpp **** 	}
  40:src/syscall_cpp.cpp **** 	//uint64* stack = (start_routine != nullptr ? (uint64*)MemoryAllocator::kmalloc(DEFAULT_STACK_SIZE
  41:src/syscall_cpp.cpp **** 	//stavljanje argumenata za sistemski poziv
  42:src/syscall_cpp.cpp **** 	__asm__ volatile("mv a4, %[sp]": :[sp] "r"(stack):"a5", "a0", "a1", "a2", "a3", "a4", "a6", "a7");
  43:src/syscall_cpp.cpp **** 	__asm__ volatile("mv a3, %[arg]": :[arg] "r"(arg):"a5", "a0", "a1", "a2", "a3", "a4", "a6", "a7");
  44:src/syscall_cpp.cpp **** 	__asm__ volatile("mv a2, %[function]": :[function] "r"(
  45:src/syscall_cpp.cpp **** 			body):"a5", "a0", "a1", "a2", "a3", "a4", "a6", "a7");
  46:src/syscall_cpp.cpp **** 	__asm__ volatile("mv a1, %[handle]": :[handle] "r"(&myHandle):"a5", "a0", "a1", "a2", "a3", "a4", 
  47:src/syscall_cpp.cpp **** 	__asm__ volatile("li a0, 0x80");
  48:src/syscall_cpp.cpp **** 	//a0 = 0x80
  49:src/syscall_cpp.cpp **** 	//a1 = adresa pokazivaca na rucku niti
  50:src/syscall_cpp.cpp **** 	//a2 = prva adresa funkcije koju nit izvrsava
  51:src/syscall_cpp.cpp **** 	//a3 = pokazivac na argumente funkcije
  52:src/syscall_cpp.cpp **** 	//a4 = pokazivac na najnizu adresu steka (stek raste ka nizim adresama, pokazuje na poslednju zauz
  53:src/syscall_cpp.cpp **** 
  54:src/syscall_cpp.cpp **** 	__asm__ volatile("ecall");
  55:src/syscall_cpp.cpp **** }
  56:src/syscall_cpp.cpp **** 
  57:src/syscall_cpp.cpp **** Thread::~Thread() {
  64              		.loc 2 57 1 is_stmt 1
  65              		.cfi_startproc
  66              	.LVL2:
  67 0000 130101FF 		addi	sp,sp,-16
  68              		.cfi_def_cfa_offset 16
  69 0004 23348100 		sd	s0,8(sp)
  70              		.cfi_offset 8, -8
  71 0008 13040101 		addi	s0,sp,16
  72              		.cfi_def_cfa 8, 0
  58:src/syscall_cpp.cpp **** 
  59:src/syscall_cpp.cpp **** }
  73              		.loc 2 59 1 is_stmt 0
  74 000c 03348100 		ld	s0,8(sp)
  75              		.cfi_restore 8
  76              		.cfi_def_cfa 2, 16
  77 0010 13010101 		addi	sp,sp,16
  78              		.cfi_def_cfa_offset 0
  79 0014 67800000 		jr	ra
  80              		.cfi_endproc
  81              	.LFE43:
  83              		.globl	_ZN6ThreadD1Ev
  84              		.set	_ZN6ThreadD1Ev,_ZN6ThreadD2Ev
  85              		.section	.text._ZN14PeriodicThreadD2Ev,"axG",@progbits,_ZN14PeriodicThreadD5Ev,comdat
  86              		.align	2
  87              		.weak	_ZN14PeriodicThreadD2Ev
  89              	_ZN14PeriodicThreadD2Ev:
  90              	.LFB72:
  71:src/../h/syscall_cpp.hpp **** public:
  91              		.loc 1 71 7 is_stmt 1
  92              		.cfi_startproc
  93              	.LVL3:
  94 0000 130101FF 		addi	sp,sp,-16
  95              		.cfi_def_cfa_offset 16
  96 0004 23348100 		sd	s0,8(sp)
  97              		.cfi_offset 8, -8
GAS LISTING /tmp/ccMEipbl.s 			page 5


  98 0008 13040101 		addi	s0,sp,16
  99              		.cfi_def_cfa 8, 0
 100              	.LBB33:
  71:src/../h/syscall_cpp.hpp **** public:
 101              		.loc 1 71 7 is_stmt 0
 102 000c 97070000 		lla	a5,_ZTV14PeriodicThread+16
 102      93870700 
 103 0014 2330F500 		sd	a5,0(a0)
 104              	.LBE33:
 105 0018 03348100 		ld	s0,8(sp)
 106              		.cfi_restore 8
 107              		.cfi_def_cfa 2, 16
 108 001c 13010101 		addi	sp,sp,16
 109              		.cfi_def_cfa_offset 0
 110 0020 67800000 		jr	ra
 111              		.cfi_endproc
 112              	.LFE72:
 114              		.weak	_ZN14PeriodicThreadD1Ev
 115              		.set	_ZN14PeriodicThreadD1Ev,_ZN14PeriodicThreadD2Ev
 116              		.text
 117              		.align	2
 118              		.globl	_ZN9SemaphoreD2Ev
 120              	_ZN9SemaphoreD2Ev:
 121              	.LFB60:
  60:src/syscall_cpp.cpp **** 
  61:src/syscall_cpp.cpp **** int Thread::start() {
  62:src/syscall_cpp.cpp **** 	if (myHandle == nullptr) return -1;
  63:src/syscall_cpp.cpp **** 	__asm__ volatile("mv a1, %[handle]": :[handle] "r"(myHandle):"a5", "a0", "a1", "a2", "a3", "a4", "
  64:src/syscall_cpp.cpp **** 	__asm__ volatile("li a0, 0x81");
  65:src/syscall_cpp.cpp **** 
  66:src/syscall_cpp.cpp **** 	__asm__ volatile("ecall");
  67:src/syscall_cpp.cpp **** 
  68:src/syscall_cpp.cpp **** 	return 0;
  69:src/syscall_cpp.cpp **** }
  70:src/syscall_cpp.cpp **** 
  71:src/syscall_cpp.cpp **** void Thread::join() {
  72:src/syscall_cpp.cpp **** 	thread_join(myHandle);
  73:src/syscall_cpp.cpp **** }
  74:src/syscall_cpp.cpp **** 
  75:src/syscall_cpp.cpp **** void Thread::dispatch() {
  76:src/syscall_cpp.cpp **** 	thread_dispatch();
  77:src/syscall_cpp.cpp **** }
  78:src/syscall_cpp.cpp **** 
  79:src/syscall_cpp.cpp **** int Thread::sleep(time_t t) {
  80:src/syscall_cpp.cpp **** 	Scheduler::putToSleep(TCB::running, t);
  81:src/syscall_cpp.cpp **** 	return 0;
  82:src/syscall_cpp.cpp **** }
  83:src/syscall_cpp.cpp **** 
  84:src/syscall_cpp.cpp **** Thread::Thread() {
  85:src/syscall_cpp.cpp **** 
  86:src/syscall_cpp.cpp **** }
  87:src/syscall_cpp.cpp **** 
  88:src/syscall_cpp.cpp **** Semaphore::Semaphore(unsigned int init) {
  89:src/syscall_cpp.cpp **** 	sem_open(&myHandle, init);
  90:src/syscall_cpp.cpp **** }
  91:src/syscall_cpp.cpp **** 
  92:src/syscall_cpp.cpp **** Semaphore::~Semaphore() {
GAS LISTING /tmp/ccMEipbl.s 			page 6


 122              		.loc 2 92 1 is_stmt 1
 123              		.cfi_startproc
 124              		.cfi_personality 0x9b,DW.ref.__gxx_personality_v0
 125              		.cfi_lsda 0x1b,.LLSDA60
 126              	.LVL4:
 127 0018 130101FE 		addi	sp,sp,-32
 128              		.cfi_def_cfa_offset 32
 129 001c 233C1100 		sd	ra,24(sp)
 130 0020 23388100 		sd	s0,16(sp)
 131 0024 23349100 		sd	s1,8(sp)
 132              		.cfi_offset 1, -8
 133              		.cfi_offset 8, -16
 134              		.cfi_offset 9, -24
 135 0028 13040102 		addi	s0,sp,32
 136              		.cfi_def_cfa 8, 0
 137 002c 93040500 		mv	s1,a0
 138              	.LBB34:
 139              		.loc 2 92 23 is_stmt 0
 140 0030 97070000 		lla	a5,_ZTV9Semaphore+16
 140      93870700 
 141 0038 2330F500 		sd	a5,0(a0)
  93:src/syscall_cpp.cpp **** 	sem_close(myHandle);
 142              		.loc 2 93 2 is_stmt 1
 143              		.loc 2 93 11 is_stmt 0
 144 003c 03358500 		ld	a0,8(a0)
 145              	.LVL5:
 146 0040 97000000 		call	_Z9sem_closeP4KSem@plt
 146      E7800000 
 147              	.LVL6:
  94:src/syscall_cpp.cpp **** 	delete myHandle;
 148              		.loc 2 94 2 is_stmt 1
 149              		.loc 2 94 9 is_stmt 0
 150 0048 83B48400 		ld	s1,8(s1)
 151              	.LVL7:
 152              		.loc 2 94 17
 153 004c 63880402 		beqz	s1,.L9
 154              	.L12:
 155              	.LBB35:
 156              	.LBB36:
 157              	.LBB37:
 158              		.file 3 "src/../h/../h/ThreadQueue.hpp"
   1:src/../h/../h/ThreadQueue.hpp **** //
   2:src/../h/../h/ThreadQueue.hpp **** // Created by os on 6/4/23.
   3:src/../h/../h/ThreadQueue.hpp **** //
   4:src/../h/../h/ThreadQueue.hpp **** 
   5:src/../h/../h/ThreadQueue.hpp **** #ifndef PROJEKAT2023_THREADQUEUE_HPP
   6:src/../h/../h/ThreadQueue.hpp **** #define PROJEKAT2023_THREADQUEUE_HPP
   7:src/../h/../h/ThreadQueue.hpp **** 
   8:src/../h/../h/ThreadQueue.hpp **** #include "../h/MemoryAllocator.hpp"
   9:src/../h/../h/ThreadQueue.hpp **** #include "../h/syscall_c.hpp"
  10:src/../h/../h/ThreadQueue.hpp **** 
  11:src/../h/../h/ThreadQueue.hpp **** class TCB;
  12:src/../h/../h/ThreadQueue.hpp **** 
  13:src/../h/../h/ThreadQueue.hpp **** class ThreadQueue {
  14:src/../h/../h/ThreadQueue.hpp **** private:
  15:src/../h/../h/ThreadQueue.hpp **** 	struct Node {
  16:src/../h/../h/ThreadQueue.hpp **** 		TCB* data;
GAS LISTING /tmp/ccMEipbl.s 			page 7


  17:src/../h/../h/ThreadQueue.hpp **** 		Node* next;
  18:src/../h/../h/ThreadQueue.hpp **** 
  19:src/../h/../h/ThreadQueue.hpp **** 		Node(TCB* d) : data(d), next(nullptr) {}
  20:src/../h/../h/ThreadQueue.hpp **** 
  21:src/../h/../h/ThreadQueue.hpp **** 		static void* operator new(size_t size) {
  22:src/../h/../h/ThreadQueue.hpp **** 			return mem_alloc(size);
  23:src/../h/../h/ThreadQueue.hpp **** 		}
  24:src/../h/../h/ThreadQueue.hpp **** 
  25:src/../h/../h/ThreadQueue.hpp **** 		static void operator delete(void* ptr) {
  26:src/../h/../h/ThreadQueue.hpp **** 			mem_free(ptr);
  27:src/../h/../h/ThreadQueue.hpp **** 		}
  28:src/../h/../h/ThreadQueue.hpp **** 	};
  29:src/../h/../h/ThreadQueue.hpp **** 
  30:src/../h/../h/ThreadQueue.hpp **** 	Node* front;
  31:src/../h/../h/ThreadQueue.hpp **** 	Node* back;
  32:src/../h/../h/ThreadQueue.hpp **** 
  33:src/../h/../h/ThreadQueue.hpp **** public:
  34:src/../h/../h/ThreadQueue.hpp **** 	ThreadQueue() : front(nullptr), back(nullptr) {}
  35:src/../h/../h/ThreadQueue.hpp **** 
  36:src/../h/../h/ThreadQueue.hpp **** 	ThreadQueue(const ThreadQueue&) = delete;
  37:src/../h/../h/ThreadQueue.hpp **** 
  38:src/../h/../h/ThreadQueue.hpp **** 	ThreadQueue& operator=(const ThreadQueue&) = delete;
  39:src/../h/../h/ThreadQueue.hpp **** 
  40:src/../h/../h/ThreadQueue.hpp **** 	~ThreadQueue() {
  41:src/../h/../h/ThreadQueue.hpp **** 		while (!isEmpty()) {
 159              		.loc 3 41 3 is_stmt 1
 160              		.loc 3 41 10
 161              	.LVL8:
 162              	.LBB38:
 163              	.LBB39:
  42:src/../h/../h/ThreadQueue.hpp **** 			Node* node = front;
  43:src/../h/../h/ThreadQueue.hpp **** 			front = front->next;
  44:src/../h/../h/ThreadQueue.hpp **** 			delete node;
  45:src/../h/../h/ThreadQueue.hpp **** 		}
  46:src/../h/../h/ThreadQueue.hpp **** 	}
  47:src/../h/../h/ThreadQueue.hpp **** 
  48:src/../h/../h/ThreadQueue.hpp **** 	bool isEmpty() const {
  49:src/../h/../h/ThreadQueue.hpp **** 		return front == nullptr;
 164              		.loc 3 49 3
 165              		.loc 3 49 10 is_stmt 0
 166 0050 03B58400 		ld	a0,8(s1)
 167              	.LBE39:
 168              	.LBE38:
  41:src/../h/../h/ThreadQueue.hpp **** 			Node* node = front;
 169              		.loc 3 41 10
 170 0054 630E0500 		beqz	a0,.L11
 171              	.LBB40:
  42:src/../h/../h/ThreadQueue.hpp **** 			Node* node = front;
 172              		.loc 3 42 4 is_stmt 1
 173              	.LVL9:
  43:src/../h/../h/ThreadQueue.hpp **** 			delete node;
 174              		.loc 3 43 4
  43:src/../h/../h/ThreadQueue.hpp **** 			delete node;
 175              		.loc 3 43 19 is_stmt 0
 176 0058 83378500 		ld	a5,8(a0)
  43:src/../h/../h/ThreadQueue.hpp **** 			delete node;
 177              		.loc 3 43 10
GAS LISTING /tmp/ccMEipbl.s 			page 8


 178 005c 23B4F400 		sd	a5,8(s1)
  44:src/../h/../h/ThreadQueue.hpp **** 		}
 179              		.loc 3 44 4 is_stmt 1
  44:src/../h/../h/ThreadQueue.hpp **** 		}
 180              		.loc 3 44 15 is_stmt 0
 181 0060 E30805FE 		beqz	a0,.L12
 182              	.LVL10:
 183              	.LBB41:
 184              	.LBB42:
  26:src/../h/../h/ThreadQueue.hpp **** 		}
 185              		.loc 3 26 4 is_stmt 1
  26:src/../h/../h/ThreadQueue.hpp **** 		}
 186              		.loc 3 26 12 is_stmt 0
 187 0064 97000000 		call	_Z8mem_freePv@plt
 187      E7800000 
 188              	.LVL11:
  27:src/../h/../h/ThreadQueue.hpp **** 	};
 189              		.loc 3 27 3
 190 006c 6FF05FFE 		j	.L12
 191              	.L11:
 192              	.LBE42:
 193              	.LBE41:
 194              	.LBE40:
 195              	.LBE37:
 196              	.LBE36:
 197              	.LBE35:
 198              		.loc 2 94 9
 199 0070 13850400 		mv	a0,s1
 200 0074 97000000 		call	_ZN4KSemdlEPv@plt
 200      E7800000 
 201              	.LVL12:
 202              	.L9:
 203              	.LBE34:
  95:src/syscall_cpp.cpp **** }
 204              		.loc 2 95 1
 205 007c 83308101 		ld	ra,24(sp)
 206              		.cfi_restore 1
 207 0080 03340101 		ld	s0,16(sp)
 208              		.cfi_restore 8
 209              		.cfi_def_cfa 2, 32
 210 0084 83348100 		ld	s1,8(sp)
 211              		.cfi_restore 9
 212 0088 13010102 		addi	sp,sp,32
 213              		.cfi_def_cfa_offset 0
 214 008c 67800000 		jr	ra
 215              		.cfi_endproc
 216              	.LFE60:
 217              		.globl	__gxx_personality_v0
 218              		.section	.gcc_except_table,"a",@progbits
 219              	.LLSDA60:
 220 0000 FF       		.byte	0xff
 221 0001 FF       		.byte	0xff
 222 0002 03       		.byte	0x3
 223 0003 00       		.byte	0
 224              		.text
 226              		.globl	_ZN9SemaphoreD1Ev
 227              		.set	_ZN9SemaphoreD1Ev,_ZN9SemaphoreD2Ev
GAS LISTING /tmp/ccMEipbl.s 			page 9


 228              		.align	2
 229              		.globl	_Znwm
 231              	_Znwm:
 232              	.LFB35:
  11:src/syscall_cpp.cpp **** 	return mem_alloc(size);
 233              		.loc 2 11 33 is_stmt 1
 234              		.cfi_startproc
 235              	.LVL13:
 236 0090 130101FF 		addi	sp,sp,-16
 237              		.cfi_def_cfa_offset 16
 238 0094 23341100 		sd	ra,8(sp)
 239 0098 23308100 		sd	s0,0(sp)
 240              		.cfi_offset 1, -8
 241              		.cfi_offset 8, -16
 242 009c 13040101 		addi	s0,sp,16
 243              		.cfi_def_cfa 8, 0
  12:src/syscall_cpp.cpp **** }
 244              		.loc 2 12 2
  12:src/syscall_cpp.cpp **** }
 245              		.loc 2 12 18 is_stmt 0
 246 00a0 97000000 		call	_Z9mem_allocm@plt
 246      E7800000 
 247              	.LVL14:
  13:src/syscall_cpp.cpp **** 
 248              		.loc 2 13 1
 249 00a8 83308100 		ld	ra,8(sp)
 250              		.cfi_restore 1
 251 00ac 03340100 		ld	s0,0(sp)
 252              		.cfi_restore 8
 253              		.cfi_def_cfa 2, 16
 254 00b0 13010101 		addi	sp,sp,16
 255              		.cfi_def_cfa_offset 0
 256 00b4 67800000 		jr	ra
 257              		.cfi_endproc
 258              	.LFE35:
 260              		.align	2
 261              		.globl	_Znam
 263              	_Znam:
 264              	.LFB36:
  15:src/syscall_cpp.cpp **** 	return mem_alloc(size);
 265              		.loc 2 15 35 is_stmt 1
 266              		.cfi_startproc
 267              	.LVL15:
 268 00b8 130101FF 		addi	sp,sp,-16
 269              		.cfi_def_cfa_offset 16
 270 00bc 23341100 		sd	ra,8(sp)
 271 00c0 23308100 		sd	s0,0(sp)
 272              		.cfi_offset 1, -8
 273              		.cfi_offset 8, -16
 274 00c4 13040101 		addi	s0,sp,16
 275              		.cfi_def_cfa 8, 0
  16:src/syscall_cpp.cpp **** }
 276              		.loc 2 16 2
  16:src/syscall_cpp.cpp **** }
 277              		.loc 2 16 18 is_stmt 0
 278 00c8 97000000 		call	_Z9mem_allocm@plt
 278      E7800000 
GAS LISTING /tmp/ccMEipbl.s 			page 10


 279              	.LVL16:
  17:src/syscall_cpp.cpp **** 
 280              		.loc 2 17 1
 281 00d0 83308100 		ld	ra,8(sp)
 282              		.cfi_restore 1
 283 00d4 03340100 		ld	s0,0(sp)
 284              		.cfi_restore 8
 285              		.cfi_def_cfa 2, 16
 286 00d8 13010101 		addi	sp,sp,16
 287              		.cfi_def_cfa_offset 0
 288 00dc 67800000 		jr	ra
 289              		.cfi_endproc
 290              	.LFE36:
 292              		.align	2
 293              		.globl	_ZdlPv
 295              	_ZdlPv:
 296              	.LFB37:
  21:src/syscall_cpp.cpp **** mem_free(ptr);
 297              		.loc 2 21 10 is_stmt 1
 298              		.cfi_startproc
 299              		.cfi_personality 0x9b,DW.ref.__gxx_personality_v0
 300              		.cfi_lsda 0x1b,.LLSDA37
 301              	.LVL17:
 302 00e0 130101FF 		addi	sp,sp,-16
 303              		.cfi_def_cfa_offset 16
 304 00e4 23341100 		sd	ra,8(sp)
 305 00e8 23308100 		sd	s0,0(sp)
 306              		.cfi_offset 1, -8
 307              		.cfi_offset 8, -16
 308 00ec 13040101 		addi	s0,sp,16
 309              		.cfi_def_cfa 8, 0
  22:src/syscall_cpp.cpp **** }
 310              		.loc 2 22 1
  22:src/syscall_cpp.cpp **** }
 311              		.loc 2 22 9 is_stmt 0
 312 00f0 97000000 		call	_Z8mem_freePv@plt
 312      E7800000 
 313              	.LVL18:
  23:src/syscall_cpp.cpp **** 
 314              		.loc 2 23 1
 315 00f8 83308100 		ld	ra,8(sp)
 316              		.cfi_restore 1
 317 00fc 03340100 		ld	s0,0(sp)
 318              		.cfi_restore 8
 319              		.cfi_def_cfa 2, 16
 320 0100 13010101 		addi	sp,sp,16
 321              		.cfi_def_cfa_offset 0
 322 0104 67800000 		jr	ra
 323              		.cfi_endproc
 324              	.LFE37:
 325              		.section	.gcc_except_table
 326              	.LLSDA37:
 327 0004 FF       		.byte	0xff
 328 0005 FF       		.byte	0xff
 329 0006 03       		.byte	0x3
 330 0007 00       		.byte	0
 331              		.text
GAS LISTING /tmp/ccMEipbl.s 			page 11


 333              		.align	2
 334              		.globl	_ZN6ThreadD0Ev
 336              	_ZN6ThreadD0Ev:
 337              	.LFB45:
  57:src/syscall_cpp.cpp **** 
 338              		.loc 2 57 1 is_stmt 1
 339              		.cfi_startproc
 340              	.LVL19:
 341 0108 130101FF 		addi	sp,sp,-16
 342              		.cfi_def_cfa_offset 16
 343 010c 23341100 		sd	ra,8(sp)
 344 0110 23308100 		sd	s0,0(sp)
 345              		.cfi_offset 1, -8
 346              		.cfi_offset 8, -16
 347 0114 13040101 		addi	s0,sp,16
 348              		.cfi_def_cfa 8, 0
  59:src/syscall_cpp.cpp **** 
 349              		.loc 2 59 1 is_stmt 0
 350 0118 97000000 		call	_ZdlPv
 350      E7800000 
 351              	.LVL20:
 352 0120 83308100 		ld	ra,8(sp)
 353              		.cfi_restore 1
 354 0124 03340100 		ld	s0,0(sp)
 355              		.cfi_restore 8
 356              		.cfi_def_cfa 2, 16
 357 0128 13010101 		addi	sp,sp,16
 358              		.cfi_def_cfa_offset 0
 359 012c 67800000 		jr	ra
 360              		.cfi_endproc
 361              	.LFE45:
 363              		.section	.text._ZN14PeriodicThreadD0Ev,"axG",@progbits,_ZN14PeriodicThreadD5Ev,comdat
 364              		.align	2
 365              		.weak	_ZN14PeriodicThreadD0Ev
 367              	_ZN14PeriodicThreadD0Ev:
 368              	.LFB74:
  71:src/../h/syscall_cpp.hpp **** public:
 369              		.loc 1 71 7 is_stmt 1
 370              		.cfi_startproc
 371              	.LVL21:
 372 0000 130101FF 		addi	sp,sp,-16
 373              		.cfi_def_cfa_offset 16
 374 0004 23341100 		sd	ra,8(sp)
 375 0008 23308100 		sd	s0,0(sp)
 376              		.cfi_offset 1, -8
 377              		.cfi_offset 8, -16
 378 000c 13040101 		addi	s0,sp,16
 379              		.cfi_def_cfa 8, 0
 380              	.LVL22:
 381              	.LBB43:
 382              	.LBB44:
  71:src/../h/syscall_cpp.hpp **** public:
 383              		.loc 1 71 7 is_stmt 0
 384 0010 97070000 		lla	a5,_ZTV14PeriodicThread+16
 384      93870700 
 385 0018 2330F500 		sd	a5,0(a0)
 386              	.LVL23:
GAS LISTING /tmp/ccMEipbl.s 			page 12


 387              	.LBE44:
 388              	.LBE43:
 389 001c 97000000 		call	_ZdlPv
 389      E7800000 
 390              	.LVL24:
 391 0024 83308100 		ld	ra,8(sp)
 392              		.cfi_restore 1
 393 0028 03340100 		ld	s0,0(sp)
 394              		.cfi_restore 8
 395              		.cfi_def_cfa 2, 16
 396 002c 13010101 		addi	sp,sp,16
 397              		.cfi_def_cfa_offset 0
 398 0030 67800000 		jr	ra
 399              		.cfi_endproc
 400              	.LFE74:
 402              		.text
 403              		.align	2
 404              		.globl	_ZN9SemaphoreD0Ev
 406              	_ZN9SemaphoreD0Ev:
 407              	.LFB62:
  92:src/syscall_cpp.cpp **** 	sem_close(myHandle);
 408              		.loc 2 92 1 is_stmt 1
 409              		.cfi_startproc
 410              	.LVL25:
 411 0130 130101FE 		addi	sp,sp,-32
 412              		.cfi_def_cfa_offset 32
 413 0134 233C1100 		sd	ra,24(sp)
 414 0138 23388100 		sd	s0,16(sp)
 415 013c 23349100 		sd	s1,8(sp)
 416              		.cfi_offset 1, -8
 417              		.cfi_offset 8, -16
 418              		.cfi_offset 9, -24
 419 0140 13040102 		addi	s0,sp,32
 420              		.cfi_def_cfa 8, 0
 421 0144 93040500 		mv	s1,a0
 422              		.loc 2 95 1 is_stmt 0
 423 0148 97000000 		call	_ZN9SemaphoreD1Ev
 423      E7800000 
 424              	.LVL26:
 425 0150 13850400 		mv	a0,s1
 426 0154 97000000 		call	_ZdlPv
 426      E7800000 
 427              	.LVL27:
 428 015c 83308101 		ld	ra,24(sp)
 429              		.cfi_restore 1
 430 0160 03340101 		ld	s0,16(sp)
 431              		.cfi_restore 8
 432              		.cfi_def_cfa 2, 32
 433 0164 83348100 		ld	s1,8(sp)
 434              		.cfi_restore 9
 435              	.LVL28:
 436 0168 13010102 		addi	sp,sp,32
 437              		.cfi_def_cfa_offset 0
 438 016c 67800000 		jr	ra
 439              		.cfi_endproc
 440              	.LFE62:
 442              		.align	2
GAS LISTING /tmp/ccMEipbl.s 			page 13


 443              		.globl	_ZdaPv
 445              	_ZdaPv:
 446              	.LFB38:
  27:src/syscall_cpp.cpp **** mem_free(ptr);
 447              		.loc 2 27 10 is_stmt 1
 448              		.cfi_startproc
 449              		.cfi_personality 0x9b,DW.ref.__gxx_personality_v0
 450              		.cfi_lsda 0x1b,.LLSDA38
 451              	.LVL29:
 452 0170 130101FF 		addi	sp,sp,-16
 453              		.cfi_def_cfa_offset 16
 454 0174 23341100 		sd	ra,8(sp)
 455 0178 23308100 		sd	s0,0(sp)
 456              		.cfi_offset 1, -8
 457              		.cfi_offset 8, -16
 458 017c 13040101 		addi	s0,sp,16
 459              		.cfi_def_cfa 8, 0
  28:src/syscall_cpp.cpp **** }
 460              		.loc 2 28 1
  28:src/syscall_cpp.cpp **** }
 461              		.loc 2 28 9 is_stmt 0
 462 0180 97000000 		call	_Z8mem_freePv@plt
 462      E7800000 
 463              	.LVL30:
  29:src/syscall_cpp.cpp **** 
 464              		.loc 2 29 1
 465 0188 83308100 		ld	ra,8(sp)
 466              		.cfi_restore 1
 467 018c 03340100 		ld	s0,0(sp)
 468              		.cfi_restore 8
 469              		.cfi_def_cfa 2, 16
 470 0190 13010101 		addi	sp,sp,16
 471              		.cfi_def_cfa_offset 0
 472 0194 67800000 		jr	ra
 473              		.cfi_endproc
 474              	.LFE38:
 475              		.section	.gcc_except_table
 476              	.LLSDA38:
 477 0008 FF       		.byte	0xff
 478 0009 FF       		.byte	0xff
 479 000a 03       		.byte	0x3
 480 000b 00       		.byte	0
 481              		.text
 483              		.align	2
 484              		.globl	_ZN6ThreadC2EPFvPvES0_
 486              	_ZN6ThreadC2EPFvPvES0_:
 487              	.LFB40:
  32:src/syscall_cpp.cpp **** 	this->body = body;
 488              		.loc 2 32 1 is_stmt 1
 489              		.cfi_startproc
 490              	.LVL31:
 491 0198 130101FD 		addi	sp,sp,-48
 492              		.cfi_def_cfa_offset 48
 493 019c 23341102 		sd	ra,40(sp)
 494 01a0 23308102 		sd	s0,32(sp)
 495 01a4 233C9100 		sd	s1,24(sp)
 496 01a8 23382101 		sd	s2,16(sp)
GAS LISTING /tmp/ccMEipbl.s 			page 14


 497 01ac 23343101 		sd	s3,8(sp)
 498              		.cfi_offset 1, -8
 499              		.cfi_offset 8, -16
 500              		.cfi_offset 9, -24
 501              		.cfi_offset 18, -32
 502              		.cfi_offset 19, -40
 503 01b0 13040103 		addi	s0,sp,48
 504              		.cfi_def_cfa 8, 0
 505 01b4 93040500 		mv	s1,a0
 506 01b8 13890500 		mv	s2,a1
 507 01bc 93090600 		mv	s3,a2
 508              	.LBB45:
  32:src/syscall_cpp.cpp **** 	this->body = body;
 509              		.loc 2 32 47 is_stmt 0
 510 01c0 97070000 		lla	a5,_ZTV6Thread+16
 510      93870700 
 511 01c8 2330F500 		sd	a5,0(a0)
 512              	.LBB46:
  33:src/syscall_cpp.cpp **** 	this->arg = arg;
 513              		.loc 2 33 2 is_stmt 1
  33:src/syscall_cpp.cpp **** 	this->arg = arg;
 514              		.loc 2 33 13 is_stmt 0
 515 01cc 2338B500 		sd	a1,16(a0)
  34:src/syscall_cpp.cpp **** 	//stvaranje steka ako se ne radi o main kernel niti, posto ona automatski ima stek
 516              		.loc 2 34 2 is_stmt 1
  34:src/syscall_cpp.cpp **** 	//stvaranje steka ako se ne radi o main kernel niti, posto ona automatski ima stek
 517              		.loc 2 34 12 is_stmt 0
 518 01d0 233CC500 		sd	a2,24(a0)
  36:src/syscall_cpp.cpp **** 	if (body != nullptr) {
 519              		.loc 2 36 2 is_stmt 1
 520              	.LVL32:
  37:src/syscall_cpp.cpp **** 		stack = (uint64*)mem_alloc(DEFAULT_STACK_SIZE);
 521              		.loc 2 37 2
 522 01d4 63860504 		beqz	a1,.L31
  38:src/syscall_cpp.cpp **** 	}
 523              		.loc 2 38 3
  38:src/syscall_cpp.cpp **** 	}
 524              		.loc 2 38 29 is_stmt 0
 525 01d8 37150000 		li	a0,4096
 526              	.LVL33:
 527 01dc 97000000 		call	_Z9mem_allocm@plt
 527      E7800000 
 528              	.LVL34:
 529 01e4 13030500 		mv	t1,a0
 530              	.LVL35:
 531              	.L30:
  42:src/syscall_cpp.cpp **** 	__asm__ volatile("mv a3, %[arg]": :[arg] "r"(arg):"a5", "a0", "a1", "a2", "a3", "a4", "a6", "a7");
 532              		.loc 2 42 2 is_stmt 1
  42:src/syscall_cpp.cpp **** 	__asm__ volatile("mv a3, %[arg]": :[arg] "r"(arg):"a5", "a0", "a1", "a2", "a3", "a4", "a6", "a7");
 533              		.loc 2 42 99 is_stmt 0
 534              	#APP
 535              	# 42 "src/syscall_cpp.cpp" 1
  43:src/syscall_cpp.cpp **** 	__asm__ volatile("mv a2, %[function]": :[function] "r"(
 536              		mv a4, t1
 537              	# 0 "" 2
 538              		.loc 2 43 2 is_stmt 1
  43:src/syscall_cpp.cpp **** 	__asm__ volatile("mv a2, %[function]": :[function] "r"(
GAS LISTING /tmp/ccMEipbl.s 			page 15


 539              		.loc 2 43 99 is_stmt 0
 540              	# 43 "src/syscall_cpp.cpp" 1
  44:src/syscall_cpp.cpp **** 			body):"a5", "a0", "a1", "a2", "a3", "a4", "a6", "a7");
 541              		mv a3, s3
 542              	# 0 "" 2
 543              		.loc 2 44 2 is_stmt 1
  45:src/syscall_cpp.cpp **** 	__asm__ volatile("mv a1, %[handle]": :[handle] "r"(&myHandle):"a5", "a0", "a1", "a2", "a3", "a4", 
 544              		.loc 2 45 57 is_stmt 0
 545              	# 45 "src/syscall_cpp.cpp" 1
  46:src/syscall_cpp.cpp **** 	__asm__ volatile("li a0, 0x80");
 546              		mv a2, s2
 547              	# 0 "" 2
 548              		.loc 2 46 2 is_stmt 1
  46:src/syscall_cpp.cpp **** 	__asm__ volatile("li a0, 0x80");
 549              		.loc 2 46 53 is_stmt 0
 550              	#NO_APP
 551 01f4 93848400 		addi	s1,s1,8
 552              	.LVL36:
  46:src/syscall_cpp.cpp **** 	__asm__ volatile("li a0, 0x80");
 553              		.loc 2 46 111
 554              	#APP
 555              	# 46 "src/syscall_cpp.cpp" 1
  47:src/syscall_cpp.cpp **** 	//a0 = 0x80
 556              		mv a1, s1
 557              	# 0 "" 2
 558              		.loc 2 47 2 is_stmt 1
  47:src/syscall_cpp.cpp **** 	//a0 = 0x80
 559              		.loc 2 47 33 is_stmt 0
 560              	# 47 "src/syscall_cpp.cpp" 1
  54:src/syscall_cpp.cpp **** }
 561              		li a0, 0x80
 562              	# 0 "" 2
 563              		.loc 2 54 2 is_stmt 1
  54:src/syscall_cpp.cpp **** }
 564              		.loc 2 54 27 is_stmt 0
 565              	# 54 "src/syscall_cpp.cpp" 1
 566              		ecall
 567              	# 0 "" 2
 568              	#NO_APP
 569              	.LBE46:
 570              	.LBE45:
  55:src/syscall_cpp.cpp **** 
 571              		.loc 2 55 1
 572 0204 83308102 		ld	ra,40(sp)
 573              		.cfi_remember_state
 574              		.cfi_restore 1
 575 0208 03340102 		ld	s0,32(sp)
 576              		.cfi_restore 8
 577              		.cfi_def_cfa 2, 48
 578 020c 83348101 		ld	s1,24(sp)
 579              		.cfi_restore 9
 580              	.LVL37:
 581 0210 03390101 		ld	s2,16(sp)
 582              		.cfi_restore 18
 583              	.LVL38:
 584 0214 83398100 		ld	s3,8(sp)
 585              		.cfi_restore 19
GAS LISTING /tmp/ccMEipbl.s 			page 16


 586              	.LVL39:
 587 0218 13010103 		addi	sp,sp,48
 588              		.cfi_def_cfa_offset 0
 589 021c 67800000 		jr	ra
 590              	.LVL40:
 591              	.L31:
 592              		.cfi_restore_state
 593              	.LBB48:
 594              	.LBB47:
  36:src/syscall_cpp.cpp **** 	if (body != nullptr) {
 595              		.loc 2 36 10
 596 0220 13030000 		li	t1,0
 597 0224 6FF05FFC 		j	.L30
 598              	.LBE47:
 599              	.LBE48:
 600              		.cfi_endproc
 601              	.LFE40:
 603              		.globl	_ZN6ThreadC1EPFvPvES0_
 604              		.set	_ZN6ThreadC1EPFvPvES0_,_ZN6ThreadC2EPFvPvES0_
 605              		.align	2
 606              		.globl	_ZN6Thread5startEv
 608              	_ZN6Thread5startEv:
 609              	.LFB46:
  61:src/syscall_cpp.cpp **** 	if (myHandle == nullptr) return -1;
 610              		.loc 2 61 21 is_stmt 1
 611              		.cfi_startproc
 612              	.LVL41:
 613 0228 130101FF 		addi	sp,sp,-16
 614              		.cfi_def_cfa_offset 16
 615 022c 23348100 		sd	s0,8(sp)
 616              		.cfi_offset 8, -8
 617 0230 13040101 		addi	s0,sp,16
 618              		.cfi_def_cfa 8, 0
  62:src/syscall_cpp.cpp **** 	__asm__ volatile("mv a1, %[handle]": :[handle] "r"(myHandle):"a5", "a0", "a1", "a2", "a3", "a4", "
 619              		.loc 2 62 2
  62:src/syscall_cpp.cpp **** 	__asm__ volatile("mv a1, %[handle]": :[handle] "r"(myHandle):"a5", "a0", "a1", "a2", "a3", "a4", "
 620              		.loc 2 62 6 is_stmt 0
 621 0234 03338500 		ld	t1,8(a0)
  62:src/syscall_cpp.cpp **** 	__asm__ volatile("mv a1, %[handle]": :[handle] "r"(myHandle):"a5", "a0", "a1", "a2", "a3", "a4", "
 622              		.loc 2 62 2
 623 0238 63000302 		beqz	t1,.L35
  63:src/syscall_cpp.cpp **** 	__asm__ volatile("li a0, 0x81");
 624              		.loc 2 63 2 is_stmt 1
  63:src/syscall_cpp.cpp **** 	__asm__ volatile("li a0, 0x81");
 625              		.loc 2 63 110 is_stmt 0
 626              	#APP
 627              	# 63 "src/syscall_cpp.cpp" 1
 628              		mv a1, t1
 629              	# 0 "" 2
 630              	.LVL42:
  64:src/syscall_cpp.cpp **** 
 631              		.loc 2 64 2 is_stmt 1
  64:src/syscall_cpp.cpp **** 
 632              		.loc 2 64 33 is_stmt 0
 633              	# 64 "src/syscall_cpp.cpp" 1
  66:src/syscall_cpp.cpp **** 
 634              		li a0, 0x81
GAS LISTING /tmp/ccMEipbl.s 			page 17


 635              	# 0 "" 2
 636              		.loc 2 66 2 is_stmt 1
  66:src/syscall_cpp.cpp **** 
 637              		.loc 2 66 27 is_stmt 0
 638              	# 66 "src/syscall_cpp.cpp" 1
  68:src/syscall_cpp.cpp **** }
 639              		ecall
 640              	# 0 "" 2
 641              		.loc 2 68 2 is_stmt 1
  68:src/syscall_cpp.cpp **** }
 642              		.loc 2 68 9 is_stmt 0
 643              	#NO_APP
 644 0248 13050000 		li	a0,0
 645              	.L34:
  69:src/syscall_cpp.cpp **** 
 646              		.loc 2 69 1
 647 024c 03348100 		ld	s0,8(sp)
 648              		.cfi_remember_state
 649              		.cfi_restore 8
 650              		.cfi_def_cfa 2, 16
 651 0250 13010101 		addi	sp,sp,16
 652              		.cfi_def_cfa_offset 0
 653 0254 67800000 		jr	ra
 654              	.LVL43:
 655              	.L35:
 656              		.cfi_restore_state
  62:src/syscall_cpp.cpp **** 	__asm__ volatile("mv a1, %[handle]": :[handle] "r"(myHandle):"a5", "a0", "a1", "a2", "a3", "a4", "
 657              		.loc 2 62 35
 658 0258 1305F0FF 		li	a0,-1
 659              	.LVL44:
 660 025c 6FF01FFF 		j	.L34
 661              		.cfi_endproc
 662              	.LFE46:
 664              		.align	2
 665              		.globl	_ZN6Thread4joinEv
 667              	_ZN6Thread4joinEv:
 668              	.LFB47:
  71:src/syscall_cpp.cpp **** 	thread_join(myHandle);
 669              		.loc 2 71 21 is_stmt 1
 670              		.cfi_startproc
 671              	.LVL45:
 672 0260 130101FF 		addi	sp,sp,-16
 673              		.cfi_def_cfa_offset 16
 674 0264 23341100 		sd	ra,8(sp)
 675 0268 23308100 		sd	s0,0(sp)
 676              		.cfi_offset 1, -8
 677              		.cfi_offset 8, -16
 678 026c 13040101 		addi	s0,sp,16
 679              		.cfi_def_cfa 8, 0
  72:src/syscall_cpp.cpp **** }
 680              		.loc 2 72 2
  72:src/syscall_cpp.cpp **** }
 681              		.loc 2 72 13 is_stmt 0
 682 0270 03358500 		ld	a0,8(a0)
 683              	.LVL46:
 684 0274 97000000 		call	_Z11thread_joinP3TCB@plt
 684      E7800000 
GAS LISTING /tmp/ccMEipbl.s 			page 18


 685              	.LVL47:
  73:src/syscall_cpp.cpp **** 
 686              		.loc 2 73 1
 687 027c 83308100 		ld	ra,8(sp)
 688              		.cfi_restore 1
 689 0280 03340100 		ld	s0,0(sp)
 690              		.cfi_restore 8
 691              		.cfi_def_cfa 2, 16
 692 0284 13010101 		addi	sp,sp,16
 693              		.cfi_def_cfa_offset 0
 694 0288 67800000 		jr	ra
 695              		.cfi_endproc
 696              	.LFE47:
 698              		.align	2
 699              		.globl	_ZN6Thread8dispatchEv
 701              	_ZN6Thread8dispatchEv:
 702              	.LFB48:
  75:src/syscall_cpp.cpp **** 	thread_dispatch();
 703              		.loc 2 75 25 is_stmt 1
 704              		.cfi_startproc
 705 028c 130101FF 		addi	sp,sp,-16
 706              		.cfi_def_cfa_offset 16
 707 0290 23341100 		sd	ra,8(sp)
 708 0294 23308100 		sd	s0,0(sp)
 709              		.cfi_offset 1, -8
 710              		.cfi_offset 8, -16
 711 0298 13040101 		addi	s0,sp,16
 712              		.cfi_def_cfa 8, 0
  76:src/syscall_cpp.cpp **** }
 713              		.loc 2 76 2
  76:src/syscall_cpp.cpp **** }
 714              		.loc 2 76 17 is_stmt 0
 715 029c 97000000 		call	_Z15thread_dispatchv@plt
 715      E7800000 
 716              	.LVL48:
  77:src/syscall_cpp.cpp **** 
 717              		.loc 2 77 1
 718 02a4 83308100 		ld	ra,8(sp)
 719              		.cfi_restore 1
 720 02a8 03340100 		ld	s0,0(sp)
 721              		.cfi_restore 8
 722              		.cfi_def_cfa 2, 16
 723 02ac 13010101 		addi	sp,sp,16
 724              		.cfi_def_cfa_offset 0
 725 02b0 67800000 		jr	ra
 726              		.cfi_endproc
 727              	.LFE48:
 729              		.align	2
 730              		.globl	_ZN6Thread5sleepEm
 732              	_ZN6Thread5sleepEm:
 733              	.LFB49:
  79:src/syscall_cpp.cpp **** 	Scheduler::putToSleep(TCB::running, t);
 734              		.loc 2 79 29 is_stmt 1
 735              		.cfi_startproc
 736              	.LVL49:
 737 02b4 130101FF 		addi	sp,sp,-16
 738              		.cfi_def_cfa_offset 16
GAS LISTING /tmp/ccMEipbl.s 			page 19


 739 02b8 23341100 		sd	ra,8(sp)
 740 02bc 23308100 		sd	s0,0(sp)
 741              		.cfi_offset 1, -8
 742              		.cfi_offset 8, -16
 743 02c0 13040101 		addi	s0,sp,16
 744              		.cfi_def_cfa 8, 0
 745 02c4 93050500 		mv	a1,a0
  80:src/syscall_cpp.cpp **** 	return 0;
 746              		.loc 2 80 2
  80:src/syscall_cpp.cpp **** 	return 0;
 747              		.loc 2 80 23 is_stmt 0
 748 02c8 97070000 		la	a5,_ZN3TCB7runningE
 748      83B70700 
 749 02d0 03B50700 		ld	a0,0(a5)
 750              	.LVL50:
 751 02d4 97000000 		call	_ZN9Scheduler10putToSleepEP3TCBm@plt
 751      E7800000 
 752              	.LVL51:
  81:src/syscall_cpp.cpp **** }
 753              		.loc 2 81 2 is_stmt 1
  82:src/syscall_cpp.cpp **** 
 754              		.loc 2 82 1 is_stmt 0
 755 02dc 13050000 		li	a0,0
 756 02e0 83308100 		ld	ra,8(sp)
 757              		.cfi_restore 1
 758 02e4 03340100 		ld	s0,0(sp)
 759              		.cfi_restore 8
 760              		.cfi_def_cfa 2, 16
 761 02e8 13010101 		addi	sp,sp,16
 762              		.cfi_def_cfa_offset 0
 763 02ec 67800000 		jr	ra
 764              		.cfi_endproc
 765              	.LFE49:
 767              		.align	2
 768              		.globl	_ZN6ThreadC2Ev
 770              	_ZN6ThreadC2Ev:
 771              	.LFB51:
  84:src/syscall_cpp.cpp **** 
 772              		.loc 2 84 1 is_stmt 1
 773              		.cfi_startproc
 774              	.LVL52:
 775 02f0 130101FF 		addi	sp,sp,-16
 776              		.cfi_def_cfa_offset 16
 777 02f4 23348100 		sd	s0,8(sp)
 778              		.cfi_offset 8, -8
 779 02f8 13040101 		addi	s0,sp,16
 780              		.cfi_def_cfa 8, 0
 781              	.LBB49:
  84:src/syscall_cpp.cpp **** 
 782              		.loc 2 84 16 is_stmt 0
 783 02fc 97070000 		lla	a5,_ZTV6Thread+16
 783      93870700 
 784 0304 2330F500 		sd	a5,0(a0)
 785              	.LBE49:
  86:src/syscall_cpp.cpp **** 
 786              		.loc 2 86 1
 787 0308 03348100 		ld	s0,8(sp)
GAS LISTING /tmp/ccMEipbl.s 			page 20


 788              		.cfi_restore 8
 789              		.cfi_def_cfa 2, 16
 790 030c 13010101 		addi	sp,sp,16
 791              		.cfi_def_cfa_offset 0
 792 0310 67800000 		jr	ra
 793              		.cfi_endproc
 794              	.LFE51:
 796              		.globl	_ZN6ThreadC1Ev
 797              		.set	_ZN6ThreadC1Ev,_ZN6ThreadC2Ev
 798              		.align	2
 799              		.globl	_ZN9SemaphoreC2Ej
 801              	_ZN9SemaphoreC2Ej:
 802              	.LFB54:
  88:src/syscall_cpp.cpp **** 	sem_open(&myHandle, init);
 803              		.loc 2 88 1 is_stmt 1
 804              		.cfi_startproc
 805              	.LVL53:
 806 0314 130101FF 		addi	sp,sp,-16
 807              		.cfi_def_cfa_offset 16
 808 0318 23341100 		sd	ra,8(sp)
 809 031c 23308100 		sd	s0,0(sp)
 810              		.cfi_offset 1, -8
 811              		.cfi_offset 8, -16
 812 0320 13040101 		addi	s0,sp,16
 813              		.cfi_def_cfa 8, 0
 814              	.LBB50:
  88:src/syscall_cpp.cpp **** 	sem_open(&myHandle, init);
 815              		.loc 2 88 39 is_stmt 0
 816 0324 97070000 		lla	a5,_ZTV9Semaphore+16
 816      93870700 
 817 032c 2330F500 		sd	a5,0(a0)
  89:src/syscall_cpp.cpp **** }
 818              		.loc 2 89 2 is_stmt 1
  89:src/syscall_cpp.cpp **** }
 819              		.loc 2 89 10 is_stmt 0
 820 0330 13058500 		addi	a0,a0,8
 821              	.LVL54:
 822 0334 97000000 		call	_Z8sem_openPP4KSemj@plt
 822      E7800000 
 823              	.LVL55:
 824              	.LBE50:
  90:src/syscall_cpp.cpp **** 
 825              		.loc 2 90 1
 826 033c 83308100 		ld	ra,8(sp)
 827              		.cfi_restore 1
 828 0340 03340100 		ld	s0,0(sp)
 829              		.cfi_restore 8
 830              		.cfi_def_cfa 2, 16
 831 0344 13010101 		addi	sp,sp,16
 832              		.cfi_def_cfa_offset 0
 833 0348 67800000 		jr	ra
 834              		.cfi_endproc
 835              	.LFE54:
 837              		.globl	_ZN9SemaphoreC1Ej
 838              		.set	_ZN9SemaphoreC1Ej,_ZN9SemaphoreC2Ej
 839              		.align	2
 840              		.globl	_ZN9Semaphore4waitEv
GAS LISTING /tmp/ccMEipbl.s 			page 21


 842              	_ZN9Semaphore4waitEv:
 843              	.LFB63:
  96:src/syscall_cpp.cpp **** 
  97:src/syscall_cpp.cpp **** int Semaphore::wait() {
 844              		.loc 2 97 23 is_stmt 1
 845              		.cfi_startproc
 846              	.LVL56:
 847 034c 130101FF 		addi	sp,sp,-16
 848              		.cfi_def_cfa_offset 16
 849 0350 23341100 		sd	ra,8(sp)
 850 0354 23308100 		sd	s0,0(sp)
 851              		.cfi_offset 1, -8
 852              		.cfi_offset 8, -16
 853 0358 13040101 		addi	s0,sp,16
 854              		.cfi_def_cfa 8, 0
  98:src/syscall_cpp.cpp **** 	return sem_wait(myHandle);
 855              		.loc 2 98 2
 856              		.loc 2 98 17 is_stmt 0
 857 035c 03358500 		ld	a0,8(a0)
 858              	.LVL57:
 859 0360 97000000 		call	_Z8sem_waitP4KSem@plt
 859      E7800000 
 860              	.LVL58:
  99:src/syscall_cpp.cpp **** }
 861              		.loc 2 99 1
 862 0368 83308100 		ld	ra,8(sp)
 863              		.cfi_restore 1
 864 036c 03340100 		ld	s0,0(sp)
 865              		.cfi_restore 8
 866              		.cfi_def_cfa 2, 16
 867 0370 13010101 		addi	sp,sp,16
 868              		.cfi_def_cfa_offset 0
 869 0374 67800000 		jr	ra
 870              		.cfi_endproc
 871              	.LFE63:
 873              		.align	2
 874              		.globl	_ZN9Semaphore6signalEv
 876              	_ZN9Semaphore6signalEv:
 877              	.LFB64:
 100:src/syscall_cpp.cpp **** 
 101:src/syscall_cpp.cpp **** int Semaphore::signal() {
 878              		.loc 2 101 25 is_stmt 1
 879              		.cfi_startproc
 880              	.LVL59:
 881 0378 130101FF 		addi	sp,sp,-16
 882              		.cfi_def_cfa_offset 16
 883 037c 23341100 		sd	ra,8(sp)
 884 0380 23308100 		sd	s0,0(sp)
 885              		.cfi_offset 1, -8
 886              		.cfi_offset 8, -16
 887 0384 13040101 		addi	s0,sp,16
 888              		.cfi_def_cfa 8, 0
 102:src/syscall_cpp.cpp **** 	return sem_signal(myHandle);
 889              		.loc 2 102 2
 890              		.loc 2 102 19 is_stmt 0
 891 0388 03358500 		ld	a0,8(a0)
 892              	.LVL60:
GAS LISTING /tmp/ccMEipbl.s 			page 22


 893 038c 97000000 		call	_Z10sem_signalP4KSem@plt
 893      E7800000 
 894              	.LVL61:
 103:src/syscall_cpp.cpp **** }
 895              		.loc 2 103 1
 896 0394 83308100 		ld	ra,8(sp)
 897              		.cfi_restore 1
 898 0398 03340100 		ld	s0,0(sp)
 899              		.cfi_restore 8
 900              		.cfi_def_cfa 2, 16
 901 039c 13010101 		addi	sp,sp,16
 902              		.cfi_def_cfa_offset 0
 903 03a0 67800000 		jr	ra
 904              		.cfi_endproc
 905              	.LFE64:
 907              		.align	2
 908              		.globl	_ZN14PeriodicThread9terminateEv
 910              	_ZN14PeriodicThread9terminateEv:
 911              	.LFB65:
 104:src/syscall_cpp.cpp **** 
 105:src/syscall_cpp.cpp **** void PeriodicThread::terminate() {
 912              		.loc 2 105 34 is_stmt 1
 913              		.cfi_startproc
 914              	.LVL62:
 915 03a4 130101FF 		addi	sp,sp,-16
 916              		.cfi_def_cfa_offset 16
 917 03a8 23348100 		sd	s0,8(sp)
 918              		.cfi_offset 8, -8
 919 03ac 13040101 		addi	s0,sp,16
 920              		.cfi_def_cfa 8, 0
 106:src/syscall_cpp.cpp **** 
 107:src/syscall_cpp.cpp **** }
 921              		.loc 2 107 1 is_stmt 0
 922 03b0 03348100 		ld	s0,8(sp)
 923              		.cfi_restore 8
 924              		.cfi_def_cfa 2, 16
 925 03b4 13010101 		addi	sp,sp,16
 926              		.cfi_def_cfa_offset 0
 927 03b8 67800000 		jr	ra
 928              		.cfi_endproc
 929              	.LFE65:
 931              		.align	2
 932              		.globl	_ZN14PeriodicThreadC2Em
 934              	_ZN14PeriodicThreadC2Em:
 935              	.LFB67:
 108:src/syscall_cpp.cpp **** 
 109:src/syscall_cpp.cpp **** PeriodicThread::PeriodicThread(time_t period) {
 936              		.loc 2 109 1 is_stmt 1
 937              		.cfi_startproc
 938              	.LVL63:
 939 03bc 130101FE 		addi	sp,sp,-32
 940              		.cfi_def_cfa_offset 32
 941 03c0 233C1100 		sd	ra,24(sp)
 942 03c4 23388100 		sd	s0,16(sp)
 943 03c8 23349100 		sd	s1,8(sp)
 944              		.cfi_offset 1, -8
 945              		.cfi_offset 8, -16
GAS LISTING /tmp/ccMEipbl.s 			page 23


 946              		.cfi_offset 9, -24
 947 03cc 13040102 		addi	s0,sp,32
 948              		.cfi_def_cfa 8, 0
 949 03d0 93040500 		mv	s1,a0
 950              	.LBB51:
 951              		.loc 2 109 45 is_stmt 0
 952 03d4 97000000 		call	_ZN6ThreadC2Ev
 952      E7800000 
 953              	.LVL64:
 954 03dc 97070000 		lla	a5,_ZTV14PeriodicThread+16
 954      93870700 
 955 03e4 23B0F400 		sd	a5,0(s1)
 956              	.LBE51:
 110:src/syscall_cpp.cpp **** 
 111:src/syscall_cpp.cpp **** }
 957              		.loc 2 111 1
 958 03e8 83308101 		ld	ra,24(sp)
 959              		.cfi_restore 1
 960 03ec 03340101 		ld	s0,16(sp)
 961              		.cfi_restore 8
 962              		.cfi_def_cfa 2, 32
 963 03f0 83348100 		ld	s1,8(sp)
 964              		.cfi_restore 9
 965              	.LVL65:
 966 03f4 13010102 		addi	sp,sp,32
 967              		.cfi_def_cfa_offset 0
 968 03f8 67800000 		jr	ra
 969              		.cfi_endproc
 970              	.LFE67:
 972              		.globl	_ZN14PeriodicThreadC1Em
 973              		.set	_ZN14PeriodicThreadC1Em,_ZN14PeriodicThreadC2Em
 974              		.align	2
 975              		.globl	_ZN7Console4getcEv
 977              	_ZN7Console4getcEv:
 978              	.LFB69:
 112:src/syscall_cpp.cpp **** 
 113:src/syscall_cpp.cpp **** char Console::getc() {
 979              		.loc 2 113 22 is_stmt 1
 980              		.cfi_startproc
 981 03fc 130101FF 		addi	sp,sp,-16
 982              		.cfi_def_cfa_offset 16
 983 0400 23348100 		sd	s0,8(sp)
 984              		.cfi_offset 8, -8
 985 0404 13040101 		addi	s0,sp,16
 986              		.cfi_def_cfa 8, 0
 114:src/syscall_cpp.cpp **** 	return 0;
 987              		.loc 2 114 2
 115:src/syscall_cpp.cpp **** }
 988              		.loc 2 115 1 is_stmt 0
 989 0408 13050000 		li	a0,0
 990 040c 03348100 		ld	s0,8(sp)
 991              		.cfi_restore 8
 992              		.cfi_def_cfa 2, 16
 993 0410 13010101 		addi	sp,sp,16
 994              		.cfi_def_cfa_offset 0
 995 0414 67800000 		jr	ra
 996              		.cfi_endproc
GAS LISTING /tmp/ccMEipbl.s 			page 24


 997              	.LFE69:
 999              		.align	2
 1000              		.globl	_ZN7Console4putcEc
 1002              	_ZN7Console4putcEc:
 1003              	.LFB70:
 116:src/syscall_cpp.cpp **** 
 117:src/syscall_cpp.cpp **** void Console::putc(char) {
 1004              		.loc 2 117 26 is_stmt 1
 1005              		.cfi_startproc
 1006 0418 130101FF 		addi	sp,sp,-16
 1007              		.cfi_def_cfa_offset 16
 1008 041c 23348100 		sd	s0,8(sp)
 1009              		.cfi_offset 8, -8
 1010 0420 13040101 		addi	s0,sp,16
 1011              		.cfi_def_cfa 8, 0
 118:src/syscall_cpp.cpp **** 
 119:src/syscall_cpp.cpp **** }
 1012              		.loc 2 119 1 is_stmt 0
 1013 0424 03348100 		ld	s0,8(sp)
 1014              		.cfi_restore 8
 1015              		.cfi_def_cfa 2, 16
 1016 0428 13010101 		addi	sp,sp,16
 1017              		.cfi_def_cfa_offset 0
 1018 042c 67800000 		jr	ra
 1019              		.cfi_endproc
 1020              	.LFE70:
 1022              		.weak	_ZTV14PeriodicThread
 1023              		.section	.data.rel.ro.local._ZTV14PeriodicThread,"awG",@progbits,_ZTV14PeriodicThread,comdat
 1024              		.align	3
 1027              	_ZTV14PeriodicThread:
 1028 0000 00000000 		.dword	0
 1028      00000000 
 1029 0008 00000000 		.dword	0
 1029      00000000 
 1030 0010 00000000 		.dword	_ZN14PeriodicThreadD1Ev
 1030      00000000 
 1031 0018 00000000 		.dword	_ZN14PeriodicThreadD0Ev
 1031      00000000 
 1032 0020 00000000 		.dword	_ZN6Thread3runEv
 1032      00000000 
 1033 0028 00000000 		.dword	_ZN14PeriodicThread18periodicActivationEv
 1033      00000000 
 1034              		.weak	_ZTV6Thread
 1035              		.section	.data.rel.ro.local._ZTV6Thread,"awG",@progbits,_ZTV6Thread,comdat
 1036              		.align	3
 1039              	_ZTV6Thread:
 1040 0000 00000000 		.dword	0
 1040      00000000 
 1041 0008 00000000 		.dword	0
 1041      00000000 
 1042 0010 00000000 		.dword	_ZN6ThreadD1Ev
 1042      00000000 
 1043 0018 00000000 		.dword	_ZN6ThreadD0Ev
 1043      00000000 
 1044 0020 00000000 		.dword	_ZN6Thread3runEv
 1044      00000000 
 1045              		.weak	_ZTV9Semaphore
GAS LISTING /tmp/ccMEipbl.s 			page 25


 1046              		.section	.data.rel.ro.local._ZTV9Semaphore,"awG",@progbits,_ZTV9Semaphore,comdat
 1047              		.align	3
 1050              	_ZTV9Semaphore:
 1051 0000 00000000 		.dword	0
 1051      00000000 
 1052 0008 00000000 		.dword	0
 1052      00000000 
 1053 0010 00000000 		.dword	_ZN9SemaphoreD1Ev
 1053      00000000 
 1054 0018 00000000 		.dword	_ZN9SemaphoreD0Ev
 1054      00000000 
 1055              		.text
 1056              	.Letext0:
 1057              		.file 4 "src/../h/../lib/hw.h"
 1058              		.file 5 "src/../h/TCB.hpp"
 1059              		.file 6 "src/../h/KSem.hpp"
 1060              		.file 7 "src/../h/Scheduler.hpp"
 1061              		.file 8 "src/../h/syscall_c.hpp"
 5663              		.align	3
 5666              	DW.ref.__gxx_personality_v0:
 5667 0000 00000000 		.dword	__gxx_personality_v0
 5667      00000000 
 5668              		.ident	"GCC: (Ubuntu 9.4.0-1ubuntu1~20.04) 9.4.0"
 5669              		.section	.note.GNU-stack,"",@progbits
GAS LISTING /tmp/ccMEipbl.s 			page 26


DEFINED SYMBOLS
                            *ABS*:0000000000000000 syscall_cpp.cpp
     /tmp/ccMEipbl.s:10     .text._ZN6Thread3runEv:0000000000000000 _ZN6Thread3runEv
     /tmp/ccMEipbl.s:14     .text._ZN6Thread3runEv:0000000000000000 .L0 
     /tmp/ccMEipbl.s:16     .text._ZN6Thread3runEv:0000000000000000 .L0 
     /tmp/ccMEipbl.s:17     .text._ZN6Thread3runEv:0000000000000004 .L0 
     /tmp/ccMEipbl.s:19     .text._ZN6Thread3runEv:0000000000000008 .L0 
     /tmp/ccMEipbl.s:21     .text._ZN6Thread3runEv:000000000000000c .L0 
     /tmp/ccMEipbl.s:23     .text._ZN6Thread3runEv:000000000000000c .L0 
     /tmp/ccMEipbl.s:24     .text._ZN6Thread3runEv:0000000000000010 .L0 
     /tmp/ccMEipbl.s:25     .text._ZN6Thread3runEv:0000000000000010 .L0 
     /tmp/ccMEipbl.s:27     .text._ZN6Thread3runEv:0000000000000014 .L0 
     /tmp/ccMEipbl.s:29     .text._ZN6Thread3runEv:0000000000000018 .L0 
     /tmp/ccMEipbl.s:36     .text._ZN14PeriodicThread18periodicActivationEv:0000000000000000 _ZN14PeriodicThread18periodicActivationEv
     /tmp/ccMEipbl.s:39     .text._ZN14PeriodicThread18periodicActivationEv:0000000000000000 .L0 
     /tmp/ccMEipbl.s:41     .text._ZN14PeriodicThread18periodicActivationEv:0000000000000000 .L0 
     /tmp/ccMEipbl.s:42     .text._ZN14PeriodicThread18periodicActivationEv:0000000000000004 .L0 
     /tmp/ccMEipbl.s:44     .text._ZN14PeriodicThread18periodicActivationEv:0000000000000008 .L0 
     /tmp/ccMEipbl.s:46     .text._ZN14PeriodicThread18periodicActivationEv:000000000000000c .L0 
     /tmp/ccMEipbl.s:48     .text._ZN14PeriodicThread18periodicActivationEv:000000000000000c .L0 
     /tmp/ccMEipbl.s:49     .text._ZN14PeriodicThread18periodicActivationEv:0000000000000010 .L0 
     /tmp/ccMEipbl.s:50     .text._ZN14PeriodicThread18periodicActivationEv:0000000000000010 .L0 
     /tmp/ccMEipbl.s:52     .text._ZN14PeriodicThread18periodicActivationEv:0000000000000014 .L0 
     /tmp/ccMEipbl.s:54     .text._ZN14PeriodicThread18periodicActivationEv:0000000000000018 .L0 
     /tmp/ccMEipbl.s:61     .text:0000000000000000 _ZN6ThreadD2Ev
     /tmp/ccMEipbl.s:65     .text:0000000000000000 .L0 
     /tmp/ccMEipbl.s:67     .text:0000000000000000 .L0 
     /tmp/ccMEipbl.s:68     .text:0000000000000004 .L0 
     /tmp/ccMEipbl.s:70     .text:0000000000000008 .L0 
     /tmp/ccMEipbl.s:72     .text:000000000000000c .L0 
     /tmp/ccMEipbl.s:74     .text:000000000000000c .L0 
     /tmp/ccMEipbl.s:75     .text:0000000000000010 .L0 
     /tmp/ccMEipbl.s:76     .text:0000000000000010 .L0 
     /tmp/ccMEipbl.s:78     .text:0000000000000014 .L0 
     /tmp/ccMEipbl.s:80     .text:0000000000000018 .L0 
     /tmp/ccMEipbl.s:61     .text:0000000000000000 _ZN6ThreadD1Ev
     /tmp/ccMEipbl.s:89     .text._ZN14PeriodicThreadD2Ev:0000000000000000 _ZN14PeriodicThreadD2Ev
     /tmp/ccMEipbl.s:92     .text._ZN14PeriodicThreadD2Ev:0000000000000000 .L0 
     /tmp/ccMEipbl.s:94     .text._ZN14PeriodicThreadD2Ev:0000000000000000 .L0 
     /tmp/ccMEipbl.s:95     .text._ZN14PeriodicThreadD2Ev:0000000000000004 .L0 
     /tmp/ccMEipbl.s:97     .text._ZN14PeriodicThreadD2Ev:0000000000000008 .L0 
     /tmp/ccMEipbl.s:99     .text._ZN14PeriodicThreadD2Ev:000000000000000c .L0 
     /tmp/ccMEipbl.s:1027   .data.rel.ro.local._ZTV14PeriodicThread:0000000000000000 _ZTV14PeriodicThread
     /tmp/ccMEipbl.s:102    .text._ZN14PeriodicThreadD2Ev:000000000000000c .L0 
     /tmp/ccMEipbl.s:106    .text._ZN14PeriodicThreadD2Ev:000000000000001c .L0 
     /tmp/ccMEipbl.s:107    .text._ZN14PeriodicThreadD2Ev:000000000000001c .L0 
     /tmp/ccMEipbl.s:109    .text._ZN14PeriodicThreadD2Ev:0000000000000020 .L0 
     /tmp/ccMEipbl.s:111    .text._ZN14PeriodicThreadD2Ev:0000000000000024 .L0 
     /tmp/ccMEipbl.s:89     .text._ZN14PeriodicThreadD2Ev:0000000000000000 _ZN14PeriodicThreadD1Ev
     /tmp/ccMEipbl.s:120    .text:0000000000000018 _ZN9SemaphoreD2Ev
     /tmp/ccMEipbl.s:123    .text:0000000000000018 .L0 
     /tmp/ccMEipbl.s:5666   .data.rel.local.DW.ref.__gxx_personality_v0:0000000000000000 DW.ref.__gxx_personality_v0
     /tmp/ccMEipbl.s:127    .text:0000000000000018 .L0 
     /tmp/ccMEipbl.s:128    .text:000000000000001c .L0 
     /tmp/ccMEipbl.s:132    .text:0000000000000028 .L0 
     /tmp/ccMEipbl.s:133    .text:0000000000000028 .L0 
     /tmp/ccMEipbl.s:134    .text:0000000000000028 .L0 
GAS LISTING /tmp/ccMEipbl.s 			page 27


     /tmp/ccMEipbl.s:136    .text:000000000000002c .L0 
     /tmp/ccMEipbl.s:1050   .data.rel.ro.local._ZTV9Semaphore:0000000000000000 _ZTV9Semaphore
     /tmp/ccMEipbl.s:140    .text:0000000000000030 .L0 
     /tmp/ccMEipbl.s:143    .text:000000000000003c .L0 
     /tmp/ccMEipbl.s:144    .text:000000000000003c .L0 
     /tmp/ccMEipbl.s:149    .text:0000000000000048 .L0 
     /tmp/ccMEipbl.s:150    .text:0000000000000048 .L0 
     /tmp/ccMEipbl.s:153    .text:000000000000004c .L0 
     /tmp/ccMEipbl.s:160    .text:0000000000000050 .L0 
     /tmp/ccMEipbl.s:164    .text:0000000000000050 .L0 
     /tmp/ccMEipbl.s:165    .text:0000000000000050 .L0 
     /tmp/ccMEipbl.s:166    .text:0000000000000050 .L0 
     /tmp/ccMEipbl.s:170    .text:0000000000000054 .L0 
     /tmp/ccMEipbl.s:174    .text:0000000000000058 .L0 
     /tmp/ccMEipbl.s:175    .text:0000000000000058 .L0 
     /tmp/ccMEipbl.s:176    .text:0000000000000058 .L0 
     /tmp/ccMEipbl.s:178    .text:000000000000005c .L0 
     /tmp/ccMEipbl.s:180    .text:0000000000000060 .L0 
     /tmp/ccMEipbl.s:181    .text:0000000000000060 .L0 
     /tmp/ccMEipbl.s:186    .text:0000000000000064 .L0 
     /tmp/ccMEipbl.s:187    .text:0000000000000064 .L0 
     /tmp/ccMEipbl.s:190    .text:000000000000006c .L0 
     /tmp/ccMEipbl.s:199    .text:0000000000000070 .L0 
     /tmp/ccMEipbl.s:205    .text:000000000000007c .L0 
     /tmp/ccMEipbl.s:206    .text:0000000000000080 .L0 
     /tmp/ccMEipbl.s:208    .text:0000000000000084 .L0 
     /tmp/ccMEipbl.s:209    .text:0000000000000084 .L0 
     /tmp/ccMEipbl.s:211    .text:0000000000000088 .L0 
     /tmp/ccMEipbl.s:213    .text:000000000000008c .L0 
     /tmp/ccMEipbl.s:215    .text:0000000000000090 .L0 
     /tmp/ccMEipbl.s:120    .text:0000000000000018 _ZN9SemaphoreD1Ev
     /tmp/ccMEipbl.s:231    .text:0000000000000090 _Znwm
     /tmp/ccMEipbl.s:234    .text:0000000000000090 .L0 
     /tmp/ccMEipbl.s:236    .text:0000000000000090 .L0 
     /tmp/ccMEipbl.s:237    .text:0000000000000094 .L0 
     /tmp/ccMEipbl.s:240    .text:000000000000009c .L0 
     /tmp/ccMEipbl.s:241    .text:000000000000009c .L0 
     /tmp/ccMEipbl.s:243    .text:00000000000000a0 .L0 
     /tmp/ccMEipbl.s:245    .text:00000000000000a0 .L0 
     /tmp/ccMEipbl.s:246    .text:00000000000000a0 .L0 
     /tmp/ccMEipbl.s:249    .text:00000000000000a8 .L0 
     /tmp/ccMEipbl.s:250    .text:00000000000000ac .L0 
     /tmp/ccMEipbl.s:252    .text:00000000000000b0 .L0 
     /tmp/ccMEipbl.s:253    .text:00000000000000b0 .L0 
     /tmp/ccMEipbl.s:255    .text:00000000000000b4 .L0 
     /tmp/ccMEipbl.s:257    .text:00000000000000b8 .L0 
     /tmp/ccMEipbl.s:263    .text:00000000000000b8 _Znam
     /tmp/ccMEipbl.s:266    .text:00000000000000b8 .L0 
     /tmp/ccMEipbl.s:268    .text:00000000000000b8 .L0 
     /tmp/ccMEipbl.s:269    .text:00000000000000bc .L0 
     /tmp/ccMEipbl.s:272    .text:00000000000000c4 .L0 
     /tmp/ccMEipbl.s:273    .text:00000000000000c4 .L0 
     /tmp/ccMEipbl.s:275    .text:00000000000000c8 .L0 
     /tmp/ccMEipbl.s:277    .text:00000000000000c8 .L0 
     /tmp/ccMEipbl.s:278    .text:00000000000000c8 .L0 
     /tmp/ccMEipbl.s:281    .text:00000000000000d0 .L0 
     /tmp/ccMEipbl.s:282    .text:00000000000000d4 .L0 
GAS LISTING /tmp/ccMEipbl.s 			page 28


     /tmp/ccMEipbl.s:284    .text:00000000000000d8 .L0 
     /tmp/ccMEipbl.s:285    .text:00000000000000d8 .L0 
     /tmp/ccMEipbl.s:287    .text:00000000000000dc .L0 
     /tmp/ccMEipbl.s:289    .text:00000000000000e0 .L0 
     /tmp/ccMEipbl.s:295    .text:00000000000000e0 _ZdlPv
     /tmp/ccMEipbl.s:298    .text:00000000000000e0 .L0 
     /tmp/ccMEipbl.s:302    .text:00000000000000e0 .L0 
     /tmp/ccMEipbl.s:303    .text:00000000000000e4 .L0 
     /tmp/ccMEipbl.s:306    .text:00000000000000ec .L0 
     /tmp/ccMEipbl.s:307    .text:00000000000000ec .L0 
     /tmp/ccMEipbl.s:309    .text:00000000000000f0 .L0 
     /tmp/ccMEipbl.s:311    .text:00000000000000f0 .L0 
     /tmp/ccMEipbl.s:312    .text:00000000000000f0 .L0 
     /tmp/ccMEipbl.s:315    .text:00000000000000f8 .L0 
     /tmp/ccMEipbl.s:316    .text:00000000000000fc .L0 
     /tmp/ccMEipbl.s:318    .text:0000000000000100 .L0 
     /tmp/ccMEipbl.s:319    .text:0000000000000100 .L0 
     /tmp/ccMEipbl.s:321    .text:0000000000000104 .L0 
     /tmp/ccMEipbl.s:323    .text:0000000000000108 .L0 
     /tmp/ccMEipbl.s:336    .text:0000000000000108 _ZN6ThreadD0Ev
     /tmp/ccMEipbl.s:339    .text:0000000000000108 .L0 
     /tmp/ccMEipbl.s:341    .text:0000000000000108 .L0 
     /tmp/ccMEipbl.s:342    .text:000000000000010c .L0 
     /tmp/ccMEipbl.s:345    .text:0000000000000114 .L0 
     /tmp/ccMEipbl.s:346    .text:0000000000000114 .L0 
     /tmp/ccMEipbl.s:348    .text:0000000000000118 .L0 
     /tmp/ccMEipbl.s:350    .text:0000000000000118 .L0 
     /tmp/ccMEipbl.s:353    .text:0000000000000124 .L0 
     /tmp/ccMEipbl.s:355    .text:0000000000000128 .L0 
     /tmp/ccMEipbl.s:356    .text:0000000000000128 .L0 
     /tmp/ccMEipbl.s:358    .text:000000000000012c .L0 
     /tmp/ccMEipbl.s:360    .text:0000000000000130 .L0 
     /tmp/ccMEipbl.s:367    .text._ZN14PeriodicThreadD0Ev:0000000000000000 _ZN14PeriodicThreadD0Ev
     /tmp/ccMEipbl.s:370    .text._ZN14PeriodicThreadD0Ev:0000000000000000 .L0 
     /tmp/ccMEipbl.s:372    .text._ZN14PeriodicThreadD0Ev:0000000000000000 .L0 
     /tmp/ccMEipbl.s:373    .text._ZN14PeriodicThreadD0Ev:0000000000000004 .L0 
     /tmp/ccMEipbl.s:376    .text._ZN14PeriodicThreadD0Ev:000000000000000c .L0 
     /tmp/ccMEipbl.s:377    .text._ZN14PeriodicThreadD0Ev:000000000000000c .L0 
     /tmp/ccMEipbl.s:379    .text._ZN14PeriodicThreadD0Ev:0000000000000010 .L0 
     /tmp/ccMEipbl.s:384    .text._ZN14PeriodicThreadD0Ev:0000000000000010 .L0 
     /tmp/ccMEipbl.s:392    .text._ZN14PeriodicThreadD0Ev:0000000000000028 .L0 
     /tmp/ccMEipbl.s:394    .text._ZN14PeriodicThreadD0Ev:000000000000002c .L0 
     /tmp/ccMEipbl.s:395    .text._ZN14PeriodicThreadD0Ev:000000000000002c .L0 
     /tmp/ccMEipbl.s:397    .text._ZN14PeriodicThreadD0Ev:0000000000000030 .L0 
     /tmp/ccMEipbl.s:399    .text._ZN14PeriodicThreadD0Ev:0000000000000034 .L0 
     /tmp/ccMEipbl.s:406    .text:0000000000000130 _ZN9SemaphoreD0Ev
     /tmp/ccMEipbl.s:409    .text:0000000000000130 .L0 
     /tmp/ccMEipbl.s:411    .text:0000000000000130 .L0 
     /tmp/ccMEipbl.s:412    .text:0000000000000134 .L0 
     /tmp/ccMEipbl.s:416    .text:0000000000000140 .L0 
     /tmp/ccMEipbl.s:417    .text:0000000000000140 .L0 
     /tmp/ccMEipbl.s:418    .text:0000000000000140 .L0 
     /tmp/ccMEipbl.s:420    .text:0000000000000144 .L0 
     /tmp/ccMEipbl.s:423    .text:0000000000000148 .L0 
     /tmp/ccMEipbl.s:429    .text:0000000000000160 .L0 
     /tmp/ccMEipbl.s:431    .text:0000000000000164 .L0 
     /tmp/ccMEipbl.s:432    .text:0000000000000164 .L0 
GAS LISTING /tmp/ccMEipbl.s 			page 29


     /tmp/ccMEipbl.s:434    .text:0000000000000168 .L0 
     /tmp/ccMEipbl.s:437    .text:000000000000016c .L0 
     /tmp/ccMEipbl.s:439    .text:0000000000000170 .L0 
     /tmp/ccMEipbl.s:445    .text:0000000000000170 _ZdaPv
     /tmp/ccMEipbl.s:448    .text:0000000000000170 .L0 
     /tmp/ccMEipbl.s:452    .text:0000000000000170 .L0 
     /tmp/ccMEipbl.s:453    .text:0000000000000174 .L0 
     /tmp/ccMEipbl.s:456    .text:000000000000017c .L0 
     /tmp/ccMEipbl.s:457    .text:000000000000017c .L0 
     /tmp/ccMEipbl.s:459    .text:0000000000000180 .L0 
     /tmp/ccMEipbl.s:461    .text:0000000000000180 .L0 
     /tmp/ccMEipbl.s:462    .text:0000000000000180 .L0 
     /tmp/ccMEipbl.s:465    .text:0000000000000188 .L0 
     /tmp/ccMEipbl.s:466    .text:000000000000018c .L0 
     /tmp/ccMEipbl.s:468    .text:0000000000000190 .L0 
     /tmp/ccMEipbl.s:469    .text:0000000000000190 .L0 
     /tmp/ccMEipbl.s:471    .text:0000000000000194 .L0 
     /tmp/ccMEipbl.s:473    .text:0000000000000198 .L0 
     /tmp/ccMEipbl.s:486    .text:0000000000000198 _ZN6ThreadC2EPFvPvES0_
     /tmp/ccMEipbl.s:489    .text:0000000000000198 .L0 
     /tmp/ccMEipbl.s:491    .text:0000000000000198 .L0 
     /tmp/ccMEipbl.s:492    .text:000000000000019c .L0 
     /tmp/ccMEipbl.s:498    .text:00000000000001b0 .L0 
     /tmp/ccMEipbl.s:499    .text:00000000000001b0 .L0 
     /tmp/ccMEipbl.s:500    .text:00000000000001b0 .L0 
     /tmp/ccMEipbl.s:501    .text:00000000000001b0 .L0 
     /tmp/ccMEipbl.s:502    .text:00000000000001b0 .L0 
     /tmp/ccMEipbl.s:504    .text:00000000000001b4 .L0 
     /tmp/ccMEipbl.s:1039   .data.rel.ro.local._ZTV6Thread:0000000000000000 _ZTV6Thread
     /tmp/ccMEipbl.s:510    .text:00000000000001c0 .L0 
     /tmp/ccMEipbl.s:514    .text:00000000000001cc .L0 
     /tmp/ccMEipbl.s:515    .text:00000000000001cc .L0 
     /tmp/ccMEipbl.s:517    .text:00000000000001d0 .L0 
     /tmp/ccMEipbl.s:518    .text:00000000000001d0 .L0 
     /tmp/ccMEipbl.s:521    .text:00000000000001d4 .L0 
     /tmp/ccMEipbl.s:522    .text:00000000000001d4 .L0 
     /tmp/ccMEipbl.s:524    .text:00000000000001d8 .L0 
     /tmp/ccMEipbl.s:525    .text:00000000000001d8 .L0 
     /tmp/ccMEipbl.s:533    .text:00000000000001e8 .L0 
 src/syscall_cpp.cpp:42     .text:00000000000001e8 .L0 
     /tmp/ccMEipbl.s:539    .text:00000000000001ec .L0 
 src/syscall_cpp.cpp:43     .text:00000000000001ec .L0 
     /tmp/ccMEipbl.s:544    .text:00000000000001f0 .L0 
 src/syscall_cpp.cpp:45     .text:00000000000001f0 .L0 
     /tmp/ccMEipbl.s:549    .text:00000000000001f4 .L0 
     /tmp/ccMEipbl.s:551    .text:00000000000001f4 .L0 
 src/syscall_cpp.cpp:46     .text:00000000000001f8 .L0 
     /tmp/ccMEipbl.s:559    .text:00000000000001fc .L0 
 src/syscall_cpp.cpp:47     .text:00000000000001fc .L0 
     /tmp/ccMEipbl.s:564    .text:0000000000000200 .L0 
 src/syscall_cpp.cpp:54     .text:0000000000000200 .L0 
     /tmp/ccMEipbl.s:572    .text:0000000000000204 .L0 
     /tmp/ccMEipbl.s:573    .text:0000000000000208 .L0 
     /tmp/ccMEipbl.s:574    .text:0000000000000208 .L0 
     /tmp/ccMEipbl.s:576    .text:000000000000020c .L0 
     /tmp/ccMEipbl.s:577    .text:000000000000020c .L0 
     /tmp/ccMEipbl.s:579    .text:0000000000000210 .L0 
GAS LISTING /tmp/ccMEipbl.s 			page 30


     /tmp/ccMEipbl.s:582    .text:0000000000000214 .L0 
     /tmp/ccMEipbl.s:585    .text:0000000000000218 .L0 
     /tmp/ccMEipbl.s:588    .text:000000000000021c .L0 
     /tmp/ccMEipbl.s:592    .text:0000000000000220 .L0 
     /tmp/ccMEipbl.s:596    .text:0000000000000220 .L0 
     /tmp/ccMEipbl.s:600    .text:0000000000000228 .L0 
     /tmp/ccMEipbl.s:486    .text:0000000000000198 _ZN6ThreadC1EPFvPvES0_
     /tmp/ccMEipbl.s:608    .text:0000000000000228 _ZN6Thread5startEv
     /tmp/ccMEipbl.s:611    .text:0000000000000228 .L0 
     /tmp/ccMEipbl.s:613    .text:0000000000000228 .L0 
     /tmp/ccMEipbl.s:614    .text:000000000000022c .L0 
     /tmp/ccMEipbl.s:616    .text:0000000000000230 .L0 
     /tmp/ccMEipbl.s:618    .text:0000000000000234 .L0 
     /tmp/ccMEipbl.s:620    .text:0000000000000234 .L0 
     /tmp/ccMEipbl.s:621    .text:0000000000000234 .L0 
     /tmp/ccMEipbl.s:623    .text:0000000000000238 .L0 
     /tmp/ccMEipbl.s:625    .text:000000000000023c .L0 
 src/syscall_cpp.cpp:63     .text:000000000000023c .L0 
     /tmp/ccMEipbl.s:632    .text:0000000000000240 .L0 
 src/syscall_cpp.cpp:64     .text:0000000000000240 .L0 
     /tmp/ccMEipbl.s:637    .text:0000000000000244 .L0 
 src/syscall_cpp.cpp:66     .text:0000000000000244 .L0 
     /tmp/ccMEipbl.s:642    .text:0000000000000248 .L0 
     /tmp/ccMEipbl.s:644    .text:0000000000000248 .L0 
     /tmp/ccMEipbl.s:647    .text:000000000000024c .L0 
     /tmp/ccMEipbl.s:648    .text:0000000000000250 .L0 
     /tmp/ccMEipbl.s:649    .text:0000000000000250 .L0 
     /tmp/ccMEipbl.s:650    .text:0000000000000250 .L0 
     /tmp/ccMEipbl.s:652    .text:0000000000000254 .L0 
     /tmp/ccMEipbl.s:656    .text:0000000000000258 .L0 
     /tmp/ccMEipbl.s:658    .text:0000000000000258 .L0 
     /tmp/ccMEipbl.s:661    .text:0000000000000260 .L0 
     /tmp/ccMEipbl.s:667    .text:0000000000000260 _ZN6Thread4joinEv
     /tmp/ccMEipbl.s:670    .text:0000000000000260 .L0 
     /tmp/ccMEipbl.s:672    .text:0000000000000260 .L0 
     /tmp/ccMEipbl.s:673    .text:0000000000000264 .L0 
     /tmp/ccMEipbl.s:676    .text:000000000000026c .L0 
     /tmp/ccMEipbl.s:677    .text:000000000000026c .L0 
     /tmp/ccMEipbl.s:679    .text:0000000000000270 .L0 
     /tmp/ccMEipbl.s:681    .text:0000000000000270 .L0 
     /tmp/ccMEipbl.s:682    .text:0000000000000270 .L0 
     /tmp/ccMEipbl.s:687    .text:000000000000027c .L0 
     /tmp/ccMEipbl.s:688    .text:0000000000000280 .L0 
     /tmp/ccMEipbl.s:690    .text:0000000000000284 .L0 
     /tmp/ccMEipbl.s:691    .text:0000000000000284 .L0 
     /tmp/ccMEipbl.s:693    .text:0000000000000288 .L0 
     /tmp/ccMEipbl.s:695    .text:000000000000028c .L0 
     /tmp/ccMEipbl.s:701    .text:000000000000028c _ZN6Thread8dispatchEv
     /tmp/ccMEipbl.s:704    .text:000000000000028c .L0 
     /tmp/ccMEipbl.s:705    .text:000000000000028c .L0 
     /tmp/ccMEipbl.s:706    .text:0000000000000290 .L0 
     /tmp/ccMEipbl.s:709    .text:0000000000000298 .L0 
     /tmp/ccMEipbl.s:710    .text:0000000000000298 .L0 
     /tmp/ccMEipbl.s:712    .text:000000000000029c .L0 
     /tmp/ccMEipbl.s:714    .text:000000000000029c .L0 
     /tmp/ccMEipbl.s:715    .text:000000000000029c .L0 
     /tmp/ccMEipbl.s:718    .text:00000000000002a4 .L0 
GAS LISTING /tmp/ccMEipbl.s 			page 31


     /tmp/ccMEipbl.s:719    .text:00000000000002a8 .L0 
     /tmp/ccMEipbl.s:721    .text:00000000000002ac .L0 
     /tmp/ccMEipbl.s:722    .text:00000000000002ac .L0 
     /tmp/ccMEipbl.s:724    .text:00000000000002b0 .L0 
     /tmp/ccMEipbl.s:726    .text:00000000000002b4 .L0 
     /tmp/ccMEipbl.s:732    .text:00000000000002b4 _ZN6Thread5sleepEm
     /tmp/ccMEipbl.s:735    .text:00000000000002b4 .L0 
     /tmp/ccMEipbl.s:737    .text:00000000000002b4 .L0 
     /tmp/ccMEipbl.s:738    .text:00000000000002b8 .L0 
     /tmp/ccMEipbl.s:741    .text:00000000000002c0 .L0 
     /tmp/ccMEipbl.s:742    .text:00000000000002c0 .L0 
     /tmp/ccMEipbl.s:744    .text:00000000000002c4 .L0 
     /tmp/ccMEipbl.s:747    .text:00000000000002c8 .L0 
     /tmp/ccMEipbl.s:748    .text:00000000000002c8 .L0 
     /tmp/ccMEipbl.s:754    .text:00000000000002dc .L0 
     /tmp/ccMEipbl.s:755    .text:00000000000002dc .L0 
     /tmp/ccMEipbl.s:757    .text:00000000000002e4 .L0 
     /tmp/ccMEipbl.s:759    .text:00000000000002e8 .L0 
     /tmp/ccMEipbl.s:760    .text:00000000000002e8 .L0 
     /tmp/ccMEipbl.s:762    .text:00000000000002ec .L0 
     /tmp/ccMEipbl.s:764    .text:00000000000002f0 .L0 
     /tmp/ccMEipbl.s:770    .text:00000000000002f0 _ZN6ThreadC2Ev
     /tmp/ccMEipbl.s:773    .text:00000000000002f0 .L0 
     /tmp/ccMEipbl.s:775    .text:00000000000002f0 .L0 
     /tmp/ccMEipbl.s:776    .text:00000000000002f4 .L0 
     /tmp/ccMEipbl.s:778    .text:00000000000002f8 .L0 
     /tmp/ccMEipbl.s:780    .text:00000000000002fc .L0 
     /tmp/ccMEipbl.s:783    .text:00000000000002fc .L0 
     /tmp/ccMEipbl.s:787    .text:0000000000000308 .L0 
     /tmp/ccMEipbl.s:788    .text:000000000000030c .L0 
     /tmp/ccMEipbl.s:789    .text:000000000000030c .L0 
     /tmp/ccMEipbl.s:791    .text:0000000000000310 .L0 
     /tmp/ccMEipbl.s:793    .text:0000000000000314 .L0 
     /tmp/ccMEipbl.s:770    .text:00000000000002f0 _ZN6ThreadC1Ev
     /tmp/ccMEipbl.s:801    .text:0000000000000314 _ZN9SemaphoreC2Ej
     /tmp/ccMEipbl.s:804    .text:0000000000000314 .L0 
     /tmp/ccMEipbl.s:806    .text:0000000000000314 .L0 
     /tmp/ccMEipbl.s:807    .text:0000000000000318 .L0 
     /tmp/ccMEipbl.s:810    .text:0000000000000320 .L0 
     /tmp/ccMEipbl.s:811    .text:0000000000000320 .L0 
     /tmp/ccMEipbl.s:813    .text:0000000000000324 .L0 
     /tmp/ccMEipbl.s:816    .text:0000000000000324 .L0 
     /tmp/ccMEipbl.s:819    .text:0000000000000330 .L0 
     /tmp/ccMEipbl.s:820    .text:0000000000000330 .L0 
     /tmp/ccMEipbl.s:826    .text:000000000000033c .L0 
     /tmp/ccMEipbl.s:827    .text:0000000000000340 .L0 
     /tmp/ccMEipbl.s:829    .text:0000000000000344 .L0 
     /tmp/ccMEipbl.s:830    .text:0000000000000344 .L0 
     /tmp/ccMEipbl.s:832    .text:0000000000000348 .L0 
     /tmp/ccMEipbl.s:834    .text:000000000000034c .L0 
     /tmp/ccMEipbl.s:801    .text:0000000000000314 _ZN9SemaphoreC1Ej
     /tmp/ccMEipbl.s:842    .text:000000000000034c _ZN9Semaphore4waitEv
     /tmp/ccMEipbl.s:845    .text:000000000000034c .L0 
     /tmp/ccMEipbl.s:847    .text:000000000000034c .L0 
     /tmp/ccMEipbl.s:848    .text:0000000000000350 .L0 
     /tmp/ccMEipbl.s:851    .text:0000000000000358 .L0 
     /tmp/ccMEipbl.s:852    .text:0000000000000358 .L0 
GAS LISTING /tmp/ccMEipbl.s 			page 32


     /tmp/ccMEipbl.s:854    .text:000000000000035c .L0 
     /tmp/ccMEipbl.s:856    .text:000000000000035c .L0 
     /tmp/ccMEipbl.s:857    .text:000000000000035c .L0 
     /tmp/ccMEipbl.s:862    .text:0000000000000368 .L0 
     /tmp/ccMEipbl.s:863    .text:000000000000036c .L0 
     /tmp/ccMEipbl.s:865    .text:0000000000000370 .L0 
     /tmp/ccMEipbl.s:866    .text:0000000000000370 .L0 
     /tmp/ccMEipbl.s:868    .text:0000000000000374 .L0 
     /tmp/ccMEipbl.s:870    .text:0000000000000378 .L0 
     /tmp/ccMEipbl.s:876    .text:0000000000000378 _ZN9Semaphore6signalEv
     /tmp/ccMEipbl.s:879    .text:0000000000000378 .L0 
     /tmp/ccMEipbl.s:881    .text:0000000000000378 .L0 
     /tmp/ccMEipbl.s:882    .text:000000000000037c .L0 
     /tmp/ccMEipbl.s:885    .text:0000000000000384 .L0 
     /tmp/ccMEipbl.s:886    .text:0000000000000384 .L0 
     /tmp/ccMEipbl.s:888    .text:0000000000000388 .L0 
     /tmp/ccMEipbl.s:890    .text:0000000000000388 .L0 
     /tmp/ccMEipbl.s:891    .text:0000000000000388 .L0 
     /tmp/ccMEipbl.s:896    .text:0000000000000394 .L0 
     /tmp/ccMEipbl.s:897    .text:0000000000000398 .L0 
     /tmp/ccMEipbl.s:899    .text:000000000000039c .L0 
     /tmp/ccMEipbl.s:900    .text:000000000000039c .L0 
     /tmp/ccMEipbl.s:902    .text:00000000000003a0 .L0 
     /tmp/ccMEipbl.s:904    .text:00000000000003a4 .L0 
     /tmp/ccMEipbl.s:910    .text:00000000000003a4 _ZN14PeriodicThread9terminateEv
     /tmp/ccMEipbl.s:913    .text:00000000000003a4 .L0 
     /tmp/ccMEipbl.s:915    .text:00000000000003a4 .L0 
     /tmp/ccMEipbl.s:916    .text:00000000000003a8 .L0 
     /tmp/ccMEipbl.s:918    .text:00000000000003ac .L0 
     /tmp/ccMEipbl.s:920    .text:00000000000003b0 .L0 
     /tmp/ccMEipbl.s:922    .text:00000000000003b0 .L0 
     /tmp/ccMEipbl.s:923    .text:00000000000003b4 .L0 
     /tmp/ccMEipbl.s:924    .text:00000000000003b4 .L0 
     /tmp/ccMEipbl.s:926    .text:00000000000003b8 .L0 
     /tmp/ccMEipbl.s:928    .text:00000000000003bc .L0 
     /tmp/ccMEipbl.s:934    .text:00000000000003bc _ZN14PeriodicThreadC2Em
     /tmp/ccMEipbl.s:937    .text:00000000000003bc .L0 
     /tmp/ccMEipbl.s:939    .text:00000000000003bc .L0 
     /tmp/ccMEipbl.s:940    .text:00000000000003c0 .L0 
     /tmp/ccMEipbl.s:944    .text:00000000000003cc .L0 
     /tmp/ccMEipbl.s:945    .text:00000000000003cc .L0 
     /tmp/ccMEipbl.s:946    .text:00000000000003cc .L0 
     /tmp/ccMEipbl.s:948    .text:00000000000003d0 .L0 
     /tmp/ccMEipbl.s:952    .text:00000000000003d4 .L0 
     /tmp/ccMEipbl.s:958    .text:00000000000003e8 .L0 
     /tmp/ccMEipbl.s:959    .text:00000000000003ec .L0 
     /tmp/ccMEipbl.s:961    .text:00000000000003f0 .L0 
     /tmp/ccMEipbl.s:962    .text:00000000000003f0 .L0 
     /tmp/ccMEipbl.s:964    .text:00000000000003f4 .L0 
     /tmp/ccMEipbl.s:967    .text:00000000000003f8 .L0 
     /tmp/ccMEipbl.s:969    .text:00000000000003fc .L0 
     /tmp/ccMEipbl.s:934    .text:00000000000003bc _ZN14PeriodicThreadC1Em
     /tmp/ccMEipbl.s:977    .text:00000000000003fc _ZN7Console4getcEv
     /tmp/ccMEipbl.s:980    .text:00000000000003fc .L0 
     /tmp/ccMEipbl.s:981    .text:00000000000003fc .L0 
     /tmp/ccMEipbl.s:982    .text:0000000000000400 .L0 
     /tmp/ccMEipbl.s:984    .text:0000000000000404 .L0 
GAS LISTING /tmp/ccMEipbl.s 			page 33


     /tmp/ccMEipbl.s:986    .text:0000000000000408 .L0 
     /tmp/ccMEipbl.s:988    .text:0000000000000408 .L0 
     /tmp/ccMEipbl.s:989    .text:0000000000000408 .L0 
     /tmp/ccMEipbl.s:991    .text:0000000000000410 .L0 
     /tmp/ccMEipbl.s:992    .text:0000000000000410 .L0 
     /tmp/ccMEipbl.s:994    .text:0000000000000414 .L0 
     /tmp/ccMEipbl.s:996    .text:0000000000000418 .L0 
     /tmp/ccMEipbl.s:1002   .text:0000000000000418 _ZN7Console4putcEc
     /tmp/ccMEipbl.s:1005   .text:0000000000000418 .L0 
     /tmp/ccMEipbl.s:1006   .text:0000000000000418 .L0 
     /tmp/ccMEipbl.s:1007   .text:000000000000041c .L0 
     /tmp/ccMEipbl.s:1009   .text:0000000000000420 .L0 
     /tmp/ccMEipbl.s:1011   .text:0000000000000424 .L0 
     /tmp/ccMEipbl.s:1013   .text:0000000000000424 .L0 
     /tmp/ccMEipbl.s:1014   .text:0000000000000428 .L0 
     /tmp/ccMEipbl.s:1015   .text:0000000000000428 .L0 
     /tmp/ccMEipbl.s:1017   .text:000000000000042c .L0 
     /tmp/ccMEipbl.s:1019   .text:0000000000000430 .L0 
     /tmp/ccMEipbl.s:32     .text._ZN6Thread3runEv:0000000000000018 .L0 
     /tmp/ccMEipbl.s:57     .text._ZN14PeriodicThread18periodicActivationEv:0000000000000018 .L0 
     /tmp/ccMEipbl.s:1062   .text:0000000000000430 .L0 
     /tmp/ccMEipbl.s:116    .text._ZN14PeriodicThreadD2Ev:0000000000000024 .L0 
     /tmp/ccMEipbl.s:402    .text._ZN14PeriodicThreadD0Ev:0000000000000034 .L0 
     /tmp/ccMEipbl.s:140    .text:0000000000000030 .L0 
     /tmp/ccMEipbl.s:510    .text:00000000000001c0 .L0 
     /tmp/ccMEipbl.s:748    .text:00000000000002c8 .L0 
     /tmp/ccMEipbl.s:783    .text:00000000000002fc .L0 
     /tmp/ccMEipbl.s:816    .text:0000000000000324 .L0 
     /tmp/ccMEipbl.s:954    .text:00000000000003dc .L0 
     /tmp/ccMEipbl.s:202    .text:000000000000007c .L9
     /tmp/ccMEipbl.s:191    .text:0000000000000070 .L11
     /tmp/ccMEipbl.s:154    .text:0000000000000050 .L12
     /tmp/ccMEipbl.s:591    .text:0000000000000220 .L31
     /tmp/ccMEipbl.s:531    .text:00000000000001e8 .L30
     /tmp/ccMEipbl.s:655    .text:0000000000000258 .L35
     /tmp/ccMEipbl.s:645    .text:000000000000024c .L34
     /tmp/ccMEipbl.s:102    .text._ZN14PeriodicThreadD2Ev:000000000000000c .L0 
     /tmp/ccMEipbl.s:384    .text._ZN14PeriodicThreadD0Ev:0000000000000010 .L0 
     /tmp/ccMEipbl.s:3308   .debug_abbrev:0000000000000000 .Ldebug_abbrev0
     /tmp/ccMEipbl.s:5572   .debug_str:00000000000009d8 .LASF202
     /tmp/ccMEipbl.s:5402   .debug_str:0000000000000512 .LASF203
     /tmp/ccMEipbl.s:5516   .debug_str:000000000000085c .LASF204
     /tmp/ccMEipbl.s:5214   .debug_ranges:0000000000000000 .Ldebug_ranges0
     /tmp/ccMEipbl.s:5234   .debug_line:0000000000000000 .Ldebug_line0
     /tmp/ccMEipbl.s:5492   .debug_str:00000000000007ac .LASF3
     /tmp/ccMEipbl.s:5392   .debug_str:00000000000004d9 .LASF0
     /tmp/ccMEipbl.s:5420   .debug_str:0000000000000599 .LASF1
     /tmp/ccMEipbl.s:5504   .debug_str:0000000000000811 .LASF2
     /tmp/ccMEipbl.s:5514   .debug_str:0000000000000855 .LASF4
     /tmp/ccMEipbl.s:5404   .debug_str:0000000000000526 .LASF5
     /tmp/ccMEipbl.s:5252   .debug_str:0000000000000092 .LASF6
     /tmp/ccMEipbl.s:5476   .debug_str:0000000000000727 .LASF7
     /tmp/ccMEipbl.s:5472   .debug_str:00000000000006fc .LASF8
     /tmp/ccMEipbl.s:5412   .debug_str:0000000000000569 .LASF9
     /tmp/ccMEipbl.s:5360   .debug_str:00000000000003dc .LASF10
     /tmp/ccMEipbl.s:5372   .debug_str:0000000000000458 .LASF11
     /tmp/ccMEipbl.s:5298   .debug_str:0000000000000202 .LASF12
GAS LISTING /tmp/ccMEipbl.s 			page 34


     /tmp/ccMEipbl.s:5352   .debug_str:00000000000003a6 .LASF13
     /tmp/ccMEipbl.s:5314   .debug_str:0000000000000286 .LASF14
     /tmp/ccMEipbl.s:5296   .debug_str:00000000000001f2 .LASF15
     /tmp/ccMEipbl.s:5540   .debug_str:000000000000091b .LASF16
     /tmp/ccMEipbl.s:5342   .debug_str:000000000000033a .LASF17
     /tmp/ccMEipbl.s:5528   .debug_str:00000000000008c7 .LASF18
     /tmp/ccMEipbl.s:5612   .debug_str:0000000000000b9c .LASF19
     /tmp/ccMEipbl.s:5548   .debug_str:0000000000000958 .LASF93
     /tmp/ccMEipbl.s:5538   .debug_str:000000000000090e .LASF20
     /tmp/ccMEipbl.s:5620   .debug_str:0000000000000bd6 .LASF22
     /tmp/ccMEipbl.s:5466   .debug_str:00000000000006d5 .LASF205
     /tmp/ccMEipbl.s:5638   .debug_str:0000000000000c72 .LASF34
     /tmp/ccMEipbl.s:5406   .debug_str:0000000000000538 .LASF36
     /tmp/ccMEipbl.s:5550   .debug_str:0000000000000960 .LASF24
     /tmp/ccMEipbl.s:5544   .debug_str:000000000000093b .LASF26
     /tmp/ccMEipbl.s:5282   .debug_str:0000000000000184 .LASF21
     /tmp/ccMEipbl.s:5590   .debug_str:0000000000000b0a .LASF23
     /tmp/ccMEipbl.s:5508   .debug_str:000000000000082e .LASF25
     /tmp/ccMEipbl.s:5542   .debug_str:0000000000000927 .LASF27
     /tmp/ccMEipbl.s:5554   .debug_str:0000000000000978 .LASF28
     /tmp/ccMEipbl.s:5348   .debug_str:0000000000000377 .LASF29
     /tmp/ccMEipbl.s:5428   .debug_str:00000000000005cd .LASF30
     /tmp/ccMEipbl.s:5488   .debug_str:0000000000000784 .LASF31
     /tmp/ccMEipbl.s:5330   .debug_str:00000000000002fc .LASF32
     /tmp/ccMEipbl.s:5512   .debug_str:000000000000083d .LASF33
     /tmp/ccMEipbl.s:5596   .debug_str:0000000000000b4b .LASF35
     /tmp/ccMEipbl.s:5354   .debug_str:00000000000003b5 .LASF37
     /tmp/ccMEipbl.s:5614   .debug_str:0000000000000ba5 .LASF38
     /tmp/ccMEipbl.s:5350   .debug_str:000000000000038d .LASF40
     /tmp/ccMEipbl.s:5424   .debug_str:00000000000005b4 .LASF39
     /tmp/ccMEipbl.s:5576   .debug_str:0000000000000aaf .LASF41
     /tmp/ccMEipbl.s:5332   .debug_str:0000000000000309 .LASF42
     /tmp/ccMEipbl.s:5308   .debug_str:000000000000024c .LASF43
     /tmp/ccMEipbl.s:5610   .debug_str:0000000000000b94 .LASF44
     /tmp/ccMEipbl.s:5260   .debug_str:00000000000000df .LASF45
     /tmp/ccMEipbl.s:5568   .debug_str:00000000000009c0 .LASF46
     /tmp/ccMEipbl.s:5290   .debug_str:00000000000001c5 .LASF47
     /tmp/ccMEipbl.s:5588   .debug_str:0000000000000b02 .LASF48
     /tmp/ccMEipbl.s:5294   .debug_str:00000000000001e3 .LASF49
     /tmp/ccMEipbl.s:5644   .debug_str:0000000000000c99 .LASF50
     /tmp/ccMEipbl.s:5604   .debug_str:0000000000000b7d .LASF51
     /tmp/ccMEipbl.s:5580   .debug_str:0000000000000ad6 .LASF52
     /tmp/ccMEipbl.s:5526   .debug_str:00000000000008be .LASF53
     /tmp/ccMEipbl.s:5462   .debug_str:00000000000006c6 .LASF54
     /tmp/ccMEipbl.s:5380   .debug_str:0000000000000486 .LASF55
     /tmp/ccMEipbl.s:5570   .debug_str:00000000000009c8 .LASF56
     /tmp/ccMEipbl.s:5470   .debug_str:00000000000006f0 .LASF57
     /tmp/ccMEipbl.s:5238   .debug_str:000000000000002a .LASF58
     /tmp/ccMEipbl.s:5242   .debug_str:000000000000003c .LASF59
     /tmp/ccMEipbl.s:5634   .debug_str:0000000000000c4e .LASF120
     /tmp/ccMEipbl.s:5322   .debug_str:00000000000002c5 .LASF86
     /tmp/ccMEipbl.s:5246   .debug_str:0000000000000052 .LASF88
     /tmp/ccMEipbl.s:5652   .debug_str:0000000000000cd4 .LASF60
     /tmp/ccMEipbl.s:5368   .debug_str:0000000000000439 .LASF61
     /tmp/ccMEipbl.s:5394   .debug_str:00000000000004e6 .LASF73
     /tmp/ccMEipbl.s:5436   .debug_str:0000000000000600 .LASF99
     /tmp/ccMEipbl.s:5630   .debug_str:0000000000000c36 .LASF62
GAS LISTING /tmp/ccMEipbl.s 			page 35


     /tmp/ccMEipbl.s:5530   .debug_str:00000000000008dd .LASF63
     /tmp/ccMEipbl.s:5418   .debug_str:0000000000000591 .LASF64
     /tmp/ccMEipbl.s:5460   .debug_str:00000000000006b3 .LASF65
     /tmp/ccMEipbl.s:5334   .debug_str:0000000000000312 .LASF66
     /tmp/ccMEipbl.s:5338   .debug_str:000000000000031d .LASF67
     /tmp/ccMEipbl.s:5546   .debug_str:0000000000000951 .LASF68
     /tmp/ccMEipbl.s:5276   .debug_str:0000000000000166 .LASF69
     /tmp/ccMEipbl.s:5624   .debug_str:0000000000000c0b .LASF70
     /tmp/ccMEipbl.s:5452   .debug_str:0000000000000675 .LASF71
     /tmp/ccMEipbl.s:5340   .debug_str:000000000000032d .LASF72
     /tmp/ccMEipbl.s:5248   .debug_str:000000000000007a .LASF74
     /tmp/ccMEipbl.s:5390   .debug_str:00000000000004d3 .LASF75
     /tmp/ccMEipbl.s:5566   .debug_str:00000000000009af .LASF76
     /tmp/ccMEipbl.s:5244   .debug_str:000000000000004a .LASF77
     /tmp/ccMEipbl.s:5256   .debug_str:00000000000000b0 .LASF78
     /tmp/ccMEipbl.s:5618   .debug_str:0000000000000bc9 .LASF79
     /tmp/ccMEipbl.s:5594   .debug_str:0000000000000b3b .LASF80
     /tmp/ccMEipbl.s:5326   .debug_str:00000000000002ed .LASF81
     /tmp/ccMEipbl.s:5414   .debug_str:000000000000057c .LASF82
     /tmp/ccMEipbl.s:5608   .debug_str:0000000000000b8c .LASF83
     /tmp/ccMEipbl.s:5336   .debug_str:0000000000000317 .LASF84
     /tmp/ccMEipbl.s:5586   .debug_str:0000000000000af5 .LASF206
     /tmp/ccMEipbl.s:5440   .debug_str:0000000000000625 .LASF85
     /tmp/ccMEipbl.s:5396   .debug_str:00000000000004f6 .LASF122
     /tmp/ccMEipbl.s:5622   .debug_str:0000000000000bf8 .LASF124
     /tmp/ccMEipbl.s:5442   .debug_str:000000000000062d .LASF87
     /tmp/ccMEipbl.s:5628   .debug_str:0000000000000c23 .LASF89
     /tmp/ccMEipbl.s:5558   .debug_str:0000000000000989 .LASF90
     /tmp/ccMEipbl.s:5496   .debug_str:00000000000007d2 .LASF91
     /tmp/ccMEipbl.s:5454   .debug_str:000000000000068b .LASF92
     /tmp/ccMEipbl.s:5328   .debug_str:00000000000002f7 .LASF94
     /tmp/ccMEipbl.s:5584   .debug_str:0000000000000af0 .LASF95
     /tmp/ccMEipbl.s:5300   .debug_str:0000000000000211 .LASF96
     /tmp/ccMEipbl.s:5346   .debug_str:0000000000000359 .LASF97
     /tmp/ccMEipbl.s:5324   .debug_str:00000000000002d3 .LASF98
     /tmp/ccMEipbl.s:5480   .debug_str:0000000000000740 .LASF100
     /tmp/ccMEipbl.s:5600   .debug_str:0000000000000b71 .LASF101
     /tmp/ccMEipbl.s:5416   .debug_str:000000000000058c .LASF102
     /tmp/ccMEipbl.s:5266   .debug_str:000000000000010c .LASF103
     /tmp/ccMEipbl.s:5366   .debug_str:0000000000000421 .LASF104
     /tmp/ccMEipbl.s:5474   .debug_str:000000000000070f .LASF133
     /tmp/ccMEipbl.s:5552   .debug_str:000000000000096b .LASF105
     /tmp/ccMEipbl.s:5318   .debug_str:00000000000002ab .LASF106
     /tmp/ccMEipbl.s:5398   .debug_str:00000000000004fb .LASF107
     /tmp/ccMEipbl.s:5258   .debug_str:00000000000000c3 .LASF108
     /tmp/ccMEipbl.s:5422   .debug_str:00000000000005ac .LASF109
     /tmp/ccMEipbl.s:5448   .debug_str:0000000000000651 .LASF110
     /tmp/ccMEipbl.s:5284   .debug_str:0000000000000190 .LASF111
     /tmp/ccMEipbl.s:5286   .debug_str:0000000000000199 .LASF112
     /tmp/ccMEipbl.s:5316   .debug_str:0000000000000296 .LASF113
     /tmp/ccMEipbl.s:5616   .debug_str:0000000000000bb3 .LASF114
     /tmp/ccMEipbl.s:5358   .debug_str:00000000000003d2 .LASF115
     /tmp/ccMEipbl.s:5534   .debug_str:00000000000008f1 .LASF116
     /tmp/ccMEipbl.s:5450   .debug_str:0000000000000670 .LASF117
     /tmp/ccMEipbl.s:5642   .debug_str:0000000000000c8c .LASF118
     /tmp/ccMEipbl.s:5632   .debug_str:0000000000000c3c .LASF119
     /tmp/ccMEipbl.s:5382   .debug_str:0000000000000491 .LASF121
GAS LISTING /tmp/ccMEipbl.s 			page 36


     /tmp/ccMEipbl.s:5640   .debug_str:0000000000000c78 .LASF207
     /tmp/ccMEipbl.s:5582   .debug_str:0000000000000ae0 .LASF123
     /tmp/ccMEipbl.s:5494   .debug_str:00000000000007b1 .LASF125
     /tmp/ccMEipbl.s:5274   .debug_str:000000000000015b .LASF126
     /tmp/ccMEipbl.s:5268   .debug_str:0000000000000121 .LASF127
     /tmp/ccMEipbl.s:5434   .debug_str:00000000000005fb .LASF128
     /tmp/ccMEipbl.s:5312   .debug_str:0000000000000271 .LASF129
     /tmp/ccMEipbl.s:5606   .debug_str:0000000000000b82 .LASF130
     /tmp/ccMEipbl.s:5522   .debug_str:00000000000008a1 .LASF139
     /tmp/ccMEipbl.s:5646   .debug_str:0000000000000c9f .LASF141
     /tmp/ccMEipbl.s:5562   .debug_str:0000000000000998 .LASF131
     /tmp/ccMEipbl.s:5484   .debug_str:000000000000076f .LASF132
     /tmp/ccMEipbl.s:5518   .debug_str:000000000000087a .LASF134
     /tmp/ccMEipbl.s:5304   .debug_str:0000000000000228 .LASF135
     /tmp/ccMEipbl.s:5254   .debug_str:0000000000000099 .LASF136
     /tmp/ccMEipbl.s:5344   .debug_str:0000000000000350 .LASF137
     /tmp/ccMEipbl.s:5388   .debug_str:00000000000004c3 .LASF208
     /tmp/ccMEipbl.s:5378   .debug_str:000000000000047f .LASF138
     /tmp/ccMEipbl.s:5310   .debug_str:000000000000025f .LASF140
     /tmp/ccMEipbl.s:5500   .debug_str:00000000000007ec .LASF142
     /tmp/ccMEipbl.s:5656   .debug_str:0000000000000cea .LASF143
     /tmp/ccMEipbl.s:5524   .debug_str:00000000000008b6 .LASF144
     /tmp/ccMEipbl.s:5532   .debug_str:00000000000008e2 .LASF145
     /tmp/ccMEipbl.s:5426   .debug_str:00000000000005ba .LASF146
     /tmp/ccMEipbl.s:5564   .debug_str:00000000000009aa .LASF147
     /tmp/ccMEipbl.s:5478   .debug_str:000000000000072e .LASF148
     /tmp/ccMEipbl.s:5468   .debug_str:00000000000006da .LASF149
     /tmp/ccMEipbl.s:5270   .debug_str:0000000000000142 .LASF150
     /tmp/ccMEipbl.s:5574   .debug_str:0000000000000a9c .LASF151
     /tmp/ccMEipbl.s:5400   .debug_str:0000000000000503 .LASF152
     /tmp/ccMEipbl.s:5386   .debug_str:00000000000004b2 .LASF209
     /tmp/ccMEipbl.s:5240   .debug_str:0000000000000037 .LASF153
     /tmp/ccMEipbl.s:5306   .debug_str:000000000000023d .LASF154
     /tmp/ccMEipbl.s:5592   .debug_str:0000000000000b21 .LASF155
     /tmp/ccMEipbl.s:5598   .debug_str:0000000000000b56 .LASF156
     /tmp/ccMEipbl.s:5560   .debug_str:000000000000098e .LASF157
     /tmp/ccMEipbl.s:5364   .debug_str:0000000000000401 .LASF158
     /tmp/ccMEipbl.s:5410   .debug_str:0000000000000551 .LASF159
     /tmp/ccMEipbl.s:5370   .debug_str:0000000000000445 .LASF160
     /tmp/ccMEipbl.s:5236   .debug_str:0000000000000000 .LASF210
     /tmp/ccMEipbl.s:5280   .debug_str:000000000000017d .LASF161
     /tmp/ccMEipbl.s:5458   .debug_str:00000000000006a3 .LASF162
     /tmp/ccMEipbl.s:5438   .debug_str:000000000000060d .LASF211
     /tmp/ccMEipbl.s:5356   .debug_str:00000000000003cd .LASF163
     /tmp/ccMEipbl.s:5250   .debug_str:0000000000000088 .LASF164
     /tmp/ccMEipbl.s:5658   .debug_str:0000000000000d01 .LASF165
     /tmp/ccMEipbl.s:368    .text._ZN14PeriodicThreadD0Ev:0000000000000000 .LFB74
     /tmp/ccMEipbl.s:400    .text._ZN14PeriodicThreadD0Ev:0000000000000034 .LFE74
     /tmp/ccMEipbl.s:4812   .debug_loc:0000000000000000 .LLST7
     /tmp/ccMEipbl.s:381    .text._ZN14PeriodicThreadD0Ev:0000000000000010 .LBB43
     /tmp/ccMEipbl.s:388    .text._ZN14PeriodicThreadD0Ev:000000000000001c .LBE43
     /tmp/ccMEipbl.s:4826   .debug_loc:0000000000000039 .LLST8
     /tmp/ccMEipbl.s:390    .text._ZN14PeriodicThreadD0Ev:0000000000000024 .LVL24
     /tmp/ccMEipbl.s:5502   .debug_str:00000000000007f9 .LASF166
     /tmp/ccMEipbl.s:90     .text._ZN14PeriodicThreadD2Ev:0000000000000000 .LFB72
     /tmp/ccMEipbl.s:112    .text._ZN14PeriodicThreadD2Ev:0000000000000024 .LFE72
     /tmp/ccMEipbl.s:1003   .text:0000000000000418 .LFB70
GAS LISTING /tmp/ccMEipbl.s 			page 37


     /tmp/ccMEipbl.s:1020   .text:0000000000000430 .LFE70
     /tmp/ccMEipbl.s:978    .text:00000000000003fc .LFB69
     /tmp/ccMEipbl.s:997    .text:0000000000000418 .LFE69
     /tmp/ccMEipbl.s:5536   .debug_str:00000000000008f6 .LASF167
     /tmp/ccMEipbl.s:935    .text:00000000000003bc .LFB67
     /tmp/ccMEipbl.s:970    .text:00000000000003fc .LFE67
     /tmp/ccMEipbl.s:4833   .debug_loc:000000000000005c .LLST22
     /tmp/ccMEipbl.s:4851   .debug_loc:00000000000000a8 .LLST23
     /tmp/ccMEipbl.s:953    .text:00000000000003dc .LVL64
     /tmp/ccMEipbl.s:911    .text:00000000000003a4 .LFB65
     /tmp/ccMEipbl.s:929    .text:00000000000003bc .LFE65
     /tmp/ccMEipbl.s:877    .text:0000000000000378 .LFB64
     /tmp/ccMEipbl.s:905    .text:00000000000003a4 .LFE64
     /tmp/ccMEipbl.s:4865   .debug_loc:00000000000000e1 .LLST21
     /tmp/ccMEipbl.s:894    .text:0000000000000394 .LVL61
     /tmp/ccMEipbl.s:843    .text:000000000000034c .LFB63
     /tmp/ccMEipbl.s:871    .text:0000000000000378 .LFE63
     /tmp/ccMEipbl.s:4879   .debug_loc:000000000000011a .LLST20
     /tmp/ccMEipbl.s:860    .text:0000000000000368 .LVL58
     /tmp/ccMEipbl.s:5430   .debug_str:00000000000005da .LASF168
     /tmp/ccMEipbl.s:407    .text:0000000000000130 .LFB62
     /tmp/ccMEipbl.s:440    .text:0000000000000170 .LFE62
     /tmp/ccMEipbl.s:4893   .debug_loc:0000000000000153 .LLST9
     /tmp/ccMEipbl.s:424    .text:0000000000000150 .LVL26
     /tmp/ccMEipbl.s:427    .text:000000000000015c .LVL27
     /tmp/ccMEipbl.s:5262   .debug_str:00000000000000f1 .LASF169
     /tmp/ccMEipbl.s:121    .text:0000000000000018 .LFB60
     /tmp/ccMEipbl.s:216    .text:0000000000000090 .LFE60
     /tmp/ccMEipbl.s:4911   .debug_loc:000000000000019f .LLST0
     /tmp/ccMEipbl.s:155    .text:0000000000000050 .LBB35
     /tmp/ccMEipbl.s:197    .text:0000000000000070 .LBE35
     /tmp/ccMEipbl.s:156    .text:0000000000000050 .LBB36
     /tmp/ccMEipbl.s:196    .text:0000000000000070 .LBE36
     /tmp/ccMEipbl.s:162    .text:0000000000000050 .LBB38
     /tmp/ccMEipbl.s:168    .text:0000000000000054 .LBE38
     /tmp/ccMEipbl.s:171    .text:0000000000000058 .LBB40
     /tmp/ccMEipbl.s:194    .text:0000000000000070 .LBE40
     /tmp/ccMEipbl.s:4929   .debug_loc:00000000000001eb .LLST1
     /tmp/ccMEipbl.s:183    .text:0000000000000064 .LBB41
     /tmp/ccMEipbl.s:193    .text:0000000000000070 .LBE41
     /tmp/ccMEipbl.s:4936   .debug_loc:000000000000020e .LLST2
     /tmp/ccMEipbl.s:188    .text:000000000000006c .LVL11
     /tmp/ccMEipbl.s:147    .text:0000000000000048 .LVL6
     /tmp/ccMEipbl.s:201    .text:000000000000007c .LVL12
     /tmp/ccMEipbl.s:5292   .debug_str:00000000000001d6 .LASF184
     /tmp/ccMEipbl.s:5278   .debug_str:0000000000000178 .LASF170
     /tmp/ccMEipbl.s:5302   .debug_str:0000000000000216 .LASF171
     /tmp/ccMEipbl.s:802    .text:0000000000000314 .LFB54
     /tmp/ccMEipbl.s:835    .text:000000000000034c .LFE54
     /tmp/ccMEipbl.s:4943   .debug_loc:0000000000000231 .LLST18
     /tmp/ccMEipbl.s:4963   .debug_loc:000000000000027f .LLST19
     /tmp/ccMEipbl.s:823    .text:000000000000033c .LVL55
     /tmp/ccMEipbl.s:5506   .debug_str:000000000000081f .LASF172
     /tmp/ccMEipbl.s:771    .text:00000000000002f0 .LFB51
     /tmp/ccMEipbl.s:794    .text:0000000000000314 .LFE51
     /tmp/ccMEipbl.s:733    .text:00000000000002b4 .LFB49
     /tmp/ccMEipbl.s:765    .text:00000000000002f0 .LFE49
GAS LISTING /tmp/ccMEipbl.s 			page 38


     /tmp/ccMEipbl.s:4977   .debug_loc:00000000000002b8 .LLST17
     /tmp/ccMEipbl.s:752    .text:00000000000002dc .LVL51
     /tmp/ccMEipbl.s:702    .text:000000000000028c .LFB48
     /tmp/ccMEipbl.s:727    .text:00000000000002b4 .LFE48
     /tmp/ccMEipbl.s:716    .text:00000000000002a4 .LVL48
     /tmp/ccMEipbl.s:668    .text:0000000000000260 .LFB47
     /tmp/ccMEipbl.s:696    .text:000000000000028c .LFE47
     /tmp/ccMEipbl.s:4995   .debug_loc:0000000000000304 .LLST16
     /tmp/ccMEipbl.s:685    .text:000000000000027c .LVL47
     /tmp/ccMEipbl.s:609    .text:0000000000000228 .LFB46
     /tmp/ccMEipbl.s:662    .text:0000000000000260 .LFE46
     /tmp/ccMEipbl.s:5009   .debug_loc:000000000000033d .LLST15
     /tmp/ccMEipbl.s:5432   .debug_str:00000000000005ec .LASF173
     /tmp/ccMEipbl.s:337    .text:0000000000000108 .LFB45
     /tmp/ccMEipbl.s:361    .text:0000000000000130 .LFE45
     /tmp/ccMEipbl.s:5034   .debug_loc:000000000000039f .LLST6
     /tmp/ccMEipbl.s:351    .text:0000000000000120 .LVL20
     /tmp/ccMEipbl.s:5626   .debug_str:0000000000000c14 .LASF174
     /tmp/ccMEipbl.s:62     .text:0000000000000000 .LFB43
     /tmp/ccMEipbl.s:81     .text:0000000000000018 .LFE43
     /tmp/ccMEipbl.s:5578   .debug_str:0000000000000abf .LASF175
     /tmp/ccMEipbl.s:487    .text:0000000000000198 .LFB40
     /tmp/ccMEipbl.s:601    .text:0000000000000228 .LFE40
     /tmp/ccMEipbl.s:5048   .debug_loc:00000000000003d8 .LLST11
     /tmp/ccMEipbl.s:5076   .debug_loc:000000000000044c .LLST12
     /tmp/ccMEipbl.s:5098   .debug_loc:00000000000004ab .LLST13
     /tmp/ccMEipbl.s:528    .text:00000000000001e4 .LVL34
     /tmp/ccMEipbl.s:5120   .debug_loc:000000000000050a .LLST14
     /tmp/ccMEipbl.s:5648   .debug_str:0000000000000caf .LASF176
     /tmp/ccMEipbl.s:5408   .debug_str:000000000000054a .LASF177
     /tmp/ccMEipbl.s:446    .text:0000000000000170 .LFB38
     /tmp/ccMEipbl.s:474    .text:0000000000000198 .LFE38
     /tmp/ccMEipbl.s:5137   .debug_loc:0000000000000555 .LLST10
     /tmp/ccMEipbl.s:463    .text:0000000000000188 .LVL30
     /tmp/ccMEipbl.s:5464   .debug_str:00000000000006ce .LASF178
     /tmp/ccMEipbl.s:296    .text:00000000000000e0 .LFB37
     /tmp/ccMEipbl.s:324    .text:0000000000000108 .LFE37
     /tmp/ccMEipbl.s:5151   .debug_loc:000000000000058e .LLST5
     /tmp/ccMEipbl.s:313    .text:00000000000000f8 .LVL18
     /tmp/ccMEipbl.s:5288   .debug_str:00000000000001b5 .LASF179
     /tmp/ccMEipbl.s:5556   .debug_str:0000000000000983 .LASF180
     /tmp/ccMEipbl.s:264    .text:00000000000000b8 .LFB36
     /tmp/ccMEipbl.s:290    .text:00000000000000e0 .LFE36
     /tmp/ccMEipbl.s:5320   .debug_str:00000000000002c0 .LASF181
     /tmp/ccMEipbl.s:5165   .debug_loc:00000000000005c7 .LLST4
     /tmp/ccMEipbl.s:279    .text:00000000000000d0 .LVL16
     /tmp/ccMEipbl.s:5602   .debug_str:0000000000000b77 .LASF182
     /tmp/ccMEipbl.s:232    .text:0000000000000090 .LFB35
     /tmp/ccMEipbl.s:258    .text:00000000000000b8 .LFE35
     /tmp/ccMEipbl.s:5179   .debug_loc:0000000000000600 .LLST3
     /tmp/ccMEipbl.s:247    .text:00000000000000a8 .LVL14
     /tmp/ccMEipbl.s:5510   .debug_str:0000000000000838 .LASF183
     /tmp/ccMEipbl.s:5362   .debug_str:00000000000003ec .LASF185
     /tmp/ccMEipbl.s:37     .text._ZN14PeriodicThread18periodicActivationEv:0000000000000000 .LFB1
     /tmp/ccMEipbl.s:55     .text._ZN14PeriodicThread18periodicActivationEv:0000000000000018 .LFE1
     /tmp/ccMEipbl.s:11     .text._ZN6Thread3runEv:0000000000000000 .LFB0
     /tmp/ccMEipbl.s:30     .text._ZN6Thread3runEv:0000000000000018 .LFE0
GAS LISTING /tmp/ccMEipbl.s 			page 39


     /tmp/ccMEipbl.s:5498   .debug_str:00000000000007d7 .LASF186
     /tmp/ccMEipbl.s:5376   .debug_str:0000000000000474 .LASF188
     /tmp/ccMEipbl.s:5650   .debug_str:0000000000000cc2 .LASF187
     /tmp/ccMEipbl.s:5654   .debug_str:0000000000000ce1 .LASF189
     /tmp/ccMEipbl.s:5636   .debug_str:0000000000000c64 .LASF190
     /tmp/ccMEipbl.s:5384   .debug_str:00000000000004a9 .LASF191
     /tmp/ccMEipbl.s:5272   .debug_str:0000000000000148 .LASF192
     /tmp/ccMEipbl.s:5486   .debug_str:000000000000077a .LASF193
     /tmp/ccMEipbl.s:5482   .debug_str:000000000000075b .LASF194
     /tmp/ccMEipbl.s:5264   .debug_str:0000000000000103 .LASF195
     /tmp/ccMEipbl.s:5446   .debug_str:000000000000063c .LASF196
     /tmp/ccMEipbl.s:5490   .debug_str:000000000000079c .LASF197
     /tmp/ccMEipbl.s:5520   .debug_str:000000000000088c .LASF198
     /tmp/ccMEipbl.s:5456   .debug_str:0000000000000697 .LASF199
     /tmp/ccMEipbl.s:5374   .debug_str:0000000000000466 .LASF200
     /tmp/ccMEipbl.s:5444   .debug_str:0000000000000632 .LASF201
     /tmp/ccMEipbl.s:371    .text._ZN14PeriodicThreadD0Ev:0000000000000000 .LVL21
     /tmp/ccMEipbl.s:380    .text._ZN14PeriodicThreadD0Ev:0000000000000010 .LVL22
     /tmp/ccMEipbl.s:386    .text._ZN14PeriodicThreadD0Ev:000000000000001c .LVL23
     /tmp/ccMEipbl.s:938    .text:00000000000003bc .LVL63
     /tmp/ccMEipbl.s:965    .text:00000000000003f4 .LVL65
     /tmp/ccMEipbl.s:880    .text:0000000000000378 .LVL59
     /tmp/ccMEipbl.s:892    .text:000000000000038c .LVL60
     /tmp/ccMEipbl.s:846    .text:000000000000034c .LVL56
     /tmp/ccMEipbl.s:858    .text:0000000000000360 .LVL57
     /tmp/ccMEipbl.s:410    .text:0000000000000130 .LVL25
     /tmp/ccMEipbl.s:435    .text:0000000000000168 .LVL28
     /tmp/ccMEipbl.s:126    .text:0000000000000018 .LVL4
     /tmp/ccMEipbl.s:145    .text:0000000000000040 .LVL5
     /tmp/ccMEipbl.s:151    .text:000000000000004c .LVL7
     /tmp/ccMEipbl.s:173    .text:0000000000000058 .LVL9
     /tmp/ccMEipbl.s:182    .text:0000000000000064 .LVL10
     /tmp/ccMEipbl.s:805    .text:0000000000000314 .LVL53
     /tmp/ccMEipbl.s:821    .text:0000000000000334 .LVL54
     /tmp/ccMEipbl.s:736    .text:00000000000002b4 .LVL49
     /tmp/ccMEipbl.s:750    .text:00000000000002d4 .LVL50
     /tmp/ccMEipbl.s:671    .text:0000000000000260 .LVL45
     /tmp/ccMEipbl.s:683    .text:0000000000000274 .LVL46
     /tmp/ccMEipbl.s:612    .text:0000000000000228 .LVL41
     /tmp/ccMEipbl.s:630    .text:0000000000000240 .LVL42
     /tmp/ccMEipbl.s:654    .text:0000000000000258 .LVL43
     /tmp/ccMEipbl.s:659    .text:000000000000025c .LVL44
     /tmp/ccMEipbl.s:340    .text:0000000000000108 .LVL19
     /tmp/ccMEipbl.s:490    .text:0000000000000198 .LVL31
     /tmp/ccMEipbl.s:526    .text:00000000000001dc .LVL33
     /tmp/ccMEipbl.s:552    .text:00000000000001f8 .LVL36
     /tmp/ccMEipbl.s:580    .text:0000000000000210 .LVL37
     /tmp/ccMEipbl.s:590    .text:0000000000000220 .LVL40
     /tmp/ccMEipbl.s:583    .text:0000000000000214 .LVL38
     /tmp/ccMEipbl.s:586    .text:0000000000000218 .LVL39
     /tmp/ccMEipbl.s:520    .text:00000000000001d4 .LVL32
     /tmp/ccMEipbl.s:530    .text:00000000000001e8 .LVL35
     /tmp/ccMEipbl.s:451    .text:0000000000000170 .LVL29
     /tmp/ccMEipbl.s:301    .text:00000000000000e0 .LVL17
     /tmp/ccMEipbl.s:267    .text:00000000000000b8 .LVL15
     /tmp/ccMEipbl.s:235    .text:0000000000000090 .LVL13
     /tmp/ccMEipbl.s:1063   .debug_info:0000000000000000 .Ldebug_info0
GAS LISTING /tmp/ccMEipbl.s 			page 40


     /tmp/ccMEipbl.s:5      .text:0000000000000000 .Ltext0
     /tmp/ccMEipbl.s:1056   .text:0000000000000430 .Letext0
     /tmp/ccMEipbl.s:512    .text:00000000000001cc .LBB46
     /tmp/ccMEipbl.s:569    .text:0000000000000204 .LBE46
     /tmp/ccMEipbl.s:594    .text:0000000000000220 .LBB47
     /tmp/ccMEipbl.s:598    .text:0000000000000228 .LBE47
     /tmp/ccMEipbl.s:219    .gcc_except_table:0000000000000000 .LLSDA60
     /tmp/ccMEipbl.s:326    .gcc_except_table:0000000000000004 .LLSDA37
     /tmp/ccMEipbl.s:476    .gcc_except_table:0000000000000008 .LLSDA38
                           .group:0000000000000000 _ZN14PeriodicThreadD5Ev

UNDEFINED SYMBOLS
_Z9sem_closeP4KSem
_Z8mem_freePv
_ZN4KSemdlEPv
__gxx_personality_v0
_Z9mem_allocm
_Z11thread_joinP3TCB
_Z15thread_dispatchv
_ZN3TCB7runningE
_ZN9Scheduler10putToSleepEP3TCBm
_Z8sem_openPP4KSemj
_Z8sem_waitP4KSem
_Z10sem_signalP4KSem
