GAS LISTING /tmp/ccjZp7TR.s 			page 1


   1              		.file	"syscall_c.cpp"
   2              		.option pic
   3              		.option norelax
   4              		.text
   5              	.Ltext0:
   6              		.align	2
   7              		.globl	_Z9mem_allocm
   9              	_Z9mem_allocm:
  10              	.LFB19:
  11              		.file 1 "src/syscall_c.cpp"
   1:src/syscall_c.cpp **** #include "../h/syscall_c.hpp"
   2:src/syscall_c.cpp **** #include "../h/Riscv.hpp"
   3:src/syscall_c.cpp **** #include "../h/MemoryAllocator.hpp"
   4:src/syscall_c.cpp **** 
   5:src/syscall_c.cpp **** inline void scall() {
   6:src/syscall_c.cpp **** 	__asm__ volatile("ecall");
   7:src/syscall_c.cpp **** }
   8:src/syscall_c.cpp **** 
   9:src/syscall_c.cpp **** void* mem_alloc(size_t size) {
  12              		.loc 1 9 30
  13              		.cfi_startproc
  14              	.LVL0:
  15 0000 130101FF 		addi	sp,sp,-16
  16              		.cfi_def_cfa_offset 16
  17 0004 23348100 		sd	s0,8(sp)
  18              		.cfi_offset 8, -8
  19 0008 13040101 		addi	s0,sp,16
  20              		.cfi_def_cfa 8, 0
  10:src/syscall_c.cpp **** 	//na size moramo dodati zaglavlje segmenta
  11:src/syscall_c.cpp **** 	size += sizeof(MemoryAllocator::UsedMemSegment);
  21              		.loc 1 11 2
  22              		.loc 1 11 7 is_stmt 0
  23 000c 13050501 		addi	a0,a0,16
  24              	.LVL1:
  12:src/syscall_c.cpp **** 	//size je u bajtovima, pretvara se u blokove
  13:src/syscall_c.cpp **** 	size = size / MEM_BLOCK_SIZE + (size % MEM_BLOCK_SIZE ? 1 : 0);
  25              		.loc 1 13 2 is_stmt 1
  26              		.loc 1 13 14 is_stmt 0
  27 0010 13536500 		srli	t1,a0,6
  28              		.loc 1 13 39
  29 0014 1375F503 		andi	a0,a0,63
  30              	.LVL2:
  31              		.loc 1 13 56
  32 0018 63040500 		beqz	a0,.L2
  33 001c 13051000 		li	a0,1
  34              	.L2:
  35              		.loc 1 13 7 discriminator 4
  36 0020 3303A300 		add	t1,t1,a0
  37              	.LVL3:
  14:src/syscall_c.cpp **** 
  15:src/syscall_c.cpp **** 	//stavljanje argumenata za sistemski poziv
  16:src/syscall_c.cpp **** 	__asm__ volatile("mv a1, %[size]": :[size] "r"(size):"a5", "a0", "a1", "a2", "a3", "a4", "a6", "a7
  38              		.loc 1 16 2 is_stmt 1 discriminator 4
  39              		.loc 1 16 102 is_stmt 0 discriminator 4
  40              	#APP
  41              	# 16 "src/syscall_c.cpp" 1
  17              		__asm__ volatile("li a0, 0x01");
GAS LISTING /tmp/ccjZp7TR.s 			page 2


  42              		mv a1, t1
  43              	# 0 "" 2
  44              		.loc 1 17 2 is_stmt 1 discriminator 4
  45              		.loc 1 17 33 is_stmt 0 discriminator 4
  46              	# 17 "src/syscall_c.cpp" 1
  18              		//a0 = 0x01
  19:src/syscall_c.cpp **** 	//a1 = broj blokova velicine MEM_BLOCK_SIZE za alokaciju
  20:src/syscall_c.cpp **** 
  21:src/syscall_c.cpp **** 	scall();
  47              		li a0, 0x01
  48              	# 0 "" 2
  49              		.loc 1 21 2 is_stmt 1 discriminator 4
  50              	#NO_APP
  51              	.LBB12:
  52              	.LBB13:
   6:src/syscall_c.cpp **** }
  53              		.loc 1 6 2 discriminator 4
   6:src/syscall_c.cpp **** }
  54              		.loc 1 6 27 is_stmt 0 discriminator 4
  55              	#APP
  56              	# 6 "src/syscall_c.cpp" 1
  57              		ecall
  58              	# 0 "" 2
  59              	#NO_APP
  60              	.LBE13:
  61              	.LBE12:
  22:src/syscall_c.cpp **** 
  23:src/syscall_c.cpp **** 	void* ret;
  62              		.loc 1 23 2 is_stmt 1 discriminator 4
  24:src/syscall_c.cpp **** 	__asm__ volatile("mv %[ptr], a0":[ptr] "=r"(ret));
  63              		.loc 1 24 2 discriminator 4
  64              		.loc 1 24 51 is_stmt 0 discriminator 4
  65              	#APP
  66              	# 24 "src/syscall_c.cpp" 1
  25              		return ret;
  67              		mv a0, a0
  68              	# 0 "" 2
  69              	.LVL4:
  70              		.loc 1 25 2 is_stmt 1 discriminator 4
  26:src/syscall_c.cpp **** }
  71              		.loc 1 26 1 is_stmt 0 discriminator 4
  72              	#NO_APP
  73 0034 03348100 		ld	s0,8(sp)
  74              		.cfi_restore 8
  75              		.cfi_def_cfa 2, 16
  76 0038 13010101 		addi	sp,sp,16
  77              		.cfi_def_cfa_offset 0
  78 003c 67800000 		jr	ra
  79              		.cfi_endproc
  80              	.LFE19:
  82              		.align	2
  83              		.globl	_Z8mem_freePv
  85              	_Z8mem_freePv:
  86              	.LFB20:
  27:src/syscall_c.cpp **** 
  28:src/syscall_c.cpp **** int mem_free(void* ptr) {
  87              		.loc 1 28 25 is_stmt 1
GAS LISTING /tmp/ccjZp7TR.s 			page 3


  88              		.cfi_startproc
  89              	.LVL5:
  90 0040 130101FF 		addi	sp,sp,-16
  91              		.cfi_def_cfa_offset 16
  92 0044 23348100 		sd	s0,8(sp)
  93              		.cfi_offset 8, -8
  94 0048 13040101 		addi	s0,sp,16
  95              		.cfi_def_cfa 8, 0
  96 004c 13030500 		mv	t1,a0
  29:src/syscall_c.cpp **** 	//stavljanje argumenata za sistemski poziv
  30:src/syscall_c.cpp **** 	__asm__ volatile("mv a1, %[ptr]": :[ptr] "r"(ptr):"a5", "a0", "a1", "a2", "a3", "a4", "a6", "a7");
  97              		.loc 1 30 2
  98              		.loc 1 30 99 is_stmt 0
  99              	#APP
 100              	# 30 "src/syscall_c.cpp" 1
  31              		__asm__ volatile("li a0, 0x02");
 101              		mv a1, t1
 102              	# 0 "" 2
 103              	.LVL6:
 104              		.loc 1 31 2 is_stmt 1
 105              		.loc 1 31 33 is_stmt 0
 106              	# 31 "src/syscall_c.cpp" 1
  32              		//a0 = 0x02
  33:src/syscall_c.cpp **** 	//a1 = pokazivac na memoriju koju treba dealocirati
  34:src/syscall_c.cpp **** 
  35:src/syscall_c.cpp **** 	scall();
 107              		li a0, 0x02
 108              	# 0 "" 2
 109              		.loc 1 35 2 is_stmt 1
 110              	#NO_APP
 111              	.LBB14:
 112              	.LBB15:
   6:src/syscall_c.cpp **** }
 113              		.loc 1 6 2
   6:src/syscall_c.cpp **** }
 114              		.loc 1 6 27 is_stmt 0
 115              	#APP
 116              	# 6 "src/syscall_c.cpp" 1
 117              		ecall
 118              	# 0 "" 2
 119              	#NO_APP
 120              	.LBE15:
 121              	.LBE14:
  36:src/syscall_c.cpp **** 
  37:src/syscall_c.cpp **** 	int status;
 122              		.loc 1 37 2 is_stmt 1
  38:src/syscall_c.cpp **** 	__asm__ volatile("mv %[status], a0":[status] "=r"(status));
 123              		.loc 1 38 2
 124              		.loc 1 38 60 is_stmt 0
 125              	#APP
 126              	# 38 "src/syscall_c.cpp" 1
  39              		return status;
 127              		mv a0, a0
 128              	# 0 "" 2
 129              	.LVL7:
 130              		.loc 1 39 2 is_stmt 1
  40:src/syscall_c.cpp **** }
GAS LISTING /tmp/ccjZp7TR.s 			page 4


 131              		.loc 1 40 1 is_stmt 0
 132              	#NO_APP
 133 0060 1B050500 		sext.w	a0,a0
 134 0064 03348100 		ld	s0,8(sp)
 135              		.cfi_restore 8
 136              		.cfi_def_cfa 2, 16
 137 0068 13010101 		addi	sp,sp,16
 138              		.cfi_def_cfa_offset 0
 139 006c 67800000 		jr	ra
 140              		.cfi_endproc
 141              	.LFE20:
 143              		.align	2
 144              		.globl	_Z13thread_createPP3TCBPFvPvES2_
 146              	_Z13thread_createPP3TCBPFvPvES2_:
 147              	.LFB21:
  41:src/syscall_c.cpp **** 
  42:src/syscall_c.cpp **** int thread_create(thread_t* handle, void (* start_routine)(void*), void* arg) {
 148              		.loc 1 42 79 is_stmt 1
 149              		.cfi_startproc
 150              	.LVL8:
 151 0070 130101FD 		addi	sp,sp,-48
 152              		.cfi_def_cfa_offset 48
 153 0074 23341102 		sd	ra,40(sp)
 154 0078 23308102 		sd	s0,32(sp)
 155 007c 233C9100 		sd	s1,24(sp)
 156 0080 23382101 		sd	s2,16(sp)
 157 0084 23343101 		sd	s3,8(sp)
 158              		.cfi_offset 1, -8
 159              		.cfi_offset 8, -16
 160              		.cfi_offset 9, -24
 161              		.cfi_offset 18, -32
 162              		.cfi_offset 19, -40
 163 0088 13040103 		addi	s0,sp,48
 164              		.cfi_def_cfa 8, 0
 165 008c 13090500 		mv	s2,a0
 166 0090 93840500 		mv	s1,a1
 167 0094 93090600 		mv	s3,a2
  43:src/syscall_c.cpp **** 	//stvaranje steka ako se ne radi o main kernel niti, posto ona automatski ima stek
  44:src/syscall_c.cpp **** 	uint64* stack = (start_routine != nullptr ? (uint64*)MemoryAllocator::kmalloc(DEFAULT_STACK_SIZE) 
 168              		.loc 1 44 2
 169              		.loc 1 44 44 is_stmt 0
 170 0098 63880504 		beqz	a1,.L8
 171              		.loc 1 44 79 discriminator 1
 172 009c 37150000 		li	a0,4096
 173              	.LVL9:
 174 00a0 97000000 		call	_ZN15MemoryAllocator7kmallocEm@plt
 174      E7800000 
 175              	.LVL10:
 176 00a8 13030500 		mv	t1,a0
 177              	.L7:
 178              	.LVL11:
  45:src/syscall_c.cpp **** 	//stavljanje argumenata za sistemski poziv
  46:src/syscall_c.cpp **** 	__asm__ volatile("mv a4, %[sp]": :[sp] "r"(stack):"a5", "a0", "a1", "a2", "a3", "a4", "a6", "a7");
 179              		.loc 1 46 2 is_stmt 1 discriminator 4
 180              		.loc 1 46 99 is_stmt 0 discriminator 4
 181              	#APP
 182              	# 46 "src/syscall_c.cpp" 1
GAS LISTING /tmp/ccjZp7TR.s 			page 5


  47              		__asm__ volatile("mv a3, %[arg]": :[arg] "r"(arg):"a5", "a0", "a1", "a2", "a3", "a4", "a6", "a7");
 183              		mv a4, t1
 184              	# 0 "" 2
 185              		.loc 1 47 2 is_stmt 1 discriminator 4
 186              		.loc 1 47 99 is_stmt 0 discriminator 4
 187              	# 47 "src/syscall_c.cpp" 1
  48              		__asm__ volatile("mv a2, %[function]": :[function] "r"(
 188              		mv a3, s3
 189              	# 0 "" 2
 190              		.loc 1 48 2 is_stmt 1 discriminator 4
  49:src/syscall_c.cpp **** 			start_routine):"a5", "a0", "a1", "a2", "a3", "a4", "a6", "a7");
 191              		.loc 1 49 66 is_stmt 0 discriminator 4
 192              	# 49 "src/syscall_c.cpp" 1
  50              		__asm__ volatile("mv a1, %[handle]": :[handle] "r"(handle):"a5", "a0", "a1", "a2", "a3", "a4", "a6
 193              		mv a2, s1
 194              	# 0 "" 2
 195              		.loc 1 50 2 is_stmt 1 discriminator 4
 196              		.loc 1 50 108 is_stmt 0 discriminator 4
 197              	# 50 "src/syscall_c.cpp" 1
  51              		__asm__ volatile("li a0, 0x11");
 198              		mv a1, s2
 199              	# 0 "" 2
 200              		.loc 1 51 2 is_stmt 1 discriminator 4
 201              		.loc 1 51 33 is_stmt 0 discriminator 4
 202              	# 51 "src/syscall_c.cpp" 1
  52              		//a0 = 0x11
  53:src/syscall_c.cpp **** 	//a1 = adresa pokazivaca na rucku niti
  54:src/syscall_c.cpp **** 	//a2 = prva adresa funkcije koju nit izvrsava
  55:src/syscall_c.cpp **** 	//a3 = pokazivac na argumente funkcije
  56:src/syscall_c.cpp **** 	//a4 = pokazivac na najnizu adresu steka (stek raste ka nizim adresama, pokazuje na poslednju zauz
  57:src/syscall_c.cpp **** 
  58:src/syscall_c.cpp **** 	scall();
 203              		li a0, 0x11
 204              	# 0 "" 2
 205              		.loc 1 58 2 is_stmt 1 discriminator 4
 206              	#NO_APP
 207              	.LBB16:
 208              	.LBB17:
   6:src/syscall_c.cpp **** }
 209              		.loc 1 6 2 discriminator 4
   6:src/syscall_c.cpp **** }
 210              		.loc 1 6 27 is_stmt 0 discriminator 4
 211              	#APP
 212              	# 6 "src/syscall_c.cpp" 1
 213              		ecall
 214              	# 0 "" 2
 215              	#NO_APP
 216              	.LBE17:
 217              	.LBE16:
  59:src/syscall_c.cpp **** 
  60:src/syscall_c.cpp **** 	int status;
 218              		.loc 1 60 2 is_stmt 1 discriminator 4
  61:src/syscall_c.cpp **** 	__asm__ volatile("mv %[status], a0":[status] "=r"(status));
 219              		.loc 1 61 2 discriminator 4
 220              		.loc 1 61 60 is_stmt 0 discriminator 4
 221              	#APP
 222              	# 61 "src/syscall_c.cpp" 1
GAS LISTING /tmp/ccjZp7TR.s 			page 6


  62              		return status;
 223              		mv a0, a0
 224              	# 0 "" 2
 225              	.LVL12:
 226              		.loc 1 62 2 is_stmt 1 discriminator 4
  63:src/syscall_c.cpp **** }
 227              		.loc 1 63 1 is_stmt 0 discriminator 4
 228              	#NO_APP
 229 00c8 1B050500 		sext.w	a0,a0
 230 00cc 83308102 		ld	ra,40(sp)
 231              		.cfi_remember_state
 232              		.cfi_restore 1
 233 00d0 03340102 		ld	s0,32(sp)
 234              		.cfi_restore 8
 235              		.cfi_def_cfa 2, 48
 236 00d4 83348101 		ld	s1,24(sp)
 237              		.cfi_restore 9
 238              	.LVL13:
 239 00d8 03390101 		ld	s2,16(sp)
 240              		.cfi_restore 18
 241              	.LVL14:
 242 00dc 83398100 		ld	s3,8(sp)
 243              		.cfi_restore 19
 244              	.LVL15:
 245 00e0 13010103 		addi	sp,sp,48
 246              		.cfi_def_cfa_offset 0
 247 00e4 67800000 		jr	ra
 248              	.LVL16:
 249              	.L8:
 250              		.cfi_restore_state
  44:src/syscall_c.cpp **** 	//stavljanje argumenata za sistemski poziv
 251              		.loc 1 44 44
 252 00e8 13030000 		li	t1,0
 253 00ec 6FF01FFC 		j	.L7
 254              		.cfi_endproc
 255              	.LFE21:
 257              		.align	2
 258              		.globl	_Z11thread_exitv
 260              	_Z11thread_exitv:
 261              	.LFB22:
  64:src/syscall_c.cpp **** 
  65:src/syscall_c.cpp **** int thread_exit() {
 262              		.loc 1 65 19 is_stmt 1
 263              		.cfi_startproc
 264 00f0 130101FF 		addi	sp,sp,-16
 265              		.cfi_def_cfa_offset 16
 266 00f4 23348100 		sd	s0,8(sp)
 267              		.cfi_offset 8, -8
 268 00f8 13040101 		addi	s0,sp,16
 269              		.cfi_def_cfa 8, 0
  66:src/syscall_c.cpp **** 	//nema argumenata, samo kod sistemskog poziva
  67:src/syscall_c.cpp **** 	__asm__ volatile("li a0, 0x12");
 270              		.loc 1 67 2
 271              		.loc 1 67 33 is_stmt 0
 272              	#APP
 273              	# 67 "src/syscall_c.cpp" 1
  68              	
GAS LISTING /tmp/ccjZp7TR.s 			page 7


  69:src/syscall_c.cpp **** 	scall();
 274              		li a0, 0x12
 275              	# 0 "" 2
 276              		.loc 1 69 2 is_stmt 1
 277              	#NO_APP
 278              	.LBB18:
 279              	.LBB19:
   6:src/syscall_c.cpp **** }
 280              		.loc 1 6 2
   6:src/syscall_c.cpp **** }
 281              		.loc 1 6 27 is_stmt 0
 282              	#APP
 283              	# 6 "src/syscall_c.cpp" 1
 284              		ecall
 285              	# 0 "" 2
 286              	#NO_APP
 287              	.LBE19:
 288              	.LBE18:
  70:src/syscall_c.cpp **** 
  71:src/syscall_c.cpp **** 	int status;
 289              		.loc 1 71 2 is_stmt 1
  72:src/syscall_c.cpp **** 	__asm__ volatile("mv %[status], a0":[status] "=r"(status));
 290              		.loc 1 72 2
 291              		.loc 1 72 60 is_stmt 0
 292              	#APP
 293              	# 72 "src/syscall_c.cpp" 1
  73              		return status;
 294              		mv a0, a0
 295              	# 0 "" 2
 296              	.LVL17:
 297              		.loc 1 73 2 is_stmt 1
  74:src/syscall_c.cpp **** }
 298              		.loc 1 74 1 is_stmt 0
 299              	#NO_APP
 300 0108 1B050500 		sext.w	a0,a0
 301 010c 03348100 		ld	s0,8(sp)
 302              		.cfi_restore 8
 303              		.cfi_def_cfa 2, 16
 304 0110 13010101 		addi	sp,sp,16
 305              		.cfi_def_cfa_offset 0
 306 0114 67800000 		jr	ra
 307              		.cfi_endproc
 308              	.LFE22:
 310              		.align	2
 311              		.globl	_Z15thread_dispatchv
 313              	_Z15thread_dispatchv:
 314              	.LFB23:
  75:src/syscall_c.cpp **** 
  76:src/syscall_c.cpp **** void thread_dispatch() {
 315              		.loc 1 76 24 is_stmt 1
 316              		.cfi_startproc
 317 0118 130101FF 		addi	sp,sp,-16
 318              		.cfi_def_cfa_offset 16
 319 011c 23348100 		sd	s0,8(sp)
 320              		.cfi_offset 8, -8
 321 0120 13040101 		addi	s0,sp,16
 322              		.cfi_def_cfa 8, 0
GAS LISTING /tmp/ccjZp7TR.s 			page 8


  77:src/syscall_c.cpp **** 	//nema argumenata, samo kod sistemskog poziva
  78:src/syscall_c.cpp **** 	__asm__ volatile("li a0, 0x13");
 323              		.loc 1 78 2
 324              		.loc 1 78 33 is_stmt 0
 325              	#APP
 326              	# 78 "src/syscall_c.cpp" 1
  79              	
  80:src/syscall_c.cpp **** 	scall();
 327              		li a0, 0x13
 328              	# 0 "" 2
 329              		.loc 1 80 2 is_stmt 1
 330              	#NO_APP
 331              	.LBB20:
 332              	.LBB21:
   6:src/syscall_c.cpp **** }
 333              		.loc 1 6 2
   6:src/syscall_c.cpp **** }
 334              		.loc 1 6 27 is_stmt 0
 335              	#APP
 336              	# 6 "src/syscall_c.cpp" 1
 337              		ecall
 338              	# 0 "" 2
 339              	#NO_APP
 340              	.LBE21:
 341              	.LBE20:
  81:src/syscall_c.cpp **** 	//nema povratne vrednosti
  82:src/syscall_c.cpp **** }
 342              		.loc 1 82 1
 343 012c 03348100 		ld	s0,8(sp)
 344              		.cfi_restore 8
 345              		.cfi_def_cfa 2, 16
 346 0130 13010101 		addi	sp,sp,16
 347              		.cfi_def_cfa_offset 0
 348 0134 67800000 		jr	ra
 349              		.cfi_endproc
 350              	.LFE23:
 352              		.align	2
 353              		.globl	_Z11thread_joinP3TCB
 355              	_Z11thread_joinP3TCB:
 356              	.LFB24:
  83:src/syscall_c.cpp **** 
  84:src/syscall_c.cpp **** void thread_join(thread_t handle) {
 357              		.loc 1 84 35 is_stmt 1
 358              		.cfi_startproc
 359              	.LVL18:
 360 0138 130101FF 		addi	sp,sp,-16
 361              		.cfi_def_cfa_offset 16
 362 013c 23348100 		sd	s0,8(sp)
 363              		.cfi_offset 8, -8
 364 0140 13040101 		addi	s0,sp,16
 365              		.cfi_def_cfa 8, 0
  85:src/syscall_c.cpp **** 
  86:src/syscall_c.cpp **** }
 366              		.loc 1 86 1 is_stmt 0
 367 0144 03348100 		ld	s0,8(sp)
 368              		.cfi_restore 8
 369              		.cfi_def_cfa 2, 16
GAS LISTING /tmp/ccjZp7TR.s 			page 9


 370 0148 13010101 		addi	sp,sp,16
 371              		.cfi_def_cfa_offset 0
 372 014c 67800000 		jr	ra
 373              		.cfi_endproc
 374              	.LFE24:
 376              		.align	2
 377              		.globl	_Z10time_sleepm
 379              	_Z10time_sleepm:
 380              	.LFB25:
  87:src/syscall_c.cpp **** 
  88:src/syscall_c.cpp **** int time_sleep(time_t) {
 381              		.loc 1 88 24 is_stmt 1
 382              		.cfi_startproc
 383 0150 130101FF 		addi	sp,sp,-16
 384              		.cfi_def_cfa_offset 16
 385 0154 23348100 		sd	s0,8(sp)
 386              		.cfi_offset 8, -8
 387 0158 13040101 		addi	s0,sp,16
 388              		.cfi_def_cfa 8, 0
  89:src/syscall_c.cpp **** 	return 0;
 389              		.loc 1 89 2
  90:src/syscall_c.cpp **** }
 390              		.loc 1 90 1 is_stmt 0
 391 015c 13050000 		li	a0,0
 392 0160 03348100 		ld	s0,8(sp)
 393              		.cfi_restore 8
 394              		.cfi_def_cfa 2, 16
 395 0164 13010101 		addi	sp,sp,16
 396              		.cfi_def_cfa_offset 0
 397 0168 67800000 		jr	ra
 398              		.cfi_endproc
 399              	.LFE25:
 401              		.align	2
 402              		.globl	_Z8sem_openPP4_semj
 404              	_Z8sem_openPP4_semj:
 405              	.LFB26:
  91:src/syscall_c.cpp **** 
  92:src/syscall_c.cpp **** int sem_open(sem_t* handle, unsigned int init) {
 406              		.loc 1 92 48 is_stmt 1
 407              		.cfi_startproc
 408              	.LVL19:
 409 016c 130101FF 		addi	sp,sp,-16
 410              		.cfi_def_cfa_offset 16
 411 0170 23348100 		sd	s0,8(sp)
 412              		.cfi_offset 8, -8
 413 0174 13040101 		addi	s0,sp,16
 414              		.cfi_def_cfa 8, 0
  93:src/syscall_c.cpp **** 	return 0;
 415              		.loc 1 93 2
  94:src/syscall_c.cpp **** }
 416              		.loc 1 94 1 is_stmt 0
 417 0178 13050000 		li	a0,0
 418              	.LVL20:
 419 017c 03348100 		ld	s0,8(sp)
 420              		.cfi_restore 8
 421              		.cfi_def_cfa 2, 16
 422 0180 13010101 		addi	sp,sp,16
GAS LISTING /tmp/ccjZp7TR.s 			page 10


 423              		.cfi_def_cfa_offset 0
 424 0184 67800000 		jr	ra
 425              		.cfi_endproc
 426              	.LFE26:
 428              		.align	2
 429              		.globl	_Z9sem_closeP4_sem
 431              	_Z9sem_closeP4_sem:
 432              	.LFB27:
  95:src/syscall_c.cpp **** 
  96:src/syscall_c.cpp **** int sem_close(sem_t handle) {
 433              		.loc 1 96 29 is_stmt 1
 434              		.cfi_startproc
 435              	.LVL21:
 436 0188 130101FF 		addi	sp,sp,-16
 437              		.cfi_def_cfa_offset 16
 438 018c 23348100 		sd	s0,8(sp)
 439              		.cfi_offset 8, -8
 440 0190 13040101 		addi	s0,sp,16
 441              		.cfi_def_cfa 8, 0
  97:src/syscall_c.cpp **** 	return 0;
 442              		.loc 1 97 2
  98:src/syscall_c.cpp **** }
 443              		.loc 1 98 1 is_stmt 0
 444 0194 13050000 		li	a0,0
 445              	.LVL22:
 446 0198 03348100 		ld	s0,8(sp)
 447              		.cfi_restore 8
 448              		.cfi_def_cfa 2, 16
 449 019c 13010101 		addi	sp,sp,16
 450              		.cfi_def_cfa_offset 0
 451 01a0 67800000 		jr	ra
 452              		.cfi_endproc
 453              	.LFE27:
 455              		.align	2
 456              		.globl	_Z8sem_waitP4_sem
 458              	_Z8sem_waitP4_sem:
 459              	.LFB28:
  99:src/syscall_c.cpp **** 
 100:src/syscall_c.cpp **** int sem_wait(sem_t id) {
 460              		.loc 1 100 24 is_stmt 1
 461              		.cfi_startproc
 462              	.LVL23:
 463 01a4 130101FF 		addi	sp,sp,-16
 464              		.cfi_def_cfa_offset 16
 465 01a8 23348100 		sd	s0,8(sp)
 466              		.cfi_offset 8, -8
 467 01ac 13040101 		addi	s0,sp,16
 468              		.cfi_def_cfa 8, 0
 101:src/syscall_c.cpp **** 	return 0;
 469              		.loc 1 101 2
 102:src/syscall_c.cpp **** }
 470              		.loc 1 102 1 is_stmt 0
 471 01b0 13050000 		li	a0,0
 472              	.LVL24:
 473 01b4 03348100 		ld	s0,8(sp)
 474              		.cfi_restore 8
 475              		.cfi_def_cfa 2, 16
GAS LISTING /tmp/ccjZp7TR.s 			page 11


 476 01b8 13010101 		addi	sp,sp,16
 477              		.cfi_def_cfa_offset 0
 478 01bc 67800000 		jr	ra
 479              		.cfi_endproc
 480              	.LFE28:
 482              		.align	2
 483              		.globl	_Z10sem_signalP4_sem
 485              	_Z10sem_signalP4_sem:
 486              	.LFB29:
 103:src/syscall_c.cpp **** 
 104:src/syscall_c.cpp **** int sem_signal(sem_t id) {
 487              		.loc 1 104 26 is_stmt 1
 488              		.cfi_startproc
 489              	.LVL25:
 490 01c0 130101FF 		addi	sp,sp,-16
 491              		.cfi_def_cfa_offset 16
 492 01c4 23348100 		sd	s0,8(sp)
 493              		.cfi_offset 8, -8
 494 01c8 13040101 		addi	s0,sp,16
 495              		.cfi_def_cfa 8, 0
 105:src/syscall_c.cpp **** 	return 0;
 496              		.loc 1 105 2
 106:src/syscall_c.cpp **** }
 497              		.loc 1 106 1 is_stmt 0
 498 01cc 13050000 		li	a0,0
 499              	.LVL26:
 500 01d0 03348100 		ld	s0,8(sp)
 501              		.cfi_restore 8
 502              		.cfi_def_cfa 2, 16
 503 01d4 13010101 		addi	sp,sp,16
 504              		.cfi_def_cfa_offset 0
 505 01d8 67800000 		jr	ra
 506              		.cfi_endproc
 507              	.LFE29:
 509              		.align	2
 510              		.globl	_Z4getcv
 512              	_Z4getcv:
 513              	.LFB30:
 107:src/syscall_c.cpp **** 
 108:src/syscall_c.cpp **** char getc() {
 514              		.loc 1 108 13 is_stmt 1
 515              		.cfi_startproc
 516 01dc 130101FF 		addi	sp,sp,-16
 517              		.cfi_def_cfa_offset 16
 518 01e0 23348100 		sd	s0,8(sp)
 519              		.cfi_offset 8, -8
 520 01e4 13040101 		addi	s0,sp,16
 521              		.cfi_def_cfa 8, 0
 109:src/syscall_c.cpp **** 	return 0;
 522              		.loc 1 109 2
 110:src/syscall_c.cpp **** }
 523              		.loc 1 110 1 is_stmt 0
 524 01e8 13050000 		li	a0,0
 525 01ec 03348100 		ld	s0,8(sp)
 526              		.cfi_restore 8
 527              		.cfi_def_cfa 2, 16
 528 01f0 13010101 		addi	sp,sp,16
GAS LISTING /tmp/ccjZp7TR.s 			page 12


 529              		.cfi_def_cfa_offset 0
 530 01f4 67800000 		jr	ra
 531              		.cfi_endproc
 532              	.LFE30:
 534              		.align	2
 535              		.globl	_Z4putcc
 537              	_Z4putcc:
 538              	.LFB31:
 111:src/syscall_c.cpp **** 
 112:src/syscall_c.cpp **** void putc(char) {
 539              		.loc 1 112 17 is_stmt 1
 540              		.cfi_startproc
 541 01f8 130101FF 		addi	sp,sp,-16
 542              		.cfi_def_cfa_offset 16
 543 01fc 23348100 		sd	s0,8(sp)
 544              		.cfi_offset 8, -8
 545 0200 13040101 		addi	s0,sp,16
 546              		.cfi_def_cfa 8, 0
 113:src/syscall_c.cpp **** 
 114:src/syscall_c.cpp **** }
 547              		.loc 1 114 1 is_stmt 0
 548 0204 03348100 		ld	s0,8(sp)
 549              		.cfi_restore 8
 550              		.cfi_def_cfa 2, 16
 551 0208 13010101 		addi	sp,sp,16
 552              		.cfi_def_cfa_offset 0
 553 020c 67800000 		jr	ra
 554              		.cfi_endproc
 555              	.LFE31:
 557              	.Letext0:
 558              		.file 2 "src/../h/../lib/hw.h"
 559              		.file 3 "src/../h/syscall_c.hpp"
 560              		.file 4 "src/../h/MemoryAllocator.hpp"
GAS LISTING /tmp/ccjZp7TR.s 			page 13


DEFINED SYMBOLS
                            *ABS*:0000000000000000 syscall_c.cpp
     /tmp/ccjZp7TR.s:9      .text:0000000000000000 _Z9mem_allocm
     /tmp/ccjZp7TR.s:13     .text:0000000000000000 .L0 
     /tmp/ccjZp7TR.s:15     .text:0000000000000000 .L0 
     /tmp/ccjZp7TR.s:16     .text:0000000000000004 .L0 
     /tmp/ccjZp7TR.s:18     .text:0000000000000008 .L0 
     /tmp/ccjZp7TR.s:20     .text:000000000000000c .L0 
     /tmp/ccjZp7TR.s:22     .text:000000000000000c .L0 
     /tmp/ccjZp7TR.s:23     .text:000000000000000c .L0 
     /tmp/ccjZp7TR.s:26     .text:0000000000000010 .L0 
     /tmp/ccjZp7TR.s:27     .text:0000000000000010 .L0 
     /tmp/ccjZp7TR.s:29     .text:0000000000000014 .L0 
     /tmp/ccjZp7TR.s:32     .text:0000000000000018 .L0 
     /tmp/ccjZp7TR.s:36     .text:0000000000000020 .L0 
     /tmp/ccjZp7TR.s:39     .text:0000000000000024 .L0 
   src/syscall_c.cpp:16     .text:0000000000000024 .L0 
     /tmp/ccjZp7TR.s:45     .text:0000000000000028 .L0 
   src/syscall_c.cpp:17     .text:0000000000000028 .L0 
     /tmp/ccjZp7TR.s:53     .text:000000000000002c .L0 
     /tmp/ccjZp7TR.s:54     .text:000000000000002c .L0 
   src/syscall_c.cpp:6      .text:000000000000002c .L0 
     /tmp/ccjZp7TR.s:63     .text:0000000000000030 .L0 
     /tmp/ccjZp7TR.s:64     .text:0000000000000030 .L0 
   src/syscall_c.cpp:24     .text:0000000000000030 .L0 
     /tmp/ccjZp7TR.s:71     .text:0000000000000034 .L0 
     /tmp/ccjZp7TR.s:73     .text:0000000000000034 .L0 
     /tmp/ccjZp7TR.s:74     .text:0000000000000038 .L0 
     /tmp/ccjZp7TR.s:75     .text:0000000000000038 .L0 
     /tmp/ccjZp7TR.s:77     .text:000000000000003c .L0 
     /tmp/ccjZp7TR.s:79     .text:0000000000000040 .L0 
     /tmp/ccjZp7TR.s:85     .text:0000000000000040 _Z8mem_freePv
     /tmp/ccjZp7TR.s:88     .text:0000000000000040 .L0 
     /tmp/ccjZp7TR.s:90     .text:0000000000000040 .L0 
     /tmp/ccjZp7TR.s:91     .text:0000000000000044 .L0 
     /tmp/ccjZp7TR.s:93     .text:0000000000000048 .L0 
     /tmp/ccjZp7TR.s:95     .text:000000000000004c .L0 
     /tmp/ccjZp7TR.s:98     .text:0000000000000050 .L0 
   src/syscall_c.cpp:30     .text:0000000000000050 .L0 
     /tmp/ccjZp7TR.s:105    .text:0000000000000054 .L0 
   src/syscall_c.cpp:31     .text:0000000000000054 .L0 
     /tmp/ccjZp7TR.s:113    .text:0000000000000058 .L0 
     /tmp/ccjZp7TR.s:114    .text:0000000000000058 .L0 
   src/syscall_c.cpp:6      .text:0000000000000058 .L0 
     /tmp/ccjZp7TR.s:123    .text:000000000000005c .L0 
     /tmp/ccjZp7TR.s:124    .text:000000000000005c .L0 
   src/syscall_c.cpp:38     .text:000000000000005c .L0 
     /tmp/ccjZp7TR.s:131    .text:0000000000000060 .L0 
     /tmp/ccjZp7TR.s:133    .text:0000000000000060 .L0 
     /tmp/ccjZp7TR.s:135    .text:0000000000000068 .L0 
     /tmp/ccjZp7TR.s:136    .text:0000000000000068 .L0 
     /tmp/ccjZp7TR.s:138    .text:000000000000006c .L0 
     /tmp/ccjZp7TR.s:140    .text:0000000000000070 .L0 
     /tmp/ccjZp7TR.s:146    .text:0000000000000070 _Z13thread_createPP3TCBPFvPvES2_
     /tmp/ccjZp7TR.s:149    .text:0000000000000070 .L0 
     /tmp/ccjZp7TR.s:151    .text:0000000000000070 .L0 
     /tmp/ccjZp7TR.s:152    .text:0000000000000074 .L0 
GAS LISTING /tmp/ccjZp7TR.s 			page 14


     /tmp/ccjZp7TR.s:158    .text:0000000000000088 .L0 
     /tmp/ccjZp7TR.s:159    .text:0000000000000088 .L0 
     /tmp/ccjZp7TR.s:160    .text:0000000000000088 .L0 
     /tmp/ccjZp7TR.s:161    .text:0000000000000088 .L0 
     /tmp/ccjZp7TR.s:162    .text:0000000000000088 .L0 
     /tmp/ccjZp7TR.s:164    .text:000000000000008c .L0 
     /tmp/ccjZp7TR.s:169    .text:0000000000000098 .L0 
     /tmp/ccjZp7TR.s:170    .text:0000000000000098 .L0 
     /tmp/ccjZp7TR.s:172    .text:000000000000009c .L0 
     /tmp/ccjZp7TR.s:180    .text:00000000000000ac .L0 
   src/syscall_c.cpp:46     .text:00000000000000ac .L0 
     /tmp/ccjZp7TR.s:186    .text:00000000000000b0 .L0 
   src/syscall_c.cpp:47     .text:00000000000000b0 .L0 
     /tmp/ccjZp7TR.s:191    .text:00000000000000b4 .L0 
   src/syscall_c.cpp:49     .text:00000000000000b4 .L0 
     /tmp/ccjZp7TR.s:196    .text:00000000000000b8 .L0 
   src/syscall_c.cpp:50     .text:00000000000000b8 .L0 
     /tmp/ccjZp7TR.s:201    .text:00000000000000bc .L0 
   src/syscall_c.cpp:51     .text:00000000000000bc .L0 
     /tmp/ccjZp7TR.s:209    .text:00000000000000c0 .L0 
     /tmp/ccjZp7TR.s:210    .text:00000000000000c0 .L0 
   src/syscall_c.cpp:6      .text:00000000000000c0 .L0 
     /tmp/ccjZp7TR.s:219    .text:00000000000000c4 .L0 
     /tmp/ccjZp7TR.s:220    .text:00000000000000c4 .L0 
   src/syscall_c.cpp:61     .text:00000000000000c4 .L0 
     /tmp/ccjZp7TR.s:227    .text:00000000000000c8 .L0 
     /tmp/ccjZp7TR.s:229    .text:00000000000000c8 .L0 
     /tmp/ccjZp7TR.s:231    .text:00000000000000d0 .L0 
     /tmp/ccjZp7TR.s:232    .text:00000000000000d0 .L0 
     /tmp/ccjZp7TR.s:234    .text:00000000000000d4 .L0 
     /tmp/ccjZp7TR.s:235    .text:00000000000000d4 .L0 
     /tmp/ccjZp7TR.s:237    .text:00000000000000d8 .L0 
     /tmp/ccjZp7TR.s:240    .text:00000000000000dc .L0 
     /tmp/ccjZp7TR.s:243    .text:00000000000000e0 .L0 
     /tmp/ccjZp7TR.s:246    .text:00000000000000e4 .L0 
     /tmp/ccjZp7TR.s:250    .text:00000000000000e8 .L0 
     /tmp/ccjZp7TR.s:252    .text:00000000000000e8 .L0 
     /tmp/ccjZp7TR.s:254    .text:00000000000000f0 .L0 
     /tmp/ccjZp7TR.s:260    .text:00000000000000f0 _Z11thread_exitv
     /tmp/ccjZp7TR.s:263    .text:00000000000000f0 .L0 
     /tmp/ccjZp7TR.s:264    .text:00000000000000f0 .L0 
     /tmp/ccjZp7TR.s:265    .text:00000000000000f4 .L0 
     /tmp/ccjZp7TR.s:267    .text:00000000000000f8 .L0 
     /tmp/ccjZp7TR.s:269    .text:00000000000000fc .L0 
     /tmp/ccjZp7TR.s:271    .text:00000000000000fc .L0 
   src/syscall_c.cpp:67     .text:00000000000000fc .L0 
     /tmp/ccjZp7TR.s:280    .text:0000000000000100 .L0 
     /tmp/ccjZp7TR.s:281    .text:0000000000000100 .L0 
   src/syscall_c.cpp:6      .text:0000000000000100 .L0 
     /tmp/ccjZp7TR.s:290    .text:0000000000000104 .L0 
     /tmp/ccjZp7TR.s:291    .text:0000000000000104 .L0 
   src/syscall_c.cpp:72     .text:0000000000000104 .L0 
     /tmp/ccjZp7TR.s:298    .text:0000000000000108 .L0 
     /tmp/ccjZp7TR.s:300    .text:0000000000000108 .L0 
     /tmp/ccjZp7TR.s:302    .text:0000000000000110 .L0 
     /tmp/ccjZp7TR.s:303    .text:0000000000000110 .L0 
     /tmp/ccjZp7TR.s:305    .text:0000000000000114 .L0 
GAS LISTING /tmp/ccjZp7TR.s 			page 15


     /tmp/ccjZp7TR.s:307    .text:0000000000000118 .L0 
     /tmp/ccjZp7TR.s:313    .text:0000000000000118 _Z15thread_dispatchv
     /tmp/ccjZp7TR.s:316    .text:0000000000000118 .L0 
     /tmp/ccjZp7TR.s:317    .text:0000000000000118 .L0 
     /tmp/ccjZp7TR.s:318    .text:000000000000011c .L0 
     /tmp/ccjZp7TR.s:320    .text:0000000000000120 .L0 
     /tmp/ccjZp7TR.s:322    .text:0000000000000124 .L0 
     /tmp/ccjZp7TR.s:324    .text:0000000000000124 .L0 
   src/syscall_c.cpp:78     .text:0000000000000124 .L0 
     /tmp/ccjZp7TR.s:333    .text:0000000000000128 .L0 
     /tmp/ccjZp7TR.s:334    .text:0000000000000128 .L0 
   src/syscall_c.cpp:6      .text:0000000000000128 .L0 
     /tmp/ccjZp7TR.s:343    .text:000000000000012c .L0 
     /tmp/ccjZp7TR.s:344    .text:0000000000000130 .L0 
     /tmp/ccjZp7TR.s:345    .text:0000000000000130 .L0 
     /tmp/ccjZp7TR.s:347    .text:0000000000000134 .L0 
     /tmp/ccjZp7TR.s:349    .text:0000000000000138 .L0 
     /tmp/ccjZp7TR.s:355    .text:0000000000000138 _Z11thread_joinP3TCB
     /tmp/ccjZp7TR.s:358    .text:0000000000000138 .L0 
     /tmp/ccjZp7TR.s:360    .text:0000000000000138 .L0 
     /tmp/ccjZp7TR.s:361    .text:000000000000013c .L0 
     /tmp/ccjZp7TR.s:363    .text:0000000000000140 .L0 
     /tmp/ccjZp7TR.s:365    .text:0000000000000144 .L0 
     /tmp/ccjZp7TR.s:367    .text:0000000000000144 .L0 
     /tmp/ccjZp7TR.s:368    .text:0000000000000148 .L0 
     /tmp/ccjZp7TR.s:369    .text:0000000000000148 .L0 
     /tmp/ccjZp7TR.s:371    .text:000000000000014c .L0 
     /tmp/ccjZp7TR.s:373    .text:0000000000000150 .L0 
     /tmp/ccjZp7TR.s:379    .text:0000000000000150 _Z10time_sleepm
     /tmp/ccjZp7TR.s:382    .text:0000000000000150 .L0 
     /tmp/ccjZp7TR.s:383    .text:0000000000000150 .L0 
     /tmp/ccjZp7TR.s:384    .text:0000000000000154 .L0 
     /tmp/ccjZp7TR.s:386    .text:0000000000000158 .L0 
     /tmp/ccjZp7TR.s:388    .text:000000000000015c .L0 
     /tmp/ccjZp7TR.s:390    .text:000000000000015c .L0 
     /tmp/ccjZp7TR.s:391    .text:000000000000015c .L0 
     /tmp/ccjZp7TR.s:393    .text:0000000000000164 .L0 
     /tmp/ccjZp7TR.s:394    .text:0000000000000164 .L0 
     /tmp/ccjZp7TR.s:396    .text:0000000000000168 .L0 
     /tmp/ccjZp7TR.s:398    .text:000000000000016c .L0 
     /tmp/ccjZp7TR.s:404    .text:000000000000016c _Z8sem_openPP4_semj
     /tmp/ccjZp7TR.s:407    .text:000000000000016c .L0 
     /tmp/ccjZp7TR.s:409    .text:000000000000016c .L0 
     /tmp/ccjZp7TR.s:410    .text:0000000000000170 .L0 
     /tmp/ccjZp7TR.s:412    .text:0000000000000174 .L0 
     /tmp/ccjZp7TR.s:414    .text:0000000000000178 .L0 
     /tmp/ccjZp7TR.s:416    .text:0000000000000178 .L0 
     /tmp/ccjZp7TR.s:417    .text:0000000000000178 .L0 
     /tmp/ccjZp7TR.s:420    .text:0000000000000180 .L0 
     /tmp/ccjZp7TR.s:421    .text:0000000000000180 .L0 
     /tmp/ccjZp7TR.s:423    .text:0000000000000184 .L0 
     /tmp/ccjZp7TR.s:425    .text:0000000000000188 .L0 
     /tmp/ccjZp7TR.s:431    .text:0000000000000188 _Z9sem_closeP4_sem
     /tmp/ccjZp7TR.s:434    .text:0000000000000188 .L0 
     /tmp/ccjZp7TR.s:436    .text:0000000000000188 .L0 
     /tmp/ccjZp7TR.s:437    .text:000000000000018c .L0 
     /tmp/ccjZp7TR.s:439    .text:0000000000000190 .L0 
GAS LISTING /tmp/ccjZp7TR.s 			page 16


     /tmp/ccjZp7TR.s:441    .text:0000000000000194 .L0 
     /tmp/ccjZp7TR.s:443    .text:0000000000000194 .L0 
     /tmp/ccjZp7TR.s:444    .text:0000000000000194 .L0 
     /tmp/ccjZp7TR.s:447    .text:000000000000019c .L0 
     /tmp/ccjZp7TR.s:448    .text:000000000000019c .L0 
     /tmp/ccjZp7TR.s:450    .text:00000000000001a0 .L0 
     /tmp/ccjZp7TR.s:452    .text:00000000000001a4 .L0 
     /tmp/ccjZp7TR.s:458    .text:00000000000001a4 _Z8sem_waitP4_sem
     /tmp/ccjZp7TR.s:461    .text:00000000000001a4 .L0 
     /tmp/ccjZp7TR.s:463    .text:00000000000001a4 .L0 
     /tmp/ccjZp7TR.s:464    .text:00000000000001a8 .L0 
     /tmp/ccjZp7TR.s:466    .text:00000000000001ac .L0 
     /tmp/ccjZp7TR.s:468    .text:00000000000001b0 .L0 
     /tmp/ccjZp7TR.s:470    .text:00000000000001b0 .L0 
     /tmp/ccjZp7TR.s:471    .text:00000000000001b0 .L0 
     /tmp/ccjZp7TR.s:474    .text:00000000000001b8 .L0 
     /tmp/ccjZp7TR.s:475    .text:00000000000001b8 .L0 
     /tmp/ccjZp7TR.s:477    .text:00000000000001bc .L0 
     /tmp/ccjZp7TR.s:479    .text:00000000000001c0 .L0 
     /tmp/ccjZp7TR.s:485    .text:00000000000001c0 _Z10sem_signalP4_sem
     /tmp/ccjZp7TR.s:488    .text:00000000000001c0 .L0 
     /tmp/ccjZp7TR.s:490    .text:00000000000001c0 .L0 
     /tmp/ccjZp7TR.s:491    .text:00000000000001c4 .L0 
     /tmp/ccjZp7TR.s:493    .text:00000000000001c8 .L0 
     /tmp/ccjZp7TR.s:495    .text:00000000000001cc .L0 
     /tmp/ccjZp7TR.s:497    .text:00000000000001cc .L0 
     /tmp/ccjZp7TR.s:498    .text:00000000000001cc .L0 
     /tmp/ccjZp7TR.s:501    .text:00000000000001d4 .L0 
     /tmp/ccjZp7TR.s:502    .text:00000000000001d4 .L0 
     /tmp/ccjZp7TR.s:504    .text:00000000000001d8 .L0 
     /tmp/ccjZp7TR.s:506    .text:00000000000001dc .L0 
     /tmp/ccjZp7TR.s:512    .text:00000000000001dc _Z4getcv
     /tmp/ccjZp7TR.s:515    .text:00000000000001dc .L0 
     /tmp/ccjZp7TR.s:516    .text:00000000000001dc .L0 
     /tmp/ccjZp7TR.s:517    .text:00000000000001e0 .L0 
     /tmp/ccjZp7TR.s:519    .text:00000000000001e4 .L0 
     /tmp/ccjZp7TR.s:521    .text:00000000000001e8 .L0 
     /tmp/ccjZp7TR.s:523    .text:00000000000001e8 .L0 
     /tmp/ccjZp7TR.s:524    .text:00000000000001e8 .L0 
     /tmp/ccjZp7TR.s:526    .text:00000000000001f0 .L0 
     /tmp/ccjZp7TR.s:527    .text:00000000000001f0 .L0 
     /tmp/ccjZp7TR.s:529    .text:00000000000001f4 .L0 
     /tmp/ccjZp7TR.s:531    .text:00000000000001f8 .L0 
     /tmp/ccjZp7TR.s:537    .text:00000000000001f8 _Z4putcc
     /tmp/ccjZp7TR.s:540    .text:00000000000001f8 .L0 
     /tmp/ccjZp7TR.s:541    .text:00000000000001f8 .L0 
     /tmp/ccjZp7TR.s:542    .text:00000000000001fc .L0 
     /tmp/ccjZp7TR.s:544    .text:0000000000000200 .L0 
     /tmp/ccjZp7TR.s:546    .text:0000000000000204 .L0 
     /tmp/ccjZp7TR.s:548    .text:0000000000000204 .L0 
     /tmp/ccjZp7TR.s:549    .text:0000000000000208 .L0 
     /tmp/ccjZp7TR.s:550    .text:0000000000000208 .L0 
     /tmp/ccjZp7TR.s:552    .text:000000000000020c .L0 
     /tmp/ccjZp7TR.s:554    .text:0000000000000210 .L0 
     /tmp/ccjZp7TR.s:561    .text:0000000000000210 .L0 
     /tmp/ccjZp7TR.s:34     .text:0000000000000020 .L2
     /tmp/ccjZp7TR.s:249    .text:00000000000000e8 .L8
GAS LISTING /tmp/ccjZp7TR.s 			page 17


     /tmp/ccjZp7TR.s:177    .text:00000000000000ac .L7
     /tmp/ccjZp7TR.s:1227   .debug_abbrev:0000000000000000 .Ldebug_abbrev0
     /tmp/ccjZp7TR.s:2131   .debug_str:00000000000003a0 .LASF64
     /tmp/ccjZp7TR.s:2067   .debug_str:00000000000001af .LASF65
     /tmp/ccjZp7TR.s:2055   .debug_str:000000000000015b .LASF66
     /tmp/ccjZp7TR.s:5      .text:0000000000000000 .Ltext0
     /tmp/ccjZp7TR.s:557    .text:0000000000000210 .Letext0
     /tmp/ccjZp7TR.s:1999   .debug_line:0000000000000000 .Ldebug_line0
     /tmp/ccjZp7TR.s:2085   .debug_str:000000000000024f .LASF0
     /tmp/ccjZp7TR.s:2091   .debug_str:0000000000000269 .LASF1
     /tmp/ccjZp7TR.s:2075   .debug_str:00000000000001eb .LASF2
     /tmp/ccjZp7TR.s:2063   .debug_str:0000000000000199 .LASF4
     /tmp/ccjZp7TR.s:2121   .debug_str:000000000000036c .LASF3
     /tmp/ccjZp7TR.s:2017   .debug_str:0000000000000067 .LASF5
     /tmp/ccjZp7TR.s:2035   .debug_str:00000000000000e8 .LASF6
     /tmp/ccjZp7TR.s:2095   .debug_str:000000000000028d .LASF7
     /tmp/ccjZp7TR.s:2083   .debug_str:000000000000023c .LASF8
     /tmp/ccjZp7TR.s:2141   .debug_str:0000000000000495 .LASF9
     /tmp/ccjZp7TR.s:2053   .debug_str:000000000000014d .LASF10
     /tmp/ccjZp7TR.s:2105   .debug_str:00000000000002c9 .LASF11
     /tmp/ccjZp7TR.s:2133   .debug_str:0000000000000464 .LASF12
     /tmp/ccjZp7TR.s:2019   .debug_str:000000000000006e .LASF13
     /tmp/ccjZp7TR.s:2007   .debug_str:0000000000000033 .LASF14
     /tmp/ccjZp7TR.s:2023   .debug_str:0000000000000090 .LASF15
     /tmp/ccjZp7TR.s:2117   .debug_str:000000000000034b .LASF16
     /tmp/ccjZp7TR.s:2031   .debug_str:00000000000000c4 .LASF17
     /tmp/ccjZp7TR.s:2001   .debug_str:0000000000000000 .LASF18
     /tmp/ccjZp7TR.s:2041   .debug_str:0000000000000111 .LASF19
     /tmp/ccjZp7TR.s:2061   .debug_str:0000000000000194 .LASF20
     /tmp/ccjZp7TR.s:2073   .debug_str:00000000000001db .LASF67
     /tmp/ccjZp7TR.s:2137   .debug_str:000000000000047b .LASF24
     /tmp/ccjZp7TR.s:2149   .debug_str:00000000000004c4 .LASF21
     /tmp/ccjZp7TR.s:2143   .debug_str:00000000000004a5 .LASF22
     /tmp/ccjZp7TR.s:2127   .debug_str:000000000000038f .LASF23
     /tmp/ccjZp7TR.s:2065   .debug_str:00000000000001a0 .LASF25
     /tmp/ccjZp7TR.s:2135   .debug_str:0000000000000473 .LASF26
     /tmp/ccjZp7TR.s:2115   .debug_str:000000000000032c .LASF28
     /tmp/ccjZp7TR.s:2025   .debug_str:000000000000009c .LASF27
     /tmp/ccjZp7TR.s:2005   .debug_str:0000000000000015 .LASF29
     /tmp/ccjZp7TR.s:2037   .debug_str:00000000000000ef .LASF68
     /tmp/ccjZp7TR.s:2003   .debug_str:0000000000000009 .LASF30
     /tmp/ccjZp7TR.s:2147   .debug_str:00000000000004b8 .LASF31
     /tmp/ccjZp7TR.s:2103   .debug_str:00000000000002bd .LASF32
     /tmp/ccjZp7TR.s:2043   .debug_str:0000000000000117 .LASF69
     /tmp/ccjZp7TR.s:2077   .debug_str:00000000000001f9 .LASF70
     /tmp/ccjZp7TR.s:2047   .debug_str:000000000000012a .LASF33
     /tmp/ccjZp7TR.s:2079   .debug_str:000000000000022e .LASF47
     /tmp/ccjZp7TR.s:2049   .debug_str:000000000000012f .LASF49
     /tmp/ccjZp7TR.s:538    .text:00000000000001f8 .LFB31
     /tmp/ccjZp7TR.s:555    .text:0000000000000210 .LFE31
     /tmp/ccjZp7TR.s:2097   .debug_str:00000000000002a0 .LASF34
     /tmp/ccjZp7TR.s:2009   .debug_str:0000000000000043 .LASF71
     /tmp/ccjZp7TR.s:2013   .debug_str:0000000000000054 .LASF72
     /tmp/ccjZp7TR.s:513    .text:00000000000001dc .LFB30
     /tmp/ccjZp7TR.s:532    .text:00000000000001f8 .LFE30
     /tmp/ccjZp7TR.s:2139   .debug_str:000000000000048a .LASF35
     /tmp/ccjZp7TR.s:2051   .debug_str:0000000000000138 .LASF37
GAS LISTING /tmp/ccjZp7TR.s 			page 18


     /tmp/ccjZp7TR.s:486    .text:00000000000001c0 .LFB29
     /tmp/ccjZp7TR.s:507    .text:00000000000001dc .LFE29
     /tmp/ccjZp7TR.s:1815   .debug_loc:0000000000000000 .LLST10
     /tmp/ccjZp7TR.s:2081   .debug_str:0000000000000233 .LASF36
     /tmp/ccjZp7TR.s:2021   .debug_str:000000000000007e .LASF38
     /tmp/ccjZp7TR.s:459    .text:00000000000001a4 .LFB28
     /tmp/ccjZp7TR.s:480    .text:00000000000001c0 .LFE28
     /tmp/ccjZp7TR.s:1829   .debug_loc:0000000000000039 .LLST9
     /tmp/ccjZp7TR.s:2069   .debug_str:00000000000001c1 .LASF39
     /tmp/ccjZp7TR.s:2101   .debug_str:00000000000002aa .LASF40
     /tmp/ccjZp7TR.s:432    .text:0000000000000188 .LFB27
     /tmp/ccjZp7TR.s:453    .text:00000000000001a4 .LFE27
     /tmp/ccjZp7TR.s:2125   .debug_str:0000000000000388 .LASF41
     /tmp/ccjZp7TR.s:1843   .debug_loc:0000000000000072 .LLST8
     /tmp/ccjZp7TR.s:2045   .debug_str:0000000000000121 .LASF42
     /tmp/ccjZp7TR.s:2029   .debug_str:00000000000000b0 .LASF43
     /tmp/ccjZp7TR.s:405    .text:000000000000016c .LFB26
     /tmp/ccjZp7TR.s:426    .text:0000000000000188 .LFE26
     /tmp/ccjZp7TR.s:1857   .debug_loc:00000000000000ab .LLST7
     /tmp/ccjZp7TR.s:2099   .debug_str:00000000000002a5 .LASF44
     /tmp/ccjZp7TR.s:2119   .debug_str:0000000000000361 .LASF45
     /tmp/ccjZp7TR.s:2109   .debug_str:00000000000002ed .LASF46
     /tmp/ccjZp7TR.s:380    .text:0000000000000150 .LFB25
     /tmp/ccjZp7TR.s:399    .text:000000000000016c .LFE25
     /tmp/ccjZp7TR.s:2129   .debug_str:0000000000000394 .LASF48
     /tmp/ccjZp7TR.s:2057   .debug_str:0000000000000179 .LASF50
     /tmp/ccjZp7TR.s:356    .text:0000000000000138 .LFB24
     /tmp/ccjZp7TR.s:374    .text:0000000000000150 .LFE24
     /tmp/ccjZp7TR.s:2071   .debug_str:00000000000001cb .LASF51
     /tmp/ccjZp7TR.s:2107   .debug_str:00000000000002d8 .LASF52
     /tmp/ccjZp7TR.s:314    .text:0000000000000118 .LFB23
     /tmp/ccjZp7TR.s:350    .text:0000000000000138 .LFE23
     /tmp/ccjZp7TR.s:331    .text:0000000000000128 .LBB20
     /tmp/ccjZp7TR.s:341    .text:000000000000012c .LBE20
     /tmp/ccjZp7TR.s:2011   .debug_str:0000000000000048 .LASF53
     /tmp/ccjZp7TR.s:2093   .debug_str:000000000000027c .LASF54
     /tmp/ccjZp7TR.s:261    .text:00000000000000f0 .LFB22
     /tmp/ccjZp7TR.s:308    .text:0000000000000118 .LFE22
     /tmp/ccjZp7TR.s:2089   .debug_str:0000000000000262 .LASF55
     /tmp/ccjZp7TR.s:278    .text:0000000000000100 .LBB18
     /tmp/ccjZp7TR.s:288    .text:0000000000000104 .LBE18
     /tmp/ccjZp7TR.s:2033   .debug_str:00000000000000da .LASF56
     /tmp/ccjZp7TR.s:2113   .debug_str:000000000000030b .LASF57
     /tmp/ccjZp7TR.s:147    .text:0000000000000070 .LFB21
     /tmp/ccjZp7TR.s:255    .text:00000000000000f0 .LFE21
     /tmp/ccjZp7TR.s:1871   .debug_loc:00000000000000e4 .LLST2
     /tmp/ccjZp7TR.s:2111   .debug_str:00000000000002fd .LASF58
     /tmp/ccjZp7TR.s:1893   .debug_loc:0000000000000143 .LLST3
     /tmp/ccjZp7TR.s:1915   .debug_loc:00000000000001a2 .LLST4
     /tmp/ccjZp7TR.s:2059   .debug_str:000000000000018e .LASF59
     /tmp/ccjZp7TR.s:1937   .debug_loc:0000000000000201 .LLST5
     /tmp/ccjZp7TR.s:1944   .debug_loc:0000000000000224 .LLST6
     /tmp/ccjZp7TR.s:207    .text:00000000000000c0 .LBB16
     /tmp/ccjZp7TR.s:217    .text:00000000000000c4 .LBE16
     /tmp/ccjZp7TR.s:175    .text:00000000000000a8 .LVL10
     /tmp/ccjZp7TR.s:2039   .debug_str:0000000000000108 .LASF60
     /tmp/ccjZp7TR.s:2145   .debug_str:00000000000004aa .LASF61
GAS LISTING /tmp/ccjZp7TR.s 			page 19


     /tmp/ccjZp7TR.s:86     .text:0000000000000040 .LFB20
     /tmp/ccjZp7TR.s:141    .text:0000000000000070 .LFE20
     /tmp/ccjZp7TR.s:1951   .debug_loc:0000000000000247 .LLST1
     /tmp/ccjZp7TR.s:111    .text:0000000000000058 .LBB14
     /tmp/ccjZp7TR.s:121    .text:000000000000005c .LBE14
     /tmp/ccjZp7TR.s:2123   .debug_str:000000000000037e .LASF62
     /tmp/ccjZp7TR.s:2027   .debug_str:00000000000000a2 .LASF63
     /tmp/ccjZp7TR.s:10     .text:0000000000000000 .LFB19
     /tmp/ccjZp7TR.s:80     .text:0000000000000040 .LFE19
     /tmp/ccjZp7TR.s:1962   .debug_loc:000000000000027d .LLST0
     /tmp/ccjZp7TR.s:51     .text:000000000000002c .LBB12
     /tmp/ccjZp7TR.s:61     .text:0000000000000030 .LBE12
     /tmp/ccjZp7TR.s:2087   .debug_str:000000000000025c .LASF73
     /tmp/ccjZp7TR.s:2015   .debug_str:000000000000005d .LASF74
     /tmp/ccjZp7TR.s:489    .text:00000000000001c0 .LVL25
     /tmp/ccjZp7TR.s:499    .text:00000000000001d0 .LVL26
     /tmp/ccjZp7TR.s:462    .text:00000000000001a4 .LVL23
     /tmp/ccjZp7TR.s:472    .text:00000000000001b4 .LVL24
     /tmp/ccjZp7TR.s:435    .text:0000000000000188 .LVL21
     /tmp/ccjZp7TR.s:445    .text:0000000000000198 .LVL22
     /tmp/ccjZp7TR.s:408    .text:000000000000016c .LVL19
     /tmp/ccjZp7TR.s:418    .text:000000000000017c .LVL20
     /tmp/ccjZp7TR.s:150    .text:0000000000000070 .LVL8
     /tmp/ccjZp7TR.s:173    .text:00000000000000a0 .LVL9
     /tmp/ccjZp7TR.s:241    .text:00000000000000dc .LVL14
     /tmp/ccjZp7TR.s:248    .text:00000000000000e8 .LVL16
     /tmp/ccjZp7TR.s:238    .text:00000000000000d8 .LVL13
     /tmp/ccjZp7TR.s:244    .text:00000000000000e0 .LVL15
     /tmp/ccjZp7TR.s:178    .text:00000000000000ac .LVL11
     /tmp/ccjZp7TR.s:225    .text:00000000000000c8 .LVL12
     /tmp/ccjZp7TR.s:89     .text:0000000000000040 .LVL5
     /tmp/ccjZp7TR.s:103    .text:0000000000000054 .LVL6
     /tmp/ccjZp7TR.s:14     .text:0000000000000000 .LVL0
     /tmp/ccjZp7TR.s:24     .text:0000000000000010 .LVL1
     /tmp/ccjZp7TR.s:30     .text:0000000000000018 .LVL2
     /tmp/ccjZp7TR.s:37     .text:0000000000000024 .LVL3
     /tmp/ccjZp7TR.s:562    .debug_info:0000000000000000 .Ldebug_info0

UNDEFINED SYMBOLS
_ZN15MemoryAllocator7kmallocEm
