GAS LISTING /tmp/ccSVas4j.s 			page 1


   1              		.file	"syscall_c.cpp"
   2              		.option pic
   3              		.option norelax
   4              		.text
   5              	.Ltext0:
   6              		.align	2
   7              		.globl	_Z9mem_allocm
   9              	_Z9mem_allocm:
  10              	.LFB19:
  11              		.file 1 "src/syscall_c.cpp"
   1:src/syscall_c.cpp **** #include "../h/syscall_c.hpp"
   2:src/syscall_c.cpp **** #include "../h/Riscv.hpp"
   3:src/syscall_c.cpp **** #include "../h/MemoryAllocator.hpp"
   4:src/syscall_c.cpp **** #include "../lib/console.h"
   5:src/syscall_c.cpp **** 
   6:src/syscall_c.cpp **** inline void scall() {
   7:src/syscall_c.cpp **** 	__asm__ volatile("ecall");
   8:src/syscall_c.cpp **** }
   9:src/syscall_c.cpp **** 
  10:src/syscall_c.cpp **** void* mem_alloc(size_t size) {
  12              		.loc 1 10 30
  13              		.cfi_startproc
  14              	.LVL0:
  15 0000 130101FF 		addi	sp,sp,-16
  16              		.cfi_def_cfa_offset 16
  17 0004 23348100 		sd	s0,8(sp)
  18              		.cfi_offset 8, -8
  19 0008 13040101 		addi	s0,sp,16
  20              		.cfi_def_cfa 8, 0
  11:src/syscall_c.cpp **** 	//na size moramo dodati zaglavlje segmenta
  12:src/syscall_c.cpp **** 	size += sizeof(MemoryAllocator::UsedMemSegment);
  21              		.loc 1 12 2
  22              		.loc 1 12 7 is_stmt 0
  23 000c 13050501 		addi	a0,a0,16
  24              	.LVL1:
  13:src/syscall_c.cpp **** 	//size je u bajtovima, pretvara se u blokove
  14:src/syscall_c.cpp **** 	size = size / MEM_BLOCK_SIZE + (size % MEM_BLOCK_SIZE ? 1 : 0);
  25              		.loc 1 14 2 is_stmt 1
  26              		.loc 1 14 14 is_stmt 0
  27 0010 13536500 		srli	t1,a0,6
  28              		.loc 1 14 39
  29 0014 1375F503 		andi	a0,a0,63
  30              	.LVL2:
  31              		.loc 1 14 56
  32 0018 63040500 		beqz	a0,.L2
  33 001c 13051000 		li	a0,1
  34              	.L2:
  35              		.loc 1 14 7 discriminator 4
  36 0020 3303A300 		add	t1,t1,a0
  37              	.LVL3:
  15:src/syscall_c.cpp **** 
  16:src/syscall_c.cpp **** 	//stavljanje argumenata za sistemski poziv
  17:src/syscall_c.cpp **** 	__asm__ volatile("mv a1, %[size]": :[size] "r"(size):"a5", "a0", "a1", "a2", "a3", "a4", "a6", "a7
  38              		.loc 1 17 2 is_stmt 1 discriminator 4
  39              		.loc 1 17 102 is_stmt 0 discriminator 4
  40              	#APP
  41              	# 17 "src/syscall_c.cpp" 1
GAS LISTING /tmp/ccSVas4j.s 			page 2


  18              		__asm__ volatile("li a0, 0x01");
  42              		mv a1, t1
  43              	# 0 "" 2
  44              		.loc 1 18 2 is_stmt 1 discriminator 4
  45              		.loc 1 18 33 is_stmt 0 discriminator 4
  46              	# 18 "src/syscall_c.cpp" 1
  19              		//a0 = 0x01
  20:src/syscall_c.cpp **** 	//a1 = broj blokova velicine MEM_BLOCK_SIZE za alokaciju
  21:src/syscall_c.cpp **** 
  22:src/syscall_c.cpp **** 	scall();
  47              		li a0, 0x01
  48              	# 0 "" 2
  49              		.loc 1 22 2 is_stmt 1 discriminator 4
  50              	#NO_APP
  51              	.LBB14:
  52              	.LBB15:
   7:src/syscall_c.cpp **** }
  53              		.loc 1 7 2 discriminator 4
   7:src/syscall_c.cpp **** }
  54              		.loc 1 7 27 is_stmt 0 discriminator 4
  55              	#APP
  56              	# 7 "src/syscall_c.cpp" 1
  57              		ecall
  58              	# 0 "" 2
  59              	#NO_APP
  60              	.LBE15:
  61              	.LBE14:
  23:src/syscall_c.cpp **** 
  24:src/syscall_c.cpp **** 	void* ret;
  62              		.loc 1 24 2 is_stmt 1 discriminator 4
  25:src/syscall_c.cpp **** 	__asm__ volatile("mv %[ptr], a0":[ptr] "=r"(ret));
  63              		.loc 1 25 2 discriminator 4
  64              		.loc 1 25 51 is_stmt 0 discriminator 4
  65              	#APP
  66              	# 25 "src/syscall_c.cpp" 1
  26              		return ret;
  67              		mv a0, a0
  68              	# 0 "" 2
  69              	.LVL4:
  70              		.loc 1 26 2 is_stmt 1 discriminator 4
  27:src/syscall_c.cpp **** }
  71              		.loc 1 27 1 is_stmt 0 discriminator 4
  72              	#NO_APP
  73 0034 03348100 		ld	s0,8(sp)
  74              		.cfi_restore 8
  75              		.cfi_def_cfa 2, 16
  76 0038 13010101 		addi	sp,sp,16
  77              		.cfi_def_cfa_offset 0
  78 003c 67800000 		jr	ra
  79              		.cfi_endproc
  80              	.LFE19:
  82              		.align	2
  83              		.globl	_Z8mem_freePv
  85              	_Z8mem_freePv:
  86              	.LFB20:
  28:src/syscall_c.cpp **** 
  29:src/syscall_c.cpp **** int mem_free(void* ptr) {
GAS LISTING /tmp/ccSVas4j.s 			page 3


  87              		.loc 1 29 25 is_stmt 1
  88              		.cfi_startproc
  89              	.LVL5:
  90 0040 130101FF 		addi	sp,sp,-16
  91              		.cfi_def_cfa_offset 16
  92 0044 23348100 		sd	s0,8(sp)
  93              		.cfi_offset 8, -8
  94 0048 13040101 		addi	s0,sp,16
  95              		.cfi_def_cfa 8, 0
  96 004c 13030500 		mv	t1,a0
  30:src/syscall_c.cpp **** 	//stavljanje argumenata za sistemski poziv
  31:src/syscall_c.cpp **** 	__asm__ volatile("mv a1, %[ptr]": :[ptr] "r"(ptr):"a5", "a0", "a1", "a2", "a3", "a4", "a6", "a7");
  97              		.loc 1 31 2
  98              		.loc 1 31 99 is_stmt 0
  99              	#APP
 100              	# 31 "src/syscall_c.cpp" 1
  32              		__asm__ volatile("li a0, 0x02");
 101              		mv a1, t1
 102              	# 0 "" 2
 103              	.LVL6:
 104              		.loc 1 32 2 is_stmt 1
 105              		.loc 1 32 33 is_stmt 0
 106              	# 32 "src/syscall_c.cpp" 1
  33              		//a0 = 0x02
  34:src/syscall_c.cpp **** 	//a1 = pokazivac na memoriju koju treba dealocirati
  35:src/syscall_c.cpp **** 
  36:src/syscall_c.cpp **** 	scall();
 107              		li a0, 0x02
 108              	# 0 "" 2
 109              		.loc 1 36 2 is_stmt 1
 110              	#NO_APP
 111              	.LBB16:
 112              	.LBB17:
   7:src/syscall_c.cpp **** }
 113              		.loc 1 7 2
   7:src/syscall_c.cpp **** }
 114              		.loc 1 7 27 is_stmt 0
 115              	#APP
 116              	# 7 "src/syscall_c.cpp" 1
 117              		ecall
 118              	# 0 "" 2
 119              	#NO_APP
 120              	.LBE17:
 121              	.LBE16:
  37:src/syscall_c.cpp **** 
  38:src/syscall_c.cpp **** 	int status;
 122              		.loc 1 38 2 is_stmt 1
  39:src/syscall_c.cpp **** 	__asm__ volatile("mv %[status], a0":[status] "=r"(status));
 123              		.loc 1 39 2
 124              		.loc 1 39 60 is_stmt 0
 125              	#APP
 126              	# 39 "src/syscall_c.cpp" 1
  40              		return status;
 127              		mv a0, a0
 128              	# 0 "" 2
 129              	.LVL7:
 130              		.loc 1 40 2 is_stmt 1
GAS LISTING /tmp/ccSVas4j.s 			page 4


  41:src/syscall_c.cpp **** }
 131              		.loc 1 41 1 is_stmt 0
 132              	#NO_APP
 133 0060 1B050500 		sext.w	a0,a0
 134 0064 03348100 		ld	s0,8(sp)
 135              		.cfi_restore 8
 136              		.cfi_def_cfa 2, 16
 137 0068 13010101 		addi	sp,sp,16
 138              		.cfi_def_cfa_offset 0
 139 006c 67800000 		jr	ra
 140              		.cfi_endproc
 141              	.LFE20:
 143              		.align	2
 144              		.globl	_Z13thread_createPP3TCBPFvPvES2_
 146              	_Z13thread_createPP3TCBPFvPvES2_:
 147              	.LFB21:
  42:src/syscall_c.cpp **** 
  43:src/syscall_c.cpp **** int thread_create(thread_t* handle, void (* start_routine)(void*), void* arg) {
 148              		.loc 1 43 79 is_stmt 1
 149              		.cfi_startproc
 150              	.LVL8:
 151 0070 130101FD 		addi	sp,sp,-48
 152              		.cfi_def_cfa_offset 48
 153 0074 23341102 		sd	ra,40(sp)
 154 0078 23308102 		sd	s0,32(sp)
 155 007c 233C9100 		sd	s1,24(sp)
 156 0080 23382101 		sd	s2,16(sp)
 157 0084 23343101 		sd	s3,8(sp)
 158              		.cfi_offset 1, -8
 159              		.cfi_offset 8, -16
 160              		.cfi_offset 9, -24
 161              		.cfi_offset 18, -32
 162              		.cfi_offset 19, -40
 163 0088 13040103 		addi	s0,sp,48
 164              		.cfi_def_cfa 8, 0
 165 008c 13090500 		mv	s2,a0
 166 0090 93840500 		mv	s1,a1
 167 0094 93090600 		mv	s3,a2
  44:src/syscall_c.cpp **** 	//stvaranje steka ako se ne radi o main kernel niti, posto ona automatski ima stek
  45:src/syscall_c.cpp **** 	uint64* stack = nullptr;
 168              		.loc 1 45 2
 169              	.LVL9:
  46:src/syscall_c.cpp **** 	if (start_routine != nullptr) {
 170              		.loc 1 46 2
 171 0098 63880504 		beqz	a1,.L8
  47:src/syscall_c.cpp **** 		stack = (uint64*)mem_alloc(DEFAULT_STACK_SIZE);
 172              		.loc 1 47 3
 173              		.loc 1 47 29 is_stmt 0
 174 009c 37150000 		li	a0,4096
 175              	.LVL10:
 176 00a0 97000000 		call	_Z9mem_allocm
 176      E7800000 
 177              	.LVL11:
 178 00a8 13030500 		mv	t1,a0
 179              	.LVL12:
 180              	.L7:
  48:src/syscall_c.cpp **** 	}
GAS LISTING /tmp/ccSVas4j.s 			page 5


  49:src/syscall_c.cpp **** 	//uint64* stack = (start_routine != nullptr ? (uint64*)MemoryAllocator::kmalloc(DEFAULT_STACK_SIZE
  50:src/syscall_c.cpp **** 	//stavljanje argumenata za sistemski poziv
  51:src/syscall_c.cpp **** 	__asm__ volatile("mv a4, %[sp]": :[sp] "r"(stack):"a5", "a0", "a1", "a2", "a3", "a4", "a6", "a7");
 181              		.loc 1 51 2 is_stmt 1
 182              		.loc 1 51 99 is_stmt 0
 183              	#APP
 184              	# 51 "src/syscall_c.cpp" 1
  52              		__asm__ volatile("mv a3, %[arg]": :[arg] "r"(arg):"a5", "a0", "a1", "a2", "a3", "a4", "a6", "a7");
 185              		mv a4, t1
 186              	# 0 "" 2
 187              		.loc 1 52 2 is_stmt 1
 188              		.loc 1 52 99 is_stmt 0
 189              	# 52 "src/syscall_c.cpp" 1
  53              		__asm__ volatile("mv a2, %[function]": :[function] "r"(
 190              		mv a3, s3
 191              	# 0 "" 2
 192              		.loc 1 53 2 is_stmt 1
  54:src/syscall_c.cpp **** 			start_routine):"a5", "a0", "a1", "a2", "a3", "a4", "a6", "a7");
 193              		.loc 1 54 66 is_stmt 0
 194              	# 54 "src/syscall_c.cpp" 1
  55              		__asm__ volatile("mv a1, %[handle]": :[handle] "r"(handle):"a5", "a0", "a1", "a2", "a3", "a4", "a6
 195              		mv a2, s1
 196              	# 0 "" 2
 197              		.loc 1 55 2 is_stmt 1
 198              		.loc 1 55 108 is_stmt 0
 199              	# 55 "src/syscall_c.cpp" 1
  56              		__asm__ volatile("li a0, 0x11");
 200              		mv a1, s2
 201              	# 0 "" 2
 202              		.loc 1 56 2 is_stmt 1
 203              		.loc 1 56 33 is_stmt 0
 204              	# 56 "src/syscall_c.cpp" 1
  57              		//a0 = 0x11
  58:src/syscall_c.cpp **** 	//a1 = adresa pokazivaca na rucku niti
  59:src/syscall_c.cpp **** 	//a2 = prva adresa funkcije koju nit izvrsava
  60:src/syscall_c.cpp **** 	//a3 = pokazivac na argumente funkcije
  61:src/syscall_c.cpp **** 	//a4 = pokazivac na najnizu adresu steka (stek raste ka nizim adresama, pokazuje na poslednju zauz
  62:src/syscall_c.cpp **** 
  63:src/syscall_c.cpp **** 	scall();
 205              		li a0, 0x11
 206              	# 0 "" 2
 207              		.loc 1 63 2 is_stmt 1
 208              	#NO_APP
 209              	.LBB18:
 210              	.LBB19:
   7:src/syscall_c.cpp **** }
 211              		.loc 1 7 2
   7:src/syscall_c.cpp **** }
 212              		.loc 1 7 27 is_stmt 0
 213              	#APP
 214              	# 7 "src/syscall_c.cpp" 1
 215              		ecall
 216              	# 0 "" 2
 217              	#NO_APP
 218              	.LBE19:
 219              	.LBE18:
  64:src/syscall_c.cpp **** 
GAS LISTING /tmp/ccSVas4j.s 			page 6


  65:src/syscall_c.cpp **** 	int status;
 220              		.loc 1 65 2 is_stmt 1
  66:src/syscall_c.cpp **** 	__asm__ volatile("mv %[status], a0":[status] "=r"(status));
 221              		.loc 1 66 2
 222              		.loc 1 66 60 is_stmt 0
 223              	#APP
 224              	# 66 "src/syscall_c.cpp" 1
  67              		return status;
 225              		mv a0, a0
 226              	# 0 "" 2
 227              	.LVL13:
 228              		.loc 1 67 2 is_stmt 1
  68:src/syscall_c.cpp **** }
 229              		.loc 1 68 1 is_stmt 0
 230              	#NO_APP
 231 00c8 1B050500 		sext.w	a0,a0
 232 00cc 83308102 		ld	ra,40(sp)
 233              		.cfi_remember_state
 234              		.cfi_restore 1
 235 00d0 03340102 		ld	s0,32(sp)
 236              		.cfi_restore 8
 237              		.cfi_def_cfa 2, 48
 238 00d4 83348101 		ld	s1,24(sp)
 239              		.cfi_restore 9
 240              	.LVL14:
 241 00d8 03390101 		ld	s2,16(sp)
 242              		.cfi_restore 18
 243              	.LVL15:
 244 00dc 83398100 		ld	s3,8(sp)
 245              		.cfi_restore 19
 246              	.LVL16:
 247 00e0 13010103 		addi	sp,sp,48
 248              		.cfi_def_cfa_offset 0
 249 00e4 67800000 		jr	ra
 250              	.LVL17:
 251              	.L8:
 252              		.cfi_restore_state
  45:src/syscall_c.cpp **** 	if (start_routine != nullptr) {
 253              		.loc 1 45 10
 254 00e8 13030000 		li	t1,0
 255 00ec 6FF01FFC 		j	.L7
 256              		.cfi_endproc
 257              	.LFE21:
 259              		.align	2
 260              		.globl	_Z11thread_exitv
 262              	_Z11thread_exitv:
 263              	.LFB22:
  69:src/syscall_c.cpp **** 
  70:src/syscall_c.cpp **** int thread_exit() {
 264              		.loc 1 70 19 is_stmt 1
 265              		.cfi_startproc
 266 00f0 130101FF 		addi	sp,sp,-16
 267              		.cfi_def_cfa_offset 16
 268 00f4 23348100 		sd	s0,8(sp)
 269              		.cfi_offset 8, -8
 270 00f8 13040101 		addi	s0,sp,16
 271              		.cfi_def_cfa 8, 0
GAS LISTING /tmp/ccSVas4j.s 			page 7


  71:src/syscall_c.cpp **** 	//nema argumenata, samo kod sistemskog poziva
  72:src/syscall_c.cpp **** 	__asm__ volatile("li a0, 0x12");
 272              		.loc 1 72 2
 273              		.loc 1 72 33 is_stmt 0
 274              	#APP
 275              	# 72 "src/syscall_c.cpp" 1
  73              	
  74:src/syscall_c.cpp **** 	scall();
 276              		li a0, 0x12
 277              	# 0 "" 2
 278              		.loc 1 74 2 is_stmt 1
 279              	#NO_APP
 280              	.LBB20:
 281              	.LBB21:
   7:src/syscall_c.cpp **** }
 282              		.loc 1 7 2
   7:src/syscall_c.cpp **** }
 283              		.loc 1 7 27 is_stmt 0
 284              	#APP
 285              	# 7 "src/syscall_c.cpp" 1
 286              		ecall
 287              	# 0 "" 2
 288              	#NO_APP
 289              	.LBE21:
 290              	.LBE20:
  75:src/syscall_c.cpp **** 
  76:src/syscall_c.cpp **** 	int status;
 291              		.loc 1 76 2 is_stmt 1
  77:src/syscall_c.cpp **** 	__asm__ volatile("mv %[status], a0":[status] "=r"(status));
 292              		.loc 1 77 2
 293              		.loc 1 77 60 is_stmt 0
 294              	#APP
 295              	# 77 "src/syscall_c.cpp" 1
  78              		return status;
 296              		mv a0, a0
 297              	# 0 "" 2
 298              	.LVL18:
 299              		.loc 1 78 2 is_stmt 1
  79:src/syscall_c.cpp **** }
 300              		.loc 1 79 1 is_stmt 0
 301              	#NO_APP
 302 0108 1B050500 		sext.w	a0,a0
 303 010c 03348100 		ld	s0,8(sp)
 304              		.cfi_restore 8
 305              		.cfi_def_cfa 2, 16
 306 0110 13010101 		addi	sp,sp,16
 307              		.cfi_def_cfa_offset 0
 308 0114 67800000 		jr	ra
 309              		.cfi_endproc
 310              	.LFE22:
 312              		.align	2
 313              		.globl	_Z15thread_dispatchv
 315              	_Z15thread_dispatchv:
 316              	.LFB23:
  80:src/syscall_c.cpp **** 
  81:src/syscall_c.cpp **** void thread_dispatch() {
 317              		.loc 1 81 24 is_stmt 1
GAS LISTING /tmp/ccSVas4j.s 			page 8


 318              		.cfi_startproc
 319 0118 130101FF 		addi	sp,sp,-16
 320              		.cfi_def_cfa_offset 16
 321 011c 23348100 		sd	s0,8(sp)
 322              		.cfi_offset 8, -8
 323 0120 13040101 		addi	s0,sp,16
 324              		.cfi_def_cfa 8, 0
  82:src/syscall_c.cpp **** 	//nema argumenata, samo kod sistemskog poziva
  83:src/syscall_c.cpp **** 	__asm__ volatile("li a0, 0x13");
 325              		.loc 1 83 2
 326              		.loc 1 83 33 is_stmt 0
 327              	#APP
 328              	# 83 "src/syscall_c.cpp" 1
  84              	
  85:src/syscall_c.cpp **** 	scall();
 329              		li a0, 0x13
 330              	# 0 "" 2
 331              		.loc 1 85 2 is_stmt 1
 332              	#NO_APP
 333              	.LBB22:
 334              	.LBB23:
   7:src/syscall_c.cpp **** }
 335              		.loc 1 7 2
   7:src/syscall_c.cpp **** }
 336              		.loc 1 7 27 is_stmt 0
 337              	#APP
 338              	# 7 "src/syscall_c.cpp" 1
 339              		ecall
 340              	# 0 "" 2
 341              	#NO_APP
 342              	.LBE23:
 343              	.LBE22:
  86:src/syscall_c.cpp **** 	//nema povratne vrednosti
  87:src/syscall_c.cpp **** }
 344              		.loc 1 87 1
 345 012c 03348100 		ld	s0,8(sp)
 346              		.cfi_restore 8
 347              		.cfi_def_cfa 2, 16
 348 0130 13010101 		addi	sp,sp,16
 349              		.cfi_def_cfa_offset 0
 350 0134 67800000 		jr	ra
 351              		.cfi_endproc
 352              	.LFE23:
 354              		.align	2
 355              		.globl	_Z11thread_joinP3TCB
 357              	_Z11thread_joinP3TCB:
 358              	.LFB24:
  88:src/syscall_c.cpp **** 
  89:src/syscall_c.cpp **** void thread_join(thread_t handle) {
 359              		.loc 1 89 35 is_stmt 1
 360              		.cfi_startproc
 361              	.LVL19:
 362 0138 130101FF 		addi	sp,sp,-16
 363              		.cfi_def_cfa_offset 16
 364 013c 23348100 		sd	s0,8(sp)
 365              		.cfi_offset 8, -8
 366 0140 13040101 		addi	s0,sp,16
GAS LISTING /tmp/ccSVas4j.s 			page 9


 367              		.cfi_def_cfa 8, 0
  90:src/syscall_c.cpp **** 
  91:src/syscall_c.cpp **** }
 368              		.loc 1 91 1 is_stmt 0
 369 0144 03348100 		ld	s0,8(sp)
 370              		.cfi_restore 8
 371              		.cfi_def_cfa 2, 16
 372 0148 13010101 		addi	sp,sp,16
 373              		.cfi_def_cfa_offset 0
 374 014c 67800000 		jr	ra
 375              		.cfi_endproc
 376              	.LFE24:
 378              		.align	2
 379              		.globl	_Z10time_sleepm
 381              	_Z10time_sleepm:
 382              	.LFB25:
  92:src/syscall_c.cpp **** 
  93:src/syscall_c.cpp **** int time_sleep(time_t timerPeriods) {
 383              		.loc 1 93 37 is_stmt 1
 384              		.cfi_startproc
 385              	.LVL20:
 386 0150 130101FF 		addi	sp,sp,-16
 387              		.cfi_def_cfa_offset 16
 388 0154 23348100 		sd	s0,8(sp)
 389              		.cfi_offset 8, -8
 390 0158 13040101 		addi	s0,sp,16
 391              		.cfi_def_cfa 8, 0
 392 015c 13030500 		mv	t1,a0
  94:src/syscall_c.cpp **** 	//stavljanje argumenata za sistemski poziv
  95:src/syscall_c.cpp **** 	__asm__ volatile("mv a1, %[time]": :[time] "r"(timerPeriods):"a5", "a0", "a1", "a2", "a3", "a4", "
 393              		.loc 1 95 2
 394              		.loc 1 95 110 is_stmt 0
 395              	#APP
 396              	# 95 "src/syscall_c.cpp" 1
  96              		__asm__ volatile("li a0, 0x31");
 397              		mv a1, t1
 398              	# 0 "" 2
 399              	.LVL21:
 400              		.loc 1 96 2 is_stmt 1
 401              		.loc 1 96 33 is_stmt 0
 402              	# 96 "src/syscall_c.cpp" 1
  97              		//a0 = 0x31
  98:src/syscall_c.cpp **** 	//a1 = broj perioda tajmera na koji se uspavljuje nit
  99:src/syscall_c.cpp **** 
 100:src/syscall_c.cpp **** 	scall();
 403              		li a0, 0x31
 404              	# 0 "" 2
 405              		.loc 1 100 2 is_stmt 1
 406              	#NO_APP
 407              	.LBB24:
 408              	.LBB25:
   7:src/syscall_c.cpp **** }
 409              		.loc 1 7 2
   7:src/syscall_c.cpp **** }
 410              		.loc 1 7 27 is_stmt 0
 411              	#APP
 412              	# 7 "src/syscall_c.cpp" 1
GAS LISTING /tmp/ccSVas4j.s 			page 10


 413              		ecall
 414              	# 0 "" 2
 415              	#NO_APP
 416              	.LBE25:
 417              	.LBE24:
 101:src/syscall_c.cpp **** 
 102:src/syscall_c.cpp **** 	int status;
 418              		.loc 1 102 2 is_stmt 1
 103:src/syscall_c.cpp **** 	__asm__ volatile("mv %[status], a0":[status] "=r"(status));
 419              		.loc 1 103 2
 420              		.loc 1 103 60 is_stmt 0
 421              	#APP
 422              	# 103 "src/syscall_c.cpp" 1
 104              		return status;
 423              		mv a0, a0
 424              	# 0 "" 2
 425              	.LVL22:
 426              		.loc 1 104 2 is_stmt 1
 105:src/syscall_c.cpp **** }
 427              		.loc 1 105 1 is_stmt 0
 428              	#NO_APP
 429 0170 1B050500 		sext.w	a0,a0
 430 0174 03348100 		ld	s0,8(sp)
 431              		.cfi_restore 8
 432              		.cfi_def_cfa 2, 16
 433 0178 13010101 		addi	sp,sp,16
 434              		.cfi_def_cfa_offset 0
 435 017c 67800000 		jr	ra
 436              		.cfi_endproc
 437              	.LFE25:
 439              		.align	2
 440              		.globl	_Z8sem_openPP4_semj
 442              	_Z8sem_openPP4_semj:
 443              	.LFB26:
 106:src/syscall_c.cpp **** 
 107:src/syscall_c.cpp **** int sem_open(sem_t* handle, unsigned int init) {
 444              		.loc 1 107 48 is_stmt 1
 445              		.cfi_startproc
 446              	.LVL23:
 447 0180 130101FF 		addi	sp,sp,-16
 448              		.cfi_def_cfa_offset 16
 449 0184 23348100 		sd	s0,8(sp)
 450              		.cfi_offset 8, -8
 451 0188 13040101 		addi	s0,sp,16
 452              		.cfi_def_cfa 8, 0
 108:src/syscall_c.cpp **** 	return 0;
 453              		.loc 1 108 2
 109:src/syscall_c.cpp **** }
 454              		.loc 1 109 1 is_stmt 0
 455 018c 13050000 		li	a0,0
 456              	.LVL24:
 457 0190 03348100 		ld	s0,8(sp)
 458              		.cfi_restore 8
 459              		.cfi_def_cfa 2, 16
 460 0194 13010101 		addi	sp,sp,16
 461              		.cfi_def_cfa_offset 0
 462 0198 67800000 		jr	ra
GAS LISTING /tmp/ccSVas4j.s 			page 11


 463              		.cfi_endproc
 464              	.LFE26:
 466              		.align	2
 467              		.globl	_Z9sem_closeP4_sem
 469              	_Z9sem_closeP4_sem:
 470              	.LFB27:
 110:src/syscall_c.cpp **** 
 111:src/syscall_c.cpp **** int sem_close(sem_t handle) {
 471              		.loc 1 111 29 is_stmt 1
 472              		.cfi_startproc
 473              	.LVL25:
 474 019c 130101FF 		addi	sp,sp,-16
 475              		.cfi_def_cfa_offset 16
 476 01a0 23348100 		sd	s0,8(sp)
 477              		.cfi_offset 8, -8
 478 01a4 13040101 		addi	s0,sp,16
 479              		.cfi_def_cfa 8, 0
 112:src/syscall_c.cpp **** 	return 0;
 480              		.loc 1 112 2
 113:src/syscall_c.cpp **** }
 481              		.loc 1 113 1 is_stmt 0
 482 01a8 13050000 		li	a0,0
 483              	.LVL26:
 484 01ac 03348100 		ld	s0,8(sp)
 485              		.cfi_restore 8
 486              		.cfi_def_cfa 2, 16
 487 01b0 13010101 		addi	sp,sp,16
 488              		.cfi_def_cfa_offset 0
 489 01b4 67800000 		jr	ra
 490              		.cfi_endproc
 491              	.LFE27:
 493              		.align	2
 494              		.globl	_Z8sem_waitP4_sem
 496              	_Z8sem_waitP4_sem:
 497              	.LFB28:
 114:src/syscall_c.cpp **** 
 115:src/syscall_c.cpp **** int sem_wait(sem_t id) {
 498              		.loc 1 115 24 is_stmt 1
 499              		.cfi_startproc
 500              	.LVL27:
 501 01b8 130101FF 		addi	sp,sp,-16
 502              		.cfi_def_cfa_offset 16
 503 01bc 23348100 		sd	s0,8(sp)
 504              		.cfi_offset 8, -8
 505 01c0 13040101 		addi	s0,sp,16
 506              		.cfi_def_cfa 8, 0
 116:src/syscall_c.cpp **** 	return 0;
 507              		.loc 1 116 2
 117:src/syscall_c.cpp **** }
 508              		.loc 1 117 1 is_stmt 0
 509 01c4 13050000 		li	a0,0
 510              	.LVL28:
 511 01c8 03348100 		ld	s0,8(sp)
 512              		.cfi_restore 8
 513              		.cfi_def_cfa 2, 16
 514 01cc 13010101 		addi	sp,sp,16
 515              		.cfi_def_cfa_offset 0
GAS LISTING /tmp/ccSVas4j.s 			page 12


 516 01d0 67800000 		jr	ra
 517              		.cfi_endproc
 518              	.LFE28:
 520              		.align	2
 521              		.globl	_Z10sem_signalP4_sem
 523              	_Z10sem_signalP4_sem:
 524              	.LFB29:
 118:src/syscall_c.cpp **** 
 119:src/syscall_c.cpp **** int sem_signal(sem_t id) {
 525              		.loc 1 119 26 is_stmt 1
 526              		.cfi_startproc
 527              	.LVL29:
 528 01d4 130101FF 		addi	sp,sp,-16
 529              		.cfi_def_cfa_offset 16
 530 01d8 23348100 		sd	s0,8(sp)
 531              		.cfi_offset 8, -8
 532 01dc 13040101 		addi	s0,sp,16
 533              		.cfi_def_cfa 8, 0
 120:src/syscall_c.cpp **** 	return 0;
 534              		.loc 1 120 2
 121:src/syscall_c.cpp **** }
 535              		.loc 1 121 1 is_stmt 0
 536 01e0 13050000 		li	a0,0
 537              	.LVL30:
 538 01e4 03348100 		ld	s0,8(sp)
 539              		.cfi_restore 8
 540              		.cfi_def_cfa 2, 16
 541 01e8 13010101 		addi	sp,sp,16
 542              		.cfi_def_cfa_offset 0
 543 01ec 67800000 		jr	ra
 544              		.cfi_endproc
 545              	.LFE29:
 547              		.align	2
 548              		.globl	_Z4getcv
 550              	_Z4getcv:
 551              	.LFB30:
 122:src/syscall_c.cpp **** 
 123:src/syscall_c.cpp **** char getc() {
 552              		.loc 1 123 13 is_stmt 1
 553              		.cfi_startproc
 554 01f0 130101FF 		addi	sp,sp,-16
 555              		.cfi_def_cfa_offset 16
 556 01f4 23341100 		sd	ra,8(sp)
 557 01f8 23308100 		sd	s0,0(sp)
 558              		.cfi_offset 1, -8
 559              		.cfi_offset 8, -16
 560 01fc 13040101 		addi	s0,sp,16
 561              		.cfi_def_cfa 8, 0
 124:src/syscall_c.cpp **** 	return __getc();
 562              		.loc 1 124 2
 563              		.loc 1 124 15 is_stmt 0
 564 0200 97000000 		call	__getc@plt
 564      E7800000 
 565              	.LVL31:
 125:src/syscall_c.cpp **** }
 566              		.loc 1 125 1
 567 0208 83308100 		ld	ra,8(sp)
GAS LISTING /tmp/ccSVas4j.s 			page 13


 568              		.cfi_restore 1
 569 020c 03340100 		ld	s0,0(sp)
 570              		.cfi_restore 8
 571              		.cfi_def_cfa 2, 16
 572 0210 13010101 		addi	sp,sp,16
 573              		.cfi_def_cfa_offset 0
 574 0214 67800000 		jr	ra
 575              		.cfi_endproc
 576              	.LFE30:
 578              		.align	2
 579              		.globl	_Z4putcc
 581              	_Z4putcc:
 582              	.LFB31:
 126:src/syscall_c.cpp **** 
 127:src/syscall_c.cpp **** void putc(char c) {
 583              		.loc 1 127 19 is_stmt 1
 584              		.cfi_startproc
 585              	.LVL32:
 586 0218 130101FF 		addi	sp,sp,-16
 587              		.cfi_def_cfa_offset 16
 588 021c 23341100 		sd	ra,8(sp)
 589 0220 23308100 		sd	s0,0(sp)
 590              		.cfi_offset 1, -8
 591              		.cfi_offset 8, -16
 592 0224 13040101 		addi	s0,sp,16
 593              		.cfi_def_cfa 8, 0
 128:src/syscall_c.cpp **** 	__putc(c);
 594              		.loc 1 128 2
 595              		.loc 1 128 8 is_stmt 0
 596 0228 97000000 		call	__putc@plt
 596      E7800000 
 597              	.LVL33:
 129:src/syscall_c.cpp **** }
 598              		.loc 1 129 1
 599 0230 83308100 		ld	ra,8(sp)
 600              		.cfi_restore 1
 601 0234 03340100 		ld	s0,0(sp)
 602              		.cfi_restore 8
 603              		.cfi_def_cfa 2, 16
 604 0238 13010101 		addi	sp,sp,16
 605              		.cfi_def_cfa_offset 0
 606 023c 67800000 		jr	ra
 607              		.cfi_endproc
 608              	.LFE31:
 610              	.Letext0:
 611              		.file 2 "src/../h/../lib/hw.h"
 612              		.file 3 "src/../h/syscall_c.hpp"
 613              		.file 4 "src/../lib/console.h"
GAS LISTING /tmp/ccSVas4j.s 			page 14


DEFINED SYMBOLS
                            *ABS*:0000000000000000 syscall_c.cpp
     /tmp/ccSVas4j.s:9      .text:0000000000000000 _Z9mem_allocm
     /tmp/ccSVas4j.s:13     .text:0000000000000000 .L0 
     /tmp/ccSVas4j.s:15     .text:0000000000000000 .L0 
     /tmp/ccSVas4j.s:16     .text:0000000000000004 .L0 
     /tmp/ccSVas4j.s:18     .text:0000000000000008 .L0 
     /tmp/ccSVas4j.s:20     .text:000000000000000c .L0 
     /tmp/ccSVas4j.s:22     .text:000000000000000c .L0 
     /tmp/ccSVas4j.s:23     .text:000000000000000c .L0 
     /tmp/ccSVas4j.s:26     .text:0000000000000010 .L0 
     /tmp/ccSVas4j.s:27     .text:0000000000000010 .L0 
     /tmp/ccSVas4j.s:29     .text:0000000000000014 .L0 
     /tmp/ccSVas4j.s:32     .text:0000000000000018 .L0 
     /tmp/ccSVas4j.s:36     .text:0000000000000020 .L0 
     /tmp/ccSVas4j.s:39     .text:0000000000000024 .L0 
   src/syscall_c.cpp:17     .text:0000000000000024 .L0 
     /tmp/ccSVas4j.s:45     .text:0000000000000028 .L0 
   src/syscall_c.cpp:18     .text:0000000000000028 .L0 
     /tmp/ccSVas4j.s:53     .text:000000000000002c .L0 
     /tmp/ccSVas4j.s:54     .text:000000000000002c .L0 
   src/syscall_c.cpp:7      .text:000000000000002c .L0 
     /tmp/ccSVas4j.s:63     .text:0000000000000030 .L0 
     /tmp/ccSVas4j.s:64     .text:0000000000000030 .L0 
   src/syscall_c.cpp:25     .text:0000000000000030 .L0 
     /tmp/ccSVas4j.s:71     .text:0000000000000034 .L0 
     /tmp/ccSVas4j.s:73     .text:0000000000000034 .L0 
     /tmp/ccSVas4j.s:74     .text:0000000000000038 .L0 
     /tmp/ccSVas4j.s:75     .text:0000000000000038 .L0 
     /tmp/ccSVas4j.s:77     .text:000000000000003c .L0 
     /tmp/ccSVas4j.s:79     .text:0000000000000040 .L0 
     /tmp/ccSVas4j.s:85     .text:0000000000000040 _Z8mem_freePv
     /tmp/ccSVas4j.s:88     .text:0000000000000040 .L0 
     /tmp/ccSVas4j.s:90     .text:0000000000000040 .L0 
     /tmp/ccSVas4j.s:91     .text:0000000000000044 .L0 
     /tmp/ccSVas4j.s:93     .text:0000000000000048 .L0 
     /tmp/ccSVas4j.s:95     .text:000000000000004c .L0 
     /tmp/ccSVas4j.s:98     .text:0000000000000050 .L0 
   src/syscall_c.cpp:31     .text:0000000000000050 .L0 
     /tmp/ccSVas4j.s:105    .text:0000000000000054 .L0 
   src/syscall_c.cpp:32     .text:0000000000000054 .L0 
     /tmp/ccSVas4j.s:113    .text:0000000000000058 .L0 
     /tmp/ccSVas4j.s:114    .text:0000000000000058 .L0 
   src/syscall_c.cpp:7      .text:0000000000000058 .L0 
     /tmp/ccSVas4j.s:123    .text:000000000000005c .L0 
     /tmp/ccSVas4j.s:124    .text:000000000000005c .L0 
   src/syscall_c.cpp:39     .text:000000000000005c .L0 
     /tmp/ccSVas4j.s:131    .text:0000000000000060 .L0 
     /tmp/ccSVas4j.s:133    .text:0000000000000060 .L0 
     /tmp/ccSVas4j.s:135    .text:0000000000000068 .L0 
     /tmp/ccSVas4j.s:136    .text:0000000000000068 .L0 
     /tmp/ccSVas4j.s:138    .text:000000000000006c .L0 
     /tmp/ccSVas4j.s:140    .text:0000000000000070 .L0 
     /tmp/ccSVas4j.s:146    .text:0000000000000070 _Z13thread_createPP3TCBPFvPvES2_
     /tmp/ccSVas4j.s:149    .text:0000000000000070 .L0 
     /tmp/ccSVas4j.s:151    .text:0000000000000070 .L0 
     /tmp/ccSVas4j.s:152    .text:0000000000000074 .L0 
GAS LISTING /tmp/ccSVas4j.s 			page 15


     /tmp/ccSVas4j.s:158    .text:0000000000000088 .L0 
     /tmp/ccSVas4j.s:159    .text:0000000000000088 .L0 
     /tmp/ccSVas4j.s:160    .text:0000000000000088 .L0 
     /tmp/ccSVas4j.s:161    .text:0000000000000088 .L0 
     /tmp/ccSVas4j.s:162    .text:0000000000000088 .L0 
     /tmp/ccSVas4j.s:164    .text:000000000000008c .L0 
     /tmp/ccSVas4j.s:170    .text:0000000000000098 .L0 
     /tmp/ccSVas4j.s:171    .text:0000000000000098 .L0 
     /tmp/ccSVas4j.s:173    .text:000000000000009c .L0 
     /tmp/ccSVas4j.s:174    .text:000000000000009c .L0 
     /tmp/ccSVas4j.s:182    .text:00000000000000ac .L0 
   src/syscall_c.cpp:51     .text:00000000000000ac .L0 
     /tmp/ccSVas4j.s:188    .text:00000000000000b0 .L0 
   src/syscall_c.cpp:52     .text:00000000000000b0 .L0 
     /tmp/ccSVas4j.s:193    .text:00000000000000b4 .L0 
   src/syscall_c.cpp:54     .text:00000000000000b4 .L0 
     /tmp/ccSVas4j.s:198    .text:00000000000000b8 .L0 
   src/syscall_c.cpp:55     .text:00000000000000b8 .L0 
     /tmp/ccSVas4j.s:203    .text:00000000000000bc .L0 
   src/syscall_c.cpp:56     .text:00000000000000bc .L0 
     /tmp/ccSVas4j.s:211    .text:00000000000000c0 .L0 
     /tmp/ccSVas4j.s:212    .text:00000000000000c0 .L0 
   src/syscall_c.cpp:7      .text:00000000000000c0 .L0 
     /tmp/ccSVas4j.s:221    .text:00000000000000c4 .L0 
     /tmp/ccSVas4j.s:222    .text:00000000000000c4 .L0 
   src/syscall_c.cpp:66     .text:00000000000000c4 .L0 
     /tmp/ccSVas4j.s:229    .text:00000000000000c8 .L0 
     /tmp/ccSVas4j.s:231    .text:00000000000000c8 .L0 
     /tmp/ccSVas4j.s:233    .text:00000000000000d0 .L0 
     /tmp/ccSVas4j.s:234    .text:00000000000000d0 .L0 
     /tmp/ccSVas4j.s:236    .text:00000000000000d4 .L0 
     /tmp/ccSVas4j.s:237    .text:00000000000000d4 .L0 
     /tmp/ccSVas4j.s:239    .text:00000000000000d8 .L0 
     /tmp/ccSVas4j.s:242    .text:00000000000000dc .L0 
     /tmp/ccSVas4j.s:245    .text:00000000000000e0 .L0 
     /tmp/ccSVas4j.s:248    .text:00000000000000e4 .L0 
     /tmp/ccSVas4j.s:252    .text:00000000000000e8 .L0 
     /tmp/ccSVas4j.s:254    .text:00000000000000e8 .L0 
     /tmp/ccSVas4j.s:256    .text:00000000000000f0 .L0 
     /tmp/ccSVas4j.s:262    .text:00000000000000f0 _Z11thread_exitv
     /tmp/ccSVas4j.s:265    .text:00000000000000f0 .L0 
     /tmp/ccSVas4j.s:266    .text:00000000000000f0 .L0 
     /tmp/ccSVas4j.s:267    .text:00000000000000f4 .L0 
     /tmp/ccSVas4j.s:269    .text:00000000000000f8 .L0 
     /tmp/ccSVas4j.s:271    .text:00000000000000fc .L0 
     /tmp/ccSVas4j.s:273    .text:00000000000000fc .L0 
   src/syscall_c.cpp:72     .text:00000000000000fc .L0 
     /tmp/ccSVas4j.s:282    .text:0000000000000100 .L0 
     /tmp/ccSVas4j.s:283    .text:0000000000000100 .L0 
   src/syscall_c.cpp:7      .text:0000000000000100 .L0 
     /tmp/ccSVas4j.s:292    .text:0000000000000104 .L0 
     /tmp/ccSVas4j.s:293    .text:0000000000000104 .L0 
   src/syscall_c.cpp:77     .text:0000000000000104 .L0 
     /tmp/ccSVas4j.s:300    .text:0000000000000108 .L0 
     /tmp/ccSVas4j.s:302    .text:0000000000000108 .L0 
     /tmp/ccSVas4j.s:304    .text:0000000000000110 .L0 
     /tmp/ccSVas4j.s:305    .text:0000000000000110 .L0 
GAS LISTING /tmp/ccSVas4j.s 			page 16


     /tmp/ccSVas4j.s:307    .text:0000000000000114 .L0 
     /tmp/ccSVas4j.s:309    .text:0000000000000118 .L0 
     /tmp/ccSVas4j.s:315    .text:0000000000000118 _Z15thread_dispatchv
     /tmp/ccSVas4j.s:318    .text:0000000000000118 .L0 
     /tmp/ccSVas4j.s:319    .text:0000000000000118 .L0 
     /tmp/ccSVas4j.s:320    .text:000000000000011c .L0 
     /tmp/ccSVas4j.s:322    .text:0000000000000120 .L0 
     /tmp/ccSVas4j.s:324    .text:0000000000000124 .L0 
     /tmp/ccSVas4j.s:326    .text:0000000000000124 .L0 
   src/syscall_c.cpp:83     .text:0000000000000124 .L0 
     /tmp/ccSVas4j.s:335    .text:0000000000000128 .L0 
     /tmp/ccSVas4j.s:336    .text:0000000000000128 .L0 
   src/syscall_c.cpp:7      .text:0000000000000128 .L0 
     /tmp/ccSVas4j.s:345    .text:000000000000012c .L0 
     /tmp/ccSVas4j.s:346    .text:0000000000000130 .L0 
     /tmp/ccSVas4j.s:347    .text:0000000000000130 .L0 
     /tmp/ccSVas4j.s:349    .text:0000000000000134 .L0 
     /tmp/ccSVas4j.s:351    .text:0000000000000138 .L0 
     /tmp/ccSVas4j.s:357    .text:0000000000000138 _Z11thread_joinP3TCB
     /tmp/ccSVas4j.s:360    .text:0000000000000138 .L0 
     /tmp/ccSVas4j.s:362    .text:0000000000000138 .L0 
     /tmp/ccSVas4j.s:363    .text:000000000000013c .L0 
     /tmp/ccSVas4j.s:365    .text:0000000000000140 .L0 
     /tmp/ccSVas4j.s:367    .text:0000000000000144 .L0 
     /tmp/ccSVas4j.s:369    .text:0000000000000144 .L0 
     /tmp/ccSVas4j.s:370    .text:0000000000000148 .L0 
     /tmp/ccSVas4j.s:371    .text:0000000000000148 .L0 
     /tmp/ccSVas4j.s:373    .text:000000000000014c .L0 
     /tmp/ccSVas4j.s:375    .text:0000000000000150 .L0 
     /tmp/ccSVas4j.s:381    .text:0000000000000150 _Z10time_sleepm
     /tmp/ccSVas4j.s:384    .text:0000000000000150 .L0 
     /tmp/ccSVas4j.s:386    .text:0000000000000150 .L0 
     /tmp/ccSVas4j.s:387    .text:0000000000000154 .L0 
     /tmp/ccSVas4j.s:389    .text:0000000000000158 .L0 
     /tmp/ccSVas4j.s:391    .text:000000000000015c .L0 
     /tmp/ccSVas4j.s:394    .text:0000000000000160 .L0 
   src/syscall_c.cpp:95     .text:0000000000000160 .L0 
     /tmp/ccSVas4j.s:401    .text:0000000000000164 .L0 
   src/syscall_c.cpp:96     .text:0000000000000164 .L0 
     /tmp/ccSVas4j.s:409    .text:0000000000000168 .L0 
     /tmp/ccSVas4j.s:410    .text:0000000000000168 .L0 
   src/syscall_c.cpp:7      .text:0000000000000168 .L0 
     /tmp/ccSVas4j.s:419    .text:000000000000016c .L0 
     /tmp/ccSVas4j.s:420    .text:000000000000016c .L0 
   src/syscall_c.cpp:103    .text:000000000000016c .L0 
     /tmp/ccSVas4j.s:427    .text:0000000000000170 .L0 
     /tmp/ccSVas4j.s:429    .text:0000000000000170 .L0 
     /tmp/ccSVas4j.s:431    .text:0000000000000178 .L0 
     /tmp/ccSVas4j.s:432    .text:0000000000000178 .L0 
     /tmp/ccSVas4j.s:434    .text:000000000000017c .L0 
     /tmp/ccSVas4j.s:436    .text:0000000000000180 .L0 
     /tmp/ccSVas4j.s:442    .text:0000000000000180 _Z8sem_openPP4_semj
     /tmp/ccSVas4j.s:445    .text:0000000000000180 .L0 
     /tmp/ccSVas4j.s:447    .text:0000000000000180 .L0 
     /tmp/ccSVas4j.s:448    .text:0000000000000184 .L0 
     /tmp/ccSVas4j.s:450    .text:0000000000000188 .L0 
     /tmp/ccSVas4j.s:452    .text:000000000000018c .L0 
GAS LISTING /tmp/ccSVas4j.s 			page 17


     /tmp/ccSVas4j.s:454    .text:000000000000018c .L0 
     /tmp/ccSVas4j.s:455    .text:000000000000018c .L0 
     /tmp/ccSVas4j.s:458    .text:0000000000000194 .L0 
     /tmp/ccSVas4j.s:459    .text:0000000000000194 .L0 
     /tmp/ccSVas4j.s:461    .text:0000000000000198 .L0 
     /tmp/ccSVas4j.s:463    .text:000000000000019c .L0 
     /tmp/ccSVas4j.s:469    .text:000000000000019c _Z9sem_closeP4_sem
     /tmp/ccSVas4j.s:472    .text:000000000000019c .L0 
     /tmp/ccSVas4j.s:474    .text:000000000000019c .L0 
     /tmp/ccSVas4j.s:475    .text:00000000000001a0 .L0 
     /tmp/ccSVas4j.s:477    .text:00000000000001a4 .L0 
     /tmp/ccSVas4j.s:479    .text:00000000000001a8 .L0 
     /tmp/ccSVas4j.s:481    .text:00000000000001a8 .L0 
     /tmp/ccSVas4j.s:482    .text:00000000000001a8 .L0 
     /tmp/ccSVas4j.s:485    .text:00000000000001b0 .L0 
     /tmp/ccSVas4j.s:486    .text:00000000000001b0 .L0 
     /tmp/ccSVas4j.s:488    .text:00000000000001b4 .L0 
     /tmp/ccSVas4j.s:490    .text:00000000000001b8 .L0 
     /tmp/ccSVas4j.s:496    .text:00000000000001b8 _Z8sem_waitP4_sem
     /tmp/ccSVas4j.s:499    .text:00000000000001b8 .L0 
     /tmp/ccSVas4j.s:501    .text:00000000000001b8 .L0 
     /tmp/ccSVas4j.s:502    .text:00000000000001bc .L0 
     /tmp/ccSVas4j.s:504    .text:00000000000001c0 .L0 
     /tmp/ccSVas4j.s:506    .text:00000000000001c4 .L0 
     /tmp/ccSVas4j.s:508    .text:00000000000001c4 .L0 
     /tmp/ccSVas4j.s:509    .text:00000000000001c4 .L0 
     /tmp/ccSVas4j.s:512    .text:00000000000001cc .L0 
     /tmp/ccSVas4j.s:513    .text:00000000000001cc .L0 
     /tmp/ccSVas4j.s:515    .text:00000000000001d0 .L0 
     /tmp/ccSVas4j.s:517    .text:00000000000001d4 .L0 
     /tmp/ccSVas4j.s:523    .text:00000000000001d4 _Z10sem_signalP4_sem
     /tmp/ccSVas4j.s:526    .text:00000000000001d4 .L0 
     /tmp/ccSVas4j.s:528    .text:00000000000001d4 .L0 
     /tmp/ccSVas4j.s:529    .text:00000000000001d8 .L0 
     /tmp/ccSVas4j.s:531    .text:00000000000001dc .L0 
     /tmp/ccSVas4j.s:533    .text:00000000000001e0 .L0 
     /tmp/ccSVas4j.s:535    .text:00000000000001e0 .L0 
     /tmp/ccSVas4j.s:536    .text:00000000000001e0 .L0 
     /tmp/ccSVas4j.s:539    .text:00000000000001e8 .L0 
     /tmp/ccSVas4j.s:540    .text:00000000000001e8 .L0 
     /tmp/ccSVas4j.s:542    .text:00000000000001ec .L0 
     /tmp/ccSVas4j.s:544    .text:00000000000001f0 .L0 
     /tmp/ccSVas4j.s:550    .text:00000000000001f0 _Z4getcv
     /tmp/ccSVas4j.s:553    .text:00000000000001f0 .L0 
     /tmp/ccSVas4j.s:554    .text:00000000000001f0 .L0 
     /tmp/ccSVas4j.s:555    .text:00000000000001f4 .L0 
     /tmp/ccSVas4j.s:558    .text:00000000000001fc .L0 
     /tmp/ccSVas4j.s:559    .text:00000000000001fc .L0 
     /tmp/ccSVas4j.s:561    .text:0000000000000200 .L0 
     /tmp/ccSVas4j.s:563    .text:0000000000000200 .L0 
     /tmp/ccSVas4j.s:564    .text:0000000000000200 .L0 
     /tmp/ccSVas4j.s:567    .text:0000000000000208 .L0 
     /tmp/ccSVas4j.s:568    .text:000000000000020c .L0 
     /tmp/ccSVas4j.s:570    .text:0000000000000210 .L0 
     /tmp/ccSVas4j.s:571    .text:0000000000000210 .L0 
     /tmp/ccSVas4j.s:573    .text:0000000000000214 .L0 
     /tmp/ccSVas4j.s:575    .text:0000000000000218 .L0 
GAS LISTING /tmp/ccSVas4j.s 			page 18


     /tmp/ccSVas4j.s:581    .text:0000000000000218 _Z4putcc
     /tmp/ccSVas4j.s:584    .text:0000000000000218 .L0 
     /tmp/ccSVas4j.s:586    .text:0000000000000218 .L0 
     /tmp/ccSVas4j.s:587    .text:000000000000021c .L0 
     /tmp/ccSVas4j.s:590    .text:0000000000000224 .L0 
     /tmp/ccSVas4j.s:591    .text:0000000000000224 .L0 
     /tmp/ccSVas4j.s:593    .text:0000000000000228 .L0 
     /tmp/ccSVas4j.s:595    .text:0000000000000228 .L0 
     /tmp/ccSVas4j.s:596    .text:0000000000000228 .L0 
     /tmp/ccSVas4j.s:599    .text:0000000000000230 .L0 
     /tmp/ccSVas4j.s:600    .text:0000000000000234 .L0 
     /tmp/ccSVas4j.s:602    .text:0000000000000238 .L0 
     /tmp/ccSVas4j.s:603    .text:0000000000000238 .L0 
     /tmp/ccSVas4j.s:605    .text:000000000000023c .L0 
     /tmp/ccSVas4j.s:607    .text:0000000000000240 .L0 
     /tmp/ccSVas4j.s:614    .text:0000000000000240 .L0 
     /tmp/ccSVas4j.s:34     .text:0000000000000020 .L2
     /tmp/ccSVas4j.s:251    .text:00000000000000e8 .L8
     /tmp/ccSVas4j.s:180    .text:00000000000000ac .L7
     /tmp/ccSVas4j.s:1188   .debug_abbrev:0000000000000000 .Ldebug_abbrev0
     /tmp/ccSVas4j.s:1953   .debug_str:00000000000002dc .LASF58
     /tmp/ccSVas4j.s:1897   .debug_str:000000000000015d .LASF59
     /tmp/ccSVas4j.s:1885   .debug_str:0000000000000111 .LASF60
     /tmp/ccSVas4j.s:5      .text:0000000000000000 .Ltext0
     /tmp/ccSVas4j.s:610    .text:0000000000000240 .Letext0
     /tmp/ccSVas4j.s:1837   .debug_line:0000000000000000 .Ldebug_line0
     /tmp/ccSVas4j.s:1909   .debug_str:00000000000001af .LASF0
     /tmp/ccSVas4j.s:1913   .debug_str:00000000000001c2 .LASF1
     /tmp/ccSVas4j.s:1903   .debug_str:0000000000000189 .LASF2
     /tmp/ccSVas4j.s:1895   .debug_str:0000000000000156 .LASF4
     /tmp/ccSVas4j.s:1943   .debug_str:00000000000002a8 .LASF3
     /tmp/ccSVas4j.s:1851   .debug_str:000000000000003d .LASF5
     /tmp/ccSVas4j.s:1869   .debug_str:00000000000000c1 .LASF6
     /tmp/ccSVas4j.s:1917   .debug_str:00000000000001dc .LASF7
     /tmp/ccSVas4j.s:1907   .debug_str:000000000000019c .LASF8
     /tmp/ccSVas4j.s:1959   .debug_str:00000000000003ba .LASF9
     /tmp/ccSVas4j.s:1883   .debug_str:0000000000000103 .LASF10
     /tmp/ccSVas4j.s:1925   .debug_str:000000000000020c .LASF11
     /tmp/ccSVas4j.s:1955   .debug_str:00000000000003a0 .LASF12
     /tmp/ccSVas4j.s:1853   .debug_str:0000000000000044 .LASF13
     /tmp/ccSVas4j.s:1841   .debug_str:0000000000000009 .LASF14
     /tmp/ccSVas4j.s:1857   .debug_str:0000000000000066 .LASF15
     /tmp/ccSVas4j.s:1937   .debug_str:0000000000000276 .LASF16
     /tmp/ccSVas4j.s:1865   .debug_str:000000000000009d .LASF17
     /tmp/ccSVas4j.s:1839   .debug_str:0000000000000000 .LASF18
     /tmp/ccSVas4j.s:1873   .debug_str:00000000000000d1 .LASF19
     /tmp/ccSVas4j.s:1893   .debug_str:0000000000000151 .LASF20
     /tmp/ccSVas4j.s:1877   .debug_str:00000000000000e0 .LASF21
     /tmp/ccSVas4j.s:1905   .debug_str:0000000000000197 .LASF39
     /tmp/ccSVas4j.s:1879   .debug_str:00000000000000e5 .LASF41
     /tmp/ccSVas4j.s:582    .text:0000000000000218 .LFB31
     /tmp/ccSVas4j.s:608    .text:0000000000000240 .LFE31
     /tmp/ccSVas4j.s:1618   .debug_loc:0000000000000000 .LLST12
     /tmp/ccSVas4j.s:597    .text:0000000000000230 .LVL33
     /tmp/ccSVas4j.s:1919   .debug_str:00000000000001ef .LASF22
     /tmp/ccSVas4j.s:1843   .debug_str:0000000000000019 .LASF23
     /tmp/ccSVas4j.s:1847   .debug_str:000000000000002a .LASF25
GAS LISTING /tmp/ccSVas4j.s 			page 19


     /tmp/ccSVas4j.s:551    .text:00000000000001f0 .LFB30
     /tmp/ccSVas4j.s:576    .text:0000000000000218 .LFE30
     /tmp/ccSVas4j.s:565    .text:0000000000000208 .LVL31
     /tmp/ccSVas4j.s:1957   .debug_str:00000000000003af .LASF24
     /tmp/ccSVas4j.s:1881   .debug_str:00000000000000ee .LASF26
     /tmp/ccSVas4j.s:524    .text:00000000000001d4 .LFB29
     /tmp/ccSVas4j.s:545    .text:00000000000001f0 .LFE29
     /tmp/ccSVas4j.s:1632   .debug_loc:0000000000000039 .LLST11
     /tmp/ccSVas4j.s:1859   .debug_str:0000000000000072 .LASF27
     /tmp/ccSVas4j.s:1855   .debug_str:0000000000000054 .LASF28
     /tmp/ccSVas4j.s:497    .text:00000000000001b8 .LFB28
     /tmp/ccSVas4j.s:518    .text:00000000000001d4 .LFE28
     /tmp/ccSVas4j.s:1646   .debug_loc:0000000000000072 .LLST10
     /tmp/ccSVas4j.s:1899   .debug_str:000000000000016f .LASF29
     /tmp/ccSVas4j.s:1923   .debug_str:00000000000001f9 .LASF30
     /tmp/ccSVas4j.s:470    .text:000000000000019c .LFB27
     /tmp/ccSVas4j.s:491    .text:00000000000001b8 .LFE27
     /tmp/ccSVas4j.s:1947   .debug_str:00000000000002c4 .LASF31
     /tmp/ccSVas4j.s:1660   .debug_loc:00000000000000ab .LLST9
     /tmp/ccSVas4j.s:1875   .debug_str:00000000000000d7 .LASF32
     /tmp/ccSVas4j.s:1863   .debug_str:0000000000000089 .LASF33
     /tmp/ccSVas4j.s:443    .text:0000000000000180 .LFB26
     /tmp/ccSVas4j.s:464    .text:000000000000019c .LFE26
     /tmp/ccSVas4j.s:1674   .debug_loc:00000000000000e4 .LLST8
     /tmp/ccSVas4j.s:1921   .debug_str:00000000000001f4 .LASF34
     /tmp/ccSVas4j.s:1939   .debug_str:000000000000028c .LASF35
     /tmp/ccSVas4j.s:1929   .debug_str:0000000000000230 .LASF36
     /tmp/ccSVas4j.s:382    .text:0000000000000150 .LFB25
     /tmp/ccSVas4j.s:437    .text:0000000000000180 .LFE25
     /tmp/ccSVas4j.s:1961   .debug_str:00000000000003ca .LASF37
     /tmp/ccSVas4j.s:1688   .debug_loc:000000000000011d .LLST7
     /tmp/ccSVas4j.s:1915   .debug_str:00000000000001d5 .LASF38
     /tmp/ccSVas4j.s:407    .text:0000000000000168 .LBB24
     /tmp/ccSVas4j.s:417    .text:000000000000016c .LBE24
     /tmp/ccSVas4j.s:1951   .debug_str:00000000000002d0 .LASF40
     /tmp/ccSVas4j.s:1887   .debug_str:000000000000012f .LASF42
     /tmp/ccSVas4j.s:358    .text:0000000000000138 .LFB24
     /tmp/ccSVas4j.s:376    .text:0000000000000150 .LFE24
     /tmp/ccSVas4j.s:1901   .debug_str:0000000000000179 .LASF43
     /tmp/ccSVas4j.s:1927   .debug_str:000000000000021b .LASF44
     /tmp/ccSVas4j.s:316    .text:0000000000000118 .LFB23
     /tmp/ccSVas4j.s:352    .text:0000000000000138 .LFE23
     /tmp/ccSVas4j.s:333    .text:0000000000000128 .LBB22
     /tmp/ccSVas4j.s:343    .text:000000000000012c .LBE22
     /tmp/ccSVas4j.s:1845   .debug_str:000000000000001e .LASF45
     /tmp/ccSVas4j.s:1941   .debug_str:0000000000000297 .LASF46
     /tmp/ccSVas4j.s:263    .text:00000000000000f0 .LFB22
     /tmp/ccSVas4j.s:310    .text:0000000000000118 .LFE22
     /tmp/ccSVas4j.s:280    .text:0000000000000100 .LBB20
     /tmp/ccSVas4j.s:290    .text:0000000000000104 .LBE20
     /tmp/ccSVas4j.s:1867   .debug_str:00000000000000b3 .LASF47
     /tmp/ccSVas4j.s:1933   .debug_str:000000000000024e .LASF48
     /tmp/ccSVas4j.s:147    .text:0000000000000070 .LFB21
     /tmp/ccSVas4j.s:257    .text:00000000000000f0 .LFE21
     /tmp/ccSVas4j.s:1699   .debug_loc:0000000000000153 .LLST2
     /tmp/ccSVas4j.s:1931   .debug_str:0000000000000240 .LASF49
     /tmp/ccSVas4j.s:1721   .debug_loc:00000000000001b2 .LLST3
GAS LISTING /tmp/ccSVas4j.s 			page 20


     /tmp/ccSVas4j.s:1743   .debug_loc:0000000000000211 .LLST4
     /tmp/ccSVas4j.s:1891   .debug_str:000000000000014b .LASF50
     /tmp/ccSVas4j.s:1765   .debug_loc:0000000000000270 .LLST5
     /tmp/ccSVas4j.s:1782   .debug_loc:00000000000002bb .LLST6
     /tmp/ccSVas4j.s:209    .text:00000000000000c0 .LBB18
     /tmp/ccSVas4j.s:219    .text:00000000000000c4 .LBE18
     /tmp/ccSVas4j.s:177    .text:00000000000000a8 .LVL11
     /tmp/ccSVas4j.s:1871   .debug_str:00000000000000c8 .LASF51
     /tmp/ccSVas4j.s:1963   .debug_str:00000000000003d7 .LASF52
     /tmp/ccSVas4j.s:86     .text:0000000000000040 .LFB20
     /tmp/ccSVas4j.s:141    .text:0000000000000070 .LFE20
     /tmp/ccSVas4j.s:1789   .debug_loc:00000000000002de .LLST1
     /tmp/ccSVas4j.s:111    .text:0000000000000058 .LBB16
     /tmp/ccSVas4j.s:121    .text:000000000000005c .LBE16
     /tmp/ccSVas4j.s:1945   .debug_str:00000000000002ba .LASF53
     /tmp/ccSVas4j.s:1861   .debug_str:000000000000007b .LASF54
     /tmp/ccSVas4j.s:10     .text:0000000000000000 .LFB19
     /tmp/ccSVas4j.s:80     .text:0000000000000040 .LFE19
     /tmp/ccSVas4j.s:1949   .debug_str:00000000000002cb .LASF55
     /tmp/ccSVas4j.s:1800   .debug_loc:0000000000000314 .LLST0
     /tmp/ccSVas4j.s:51     .text:000000000000002c .LBB14
     /tmp/ccSVas4j.s:61     .text:0000000000000030 .LBE14
     /tmp/ccSVas4j.s:1911   .debug_str:00000000000001bc .LASF61
     /tmp/ccSVas4j.s:1849   .debug_str:0000000000000033 .LASF62
     /tmp/ccSVas4j.s:1935   .debug_str:000000000000026f .LASF56
     /tmp/ccSVas4j.s:1889   .debug_str:0000000000000144 .LASF57
     /tmp/ccSVas4j.s:585    .text:0000000000000218 .LVL32
     /tmp/ccSVas4j.s:527    .text:00000000000001d4 .LVL29
     /tmp/ccSVas4j.s:537    .text:00000000000001e4 .LVL30
     /tmp/ccSVas4j.s:500    .text:00000000000001b8 .LVL27
     /tmp/ccSVas4j.s:510    .text:00000000000001c8 .LVL28
     /tmp/ccSVas4j.s:473    .text:000000000000019c .LVL25
     /tmp/ccSVas4j.s:483    .text:00000000000001ac .LVL26
     /tmp/ccSVas4j.s:446    .text:0000000000000180 .LVL23
     /tmp/ccSVas4j.s:456    .text:0000000000000190 .LVL24
     /tmp/ccSVas4j.s:385    .text:0000000000000150 .LVL20
     /tmp/ccSVas4j.s:399    .text:0000000000000164 .LVL21
     /tmp/ccSVas4j.s:150    .text:0000000000000070 .LVL8
     /tmp/ccSVas4j.s:175    .text:00000000000000a0 .LVL10
     /tmp/ccSVas4j.s:243    .text:00000000000000dc .LVL15
     /tmp/ccSVas4j.s:250    .text:00000000000000e8 .LVL17
     /tmp/ccSVas4j.s:240    .text:00000000000000d8 .LVL14
     /tmp/ccSVas4j.s:246    .text:00000000000000e0 .LVL16
     /tmp/ccSVas4j.s:169    .text:0000000000000098 .LVL9
     /tmp/ccSVas4j.s:179    .text:00000000000000ac .LVL12
     /tmp/ccSVas4j.s:227    .text:00000000000000c8 .LVL13
     /tmp/ccSVas4j.s:89     .text:0000000000000040 .LVL5
     /tmp/ccSVas4j.s:103    .text:0000000000000054 .LVL6
     /tmp/ccSVas4j.s:14     .text:0000000000000000 .LVL0
     /tmp/ccSVas4j.s:24     .text:0000000000000010 .LVL1
     /tmp/ccSVas4j.s:30     .text:0000000000000018 .LVL2
     /tmp/ccSVas4j.s:37     .text:0000000000000024 .LVL3
     /tmp/ccSVas4j.s:615    .debug_info:0000000000000000 .Ldebug_info0

UNDEFINED SYMBOLS
__getc
__putc
GAS LISTING /tmp/ccSVas4j.s 			page 21


