GAS LISTING /tmp/ccU8CX3A.s 			page 1


   1              		.file	"syscall_cpp.cpp"
   2              		.option pic
   3              		.option norelax
   4              		.text
   5              	.Ltext0:
   6              		.section	.text._ZN6Thread3runEv,"axG",@progbits,_ZN6Thread3runEv,comdat
   7              		.align	2
   8              		.weak	_ZN6Thread3runEv
  10              	_ZN6Thread3runEv:
  11              	.LFB0:
  12              		.file 1 "src/../h/syscall_cpp.hpp"
   1:src/../h/syscall_cpp.hpp **** #ifndef _syscall_cpp
   2:src/../h/syscall_cpp.hpp **** #define _syscall_cpp
   3:src/../h/syscall_cpp.hpp **** 
   4:src/../h/syscall_cpp.hpp **** #include "../lib/hw.h"
   5:src/../h/syscall_cpp.hpp **** 
   6:src/../h/syscall_cpp.hpp **** void* operator new(size_t);
   7:src/../h/syscall_cpp.hpp **** 
   8:src/../h/syscall_cpp.hpp **** void* operator new[](size_t);
   9:src/../h/syscall_cpp.hpp **** 
  10:src/../h/syscall_cpp.hpp **** void operator delete(void*)
  11:src/../h/syscall_cpp.hpp **** 
  12:src/../h/syscall_cpp.hpp **** noexcept;
  13:src/../h/syscall_cpp.hpp **** 
  14:src/../h/syscall_cpp.hpp **** void operator delete[](void*)
  15:src/../h/syscall_cpp.hpp **** 
  16:src/../h/syscall_cpp.hpp **** noexcept;
  17:src/../h/syscall_cpp.hpp **** 
  18:src/../h/syscall_cpp.hpp **** class TCB;
  19:src/../h/syscall_cpp.hpp **** 
  20:src/../h/syscall_cpp.hpp **** typedef TCB* thread_t;
  21:src/../h/syscall_cpp.hpp **** 
  22:src/../h/syscall_cpp.hpp **** class KSem;
  23:src/../h/syscall_cpp.hpp **** 
  24:src/../h/syscall_cpp.hpp **** typedef KSem* sem_t;
  25:src/../h/syscall_cpp.hpp **** 
  26:src/../h/syscall_cpp.hpp **** class Thread {
  27:src/../h/syscall_cpp.hpp **** public:
  28:src/../h/syscall_cpp.hpp **** 	Thread(void (* body)(void*), void* arg);
  29:src/../h/syscall_cpp.hpp **** 
  30:src/../h/syscall_cpp.hpp **** 	virtual ~Thread();
  31:src/../h/syscall_cpp.hpp **** 
  32:src/../h/syscall_cpp.hpp **** 	int start();
  33:src/../h/syscall_cpp.hpp **** 
  34:src/../h/syscall_cpp.hpp **** 	void join();
  35:src/../h/syscall_cpp.hpp **** 
  36:src/../h/syscall_cpp.hpp **** 	static void dispatch();
  37:src/../h/syscall_cpp.hpp **** 
  38:src/../h/syscall_cpp.hpp **** 	static int sleep(time_t);
  39:src/../h/syscall_cpp.hpp **** 
  40:src/../h/syscall_cpp.hpp **** protected:
  41:src/../h/syscall_cpp.hpp **** 	Thread();
  42:src/../h/syscall_cpp.hpp **** 
  43:src/../h/syscall_cpp.hpp **** 	virtual void run() {}
  13              		.loc 1 43 15
  14              		.cfi_startproc
  15              	.LVL0:
GAS LISTING /tmp/ccU8CX3A.s 			page 2


  16 0000 130101FF 		addi	sp,sp,-16
  17              		.cfi_def_cfa_offset 16
  18 0004 23348100 		sd	s0,8(sp)
  19              		.cfi_offset 8, -8
  20 0008 13040101 		addi	s0,sp,16
  21              		.cfi_def_cfa 8, 0
  22              		.loc 1 43 22 is_stmt 0
  23 000c 03348100 		ld	s0,8(sp)
  24              		.cfi_restore 8
  25              		.cfi_def_cfa 2, 16
  26 0010 13010101 		addi	sp,sp,16
  27              		.cfi_def_cfa_offset 0
  28 0014 67800000 		jr	ra
  29              		.cfi_endproc
  30              	.LFE0:
  32              		.section	.text._ZN14PeriodicThread18periodicActivationEv,"axG",@progbits,_ZN14PeriodicThread18peri
  33              		.align	2
  34              		.weak	_ZN14PeriodicThread18periodicActivationEv
  36              	_ZN14PeriodicThread18periodicActivationEv:
  37              	.LFB1:
  44:src/../h/syscall_cpp.hpp **** 
  45:src/../h/syscall_cpp.hpp **** private:
  46:src/../h/syscall_cpp.hpp **** 	thread_t myHandle;
  47:src/../h/syscall_cpp.hpp **** 
  48:src/../h/syscall_cpp.hpp **** 	void (* body)(void*);
  49:src/../h/syscall_cpp.hpp **** 
  50:src/../h/syscall_cpp.hpp **** 	void* arg;
  51:src/../h/syscall_cpp.hpp **** };
  52:src/../h/syscall_cpp.hpp **** 
  53:src/../h/syscall_cpp.hpp **** 
  54:src/../h/syscall_cpp.hpp **** class Semaphore {
  55:src/../h/syscall_cpp.hpp **** public:
  56:src/../h/syscall_cpp.hpp **** 
  57:src/../h/syscall_cpp.hpp **** 	Semaphore(unsigned init = 1);
  58:src/../h/syscall_cpp.hpp **** 
  59:src/../h/syscall_cpp.hpp **** 	virtual ~Semaphore();
  60:src/../h/syscall_cpp.hpp **** 
  61:src/../h/syscall_cpp.hpp **** 	int wait();
  62:src/../h/syscall_cpp.hpp **** 
  63:src/../h/syscall_cpp.hpp **** 	int signal();
  64:src/../h/syscall_cpp.hpp **** 
  65:src/../h/syscall_cpp.hpp **** private:
  66:src/../h/syscall_cpp.hpp **** 	sem_t myHandle;
  67:src/../h/syscall_cpp.hpp **** 
  68:src/../h/syscall_cpp.hpp **** };
  69:src/../h/syscall_cpp.hpp **** 
  70:src/../h/syscall_cpp.hpp **** 
  71:src/../h/syscall_cpp.hpp **** class PeriodicThread : public Thread {
  72:src/../h/syscall_cpp.hpp **** public:
  73:src/../h/syscall_cpp.hpp **** 	void terminate();
  74:src/../h/syscall_cpp.hpp **** 
  75:src/../h/syscall_cpp.hpp **** protected:
  76:src/../h/syscall_cpp.hpp **** 	PeriodicThread(time_t period);
  77:src/../h/syscall_cpp.hpp **** 
  78:src/../h/syscall_cpp.hpp **** 	virtual void periodicActivation() {}
  38              		.loc 1 78 15 is_stmt 1
  39              		.cfi_startproc
GAS LISTING /tmp/ccU8CX3A.s 			page 3


  40              	.LVL1:
  41 0000 130101FF 		addi	sp,sp,-16
  42              		.cfi_def_cfa_offset 16
  43 0004 23348100 		sd	s0,8(sp)
  44              		.cfi_offset 8, -8
  45 0008 13040101 		addi	s0,sp,16
  46              		.cfi_def_cfa 8, 0
  47              		.loc 1 78 37 is_stmt 0
  48 000c 03348100 		ld	s0,8(sp)
  49              		.cfi_restore 8
  50              		.cfi_def_cfa 2, 16
  51 0010 13010101 		addi	sp,sp,16
  52              		.cfi_def_cfa_offset 0
  53 0014 67800000 		jr	ra
  54              		.cfi_endproc
  55              	.LFE1:
  57              		.text
  58              		.align	2
  59              		.globl	_ZN6ThreadD2Ev
  61              	_ZN6ThreadD2Ev:
  62              	.LFB39:
  63              		.file 2 "src/syscall_cpp.cpp"
   1:src/syscall_cpp.cpp **** //
   2:src/syscall_cpp.cpp **** // Created by os on 5/29/23.
   3:src/syscall_cpp.cpp **** //
   4:src/syscall_cpp.cpp **** #include "../h/syscall_cpp.hpp"
   5:src/syscall_cpp.cpp **** #include "../h/syscall_c.hpp"
   6:src/syscall_cpp.cpp **** #include "../h/TCB.hpp"
   7:src/syscall_cpp.cpp **** #include "../h/KSem.hpp"
   8:src/syscall_cpp.cpp **** 
   9:src/syscall_cpp.cpp **** //override globalnog new
  10:src/syscall_cpp.cpp **** void* operator new(size_t size) {
  11:src/syscall_cpp.cpp **** 	return mem_alloc(size);
  12:src/syscall_cpp.cpp **** }
  13:src/syscall_cpp.cpp **** 
  14:src/syscall_cpp.cpp **** void* operator new[](size_t size) {
  15:src/syscall_cpp.cpp **** 	return mem_alloc(size);
  16:src/syscall_cpp.cpp **** }
  17:src/syscall_cpp.cpp **** 
  18:src/syscall_cpp.cpp **** void operator delete(void* ptr)
  19:src/syscall_cpp.cpp **** 
  20:src/syscall_cpp.cpp **** noexcept {
  21:src/syscall_cpp.cpp **** mem_free(ptr);
  22:src/syscall_cpp.cpp **** }
  23:src/syscall_cpp.cpp **** 
  24:src/syscall_cpp.cpp **** void operator delete[](void* ptr)
  25:src/syscall_cpp.cpp **** 
  26:src/syscall_cpp.cpp **** noexcept {
  27:src/syscall_cpp.cpp **** mem_free(ptr);
  28:src/syscall_cpp.cpp **** }
  29:src/syscall_cpp.cpp **** 
  30:src/syscall_cpp.cpp **** //konstruktor za Thread
  31:src/syscall_cpp.cpp **** Thread::Thread(void (* body)(void*), void* arg) {
  32:src/syscall_cpp.cpp **** 	uint64* stack = nullptr;
  33:src/syscall_cpp.cpp **** 	if (body != nullptr) {
  34:src/syscall_cpp.cpp **** 		stack = (uint64*)mem_alloc(DEFAULT_STACK_SIZE);
  35:src/syscall_cpp.cpp **** 	}
GAS LISTING /tmp/ccU8CX3A.s 			page 4


  36:src/syscall_cpp.cpp **** 	myHandle = TCB::createThread(body,arg,stack);
  37:src/syscall_cpp.cpp **** }
  38:src/syscall_cpp.cpp **** 
  39:src/syscall_cpp.cpp **** Thread::~Thread() {
  64              		.loc 2 39 1 is_stmt 1
  65              		.cfi_startproc
  66              	.LVL2:
  67 0000 130101FF 		addi	sp,sp,-16
  68              		.cfi_def_cfa_offset 16
  69 0004 23348100 		sd	s0,8(sp)
  70              		.cfi_offset 8, -8
  71 0008 13040101 		addi	s0,sp,16
  72              		.cfi_def_cfa 8, 0
  40:src/syscall_cpp.cpp **** 
  41:src/syscall_cpp.cpp **** }
  73              		.loc 2 41 1 is_stmt 0
  74 000c 03348100 		ld	s0,8(sp)
  75              		.cfi_restore 8
  76              		.cfi_def_cfa 2, 16
  77 0010 13010101 		addi	sp,sp,16
  78              		.cfi_def_cfa_offset 0
  79 0014 67800000 		jr	ra
  80              		.cfi_endproc
  81              	.LFE39:
  83              		.globl	_ZN6ThreadD1Ev
  84              		.set	_ZN6ThreadD1Ev,_ZN6ThreadD2Ev
  85              		.section	.text._ZN14PeriodicThreadD2Ev,"axG",@progbits,_ZN14PeriodicThreadD5Ev,comdat
  86              		.align	2
  87              		.weak	_ZN14PeriodicThreadD2Ev
  89              	_ZN14PeriodicThreadD2Ev:
  90              	.LFB68:
  71:src/../h/syscall_cpp.hpp **** public:
  91              		.loc 1 71 7 is_stmt 1
  92              		.cfi_startproc
  93              	.LVL3:
  94 0000 130101FF 		addi	sp,sp,-16
  95              		.cfi_def_cfa_offset 16
  96 0004 23348100 		sd	s0,8(sp)
  97              		.cfi_offset 8, -8
  98 0008 13040101 		addi	s0,sp,16
  99              		.cfi_def_cfa 8, 0
 100              	.LBB33:
  71:src/../h/syscall_cpp.hpp **** public:
 101              		.loc 1 71 7 is_stmt 0
 102 000c 97070000 		lla	a5,_ZTV14PeriodicThread+16
 102      93870700 
 103 0014 2330F500 		sd	a5,0(a0)
 104              	.LBE33:
 105 0018 03348100 		ld	s0,8(sp)
 106              		.cfi_restore 8
 107              		.cfi_def_cfa 2, 16
 108 001c 13010101 		addi	sp,sp,16
 109              		.cfi_def_cfa_offset 0
 110 0020 67800000 		jr	ra
 111              		.cfi_endproc
 112              	.LFE68:
 114              		.weak	_ZN14PeriodicThreadD1Ev
GAS LISTING /tmp/ccU8CX3A.s 			page 5


 115              		.set	_ZN14PeriodicThreadD1Ev,_ZN14PeriodicThreadD2Ev
 116              		.text
 117              		.align	2
 118              		.globl	_ZN9SemaphoreD2Ev
 120              	_ZN9SemaphoreD2Ev:
 121              	.LFB56:
  42:src/syscall_cpp.cpp **** 
  43:src/syscall_cpp.cpp **** int Thread::start() {
  44:src/syscall_cpp.cpp **** 	TCB::start(myHandle);
  45:src/syscall_cpp.cpp **** 	return 0;
  46:src/syscall_cpp.cpp **** }
  47:src/syscall_cpp.cpp **** 
  48:src/syscall_cpp.cpp **** void Thread::join() {
  49:src/syscall_cpp.cpp **** 
  50:src/syscall_cpp.cpp **** }
  51:src/syscall_cpp.cpp **** 
  52:src/syscall_cpp.cpp **** void Thread::dispatch() {
  53:src/syscall_cpp.cpp **** 
  54:src/syscall_cpp.cpp **** }
  55:src/syscall_cpp.cpp **** 
  56:src/syscall_cpp.cpp **** int Thread::sleep(time_t) {
  57:src/syscall_cpp.cpp **** 	return 0;
  58:src/syscall_cpp.cpp **** }
  59:src/syscall_cpp.cpp **** 
  60:src/syscall_cpp.cpp **** Thread::Thread() {
  61:src/syscall_cpp.cpp **** 
  62:src/syscall_cpp.cpp **** }
  63:src/syscall_cpp.cpp **** 
  64:src/syscall_cpp.cpp **** Semaphore::Semaphore(unsigned int init) {
  65:src/syscall_cpp.cpp **** 	sem_open(&myHandle, init);
  66:src/syscall_cpp.cpp **** }
  67:src/syscall_cpp.cpp **** 
  68:src/syscall_cpp.cpp **** Semaphore::~Semaphore() {
 122              		.loc 2 68 1 is_stmt 1
 123              		.cfi_startproc
 124              		.cfi_personality 0x9b,DW.ref.__gxx_personality_v0
 125              		.cfi_lsda 0x1b,.LLSDA56
 126              	.LVL4:
 127 0018 130101FE 		addi	sp,sp,-32
 128              		.cfi_def_cfa_offset 32
 129 001c 233C1100 		sd	ra,24(sp)
 130 0020 23388100 		sd	s0,16(sp)
 131 0024 23349100 		sd	s1,8(sp)
 132              		.cfi_offset 1, -8
 133              		.cfi_offset 8, -16
 134              		.cfi_offset 9, -24
 135 0028 13040102 		addi	s0,sp,32
 136              		.cfi_def_cfa 8, 0
 137 002c 93040500 		mv	s1,a0
 138              	.LBB34:
 139              		.loc 2 68 23 is_stmt 0
 140 0030 97070000 		lla	a5,_ZTV9Semaphore+16
 140      93870700 
 141 0038 2330F500 		sd	a5,0(a0)
  69:src/syscall_cpp.cpp **** 	sem_close(myHandle);
 142              		.loc 2 69 2 is_stmt 1
 143              		.loc 2 69 11 is_stmt 0
GAS LISTING /tmp/ccU8CX3A.s 			page 6


 144 003c 03358500 		ld	a0,8(a0)
 145              	.LVL5:
 146 0040 97000000 		call	_Z9sem_closeP4KSem@plt
 146      E7800000 
 147              	.LVL6:
  70:src/syscall_cpp.cpp **** 	delete myHandle;
 148              		.loc 2 70 2 is_stmt 1
 149              		.loc 2 70 9 is_stmt 0
 150 0048 83B48400 		ld	s1,8(s1)
 151              	.LVL7:
 152              		.loc 2 70 17
 153 004c 63880402 		beqz	s1,.L9
 154              	.L12:
 155              	.LBB35:
 156              	.LBB36:
 157              	.LBB37:
 158              		.file 3 "src/../h/../h/ThreadQueue.hpp"
   1:src/../h/../h/ThreadQueue.hpp **** //
   2:src/../h/../h/ThreadQueue.hpp **** // Created by os on 6/4/23.
   3:src/../h/../h/ThreadQueue.hpp **** //
   4:src/../h/../h/ThreadQueue.hpp **** 
   5:src/../h/../h/ThreadQueue.hpp **** #ifndef PROJEKAT2023_THREADQUEUE_HPP
   6:src/../h/../h/ThreadQueue.hpp **** #define PROJEKAT2023_THREADQUEUE_HPP
   7:src/../h/../h/ThreadQueue.hpp **** 
   8:src/../h/../h/ThreadQueue.hpp **** #include "../h/MemoryAllocator.hpp"
   9:src/../h/../h/ThreadQueue.hpp **** #include "../h/syscall_c.hpp"
  10:src/../h/../h/ThreadQueue.hpp **** 
  11:src/../h/../h/ThreadQueue.hpp **** class TCB;
  12:src/../h/../h/ThreadQueue.hpp **** 
  13:src/../h/../h/ThreadQueue.hpp **** class ThreadQueue {
  14:src/../h/../h/ThreadQueue.hpp **** private:
  15:src/../h/../h/ThreadQueue.hpp **** 	struct Node {
  16:src/../h/../h/ThreadQueue.hpp **** 		TCB* data;
  17:src/../h/../h/ThreadQueue.hpp **** 		Node* next;
  18:src/../h/../h/ThreadQueue.hpp **** 
  19:src/../h/../h/ThreadQueue.hpp **** 		Node(TCB* d) : data(d), next(nullptr) {}
  20:src/../h/../h/ThreadQueue.hpp **** 
  21:src/../h/../h/ThreadQueue.hpp **** 		static void* operator new(size_t size) {
  22:src/../h/../h/ThreadQueue.hpp **** 			return mem_alloc(size);
  23:src/../h/../h/ThreadQueue.hpp **** 		}
  24:src/../h/../h/ThreadQueue.hpp **** 
  25:src/../h/../h/ThreadQueue.hpp **** 		static void operator delete(void* ptr) {
  26:src/../h/../h/ThreadQueue.hpp **** 			mem_free(ptr);
  27:src/../h/../h/ThreadQueue.hpp **** 		}
  28:src/../h/../h/ThreadQueue.hpp **** 	};
  29:src/../h/../h/ThreadQueue.hpp **** 
  30:src/../h/../h/ThreadQueue.hpp **** 	Node* front;
  31:src/../h/../h/ThreadQueue.hpp **** 	Node* back;
  32:src/../h/../h/ThreadQueue.hpp **** 
  33:src/../h/../h/ThreadQueue.hpp **** public:
  34:src/../h/../h/ThreadQueue.hpp **** 	ThreadQueue() : front(nullptr), back(nullptr) {}
  35:src/../h/../h/ThreadQueue.hpp **** 
  36:src/../h/../h/ThreadQueue.hpp **** 	ThreadQueue(const ThreadQueue&) = delete;
  37:src/../h/../h/ThreadQueue.hpp **** 
  38:src/../h/../h/ThreadQueue.hpp **** 	ThreadQueue& operator=(const ThreadQueue&) = delete;
  39:src/../h/../h/ThreadQueue.hpp **** 
  40:src/../h/../h/ThreadQueue.hpp **** 	~ThreadQueue() {
GAS LISTING /tmp/ccU8CX3A.s 			page 7


  41:src/../h/../h/ThreadQueue.hpp **** 		while (!isEmpty()) {
 159              		.loc 3 41 3 is_stmt 1
 160              		.loc 3 41 10
 161              	.LVL8:
 162              	.LBB38:
 163              	.LBB39:
  42:src/../h/../h/ThreadQueue.hpp **** 			Node* node = front;
  43:src/../h/../h/ThreadQueue.hpp **** 			front = front->next;
  44:src/../h/../h/ThreadQueue.hpp **** 			delete node;
  45:src/../h/../h/ThreadQueue.hpp **** 		}
  46:src/../h/../h/ThreadQueue.hpp **** 	}
  47:src/../h/../h/ThreadQueue.hpp **** 
  48:src/../h/../h/ThreadQueue.hpp **** 	bool isEmpty() const {
  49:src/../h/../h/ThreadQueue.hpp **** 		return front == nullptr;
 164              		.loc 3 49 3
 165              		.loc 3 49 10 is_stmt 0
 166 0050 03B58400 		ld	a0,8(s1)
 167              	.LBE39:
 168              	.LBE38:
  41:src/../h/../h/ThreadQueue.hpp **** 			Node* node = front;
 169              		.loc 3 41 10
 170 0054 630E0500 		beqz	a0,.L11
 171              	.LBB40:
  42:src/../h/../h/ThreadQueue.hpp **** 			Node* node = front;
 172              		.loc 3 42 4 is_stmt 1
 173              	.LVL9:
  43:src/../h/../h/ThreadQueue.hpp **** 			delete node;
 174              		.loc 3 43 4
  43:src/../h/../h/ThreadQueue.hpp **** 			delete node;
 175              		.loc 3 43 19 is_stmt 0
 176 0058 83378500 		ld	a5,8(a0)
  43:src/../h/../h/ThreadQueue.hpp **** 			delete node;
 177              		.loc 3 43 10
 178 005c 23B4F400 		sd	a5,8(s1)
  44:src/../h/../h/ThreadQueue.hpp **** 		}
 179              		.loc 3 44 4 is_stmt 1
  44:src/../h/../h/ThreadQueue.hpp **** 		}
 180              		.loc 3 44 15 is_stmt 0
 181 0060 E30805FE 		beqz	a0,.L12
 182              	.LVL10:
 183              	.LBB41:
 184              	.LBB42:
  26:src/../h/../h/ThreadQueue.hpp **** 		}
 185              		.loc 3 26 4 is_stmt 1
  26:src/../h/../h/ThreadQueue.hpp **** 		}
 186              		.loc 3 26 12 is_stmt 0
 187 0064 97000000 		call	_Z8mem_freePv@plt
 187      E7800000 
 188              	.LVL11:
  27:src/../h/../h/ThreadQueue.hpp **** 	};
 189              		.loc 3 27 3
 190 006c 6FF05FFE 		j	.L12
 191              	.L11:
 192              	.LBE42:
 193              	.LBE41:
 194              	.LBE40:
 195              	.LBE37:
GAS LISTING /tmp/ccU8CX3A.s 			page 8


 196              	.LBE36:
 197              	.LBE35:
 198              		.loc 2 70 9
 199 0070 13850400 		mv	a0,s1
 200 0074 97000000 		call	_ZN4KSemdlEPv@plt
 200      E7800000 
 201              	.LVL12:
 202              	.L9:
 203              	.LBE34:
  71:src/syscall_cpp.cpp **** }
 204              		.loc 2 71 1
 205 007c 83308101 		ld	ra,24(sp)
 206              		.cfi_restore 1
 207 0080 03340101 		ld	s0,16(sp)
 208              		.cfi_restore 8
 209              		.cfi_def_cfa 2, 32
 210 0084 83348100 		ld	s1,8(sp)
 211              		.cfi_restore 9
 212 0088 13010102 		addi	sp,sp,32
 213              		.cfi_def_cfa_offset 0
 214 008c 67800000 		jr	ra
 215              		.cfi_endproc
 216              	.LFE56:
 217              		.globl	__gxx_personality_v0
 218              		.section	.gcc_except_table,"a",@progbits
 219              	.LLSDA56:
 220 0000 FF       		.byte	0xff
 221 0001 FF       		.byte	0xff
 222 0002 03       		.byte	0x3
 223 0003 00       		.byte	0
 224              		.text
 226              		.globl	_ZN9SemaphoreD1Ev
 227              		.set	_ZN9SemaphoreD1Ev,_ZN9SemaphoreD2Ev
 228              		.align	2
 229              		.globl	_Znwm
 231              	_Znwm:
 232              	.LFB31:
  10:src/syscall_cpp.cpp **** 	return mem_alloc(size);
 233              		.loc 2 10 33 is_stmt 1
 234              		.cfi_startproc
 235              	.LVL13:
 236 0090 130101FF 		addi	sp,sp,-16
 237              		.cfi_def_cfa_offset 16
 238 0094 23341100 		sd	ra,8(sp)
 239 0098 23308100 		sd	s0,0(sp)
 240              		.cfi_offset 1, -8
 241              		.cfi_offset 8, -16
 242 009c 13040101 		addi	s0,sp,16
 243              		.cfi_def_cfa 8, 0
  11:src/syscall_cpp.cpp **** }
 244              		.loc 2 11 2
  11:src/syscall_cpp.cpp **** }
 245              		.loc 2 11 18 is_stmt 0
 246 00a0 97000000 		call	_Z9mem_allocm@plt
 246      E7800000 
 247              	.LVL14:
  12:src/syscall_cpp.cpp **** 
GAS LISTING /tmp/ccU8CX3A.s 			page 9


 248              		.loc 2 12 1
 249 00a8 83308100 		ld	ra,8(sp)
 250              		.cfi_restore 1
 251 00ac 03340100 		ld	s0,0(sp)
 252              		.cfi_restore 8
 253              		.cfi_def_cfa 2, 16
 254 00b0 13010101 		addi	sp,sp,16
 255              		.cfi_def_cfa_offset 0
 256 00b4 67800000 		jr	ra
 257              		.cfi_endproc
 258              	.LFE31:
 260              		.align	2
 261              		.globl	_Znam
 263              	_Znam:
 264              	.LFB32:
  14:src/syscall_cpp.cpp **** 	return mem_alloc(size);
 265              		.loc 2 14 35 is_stmt 1
 266              		.cfi_startproc
 267              	.LVL15:
 268 00b8 130101FF 		addi	sp,sp,-16
 269              		.cfi_def_cfa_offset 16
 270 00bc 23341100 		sd	ra,8(sp)
 271 00c0 23308100 		sd	s0,0(sp)
 272              		.cfi_offset 1, -8
 273              		.cfi_offset 8, -16
 274 00c4 13040101 		addi	s0,sp,16
 275              		.cfi_def_cfa 8, 0
  15:src/syscall_cpp.cpp **** }
 276              		.loc 2 15 2
  15:src/syscall_cpp.cpp **** }
 277              		.loc 2 15 18 is_stmt 0
 278 00c8 97000000 		call	_Z9mem_allocm@plt
 278      E7800000 
 279              	.LVL16:
  16:src/syscall_cpp.cpp **** 
 280              		.loc 2 16 1
 281 00d0 83308100 		ld	ra,8(sp)
 282              		.cfi_restore 1
 283 00d4 03340100 		ld	s0,0(sp)
 284              		.cfi_restore 8
 285              		.cfi_def_cfa 2, 16
 286 00d8 13010101 		addi	sp,sp,16
 287              		.cfi_def_cfa_offset 0
 288 00dc 67800000 		jr	ra
 289              		.cfi_endproc
 290              	.LFE32:
 292              		.align	2
 293              		.globl	_ZdlPv
 295              	_ZdlPv:
 296              	.LFB33:
  20:src/syscall_cpp.cpp **** mem_free(ptr);
 297              		.loc 2 20 10 is_stmt 1
 298              		.cfi_startproc
 299              		.cfi_personality 0x9b,DW.ref.__gxx_personality_v0
 300              		.cfi_lsda 0x1b,.LLSDA33
 301              	.LVL17:
 302 00e0 130101FF 		addi	sp,sp,-16
GAS LISTING /tmp/ccU8CX3A.s 			page 10


 303              		.cfi_def_cfa_offset 16
 304 00e4 23341100 		sd	ra,8(sp)
 305 00e8 23308100 		sd	s0,0(sp)
 306              		.cfi_offset 1, -8
 307              		.cfi_offset 8, -16
 308 00ec 13040101 		addi	s0,sp,16
 309              		.cfi_def_cfa 8, 0
  21:src/syscall_cpp.cpp **** }
 310              		.loc 2 21 1
  21:src/syscall_cpp.cpp **** }
 311              		.loc 2 21 9 is_stmt 0
 312 00f0 97000000 		call	_Z8mem_freePv@plt
 312      E7800000 
 313              	.LVL18:
  22:src/syscall_cpp.cpp **** 
 314              		.loc 2 22 1
 315 00f8 83308100 		ld	ra,8(sp)
 316              		.cfi_restore 1
 317 00fc 03340100 		ld	s0,0(sp)
 318              		.cfi_restore 8
 319              		.cfi_def_cfa 2, 16
 320 0100 13010101 		addi	sp,sp,16
 321              		.cfi_def_cfa_offset 0
 322 0104 67800000 		jr	ra
 323              		.cfi_endproc
 324              	.LFE33:
 325              		.section	.gcc_except_table
 326              	.LLSDA33:
 327 0004 FF       		.byte	0xff
 328 0005 FF       		.byte	0xff
 329 0006 03       		.byte	0x3
 330 0007 00       		.byte	0
 331              		.text
 333              		.align	2
 334              		.globl	_ZN6ThreadD0Ev
 336              	_ZN6ThreadD0Ev:
 337              	.LFB41:
  39:src/syscall_cpp.cpp **** 
 338              		.loc 2 39 1 is_stmt 1
 339              		.cfi_startproc
 340              	.LVL19:
 341 0108 130101FF 		addi	sp,sp,-16
 342              		.cfi_def_cfa_offset 16
 343 010c 23341100 		sd	ra,8(sp)
 344 0110 23308100 		sd	s0,0(sp)
 345              		.cfi_offset 1, -8
 346              		.cfi_offset 8, -16
 347 0114 13040101 		addi	s0,sp,16
 348              		.cfi_def_cfa 8, 0
  41:src/syscall_cpp.cpp **** 
 349              		.loc 2 41 1 is_stmt 0
 350 0118 97000000 		call	_ZdlPv
 350      E7800000 
 351              	.LVL20:
 352 0120 83308100 		ld	ra,8(sp)
 353              		.cfi_restore 1
 354 0124 03340100 		ld	s0,0(sp)
GAS LISTING /tmp/ccU8CX3A.s 			page 11


 355              		.cfi_restore 8
 356              		.cfi_def_cfa 2, 16
 357 0128 13010101 		addi	sp,sp,16
 358              		.cfi_def_cfa_offset 0
 359 012c 67800000 		jr	ra
 360              		.cfi_endproc
 361              	.LFE41:
 363              		.section	.text._ZN14PeriodicThreadD0Ev,"axG",@progbits,_ZN14PeriodicThreadD5Ev,comdat
 364              		.align	2
 365              		.weak	_ZN14PeriodicThreadD0Ev
 367              	_ZN14PeriodicThreadD0Ev:
 368              	.LFB70:
  71:src/../h/syscall_cpp.hpp **** public:
 369              		.loc 1 71 7 is_stmt 1
 370              		.cfi_startproc
 371              	.LVL21:
 372 0000 130101FF 		addi	sp,sp,-16
 373              		.cfi_def_cfa_offset 16
 374 0004 23341100 		sd	ra,8(sp)
 375 0008 23308100 		sd	s0,0(sp)
 376              		.cfi_offset 1, -8
 377              		.cfi_offset 8, -16
 378 000c 13040101 		addi	s0,sp,16
 379              		.cfi_def_cfa 8, 0
 380              	.LVL22:
 381              	.LBB43:
 382              	.LBB44:
  71:src/../h/syscall_cpp.hpp **** public:
 383              		.loc 1 71 7 is_stmt 0
 384 0010 97070000 		lla	a5,_ZTV14PeriodicThread+16
 384      93870700 
 385 0018 2330F500 		sd	a5,0(a0)
 386              	.LVL23:
 387              	.LBE44:
 388              	.LBE43:
 389 001c 97000000 		call	_ZdlPv
 389      E7800000 
 390              	.LVL24:
 391 0024 83308100 		ld	ra,8(sp)
 392              		.cfi_restore 1
 393 0028 03340100 		ld	s0,0(sp)
 394              		.cfi_restore 8
 395              		.cfi_def_cfa 2, 16
 396 002c 13010101 		addi	sp,sp,16
 397              		.cfi_def_cfa_offset 0
 398 0030 67800000 		jr	ra
 399              		.cfi_endproc
 400              	.LFE70:
 402              		.text
 403              		.align	2
 404              		.globl	_ZN9SemaphoreD0Ev
 406              	_ZN9SemaphoreD0Ev:
 407              	.LFB58:
  68:src/syscall_cpp.cpp **** 	sem_close(myHandle);
 408              		.loc 2 68 1 is_stmt 1
 409              		.cfi_startproc
 410              	.LVL25:
GAS LISTING /tmp/ccU8CX3A.s 			page 12


 411 0130 130101FE 		addi	sp,sp,-32
 412              		.cfi_def_cfa_offset 32
 413 0134 233C1100 		sd	ra,24(sp)
 414 0138 23388100 		sd	s0,16(sp)
 415 013c 23349100 		sd	s1,8(sp)
 416              		.cfi_offset 1, -8
 417              		.cfi_offset 8, -16
 418              		.cfi_offset 9, -24
 419 0140 13040102 		addi	s0,sp,32
 420              		.cfi_def_cfa 8, 0
 421 0144 93040500 		mv	s1,a0
 422              		.loc 2 71 1 is_stmt 0
 423 0148 97000000 		call	_ZN9SemaphoreD1Ev
 423      E7800000 
 424              	.LVL26:
 425 0150 13850400 		mv	a0,s1
 426 0154 97000000 		call	_ZdlPv
 426      E7800000 
 427              	.LVL27:
 428 015c 83308101 		ld	ra,24(sp)
 429              		.cfi_restore 1
 430 0160 03340101 		ld	s0,16(sp)
 431              		.cfi_restore 8
 432              		.cfi_def_cfa 2, 32
 433 0164 83348100 		ld	s1,8(sp)
 434              		.cfi_restore 9
 435              	.LVL28:
 436 0168 13010102 		addi	sp,sp,32
 437              		.cfi_def_cfa_offset 0
 438 016c 67800000 		jr	ra
 439              		.cfi_endproc
 440              	.LFE58:
 442              		.align	2
 443              		.globl	_ZdaPv
 445              	_ZdaPv:
 446              	.LFB34:
  26:src/syscall_cpp.cpp **** mem_free(ptr);
 447              		.loc 2 26 10 is_stmt 1
 448              		.cfi_startproc
 449              		.cfi_personality 0x9b,DW.ref.__gxx_personality_v0
 450              		.cfi_lsda 0x1b,.LLSDA34
 451              	.LVL29:
 452 0170 130101FF 		addi	sp,sp,-16
 453              		.cfi_def_cfa_offset 16
 454 0174 23341100 		sd	ra,8(sp)
 455 0178 23308100 		sd	s0,0(sp)
 456              		.cfi_offset 1, -8
 457              		.cfi_offset 8, -16
 458 017c 13040101 		addi	s0,sp,16
 459              		.cfi_def_cfa 8, 0
  27:src/syscall_cpp.cpp **** }
 460              		.loc 2 27 1
  27:src/syscall_cpp.cpp **** }
 461              		.loc 2 27 9 is_stmt 0
 462 0180 97000000 		call	_Z8mem_freePv@plt
 462      E7800000 
 463              	.LVL30:
GAS LISTING /tmp/ccU8CX3A.s 			page 13


  28:src/syscall_cpp.cpp **** 
 464              		.loc 2 28 1
 465 0188 83308100 		ld	ra,8(sp)
 466              		.cfi_restore 1
 467 018c 03340100 		ld	s0,0(sp)
 468              		.cfi_restore 8
 469              		.cfi_def_cfa 2, 16
 470 0190 13010101 		addi	sp,sp,16
 471              		.cfi_def_cfa_offset 0
 472 0194 67800000 		jr	ra
 473              		.cfi_endproc
 474              	.LFE34:
 475              		.section	.gcc_except_table
 476              	.LLSDA34:
 477 0008 FF       		.byte	0xff
 478 0009 FF       		.byte	0xff
 479 000a 03       		.byte	0x3
 480 000b 00       		.byte	0
 481              		.text
 483              		.align	2
 484              		.globl	_ZN6ThreadC2EPFvPvES0_
 486              	_ZN6ThreadC2EPFvPvES0_:
 487              	.LFB36:
  31:src/syscall_cpp.cpp **** 	uint64* stack = nullptr;
 488              		.loc 2 31 1 is_stmt 1
 489              		.cfi_startproc
 490              	.LVL31:
 491 0198 130101FD 		addi	sp,sp,-48
 492              		.cfi_def_cfa_offset 48
 493 019c 23341102 		sd	ra,40(sp)
 494 01a0 23308102 		sd	s0,32(sp)
 495 01a4 233C9100 		sd	s1,24(sp)
 496 01a8 23382101 		sd	s2,16(sp)
 497 01ac 23343101 		sd	s3,8(sp)
 498              		.cfi_offset 1, -8
 499              		.cfi_offset 8, -16
 500              		.cfi_offset 9, -24
 501              		.cfi_offset 18, -32
 502              		.cfi_offset 19, -40
 503 01b0 13040103 		addi	s0,sp,48
 504              		.cfi_def_cfa 8, 0
 505 01b4 93040500 		mv	s1,a0
 506 01b8 13890500 		mv	s2,a1
 507 01bc 93090600 		mv	s3,a2
 508              	.LBB45:
  31:src/syscall_cpp.cpp **** 	uint64* stack = nullptr;
 509              		.loc 2 31 47 is_stmt 0
 510 01c0 97070000 		lla	a5,_ZTV6Thread+16
 510      93870700 
 511 01c8 2330F500 		sd	a5,0(a0)
 512              	.LBB46:
  32:src/syscall_cpp.cpp **** 	if (body != nullptr) {
 513              		.loc 2 32 2 is_stmt 1
 514              	.LVL32:
  33:src/syscall_cpp.cpp **** 		stack = (uint64*)mem_alloc(DEFAULT_STACK_SIZE);
 515              		.loc 2 33 2
 516 01cc 63820504 		beqz	a1,.L31
GAS LISTING /tmp/ccU8CX3A.s 			page 14


  34:src/syscall_cpp.cpp **** 	}
 517              		.loc 2 34 3
  34:src/syscall_cpp.cpp **** 	}
 518              		.loc 2 34 29 is_stmt 0
 519 01d0 37150000 		li	a0,4096
 520              	.LVL33:
 521 01d4 97000000 		call	_Z9mem_allocm@plt
 521      E7800000 
 522              	.LVL34:
 523 01dc 13060500 		mv	a2,a0
 524              	.LVL35:
 525              	.L30:
  36:src/syscall_cpp.cpp **** }
 526              		.loc 2 36 2 is_stmt 1
  36:src/syscall_cpp.cpp **** }
 527              		.loc 2 36 30 is_stmt 0
 528 01e0 93850900 		mv	a1,s3
 529 01e4 13050900 		mv	a0,s2
 530 01e8 97000000 		call	_ZN3TCB12createThreadEPFvPvES0_Pm@plt
 530      E7800000 
 531              	.LVL36:
  36:src/syscall_cpp.cpp **** }
 532              		.loc 2 36 11
 533 01f0 23B4A400 		sd	a0,8(s1)
 534              	.LBE46:
 535              	.LBE45:
  37:src/syscall_cpp.cpp **** 
 536              		.loc 2 37 1
 537 01f4 83308102 		ld	ra,40(sp)
 538              		.cfi_remember_state
 539              		.cfi_restore 1
 540 01f8 03340102 		ld	s0,32(sp)
 541              		.cfi_restore 8
 542              		.cfi_def_cfa 2, 48
 543 01fc 83348101 		ld	s1,24(sp)
 544              		.cfi_restore 9
 545              	.LVL37:
 546 0200 03390101 		ld	s2,16(sp)
 547              		.cfi_restore 18
 548              	.LVL38:
 549 0204 83398100 		ld	s3,8(sp)
 550              		.cfi_restore 19
 551              	.LVL39:
 552 0208 13010103 		addi	sp,sp,48
 553              		.cfi_def_cfa_offset 0
 554 020c 67800000 		jr	ra
 555              	.LVL40:
 556              	.L31:
 557              		.cfi_restore_state
 558              	.LBB48:
 559              	.LBB47:
  32:src/syscall_cpp.cpp **** 	if (body != nullptr) {
 560              		.loc 2 32 10
 561 0210 13060000 		li	a2,0
 562              	.LVL41:
 563 0214 6FF0DFFC 		j	.L30
 564              	.LBE47:
GAS LISTING /tmp/ccU8CX3A.s 			page 15


 565              	.LBE48:
 566              		.cfi_endproc
 567              	.LFE36:
 569              		.globl	_ZN6ThreadC1EPFvPvES0_
 570              		.set	_ZN6ThreadC1EPFvPvES0_,_ZN6ThreadC2EPFvPvES0_
 571              		.align	2
 572              		.globl	_ZN6Thread5startEv
 574              	_ZN6Thread5startEv:
 575              	.LFB42:
  43:src/syscall_cpp.cpp **** 	TCB::start(myHandle);
 576              		.loc 2 43 21 is_stmt 1
 577              		.cfi_startproc
 578              	.LVL42:
 579 0218 130101FF 		addi	sp,sp,-16
 580              		.cfi_def_cfa_offset 16
 581 021c 23341100 		sd	ra,8(sp)
 582 0220 23308100 		sd	s0,0(sp)
 583              		.cfi_offset 1, -8
 584              		.cfi_offset 8, -16
 585 0224 13040101 		addi	s0,sp,16
 586              		.cfi_def_cfa 8, 0
  44:src/syscall_cpp.cpp **** 	return 0;
 587              		.loc 2 44 2
  44:src/syscall_cpp.cpp **** 	return 0;
 588              		.loc 2 44 12 is_stmt 0
 589 0228 03358500 		ld	a0,8(a0)
 590              	.LVL43:
 591 022c 97000000 		call	_ZN3TCB5startEPS_@plt
 591      E7800000 
 592              	.LVL44:
  45:src/syscall_cpp.cpp **** }
 593              		.loc 2 45 2 is_stmt 1
  46:src/syscall_cpp.cpp **** 
 594              		.loc 2 46 1 is_stmt 0
 595 0234 13050000 		li	a0,0
 596 0238 83308100 		ld	ra,8(sp)
 597              		.cfi_restore 1
 598 023c 03340100 		ld	s0,0(sp)
 599              		.cfi_restore 8
 600              		.cfi_def_cfa 2, 16
 601 0240 13010101 		addi	sp,sp,16
 602              		.cfi_def_cfa_offset 0
 603 0244 67800000 		jr	ra
 604              		.cfi_endproc
 605              	.LFE42:
 607              		.align	2
 608              		.globl	_ZN6Thread4joinEv
 610              	_ZN6Thread4joinEv:
 611              	.LFB43:
  48:src/syscall_cpp.cpp **** 
 612              		.loc 2 48 21 is_stmt 1
 613              		.cfi_startproc
 614              	.LVL45:
 615 0248 130101FF 		addi	sp,sp,-16
 616              		.cfi_def_cfa_offset 16
 617 024c 23348100 		sd	s0,8(sp)
 618              		.cfi_offset 8, -8
GAS LISTING /tmp/ccU8CX3A.s 			page 16


 619 0250 13040101 		addi	s0,sp,16
 620              		.cfi_def_cfa 8, 0
  50:src/syscall_cpp.cpp **** 
 621              		.loc 2 50 1 is_stmt 0
 622 0254 03348100 		ld	s0,8(sp)
 623              		.cfi_restore 8
 624              		.cfi_def_cfa 2, 16
 625 0258 13010101 		addi	sp,sp,16
 626              		.cfi_def_cfa_offset 0
 627 025c 67800000 		jr	ra
 628              		.cfi_endproc
 629              	.LFE43:
 631              		.align	2
 632              		.globl	_ZN6Thread8dispatchEv
 634              	_ZN6Thread8dispatchEv:
 635              	.LFB44:
  52:src/syscall_cpp.cpp **** 
 636              		.loc 2 52 25 is_stmt 1
 637              		.cfi_startproc
 638 0260 130101FF 		addi	sp,sp,-16
 639              		.cfi_def_cfa_offset 16
 640 0264 23348100 		sd	s0,8(sp)
 641              		.cfi_offset 8, -8
 642 0268 13040101 		addi	s0,sp,16
 643              		.cfi_def_cfa 8, 0
  54:src/syscall_cpp.cpp **** 
 644              		.loc 2 54 1 is_stmt 0
 645 026c 03348100 		ld	s0,8(sp)
 646              		.cfi_restore 8
 647              		.cfi_def_cfa 2, 16
 648 0270 13010101 		addi	sp,sp,16
 649              		.cfi_def_cfa_offset 0
 650 0274 67800000 		jr	ra
 651              		.cfi_endproc
 652              	.LFE44:
 654              		.align	2
 655              		.globl	_ZN6Thread5sleepEm
 657              	_ZN6Thread5sleepEm:
 658              	.LFB45:
  56:src/syscall_cpp.cpp **** 	return 0;
 659              		.loc 2 56 27 is_stmt 1
 660              		.cfi_startproc
 661 0278 130101FF 		addi	sp,sp,-16
 662              		.cfi_def_cfa_offset 16
 663 027c 23348100 		sd	s0,8(sp)
 664              		.cfi_offset 8, -8
 665 0280 13040101 		addi	s0,sp,16
 666              		.cfi_def_cfa 8, 0
  57:src/syscall_cpp.cpp **** }
 667              		.loc 2 57 2
  58:src/syscall_cpp.cpp **** 
 668              		.loc 2 58 1 is_stmt 0
 669 0284 13050000 		li	a0,0
 670 0288 03348100 		ld	s0,8(sp)
 671              		.cfi_restore 8
 672              		.cfi_def_cfa 2, 16
 673 028c 13010101 		addi	sp,sp,16
GAS LISTING /tmp/ccU8CX3A.s 			page 17


 674              		.cfi_def_cfa_offset 0
 675 0290 67800000 		jr	ra
 676              		.cfi_endproc
 677              	.LFE45:
 679              		.align	2
 680              		.globl	_ZN6ThreadC2Ev
 682              	_ZN6ThreadC2Ev:
 683              	.LFB47:
  60:src/syscall_cpp.cpp **** 
 684              		.loc 2 60 1 is_stmt 1
 685              		.cfi_startproc
 686              	.LVL46:
 687 0294 130101FF 		addi	sp,sp,-16
 688              		.cfi_def_cfa_offset 16
 689 0298 23348100 		sd	s0,8(sp)
 690              		.cfi_offset 8, -8
 691 029c 13040101 		addi	s0,sp,16
 692              		.cfi_def_cfa 8, 0
 693              	.LBB49:
  60:src/syscall_cpp.cpp **** 
 694              		.loc 2 60 16 is_stmt 0
 695 02a0 97070000 		lla	a5,_ZTV6Thread+16
 695      93870700 
 696 02a8 2330F500 		sd	a5,0(a0)
 697              	.LBE49:
  62:src/syscall_cpp.cpp **** 
 698              		.loc 2 62 1
 699 02ac 03348100 		ld	s0,8(sp)
 700              		.cfi_restore 8
 701              		.cfi_def_cfa 2, 16
 702 02b0 13010101 		addi	sp,sp,16
 703              		.cfi_def_cfa_offset 0
 704 02b4 67800000 		jr	ra
 705              		.cfi_endproc
 706              	.LFE47:
 708              		.globl	_ZN6ThreadC1Ev
 709              		.set	_ZN6ThreadC1Ev,_ZN6ThreadC2Ev
 710              		.align	2
 711              		.globl	_ZN9SemaphoreC2Ej
 713              	_ZN9SemaphoreC2Ej:
 714              	.LFB50:
  64:src/syscall_cpp.cpp **** 	sem_open(&myHandle, init);
 715              		.loc 2 64 1 is_stmt 1
 716              		.cfi_startproc
 717              	.LVL47:
 718 02b8 130101FF 		addi	sp,sp,-16
 719              		.cfi_def_cfa_offset 16
 720 02bc 23341100 		sd	ra,8(sp)
 721 02c0 23308100 		sd	s0,0(sp)
 722              		.cfi_offset 1, -8
 723              		.cfi_offset 8, -16
 724 02c4 13040101 		addi	s0,sp,16
 725              		.cfi_def_cfa 8, 0
 726              	.LBB50:
  64:src/syscall_cpp.cpp **** 	sem_open(&myHandle, init);
 727              		.loc 2 64 39 is_stmt 0
 728 02c8 97070000 		lla	a5,_ZTV9Semaphore+16
GAS LISTING /tmp/ccU8CX3A.s 			page 18


 728      93870700 
 729 02d0 2330F500 		sd	a5,0(a0)
  65:src/syscall_cpp.cpp **** }
 730              		.loc 2 65 2 is_stmt 1
  65:src/syscall_cpp.cpp **** }
 731              		.loc 2 65 10 is_stmt 0
 732 02d4 13058500 		addi	a0,a0,8
 733              	.LVL48:
 734 02d8 97000000 		call	_Z8sem_openPP4KSemj@plt
 734      E7800000 
 735              	.LVL49:
 736              	.LBE50:
  66:src/syscall_cpp.cpp **** 
 737              		.loc 2 66 1
 738 02e0 83308100 		ld	ra,8(sp)
 739              		.cfi_restore 1
 740 02e4 03340100 		ld	s0,0(sp)
 741              		.cfi_restore 8
 742              		.cfi_def_cfa 2, 16
 743 02e8 13010101 		addi	sp,sp,16
 744              		.cfi_def_cfa_offset 0
 745 02ec 67800000 		jr	ra
 746              		.cfi_endproc
 747              	.LFE50:
 749              		.globl	_ZN9SemaphoreC1Ej
 750              		.set	_ZN9SemaphoreC1Ej,_ZN9SemaphoreC2Ej
 751              		.align	2
 752              		.globl	_ZN9Semaphore4waitEv
 754              	_ZN9Semaphore4waitEv:
 755              	.LFB59:
  72:src/syscall_cpp.cpp **** 
  73:src/syscall_cpp.cpp **** int Semaphore::wait() {
 756              		.loc 2 73 23 is_stmt 1
 757              		.cfi_startproc
 758              	.LVL50:
 759 02f0 130101FF 		addi	sp,sp,-16
 760              		.cfi_def_cfa_offset 16
 761 02f4 23341100 		sd	ra,8(sp)
 762 02f8 23308100 		sd	s0,0(sp)
 763              		.cfi_offset 1, -8
 764              		.cfi_offset 8, -16
 765 02fc 13040101 		addi	s0,sp,16
 766              		.cfi_def_cfa 8, 0
  74:src/syscall_cpp.cpp **** 	return sem_wait(myHandle);
 767              		.loc 2 74 2
 768              		.loc 2 74 17 is_stmt 0
 769 0300 03358500 		ld	a0,8(a0)
 770              	.LVL51:
 771 0304 97000000 		call	_Z8sem_waitP4KSem@plt
 771      E7800000 
 772              	.LVL52:
  75:src/syscall_cpp.cpp **** }
 773              		.loc 2 75 1
 774 030c 83308100 		ld	ra,8(sp)
 775              		.cfi_restore 1
 776 0310 03340100 		ld	s0,0(sp)
 777              		.cfi_restore 8
GAS LISTING /tmp/ccU8CX3A.s 			page 19


 778              		.cfi_def_cfa 2, 16
 779 0314 13010101 		addi	sp,sp,16
 780              		.cfi_def_cfa_offset 0
 781 0318 67800000 		jr	ra
 782              		.cfi_endproc
 783              	.LFE59:
 785              		.align	2
 786              		.globl	_ZN9Semaphore6signalEv
 788              	_ZN9Semaphore6signalEv:
 789              	.LFB60:
  76:src/syscall_cpp.cpp **** 
  77:src/syscall_cpp.cpp **** int Semaphore::signal() {
 790              		.loc 2 77 25 is_stmt 1
 791              		.cfi_startproc
 792              	.LVL53:
 793 031c 130101FF 		addi	sp,sp,-16
 794              		.cfi_def_cfa_offset 16
 795 0320 23341100 		sd	ra,8(sp)
 796 0324 23308100 		sd	s0,0(sp)
 797              		.cfi_offset 1, -8
 798              		.cfi_offset 8, -16
 799 0328 13040101 		addi	s0,sp,16
 800              		.cfi_def_cfa 8, 0
  78:src/syscall_cpp.cpp **** 	return sem_signal(myHandle);
 801              		.loc 2 78 2
 802              		.loc 2 78 19 is_stmt 0
 803 032c 03358500 		ld	a0,8(a0)
 804              	.LVL54:
 805 0330 97000000 		call	_Z10sem_signalP4KSem@plt
 805      E7800000 
 806              	.LVL55:
  79:src/syscall_cpp.cpp **** }
 807              		.loc 2 79 1
 808 0338 83308100 		ld	ra,8(sp)
 809              		.cfi_restore 1
 810 033c 03340100 		ld	s0,0(sp)
 811              		.cfi_restore 8
 812              		.cfi_def_cfa 2, 16
 813 0340 13010101 		addi	sp,sp,16
 814              		.cfi_def_cfa_offset 0
 815 0344 67800000 		jr	ra
 816              		.cfi_endproc
 817              	.LFE60:
 819              		.align	2
 820              		.globl	_ZN14PeriodicThread9terminateEv
 822              	_ZN14PeriodicThread9terminateEv:
 823              	.LFB61:
  80:src/syscall_cpp.cpp **** 
  81:src/syscall_cpp.cpp **** void PeriodicThread::terminate() {
 824              		.loc 2 81 34 is_stmt 1
 825              		.cfi_startproc
 826              	.LVL56:
 827 0348 130101FF 		addi	sp,sp,-16
 828              		.cfi_def_cfa_offset 16
 829 034c 23348100 		sd	s0,8(sp)
 830              		.cfi_offset 8, -8
 831 0350 13040101 		addi	s0,sp,16
GAS LISTING /tmp/ccU8CX3A.s 			page 20


 832              		.cfi_def_cfa 8, 0
  82:src/syscall_cpp.cpp **** 
  83:src/syscall_cpp.cpp **** }
 833              		.loc 2 83 1 is_stmt 0
 834 0354 03348100 		ld	s0,8(sp)
 835              		.cfi_restore 8
 836              		.cfi_def_cfa 2, 16
 837 0358 13010101 		addi	sp,sp,16
 838              		.cfi_def_cfa_offset 0
 839 035c 67800000 		jr	ra
 840              		.cfi_endproc
 841              	.LFE61:
 843              		.align	2
 844              		.globl	_ZN14PeriodicThreadC2Em
 846              	_ZN14PeriodicThreadC2Em:
 847              	.LFB63:
  84:src/syscall_cpp.cpp **** 
  85:src/syscall_cpp.cpp **** PeriodicThread::PeriodicThread(time_t period) {
 848              		.loc 2 85 1 is_stmt 1
 849              		.cfi_startproc
 850              	.LVL57:
 851 0360 130101FE 		addi	sp,sp,-32
 852              		.cfi_def_cfa_offset 32
 853 0364 233C1100 		sd	ra,24(sp)
 854 0368 23388100 		sd	s0,16(sp)
 855 036c 23349100 		sd	s1,8(sp)
 856              		.cfi_offset 1, -8
 857              		.cfi_offset 8, -16
 858              		.cfi_offset 9, -24
 859 0370 13040102 		addi	s0,sp,32
 860              		.cfi_def_cfa 8, 0
 861 0374 93040500 		mv	s1,a0
 862              	.LBB51:
 863              		.loc 2 85 45 is_stmt 0
 864 0378 97000000 		call	_ZN6ThreadC2Ev
 864      E7800000 
 865              	.LVL58:
 866 0380 97070000 		lla	a5,_ZTV14PeriodicThread+16
 866      93870700 
 867 0388 23B0F400 		sd	a5,0(s1)
 868              	.LBE51:
  86:src/syscall_cpp.cpp **** 
  87:src/syscall_cpp.cpp **** }
 869              		.loc 2 87 1
 870 038c 83308101 		ld	ra,24(sp)
 871              		.cfi_restore 1
 872 0390 03340101 		ld	s0,16(sp)
 873              		.cfi_restore 8
 874              		.cfi_def_cfa 2, 32
 875 0394 83348100 		ld	s1,8(sp)
 876              		.cfi_restore 9
 877              	.LVL59:
 878 0398 13010102 		addi	sp,sp,32
 879              		.cfi_def_cfa_offset 0
 880 039c 67800000 		jr	ra
 881              		.cfi_endproc
 882              	.LFE63:
GAS LISTING /tmp/ccU8CX3A.s 			page 21


 884              		.globl	_ZN14PeriodicThreadC1Em
 885              		.set	_ZN14PeriodicThreadC1Em,_ZN14PeriodicThreadC2Em
 886              		.align	2
 887              		.globl	_ZN7Console4getcEv
 889              	_ZN7Console4getcEv:
 890              	.LFB65:
  88:src/syscall_cpp.cpp **** 
  89:src/syscall_cpp.cpp **** char Console::getc() {
 891              		.loc 2 89 22 is_stmt 1
 892              		.cfi_startproc
 893 03a0 130101FF 		addi	sp,sp,-16
 894              		.cfi_def_cfa_offset 16
 895 03a4 23348100 		sd	s0,8(sp)
 896              		.cfi_offset 8, -8
 897 03a8 13040101 		addi	s0,sp,16
 898              		.cfi_def_cfa 8, 0
  90:src/syscall_cpp.cpp **** 	return 0;
 899              		.loc 2 90 2
  91:src/syscall_cpp.cpp **** }
 900              		.loc 2 91 1 is_stmt 0
 901 03ac 13050000 		li	a0,0
 902 03b0 03348100 		ld	s0,8(sp)
 903              		.cfi_restore 8
 904              		.cfi_def_cfa 2, 16
 905 03b4 13010101 		addi	sp,sp,16
 906              		.cfi_def_cfa_offset 0
 907 03b8 67800000 		jr	ra
 908              		.cfi_endproc
 909              	.LFE65:
 911              		.align	2
 912              		.globl	_ZN7Console4putcEc
 914              	_ZN7Console4putcEc:
 915              	.LFB66:
  92:src/syscall_cpp.cpp **** 
  93:src/syscall_cpp.cpp **** void Console::putc(char) {
 916              		.loc 2 93 26 is_stmt 1
 917              		.cfi_startproc
 918 03bc 130101FF 		addi	sp,sp,-16
 919              		.cfi_def_cfa_offset 16
 920 03c0 23348100 		sd	s0,8(sp)
 921              		.cfi_offset 8, -8
 922 03c4 13040101 		addi	s0,sp,16
 923              		.cfi_def_cfa 8, 0
  94:src/syscall_cpp.cpp **** 
  95:src/syscall_cpp.cpp **** }
 924              		.loc 2 95 1 is_stmt 0
 925 03c8 03348100 		ld	s0,8(sp)
 926              		.cfi_restore 8
 927              		.cfi_def_cfa 2, 16
 928 03cc 13010101 		addi	sp,sp,16
 929              		.cfi_def_cfa_offset 0
 930 03d0 67800000 		jr	ra
 931              		.cfi_endproc
 932              	.LFE66:
 934              		.weak	_ZTV14PeriodicThread
 935              		.section	.data.rel.ro.local._ZTV14PeriodicThread,"awG",@progbits,_ZTV14PeriodicThread,comdat
 936              		.align	3
GAS LISTING /tmp/ccU8CX3A.s 			page 22


 939              	_ZTV14PeriodicThread:
 940 0000 00000000 		.dword	0
 940      00000000 
 941 0008 00000000 		.dword	0
 941      00000000 
 942 0010 00000000 		.dword	_ZN14PeriodicThreadD1Ev
 942      00000000 
 943 0018 00000000 		.dword	_ZN14PeriodicThreadD0Ev
 943      00000000 
 944 0020 00000000 		.dword	_ZN6Thread3runEv
 944      00000000 
 945 0028 00000000 		.dword	_ZN14PeriodicThread18periodicActivationEv
 945      00000000 
 946              		.weak	_ZTV6Thread
 947              		.section	.data.rel.ro.local._ZTV6Thread,"awG",@progbits,_ZTV6Thread,comdat
 948              		.align	3
 951              	_ZTV6Thread:
 952 0000 00000000 		.dword	0
 952      00000000 
 953 0008 00000000 		.dword	0
 953      00000000 
 954 0010 00000000 		.dword	_ZN6ThreadD1Ev
 954      00000000 
 955 0018 00000000 		.dword	_ZN6ThreadD0Ev
 955      00000000 
 956 0020 00000000 		.dword	_ZN6Thread3runEv
 956      00000000 
 957              		.weak	_ZTV9Semaphore
 958              		.section	.data.rel.ro.local._ZTV9Semaphore,"awG",@progbits,_ZTV9Semaphore,comdat
 959              		.align	3
 962              	_ZTV9Semaphore:
 963 0000 00000000 		.dword	0
 963      00000000 
 964 0008 00000000 		.dword	0
 964      00000000 
 965 0010 00000000 		.dword	_ZN9SemaphoreD1Ev
 965      00000000 
 966 0018 00000000 		.dword	_ZN9SemaphoreD0Ev
 966      00000000 
 967              		.text
 968              	.Letext0:
 969              		.file 4 "src/../h/../lib/hw.h"
 970              		.file 5 "src/../h/TCB.hpp"
 971              		.file 6 "src/../h/KSem.hpp"
 972              		.file 7 "src/../h/syscall_c.hpp"
 5356              		.align	3
 5359              	DW.ref.__gxx_personality_v0:
 5360 0000 00000000 		.dword	__gxx_personality_v0
 5360      00000000 
 5361              		.ident	"GCC: (Ubuntu 9.4.0-1ubuntu1~20.04) 9.4.0"
 5362              		.section	.note.GNU-stack,"",@progbits
GAS LISTING /tmp/ccU8CX3A.s 			page 23


DEFINED SYMBOLS
                            *ABS*:0000000000000000 syscall_cpp.cpp
     /tmp/ccU8CX3A.s:10     .text._ZN6Thread3runEv:0000000000000000 _ZN6Thread3runEv
     /tmp/ccU8CX3A.s:14     .text._ZN6Thread3runEv:0000000000000000 .L0 
     /tmp/ccU8CX3A.s:16     .text._ZN6Thread3runEv:0000000000000000 .L0 
     /tmp/ccU8CX3A.s:17     .text._ZN6Thread3runEv:0000000000000004 .L0 
     /tmp/ccU8CX3A.s:19     .text._ZN6Thread3runEv:0000000000000008 .L0 
     /tmp/ccU8CX3A.s:21     .text._ZN6Thread3runEv:000000000000000c .L0 
     /tmp/ccU8CX3A.s:23     .text._ZN6Thread3runEv:000000000000000c .L0 
     /tmp/ccU8CX3A.s:24     .text._ZN6Thread3runEv:0000000000000010 .L0 
     /tmp/ccU8CX3A.s:25     .text._ZN6Thread3runEv:0000000000000010 .L0 
     /tmp/ccU8CX3A.s:27     .text._ZN6Thread3runEv:0000000000000014 .L0 
     /tmp/ccU8CX3A.s:29     .text._ZN6Thread3runEv:0000000000000018 .L0 
     /tmp/ccU8CX3A.s:36     .text._ZN14PeriodicThread18periodicActivationEv:0000000000000000 _ZN14PeriodicThread18periodicActivationEv
     /tmp/ccU8CX3A.s:39     .text._ZN14PeriodicThread18periodicActivationEv:0000000000000000 .L0 
     /tmp/ccU8CX3A.s:41     .text._ZN14PeriodicThread18periodicActivationEv:0000000000000000 .L0 
     /tmp/ccU8CX3A.s:42     .text._ZN14PeriodicThread18periodicActivationEv:0000000000000004 .L0 
     /tmp/ccU8CX3A.s:44     .text._ZN14PeriodicThread18periodicActivationEv:0000000000000008 .L0 
     /tmp/ccU8CX3A.s:46     .text._ZN14PeriodicThread18periodicActivationEv:000000000000000c .L0 
     /tmp/ccU8CX3A.s:48     .text._ZN14PeriodicThread18periodicActivationEv:000000000000000c .L0 
     /tmp/ccU8CX3A.s:49     .text._ZN14PeriodicThread18periodicActivationEv:0000000000000010 .L0 
     /tmp/ccU8CX3A.s:50     .text._ZN14PeriodicThread18periodicActivationEv:0000000000000010 .L0 
     /tmp/ccU8CX3A.s:52     .text._ZN14PeriodicThread18periodicActivationEv:0000000000000014 .L0 
     /tmp/ccU8CX3A.s:54     .text._ZN14PeriodicThread18periodicActivationEv:0000000000000018 .L0 
     /tmp/ccU8CX3A.s:61     .text:0000000000000000 _ZN6ThreadD2Ev
     /tmp/ccU8CX3A.s:65     .text:0000000000000000 .L0 
     /tmp/ccU8CX3A.s:67     .text:0000000000000000 .L0 
     /tmp/ccU8CX3A.s:68     .text:0000000000000004 .L0 
     /tmp/ccU8CX3A.s:70     .text:0000000000000008 .L0 
     /tmp/ccU8CX3A.s:72     .text:000000000000000c .L0 
     /tmp/ccU8CX3A.s:74     .text:000000000000000c .L0 
     /tmp/ccU8CX3A.s:75     .text:0000000000000010 .L0 
     /tmp/ccU8CX3A.s:76     .text:0000000000000010 .L0 
     /tmp/ccU8CX3A.s:78     .text:0000000000000014 .L0 
     /tmp/ccU8CX3A.s:80     .text:0000000000000018 .L0 
     /tmp/ccU8CX3A.s:61     .text:0000000000000000 _ZN6ThreadD1Ev
     /tmp/ccU8CX3A.s:89     .text._ZN14PeriodicThreadD2Ev:0000000000000000 _ZN14PeriodicThreadD2Ev
     /tmp/ccU8CX3A.s:92     .text._ZN14PeriodicThreadD2Ev:0000000000000000 .L0 
     /tmp/ccU8CX3A.s:94     .text._ZN14PeriodicThreadD2Ev:0000000000000000 .L0 
     /tmp/ccU8CX3A.s:95     .text._ZN14PeriodicThreadD2Ev:0000000000000004 .L0 
     /tmp/ccU8CX3A.s:97     .text._ZN14PeriodicThreadD2Ev:0000000000000008 .L0 
     /tmp/ccU8CX3A.s:99     .text._ZN14PeriodicThreadD2Ev:000000000000000c .L0 
     /tmp/ccU8CX3A.s:939    .data.rel.ro.local._ZTV14PeriodicThread:0000000000000000 _ZTV14PeriodicThread
     /tmp/ccU8CX3A.s:102    .text._ZN14PeriodicThreadD2Ev:000000000000000c .L0 
     /tmp/ccU8CX3A.s:106    .text._ZN14PeriodicThreadD2Ev:000000000000001c .L0 
     /tmp/ccU8CX3A.s:107    .text._ZN14PeriodicThreadD2Ev:000000000000001c .L0 
     /tmp/ccU8CX3A.s:109    .text._ZN14PeriodicThreadD2Ev:0000000000000020 .L0 
     /tmp/ccU8CX3A.s:111    .text._ZN14PeriodicThreadD2Ev:0000000000000024 .L0 
     /tmp/ccU8CX3A.s:89     .text._ZN14PeriodicThreadD2Ev:0000000000000000 _ZN14PeriodicThreadD1Ev
     /tmp/ccU8CX3A.s:120    .text:0000000000000018 _ZN9SemaphoreD2Ev
     /tmp/ccU8CX3A.s:123    .text:0000000000000018 .L0 
     /tmp/ccU8CX3A.s:5359   .data.rel.local.DW.ref.__gxx_personality_v0:0000000000000000 DW.ref.__gxx_personality_v0
     /tmp/ccU8CX3A.s:127    .text:0000000000000018 .L0 
     /tmp/ccU8CX3A.s:128    .text:000000000000001c .L0 
     /tmp/ccU8CX3A.s:132    .text:0000000000000028 .L0 
     /tmp/ccU8CX3A.s:133    .text:0000000000000028 .L0 
     /tmp/ccU8CX3A.s:134    .text:0000000000000028 .L0 
GAS LISTING /tmp/ccU8CX3A.s 			page 24


     /tmp/ccU8CX3A.s:136    .text:000000000000002c .L0 
     /tmp/ccU8CX3A.s:962    .data.rel.ro.local._ZTV9Semaphore:0000000000000000 _ZTV9Semaphore
     /tmp/ccU8CX3A.s:140    .text:0000000000000030 .L0 
     /tmp/ccU8CX3A.s:143    .text:000000000000003c .L0 
     /tmp/ccU8CX3A.s:144    .text:000000000000003c .L0 
     /tmp/ccU8CX3A.s:149    .text:0000000000000048 .L0 
     /tmp/ccU8CX3A.s:150    .text:0000000000000048 .L0 
     /tmp/ccU8CX3A.s:153    .text:000000000000004c .L0 
     /tmp/ccU8CX3A.s:160    .text:0000000000000050 .L0 
     /tmp/ccU8CX3A.s:164    .text:0000000000000050 .L0 
     /tmp/ccU8CX3A.s:165    .text:0000000000000050 .L0 
     /tmp/ccU8CX3A.s:166    .text:0000000000000050 .L0 
     /tmp/ccU8CX3A.s:170    .text:0000000000000054 .L0 
     /tmp/ccU8CX3A.s:174    .text:0000000000000058 .L0 
     /tmp/ccU8CX3A.s:175    .text:0000000000000058 .L0 
     /tmp/ccU8CX3A.s:176    .text:0000000000000058 .L0 
     /tmp/ccU8CX3A.s:178    .text:000000000000005c .L0 
     /tmp/ccU8CX3A.s:180    .text:0000000000000060 .L0 
     /tmp/ccU8CX3A.s:181    .text:0000000000000060 .L0 
     /tmp/ccU8CX3A.s:186    .text:0000000000000064 .L0 
     /tmp/ccU8CX3A.s:187    .text:0000000000000064 .L0 
     /tmp/ccU8CX3A.s:190    .text:000000000000006c .L0 
     /tmp/ccU8CX3A.s:199    .text:0000000000000070 .L0 
     /tmp/ccU8CX3A.s:205    .text:000000000000007c .L0 
     /tmp/ccU8CX3A.s:206    .text:0000000000000080 .L0 
     /tmp/ccU8CX3A.s:208    .text:0000000000000084 .L0 
     /tmp/ccU8CX3A.s:209    .text:0000000000000084 .L0 
     /tmp/ccU8CX3A.s:211    .text:0000000000000088 .L0 
     /tmp/ccU8CX3A.s:213    .text:000000000000008c .L0 
     /tmp/ccU8CX3A.s:215    .text:0000000000000090 .L0 
     /tmp/ccU8CX3A.s:120    .text:0000000000000018 _ZN9SemaphoreD1Ev
     /tmp/ccU8CX3A.s:231    .text:0000000000000090 _Znwm
     /tmp/ccU8CX3A.s:234    .text:0000000000000090 .L0 
     /tmp/ccU8CX3A.s:236    .text:0000000000000090 .L0 
     /tmp/ccU8CX3A.s:237    .text:0000000000000094 .L0 
     /tmp/ccU8CX3A.s:240    .text:000000000000009c .L0 
     /tmp/ccU8CX3A.s:241    .text:000000000000009c .L0 
     /tmp/ccU8CX3A.s:243    .text:00000000000000a0 .L0 
     /tmp/ccU8CX3A.s:245    .text:00000000000000a0 .L0 
     /tmp/ccU8CX3A.s:246    .text:00000000000000a0 .L0 
     /tmp/ccU8CX3A.s:249    .text:00000000000000a8 .L0 
     /tmp/ccU8CX3A.s:250    .text:00000000000000ac .L0 
     /tmp/ccU8CX3A.s:252    .text:00000000000000b0 .L0 
     /tmp/ccU8CX3A.s:253    .text:00000000000000b0 .L0 
     /tmp/ccU8CX3A.s:255    .text:00000000000000b4 .L0 
     /tmp/ccU8CX3A.s:257    .text:00000000000000b8 .L0 
     /tmp/ccU8CX3A.s:263    .text:00000000000000b8 _Znam
     /tmp/ccU8CX3A.s:266    .text:00000000000000b8 .L0 
     /tmp/ccU8CX3A.s:268    .text:00000000000000b8 .L0 
     /tmp/ccU8CX3A.s:269    .text:00000000000000bc .L0 
     /tmp/ccU8CX3A.s:272    .text:00000000000000c4 .L0 
     /tmp/ccU8CX3A.s:273    .text:00000000000000c4 .L0 
     /tmp/ccU8CX3A.s:275    .text:00000000000000c8 .L0 
     /tmp/ccU8CX3A.s:277    .text:00000000000000c8 .L0 
     /tmp/ccU8CX3A.s:278    .text:00000000000000c8 .L0 
     /tmp/ccU8CX3A.s:281    .text:00000000000000d0 .L0 
     /tmp/ccU8CX3A.s:282    .text:00000000000000d4 .L0 
GAS LISTING /tmp/ccU8CX3A.s 			page 25


     /tmp/ccU8CX3A.s:284    .text:00000000000000d8 .L0 
     /tmp/ccU8CX3A.s:285    .text:00000000000000d8 .L0 
     /tmp/ccU8CX3A.s:287    .text:00000000000000dc .L0 
     /tmp/ccU8CX3A.s:289    .text:00000000000000e0 .L0 
     /tmp/ccU8CX3A.s:295    .text:00000000000000e0 _ZdlPv
     /tmp/ccU8CX3A.s:298    .text:00000000000000e0 .L0 
     /tmp/ccU8CX3A.s:302    .text:00000000000000e0 .L0 
     /tmp/ccU8CX3A.s:303    .text:00000000000000e4 .L0 
     /tmp/ccU8CX3A.s:306    .text:00000000000000ec .L0 
     /tmp/ccU8CX3A.s:307    .text:00000000000000ec .L0 
     /tmp/ccU8CX3A.s:309    .text:00000000000000f0 .L0 
     /tmp/ccU8CX3A.s:311    .text:00000000000000f0 .L0 
     /tmp/ccU8CX3A.s:312    .text:00000000000000f0 .L0 
     /tmp/ccU8CX3A.s:315    .text:00000000000000f8 .L0 
     /tmp/ccU8CX3A.s:316    .text:00000000000000fc .L0 
     /tmp/ccU8CX3A.s:318    .text:0000000000000100 .L0 
     /tmp/ccU8CX3A.s:319    .text:0000000000000100 .L0 
     /tmp/ccU8CX3A.s:321    .text:0000000000000104 .L0 
     /tmp/ccU8CX3A.s:323    .text:0000000000000108 .L0 
     /tmp/ccU8CX3A.s:336    .text:0000000000000108 _ZN6ThreadD0Ev
     /tmp/ccU8CX3A.s:339    .text:0000000000000108 .L0 
     /tmp/ccU8CX3A.s:341    .text:0000000000000108 .L0 
     /tmp/ccU8CX3A.s:342    .text:000000000000010c .L0 
     /tmp/ccU8CX3A.s:345    .text:0000000000000114 .L0 
     /tmp/ccU8CX3A.s:346    .text:0000000000000114 .L0 
     /tmp/ccU8CX3A.s:348    .text:0000000000000118 .L0 
     /tmp/ccU8CX3A.s:350    .text:0000000000000118 .L0 
     /tmp/ccU8CX3A.s:353    .text:0000000000000124 .L0 
     /tmp/ccU8CX3A.s:355    .text:0000000000000128 .L0 
     /tmp/ccU8CX3A.s:356    .text:0000000000000128 .L0 
     /tmp/ccU8CX3A.s:358    .text:000000000000012c .L0 
     /tmp/ccU8CX3A.s:360    .text:0000000000000130 .L0 
     /tmp/ccU8CX3A.s:367    .text._ZN14PeriodicThreadD0Ev:0000000000000000 _ZN14PeriodicThreadD0Ev
     /tmp/ccU8CX3A.s:370    .text._ZN14PeriodicThreadD0Ev:0000000000000000 .L0 
     /tmp/ccU8CX3A.s:372    .text._ZN14PeriodicThreadD0Ev:0000000000000000 .L0 
     /tmp/ccU8CX3A.s:373    .text._ZN14PeriodicThreadD0Ev:0000000000000004 .L0 
     /tmp/ccU8CX3A.s:376    .text._ZN14PeriodicThreadD0Ev:000000000000000c .L0 
     /tmp/ccU8CX3A.s:377    .text._ZN14PeriodicThreadD0Ev:000000000000000c .L0 
     /tmp/ccU8CX3A.s:379    .text._ZN14PeriodicThreadD0Ev:0000000000000010 .L0 
     /tmp/ccU8CX3A.s:384    .text._ZN14PeriodicThreadD0Ev:0000000000000010 .L0 
     /tmp/ccU8CX3A.s:392    .text._ZN14PeriodicThreadD0Ev:0000000000000028 .L0 
     /tmp/ccU8CX3A.s:394    .text._ZN14PeriodicThreadD0Ev:000000000000002c .L0 
     /tmp/ccU8CX3A.s:395    .text._ZN14PeriodicThreadD0Ev:000000000000002c .L0 
     /tmp/ccU8CX3A.s:397    .text._ZN14PeriodicThreadD0Ev:0000000000000030 .L0 
     /tmp/ccU8CX3A.s:399    .text._ZN14PeriodicThreadD0Ev:0000000000000034 .L0 
     /tmp/ccU8CX3A.s:406    .text:0000000000000130 _ZN9SemaphoreD0Ev
     /tmp/ccU8CX3A.s:409    .text:0000000000000130 .L0 
     /tmp/ccU8CX3A.s:411    .text:0000000000000130 .L0 
     /tmp/ccU8CX3A.s:412    .text:0000000000000134 .L0 
     /tmp/ccU8CX3A.s:416    .text:0000000000000140 .L0 
     /tmp/ccU8CX3A.s:417    .text:0000000000000140 .L0 
     /tmp/ccU8CX3A.s:418    .text:0000000000000140 .L0 
     /tmp/ccU8CX3A.s:420    .text:0000000000000144 .L0 
     /tmp/ccU8CX3A.s:423    .text:0000000000000148 .L0 
     /tmp/ccU8CX3A.s:429    .text:0000000000000160 .L0 
     /tmp/ccU8CX3A.s:431    .text:0000000000000164 .L0 
     /tmp/ccU8CX3A.s:432    .text:0000000000000164 .L0 
GAS LISTING /tmp/ccU8CX3A.s 			page 26


     /tmp/ccU8CX3A.s:434    .text:0000000000000168 .L0 
     /tmp/ccU8CX3A.s:437    .text:000000000000016c .L0 
     /tmp/ccU8CX3A.s:439    .text:0000000000000170 .L0 
     /tmp/ccU8CX3A.s:445    .text:0000000000000170 _ZdaPv
     /tmp/ccU8CX3A.s:448    .text:0000000000000170 .L0 
     /tmp/ccU8CX3A.s:452    .text:0000000000000170 .L0 
     /tmp/ccU8CX3A.s:453    .text:0000000000000174 .L0 
     /tmp/ccU8CX3A.s:456    .text:000000000000017c .L0 
     /tmp/ccU8CX3A.s:457    .text:000000000000017c .L0 
     /tmp/ccU8CX3A.s:459    .text:0000000000000180 .L0 
     /tmp/ccU8CX3A.s:461    .text:0000000000000180 .L0 
     /tmp/ccU8CX3A.s:462    .text:0000000000000180 .L0 
     /tmp/ccU8CX3A.s:465    .text:0000000000000188 .L0 
     /tmp/ccU8CX3A.s:466    .text:000000000000018c .L0 
     /tmp/ccU8CX3A.s:468    .text:0000000000000190 .L0 
     /tmp/ccU8CX3A.s:469    .text:0000000000000190 .L0 
     /tmp/ccU8CX3A.s:471    .text:0000000000000194 .L0 
     /tmp/ccU8CX3A.s:473    .text:0000000000000198 .L0 
     /tmp/ccU8CX3A.s:486    .text:0000000000000198 _ZN6ThreadC2EPFvPvES0_
     /tmp/ccU8CX3A.s:489    .text:0000000000000198 .L0 
     /tmp/ccU8CX3A.s:491    .text:0000000000000198 .L0 
     /tmp/ccU8CX3A.s:492    .text:000000000000019c .L0 
     /tmp/ccU8CX3A.s:498    .text:00000000000001b0 .L0 
     /tmp/ccU8CX3A.s:499    .text:00000000000001b0 .L0 
     /tmp/ccU8CX3A.s:500    .text:00000000000001b0 .L0 
     /tmp/ccU8CX3A.s:501    .text:00000000000001b0 .L0 
     /tmp/ccU8CX3A.s:502    .text:00000000000001b0 .L0 
     /tmp/ccU8CX3A.s:504    .text:00000000000001b4 .L0 
     /tmp/ccU8CX3A.s:951    .data.rel.ro.local._ZTV6Thread:0000000000000000 _ZTV6Thread
     /tmp/ccU8CX3A.s:510    .text:00000000000001c0 .L0 
     /tmp/ccU8CX3A.s:515    .text:00000000000001cc .L0 
     /tmp/ccU8CX3A.s:516    .text:00000000000001cc .L0 
     /tmp/ccU8CX3A.s:518    .text:00000000000001d0 .L0 
     /tmp/ccU8CX3A.s:519    .text:00000000000001d0 .L0 
     /tmp/ccU8CX3A.s:527    .text:00000000000001e0 .L0 
     /tmp/ccU8CX3A.s:528    .text:00000000000001e0 .L0 
     /tmp/ccU8CX3A.s:533    .text:00000000000001f0 .L0 
     /tmp/ccU8CX3A.s:537    .text:00000000000001f4 .L0 
     /tmp/ccU8CX3A.s:538    .text:00000000000001f8 .L0 
     /tmp/ccU8CX3A.s:539    .text:00000000000001f8 .L0 
     /tmp/ccU8CX3A.s:541    .text:00000000000001fc .L0 
     /tmp/ccU8CX3A.s:542    .text:00000000000001fc .L0 
     /tmp/ccU8CX3A.s:544    .text:0000000000000200 .L0 
     /tmp/ccU8CX3A.s:547    .text:0000000000000204 .L0 
     /tmp/ccU8CX3A.s:550    .text:0000000000000208 .L0 
     /tmp/ccU8CX3A.s:553    .text:000000000000020c .L0 
     /tmp/ccU8CX3A.s:557    .text:0000000000000210 .L0 
     /tmp/ccU8CX3A.s:561    .text:0000000000000210 .L0 
     /tmp/ccU8CX3A.s:566    .text:0000000000000218 .L0 
     /tmp/ccU8CX3A.s:486    .text:0000000000000198 _ZN6ThreadC1EPFvPvES0_
     /tmp/ccU8CX3A.s:574    .text:0000000000000218 _ZN6Thread5startEv
     /tmp/ccU8CX3A.s:577    .text:0000000000000218 .L0 
     /tmp/ccU8CX3A.s:579    .text:0000000000000218 .L0 
     /tmp/ccU8CX3A.s:580    .text:000000000000021c .L0 
     /tmp/ccU8CX3A.s:583    .text:0000000000000224 .L0 
     /tmp/ccU8CX3A.s:584    .text:0000000000000224 .L0 
     /tmp/ccU8CX3A.s:586    .text:0000000000000228 .L0 
GAS LISTING /tmp/ccU8CX3A.s 			page 27


     /tmp/ccU8CX3A.s:588    .text:0000000000000228 .L0 
     /tmp/ccU8CX3A.s:589    .text:0000000000000228 .L0 
     /tmp/ccU8CX3A.s:594    .text:0000000000000234 .L0 
     /tmp/ccU8CX3A.s:595    .text:0000000000000234 .L0 
     /tmp/ccU8CX3A.s:597    .text:000000000000023c .L0 
     /tmp/ccU8CX3A.s:599    .text:0000000000000240 .L0 
     /tmp/ccU8CX3A.s:600    .text:0000000000000240 .L0 
     /tmp/ccU8CX3A.s:602    .text:0000000000000244 .L0 
     /tmp/ccU8CX3A.s:604    .text:0000000000000248 .L0 
     /tmp/ccU8CX3A.s:610    .text:0000000000000248 _ZN6Thread4joinEv
     /tmp/ccU8CX3A.s:613    .text:0000000000000248 .L0 
     /tmp/ccU8CX3A.s:615    .text:0000000000000248 .L0 
     /tmp/ccU8CX3A.s:616    .text:000000000000024c .L0 
     /tmp/ccU8CX3A.s:618    .text:0000000000000250 .L0 
     /tmp/ccU8CX3A.s:620    .text:0000000000000254 .L0 
     /tmp/ccU8CX3A.s:622    .text:0000000000000254 .L0 
     /tmp/ccU8CX3A.s:623    .text:0000000000000258 .L0 
     /tmp/ccU8CX3A.s:624    .text:0000000000000258 .L0 
     /tmp/ccU8CX3A.s:626    .text:000000000000025c .L0 
     /tmp/ccU8CX3A.s:628    .text:0000000000000260 .L0 
     /tmp/ccU8CX3A.s:634    .text:0000000000000260 _ZN6Thread8dispatchEv
     /tmp/ccU8CX3A.s:637    .text:0000000000000260 .L0 
     /tmp/ccU8CX3A.s:638    .text:0000000000000260 .L0 
     /tmp/ccU8CX3A.s:639    .text:0000000000000264 .L0 
     /tmp/ccU8CX3A.s:641    .text:0000000000000268 .L0 
     /tmp/ccU8CX3A.s:643    .text:000000000000026c .L0 
     /tmp/ccU8CX3A.s:645    .text:000000000000026c .L0 
     /tmp/ccU8CX3A.s:646    .text:0000000000000270 .L0 
     /tmp/ccU8CX3A.s:647    .text:0000000000000270 .L0 
     /tmp/ccU8CX3A.s:649    .text:0000000000000274 .L0 
     /tmp/ccU8CX3A.s:651    .text:0000000000000278 .L0 
     /tmp/ccU8CX3A.s:657    .text:0000000000000278 _ZN6Thread5sleepEm
     /tmp/ccU8CX3A.s:660    .text:0000000000000278 .L0 
     /tmp/ccU8CX3A.s:661    .text:0000000000000278 .L0 
     /tmp/ccU8CX3A.s:662    .text:000000000000027c .L0 
     /tmp/ccU8CX3A.s:664    .text:0000000000000280 .L0 
     /tmp/ccU8CX3A.s:666    .text:0000000000000284 .L0 
     /tmp/ccU8CX3A.s:668    .text:0000000000000284 .L0 
     /tmp/ccU8CX3A.s:669    .text:0000000000000284 .L0 
     /tmp/ccU8CX3A.s:671    .text:000000000000028c .L0 
     /tmp/ccU8CX3A.s:672    .text:000000000000028c .L0 
     /tmp/ccU8CX3A.s:674    .text:0000000000000290 .L0 
     /tmp/ccU8CX3A.s:676    .text:0000000000000294 .L0 
     /tmp/ccU8CX3A.s:682    .text:0000000000000294 _ZN6ThreadC2Ev
     /tmp/ccU8CX3A.s:685    .text:0000000000000294 .L0 
     /tmp/ccU8CX3A.s:687    .text:0000000000000294 .L0 
     /tmp/ccU8CX3A.s:688    .text:0000000000000298 .L0 
     /tmp/ccU8CX3A.s:690    .text:000000000000029c .L0 
     /tmp/ccU8CX3A.s:692    .text:00000000000002a0 .L0 
     /tmp/ccU8CX3A.s:695    .text:00000000000002a0 .L0 
     /tmp/ccU8CX3A.s:699    .text:00000000000002ac .L0 
     /tmp/ccU8CX3A.s:700    .text:00000000000002b0 .L0 
     /tmp/ccU8CX3A.s:701    .text:00000000000002b0 .L0 
     /tmp/ccU8CX3A.s:703    .text:00000000000002b4 .L0 
     /tmp/ccU8CX3A.s:705    .text:00000000000002b8 .L0 
     /tmp/ccU8CX3A.s:682    .text:0000000000000294 _ZN6ThreadC1Ev
     /tmp/ccU8CX3A.s:713    .text:00000000000002b8 _ZN9SemaphoreC2Ej
GAS LISTING /tmp/ccU8CX3A.s 			page 28


     /tmp/ccU8CX3A.s:716    .text:00000000000002b8 .L0 
     /tmp/ccU8CX3A.s:718    .text:00000000000002b8 .L0 
     /tmp/ccU8CX3A.s:719    .text:00000000000002bc .L0 
     /tmp/ccU8CX3A.s:722    .text:00000000000002c4 .L0 
     /tmp/ccU8CX3A.s:723    .text:00000000000002c4 .L0 
     /tmp/ccU8CX3A.s:725    .text:00000000000002c8 .L0 
     /tmp/ccU8CX3A.s:728    .text:00000000000002c8 .L0 
     /tmp/ccU8CX3A.s:731    .text:00000000000002d4 .L0 
     /tmp/ccU8CX3A.s:732    .text:00000000000002d4 .L0 
     /tmp/ccU8CX3A.s:738    .text:00000000000002e0 .L0 
     /tmp/ccU8CX3A.s:739    .text:00000000000002e4 .L0 
     /tmp/ccU8CX3A.s:741    .text:00000000000002e8 .L0 
     /tmp/ccU8CX3A.s:742    .text:00000000000002e8 .L0 
     /tmp/ccU8CX3A.s:744    .text:00000000000002ec .L0 
     /tmp/ccU8CX3A.s:746    .text:00000000000002f0 .L0 
     /tmp/ccU8CX3A.s:713    .text:00000000000002b8 _ZN9SemaphoreC1Ej
     /tmp/ccU8CX3A.s:754    .text:00000000000002f0 _ZN9Semaphore4waitEv
     /tmp/ccU8CX3A.s:757    .text:00000000000002f0 .L0 
     /tmp/ccU8CX3A.s:759    .text:00000000000002f0 .L0 
     /tmp/ccU8CX3A.s:760    .text:00000000000002f4 .L0 
     /tmp/ccU8CX3A.s:763    .text:00000000000002fc .L0 
     /tmp/ccU8CX3A.s:764    .text:00000000000002fc .L0 
     /tmp/ccU8CX3A.s:766    .text:0000000000000300 .L0 
     /tmp/ccU8CX3A.s:768    .text:0000000000000300 .L0 
     /tmp/ccU8CX3A.s:769    .text:0000000000000300 .L0 
     /tmp/ccU8CX3A.s:774    .text:000000000000030c .L0 
     /tmp/ccU8CX3A.s:775    .text:0000000000000310 .L0 
     /tmp/ccU8CX3A.s:777    .text:0000000000000314 .L0 
     /tmp/ccU8CX3A.s:778    .text:0000000000000314 .L0 
     /tmp/ccU8CX3A.s:780    .text:0000000000000318 .L0 
     /tmp/ccU8CX3A.s:782    .text:000000000000031c .L0 
     /tmp/ccU8CX3A.s:788    .text:000000000000031c _ZN9Semaphore6signalEv
     /tmp/ccU8CX3A.s:791    .text:000000000000031c .L0 
     /tmp/ccU8CX3A.s:793    .text:000000000000031c .L0 
     /tmp/ccU8CX3A.s:794    .text:0000000000000320 .L0 
     /tmp/ccU8CX3A.s:797    .text:0000000000000328 .L0 
     /tmp/ccU8CX3A.s:798    .text:0000000000000328 .L0 
     /tmp/ccU8CX3A.s:800    .text:000000000000032c .L0 
     /tmp/ccU8CX3A.s:802    .text:000000000000032c .L0 
     /tmp/ccU8CX3A.s:803    .text:000000000000032c .L0 
     /tmp/ccU8CX3A.s:808    .text:0000000000000338 .L0 
     /tmp/ccU8CX3A.s:809    .text:000000000000033c .L0 
     /tmp/ccU8CX3A.s:811    .text:0000000000000340 .L0 
     /tmp/ccU8CX3A.s:812    .text:0000000000000340 .L0 
     /tmp/ccU8CX3A.s:814    .text:0000000000000344 .L0 
     /tmp/ccU8CX3A.s:816    .text:0000000000000348 .L0 
     /tmp/ccU8CX3A.s:822    .text:0000000000000348 _ZN14PeriodicThread9terminateEv
     /tmp/ccU8CX3A.s:825    .text:0000000000000348 .L0 
     /tmp/ccU8CX3A.s:827    .text:0000000000000348 .L0 
     /tmp/ccU8CX3A.s:828    .text:000000000000034c .L0 
     /tmp/ccU8CX3A.s:830    .text:0000000000000350 .L0 
     /tmp/ccU8CX3A.s:832    .text:0000000000000354 .L0 
     /tmp/ccU8CX3A.s:834    .text:0000000000000354 .L0 
     /tmp/ccU8CX3A.s:835    .text:0000000000000358 .L0 
     /tmp/ccU8CX3A.s:836    .text:0000000000000358 .L0 
     /tmp/ccU8CX3A.s:838    .text:000000000000035c .L0 
     /tmp/ccU8CX3A.s:840    .text:0000000000000360 .L0 
GAS LISTING /tmp/ccU8CX3A.s 			page 29


     /tmp/ccU8CX3A.s:846    .text:0000000000000360 _ZN14PeriodicThreadC2Em
     /tmp/ccU8CX3A.s:849    .text:0000000000000360 .L0 
     /tmp/ccU8CX3A.s:851    .text:0000000000000360 .L0 
     /tmp/ccU8CX3A.s:852    .text:0000000000000364 .L0 
     /tmp/ccU8CX3A.s:856    .text:0000000000000370 .L0 
     /tmp/ccU8CX3A.s:857    .text:0000000000000370 .L0 
     /tmp/ccU8CX3A.s:858    .text:0000000000000370 .L0 
     /tmp/ccU8CX3A.s:860    .text:0000000000000374 .L0 
     /tmp/ccU8CX3A.s:864    .text:0000000000000378 .L0 
     /tmp/ccU8CX3A.s:870    .text:000000000000038c .L0 
     /tmp/ccU8CX3A.s:871    .text:0000000000000390 .L0 
     /tmp/ccU8CX3A.s:873    .text:0000000000000394 .L0 
     /tmp/ccU8CX3A.s:874    .text:0000000000000394 .L0 
     /tmp/ccU8CX3A.s:876    .text:0000000000000398 .L0 
     /tmp/ccU8CX3A.s:879    .text:000000000000039c .L0 
     /tmp/ccU8CX3A.s:881    .text:00000000000003a0 .L0 
     /tmp/ccU8CX3A.s:846    .text:0000000000000360 _ZN14PeriodicThreadC1Em
     /tmp/ccU8CX3A.s:889    .text:00000000000003a0 _ZN7Console4getcEv
     /tmp/ccU8CX3A.s:892    .text:00000000000003a0 .L0 
     /tmp/ccU8CX3A.s:893    .text:00000000000003a0 .L0 
     /tmp/ccU8CX3A.s:894    .text:00000000000003a4 .L0 
     /tmp/ccU8CX3A.s:896    .text:00000000000003a8 .L0 
     /tmp/ccU8CX3A.s:898    .text:00000000000003ac .L0 
     /tmp/ccU8CX3A.s:900    .text:00000000000003ac .L0 
     /tmp/ccU8CX3A.s:901    .text:00000000000003ac .L0 
     /tmp/ccU8CX3A.s:903    .text:00000000000003b4 .L0 
     /tmp/ccU8CX3A.s:904    .text:00000000000003b4 .L0 
     /tmp/ccU8CX3A.s:906    .text:00000000000003b8 .L0 
     /tmp/ccU8CX3A.s:908    .text:00000000000003bc .L0 
     /tmp/ccU8CX3A.s:914    .text:00000000000003bc _ZN7Console4putcEc
     /tmp/ccU8CX3A.s:917    .text:00000000000003bc .L0 
     /tmp/ccU8CX3A.s:918    .text:00000000000003bc .L0 
     /tmp/ccU8CX3A.s:919    .text:00000000000003c0 .L0 
     /tmp/ccU8CX3A.s:921    .text:00000000000003c4 .L0 
     /tmp/ccU8CX3A.s:923    .text:00000000000003c8 .L0 
     /tmp/ccU8CX3A.s:925    .text:00000000000003c8 .L0 
     /tmp/ccU8CX3A.s:926    .text:00000000000003cc .L0 
     /tmp/ccU8CX3A.s:927    .text:00000000000003cc .L0 
     /tmp/ccU8CX3A.s:929    .text:00000000000003d0 .L0 
     /tmp/ccU8CX3A.s:931    .text:00000000000003d4 .L0 
     /tmp/ccU8CX3A.s:32     .text._ZN6Thread3runEv:0000000000000018 .L0 
     /tmp/ccU8CX3A.s:57     .text._ZN14PeriodicThread18periodicActivationEv:0000000000000018 .L0 
     /tmp/ccU8CX3A.s:973    .text:00000000000003d4 .L0 
     /tmp/ccU8CX3A.s:116    .text._ZN14PeriodicThreadD2Ev:0000000000000024 .L0 
     /tmp/ccU8CX3A.s:402    .text._ZN14PeriodicThreadD0Ev:0000000000000034 .L0 
     /tmp/ccU8CX3A.s:140    .text:0000000000000030 .L0 
     /tmp/ccU8CX3A.s:510    .text:00000000000001c0 .L0 
     /tmp/ccU8CX3A.s:695    .text:00000000000002a0 .L0 
     /tmp/ccU8CX3A.s:728    .text:00000000000002c8 .L0 
     /tmp/ccU8CX3A.s:866    .text:0000000000000380 .L0 
     /tmp/ccU8CX3A.s:202    .text:000000000000007c .L9
     /tmp/ccU8CX3A.s:191    .text:0000000000000070 .L11
     /tmp/ccU8CX3A.s:154    .text:0000000000000050 .L12
     /tmp/ccU8CX3A.s:556    .text:0000000000000210 .L31
     /tmp/ccU8CX3A.s:525    .text:00000000000001e0 .L30
     /tmp/ccU8CX3A.s:102    .text._ZN14PeriodicThreadD2Ev:000000000000000c .L0 
     /tmp/ccU8CX3A.s:384    .text._ZN14PeriodicThreadD0Ev:0000000000000010 .L0 
GAS LISTING /tmp/ccU8CX3A.s 			page 30


     /tmp/ccU8CX3A.s:3119   .debug_abbrev:0000000000000000 .Ldebug_abbrev0
     /tmp/ccU8CX3A.s:5273   .debug_str:00000000000008ff .LASF183
     /tmp/ccU8CX3A.s:5119   .debug_str:00000000000004af .LASF184
     /tmp/ccU8CX3A.s:5221   .debug_str:000000000000079d .LASF185
     /tmp/ccU8CX3A.s:4941   .debug_ranges:0000000000000000 .Ldebug_ranges0
     /tmp/ccU8CX3A.s:4961   .debug_line:0000000000000000 .Ldebug_line0
     /tmp/ccU8CX3A.s:5199   .debug_str:000000000000070e .LASF3
     /tmp/ccU8CX3A.s:5109   .debug_str:0000000000000476 .LASF0
     /tmp/ccU8CX3A.s:5137   .debug_str:0000000000000536 .LASF1
     /tmp/ccU8CX3A.s:5209   .debug_str:0000000000000752 .LASF2
     /tmp/ccU8CX3A.s:5219   .debug_str:0000000000000796 .LASF4
     /tmp/ccU8CX3A.s:5121   .debug_str:00000000000004c3 .LASF5
     /tmp/ccU8CX3A.s:4979   .debug_str:0000000000000092 .LASF6
     /tmp/ccU8CX3A.s:5185   .debug_str:0000000000000699 .LASF7
     /tmp/ccU8CX3A.s:5181   .debug_str:000000000000066e .LASF8
     /tmp/ccU8CX3A.s:5129   .debug_str:0000000000000506 .LASF9
     /tmp/ccU8CX3A.s:5079   .debug_str:0000000000000391 .LASF10
     /tmp/ccU8CX3A.s:5091   .debug_str:000000000000040d .LASF11
     /tmp/ccU8CX3A.s:5021   .debug_str:00000000000001d6 .LASF12
     /tmp/ccU8CX3A.s:5073   .debug_str:0000000000000365 .LASF13
     /tmp/ccU8CX3A.s:5035   .debug_str:0000000000000245 .LASF14
     /tmp/ccU8CX3A.s:5019   .debug_str:00000000000001c6 .LASF15
     /tmp/ccU8CX3A.s:5241   .debug_str:0000000000000842 .LASF16
     /tmp/ccU8CX3A.s:5063   .debug_str:00000000000002f9 .LASF17
     /tmp/ccU8CX3A.s:5231   .debug_str:00000000000007f3 .LASF18
     /tmp/ccU8CX3A.s:5311   .debug_str:0000000000000ab3 .LASF19
     /tmp/ccU8CX3A.s:5249   .debug_str:000000000000087f .LASF93
     /tmp/ccU8CX3A.s:5239   .debug_str:0000000000000835 .LASF20
     /tmp/ccU8CX3A.s:5319   .debug_str:0000000000000aed .LASF22
     /tmp/ccU8CX3A.s:5175   .debug_str:0000000000000647 .LASF186
     /tmp/ccU8CX3A.s:5335   .debug_str:0000000000000b77 .LASF34
     /tmp/ccU8CX3A.s:5123   .debug_str:00000000000004d5 .LASF36
     /tmp/ccU8CX3A.s:5251   .debug_str:0000000000000887 .LASF24
     /tmp/ccU8CX3A.s:5245   .debug_str:0000000000000862 .LASF26
     /tmp/ccU8CX3A.s:5005   .debug_str:0000000000000158 .LASF21
     /tmp/ccU8CX3A.s:5289   .debug_str:0000000000000a21 .LASF23
     /tmp/ccU8CX3A.s:5213   .debug_str:000000000000076f .LASF25
     /tmp/ccU8CX3A.s:5243   .debug_str:000000000000084e .LASF27
     /tmp/ccU8CX3A.s:5255   .debug_str:000000000000089f .LASF28
     /tmp/ccU8CX3A.s:5069   .debug_str:0000000000000336 .LASF29
     /tmp/ccU8CX3A.s:5145   .debug_str:000000000000056a .LASF30
     /tmp/ccU8CX3A.s:5197   .debug_str:00000000000006f6 .LASF31
     /tmp/ccU8CX3A.s:5051   .debug_str:00000000000002bb .LASF32
     /tmp/ccU8CX3A.s:5217   .debug_str:000000000000077e .LASF33
     /tmp/ccU8CX3A.s:5295   .debug_str:0000000000000a62 .LASF35
     /tmp/ccU8CX3A.s:5075   .debug_str:0000000000000374 .LASF37
     /tmp/ccU8CX3A.s:5313   .debug_str:0000000000000abc .LASF38
     /tmp/ccU8CX3A.s:5071   .debug_str:000000000000034c .LASF40
     /tmp/ccU8CX3A.s:5141   .debug_str:0000000000000551 .LASF39
     /tmp/ccU8CX3A.s:5277   .debug_str:00000000000009d6 .LASF41
     /tmp/ccU8CX3A.s:5053   .debug_str:00000000000002c8 .LASF42
     /tmp/ccU8CX3A.s:5031   .debug_str:0000000000000220 .LASF43
     /tmp/ccU8CX3A.s:5309   .debug_str:0000000000000aab .LASF44
     /tmp/ccU8CX3A.s:4987   .debug_str:00000000000000df .LASF45
     /tmp/ccU8CX3A.s:5269   .debug_str:00000000000008e7 .LASF46
     /tmp/ccU8CX3A.s:5013   .debug_str:0000000000000199 .LASF47
     /tmp/ccU8CX3A.s:5287   .debug_str:0000000000000a19 .LASF48
GAS LISTING /tmp/ccU8CX3A.s 			page 31


     /tmp/ccU8CX3A.s:5017   .debug_str:00000000000001b7 .LASF49
     /tmp/ccU8CX3A.s:5337   .debug_str:0000000000000b7d .LASF50
     /tmp/ccU8CX3A.s:5303   .debug_str:0000000000000a94 .LASF51
     /tmp/ccU8CX3A.s:5281   .debug_str:00000000000009fd .LASF52
     /tmp/ccU8CX3A.s:5229   .debug_str:00000000000007ea .LASF53
     /tmp/ccU8CX3A.s:5171   .debug_str:0000000000000638 .LASF54
     /tmp/ccU8CX3A.s:5099   .debug_str:000000000000043b .LASF55
     /tmp/ccU8CX3A.s:5271   .debug_str:00000000000008ef .LASF56
     /tmp/ccU8CX3A.s:5179   .debug_str:0000000000000662 .LASF57
     /tmp/ccU8CX3A.s:4965   .debug_str:000000000000002a .LASF58
     /tmp/ccU8CX3A.s:4969   .debug_str:000000000000003c .LASF59
     /tmp/ccU8CX3A.s:5331   .debug_str:0000000000000b53 .LASF187
     /tmp/ccU8CX3A.s:5043   .debug_str:0000000000000284 .LASF86
     /tmp/ccU8CX3A.s:4973   .debug_str:0000000000000052 .LASF88
     /tmp/ccU8CX3A.s:5345   .debug_str:0000000000000bb8 .LASF60
     /tmp/ccU8CX3A.s:5087   .debug_str:00000000000003ee .LASF61
     /tmp/ccU8CX3A.s:5111   .debug_str:0000000000000483 .LASF73
     /tmp/ccU8CX3A.s:5151   .debug_str:0000000000000598 .LASF99
     /tmp/ccU8CX3A.s:5329   .debug_str:0000000000000b4d .LASF62
     /tmp/ccU8CX3A.s:5233   .debug_str:0000000000000809 .LASF63
     /tmp/ccU8CX3A.s:5135   .debug_str:000000000000052e .LASF64
     /tmp/ccU8CX3A.s:5169   .debug_str:0000000000000625 .LASF65
     /tmp/ccU8CX3A.s:5055   .debug_str:00000000000002d1 .LASF66
     /tmp/ccU8CX3A.s:5059   .debug_str:00000000000002dc .LASF67
     /tmp/ccU8CX3A.s:5247   .debug_str:0000000000000878 .LASF68
     /tmp/ccU8CX3A.s:4999   .debug_str:000000000000013a .LASF69
     /tmp/ccU8CX3A.s:5323   .debug_str:0000000000000b22 .LASF70
     /tmp/ccU8CX3A.s:5163   .debug_str:00000000000005f3 .LASF71
     /tmp/ccU8CX3A.s:5061   .debug_str:00000000000002ec .LASF72
     /tmp/ccU8CX3A.s:4975   .debug_str:000000000000007a .LASF74
     /tmp/ccU8CX3A.s:5107   .debug_str:0000000000000470 .LASF75
     /tmp/ccU8CX3A.s:5267   .debug_str:00000000000008d6 .LASF76
     /tmp/ccU8CX3A.s:4971   .debug_str:000000000000004a .LASF77
     /tmp/ccU8CX3A.s:4983   .debug_str:00000000000000b0 .LASF78
     /tmp/ccU8CX3A.s:5317   .debug_str:0000000000000ae0 .LASF79
     /tmp/ccU8CX3A.s:5293   .debug_str:0000000000000a52 .LASF80
     /tmp/ccU8CX3A.s:5047   .debug_str:00000000000002ac .LASF81
     /tmp/ccU8CX3A.s:5131   .debug_str:0000000000000519 .LASF82
     /tmp/ccU8CX3A.s:5307   .debug_str:0000000000000aa3 .LASF83
     /tmp/ccU8CX3A.s:5057   .debug_str:00000000000002d6 .LASF84
     /tmp/ccU8CX3A.s:5285   .debug_str:0000000000000a0c .LASF188
     /tmp/ccU8CX3A.s:5155   .debug_str:00000000000005bd .LASF85
     /tmp/ccU8CX3A.s:5113   .debug_str:0000000000000493 .LASF189
     /tmp/ccU8CX3A.s:5321   .debug_str:0000000000000b0f .LASF190
     /tmp/ccU8CX3A.s:5157   .debug_str:00000000000005c5 .LASF87
     /tmp/ccU8CX3A.s:5327   .debug_str:0000000000000b3a .LASF89
     /tmp/ccU8CX3A.s:5259   .debug_str:00000000000008b0 .LASF90
     /tmp/ccU8CX3A.s:5201   .debug_str:0000000000000713 .LASF91
     /tmp/ccU8CX3A.s:5165   .debug_str:0000000000000609 .LASF92
     /tmp/ccU8CX3A.s:5049   .debug_str:00000000000002b6 .LASF94
     /tmp/ccU8CX3A.s:5283   .debug_str:0000000000000a07 .LASF95
     /tmp/ccU8CX3A.s:5023   .debug_str:00000000000001e5 .LASF96
     /tmp/ccU8CX3A.s:5067   .debug_str:0000000000000318 .LASF97
     /tmp/ccU8CX3A.s:5045   .debug_str:0000000000000292 .LASF98
     /tmp/ccU8CX3A.s:5189   .debug_str:00000000000006b2 .LASF100
     /tmp/ccU8CX3A.s:5299   .debug_str:0000000000000a88 .LASF101
     /tmp/ccU8CX3A.s:5133   .debug_str:0000000000000529 .LASF102
GAS LISTING /tmp/ccU8CX3A.s 			page 32


     /tmp/ccU8CX3A.s:4993   .debug_str:000000000000010c .LASF103
     /tmp/ccU8CX3A.s:5085   .debug_str:00000000000003d6 .LASF104
     /tmp/ccU8CX3A.s:5183   .debug_str:0000000000000681 .LASF118
     /tmp/ccU8CX3A.s:5253   .debug_str:0000000000000892 .LASF105
     /tmp/ccU8CX3A.s:5039   .debug_str:000000000000026a .LASF106
     /tmp/ccU8CX3A.s:5115   .debug_str:0000000000000498 .LASF107
     /tmp/ccU8CX3A.s:4985   .debug_str:00000000000000c3 .LASF108
     /tmp/ccU8CX3A.s:5139   .debug_str:0000000000000549 .LASF109
     /tmp/ccU8CX3A.s:5161   .debug_str:00000000000005d4 .LASF110
     /tmp/ccU8CX3A.s:5007   .debug_str:0000000000000164 .LASF111
     /tmp/ccU8CX3A.s:5009   .debug_str:000000000000016d .LASF112
     /tmp/ccU8CX3A.s:5037   .debug_str:0000000000000255 .LASF113
     /tmp/ccU8CX3A.s:5315   .debug_str:0000000000000aca .LASF114
     /tmp/ccU8CX3A.s:5305   .debug_str:0000000000000a99 .LASF115
     /tmp/ccU8CX3A.s:5225   .debug_str:00000000000007cd .LASF124
     /tmp/ccU8CX3A.s:5339   .debug_str:0000000000000b83 .LASF126
     /tmp/ccU8CX3A.s:5263   .debug_str:00000000000008bf .LASF116
     /tmp/ccU8CX3A.s:5193   .debug_str:00000000000006e1 .LASF117
     /tmp/ccU8CX3A.s:5223   .debug_str:00000000000007bb .LASF119
     /tmp/ccU8CX3A.s:5027   .debug_str:00000000000001fc .LASF120
     /tmp/ccU8CX3A.s:4981   .debug_str:0000000000000099 .LASF121
     /tmp/ccU8CX3A.s:5065   .debug_str:000000000000030f .LASF122
     /tmp/ccU8CX3A.s:5105   .debug_str:0000000000000460 .LASF191
     /tmp/ccU8CX3A.s:5097   .debug_str:0000000000000434 .LASF123
     /tmp/ccU8CX3A.s:5033   .debug_str:0000000000000233 .LASF125
     /tmp/ccU8CX3A.s:5205   .debug_str:000000000000072d .LASF127
     /tmp/ccU8CX3A.s:5349   .debug_str:0000000000000bce .LASF128
     /tmp/ccU8CX3A.s:5227   .debug_str:00000000000007e2 .LASF129
     /tmp/ccU8CX3A.s:5235   .debug_str:000000000000080e .LASF130
     /tmp/ccU8CX3A.s:5143   .debug_str:0000000000000557 .LASF131
     /tmp/ccU8CX3A.s:5265   .debug_str:00000000000008d1 .LASF132
     /tmp/ccU8CX3A.s:5187   .debug_str:00000000000006a0 .LASF133
     /tmp/ccU8CX3A.s:5177   .debug_str:000000000000064c .LASF134
     /tmp/ccU8CX3A.s:4995   .debug_str:0000000000000121 .LASF135
     /tmp/ccU8CX3A.s:5275   .debug_str:00000000000009c3 .LASF136
     /tmp/ccU8CX3A.s:5117   .debug_str:00000000000004a0 .LASF137
     /tmp/ccU8CX3A.s:5103   .debug_str:000000000000044f .LASF192
     /tmp/ccU8CX3A.s:4967   .debug_str:0000000000000037 .LASF138
     /tmp/ccU8CX3A.s:5029   .debug_str:0000000000000211 .LASF139
     /tmp/ccU8CX3A.s:5291   .debug_str:0000000000000a38 .LASF140
     /tmp/ccU8CX3A.s:5297   .debug_str:0000000000000a6d .LASF141
     /tmp/ccU8CX3A.s:5261   .debug_str:00000000000008b5 .LASF142
     /tmp/ccU8CX3A.s:5083   .debug_str:00000000000003b6 .LASF143
     /tmp/ccU8CX3A.s:5127   .debug_str:00000000000004ee .LASF144
     /tmp/ccU8CX3A.s:5089   .debug_str:00000000000003fa .LASF145
     /tmp/ccU8CX3A.s:4963   .debug_str:0000000000000000 .LASF193
     /tmp/ccU8CX3A.s:5003   .debug_str:0000000000000151 .LASF146
     /tmp/ccU8CX3A.s:5167   .debug_str:0000000000000615 .LASF147
     /tmp/ccU8CX3A.s:5153   .debug_str:00000000000005a5 .LASF194
     /tmp/ccU8CX3A.s:5077   .debug_str:000000000000038c .LASF148
     /tmp/ccU8CX3A.s:4977   .debug_str:0000000000000088 .LASF149
     /tmp/ccU8CX3A.s:5351   .debug_str:0000000000000be5 .LASF150
     /tmp/ccU8CX3A.s:368    .text._ZN14PeriodicThreadD0Ev:0000000000000000 .LFB70
     /tmp/ccU8CX3A.s:400    .text._ZN14PeriodicThreadD0Ev:0000000000000034 .LFE70
     /tmp/ccU8CX3A.s:4584   .debug_loc:0000000000000000 .LLST7
     /tmp/ccU8CX3A.s:381    .text._ZN14PeriodicThreadD0Ev:0000000000000010 .LBB43
     /tmp/ccU8CX3A.s:388    .text._ZN14PeriodicThreadD0Ev:000000000000001c .LBE43
GAS LISTING /tmp/ccU8CX3A.s 			page 33


     /tmp/ccU8CX3A.s:4598   .debug_loc:0000000000000039 .LLST8
     /tmp/ccU8CX3A.s:390    .text._ZN14PeriodicThreadD0Ev:0000000000000024 .LVL24
     /tmp/ccU8CX3A.s:5207   .debug_str:000000000000073a .LASF151
     /tmp/ccU8CX3A.s:90     .text._ZN14PeriodicThreadD2Ev:0000000000000000 .LFB68
     /tmp/ccU8CX3A.s:112    .text._ZN14PeriodicThreadD2Ev:0000000000000024 .LFE68
     /tmp/ccU8CX3A.s:915    .text:00000000000003bc .LFB66
     /tmp/ccU8CX3A.s:932    .text:00000000000003d4 .LFE66
     /tmp/ccU8CX3A.s:890    .text:00000000000003a0 .LFB65
     /tmp/ccU8CX3A.s:909    .text:00000000000003bc .LFE65
     /tmp/ccU8CX3A.s:5237   .debug_str:000000000000081d .LASF152
     /tmp/ccU8CX3A.s:847    .text:0000000000000360 .LFB63
     /tmp/ccU8CX3A.s:882    .text:00000000000003a0 .LFE63
     /tmp/ccU8CX3A.s:4605   .debug_loc:000000000000005c .LLST20
     /tmp/ccU8CX3A.s:4623   .debug_loc:00000000000000a8 .LLST21
     /tmp/ccU8CX3A.s:865    .text:0000000000000380 .LVL58
     /tmp/ccU8CX3A.s:823    .text:0000000000000348 .LFB61
     /tmp/ccU8CX3A.s:841    .text:0000000000000360 .LFE61
     /tmp/ccU8CX3A.s:789    .text:000000000000031c .LFB60
     /tmp/ccU8CX3A.s:817    .text:0000000000000348 .LFE60
     /tmp/ccU8CX3A.s:4637   .debug_loc:00000000000000e1 .LLST19
     /tmp/ccU8CX3A.s:806    .text:0000000000000338 .LVL55
     /tmp/ccU8CX3A.s:755    .text:00000000000002f0 .LFB59
     /tmp/ccU8CX3A.s:783    .text:000000000000031c .LFE59
     /tmp/ccU8CX3A.s:4651   .debug_loc:000000000000011a .LLST18
     /tmp/ccU8CX3A.s:772    .text:000000000000030c .LVL52
     /tmp/ccU8CX3A.s:5147   .debug_str:0000000000000577 .LASF153
     /tmp/ccU8CX3A.s:407    .text:0000000000000130 .LFB58
     /tmp/ccU8CX3A.s:440    .text:0000000000000170 .LFE58
     /tmp/ccU8CX3A.s:4665   .debug_loc:0000000000000153 .LLST9
     /tmp/ccU8CX3A.s:424    .text:0000000000000150 .LVL26
     /tmp/ccU8CX3A.s:427    .text:000000000000015c .LVL27
     /tmp/ccU8CX3A.s:4989   .debug_str:00000000000000f1 .LASF154
     /tmp/ccU8CX3A.s:121    .text:0000000000000018 .LFB56
     /tmp/ccU8CX3A.s:216    .text:0000000000000090 .LFE56
     /tmp/ccU8CX3A.s:4683   .debug_loc:000000000000019f .LLST0
     /tmp/ccU8CX3A.s:155    .text:0000000000000050 .LBB35
     /tmp/ccU8CX3A.s:197    .text:0000000000000070 .LBE35
     /tmp/ccU8CX3A.s:156    .text:0000000000000050 .LBB36
     /tmp/ccU8CX3A.s:196    .text:0000000000000070 .LBE36
     /tmp/ccU8CX3A.s:162    .text:0000000000000050 .LBB38
     /tmp/ccU8CX3A.s:168    .text:0000000000000054 .LBE38
     /tmp/ccU8CX3A.s:171    .text:0000000000000058 .LBB40
     /tmp/ccU8CX3A.s:194    .text:0000000000000070 .LBE40
     /tmp/ccU8CX3A.s:4701   .debug_loc:00000000000001eb .LLST1
     /tmp/ccU8CX3A.s:183    .text:0000000000000064 .LBB41
     /tmp/ccU8CX3A.s:193    .text:0000000000000070 .LBE41
     /tmp/ccU8CX3A.s:4708   .debug_loc:000000000000020e .LLST2
     /tmp/ccU8CX3A.s:188    .text:000000000000006c .LVL11
     /tmp/ccU8CX3A.s:147    .text:0000000000000048 .LVL6
     /tmp/ccU8CX3A.s:201    .text:000000000000007c .LVL12
     /tmp/ccU8CX3A.s:5015   .debug_str:00000000000001aa .LASF169
     /tmp/ccU8CX3A.s:5001   .debug_str:000000000000014c .LASF155
     /tmp/ccU8CX3A.s:5025   .debug_str:00000000000001ea .LASF156
     /tmp/ccU8CX3A.s:714    .text:00000000000002b8 .LFB50
     /tmp/ccU8CX3A.s:747    .text:00000000000002f0 .LFE50
     /tmp/ccU8CX3A.s:4715   .debug_loc:0000000000000231 .LLST16
     /tmp/ccU8CX3A.s:4735   .debug_loc:000000000000027f .LLST17
GAS LISTING /tmp/ccU8CX3A.s 			page 34


     /tmp/ccU8CX3A.s:735    .text:00000000000002e0 .LVL49
     /tmp/ccU8CX3A.s:5211   .debug_str:0000000000000760 .LASF157
     /tmp/ccU8CX3A.s:683    .text:0000000000000294 .LFB47
     /tmp/ccU8CX3A.s:706    .text:00000000000002b8 .LFE47
     /tmp/ccU8CX3A.s:658    .text:0000000000000278 .LFB45
     /tmp/ccU8CX3A.s:677    .text:0000000000000294 .LFE45
     /tmp/ccU8CX3A.s:635    .text:0000000000000260 .LFB44
     /tmp/ccU8CX3A.s:652    .text:0000000000000278 .LFE44
     /tmp/ccU8CX3A.s:611    .text:0000000000000248 .LFB43
     /tmp/ccU8CX3A.s:629    .text:0000000000000260 .LFE43
     /tmp/ccU8CX3A.s:575    .text:0000000000000218 .LFB42
     /tmp/ccU8CX3A.s:605    .text:0000000000000248 .LFE42
     /tmp/ccU8CX3A.s:4749   .debug_loc:00000000000002b8 .LLST15
     /tmp/ccU8CX3A.s:592    .text:0000000000000234 .LVL44
     /tmp/ccU8CX3A.s:5149   .debug_str:0000000000000589 .LASF158
     /tmp/ccU8CX3A.s:337    .text:0000000000000108 .LFB41
     /tmp/ccU8CX3A.s:361    .text:0000000000000130 .LFE41
     /tmp/ccU8CX3A.s:4763   .debug_loc:00000000000002f1 .LLST6
     /tmp/ccU8CX3A.s:351    .text:0000000000000120 .LVL20
     /tmp/ccU8CX3A.s:5325   .debug_str:0000000000000b2b .LASF159
     /tmp/ccU8CX3A.s:62     .text:0000000000000000 .LFB39
     /tmp/ccU8CX3A.s:81     .text:0000000000000018 .LFE39
     /tmp/ccU8CX3A.s:5279   .debug_str:00000000000009e6 .LASF160
     /tmp/ccU8CX3A.s:487    .text:0000000000000198 .LFB36
     /tmp/ccU8CX3A.s:567    .text:0000000000000218 .LFE36
     /tmp/ccU8CX3A.s:4777   .debug_loc:000000000000032a .LLST11
     /tmp/ccU8CX3A.s:4799   .debug_loc:0000000000000389 .LLST12
     /tmp/ccU8CX3A.s:4821   .debug_loc:00000000000003e8 .LLST13
     /tmp/ccU8CX3A.s:522    .text:00000000000001dc .LVL34
     /tmp/ccU8CX3A.s:531    .text:00000000000001f0 .LVL36
     /tmp/ccU8CX3A.s:4847   .debug_loc:000000000000045a .LLST14
     /tmp/ccU8CX3A.s:5341   .debug_str:0000000000000b93 .LASF161
     /tmp/ccU8CX3A.s:5125   .debug_str:00000000000004e7 .LASF162
     /tmp/ccU8CX3A.s:446    .text:0000000000000170 .LFB34
     /tmp/ccU8CX3A.s:474    .text:0000000000000198 .LFE34
     /tmp/ccU8CX3A.s:4864   .debug_loc:00000000000004a5 .LLST10
     /tmp/ccU8CX3A.s:463    .text:0000000000000188 .LVL30
     /tmp/ccU8CX3A.s:5173   .debug_str:0000000000000640 .LASF163
     /tmp/ccU8CX3A.s:296    .text:00000000000000e0 .LFB33
     /tmp/ccU8CX3A.s:324    .text:0000000000000108 .LFE33
     /tmp/ccU8CX3A.s:4878   .debug_loc:00000000000004de .LLST5
     /tmp/ccU8CX3A.s:313    .text:00000000000000f8 .LVL18
     /tmp/ccU8CX3A.s:5011   .debug_str:0000000000000189 .LASF164
     /tmp/ccU8CX3A.s:5257   .debug_str:00000000000008aa .LASF165
     /tmp/ccU8CX3A.s:264    .text:00000000000000b8 .LFB32
     /tmp/ccU8CX3A.s:290    .text:00000000000000e0 .LFE32
     /tmp/ccU8CX3A.s:5041   .debug_str:000000000000027f .LASF166
     /tmp/ccU8CX3A.s:4892   .debug_loc:0000000000000517 .LLST4
     /tmp/ccU8CX3A.s:279    .text:00000000000000d0 .LVL16
     /tmp/ccU8CX3A.s:5301   .debug_str:0000000000000a8e .LASF167
     /tmp/ccU8CX3A.s:232    .text:0000000000000090 .LFB31
     /tmp/ccU8CX3A.s:258    .text:00000000000000b8 .LFE31
     /tmp/ccU8CX3A.s:4906   .debug_loc:0000000000000550 .LLST3
     /tmp/ccU8CX3A.s:247    .text:00000000000000a8 .LVL14
     /tmp/ccU8CX3A.s:5215   .debug_str:0000000000000779 .LASF168
     /tmp/ccU8CX3A.s:5081   .debug_str:00000000000003a1 .LASF170
     /tmp/ccU8CX3A.s:37     .text._ZN14PeriodicThread18periodicActivationEv:0000000000000000 .LFB1
GAS LISTING /tmp/ccU8CX3A.s 			page 35


     /tmp/ccU8CX3A.s:55     .text._ZN14PeriodicThread18periodicActivationEv:0000000000000018 .LFE1
     /tmp/ccU8CX3A.s:11     .text._ZN6Thread3runEv:0000000000000000 .LFB0
     /tmp/ccU8CX3A.s:30     .text._ZN6Thread3runEv:0000000000000018 .LFE0
     /tmp/ccU8CX3A.s:5203   .debug_str:0000000000000718 .LASF171
     /tmp/ccU8CX3A.s:5095   .debug_str:0000000000000429 .LASF173
     /tmp/ccU8CX3A.s:5343   .debug_str:0000000000000ba6 .LASF172
     /tmp/ccU8CX3A.s:5347   .debug_str:0000000000000bc5 .LASF174
     /tmp/ccU8CX3A.s:5333   .debug_str:0000000000000b69 .LASF175
     /tmp/ccU8CX3A.s:5101   .debug_str:0000000000000446 .LASF176
     /tmp/ccU8CX3A.s:4997   .debug_str:0000000000000127 .LASF177
     /tmp/ccU8CX3A.s:5195   .debug_str:00000000000006ec .LASF178
     /tmp/ccU8CX3A.s:5191   .debug_str:00000000000006cd .LASF179
     /tmp/ccU8CX3A.s:4991   .debug_str:0000000000000103 .LASF180
     /tmp/ccU8CX3A.s:5093   .debug_str:000000000000041b .LASF181
     /tmp/ccU8CX3A.s:5159   .debug_str:00000000000005ca .LASF182
     /tmp/ccU8CX3A.s:371    .text._ZN14PeriodicThreadD0Ev:0000000000000000 .LVL21
     /tmp/ccU8CX3A.s:380    .text._ZN14PeriodicThreadD0Ev:0000000000000010 .LVL22
     /tmp/ccU8CX3A.s:386    .text._ZN14PeriodicThreadD0Ev:000000000000001c .LVL23
     /tmp/ccU8CX3A.s:850    .text:0000000000000360 .LVL57
     /tmp/ccU8CX3A.s:877    .text:0000000000000398 .LVL59
     /tmp/ccU8CX3A.s:792    .text:000000000000031c .LVL53
     /tmp/ccU8CX3A.s:804    .text:0000000000000330 .LVL54
     /tmp/ccU8CX3A.s:758    .text:00000000000002f0 .LVL50
     /tmp/ccU8CX3A.s:770    .text:0000000000000304 .LVL51
     /tmp/ccU8CX3A.s:410    .text:0000000000000130 .LVL25
     /tmp/ccU8CX3A.s:435    .text:0000000000000168 .LVL28
     /tmp/ccU8CX3A.s:126    .text:0000000000000018 .LVL4
     /tmp/ccU8CX3A.s:145    .text:0000000000000040 .LVL5
     /tmp/ccU8CX3A.s:151    .text:000000000000004c .LVL7
     /tmp/ccU8CX3A.s:173    .text:0000000000000058 .LVL9
     /tmp/ccU8CX3A.s:182    .text:0000000000000064 .LVL10
     /tmp/ccU8CX3A.s:717    .text:00000000000002b8 .LVL47
     /tmp/ccU8CX3A.s:733    .text:00000000000002d8 .LVL48
     /tmp/ccU8CX3A.s:578    .text:0000000000000218 .LVL42
     /tmp/ccU8CX3A.s:590    .text:000000000000022c .LVL43
     /tmp/ccU8CX3A.s:340    .text:0000000000000108 .LVL19
     /tmp/ccU8CX3A.s:490    .text:0000000000000198 .LVL31
     /tmp/ccU8CX3A.s:520    .text:00000000000001d4 .LVL33
     /tmp/ccU8CX3A.s:545    .text:0000000000000200 .LVL37
     /tmp/ccU8CX3A.s:555    .text:0000000000000210 .LVL40
     /tmp/ccU8CX3A.s:548    .text:0000000000000204 .LVL38
     /tmp/ccU8CX3A.s:551    .text:0000000000000208 .LVL39
     /tmp/ccU8CX3A.s:562    .text:0000000000000214 .LVL41
     /tmp/ccU8CX3A.s:514    .text:00000000000001cc .LVL32
     /tmp/ccU8CX3A.s:524    .text:00000000000001e0 .LVL35
     /tmp/ccU8CX3A.s:451    .text:0000000000000170 .LVL29
     /tmp/ccU8CX3A.s:301    .text:00000000000000e0 .LVL17
     /tmp/ccU8CX3A.s:267    .text:00000000000000b8 .LVL15
     /tmp/ccU8CX3A.s:235    .text:0000000000000090 .LVL13
     /tmp/ccU8CX3A.s:974    .debug_info:0000000000000000 .Ldebug_info0
     /tmp/ccU8CX3A.s:5      .text:0000000000000000 .Ltext0
     /tmp/ccU8CX3A.s:968    .text:00000000000003d4 .Letext0
     /tmp/ccU8CX3A.s:512    .text:00000000000001cc .LBB46
     /tmp/ccU8CX3A.s:534    .text:00000000000001f4 .LBE46
     /tmp/ccU8CX3A.s:559    .text:0000000000000210 .LBB47
     /tmp/ccU8CX3A.s:564    .text:0000000000000218 .LBE47
     /tmp/ccU8CX3A.s:219    .gcc_except_table:0000000000000000 .LLSDA56
GAS LISTING /tmp/ccU8CX3A.s 			page 36


     /tmp/ccU8CX3A.s:326    .gcc_except_table:0000000000000004 .LLSDA33
     /tmp/ccU8CX3A.s:476    .gcc_except_table:0000000000000008 .LLSDA34
                           .group:0000000000000000 _ZN14PeriodicThreadD5Ev

UNDEFINED SYMBOLS
_Z9sem_closeP4KSem
_Z8mem_freePv
_ZN4KSemdlEPv
__gxx_personality_v0
_Z9mem_allocm
_ZN3TCB12createThreadEPFvPvES0_Pm
_ZN3TCB5startEPS_
_Z8sem_openPP4KSemj
_Z8sem_waitP4KSem
_Z10sem_signalP4KSem
