GAS LISTING /tmp/ccKDvyKx.s 			page 1


   1              		.file	"syscall_cpp.cpp"
   2              		.option pic
   3              		.option norelax
   4              		.text
   5              	.Ltext0:
   6              		.section	.text._ZN6Thread3runEv,"axG",@progbits,_ZN6Thread3runEv,comdat
   7              		.align	2
   8              		.weak	_ZN6Thread3runEv
  10              	_ZN6Thread3runEv:
  11              	.LFB0:
  12              		.file 1 "src/../h/syscall_cpp.hpp"
   1:src/../h/syscall_cpp.hpp **** #ifndef _syscall_cpp
   2:src/../h/syscall_cpp.hpp **** #define _syscall_cpp
   3:src/../h/syscall_cpp.hpp **** 
   4:src/../h/syscall_cpp.hpp **** #include "../lib/hw.h"
   5:src/../h/syscall_cpp.hpp **** 
   6:src/../h/syscall_cpp.hpp **** void* operator new(size_t);
   7:src/../h/syscall_cpp.hpp **** 
   8:src/../h/syscall_cpp.hpp **** void* operator new[](size_t);
   9:src/../h/syscall_cpp.hpp **** 
  10:src/../h/syscall_cpp.hpp **** void operator delete(void*)
  11:src/../h/syscall_cpp.hpp **** 
  12:src/../h/syscall_cpp.hpp **** noexcept;
  13:src/../h/syscall_cpp.hpp **** 
  14:src/../h/syscall_cpp.hpp **** void operator delete[](void*)
  15:src/../h/syscall_cpp.hpp **** 
  16:src/../h/syscall_cpp.hpp **** noexcept;
  17:src/../h/syscall_cpp.hpp **** 
  18:src/../h/syscall_cpp.hpp **** class TCB;
  19:src/../h/syscall_cpp.hpp **** 
  20:src/../h/syscall_cpp.hpp **** typedef TCB* thread_t;
  21:src/../h/syscall_cpp.hpp **** 
  22:src/../h/syscall_cpp.hpp **** class KSem;
  23:src/../h/syscall_cpp.hpp **** 
  24:src/../h/syscall_cpp.hpp **** typedef KSem* sem_t;
  25:src/../h/syscall_cpp.hpp **** 
  26:src/../h/syscall_cpp.hpp **** class Thread {
  27:src/../h/syscall_cpp.hpp **** public:
  28:src/../h/syscall_cpp.hpp ****     //konstruktor koji pravi nit koja izvrsava zadatu funkciju sa zadatim argumentima, ne pokrece n
  29:src/../h/syscall_cpp.hpp ****     Thread(void (* body)(void*), void* arg);
  30:src/../h/syscall_cpp.hpp **** 
  31:src/../h/syscall_cpp.hpp ****     virtual ~Thread();
  32:src/../h/syscall_cpp.hpp **** 
  33:src/../h/syscall_cpp.hpp ****     //stavlja nit u Scheduler
  34:src/../h/syscall_cpp.hpp ****     int start();
  35:src/../h/syscall_cpp.hpp **** 
  36:src/../h/syscall_cpp.hpp ****     //pozivajuca (running) nit se suspenduje dok se nit ciji se metod poziva(this) ne zavrsi
  37:src/../h/syscall_cpp.hpp ****     void join();
  38:src/../h/syscall_cpp.hpp **** 
  39:src/../h/syscall_cpp.hpp ****     //sinhrona promena konteksta
  40:src/../h/syscall_cpp.hpp ****     static void dispatch();
  41:src/../h/syscall_cpp.hpp **** 
  42:src/../h/syscall_cpp.hpp ****     //uspavljuje tekucu nit na zadati period
  43:src/../h/syscall_cpp.hpp ****     static int sleep(time_t);
  44:src/../h/syscall_cpp.hpp **** 
  45:src/../h/syscall_cpp.hpp **** protected:
  46:src/../h/syscall_cpp.hpp ****     //konstruktor koji pravi nit koja izvrsava run metodu, ne stavlja je u Scheduler
GAS LISTING /tmp/ccKDvyKx.s 			page 2


  47:src/../h/syscall_cpp.hpp ****     Thread();
  48:src/../h/syscall_cpp.hpp **** 
  49:src/../h/syscall_cpp.hpp ****     //funkcija koju nit izvrsava, samo ako je nit napravljena podrazumevanim konstruktorom
  50:src/../h/syscall_cpp.hpp ****     virtual void run() {}
  13              		.loc 1 50 18
  14              		.cfi_startproc
  15              	.LVL0:
  16 0000 130101FF 		addi	sp,sp,-16
  17              		.cfi_def_cfa_offset 16
  18 0004 23348100 		sd	s0,8(sp)
  19              		.cfi_offset 8, -8
  20 0008 13040101 		addi	s0,sp,16
  21              		.cfi_def_cfa 8, 0
  22              		.loc 1 50 25 is_stmt 0
  23 000c 03348100 		ld	s0,8(sp)
  24              		.cfi_restore 8
  25              		.cfi_def_cfa 2, 16
  26 0010 13010101 		addi	sp,sp,16
  27              		.cfi_def_cfa_offset 0
  28 0014 67800000 		jr	ra
  29              		.cfi_endproc
  30              	.LFE0:
  32              		.section	.text._ZN14PeriodicThread18periodicActivationEv,"axG",@progbits,_ZN14PeriodicThread18peri
  33              		.align	2
  34              		.weak	_ZN14PeriodicThread18periodicActivationEv
  36              	_ZN14PeriodicThread18periodicActivationEv:
  37              	.LFB1:
  51:src/../h/syscall_cpp.hpp **** 
  52:src/../h/syscall_cpp.hpp **** private:
  53:src/../h/syscall_cpp.hpp ****     //pokazivac na TCB strukturu kernela
  54:src/../h/syscall_cpp.hpp ****     thread_t myHandle;
  55:src/../h/syscall_cpp.hpp **** 
  56:src/../h/syscall_cpp.hpp ****     void (* body)(void*);
  57:src/../h/syscall_cpp.hpp **** 
  58:src/../h/syscall_cpp.hpp ****     void* arg;
  59:src/../h/syscall_cpp.hpp **** 
  60:src/../h/syscall_cpp.hpp ****     static void wrapper(void* thread);
  61:src/../h/syscall_cpp.hpp **** };
  62:src/../h/syscall_cpp.hpp **** 
  63:src/../h/syscall_cpp.hpp **** 
  64:src/../h/syscall_cpp.hpp **** class Semaphore {
  65:src/../h/syscall_cpp.hpp **** public:
  66:src/../h/syscall_cpp.hpp **** 
  67:src/../h/syscall_cpp.hpp ****     Semaphore(unsigned init = 1);
  68:src/../h/syscall_cpp.hpp **** 
  69:src/../h/syscall_cpp.hpp ****     virtual ~Semaphore();
  70:src/../h/syscall_cpp.hpp **** 
  71:src/../h/syscall_cpp.hpp ****     int wait();
  72:src/../h/syscall_cpp.hpp **** 
  73:src/../h/syscall_cpp.hpp ****     int signal();
  74:src/../h/syscall_cpp.hpp **** 
  75:src/../h/syscall_cpp.hpp **** private:
  76:src/../h/syscall_cpp.hpp ****     sem_t myHandle;
  77:src/../h/syscall_cpp.hpp **** 
  78:src/../h/syscall_cpp.hpp **** };
  79:src/../h/syscall_cpp.hpp **** 
  80:src/../h/syscall_cpp.hpp **** 
GAS LISTING /tmp/ccKDvyKx.s 			page 3


  81:src/../h/syscall_cpp.hpp **** class PeriodicThread : public Thread {
  82:src/../h/syscall_cpp.hpp **** public:
  83:src/../h/syscall_cpp.hpp ****     void terminate();
  84:src/../h/syscall_cpp.hpp **** 
  85:src/../h/syscall_cpp.hpp **** protected:
  86:src/../h/syscall_cpp.hpp ****     PeriodicThread(time_t period);
  87:src/../h/syscall_cpp.hpp **** 
  88:src/../h/syscall_cpp.hpp ****     virtual void periodicActivation() {}
  38              		.loc 1 88 18 is_stmt 1
  39              		.cfi_startproc
  40              	.LVL1:
  41 0000 130101FF 		addi	sp,sp,-16
  42              		.cfi_def_cfa_offset 16
  43 0004 23348100 		sd	s0,8(sp)
  44              		.cfi_offset 8, -8
  45 0008 13040101 		addi	s0,sp,16
  46              		.cfi_def_cfa 8, 0
  47              		.loc 1 88 40 is_stmt 0
  48 000c 03348100 		ld	s0,8(sp)
  49              		.cfi_restore 8
  50              		.cfi_def_cfa 2, 16
  51 0010 13010101 		addi	sp,sp,16
  52              		.cfi_def_cfa_offset 0
  53 0014 67800000 		jr	ra
  54              		.cfi_endproc
  55              	.LFE1:
  57              		.text
  58              		.align	2
  59              		.globl	_ZN6Thread7wrapperEPv
  61              	_ZN6Thread7wrapperEPv:
  62              	.LFB55:
  63              		.file 2 "src/syscall_cpp.cpp"
   1:src/syscall_cpp.cpp **** //
   2:src/syscall_cpp.cpp **** // Created by os on 5/29/23.
   3:src/syscall_cpp.cpp **** //
   4:src/syscall_cpp.cpp **** #include "../h/syscall_cpp.hpp"
   5:src/syscall_cpp.cpp **** #include "../h/syscall_c.hpp"
   6:src/syscall_cpp.cpp **** #include "../h/TCB.hpp"
   7:src/syscall_cpp.cpp **** #include "../h/KSem.hpp"
   8:src/syscall_cpp.cpp **** #include "../h/Scheduler.hpp"
   9:src/syscall_cpp.cpp **** 
  10:src/syscall_cpp.cpp **** //override globalnog new
  11:src/syscall_cpp.cpp **** void* operator new(size_t size) {
  12:src/syscall_cpp.cpp ****     return mem_alloc(size);
  13:src/syscall_cpp.cpp **** }
  14:src/syscall_cpp.cpp **** 
  15:src/syscall_cpp.cpp **** void* operator new[](size_t size) {
  16:src/syscall_cpp.cpp ****     return mem_alloc(size);
  17:src/syscall_cpp.cpp **** }
  18:src/syscall_cpp.cpp **** 
  19:src/syscall_cpp.cpp **** void operator delete(void* ptr)
  20:src/syscall_cpp.cpp **** 
  21:src/syscall_cpp.cpp **** noexcept {
  22:src/syscall_cpp.cpp **** mem_free(ptr);
  23:src/syscall_cpp.cpp **** }
  24:src/syscall_cpp.cpp **** 
  25:src/syscall_cpp.cpp **** void operator delete[](void* ptr)
GAS LISTING /tmp/ccKDvyKx.s 			page 4


  26:src/syscall_cpp.cpp **** 
  27:src/syscall_cpp.cpp **** noexcept {
  28:src/syscall_cpp.cpp **** mem_free(ptr);
  29:src/syscall_cpp.cpp **** }
  30:src/syscall_cpp.cpp **** 
  31:src/syscall_cpp.cpp **** Thread::Thread(void (* body)(void*), void* arg) {
  32:src/syscall_cpp.cpp ****     this->body = body;
  33:src/syscall_cpp.cpp ****     this->arg = arg;
  34:src/syscall_cpp.cpp ****     //stvaranje steka ako se ne radi o main kernel niti, posto ona automatski ima stek
  35:src/syscall_cpp.cpp ****     uint64* stack = nullptr;
  36:src/syscall_cpp.cpp ****     if (body != nullptr) {
  37:src/syscall_cpp.cpp ****         stack = (uint64*)mem_alloc(DEFAULT_STACK_SIZE);
  38:src/syscall_cpp.cpp ****     }
  39:src/syscall_cpp.cpp ****     //stavljanje argumenata za sistemski poziv
  40:src/syscall_cpp.cpp ****     __asm__ volatile("mv a4, %[sp]": :[sp] "r"(stack):"a5", "a0", "a1", "a2", "a3", "a4", "a6", "a7
  41:src/syscall_cpp.cpp ****     __asm__ volatile("mv a3, %[arg]": :[arg] "r"(arg):"a5", "a0", "a1", "a2", "a3", "a4", "a6", "a7
  42:src/syscall_cpp.cpp ****     __asm__ volatile("mv a2, %[function]": :[function] "r"(
  43:src/syscall_cpp.cpp ****             body):"a5", "a0", "a1", "a2", "a3", "a4", "a6", "a7");
  44:src/syscall_cpp.cpp ****     __asm__ volatile("mv a1, %[handle]": :[handle] "r"(&myHandle):"a5", "a0", "a1", "a2", "a3", "a4
  45:src/syscall_cpp.cpp ****     __asm__ volatile("li a0, 0x80");
  46:src/syscall_cpp.cpp ****     //a0 = 0x80
  47:src/syscall_cpp.cpp ****     //a1 = adresa pokazivaca na rucku niti
  48:src/syscall_cpp.cpp ****     //a2 = prva adresa funkcije koju nit izvrsava
  49:src/syscall_cpp.cpp ****     //a3 = pokazivac na argumente funkcije
  50:src/syscall_cpp.cpp ****     //a4 = pokazivac na najnizu adresu steka (stek raste ka nizim adresama, pokazuje na poslednju z
  51:src/syscall_cpp.cpp **** 
  52:src/syscall_cpp.cpp ****     __asm__ volatile("ecall");
  53:src/syscall_cpp.cpp **** }
  54:src/syscall_cpp.cpp **** 
  55:src/syscall_cpp.cpp **** Thread::~Thread() {
  56:src/syscall_cpp.cpp ****     //ne treba da se gasi running nit, vec nit na koju pokazuje rucka od this
  57:src/syscall_cpp.cpp ****     thread_join(this->myHandle);
  58:src/syscall_cpp.cpp ****     delete myHandle;
  59:src/syscall_cpp.cpp **** }
  60:src/syscall_cpp.cpp **** 
  61:src/syscall_cpp.cpp **** int Thread::start() {
  62:src/syscall_cpp.cpp ****     if (myHandle == nullptr) return -1;
  63:src/syscall_cpp.cpp ****     __asm__ volatile("mv a1, %[handle]": :[handle] "r"(myHandle):"a5", "a0", "a1", "a2", "a3", "a4"
  64:src/syscall_cpp.cpp ****     __asm__ volatile("li a0, 0x81");
  65:src/syscall_cpp.cpp **** 
  66:src/syscall_cpp.cpp ****     __asm__ volatile("ecall");
  67:src/syscall_cpp.cpp **** 
  68:src/syscall_cpp.cpp ****     return 0;
  69:src/syscall_cpp.cpp **** }
  70:src/syscall_cpp.cpp **** 
  71:src/syscall_cpp.cpp **** void Thread::join() {
  72:src/syscall_cpp.cpp ****     thread_join(myHandle);
  73:src/syscall_cpp.cpp **** }
  74:src/syscall_cpp.cpp **** 
  75:src/syscall_cpp.cpp **** void Thread::dispatch() {
  76:src/syscall_cpp.cpp ****     thread_dispatch();
  77:src/syscall_cpp.cpp **** }
  78:src/syscall_cpp.cpp **** 
  79:src/syscall_cpp.cpp **** int Thread::sleep(time_t t) {
  80:src/syscall_cpp.cpp ****     time_sleep(t);
  81:src/syscall_cpp.cpp ****     return 0;
  82:src/syscall_cpp.cpp **** }
GAS LISTING /tmp/ccKDvyKx.s 			page 5


  83:src/syscall_cpp.cpp **** 
  84:src/syscall_cpp.cpp **** Thread::Thread() {
  85:src/syscall_cpp.cpp ****     this->body = wrapper;
  86:src/syscall_cpp.cpp ****     this->arg = this;
  87:src/syscall_cpp.cpp ****     //stvaranje steka ako se ne radi o main kernel niti, posto ona automatski ima stek
  88:src/syscall_cpp.cpp ****     uint64* stack = nullptr;
  89:src/syscall_cpp.cpp ****     if (body != nullptr) {
  90:src/syscall_cpp.cpp ****         stack = (uint64*)mem_alloc(DEFAULT_STACK_SIZE);
  91:src/syscall_cpp.cpp ****     }
  92:src/syscall_cpp.cpp ****     //stavljanje argumenata za sistemski poziv
  93:src/syscall_cpp.cpp ****     __asm__ volatile("mv a4, %[sp]": :[sp] "r"(stack):"a5", "a0", "a1", "a2", "a3", "a4", "a6", "a7
  94:src/syscall_cpp.cpp ****     __asm__ volatile("mv a3, %[arg]": :[arg] "r"(arg):"a5", "a0", "a1", "a2", "a3", "a4", "a6", "a7
  95:src/syscall_cpp.cpp ****     __asm__ volatile("mv a2, %[function]": :[function] "r"(
  96:src/syscall_cpp.cpp ****             body):"a5", "a0", "a1", "a2", "a3", "a4", "a6", "a7");
  97:src/syscall_cpp.cpp ****     __asm__ volatile("mv a1, %[handle]": :[handle] "r"(&myHandle):"a5", "a0", "a1", "a2", "a3", "a4
  98:src/syscall_cpp.cpp ****     __asm__ volatile("li a0, 0x80");
  99:src/syscall_cpp.cpp ****     //a0 = 0x80
 100:src/syscall_cpp.cpp ****     //a1 = adresa pokazivaca na rucku niti
 101:src/syscall_cpp.cpp ****     //a2 = prva adresa funkcije koju nit izvrsava
 102:src/syscall_cpp.cpp ****     //a3 = pokazivac na argumente funkcije
 103:src/syscall_cpp.cpp ****     //a4 = pokazivac na najnizu adresu steka (stek raste ka nizim adresama, pokazuje na poslednju z
 104:src/syscall_cpp.cpp **** 
 105:src/syscall_cpp.cpp ****     __asm__ volatile("ecall");
 106:src/syscall_cpp.cpp **** }
 107:src/syscall_cpp.cpp **** 
 108:src/syscall_cpp.cpp **** void Thread::wrapper(void* thread) {
  64              		.loc 2 108 36 is_stmt 1
  65              		.cfi_startproc
  66              	.LVL2:
 109:src/syscall_cpp.cpp ****     if (thread != nullptr) {
  67              		.loc 2 109 5
  68 0000 63080502 		beqz	a0,.L8
 108:src/syscall_cpp.cpp ****     if (thread != nullptr) {
  69              		.loc 2 108 36 is_stmt 0
  70 0004 130101FF 		addi	sp,sp,-16
  71              		.cfi_def_cfa_offset 16
  72 0008 23341100 		sd	ra,8(sp)
  73 000c 23308100 		sd	s0,0(sp)
  74              		.cfi_offset 1, -8
  75              		.cfi_offset 8, -16
  76 0010 13040101 		addi	s0,sp,16
  77              		.cfi_def_cfa 8, 0
 110:src/syscall_cpp.cpp ****         ((Thread*)thread)->run();
  78              		.loc 2 110 9 is_stmt 1
  79              		.loc 2 110 32 is_stmt 0
  80 0014 83370500 		ld	a5,0(a0)
  81 0018 83B70701 		ld	a5,16(a5)
  82              		.loc 2 110 31
  83 001c E7800700 		jalr	a5
  84              	.LVL3:
 111:src/syscall_cpp.cpp ****     }
 112:src/syscall_cpp.cpp **** }
  85              		.loc 2 112 1
  86 0020 83308100 		ld	ra,8(sp)
  87              		.cfi_restore 1
  88 0024 03340100 		ld	s0,0(sp)
  89              		.cfi_restore 8
GAS LISTING /tmp/ccKDvyKx.s 			page 6


  90              		.cfi_def_cfa 2, 16
  91 0028 13010101 		addi	sp,sp,16
  92              		.cfi_def_cfa_offset 0
  93 002c 67800000 		jr	ra
  94              	.LVL4:
  95              	.L8:
  96 0030 67800000 		ret
  97              		.cfi_endproc
  98              	.LFE55:
 100              		.align	2
 101              		.globl	_ZN6ThreadD2Ev
 103              	_ZN6ThreadD2Ev:
 104              	.LFB45:
  55:src/syscall_cpp.cpp ****     //ne treba da se gasi running nit, vec nit na koju pokazuje rucka od this
 105              		.loc 2 55 1 is_stmt 1
 106              		.cfi_startproc
 107              		.cfi_personality 0x9b,DW.ref.__gxx_personality_v0
 108              		.cfi_lsda 0x1b,.LLSDA45
 109              	.LVL5:
 110 0034 130101FE 		addi	sp,sp,-32
 111              		.cfi_def_cfa_offset 32
 112 0038 233C1100 		sd	ra,24(sp)
 113 003c 23388100 		sd	s0,16(sp)
 114 0040 23349100 		sd	s1,8(sp)
 115              		.cfi_offset 1, -8
 116              		.cfi_offset 8, -16
 117              		.cfi_offset 9, -24
 118 0044 13040102 		addi	s0,sp,32
 119              		.cfi_def_cfa 8, 0
 120 0048 93040500 		mv	s1,a0
 121              	.LBB54:
  55:src/syscall_cpp.cpp ****     //ne treba da se gasi running nit, vec nit na koju pokazuje rucka od this
 122              		.loc 2 55 17 is_stmt 0
 123 004c 97070000 		lla	a5,_ZTV6Thread+16
 123      93870700 
 124 0054 2330F500 		sd	a5,0(a0)
  57:src/syscall_cpp.cpp ****     delete myHandle;
 125              		.loc 2 57 5 is_stmt 1
  57:src/syscall_cpp.cpp ****     delete myHandle;
 126              		.loc 2 57 16 is_stmt 0
 127 0058 03358500 		ld	a0,8(a0)
 128              	.LVL6:
 129 005c 97000000 		call	_Z11thread_joinP3TCB@plt
 129      E7800000 
 130              	.LVL7:
  58:src/syscall_cpp.cpp **** }
 131              		.loc 2 58 5 is_stmt 1
  58:src/syscall_cpp.cpp **** }
 132              		.loc 2 58 12 is_stmt 0
 133 0064 83B48400 		ld	s1,8(s1)
 134              	.LVL8:
  58:src/syscall_cpp.cpp **** }
 135              		.loc 2 58 20
 136 0068 63880402 		beqz	s1,.L11
 137              	.L14:
 138              	.LBB55:
 139              	.LBB56:
GAS LISTING /tmp/ccKDvyKx.s 			page 7


 140              	.LBB57:
 141              		.file 3 "src/../h/../h/ThreadQueue.hpp"
   1:src/../h/../h/ThreadQueue.hpp **** //
   2:src/../h/../h/ThreadQueue.hpp **** // Created by os on 6/4/23.
   3:src/../h/../h/ThreadQueue.hpp **** //
   4:src/../h/../h/ThreadQueue.hpp **** 
   5:src/../h/../h/ThreadQueue.hpp **** #ifndef PROJEKAT2023_THREADQUEUE_HPP
   6:src/../h/../h/ThreadQueue.hpp **** #define PROJEKAT2023_THREADQUEUE_HPP
   7:src/../h/../h/ThreadQueue.hpp **** 
   8:src/../h/../h/ThreadQueue.hpp **** #include "../h/syscall_c.hpp"
   9:src/../h/../h/ThreadQueue.hpp **** 
  10:src/../h/../h/ThreadQueue.hpp **** class TCB;
  11:src/../h/../h/ThreadQueue.hpp **** 
  12:src/../h/../h/ThreadQueue.hpp **** class ThreadQueue {
  13:src/../h/../h/ThreadQueue.hpp **** private:
  14:src/../h/../h/ThreadQueue.hpp ****     struct Node {
  15:src/../h/../h/ThreadQueue.hpp ****         TCB* data;
  16:src/../h/../h/ThreadQueue.hpp ****         Node* next;
  17:src/../h/../h/ThreadQueue.hpp **** 
  18:src/../h/../h/ThreadQueue.hpp ****         Node(TCB* d) : data(d), next(nullptr) {}
  19:src/../h/../h/ThreadQueue.hpp **** 
  20:src/../h/../h/ThreadQueue.hpp ****         static void* operator new(size_t size) {
  21:src/../h/../h/ThreadQueue.hpp ****             return mem_alloc(size);
  22:src/../h/../h/ThreadQueue.hpp ****         }
  23:src/../h/../h/ThreadQueue.hpp **** 
  24:src/../h/../h/ThreadQueue.hpp ****         static void operator delete(void* ptr) {
  25:src/../h/../h/ThreadQueue.hpp ****             mem_free(ptr);
  26:src/../h/../h/ThreadQueue.hpp ****         }
  27:src/../h/../h/ThreadQueue.hpp ****     };
  28:src/../h/../h/ThreadQueue.hpp **** 
  29:src/../h/../h/ThreadQueue.hpp ****     Node* front;
  30:src/../h/../h/ThreadQueue.hpp ****     Node* back;
  31:src/../h/../h/ThreadQueue.hpp **** 
  32:src/../h/../h/ThreadQueue.hpp **** public:
  33:src/../h/../h/ThreadQueue.hpp ****     ThreadQueue() : front(nullptr), back(nullptr) {}
  34:src/../h/../h/ThreadQueue.hpp **** 
  35:src/../h/../h/ThreadQueue.hpp ****     ThreadQueue(const ThreadQueue &) = delete;
  36:src/../h/../h/ThreadQueue.hpp **** 
  37:src/../h/../h/ThreadQueue.hpp ****     ThreadQueue &operator=(const ThreadQueue &) = delete;
  38:src/../h/../h/ThreadQueue.hpp **** 
  39:src/../h/../h/ThreadQueue.hpp ****     ~ThreadQueue() {
  40:src/../h/../h/ThreadQueue.hpp ****         while (!isEmpty()) {
 142              		.loc 3 40 9 is_stmt 1
 143              		.loc 3 40 16
 144              	.LVL9:
 145              	.LBB58:
 146              	.LBB59:
  41:src/../h/../h/ThreadQueue.hpp ****             Node* node = front;
  42:src/../h/../h/ThreadQueue.hpp ****             front = front->next;
  43:src/../h/../h/ThreadQueue.hpp ****             delete node;
  44:src/../h/../h/ThreadQueue.hpp ****         }
  45:src/../h/../h/ThreadQueue.hpp ****     }
  46:src/../h/../h/ThreadQueue.hpp **** 
  47:src/../h/../h/ThreadQueue.hpp ****     bool isEmpty() const {
  48:src/../h/../h/ThreadQueue.hpp ****         return front == nullptr;
 147              		.loc 3 48 9
 148              		.loc 3 48 16 is_stmt 0
GAS LISTING /tmp/ccKDvyKx.s 			page 8


 149 006c 03B58404 		ld	a0,72(s1)
 150              	.LBE59:
 151              	.LBE58:
  40:src/../h/../h/ThreadQueue.hpp ****             Node* node = front;
 152              		.loc 3 40 16
 153 0070 630E0500 		beqz	a0,.L13
 154              	.LBB60:
  41:src/../h/../h/ThreadQueue.hpp ****             Node* node = front;
 155              		.loc 3 41 13 is_stmt 1
 156              	.LVL10:
  42:src/../h/../h/ThreadQueue.hpp ****             delete node;
 157              		.loc 3 42 13
  42:src/../h/../h/ThreadQueue.hpp ****             delete node;
 158              		.loc 3 42 28 is_stmt 0
 159 0074 83378500 		ld	a5,8(a0)
  42:src/../h/../h/ThreadQueue.hpp ****             delete node;
 160              		.loc 3 42 19
 161 0078 23B4F404 		sd	a5,72(s1)
  43:src/../h/../h/ThreadQueue.hpp ****         }
 162              		.loc 3 43 13 is_stmt 1
  43:src/../h/../h/ThreadQueue.hpp ****         }
 163              		.loc 3 43 24 is_stmt 0
 164 007c E30805FE 		beqz	a0,.L14
 165              	.LVL11:
 166              	.LBB61:
 167              	.LBB62:
  25:src/../h/../h/ThreadQueue.hpp ****         }
 168              		.loc 3 25 13 is_stmt 1
  25:src/../h/../h/ThreadQueue.hpp ****         }
 169              		.loc 3 25 21 is_stmt 0
 170 0080 97000000 		call	_Z8mem_freePv@plt
 170      E7800000 
 171              	.LVL12:
  26:src/../h/../h/ThreadQueue.hpp ****     };
 172              		.loc 3 26 9
 173 0088 6FF05FFE 		j	.L14
 174              	.L13:
 175              	.LBE62:
 176              	.LBE61:
 177              	.LBE60:
 178              	.LBE57:
 179              	.LBE56:
 180              	.LBE55:
  58:src/syscall_cpp.cpp **** }
 181              		.loc 2 58 12
 182 008c 13850400 		mv	a0,s1
 183 0090 97000000 		call	_ZN3TCBdlEPv@plt
 183      E7800000 
 184              	.LVL13:
 185              	.L11:
 186              	.LBE54:
  59:src/syscall_cpp.cpp **** 
 187              		.loc 2 59 1
 188 0098 83308101 		ld	ra,24(sp)
 189              		.cfi_restore 1
 190 009c 03340101 		ld	s0,16(sp)
 191              		.cfi_restore 8
GAS LISTING /tmp/ccKDvyKx.s 			page 9


 192              		.cfi_def_cfa 2, 32
 193 00a0 83348100 		ld	s1,8(sp)
 194              		.cfi_restore 9
 195 00a4 13010102 		addi	sp,sp,32
 196              		.cfi_def_cfa_offset 0
 197 00a8 67800000 		jr	ra
 198              		.cfi_endproc
 199              	.LFE45:
 200              		.globl	__gxx_personality_v0
 201              		.section	.gcc_except_table,"a",@progbits
 202              	.LLSDA45:
 203 0000 FF       		.byte	0xff
 204 0001 FF       		.byte	0xff
 205 0002 03       		.byte	0x3
 206 0003 00       		.byte	0
 207              		.text
 209              		.globl	_ZN6ThreadD1Ev
 210              		.set	_ZN6ThreadD1Ev,_ZN6ThreadD2Ev
 211              		.section	.text._ZN14PeriodicThreadD2Ev,"axG",@progbits,_ZN14PeriodicThreadD5Ev,comdat
 212              		.align	2
 213              		.weak	_ZN14PeriodicThreadD2Ev
 215              	_ZN14PeriodicThreadD2Ev:
 216              	.LFB76:
  81:src/../h/syscall_cpp.hpp **** public:
 217              		.loc 1 81 7 is_stmt 1
 218              		.cfi_startproc
 219              	.LVL14:
 220 0000 130101FF 		addi	sp,sp,-16
 221              		.cfi_def_cfa_offset 16
 222 0004 23341100 		sd	ra,8(sp)
 223 0008 23308100 		sd	s0,0(sp)
 224              		.cfi_offset 1, -8
 225              		.cfi_offset 8, -16
 226 000c 13040101 		addi	s0,sp,16
 227              		.cfi_def_cfa 8, 0
 228              	.LBB63:
  81:src/../h/syscall_cpp.hpp **** public:
 229              		.loc 1 81 7 is_stmt 0
 230 0010 97070000 		lla	a5,_ZTV14PeriodicThread+16
 230      93870700 
 231 0018 2330F500 		sd	a5,0(a0)
 232 001c 97000000 		call	_ZN6ThreadD2Ev
 232      E7800000 
 233              	.LVL15:
 234              	.LBE63:
 235 0024 83308100 		ld	ra,8(sp)
 236              		.cfi_restore 1
 237 0028 03340100 		ld	s0,0(sp)
 238              		.cfi_restore 8
 239              		.cfi_def_cfa 2, 16
 240 002c 13010101 		addi	sp,sp,16
 241              		.cfi_def_cfa_offset 0
 242 0030 67800000 		jr	ra
 243              		.cfi_endproc
 244              	.LFE76:
 246              		.weak	_ZN14PeriodicThreadD1Ev
 247              		.set	_ZN14PeriodicThreadD1Ev,_ZN14PeriodicThreadD2Ev
GAS LISTING /tmp/ccKDvyKx.s 			page 10


 248              		.text
 249              		.align	2
 250              		.globl	_ZN9SemaphoreD2Ev
 252              	_ZN9SemaphoreD2Ev:
 253              	.LFB63:
 113:src/syscall_cpp.cpp **** 
 114:src/syscall_cpp.cpp **** Semaphore::Semaphore(unsigned int init) {
 115:src/syscall_cpp.cpp ****     sem_open(&myHandle, init);
 116:src/syscall_cpp.cpp **** }
 117:src/syscall_cpp.cpp **** 
 118:src/syscall_cpp.cpp **** Semaphore::~Semaphore() {
 254              		.loc 2 118 1 is_stmt 1
 255              		.cfi_startproc
 256              		.cfi_personality 0x9b,DW.ref.__gxx_personality_v0
 257              		.cfi_lsda 0x1b,.LLSDA63
 258              	.LVL16:
 259 00ac 130101FE 		addi	sp,sp,-32
 260              		.cfi_def_cfa_offset 32
 261 00b0 233C1100 		sd	ra,24(sp)
 262 00b4 23388100 		sd	s0,16(sp)
 263 00b8 23349100 		sd	s1,8(sp)
 264              		.cfi_offset 1, -8
 265              		.cfi_offset 8, -16
 266              		.cfi_offset 9, -24
 267 00bc 13040102 		addi	s0,sp,32
 268              		.cfi_def_cfa 8, 0
 269 00c0 93040500 		mv	s1,a0
 270              	.LBB64:
 271              		.loc 2 118 23 is_stmt 0
 272 00c4 97070000 		lla	a5,_ZTV9Semaphore+16
 272      93870700 
 273 00cc 2330F500 		sd	a5,0(a0)
 119:src/syscall_cpp.cpp ****     sem_close(myHandle);
 274              		.loc 2 119 5 is_stmt 1
 275              		.loc 2 119 14 is_stmt 0
 276 00d0 03358500 		ld	a0,8(a0)
 277              	.LVL17:
 278 00d4 97000000 		call	_Z9sem_closeP4KSem@plt
 278      E7800000 
 279              	.LVL18:
 120:src/syscall_cpp.cpp ****     delete myHandle;
 280              		.loc 2 120 5 is_stmt 1
 281              		.loc 2 120 12 is_stmt 0
 282 00dc 83B48400 		ld	s1,8(s1)
 283              	.LVL19:
 284              		.loc 2 120 20
 285 00e0 63880402 		beqz	s1,.L19
 286              	.L22:
 287              	.LBB65:
 288              	.LBB66:
 289              	.LBB67:
  40:src/../h/../h/ThreadQueue.hpp ****             Node* node = front;
 290              		.loc 3 40 9 is_stmt 1
  40:src/../h/../h/ThreadQueue.hpp ****             Node* node = front;
 291              		.loc 3 40 16
 292              	.LVL20:
 293              	.LBB68:
GAS LISTING /tmp/ccKDvyKx.s 			page 11


 294              	.LBB69:
 295              		.loc 3 48 9
 296              		.loc 3 48 16 is_stmt 0
 297 00e4 03B58400 		ld	a0,8(s1)
 298              	.LBE69:
 299              	.LBE68:
  40:src/../h/../h/ThreadQueue.hpp ****             Node* node = front;
 300              		.loc 3 40 16
 301 00e8 630E0500 		beqz	a0,.L21
 302              	.LBB70:
  41:src/../h/../h/ThreadQueue.hpp ****             front = front->next;
 303              		.loc 3 41 13 is_stmt 1
 304              	.LVL21:
  42:src/../h/../h/ThreadQueue.hpp ****             delete node;
 305              		.loc 3 42 13
  42:src/../h/../h/ThreadQueue.hpp ****             delete node;
 306              		.loc 3 42 28 is_stmt 0
 307 00ec 83378500 		ld	a5,8(a0)
  42:src/../h/../h/ThreadQueue.hpp ****             delete node;
 308              		.loc 3 42 19
 309 00f0 23B4F400 		sd	a5,8(s1)
  43:src/../h/../h/ThreadQueue.hpp ****         }
 310              		.loc 3 43 13 is_stmt 1
  43:src/../h/../h/ThreadQueue.hpp ****         }
 311              		.loc 3 43 24 is_stmt 0
 312 00f4 E30805FE 		beqz	a0,.L22
 313              	.LVL22:
 314              	.LBB71:
 315              	.LBB72:
  25:src/../h/../h/ThreadQueue.hpp ****         }
 316              		.loc 3 25 13 is_stmt 1
  25:src/../h/../h/ThreadQueue.hpp ****         }
 317              		.loc 3 25 21 is_stmt 0
 318 00f8 97000000 		call	_Z8mem_freePv@plt
 318      E7800000 
 319              	.LVL23:
  26:src/../h/../h/ThreadQueue.hpp ****     };
 320              		.loc 3 26 9
 321 0100 6FF05FFE 		j	.L22
 322              	.L21:
 323              	.LBE72:
 324              	.LBE71:
 325              	.LBE70:
 326              	.LBE67:
 327              	.LBE66:
 328              	.LBE65:
 329              		.loc 2 120 12
 330 0104 13850400 		mv	a0,s1
 331 0108 97000000 		call	_ZN4KSemdlEPv@plt
 331      E7800000 
 332              	.LVL24:
 333              	.L19:
 334              	.LBE64:
 121:src/syscall_cpp.cpp **** }
 335              		.loc 2 121 1
 336 0110 83308101 		ld	ra,24(sp)
 337              		.cfi_restore 1
GAS LISTING /tmp/ccKDvyKx.s 			page 12


 338 0114 03340101 		ld	s0,16(sp)
 339              		.cfi_restore 8
 340              		.cfi_def_cfa 2, 32
 341 0118 83348100 		ld	s1,8(sp)
 342              		.cfi_restore 9
 343 011c 13010102 		addi	sp,sp,32
 344              		.cfi_def_cfa_offset 0
 345 0120 67800000 		jr	ra
 346              		.cfi_endproc
 347              	.LFE63:
 348              		.section	.gcc_except_table
 349              	.LLSDA63:
 350 0004 FF       		.byte	0xff
 351 0005 FF       		.byte	0xff
 352 0006 03       		.byte	0x3
 353 0007 00       		.byte	0
 354              		.text
 356              		.globl	_ZN9SemaphoreD1Ev
 357              		.set	_ZN9SemaphoreD1Ev,_ZN9SemaphoreD2Ev
 358              		.align	2
 359              		.globl	_Znwm
 361              	_Znwm:
 362              	.LFB34:
  11:src/syscall_cpp.cpp ****     return mem_alloc(size);
 363              		.loc 2 11 33 is_stmt 1
 364              		.cfi_startproc
 365              	.LVL25:
 366 0124 130101FF 		addi	sp,sp,-16
 367              		.cfi_def_cfa_offset 16
 368 0128 23341100 		sd	ra,8(sp)
 369 012c 23308100 		sd	s0,0(sp)
 370              		.cfi_offset 1, -8
 371              		.cfi_offset 8, -16
 372 0130 13040101 		addi	s0,sp,16
 373              		.cfi_def_cfa 8, 0
  12:src/syscall_cpp.cpp **** }
 374              		.loc 2 12 5
  12:src/syscall_cpp.cpp **** }
 375              		.loc 2 12 21 is_stmt 0
 376 0134 97000000 		call	_Z9mem_allocm@plt
 376      E7800000 
 377              	.LVL26:
  13:src/syscall_cpp.cpp **** 
 378              		.loc 2 13 1
 379 013c 83308100 		ld	ra,8(sp)
 380              		.cfi_restore 1
 381 0140 03340100 		ld	s0,0(sp)
 382              		.cfi_restore 8
 383              		.cfi_def_cfa 2, 16
 384 0144 13010101 		addi	sp,sp,16
 385              		.cfi_def_cfa_offset 0
 386 0148 67800000 		jr	ra
 387              		.cfi_endproc
 388              	.LFE34:
 390              		.align	2
 391              		.globl	_Znam
 393              	_Znam:
GAS LISTING /tmp/ccKDvyKx.s 			page 13


 394              	.LFB35:
  15:src/syscall_cpp.cpp ****     return mem_alloc(size);
 395              		.loc 2 15 35 is_stmt 1
 396              		.cfi_startproc
 397              	.LVL27:
 398 014c 130101FF 		addi	sp,sp,-16
 399              		.cfi_def_cfa_offset 16
 400 0150 23341100 		sd	ra,8(sp)
 401 0154 23308100 		sd	s0,0(sp)
 402              		.cfi_offset 1, -8
 403              		.cfi_offset 8, -16
 404 0158 13040101 		addi	s0,sp,16
 405              		.cfi_def_cfa 8, 0
  16:src/syscall_cpp.cpp **** }
 406              		.loc 2 16 5
  16:src/syscall_cpp.cpp **** }
 407              		.loc 2 16 21 is_stmt 0
 408 015c 97000000 		call	_Z9mem_allocm@plt
 408      E7800000 
 409              	.LVL28:
  17:src/syscall_cpp.cpp **** 
 410              		.loc 2 17 1
 411 0164 83308100 		ld	ra,8(sp)
 412              		.cfi_restore 1
 413 0168 03340100 		ld	s0,0(sp)
 414              		.cfi_restore 8
 415              		.cfi_def_cfa 2, 16
 416 016c 13010101 		addi	sp,sp,16
 417              		.cfi_def_cfa_offset 0
 418 0170 67800000 		jr	ra
 419              		.cfi_endproc
 420              	.LFE35:
 422              		.align	2
 423              		.globl	_ZdlPv
 425              	_ZdlPv:
 426              	.LFB36:
  21:src/syscall_cpp.cpp **** mem_free(ptr);
 427              		.loc 2 21 10 is_stmt 1
 428              		.cfi_startproc
 429              		.cfi_personality 0x9b,DW.ref.__gxx_personality_v0
 430              		.cfi_lsda 0x1b,.LLSDA36
 431              	.LVL29:
 432 0174 130101FF 		addi	sp,sp,-16
 433              		.cfi_def_cfa_offset 16
 434 0178 23341100 		sd	ra,8(sp)
 435 017c 23308100 		sd	s0,0(sp)
 436              		.cfi_offset 1, -8
 437              		.cfi_offset 8, -16
 438 0180 13040101 		addi	s0,sp,16
 439              		.cfi_def_cfa 8, 0
  22:src/syscall_cpp.cpp **** }
 440              		.loc 2 22 1
  22:src/syscall_cpp.cpp **** }
 441              		.loc 2 22 9 is_stmt 0
 442 0184 97000000 		call	_Z8mem_freePv@plt
 442      E7800000 
 443              	.LVL30:
GAS LISTING /tmp/ccKDvyKx.s 			page 14


  23:src/syscall_cpp.cpp **** 
 444              		.loc 2 23 1
 445 018c 83308100 		ld	ra,8(sp)
 446              		.cfi_restore 1
 447 0190 03340100 		ld	s0,0(sp)
 448              		.cfi_restore 8
 449              		.cfi_def_cfa 2, 16
 450 0194 13010101 		addi	sp,sp,16
 451              		.cfi_def_cfa_offset 0
 452 0198 67800000 		jr	ra
 453              		.cfi_endproc
 454              	.LFE36:
 455              		.section	.gcc_except_table
 456              	.LLSDA36:
 457 0008 FF       		.byte	0xff
 458 0009 FF       		.byte	0xff
 459 000a 03       		.byte	0x3
 460 000b 00       		.byte	0
 461              		.text
 463              		.align	2
 464              		.globl	_ZN6ThreadD0Ev
 466              	_ZN6ThreadD0Ev:
 467              	.LFB47:
  55:src/syscall_cpp.cpp ****     //ne treba da se gasi running nit, vec nit na koju pokazuje rucka od this
 468              		.loc 2 55 1 is_stmt 1
 469              		.cfi_startproc
 470              	.LVL31:
 471 019c 130101FE 		addi	sp,sp,-32
 472              		.cfi_def_cfa_offset 32
 473 01a0 233C1100 		sd	ra,24(sp)
 474 01a4 23388100 		sd	s0,16(sp)
 475 01a8 23349100 		sd	s1,8(sp)
 476              		.cfi_offset 1, -8
 477              		.cfi_offset 8, -16
 478              		.cfi_offset 9, -24
 479 01ac 13040102 		addi	s0,sp,32
 480              		.cfi_def_cfa 8, 0
 481 01b0 93040500 		mv	s1,a0
  59:src/syscall_cpp.cpp **** 
 482              		.loc 2 59 1 is_stmt 0
 483 01b4 97000000 		call	_ZN6ThreadD1Ev
 483      E7800000 
 484              	.LVL32:
 485 01bc 13850400 		mv	a0,s1
 486 01c0 97000000 		call	_ZdlPv
 486      E7800000 
 487              	.LVL33:
 488 01c8 83308101 		ld	ra,24(sp)
 489              		.cfi_restore 1
 490 01cc 03340101 		ld	s0,16(sp)
 491              		.cfi_restore 8
 492              		.cfi_def_cfa 2, 32
 493 01d0 83348100 		ld	s1,8(sp)
 494              		.cfi_restore 9
 495              	.LVL34:
 496 01d4 13010102 		addi	sp,sp,32
 497              		.cfi_def_cfa_offset 0
GAS LISTING /tmp/ccKDvyKx.s 			page 15


 498 01d8 67800000 		jr	ra
 499              		.cfi_endproc
 500              	.LFE47:
 502              		.section	.text._ZN14PeriodicThreadD0Ev,"axG",@progbits,_ZN14PeriodicThreadD5Ev,comdat
 503              		.align	2
 504              		.weak	_ZN14PeriodicThreadD0Ev
 506              	_ZN14PeriodicThreadD0Ev:
 507              	.LFB78:
  81:src/../h/syscall_cpp.hpp **** public:
 508              		.loc 1 81 7 is_stmt 1
 509              		.cfi_startproc
 510              	.LVL35:
 511 0000 130101FE 		addi	sp,sp,-32
 512              		.cfi_def_cfa_offset 32
 513 0004 233C1100 		sd	ra,24(sp)
 514 0008 23388100 		sd	s0,16(sp)
 515 000c 23349100 		sd	s1,8(sp)
 516              		.cfi_offset 1, -8
 517              		.cfi_offset 8, -16
 518              		.cfi_offset 9, -24
 519 0010 13040102 		addi	s0,sp,32
 520              		.cfi_def_cfa 8, 0
 521 0014 93040500 		mv	s1,a0
 522              	.LVL36:
 523              	.LBB73:
 524              	.LBB74:
  81:src/../h/syscall_cpp.hpp **** public:
 525              		.loc 1 81 7 is_stmt 0
 526 0018 97070000 		lla	a5,_ZTV14PeriodicThread+16
 526      93870700 
 527 0020 2330F500 		sd	a5,0(a0)
 528 0024 97000000 		call	_ZN6ThreadD2Ev
 528      E7800000 
 529              	.LVL37:
 530              	.LBE74:
 531              	.LBE73:
 532 002c 13850400 		mv	a0,s1
 533 0030 97000000 		call	_ZdlPv
 533      E7800000 
 534              	.LVL38:
 535 0038 83308101 		ld	ra,24(sp)
 536              		.cfi_restore 1
 537 003c 03340101 		ld	s0,16(sp)
 538              		.cfi_restore 8
 539              		.cfi_def_cfa 2, 32
 540 0040 83348100 		ld	s1,8(sp)
 541              		.cfi_restore 9
 542              	.LVL39:
 543 0044 13010102 		addi	sp,sp,32
 544              		.cfi_def_cfa_offset 0
 545 0048 67800000 		jr	ra
 546              		.cfi_endproc
 547              	.LFE78:
 549              		.text
 550              		.align	2
 551              		.globl	_ZN9SemaphoreD0Ev
 553              	_ZN9SemaphoreD0Ev:
GAS LISTING /tmp/ccKDvyKx.s 			page 16


 554              	.LFB65:
 118:src/syscall_cpp.cpp ****     sem_close(myHandle);
 555              		.loc 2 118 1 is_stmt 1
 556              		.cfi_startproc
 557              	.LVL40:
 558 01dc 130101FE 		addi	sp,sp,-32
 559              		.cfi_def_cfa_offset 32
 560 01e0 233C1100 		sd	ra,24(sp)
 561 01e4 23388100 		sd	s0,16(sp)
 562 01e8 23349100 		sd	s1,8(sp)
 563              		.cfi_offset 1, -8
 564              		.cfi_offset 8, -16
 565              		.cfi_offset 9, -24
 566 01ec 13040102 		addi	s0,sp,32
 567              		.cfi_def_cfa 8, 0
 568 01f0 93040500 		mv	s1,a0
 569              		.loc 2 121 1 is_stmt 0
 570 01f4 97000000 		call	_ZN9SemaphoreD1Ev
 570      E7800000 
 571              	.LVL41:
 572 01fc 13850400 		mv	a0,s1
 573 0200 97000000 		call	_ZdlPv
 573      E7800000 
 574              	.LVL42:
 575 0208 83308101 		ld	ra,24(sp)
 576              		.cfi_restore 1
 577 020c 03340101 		ld	s0,16(sp)
 578              		.cfi_restore 8
 579              		.cfi_def_cfa 2, 32
 580 0210 83348100 		ld	s1,8(sp)
 581              		.cfi_restore 9
 582              	.LVL43:
 583 0214 13010102 		addi	sp,sp,32
 584              		.cfi_def_cfa_offset 0
 585 0218 67800000 		jr	ra
 586              		.cfi_endproc
 587              	.LFE65:
 589              		.align	2
 590              		.globl	_ZdaPv
 592              	_ZdaPv:
 593              	.LFB37:
  27:src/syscall_cpp.cpp **** mem_free(ptr);
 594              		.loc 2 27 10 is_stmt 1
 595              		.cfi_startproc
 596              		.cfi_personality 0x9b,DW.ref.__gxx_personality_v0
 597              		.cfi_lsda 0x1b,.LLSDA37
 598              	.LVL44:
 599 021c 130101FF 		addi	sp,sp,-16
 600              		.cfi_def_cfa_offset 16
 601 0220 23341100 		sd	ra,8(sp)
 602 0224 23308100 		sd	s0,0(sp)
 603              		.cfi_offset 1, -8
 604              		.cfi_offset 8, -16
 605 0228 13040101 		addi	s0,sp,16
 606              		.cfi_def_cfa 8, 0
  28:src/syscall_cpp.cpp **** }
 607              		.loc 2 28 1
GAS LISTING /tmp/ccKDvyKx.s 			page 17


  28:src/syscall_cpp.cpp **** }
 608              		.loc 2 28 9 is_stmt 0
 609 022c 97000000 		call	_Z8mem_freePv@plt
 609      E7800000 
 610              	.LVL45:
  29:src/syscall_cpp.cpp **** 
 611              		.loc 2 29 1
 612 0234 83308100 		ld	ra,8(sp)
 613              		.cfi_restore 1
 614 0238 03340100 		ld	s0,0(sp)
 615              		.cfi_restore 8
 616              		.cfi_def_cfa 2, 16
 617 023c 13010101 		addi	sp,sp,16
 618              		.cfi_def_cfa_offset 0
 619 0240 67800000 		jr	ra
 620              		.cfi_endproc
 621              	.LFE37:
 622              		.section	.gcc_except_table
 623              	.LLSDA37:
 624 000c FF       		.byte	0xff
 625 000d FF       		.byte	0xff
 626 000e 03       		.byte	0x3
 627 000f 00       		.byte	0
 628              		.text
 630              		.align	2
 631              		.globl	_ZN6ThreadC2EPFvPvES0_
 633              	_ZN6ThreadC2EPFvPvES0_:
 634              	.LFB39:
  31:src/syscall_cpp.cpp ****     this->body = body;
 635              		.loc 2 31 1 is_stmt 1
 636              		.cfi_startproc
 637              	.LVL46:
 638 0244 130101FD 		addi	sp,sp,-48
 639              		.cfi_def_cfa_offset 48
 640 0248 23341102 		sd	ra,40(sp)
 641 024c 23308102 		sd	s0,32(sp)
 642 0250 233C9100 		sd	s1,24(sp)
 643 0254 23382101 		sd	s2,16(sp)
 644 0258 23343101 		sd	s3,8(sp)
 645              		.cfi_offset 1, -8
 646              		.cfi_offset 8, -16
 647              		.cfi_offset 9, -24
 648              		.cfi_offset 18, -32
 649              		.cfi_offset 19, -40
 650 025c 13040103 		addi	s0,sp,48
 651              		.cfi_def_cfa 8, 0
 652 0260 93040500 		mv	s1,a0
 653 0264 13890500 		mv	s2,a1
 654 0268 93090600 		mv	s3,a2
 655              	.LBB75:
  31:src/syscall_cpp.cpp ****     this->body = body;
 656              		.loc 2 31 47 is_stmt 0
 657 026c 97070000 		lla	a5,_ZTV6Thread+16
 657      93870700 
 658 0274 2330F500 		sd	a5,0(a0)
 659              	.LBB76:
  32:src/syscall_cpp.cpp ****     this->arg = arg;
GAS LISTING /tmp/ccKDvyKx.s 			page 18


 660              		.loc 2 32 5 is_stmt 1
  32:src/syscall_cpp.cpp ****     this->arg = arg;
 661              		.loc 2 32 16 is_stmt 0
 662 0278 2338B500 		sd	a1,16(a0)
  33:src/syscall_cpp.cpp ****     //stvaranje steka ako se ne radi o main kernel niti, posto ona automatski ima stek
 663              		.loc 2 33 5 is_stmt 1
  33:src/syscall_cpp.cpp ****     //stvaranje steka ako se ne radi o main kernel niti, posto ona automatski ima stek
 664              		.loc 2 33 15 is_stmt 0
 665 027c 233CC500 		sd	a2,24(a0)
  35:src/syscall_cpp.cpp ****     if (body != nullptr) {
 666              		.loc 2 35 5 is_stmt 1
 667              	.LVL47:
  36:src/syscall_cpp.cpp ****         stack = (uint64*)mem_alloc(DEFAULT_STACK_SIZE);
 668              		.loc 2 36 5
 669 0280 63860504 		beqz	a1,.L41
  37:src/syscall_cpp.cpp ****     }
 670              		.loc 2 37 9
  37:src/syscall_cpp.cpp ****     }
 671              		.loc 2 37 35 is_stmt 0
 672 0284 37150000 		li	a0,4096
 673              	.LVL48:
 674 0288 97000000 		call	_Z9mem_allocm@plt
 674      E7800000 
 675              	.LVL49:
 676 0290 13030500 		mv	t1,a0
 677              	.LVL50:
 678              	.L40:
  40:src/syscall_cpp.cpp ****     __asm__ volatile("mv a3, %[arg]": :[arg] "r"(arg):"a5", "a0", "a1", "a2", "a3", "a4", "a6", "a7
 679              		.loc 2 40 5 is_stmt 1
  40:src/syscall_cpp.cpp ****     __asm__ volatile("mv a3, %[arg]": :[arg] "r"(arg):"a5", "a0", "a1", "a2", "a3", "a4", "a6", "a7
 680              		.loc 2 40 102 is_stmt 0
 681              	#APP
 682              	# 40 "src/syscall_cpp.cpp" 1
  41:src/syscall_cpp.cpp ****     __asm__ volatile("mv a2, %[function]": :[function] "r"(
 683              		mv a4, t1
 684              	# 0 "" 2
 685              		.loc 2 41 5 is_stmt 1
  41:src/syscall_cpp.cpp ****     __asm__ volatile("mv a2, %[function]": :[function] "r"(
 686              		.loc 2 41 102 is_stmt 0
 687              	# 41 "src/syscall_cpp.cpp" 1
  42:src/syscall_cpp.cpp ****             body):"a5", "a0", "a1", "a2", "a3", "a4", "a6", "a7");
 688              		mv a3, s3
 689              	# 0 "" 2
 690              		.loc 2 42 5 is_stmt 1
  43:src/syscall_cpp.cpp ****     __asm__ volatile("mv a1, %[handle]": :[handle] "r"(&myHandle):"a5", "a0", "a1", "a2", "a3", "a4
 691              		.loc 2 43 66 is_stmt 0
 692              	# 43 "src/syscall_cpp.cpp" 1
  44:src/syscall_cpp.cpp ****     __asm__ volatile("li a0, 0x80");
 693              		mv a2, s2
 694              	# 0 "" 2
 695              		.loc 2 44 5 is_stmt 1
  44:src/syscall_cpp.cpp ****     __asm__ volatile("li a0, 0x80");
 696              		.loc 2 44 56 is_stmt 0
 697              	#NO_APP
 698 02a0 93848400 		addi	s1,s1,8
 699              	.LVL51:
  44:src/syscall_cpp.cpp ****     __asm__ volatile("li a0, 0x80");
GAS LISTING /tmp/ccKDvyKx.s 			page 19


 700              		.loc 2 44 114
 701              	#APP
 702              	# 44 "src/syscall_cpp.cpp" 1
  45:src/syscall_cpp.cpp ****     //a0 = 0x80
 703              		mv a1, s1
 704              	# 0 "" 2
 705              		.loc 2 45 5 is_stmt 1
  45:src/syscall_cpp.cpp ****     //a0 = 0x80
 706              		.loc 2 45 36 is_stmt 0
 707              	# 45 "src/syscall_cpp.cpp" 1
  52:src/syscall_cpp.cpp **** }
 708              		li a0, 0x80
 709              	# 0 "" 2
 710              		.loc 2 52 5 is_stmt 1
  52:src/syscall_cpp.cpp **** }
 711              		.loc 2 52 30 is_stmt 0
 712              	# 52 "src/syscall_cpp.cpp" 1
 713              		ecall
 714              	# 0 "" 2
 715              	#NO_APP
 716              	.LBE76:
 717              	.LBE75:
  53:src/syscall_cpp.cpp **** 
 718              		.loc 2 53 1
 719 02b0 83308102 		ld	ra,40(sp)
 720              		.cfi_remember_state
 721              		.cfi_restore 1
 722 02b4 03340102 		ld	s0,32(sp)
 723              		.cfi_restore 8
 724              		.cfi_def_cfa 2, 48
 725 02b8 83348101 		ld	s1,24(sp)
 726              		.cfi_restore 9
 727              	.LVL52:
 728 02bc 03390101 		ld	s2,16(sp)
 729              		.cfi_restore 18
 730              	.LVL53:
 731 02c0 83398100 		ld	s3,8(sp)
 732              		.cfi_restore 19
 733              	.LVL54:
 734 02c4 13010103 		addi	sp,sp,48
 735              		.cfi_def_cfa_offset 0
 736 02c8 67800000 		jr	ra
 737              	.LVL55:
 738              	.L41:
 739              		.cfi_restore_state
 740              	.LBB78:
 741              	.LBB77:
  35:src/syscall_cpp.cpp ****     if (body != nullptr) {
 742              		.loc 2 35 13
 743 02cc 13030000 		li	t1,0
 744 02d0 6FF05FFC 		j	.L40
 745              	.LBE77:
 746              	.LBE78:
 747              		.cfi_endproc
 748              	.LFE39:
 750              		.globl	_ZN6ThreadC1EPFvPvES0_
 751              		.set	_ZN6ThreadC1EPFvPvES0_,_ZN6ThreadC2EPFvPvES0_
GAS LISTING /tmp/ccKDvyKx.s 			page 20


 752              		.align	2
 753              		.globl	_ZN6Thread5startEv
 755              	_ZN6Thread5startEv:
 756              	.LFB48:
  61:src/syscall_cpp.cpp ****     if (myHandle == nullptr) return -1;
 757              		.loc 2 61 21 is_stmt 1
 758              		.cfi_startproc
 759              	.LVL56:
 760 02d4 130101FF 		addi	sp,sp,-16
 761              		.cfi_def_cfa_offset 16
 762 02d8 23348100 		sd	s0,8(sp)
 763              		.cfi_offset 8, -8
 764 02dc 13040101 		addi	s0,sp,16
 765              		.cfi_def_cfa 8, 0
  62:src/syscall_cpp.cpp ****     __asm__ volatile("mv a1, %[handle]": :[handle] "r"(myHandle):"a5", "a0", "a1", "a2", "a3", "a4"
 766              		.loc 2 62 5
  62:src/syscall_cpp.cpp ****     __asm__ volatile("mv a1, %[handle]": :[handle] "r"(myHandle):"a5", "a0", "a1", "a2", "a3", "a4"
 767              		.loc 2 62 9 is_stmt 0
 768 02e0 03338500 		ld	t1,8(a0)
  62:src/syscall_cpp.cpp ****     __asm__ volatile("mv a1, %[handle]": :[handle] "r"(myHandle):"a5", "a0", "a1", "a2", "a3", "a4"
 769              		.loc 2 62 5
 770 02e4 63000302 		beqz	t1,.L45
  63:src/syscall_cpp.cpp ****     __asm__ volatile("li a0, 0x81");
 771              		.loc 2 63 5 is_stmt 1
  63:src/syscall_cpp.cpp ****     __asm__ volatile("li a0, 0x81");
 772              		.loc 2 63 113 is_stmt 0
 773              	#APP
 774              	# 63 "src/syscall_cpp.cpp" 1
 775              		mv a1, t1
 776              	# 0 "" 2
 777              	.LVL57:
  64:src/syscall_cpp.cpp **** 
 778              		.loc 2 64 5 is_stmt 1
  64:src/syscall_cpp.cpp **** 
 779              		.loc 2 64 36 is_stmt 0
 780              	# 64 "src/syscall_cpp.cpp" 1
  66:src/syscall_cpp.cpp **** 
 781              		li a0, 0x81
 782              	# 0 "" 2
 783              		.loc 2 66 5 is_stmt 1
  66:src/syscall_cpp.cpp **** 
 784              		.loc 2 66 30 is_stmt 0
 785              	# 66 "src/syscall_cpp.cpp" 1
  68:src/syscall_cpp.cpp **** }
 786              		ecall
 787              	# 0 "" 2
 788              		.loc 2 68 5 is_stmt 1
  68:src/syscall_cpp.cpp **** }
 789              		.loc 2 68 12 is_stmt 0
 790              	#NO_APP
 791 02f4 13050000 		li	a0,0
 792              	.L44:
  69:src/syscall_cpp.cpp **** 
 793              		.loc 2 69 1
 794 02f8 03348100 		ld	s0,8(sp)
 795              		.cfi_remember_state
 796              		.cfi_restore 8
GAS LISTING /tmp/ccKDvyKx.s 			page 21


 797              		.cfi_def_cfa 2, 16
 798 02fc 13010101 		addi	sp,sp,16
 799              		.cfi_def_cfa_offset 0
 800 0300 67800000 		jr	ra
 801              	.LVL58:
 802              	.L45:
 803              		.cfi_restore_state
  62:src/syscall_cpp.cpp ****     __asm__ volatile("mv a1, %[handle]": :[handle] "r"(myHandle):"a5", "a0", "a1", "a2", "a3", "a4"
 804              		.loc 2 62 38
 805 0304 1305F0FF 		li	a0,-1
 806              	.LVL59:
 807 0308 6FF01FFF 		j	.L44
 808              		.cfi_endproc
 809              	.LFE48:
 811              		.align	2
 812              		.globl	_ZN6Thread4joinEv
 814              	_ZN6Thread4joinEv:
 815              	.LFB49:
  71:src/syscall_cpp.cpp ****     thread_join(myHandle);
 816              		.loc 2 71 21 is_stmt 1
 817              		.cfi_startproc
 818              	.LVL60:
 819 030c 130101FF 		addi	sp,sp,-16
 820              		.cfi_def_cfa_offset 16
 821 0310 23341100 		sd	ra,8(sp)
 822 0314 23308100 		sd	s0,0(sp)
 823              		.cfi_offset 1, -8
 824              		.cfi_offset 8, -16
 825 0318 13040101 		addi	s0,sp,16
 826              		.cfi_def_cfa 8, 0
  72:src/syscall_cpp.cpp **** }
 827              		.loc 2 72 5
  72:src/syscall_cpp.cpp **** }
 828              		.loc 2 72 16 is_stmt 0
 829 031c 03358500 		ld	a0,8(a0)
 830              	.LVL61:
 831 0320 97000000 		call	_Z11thread_joinP3TCB@plt
 831      E7800000 
 832              	.LVL62:
  73:src/syscall_cpp.cpp **** 
 833              		.loc 2 73 1
 834 0328 83308100 		ld	ra,8(sp)
 835              		.cfi_restore 1
 836 032c 03340100 		ld	s0,0(sp)
 837              		.cfi_restore 8
 838              		.cfi_def_cfa 2, 16
 839 0330 13010101 		addi	sp,sp,16
 840              		.cfi_def_cfa_offset 0
 841 0334 67800000 		jr	ra
 842              		.cfi_endproc
 843              	.LFE49:
 845              		.align	2
 846              		.globl	_ZN6Thread8dispatchEv
 848              	_ZN6Thread8dispatchEv:
 849              	.LFB50:
  75:src/syscall_cpp.cpp ****     thread_dispatch();
 850              		.loc 2 75 25 is_stmt 1
GAS LISTING /tmp/ccKDvyKx.s 			page 22


 851              		.cfi_startproc
 852 0338 130101FF 		addi	sp,sp,-16
 853              		.cfi_def_cfa_offset 16
 854 033c 23341100 		sd	ra,8(sp)
 855 0340 23308100 		sd	s0,0(sp)
 856              		.cfi_offset 1, -8
 857              		.cfi_offset 8, -16
 858 0344 13040101 		addi	s0,sp,16
 859              		.cfi_def_cfa 8, 0
  76:src/syscall_cpp.cpp **** }
 860              		.loc 2 76 5
  76:src/syscall_cpp.cpp **** }
 861              		.loc 2 76 20 is_stmt 0
 862 0348 97000000 		call	_Z15thread_dispatchv@plt
 862      E7800000 
 863              	.LVL63:
  77:src/syscall_cpp.cpp **** 
 864              		.loc 2 77 1
 865 0350 83308100 		ld	ra,8(sp)
 866              		.cfi_restore 1
 867 0354 03340100 		ld	s0,0(sp)
 868              		.cfi_restore 8
 869              		.cfi_def_cfa 2, 16
 870 0358 13010101 		addi	sp,sp,16
 871              		.cfi_def_cfa_offset 0
 872 035c 67800000 		jr	ra
 873              		.cfi_endproc
 874              	.LFE50:
 876              		.align	2
 877              		.globl	_ZN6Thread5sleepEm
 879              	_ZN6Thread5sleepEm:
 880              	.LFB51:
  79:src/syscall_cpp.cpp ****     time_sleep(t);
 881              		.loc 2 79 29 is_stmt 1
 882              		.cfi_startproc
 883              	.LVL64:
 884 0360 130101FF 		addi	sp,sp,-16
 885              		.cfi_def_cfa_offset 16
 886 0364 23341100 		sd	ra,8(sp)
 887 0368 23308100 		sd	s0,0(sp)
 888              		.cfi_offset 1, -8
 889              		.cfi_offset 8, -16
 890 036c 13040101 		addi	s0,sp,16
 891              		.cfi_def_cfa 8, 0
  80:src/syscall_cpp.cpp ****     return 0;
 892              		.loc 2 80 5
  80:src/syscall_cpp.cpp ****     return 0;
 893              		.loc 2 80 15 is_stmt 0
 894 0370 97000000 		call	_Z10time_sleepm@plt
 894      E7800000 
 895              	.LVL65:
  81:src/syscall_cpp.cpp **** }
 896              		.loc 2 81 5 is_stmt 1
  82:src/syscall_cpp.cpp **** 
 897              		.loc 2 82 1 is_stmt 0
 898 0378 13050000 		li	a0,0
 899 037c 83308100 		ld	ra,8(sp)
GAS LISTING /tmp/ccKDvyKx.s 			page 23


 900              		.cfi_restore 1
 901 0380 03340100 		ld	s0,0(sp)
 902              		.cfi_restore 8
 903              		.cfi_def_cfa 2, 16
 904 0384 13010101 		addi	sp,sp,16
 905              		.cfi_def_cfa_offset 0
 906 0388 67800000 		jr	ra
 907              		.cfi_endproc
 908              	.LFE51:
 910              		.align	2
 911              		.globl	_ZN14PeriodicThread3runEv
 913              	_ZN14PeriodicThread3runEv:
 914              	.LFB72:
 122:src/syscall_cpp.cpp **** 
 123:src/syscall_cpp.cpp **** int Semaphore::wait() {
 124:src/syscall_cpp.cpp ****     return sem_wait(myHandle);
 125:src/syscall_cpp.cpp **** }
 126:src/syscall_cpp.cpp **** 
 127:src/syscall_cpp.cpp **** int Semaphore::signal() {
 128:src/syscall_cpp.cpp ****     return sem_signal(myHandle);
 129:src/syscall_cpp.cpp **** }
 130:src/syscall_cpp.cpp **** 
 131:src/syscall_cpp.cpp **** void PeriodicThread::terminate() {
 132:src/syscall_cpp.cpp ****     this->period = -1;
 133:src/syscall_cpp.cpp **** }
 134:src/syscall_cpp.cpp **** 
 135:src/syscall_cpp.cpp **** PeriodicThread::PeriodicThread(time_t period) : Thread(), period(period) {
 136:src/syscall_cpp.cpp ****     if (this->period < 0) this->period = 2;
 137:src/syscall_cpp.cpp **** }
 138:src/syscall_cpp.cpp **** 
 139:src/syscall_cpp.cpp **** void PeriodicThread::run() {
 915              		.loc 2 139 28 is_stmt 1
 916              		.cfi_startproc
 917              	.LVL66:
 918 038c 130101FE 		addi	sp,sp,-32
 919              		.cfi_def_cfa_offset 32
 920 0390 233C1100 		sd	ra,24(sp)
 921 0394 23388100 		sd	s0,16(sp)
 922 0398 23349100 		sd	s1,8(sp)
 923              		.cfi_offset 1, -8
 924              		.cfi_offset 8, -16
 925              		.cfi_offset 9, -24
 926 039c 13040102 		addi	s0,sp,32
 927              		.cfi_def_cfa 8, 0
 928 03a0 93040500 		mv	s1,a0
 929              	.LVL67:
 930              	.L55:
 140:src/syscall_cpp.cpp ****     while (period != -1UL) {
 931              		.loc 2 140 5
 932              		.loc 2 140 19
 933              		.loc 2 140 12 is_stmt 0
 934 03a4 03B70402 		ld	a4,32(s1)
 935              		.loc 2 140 19
 936 03a8 9307F0FF 		li	a5,-1
 937 03ac 6306F702 		beq	a4,a5,.L54
 141:src/syscall_cpp.cpp ****         periodicActivation();
 938              		.loc 2 141 9 is_stmt 1
GAS LISTING /tmp/ccKDvyKx.s 			page 24


 939              		.loc 2 141 28 is_stmt 0
 940 03b0 83B70400 		ld	a5,0(s1)
 941 03b4 83B78701 		ld	a5,24(a5)
 942              		.loc 2 141 27
 943 03b8 13850400 		mv	a0,s1
 944 03bc E7800700 		jalr	a5
 945              	.LVL68:
 142:src/syscall_cpp.cpp ****         if (period == -1UL) break;
 946              		.loc 2 142 9 is_stmt 1
 947              		.loc 2 142 13 is_stmt 0
 948 03c0 03B50402 		ld	a0,32(s1)
 949              		.loc 2 142 9
 950 03c4 9307F0FF 		li	a5,-1
 951 03c8 6308F500 		beq	a0,a5,.L54
 143:src/syscall_cpp.cpp ****         sleep(period);
 952              		.loc 2 143 9 is_stmt 1
 953              		.loc 2 143 14 is_stmt 0
 954 03cc 97000000 		call	_ZN6Thread5sleepEm
 954      E7800000 
 955              	.LVL69:
 140:src/syscall_cpp.cpp ****         periodicActivation();
 956              		.loc 2 140 5
 957 03d4 6FF01FFD 		j	.L55
 958              	.L54:
 144:src/syscall_cpp.cpp ****     }
 145:src/syscall_cpp.cpp ****     thread_exit();
 959              		.loc 2 145 5 is_stmt 1
 960              		.loc 2 145 16 is_stmt 0
 961 03d8 97000000 		call	_Z11thread_exitv@plt
 961      E7800000 
 962              	.LVL70:
 146:src/syscall_cpp.cpp **** }
 963              		.loc 2 146 1
 964 03e0 83308101 		ld	ra,24(sp)
 965              		.cfi_restore 1
 966 03e4 03340101 		ld	s0,16(sp)
 967              		.cfi_restore 8
 968              		.cfi_def_cfa 2, 32
 969 03e8 83348100 		ld	s1,8(sp)
 970              		.cfi_restore 9
 971              	.LVL71:
 972 03ec 13010102 		addi	sp,sp,32
 973              		.cfi_def_cfa_offset 0
 974 03f0 67800000 		jr	ra
 975              		.cfi_endproc
 976              	.LFE72:
 978              		.align	2
 979              		.globl	_ZN6ThreadC2Ev
 981              	_ZN6ThreadC2Ev:
 982              	.LFB53:
  84:src/syscall_cpp.cpp ****     this->body = wrapper;
 983              		.loc 2 84 1 is_stmt 1
 984              		.cfi_startproc
 985              	.LVL72:
 986 03f4 130101FE 		addi	sp,sp,-32
 987              		.cfi_def_cfa_offset 32
 988 03f8 233C1100 		sd	ra,24(sp)
GAS LISTING /tmp/ccKDvyKx.s 			page 25


 989 03fc 23388100 		sd	s0,16(sp)
 990 0400 23349100 		sd	s1,8(sp)
 991              		.cfi_offset 1, -8
 992              		.cfi_offset 8, -16
 993              		.cfi_offset 9, -24
 994 0404 13040102 		addi	s0,sp,32
 995              		.cfi_def_cfa 8, 0
 996 0408 93040500 		mv	s1,a0
 997              	.LBB79:
  84:src/syscall_cpp.cpp ****     this->body = wrapper;
 998              		.loc 2 84 16 is_stmt 0
 999 040c 97070000 		lla	a5,_ZTV6Thread+16
 999      93870700 
 1000 0414 2330F500 		sd	a5,0(a0)
 1001              	.LBB80:
  85:src/syscall_cpp.cpp ****     this->arg = this;
 1002              		.loc 2 85 5 is_stmt 1
  85:src/syscall_cpp.cpp ****     this->arg = this;
 1003              		.loc 2 85 16 is_stmt 0
 1004 0418 97070000 		lla	a5,_ZN6Thread7wrapperEPv
 1004      93870700 
 1005 0420 2338F500 		sd	a5,16(a0)
  86:src/syscall_cpp.cpp ****     //stvaranje steka ako se ne radi o main kernel niti, posto ona automatski ima stek
 1006              		.loc 2 86 5 is_stmt 1
  86:src/syscall_cpp.cpp ****     //stvaranje steka ako se ne radi o main kernel niti, posto ona automatski ima stek
 1007              		.loc 2 86 15 is_stmt 0
 1008 0424 233CA500 		sd	a0,24(a0)
  88:src/syscall_cpp.cpp ****     if (body != nullptr) {
 1009              		.loc 2 88 5 is_stmt 1
 1010              	.LVL73:
  89:src/syscall_cpp.cpp ****         stack = (uint64*)mem_alloc(DEFAULT_STACK_SIZE);
 1011              		.loc 2 89 5
  90:src/syscall_cpp.cpp ****     }
 1012              		.loc 2 90 9
  90:src/syscall_cpp.cpp ****     }
 1013              		.loc 2 90 35 is_stmt 0
 1014 0428 37150000 		li	a0,4096
 1015              	.LVL74:
 1016 042c 97000000 		call	_Z9mem_allocm@plt
 1016      E7800000 
 1017              	.LVL75:
 1018 0434 13030500 		mv	t1,a0
 1019              	.LVL76:
  93:src/syscall_cpp.cpp ****     __asm__ volatile("mv a3, %[arg]": :[arg] "r"(arg):"a5", "a0", "a1", "a2", "a3", "a4", "a6", "a7
 1020              		.loc 2 93 5 is_stmt 1
  93:src/syscall_cpp.cpp ****     __asm__ volatile("mv a3, %[arg]": :[arg] "r"(arg):"a5", "a0", "a1", "a2", "a3", "a4", "a6", "a7
 1021              		.loc 2 93 102 is_stmt 0
 1022              	#APP
 1023              	# 93 "src/syscall_cpp.cpp" 1
  94:src/syscall_cpp.cpp ****     __asm__ volatile("mv a2, %[function]": :[function] "r"(
 1024              		mv a4, t1
 1025              	# 0 "" 2
 1026              		.loc 2 94 5 is_stmt 1
  94:src/syscall_cpp.cpp ****     __asm__ volatile("mv a2, %[function]": :[function] "r"(
 1027              		.loc 2 94 50 is_stmt 0
 1028              	#NO_APP
 1029 043c 03B38401 		ld	t1,24(s1)
GAS LISTING /tmp/ccKDvyKx.s 			page 26


 1030              	.LVL77:
  94:src/syscall_cpp.cpp ****     __asm__ volatile("mv a2, %[function]": :[function] "r"(
 1031              		.loc 2 94 102
 1032              	#APP
 1033              	# 94 "src/syscall_cpp.cpp" 1
  95:src/syscall_cpp.cpp ****             body):"a5", "a0", "a1", "a2", "a3", "a4", "a6", "a7");
 1034              		mv a3, t1
 1035              	# 0 "" 2
 1036              		.loc 2 95 5 is_stmt 1
  96:src/syscall_cpp.cpp ****     __asm__ volatile("mv a1, %[handle]": :[handle] "r"(&myHandle):"a5", "a0", "a1", "a2", "a3", "a4
 1037              		.loc 2 96 13 is_stmt 0
 1038              	#NO_APP
 1039 0444 03B30401 		ld	t1,16(s1)
  96:src/syscall_cpp.cpp ****     __asm__ volatile("mv a1, %[handle]": :[handle] "r"(&myHandle):"a5", "a0", "a1", "a2", "a3", "a4
 1040              		.loc 2 96 66
 1041              	#APP
 1042              	# 96 "src/syscall_cpp.cpp" 1
  97:src/syscall_cpp.cpp ****     __asm__ volatile("li a0, 0x80");
 1043              		mv a2, t1
 1044              	# 0 "" 2
 1045              		.loc 2 97 5 is_stmt 1
  97:src/syscall_cpp.cpp ****     __asm__ volatile("li a0, 0x80");
 1046              		.loc 2 97 56 is_stmt 0
 1047              	#NO_APP
 1048 044c 93848400 		addi	s1,s1,8
 1049              	.LVL78:
  97:src/syscall_cpp.cpp ****     __asm__ volatile("li a0, 0x80");
 1050              		.loc 2 97 114
 1051              	#APP
 1052              	# 97 "src/syscall_cpp.cpp" 1
  98:src/syscall_cpp.cpp ****     //a0 = 0x80
 1053              		mv a1, s1
 1054              	# 0 "" 2
 1055              		.loc 2 98 5 is_stmt 1
  98:src/syscall_cpp.cpp ****     //a0 = 0x80
 1056              		.loc 2 98 36 is_stmt 0
 1057              	# 98 "src/syscall_cpp.cpp" 1
 105:src/syscall_cpp.cpp **** }
 1058              		li a0, 0x80
 1059              	# 0 "" 2
 1060              		.loc 2 105 5 is_stmt 1
 105:src/syscall_cpp.cpp **** }
 1061              		.loc 2 105 30 is_stmt 0
 1062              	# 105 "src/syscall_cpp.cpp" 1
 1063              		ecall
 1064              	# 0 "" 2
 1065              	#NO_APP
 1066              	.LBE80:
 1067              	.LBE79:
 106:src/syscall_cpp.cpp **** 
 1068              		.loc 2 106 1
 1069 045c 83308101 		ld	ra,24(sp)
 1070              		.cfi_restore 1
 1071 0460 03340101 		ld	s0,16(sp)
 1072              		.cfi_restore 8
 1073              		.cfi_def_cfa 2, 32
 1074 0464 83348100 		ld	s1,8(sp)
GAS LISTING /tmp/ccKDvyKx.s 			page 27


 1075              		.cfi_restore 9
 1076              	.LVL79:
 1077 0468 13010102 		addi	sp,sp,32
 1078              		.cfi_def_cfa_offset 0
 1079 046c 67800000 		jr	ra
 1080              		.cfi_endproc
 1081              	.LFE53:
 1083              		.globl	_ZN6ThreadC1Ev
 1084              		.set	_ZN6ThreadC1Ev,_ZN6ThreadC2Ev
 1085              		.align	2
 1086              		.globl	_ZN9SemaphoreC2Ej
 1088              	_ZN9SemaphoreC2Ej:
 1089              	.LFB57:
 114:src/syscall_cpp.cpp ****     sem_open(&myHandle, init);
 1090              		.loc 2 114 1 is_stmt 1
 1091              		.cfi_startproc
 1092              	.LVL80:
 1093 0470 130101FF 		addi	sp,sp,-16
 1094              		.cfi_def_cfa_offset 16
 1095 0474 23341100 		sd	ra,8(sp)
 1096 0478 23308100 		sd	s0,0(sp)
 1097              		.cfi_offset 1, -8
 1098              		.cfi_offset 8, -16
 1099 047c 13040101 		addi	s0,sp,16
 1100              		.cfi_def_cfa 8, 0
 1101              	.LBB81:
 114:src/syscall_cpp.cpp ****     sem_open(&myHandle, init);
 1102              		.loc 2 114 39 is_stmt 0
 1103 0480 97070000 		lla	a5,_ZTV9Semaphore+16
 1103      93870700 
 1104 0488 2330F500 		sd	a5,0(a0)
 115:src/syscall_cpp.cpp **** }
 1105              		.loc 2 115 5 is_stmt 1
 115:src/syscall_cpp.cpp **** }
 1106              		.loc 2 115 13 is_stmt 0
 1107 048c 13058500 		addi	a0,a0,8
 1108              	.LVL81:
 1109 0490 97000000 		call	_Z8sem_openPP4KSemj@plt
 1109      E7800000 
 1110              	.LVL82:
 1111              	.LBE81:
 116:src/syscall_cpp.cpp **** 
 1112              		.loc 2 116 1
 1113 0498 83308100 		ld	ra,8(sp)
 1114              		.cfi_restore 1
 1115 049c 03340100 		ld	s0,0(sp)
 1116              		.cfi_restore 8
 1117              		.cfi_def_cfa 2, 16
 1118 04a0 13010101 		addi	sp,sp,16
 1119              		.cfi_def_cfa_offset 0
 1120 04a4 67800000 		jr	ra
 1121              		.cfi_endproc
 1122              	.LFE57:
 1124              		.globl	_ZN9SemaphoreC1Ej
 1125              		.set	_ZN9SemaphoreC1Ej,_ZN9SemaphoreC2Ej
 1126              		.align	2
 1127              		.globl	_ZN9Semaphore4waitEv
GAS LISTING /tmp/ccKDvyKx.s 			page 28


 1129              	_ZN9Semaphore4waitEv:
 1130              	.LFB66:
 123:src/syscall_cpp.cpp ****     return sem_wait(myHandle);
 1131              		.loc 2 123 23 is_stmt 1
 1132              		.cfi_startproc
 1133              	.LVL83:
 1134 04a8 130101FF 		addi	sp,sp,-16
 1135              		.cfi_def_cfa_offset 16
 1136 04ac 23341100 		sd	ra,8(sp)
 1137 04b0 23308100 		sd	s0,0(sp)
 1138              		.cfi_offset 1, -8
 1139              		.cfi_offset 8, -16
 1140 04b4 13040101 		addi	s0,sp,16
 1141              		.cfi_def_cfa 8, 0
 124:src/syscall_cpp.cpp **** }
 1142              		.loc 2 124 5
 124:src/syscall_cpp.cpp **** }
 1143              		.loc 2 124 20 is_stmt 0
 1144 04b8 03358500 		ld	a0,8(a0)
 1145              	.LVL84:
 1146 04bc 97000000 		call	_Z8sem_waitP4KSem@plt
 1146      E7800000 
 1147              	.LVL85:
 125:src/syscall_cpp.cpp **** 
 1148              		.loc 2 125 1
 1149 04c4 83308100 		ld	ra,8(sp)
 1150              		.cfi_restore 1
 1151 04c8 03340100 		ld	s0,0(sp)
 1152              		.cfi_restore 8
 1153              		.cfi_def_cfa 2, 16
 1154 04cc 13010101 		addi	sp,sp,16
 1155              		.cfi_def_cfa_offset 0
 1156 04d0 67800000 		jr	ra
 1157              		.cfi_endproc
 1158              	.LFE66:
 1160              		.align	2
 1161              		.globl	_ZN9Semaphore6signalEv
 1163              	_ZN9Semaphore6signalEv:
 1164              	.LFB67:
 127:src/syscall_cpp.cpp ****     return sem_signal(myHandle);
 1165              		.loc 2 127 25 is_stmt 1
 1166              		.cfi_startproc
 1167              	.LVL86:
 1168 04d4 130101FF 		addi	sp,sp,-16
 1169              		.cfi_def_cfa_offset 16
 1170 04d8 23341100 		sd	ra,8(sp)
 1171 04dc 23308100 		sd	s0,0(sp)
 1172              		.cfi_offset 1, -8
 1173              		.cfi_offset 8, -16
 1174 04e0 13040101 		addi	s0,sp,16
 1175              		.cfi_def_cfa 8, 0
 128:src/syscall_cpp.cpp **** }
 1176              		.loc 2 128 5
 128:src/syscall_cpp.cpp **** }
 1177              		.loc 2 128 22 is_stmt 0
 1178 04e4 03358500 		ld	a0,8(a0)
 1179              	.LVL87:
GAS LISTING /tmp/ccKDvyKx.s 			page 29


 1180 04e8 97000000 		call	_Z10sem_signalP4KSem@plt
 1180      E7800000 
 1181              	.LVL88:
 129:src/syscall_cpp.cpp **** 
 1182              		.loc 2 129 1
 1183 04f0 83308100 		ld	ra,8(sp)
 1184              		.cfi_restore 1
 1185 04f4 03340100 		ld	s0,0(sp)
 1186              		.cfi_restore 8
 1187              		.cfi_def_cfa 2, 16
 1188 04f8 13010101 		addi	sp,sp,16
 1189              		.cfi_def_cfa_offset 0
 1190 04fc 67800000 		jr	ra
 1191              		.cfi_endproc
 1192              	.LFE67:
 1194              		.align	2
 1195              		.globl	_ZN14PeriodicThread9terminateEv
 1197              	_ZN14PeriodicThread9terminateEv:
 1198              	.LFB68:
 131:src/syscall_cpp.cpp ****     this->period = -1;
 1199              		.loc 2 131 34 is_stmt 1
 1200              		.cfi_startproc
 1201              	.LVL89:
 1202 0500 130101FF 		addi	sp,sp,-16
 1203              		.cfi_def_cfa_offset 16
 1204 0504 23348100 		sd	s0,8(sp)
 1205              		.cfi_offset 8, -8
 1206 0508 13040101 		addi	s0,sp,16
 1207              		.cfi_def_cfa 8, 0
 132:src/syscall_cpp.cpp **** }
 1208              		.loc 2 132 5
 132:src/syscall_cpp.cpp **** }
 1209              		.loc 2 132 18 is_stmt 0
 1210 050c 9307F0FF 		li	a5,-1
 1211 0510 2330F502 		sd	a5,32(a0)
 133:src/syscall_cpp.cpp **** 
 1212              		.loc 2 133 1
 1213 0514 03348100 		ld	s0,8(sp)
 1214              		.cfi_restore 8
 1215              		.cfi_def_cfa 2, 16
 1216 0518 13010101 		addi	sp,sp,16
 1217              		.cfi_def_cfa_offset 0
 1218 051c 67800000 		jr	ra
 1219              		.cfi_endproc
 1220              	.LFE68:
 1222              		.align	2
 1223              		.globl	_ZN14PeriodicThreadC2Em
 1225              	_ZN14PeriodicThreadC2Em:
 1226              	.LFB70:
 135:src/syscall_cpp.cpp ****     if (this->period < 0) this->period = 2;
 1227              		.loc 2 135 1 is_stmt 1
 1228              		.cfi_startproc
 1229              	.LVL90:
 1230 0520 130101FE 		addi	sp,sp,-32
 1231              		.cfi_def_cfa_offset 32
 1232 0524 233C1100 		sd	ra,24(sp)
 1233 0528 23388100 		sd	s0,16(sp)
GAS LISTING /tmp/ccKDvyKx.s 			page 30


 1234 052c 23349100 		sd	s1,8(sp)
 1235 0530 23302101 		sd	s2,0(sp)
 1236              		.cfi_offset 1, -8
 1237              		.cfi_offset 8, -16
 1238              		.cfi_offset 9, -24
 1239              		.cfi_offset 18, -32
 1240 0534 13040102 		addi	s0,sp,32
 1241              		.cfi_def_cfa 8, 0
 1242 0538 93040500 		mv	s1,a0
 1243 053c 13890500 		mv	s2,a1
 1244              	.LBB82:
 135:src/syscall_cpp.cpp ****     if (this->period < 0) this->period = 2;
 1245              		.loc 2 135 72 is_stmt 0
 1246 0540 97000000 		call	_ZN6ThreadC2Ev
 1246      E7800000 
 1247              	.LVL91:
 1248 0548 97070000 		lla	a5,_ZTV14PeriodicThread+16
 1248      93870700 
 1249 0550 23B0F400 		sd	a5,0(s1)
 1250 0554 23B02403 		sd	s2,32(s1)
 136:src/syscall_cpp.cpp **** }
 1251              		.loc 2 136 5 is_stmt 1
 1252              	.LBE82:
 137:src/syscall_cpp.cpp **** 
 1253              		.loc 2 137 1 is_stmt 0
 1254 0558 83308101 		ld	ra,24(sp)
 1255              		.cfi_restore 1
 1256 055c 03340101 		ld	s0,16(sp)
 1257              		.cfi_restore 8
 1258              		.cfi_def_cfa 2, 32
 1259 0560 83348100 		ld	s1,8(sp)
 1260              		.cfi_restore 9
 1261              	.LVL92:
 1262 0564 03390100 		ld	s2,0(sp)
 1263              		.cfi_restore 18
 1264              	.LVL93:
 1265 0568 13010102 		addi	sp,sp,32
 1266              		.cfi_def_cfa_offset 0
 1267 056c 67800000 		jr	ra
 1268              		.cfi_endproc
 1269              	.LFE70:
 1271              		.globl	_ZN14PeriodicThreadC1Em
 1272              		.set	_ZN14PeriodicThreadC1Em,_ZN14PeriodicThreadC2Em
 1273              		.align	2
 1274              		.globl	_ZN7Console4getcEv
 1276              	_ZN7Console4getcEv:
 1277              	.LFB73:
 147:src/syscall_cpp.cpp **** 
 148:src/syscall_cpp.cpp **** char Console::getc() {
 1278              		.loc 2 148 22 is_stmt 1
 1279              		.cfi_startproc
 1280 0570 130101FF 		addi	sp,sp,-16
 1281              		.cfi_def_cfa_offset 16
 1282 0574 23341100 		sd	ra,8(sp)
 1283 0578 23308100 		sd	s0,0(sp)
 1284              		.cfi_offset 1, -8
 1285              		.cfi_offset 8, -16
GAS LISTING /tmp/ccKDvyKx.s 			page 31


 1286 057c 13040101 		addi	s0,sp,16
 1287              		.cfi_def_cfa 8, 0
 149:src/syscall_cpp.cpp ****     return ::getc();
 1288              		.loc 2 149 5
 1289              		.loc 2 149 18 is_stmt 0
 1290 0580 97000000 		call	_Z4getcv@plt
 1290      E7800000 
 1291              	.LVL94:
 150:src/syscall_cpp.cpp **** }
 1292              		.loc 2 150 1
 1293 0588 83308100 		ld	ra,8(sp)
 1294              		.cfi_restore 1
 1295 058c 03340100 		ld	s0,0(sp)
 1296              		.cfi_restore 8
 1297              		.cfi_def_cfa 2, 16
 1298 0590 13010101 		addi	sp,sp,16
 1299              		.cfi_def_cfa_offset 0
 1300 0594 67800000 		jr	ra
 1301              		.cfi_endproc
 1302              	.LFE73:
 1304              		.align	2
 1305              		.globl	_ZN7Console4putcEc
 1307              	_ZN7Console4putcEc:
 1308              	.LFB74:
 151:src/syscall_cpp.cpp **** 
 152:src/syscall_cpp.cpp **** void Console::putc(char c) {
 1309              		.loc 2 152 28 is_stmt 1
 1310              		.cfi_startproc
 1311              	.LVL95:
 1312 0598 130101FF 		addi	sp,sp,-16
 1313              		.cfi_def_cfa_offset 16
 1314 059c 23341100 		sd	ra,8(sp)
 1315 05a0 23308100 		sd	s0,0(sp)
 1316              		.cfi_offset 1, -8
 1317              		.cfi_offset 8, -16
 1318 05a4 13040101 		addi	s0,sp,16
 1319              		.cfi_def_cfa 8, 0
 153:src/syscall_cpp.cpp ****     ::putc(c);
 1320              		.loc 2 153 5
 1321              		.loc 2 153 11 is_stmt 0
 1322 05a8 97000000 		call	_Z4putcc@plt
 1322      E7800000 
 1323              	.LVL96:
 154:src/syscall_cpp.cpp **** }
 1324              		.loc 2 154 1
 1325 05b0 83308100 		ld	ra,8(sp)
 1326              		.cfi_restore 1
 1327 05b4 03340100 		ld	s0,0(sp)
 1328              		.cfi_restore 8
 1329              		.cfi_def_cfa 2, 16
 1330 05b8 13010101 		addi	sp,sp,16
 1331              		.cfi_def_cfa_offset 0
 1332 05bc 67800000 		jr	ra
 1333              		.cfi_endproc
 1334              	.LFE74:
 1336              		.weak	_ZTV6Thread
 1337              		.section	.data.rel.ro.local._ZTV6Thread,"awG",@progbits,_ZTV6Thread,comdat
GAS LISTING /tmp/ccKDvyKx.s 			page 32


 1338              		.align	3
 1341              	_ZTV6Thread:
 1342 0000 00000000 		.dword	0
 1342      00000000 
 1343 0008 00000000 		.dword	0
 1343      00000000 
 1344 0010 00000000 		.dword	_ZN6ThreadD1Ev
 1344      00000000 
 1345 0018 00000000 		.dword	_ZN6ThreadD0Ev
 1345      00000000 
 1346 0020 00000000 		.dword	_ZN6Thread3runEv
 1346      00000000 
 1347              		.weak	_ZTV9Semaphore
 1348              		.section	.data.rel.ro.local._ZTV9Semaphore,"awG",@progbits,_ZTV9Semaphore,comdat
 1349              		.align	3
 1352              	_ZTV9Semaphore:
 1353 0000 00000000 		.dword	0
 1353      00000000 
 1354 0008 00000000 		.dword	0
 1354      00000000 
 1355 0010 00000000 		.dword	_ZN9SemaphoreD1Ev
 1355      00000000 
 1356 0018 00000000 		.dword	_ZN9SemaphoreD0Ev
 1356      00000000 
 1357              		.weak	_ZTV14PeriodicThread
 1358              		.section	.data.rel.ro.local._ZTV14PeriodicThread,"awG",@progbits,_ZTV14PeriodicThread,comdat
 1359              		.align	3
 1362              	_ZTV14PeriodicThread:
 1363 0000 00000000 		.dword	0
 1363      00000000 
 1364 0008 00000000 		.dword	0
 1364      00000000 
 1365 0010 00000000 		.dword	_ZN14PeriodicThreadD1Ev
 1365      00000000 
 1366 0018 00000000 		.dword	_ZN14PeriodicThreadD0Ev
 1366      00000000 
 1367 0020 00000000 		.dword	_ZN14PeriodicThread3runEv
 1367      00000000 
 1368 0028 00000000 		.dword	_ZN14PeriodicThread18periodicActivationEv
 1368      00000000 
 1369              		.text
 1370              	.Letext0:
 1371              		.file 4 "src/../h/../lib/hw.h"
 1372              		.file 5 "src/../h/TCB.hpp"
 1373              		.file 6 "src/../h/KSem.hpp"
 1374              		.file 7 "src/../h/syscall_c.hpp"
 6281              		.align	3
 6284              	DW.ref.__gxx_personality_v0:
 6285 0000 00000000 		.dword	__gxx_personality_v0
 6285      00000000 
 6286              		.ident	"GCC: (Ubuntu 9.4.0-1ubuntu1~20.04) 9.4.0"
 6287              		.section	.note.GNU-stack,"",@progbits
GAS LISTING /tmp/ccKDvyKx.s 			page 33


DEFINED SYMBOLS
                            *ABS*:0000000000000000 syscall_cpp.cpp
     /tmp/ccKDvyKx.s:10     .text._ZN6Thread3runEv:0000000000000000 _ZN6Thread3runEv
     /tmp/ccKDvyKx.s:14     .text._ZN6Thread3runEv:0000000000000000 .L0 
     /tmp/ccKDvyKx.s:16     .text._ZN6Thread3runEv:0000000000000000 .L0 
     /tmp/ccKDvyKx.s:17     .text._ZN6Thread3runEv:0000000000000004 .L0 
     /tmp/ccKDvyKx.s:19     .text._ZN6Thread3runEv:0000000000000008 .L0 
     /tmp/ccKDvyKx.s:21     .text._ZN6Thread3runEv:000000000000000c .L0 
     /tmp/ccKDvyKx.s:23     .text._ZN6Thread3runEv:000000000000000c .L0 
     /tmp/ccKDvyKx.s:24     .text._ZN6Thread3runEv:0000000000000010 .L0 
     /tmp/ccKDvyKx.s:25     .text._ZN6Thread3runEv:0000000000000010 .L0 
     /tmp/ccKDvyKx.s:27     .text._ZN6Thread3runEv:0000000000000014 .L0 
     /tmp/ccKDvyKx.s:29     .text._ZN6Thread3runEv:0000000000000018 .L0 
     /tmp/ccKDvyKx.s:36     .text._ZN14PeriodicThread18periodicActivationEv:0000000000000000 _ZN14PeriodicThread18periodicActivationEv
     /tmp/ccKDvyKx.s:39     .text._ZN14PeriodicThread18periodicActivationEv:0000000000000000 .L0 
     /tmp/ccKDvyKx.s:41     .text._ZN14PeriodicThread18periodicActivationEv:0000000000000000 .L0 
     /tmp/ccKDvyKx.s:42     .text._ZN14PeriodicThread18periodicActivationEv:0000000000000004 .L0 
     /tmp/ccKDvyKx.s:44     .text._ZN14PeriodicThread18periodicActivationEv:0000000000000008 .L0 
     /tmp/ccKDvyKx.s:46     .text._ZN14PeriodicThread18periodicActivationEv:000000000000000c .L0 
     /tmp/ccKDvyKx.s:48     .text._ZN14PeriodicThread18periodicActivationEv:000000000000000c .L0 
     /tmp/ccKDvyKx.s:49     .text._ZN14PeriodicThread18periodicActivationEv:0000000000000010 .L0 
     /tmp/ccKDvyKx.s:50     .text._ZN14PeriodicThread18periodicActivationEv:0000000000000010 .L0 
     /tmp/ccKDvyKx.s:52     .text._ZN14PeriodicThread18periodicActivationEv:0000000000000014 .L0 
     /tmp/ccKDvyKx.s:54     .text._ZN14PeriodicThread18periodicActivationEv:0000000000000018 .L0 
     /tmp/ccKDvyKx.s:61     .text:0000000000000000 _ZN6Thread7wrapperEPv
     /tmp/ccKDvyKx.s:65     .text:0000000000000000 .L0 
     /tmp/ccKDvyKx.s:67     .text:0000000000000000 .L0 
     /tmp/ccKDvyKx.s:68     .text:0000000000000000 .L0 
     /tmp/ccKDvyKx.s:70     .text:0000000000000004 .L0 
     /tmp/ccKDvyKx.s:71     .text:0000000000000008 .L0 
     /tmp/ccKDvyKx.s:74     .text:0000000000000010 .L0 
     /tmp/ccKDvyKx.s:75     .text:0000000000000010 .L0 
     /tmp/ccKDvyKx.s:77     .text:0000000000000014 .L0 
     /tmp/ccKDvyKx.s:79     .text:0000000000000014 .L0 
     /tmp/ccKDvyKx.s:80     .text:0000000000000014 .L0 
     /tmp/ccKDvyKx.s:83     .text:000000000000001c .L0 
     /tmp/ccKDvyKx.s:86     .text:0000000000000020 .L0 
     /tmp/ccKDvyKx.s:87     .text:0000000000000024 .L0 
     /tmp/ccKDvyKx.s:89     .text:0000000000000028 .L0 
     /tmp/ccKDvyKx.s:90     .text:0000000000000028 .L0 
     /tmp/ccKDvyKx.s:92     .text:000000000000002c .L0 
     /tmp/ccKDvyKx.s:97     .text:0000000000000034 .L0 
     /tmp/ccKDvyKx.s:103    .text:0000000000000034 _ZN6ThreadD2Ev
     /tmp/ccKDvyKx.s:106    .text:0000000000000034 .L0 
     /tmp/ccKDvyKx.s:6284   .data.rel.local.DW.ref.__gxx_personality_v0:0000000000000000 DW.ref.__gxx_personality_v0
     /tmp/ccKDvyKx.s:110    .text:0000000000000034 .L0 
     /tmp/ccKDvyKx.s:111    .text:0000000000000038 .L0 
     /tmp/ccKDvyKx.s:115    .text:0000000000000044 .L0 
     /tmp/ccKDvyKx.s:116    .text:0000000000000044 .L0 
     /tmp/ccKDvyKx.s:117    .text:0000000000000044 .L0 
     /tmp/ccKDvyKx.s:119    .text:0000000000000048 .L0 
     /tmp/ccKDvyKx.s:1341   .data.rel.ro.local._ZTV6Thread:0000000000000000 _ZTV6Thread
     /tmp/ccKDvyKx.s:123    .text:000000000000004c .L0 
     /tmp/ccKDvyKx.s:126    .text:0000000000000058 .L0 
     /tmp/ccKDvyKx.s:127    .text:0000000000000058 .L0 
     /tmp/ccKDvyKx.s:132    .text:0000000000000064 .L0 
     /tmp/ccKDvyKx.s:133    .text:0000000000000064 .L0 
GAS LISTING /tmp/ccKDvyKx.s 			page 34


     /tmp/ccKDvyKx.s:136    .text:0000000000000068 .L0 
     /tmp/ccKDvyKx.s:143    .text:000000000000006c .L0 
     /tmp/ccKDvyKx.s:147    .text:000000000000006c .L0 
     /tmp/ccKDvyKx.s:148    .text:000000000000006c .L0 
     /tmp/ccKDvyKx.s:149    .text:000000000000006c .L0 
     /tmp/ccKDvyKx.s:153    .text:0000000000000070 .L0 
     /tmp/ccKDvyKx.s:157    .text:0000000000000074 .L0 
     /tmp/ccKDvyKx.s:158    .text:0000000000000074 .L0 
     /tmp/ccKDvyKx.s:159    .text:0000000000000074 .L0 
     /tmp/ccKDvyKx.s:161    .text:0000000000000078 .L0 
     /tmp/ccKDvyKx.s:163    .text:000000000000007c .L0 
     /tmp/ccKDvyKx.s:164    .text:000000000000007c .L0 
     /tmp/ccKDvyKx.s:169    .text:0000000000000080 .L0 
     /tmp/ccKDvyKx.s:170    .text:0000000000000080 .L0 
     /tmp/ccKDvyKx.s:173    .text:0000000000000088 .L0 
     /tmp/ccKDvyKx.s:182    .text:000000000000008c .L0 
     /tmp/ccKDvyKx.s:188    .text:0000000000000098 .L0 
     /tmp/ccKDvyKx.s:189    .text:000000000000009c .L0 
     /tmp/ccKDvyKx.s:191    .text:00000000000000a0 .L0 
     /tmp/ccKDvyKx.s:192    .text:00000000000000a0 .L0 
     /tmp/ccKDvyKx.s:194    .text:00000000000000a4 .L0 
     /tmp/ccKDvyKx.s:196    .text:00000000000000a8 .L0 
     /tmp/ccKDvyKx.s:198    .text:00000000000000ac .L0 
     /tmp/ccKDvyKx.s:103    .text:0000000000000034 _ZN6ThreadD1Ev
     /tmp/ccKDvyKx.s:215    .text._ZN14PeriodicThreadD2Ev:0000000000000000 _ZN14PeriodicThreadD2Ev
     /tmp/ccKDvyKx.s:218    .text._ZN14PeriodicThreadD2Ev:0000000000000000 .L0 
     /tmp/ccKDvyKx.s:220    .text._ZN14PeriodicThreadD2Ev:0000000000000000 .L0 
     /tmp/ccKDvyKx.s:221    .text._ZN14PeriodicThreadD2Ev:0000000000000004 .L0 
     /tmp/ccKDvyKx.s:224    .text._ZN14PeriodicThreadD2Ev:000000000000000c .L0 
     /tmp/ccKDvyKx.s:225    .text._ZN14PeriodicThreadD2Ev:000000000000000c .L0 
     /tmp/ccKDvyKx.s:227    .text._ZN14PeriodicThreadD2Ev:0000000000000010 .L0 
     /tmp/ccKDvyKx.s:1362   .data.rel.ro.local._ZTV14PeriodicThread:0000000000000000 _ZTV14PeriodicThread
     /tmp/ccKDvyKx.s:230    .text._ZN14PeriodicThreadD2Ev:0000000000000010 .L0 
     /tmp/ccKDvyKx.s:236    .text._ZN14PeriodicThreadD2Ev:0000000000000028 .L0 
     /tmp/ccKDvyKx.s:238    .text._ZN14PeriodicThreadD2Ev:000000000000002c .L0 
     /tmp/ccKDvyKx.s:239    .text._ZN14PeriodicThreadD2Ev:000000000000002c .L0 
     /tmp/ccKDvyKx.s:241    .text._ZN14PeriodicThreadD2Ev:0000000000000030 .L0 
     /tmp/ccKDvyKx.s:243    .text._ZN14PeriodicThreadD2Ev:0000000000000034 .L0 
     /tmp/ccKDvyKx.s:215    .text._ZN14PeriodicThreadD2Ev:0000000000000000 _ZN14PeriodicThreadD1Ev
     /tmp/ccKDvyKx.s:252    .text:00000000000000ac _ZN9SemaphoreD2Ev
     /tmp/ccKDvyKx.s:255    .text:00000000000000ac .L0 
     /tmp/ccKDvyKx.s:259    .text:00000000000000ac .L0 
     /tmp/ccKDvyKx.s:260    .text:00000000000000b0 .L0 
     /tmp/ccKDvyKx.s:264    .text:00000000000000bc .L0 
     /tmp/ccKDvyKx.s:265    .text:00000000000000bc .L0 
     /tmp/ccKDvyKx.s:266    .text:00000000000000bc .L0 
     /tmp/ccKDvyKx.s:268    .text:00000000000000c0 .L0 
     /tmp/ccKDvyKx.s:1352   .data.rel.ro.local._ZTV9Semaphore:0000000000000000 _ZTV9Semaphore
     /tmp/ccKDvyKx.s:272    .text:00000000000000c4 .L0 
     /tmp/ccKDvyKx.s:275    .text:00000000000000d0 .L0 
     /tmp/ccKDvyKx.s:276    .text:00000000000000d0 .L0 
     /tmp/ccKDvyKx.s:281    .text:00000000000000dc .L0 
     /tmp/ccKDvyKx.s:282    .text:00000000000000dc .L0 
     /tmp/ccKDvyKx.s:285    .text:00000000000000e0 .L0 
     /tmp/ccKDvyKx.s:291    .text:00000000000000e4 .L0 
     /tmp/ccKDvyKx.s:295    .text:00000000000000e4 .L0 
     /tmp/ccKDvyKx.s:296    .text:00000000000000e4 .L0 
GAS LISTING /tmp/ccKDvyKx.s 			page 35


     /tmp/ccKDvyKx.s:297    .text:00000000000000e4 .L0 
     /tmp/ccKDvyKx.s:301    .text:00000000000000e8 .L0 
     /tmp/ccKDvyKx.s:305    .text:00000000000000ec .L0 
     /tmp/ccKDvyKx.s:306    .text:00000000000000ec .L0 
     /tmp/ccKDvyKx.s:307    .text:00000000000000ec .L0 
     /tmp/ccKDvyKx.s:309    .text:00000000000000f0 .L0 
     /tmp/ccKDvyKx.s:311    .text:00000000000000f4 .L0 
     /tmp/ccKDvyKx.s:312    .text:00000000000000f4 .L0 
     /tmp/ccKDvyKx.s:317    .text:00000000000000f8 .L0 
     /tmp/ccKDvyKx.s:318    .text:00000000000000f8 .L0 
     /tmp/ccKDvyKx.s:321    .text:0000000000000100 .L0 
     /tmp/ccKDvyKx.s:330    .text:0000000000000104 .L0 
     /tmp/ccKDvyKx.s:336    .text:0000000000000110 .L0 
     /tmp/ccKDvyKx.s:337    .text:0000000000000114 .L0 
     /tmp/ccKDvyKx.s:339    .text:0000000000000118 .L0 
     /tmp/ccKDvyKx.s:340    .text:0000000000000118 .L0 
     /tmp/ccKDvyKx.s:342    .text:000000000000011c .L0 
     /tmp/ccKDvyKx.s:344    .text:0000000000000120 .L0 
     /tmp/ccKDvyKx.s:346    .text:0000000000000124 .L0 
     /tmp/ccKDvyKx.s:252    .text:00000000000000ac _ZN9SemaphoreD1Ev
     /tmp/ccKDvyKx.s:361    .text:0000000000000124 _Znwm
     /tmp/ccKDvyKx.s:364    .text:0000000000000124 .L0 
     /tmp/ccKDvyKx.s:366    .text:0000000000000124 .L0 
     /tmp/ccKDvyKx.s:367    .text:0000000000000128 .L0 
     /tmp/ccKDvyKx.s:370    .text:0000000000000130 .L0 
     /tmp/ccKDvyKx.s:371    .text:0000000000000130 .L0 
     /tmp/ccKDvyKx.s:373    .text:0000000000000134 .L0 
     /tmp/ccKDvyKx.s:375    .text:0000000000000134 .L0 
     /tmp/ccKDvyKx.s:376    .text:0000000000000134 .L0 
     /tmp/ccKDvyKx.s:379    .text:000000000000013c .L0 
     /tmp/ccKDvyKx.s:380    .text:0000000000000140 .L0 
     /tmp/ccKDvyKx.s:382    .text:0000000000000144 .L0 
     /tmp/ccKDvyKx.s:383    .text:0000000000000144 .L0 
     /tmp/ccKDvyKx.s:385    .text:0000000000000148 .L0 
     /tmp/ccKDvyKx.s:387    .text:000000000000014c .L0 
     /tmp/ccKDvyKx.s:393    .text:000000000000014c _Znam
     /tmp/ccKDvyKx.s:396    .text:000000000000014c .L0 
     /tmp/ccKDvyKx.s:398    .text:000000000000014c .L0 
     /tmp/ccKDvyKx.s:399    .text:0000000000000150 .L0 
     /tmp/ccKDvyKx.s:402    .text:0000000000000158 .L0 
     /tmp/ccKDvyKx.s:403    .text:0000000000000158 .L0 
     /tmp/ccKDvyKx.s:405    .text:000000000000015c .L0 
     /tmp/ccKDvyKx.s:407    .text:000000000000015c .L0 
     /tmp/ccKDvyKx.s:408    .text:000000000000015c .L0 
     /tmp/ccKDvyKx.s:411    .text:0000000000000164 .L0 
     /tmp/ccKDvyKx.s:412    .text:0000000000000168 .L0 
     /tmp/ccKDvyKx.s:414    .text:000000000000016c .L0 
     /tmp/ccKDvyKx.s:415    .text:000000000000016c .L0 
     /tmp/ccKDvyKx.s:417    .text:0000000000000170 .L0 
     /tmp/ccKDvyKx.s:419    .text:0000000000000174 .L0 
     /tmp/ccKDvyKx.s:425    .text:0000000000000174 _ZdlPv
     /tmp/ccKDvyKx.s:428    .text:0000000000000174 .L0 
     /tmp/ccKDvyKx.s:432    .text:0000000000000174 .L0 
     /tmp/ccKDvyKx.s:433    .text:0000000000000178 .L0 
     /tmp/ccKDvyKx.s:436    .text:0000000000000180 .L0 
     /tmp/ccKDvyKx.s:437    .text:0000000000000180 .L0 
     /tmp/ccKDvyKx.s:439    .text:0000000000000184 .L0 
GAS LISTING /tmp/ccKDvyKx.s 			page 36


     /tmp/ccKDvyKx.s:441    .text:0000000000000184 .L0 
     /tmp/ccKDvyKx.s:442    .text:0000000000000184 .L0 
     /tmp/ccKDvyKx.s:445    .text:000000000000018c .L0 
     /tmp/ccKDvyKx.s:446    .text:0000000000000190 .L0 
     /tmp/ccKDvyKx.s:448    .text:0000000000000194 .L0 
     /tmp/ccKDvyKx.s:449    .text:0000000000000194 .L0 
     /tmp/ccKDvyKx.s:451    .text:0000000000000198 .L0 
     /tmp/ccKDvyKx.s:453    .text:000000000000019c .L0 
     /tmp/ccKDvyKx.s:466    .text:000000000000019c _ZN6ThreadD0Ev
     /tmp/ccKDvyKx.s:469    .text:000000000000019c .L0 
     /tmp/ccKDvyKx.s:471    .text:000000000000019c .L0 
     /tmp/ccKDvyKx.s:472    .text:00000000000001a0 .L0 
     /tmp/ccKDvyKx.s:476    .text:00000000000001ac .L0 
     /tmp/ccKDvyKx.s:477    .text:00000000000001ac .L0 
     /tmp/ccKDvyKx.s:478    .text:00000000000001ac .L0 
     /tmp/ccKDvyKx.s:480    .text:00000000000001b0 .L0 
     /tmp/ccKDvyKx.s:483    .text:00000000000001b4 .L0 
     /tmp/ccKDvyKx.s:489    .text:00000000000001cc .L0 
     /tmp/ccKDvyKx.s:491    .text:00000000000001d0 .L0 
     /tmp/ccKDvyKx.s:492    .text:00000000000001d0 .L0 
     /tmp/ccKDvyKx.s:494    .text:00000000000001d4 .L0 
     /tmp/ccKDvyKx.s:497    .text:00000000000001d8 .L0 
     /tmp/ccKDvyKx.s:499    .text:00000000000001dc .L0 
     /tmp/ccKDvyKx.s:506    .text._ZN14PeriodicThreadD0Ev:0000000000000000 _ZN14PeriodicThreadD0Ev
     /tmp/ccKDvyKx.s:509    .text._ZN14PeriodicThreadD0Ev:0000000000000000 .L0 
     /tmp/ccKDvyKx.s:511    .text._ZN14PeriodicThreadD0Ev:0000000000000000 .L0 
     /tmp/ccKDvyKx.s:512    .text._ZN14PeriodicThreadD0Ev:0000000000000004 .L0 
     /tmp/ccKDvyKx.s:516    .text._ZN14PeriodicThreadD0Ev:0000000000000010 .L0 
     /tmp/ccKDvyKx.s:517    .text._ZN14PeriodicThreadD0Ev:0000000000000010 .L0 
     /tmp/ccKDvyKx.s:518    .text._ZN14PeriodicThreadD0Ev:0000000000000010 .L0 
     /tmp/ccKDvyKx.s:520    .text._ZN14PeriodicThreadD0Ev:0000000000000014 .L0 
     /tmp/ccKDvyKx.s:526    .text._ZN14PeriodicThreadD0Ev:0000000000000018 .L0 
     /tmp/ccKDvyKx.s:536    .text._ZN14PeriodicThreadD0Ev:000000000000003c .L0 
     /tmp/ccKDvyKx.s:538    .text._ZN14PeriodicThreadD0Ev:0000000000000040 .L0 
     /tmp/ccKDvyKx.s:539    .text._ZN14PeriodicThreadD0Ev:0000000000000040 .L0 
     /tmp/ccKDvyKx.s:541    .text._ZN14PeriodicThreadD0Ev:0000000000000044 .L0 
     /tmp/ccKDvyKx.s:544    .text._ZN14PeriodicThreadD0Ev:0000000000000048 .L0 
     /tmp/ccKDvyKx.s:546    .text._ZN14PeriodicThreadD0Ev:000000000000004c .L0 
     /tmp/ccKDvyKx.s:553    .text:00000000000001dc _ZN9SemaphoreD0Ev
     /tmp/ccKDvyKx.s:556    .text:00000000000001dc .L0 
     /tmp/ccKDvyKx.s:558    .text:00000000000001dc .L0 
     /tmp/ccKDvyKx.s:559    .text:00000000000001e0 .L0 
     /tmp/ccKDvyKx.s:563    .text:00000000000001ec .L0 
     /tmp/ccKDvyKx.s:564    .text:00000000000001ec .L0 
     /tmp/ccKDvyKx.s:565    .text:00000000000001ec .L0 
     /tmp/ccKDvyKx.s:567    .text:00000000000001f0 .L0 
     /tmp/ccKDvyKx.s:570    .text:00000000000001f4 .L0 
     /tmp/ccKDvyKx.s:576    .text:000000000000020c .L0 
     /tmp/ccKDvyKx.s:578    .text:0000000000000210 .L0 
     /tmp/ccKDvyKx.s:579    .text:0000000000000210 .L0 
     /tmp/ccKDvyKx.s:581    .text:0000000000000214 .L0 
     /tmp/ccKDvyKx.s:584    .text:0000000000000218 .L0 
     /tmp/ccKDvyKx.s:586    .text:000000000000021c .L0 
     /tmp/ccKDvyKx.s:592    .text:000000000000021c _ZdaPv
     /tmp/ccKDvyKx.s:595    .text:000000000000021c .L0 
     /tmp/ccKDvyKx.s:599    .text:000000000000021c .L0 
     /tmp/ccKDvyKx.s:600    .text:0000000000000220 .L0 
GAS LISTING /tmp/ccKDvyKx.s 			page 37


     /tmp/ccKDvyKx.s:603    .text:0000000000000228 .L0 
     /tmp/ccKDvyKx.s:604    .text:0000000000000228 .L0 
     /tmp/ccKDvyKx.s:606    .text:000000000000022c .L0 
     /tmp/ccKDvyKx.s:608    .text:000000000000022c .L0 
     /tmp/ccKDvyKx.s:609    .text:000000000000022c .L0 
     /tmp/ccKDvyKx.s:612    .text:0000000000000234 .L0 
     /tmp/ccKDvyKx.s:613    .text:0000000000000238 .L0 
     /tmp/ccKDvyKx.s:615    .text:000000000000023c .L0 
     /tmp/ccKDvyKx.s:616    .text:000000000000023c .L0 
     /tmp/ccKDvyKx.s:618    .text:0000000000000240 .L0 
     /tmp/ccKDvyKx.s:620    .text:0000000000000244 .L0 
     /tmp/ccKDvyKx.s:633    .text:0000000000000244 _ZN6ThreadC2EPFvPvES0_
     /tmp/ccKDvyKx.s:636    .text:0000000000000244 .L0 
     /tmp/ccKDvyKx.s:638    .text:0000000000000244 .L0 
     /tmp/ccKDvyKx.s:639    .text:0000000000000248 .L0 
     /tmp/ccKDvyKx.s:645    .text:000000000000025c .L0 
     /tmp/ccKDvyKx.s:646    .text:000000000000025c .L0 
     /tmp/ccKDvyKx.s:647    .text:000000000000025c .L0 
     /tmp/ccKDvyKx.s:648    .text:000000000000025c .L0 
     /tmp/ccKDvyKx.s:649    .text:000000000000025c .L0 
     /tmp/ccKDvyKx.s:651    .text:0000000000000260 .L0 
     /tmp/ccKDvyKx.s:657    .text:000000000000026c .L0 
     /tmp/ccKDvyKx.s:661    .text:0000000000000278 .L0 
     /tmp/ccKDvyKx.s:662    .text:0000000000000278 .L0 
     /tmp/ccKDvyKx.s:664    .text:000000000000027c .L0 
     /tmp/ccKDvyKx.s:665    .text:000000000000027c .L0 
     /tmp/ccKDvyKx.s:668    .text:0000000000000280 .L0 
     /tmp/ccKDvyKx.s:669    .text:0000000000000280 .L0 
     /tmp/ccKDvyKx.s:671    .text:0000000000000284 .L0 
     /tmp/ccKDvyKx.s:672    .text:0000000000000284 .L0 
     /tmp/ccKDvyKx.s:680    .text:0000000000000294 .L0 
 src/syscall_cpp.cpp:40     .text:0000000000000294 .L0 
     /tmp/ccKDvyKx.s:686    .text:0000000000000298 .L0 
 src/syscall_cpp.cpp:41     .text:0000000000000298 .L0 
     /tmp/ccKDvyKx.s:691    .text:000000000000029c .L0 
 src/syscall_cpp.cpp:43     .text:000000000000029c .L0 
     /tmp/ccKDvyKx.s:696    .text:00000000000002a0 .L0 
     /tmp/ccKDvyKx.s:698    .text:00000000000002a0 .L0 
 src/syscall_cpp.cpp:44     .text:00000000000002a4 .L0 
     /tmp/ccKDvyKx.s:706    .text:00000000000002a8 .L0 
 src/syscall_cpp.cpp:45     .text:00000000000002a8 .L0 
     /tmp/ccKDvyKx.s:711    .text:00000000000002ac .L0 
 src/syscall_cpp.cpp:52     .text:00000000000002ac .L0 
     /tmp/ccKDvyKx.s:719    .text:00000000000002b0 .L0 
     /tmp/ccKDvyKx.s:720    .text:00000000000002b4 .L0 
     /tmp/ccKDvyKx.s:721    .text:00000000000002b4 .L0 
     /tmp/ccKDvyKx.s:723    .text:00000000000002b8 .L0 
     /tmp/ccKDvyKx.s:724    .text:00000000000002b8 .L0 
     /tmp/ccKDvyKx.s:726    .text:00000000000002bc .L0 
     /tmp/ccKDvyKx.s:729    .text:00000000000002c0 .L0 
     /tmp/ccKDvyKx.s:732    .text:00000000000002c4 .L0 
     /tmp/ccKDvyKx.s:735    .text:00000000000002c8 .L0 
     /tmp/ccKDvyKx.s:739    .text:00000000000002cc .L0 
     /tmp/ccKDvyKx.s:743    .text:00000000000002cc .L0 
     /tmp/ccKDvyKx.s:747    .text:00000000000002d4 .L0 
     /tmp/ccKDvyKx.s:633    .text:0000000000000244 _ZN6ThreadC1EPFvPvES0_
     /tmp/ccKDvyKx.s:755    .text:00000000000002d4 _ZN6Thread5startEv
GAS LISTING /tmp/ccKDvyKx.s 			page 38


     /tmp/ccKDvyKx.s:758    .text:00000000000002d4 .L0 
     /tmp/ccKDvyKx.s:760    .text:00000000000002d4 .L0 
     /tmp/ccKDvyKx.s:761    .text:00000000000002d8 .L0 
     /tmp/ccKDvyKx.s:763    .text:00000000000002dc .L0 
     /tmp/ccKDvyKx.s:765    .text:00000000000002e0 .L0 
     /tmp/ccKDvyKx.s:767    .text:00000000000002e0 .L0 
     /tmp/ccKDvyKx.s:768    .text:00000000000002e0 .L0 
     /tmp/ccKDvyKx.s:770    .text:00000000000002e4 .L0 
     /tmp/ccKDvyKx.s:772    .text:00000000000002e8 .L0 
 src/syscall_cpp.cpp:63     .text:00000000000002e8 .L0 
     /tmp/ccKDvyKx.s:779    .text:00000000000002ec .L0 
 src/syscall_cpp.cpp:64     .text:00000000000002ec .L0 
     /tmp/ccKDvyKx.s:784    .text:00000000000002f0 .L0 
 src/syscall_cpp.cpp:66     .text:00000000000002f0 .L0 
     /tmp/ccKDvyKx.s:789    .text:00000000000002f4 .L0 
     /tmp/ccKDvyKx.s:791    .text:00000000000002f4 .L0 
     /tmp/ccKDvyKx.s:794    .text:00000000000002f8 .L0 
     /tmp/ccKDvyKx.s:795    .text:00000000000002fc .L0 
     /tmp/ccKDvyKx.s:796    .text:00000000000002fc .L0 
     /tmp/ccKDvyKx.s:797    .text:00000000000002fc .L0 
     /tmp/ccKDvyKx.s:799    .text:0000000000000300 .L0 
     /tmp/ccKDvyKx.s:803    .text:0000000000000304 .L0 
     /tmp/ccKDvyKx.s:805    .text:0000000000000304 .L0 
     /tmp/ccKDvyKx.s:808    .text:000000000000030c .L0 
     /tmp/ccKDvyKx.s:814    .text:000000000000030c _ZN6Thread4joinEv
     /tmp/ccKDvyKx.s:817    .text:000000000000030c .L0 
     /tmp/ccKDvyKx.s:819    .text:000000000000030c .L0 
     /tmp/ccKDvyKx.s:820    .text:0000000000000310 .L0 
     /tmp/ccKDvyKx.s:823    .text:0000000000000318 .L0 
     /tmp/ccKDvyKx.s:824    .text:0000000000000318 .L0 
     /tmp/ccKDvyKx.s:826    .text:000000000000031c .L0 
     /tmp/ccKDvyKx.s:828    .text:000000000000031c .L0 
     /tmp/ccKDvyKx.s:829    .text:000000000000031c .L0 
     /tmp/ccKDvyKx.s:834    .text:0000000000000328 .L0 
     /tmp/ccKDvyKx.s:835    .text:000000000000032c .L0 
     /tmp/ccKDvyKx.s:837    .text:0000000000000330 .L0 
     /tmp/ccKDvyKx.s:838    .text:0000000000000330 .L0 
     /tmp/ccKDvyKx.s:840    .text:0000000000000334 .L0 
     /tmp/ccKDvyKx.s:842    .text:0000000000000338 .L0 
     /tmp/ccKDvyKx.s:848    .text:0000000000000338 _ZN6Thread8dispatchEv
     /tmp/ccKDvyKx.s:851    .text:0000000000000338 .L0 
     /tmp/ccKDvyKx.s:852    .text:0000000000000338 .L0 
     /tmp/ccKDvyKx.s:853    .text:000000000000033c .L0 
     /tmp/ccKDvyKx.s:856    .text:0000000000000344 .L0 
     /tmp/ccKDvyKx.s:857    .text:0000000000000344 .L0 
     /tmp/ccKDvyKx.s:859    .text:0000000000000348 .L0 
     /tmp/ccKDvyKx.s:861    .text:0000000000000348 .L0 
     /tmp/ccKDvyKx.s:862    .text:0000000000000348 .L0 
     /tmp/ccKDvyKx.s:865    .text:0000000000000350 .L0 
     /tmp/ccKDvyKx.s:866    .text:0000000000000354 .L0 
     /tmp/ccKDvyKx.s:868    .text:0000000000000358 .L0 
     /tmp/ccKDvyKx.s:869    .text:0000000000000358 .L0 
     /tmp/ccKDvyKx.s:871    .text:000000000000035c .L0 
     /tmp/ccKDvyKx.s:873    .text:0000000000000360 .L0 
     /tmp/ccKDvyKx.s:879    .text:0000000000000360 _ZN6Thread5sleepEm
     /tmp/ccKDvyKx.s:882    .text:0000000000000360 .L0 
     /tmp/ccKDvyKx.s:884    .text:0000000000000360 .L0 
GAS LISTING /tmp/ccKDvyKx.s 			page 39


     /tmp/ccKDvyKx.s:885    .text:0000000000000364 .L0 
     /tmp/ccKDvyKx.s:888    .text:000000000000036c .L0 
     /tmp/ccKDvyKx.s:889    .text:000000000000036c .L0 
     /tmp/ccKDvyKx.s:891    .text:0000000000000370 .L0 
     /tmp/ccKDvyKx.s:893    .text:0000000000000370 .L0 
     /tmp/ccKDvyKx.s:894    .text:0000000000000370 .L0 
     /tmp/ccKDvyKx.s:897    .text:0000000000000378 .L0 
     /tmp/ccKDvyKx.s:898    .text:0000000000000378 .L0 
     /tmp/ccKDvyKx.s:900    .text:0000000000000380 .L0 
     /tmp/ccKDvyKx.s:902    .text:0000000000000384 .L0 
     /tmp/ccKDvyKx.s:903    .text:0000000000000384 .L0 
     /tmp/ccKDvyKx.s:905    .text:0000000000000388 .L0 
     /tmp/ccKDvyKx.s:907    .text:000000000000038c .L0 
     /tmp/ccKDvyKx.s:913    .text:000000000000038c _ZN14PeriodicThread3runEv
     /tmp/ccKDvyKx.s:916    .text:000000000000038c .L0 
     /tmp/ccKDvyKx.s:918    .text:000000000000038c .L0 
     /tmp/ccKDvyKx.s:919    .text:0000000000000390 .L0 
     /tmp/ccKDvyKx.s:923    .text:000000000000039c .L0 
     /tmp/ccKDvyKx.s:924    .text:000000000000039c .L0 
     /tmp/ccKDvyKx.s:925    .text:000000000000039c .L0 
     /tmp/ccKDvyKx.s:927    .text:00000000000003a0 .L0 
     /tmp/ccKDvyKx.s:932    .text:00000000000003a4 .L0 
     /tmp/ccKDvyKx.s:933    .text:00000000000003a4 .L0 
     /tmp/ccKDvyKx.s:934    .text:00000000000003a4 .L0 
     /tmp/ccKDvyKx.s:936    .text:00000000000003a8 .L0 
     /tmp/ccKDvyKx.s:939    .text:00000000000003b0 .L0 
     /tmp/ccKDvyKx.s:940    .text:00000000000003b0 .L0 
     /tmp/ccKDvyKx.s:943    .text:00000000000003b8 .L0 
     /tmp/ccKDvyKx.s:947    .text:00000000000003c0 .L0 
     /tmp/ccKDvyKx.s:948    .text:00000000000003c0 .L0 
     /tmp/ccKDvyKx.s:950    .text:00000000000003c4 .L0 
     /tmp/ccKDvyKx.s:953    .text:00000000000003cc .L0 
     /tmp/ccKDvyKx.s:954    .text:00000000000003cc .L0 
     /tmp/ccKDvyKx.s:957    .text:00000000000003d4 .L0 
     /tmp/ccKDvyKx.s:960    .text:00000000000003d8 .L0 
     /tmp/ccKDvyKx.s:961    .text:00000000000003d8 .L0 
     /tmp/ccKDvyKx.s:964    .text:00000000000003e0 .L0 
     /tmp/ccKDvyKx.s:965    .text:00000000000003e4 .L0 
     /tmp/ccKDvyKx.s:967    .text:00000000000003e8 .L0 
     /tmp/ccKDvyKx.s:968    .text:00000000000003e8 .L0 
     /tmp/ccKDvyKx.s:970    .text:00000000000003ec .L0 
     /tmp/ccKDvyKx.s:973    .text:00000000000003f0 .L0 
     /tmp/ccKDvyKx.s:975    .text:00000000000003f4 .L0 
     /tmp/ccKDvyKx.s:981    .text:00000000000003f4 _ZN6ThreadC2Ev
     /tmp/ccKDvyKx.s:984    .text:00000000000003f4 .L0 
     /tmp/ccKDvyKx.s:986    .text:00000000000003f4 .L0 
     /tmp/ccKDvyKx.s:987    .text:00000000000003f8 .L0 
     /tmp/ccKDvyKx.s:991    .text:0000000000000404 .L0 
     /tmp/ccKDvyKx.s:992    .text:0000000000000404 .L0 
     /tmp/ccKDvyKx.s:993    .text:0000000000000404 .L0 
     /tmp/ccKDvyKx.s:995    .text:0000000000000408 .L0 
     /tmp/ccKDvyKx.s:999    .text:000000000000040c .L0 
     /tmp/ccKDvyKx.s:1003   .text:0000000000000418 .L0 
     /tmp/ccKDvyKx.s:1004   .text:0000000000000418 .L0 
     /tmp/ccKDvyKx.s:1007   .text:0000000000000424 .L0 
     /tmp/ccKDvyKx.s:1008   .text:0000000000000424 .L0 
     /tmp/ccKDvyKx.s:1011   .text:0000000000000428 .L0 
GAS LISTING /tmp/ccKDvyKx.s 			page 40


     /tmp/ccKDvyKx.s:1012   .text:0000000000000428 .L0 
     /tmp/ccKDvyKx.s:1013   .text:0000000000000428 .L0 
     /tmp/ccKDvyKx.s:1014   .text:0000000000000428 .L0 
     /tmp/ccKDvyKx.s:1021   .text:0000000000000438 .L0 
 src/syscall_cpp.cpp:93     .text:0000000000000438 .L0 
     /tmp/ccKDvyKx.s:1027   .text:000000000000043c .L0 
     /tmp/ccKDvyKx.s:1029   .text:000000000000043c .L0 
 src/syscall_cpp.cpp:94     .text:0000000000000440 .L0 
     /tmp/ccKDvyKx.s:1037   .text:0000000000000444 .L0 
     /tmp/ccKDvyKx.s:1039   .text:0000000000000444 .L0 
 src/syscall_cpp.cpp:96     .text:0000000000000448 .L0 
     /tmp/ccKDvyKx.s:1046   .text:000000000000044c .L0 
     /tmp/ccKDvyKx.s:1048   .text:000000000000044c .L0 
 src/syscall_cpp.cpp:97     .text:0000000000000450 .L0 
     /tmp/ccKDvyKx.s:1056   .text:0000000000000454 .L0 
 src/syscall_cpp.cpp:98     .text:0000000000000454 .L0 
     /tmp/ccKDvyKx.s:1061   .text:0000000000000458 .L0 
 src/syscall_cpp.cpp:105    .text:0000000000000458 .L0 
     /tmp/ccKDvyKx.s:1069   .text:000000000000045c .L0 
     /tmp/ccKDvyKx.s:1070   .text:0000000000000460 .L0 
     /tmp/ccKDvyKx.s:1072   .text:0000000000000464 .L0 
     /tmp/ccKDvyKx.s:1073   .text:0000000000000464 .L0 
     /tmp/ccKDvyKx.s:1075   .text:0000000000000468 .L0 
     /tmp/ccKDvyKx.s:1078   .text:000000000000046c .L0 
     /tmp/ccKDvyKx.s:1080   .text:0000000000000470 .L0 
     /tmp/ccKDvyKx.s:981    .text:00000000000003f4 _ZN6ThreadC1Ev
     /tmp/ccKDvyKx.s:1088   .text:0000000000000470 _ZN9SemaphoreC2Ej
     /tmp/ccKDvyKx.s:1091   .text:0000000000000470 .L0 
     /tmp/ccKDvyKx.s:1093   .text:0000000000000470 .L0 
     /tmp/ccKDvyKx.s:1094   .text:0000000000000474 .L0 
     /tmp/ccKDvyKx.s:1097   .text:000000000000047c .L0 
     /tmp/ccKDvyKx.s:1098   .text:000000000000047c .L0 
     /tmp/ccKDvyKx.s:1100   .text:0000000000000480 .L0 
     /tmp/ccKDvyKx.s:1103   .text:0000000000000480 .L0 
     /tmp/ccKDvyKx.s:1106   .text:000000000000048c .L0 
     /tmp/ccKDvyKx.s:1107   .text:000000000000048c .L0 
     /tmp/ccKDvyKx.s:1113   .text:0000000000000498 .L0 
     /tmp/ccKDvyKx.s:1114   .text:000000000000049c .L0 
     /tmp/ccKDvyKx.s:1116   .text:00000000000004a0 .L0 
     /tmp/ccKDvyKx.s:1117   .text:00000000000004a0 .L0 
     /tmp/ccKDvyKx.s:1119   .text:00000000000004a4 .L0 
     /tmp/ccKDvyKx.s:1121   .text:00000000000004a8 .L0 
     /tmp/ccKDvyKx.s:1088   .text:0000000000000470 _ZN9SemaphoreC1Ej
     /tmp/ccKDvyKx.s:1129   .text:00000000000004a8 _ZN9Semaphore4waitEv
     /tmp/ccKDvyKx.s:1132   .text:00000000000004a8 .L0 
     /tmp/ccKDvyKx.s:1134   .text:00000000000004a8 .L0 
     /tmp/ccKDvyKx.s:1135   .text:00000000000004ac .L0 
     /tmp/ccKDvyKx.s:1138   .text:00000000000004b4 .L0 
     /tmp/ccKDvyKx.s:1139   .text:00000000000004b4 .L0 
     /tmp/ccKDvyKx.s:1141   .text:00000000000004b8 .L0 
     /tmp/ccKDvyKx.s:1143   .text:00000000000004b8 .L0 
     /tmp/ccKDvyKx.s:1144   .text:00000000000004b8 .L0 
     /tmp/ccKDvyKx.s:1149   .text:00000000000004c4 .L0 
     /tmp/ccKDvyKx.s:1150   .text:00000000000004c8 .L0 
     /tmp/ccKDvyKx.s:1152   .text:00000000000004cc .L0 
     /tmp/ccKDvyKx.s:1153   .text:00000000000004cc .L0 
     /tmp/ccKDvyKx.s:1155   .text:00000000000004d0 .L0 
GAS LISTING /tmp/ccKDvyKx.s 			page 41


     /tmp/ccKDvyKx.s:1157   .text:00000000000004d4 .L0 
     /tmp/ccKDvyKx.s:1163   .text:00000000000004d4 _ZN9Semaphore6signalEv
     /tmp/ccKDvyKx.s:1166   .text:00000000000004d4 .L0 
     /tmp/ccKDvyKx.s:1168   .text:00000000000004d4 .L0 
     /tmp/ccKDvyKx.s:1169   .text:00000000000004d8 .L0 
     /tmp/ccKDvyKx.s:1172   .text:00000000000004e0 .L0 
     /tmp/ccKDvyKx.s:1173   .text:00000000000004e0 .L0 
     /tmp/ccKDvyKx.s:1175   .text:00000000000004e4 .L0 
     /tmp/ccKDvyKx.s:1177   .text:00000000000004e4 .L0 
     /tmp/ccKDvyKx.s:1178   .text:00000000000004e4 .L0 
     /tmp/ccKDvyKx.s:1183   .text:00000000000004f0 .L0 
     /tmp/ccKDvyKx.s:1184   .text:00000000000004f4 .L0 
     /tmp/ccKDvyKx.s:1186   .text:00000000000004f8 .L0 
     /tmp/ccKDvyKx.s:1187   .text:00000000000004f8 .L0 
     /tmp/ccKDvyKx.s:1189   .text:00000000000004fc .L0 
     /tmp/ccKDvyKx.s:1191   .text:0000000000000500 .L0 
     /tmp/ccKDvyKx.s:1197   .text:0000000000000500 _ZN14PeriodicThread9terminateEv
     /tmp/ccKDvyKx.s:1200   .text:0000000000000500 .L0 
     /tmp/ccKDvyKx.s:1202   .text:0000000000000500 .L0 
     /tmp/ccKDvyKx.s:1203   .text:0000000000000504 .L0 
     /tmp/ccKDvyKx.s:1205   .text:0000000000000508 .L0 
     /tmp/ccKDvyKx.s:1207   .text:000000000000050c .L0 
     /tmp/ccKDvyKx.s:1209   .text:000000000000050c .L0 
     /tmp/ccKDvyKx.s:1210   .text:000000000000050c .L0 
     /tmp/ccKDvyKx.s:1213   .text:0000000000000514 .L0 
     /tmp/ccKDvyKx.s:1214   .text:0000000000000518 .L0 
     /tmp/ccKDvyKx.s:1215   .text:0000000000000518 .L0 
     /tmp/ccKDvyKx.s:1217   .text:000000000000051c .L0 
     /tmp/ccKDvyKx.s:1219   .text:0000000000000520 .L0 
     /tmp/ccKDvyKx.s:1225   .text:0000000000000520 _ZN14PeriodicThreadC2Em
     /tmp/ccKDvyKx.s:1228   .text:0000000000000520 .L0 
     /tmp/ccKDvyKx.s:1230   .text:0000000000000520 .L0 
     /tmp/ccKDvyKx.s:1231   .text:0000000000000524 .L0 
     /tmp/ccKDvyKx.s:1236   .text:0000000000000534 .L0 
     /tmp/ccKDvyKx.s:1237   .text:0000000000000534 .L0 
     /tmp/ccKDvyKx.s:1238   .text:0000000000000534 .L0 
     /tmp/ccKDvyKx.s:1239   .text:0000000000000534 .L0 
     /tmp/ccKDvyKx.s:1241   .text:0000000000000538 .L0 
     /tmp/ccKDvyKx.s:1246   .text:0000000000000540 .L0 
     /tmp/ccKDvyKx.s:1253   .text:0000000000000558 .L0 
     /tmp/ccKDvyKx.s:1254   .text:0000000000000558 .L0 
     /tmp/ccKDvyKx.s:1255   .text:000000000000055c .L0 
     /tmp/ccKDvyKx.s:1257   .text:0000000000000560 .L0 
     /tmp/ccKDvyKx.s:1258   .text:0000000000000560 .L0 
     /tmp/ccKDvyKx.s:1260   .text:0000000000000564 .L0 
     /tmp/ccKDvyKx.s:1263   .text:0000000000000568 .L0 
     /tmp/ccKDvyKx.s:1266   .text:000000000000056c .L0 
     /tmp/ccKDvyKx.s:1268   .text:0000000000000570 .L0 
     /tmp/ccKDvyKx.s:1225   .text:0000000000000520 _ZN14PeriodicThreadC1Em
     /tmp/ccKDvyKx.s:1276   .text:0000000000000570 _ZN7Console4getcEv
     /tmp/ccKDvyKx.s:1279   .text:0000000000000570 .L0 
     /tmp/ccKDvyKx.s:1280   .text:0000000000000570 .L0 
     /tmp/ccKDvyKx.s:1281   .text:0000000000000574 .L0 
     /tmp/ccKDvyKx.s:1284   .text:000000000000057c .L0 
     /tmp/ccKDvyKx.s:1285   .text:000000000000057c .L0 
     /tmp/ccKDvyKx.s:1287   .text:0000000000000580 .L0 
     /tmp/ccKDvyKx.s:1289   .text:0000000000000580 .L0 
GAS LISTING /tmp/ccKDvyKx.s 			page 42


     /tmp/ccKDvyKx.s:1290   .text:0000000000000580 .L0 
     /tmp/ccKDvyKx.s:1293   .text:0000000000000588 .L0 
     /tmp/ccKDvyKx.s:1294   .text:000000000000058c .L0 
     /tmp/ccKDvyKx.s:1296   .text:0000000000000590 .L0 
     /tmp/ccKDvyKx.s:1297   .text:0000000000000590 .L0 
     /tmp/ccKDvyKx.s:1299   .text:0000000000000594 .L0 
     /tmp/ccKDvyKx.s:1301   .text:0000000000000598 .L0 
     /tmp/ccKDvyKx.s:1307   .text:0000000000000598 _ZN7Console4putcEc
     /tmp/ccKDvyKx.s:1310   .text:0000000000000598 .L0 
     /tmp/ccKDvyKx.s:1312   .text:0000000000000598 .L0 
     /tmp/ccKDvyKx.s:1313   .text:000000000000059c .L0 
     /tmp/ccKDvyKx.s:1316   .text:00000000000005a4 .L0 
     /tmp/ccKDvyKx.s:1317   .text:00000000000005a4 .L0 
     /tmp/ccKDvyKx.s:1319   .text:00000000000005a8 .L0 
     /tmp/ccKDvyKx.s:1321   .text:00000000000005a8 .L0 
     /tmp/ccKDvyKx.s:1322   .text:00000000000005a8 .L0 
     /tmp/ccKDvyKx.s:1325   .text:00000000000005b0 .L0 
     /tmp/ccKDvyKx.s:1326   .text:00000000000005b4 .L0 
     /tmp/ccKDvyKx.s:1328   .text:00000000000005b8 .L0 
     /tmp/ccKDvyKx.s:1329   .text:00000000000005b8 .L0 
     /tmp/ccKDvyKx.s:1331   .text:00000000000005bc .L0 
     /tmp/ccKDvyKx.s:1333   .text:00000000000005c0 .L0 
     /tmp/ccKDvyKx.s:32     .text._ZN6Thread3runEv:0000000000000018 .L0 
     /tmp/ccKDvyKx.s:57     .text._ZN14PeriodicThread18periodicActivationEv:0000000000000018 .L0 
     /tmp/ccKDvyKx.s:1375   .text:00000000000005c0 .L0 
     /tmp/ccKDvyKx.s:248    .text._ZN14PeriodicThreadD2Ev:0000000000000034 .L0 
     /tmp/ccKDvyKx.s:549    .text._ZN14PeriodicThreadD0Ev:000000000000004c .L0 
     /tmp/ccKDvyKx.s:123    .text:000000000000004c .L0 
     /tmp/ccKDvyKx.s:272    .text:00000000000000c4 .L0 
     /tmp/ccKDvyKx.s:657    .text:000000000000026c .L0 
     /tmp/ccKDvyKx.s:999    .text:000000000000040c .L0 
     /tmp/ccKDvyKx.s:1004   .text:0000000000000418 .L0 
     /tmp/ccKDvyKx.s:1103   .text:0000000000000480 .L0 
     /tmp/ccKDvyKx.s:1248   .text:0000000000000548 .L0 
     /tmp/ccKDvyKx.s:95     .text:0000000000000030 .L8
     /tmp/ccKDvyKx.s:185    .text:0000000000000098 .L11
     /tmp/ccKDvyKx.s:174    .text:000000000000008c .L13
     /tmp/ccKDvyKx.s:137    .text:000000000000006c .L14
     /tmp/ccKDvyKx.s:333    .text:0000000000000110 .L19
     /tmp/ccKDvyKx.s:322    .text:0000000000000104 .L21
     /tmp/ccKDvyKx.s:286    .text:00000000000000e4 .L22
     /tmp/ccKDvyKx.s:738    .text:00000000000002cc .L41
     /tmp/ccKDvyKx.s:678    .text:0000000000000294 .L40
     /tmp/ccKDvyKx.s:802    .text:0000000000000304 .L45
     /tmp/ccKDvyKx.s:792    .text:00000000000002f8 .L44
     /tmp/ccKDvyKx.s:958    .text:00000000000003d8 .L54
     /tmp/ccKDvyKx.s:930    .text:00000000000003a4 .L55
     /tmp/ccKDvyKx.s:230    .text._ZN14PeriodicThreadD2Ev:0000000000000010 .L0 
     /tmp/ccKDvyKx.s:526    .text._ZN14PeriodicThreadD0Ev:0000000000000018 .L0 
     /tmp/ccKDvyKx.s:3834   .debug_abbrev:0000000000000000 .Ldebug_abbrev0
     /tmp/ccKDvyKx.s:6188   .debug_str:0000000000000a14 .LASF210
     /tmp/ccKDvyKx.s:6002   .debug_str:00000000000004c5 .LASF211
     /tmp/ccKDvyKx.s:6134   .debug_str:000000000000089a .LASF212
     /tmp/ccKDvyKx.s:5818   .debug_ranges:0000000000000000 .Ldebug_ranges0
     /tmp/ccKDvyKx.s:5838   .debug_line:0000000000000000 .Ldebug_line0
     /tmp/ccKDvyKx.s:6102   .debug_str:00000000000007c2 .LASF3
     /tmp/ccKDvyKx.s:5990   .debug_str:000000000000046b .LASF0
GAS LISTING /tmp/ccKDvyKx.s 			page 43


     /tmp/ccKDvyKx.s:6018   .debug_str:0000000000000545 .LASF1
     /tmp/ccKDvyKx.s:6116   .debug_str:0000000000000822 .LASF2
     /tmp/ccKDvyKx.s:6128   .debug_str:0000000000000874 .LASF4
     /tmp/ccKDvyKx.s:6004   .debug_str:00000000000004d9 .LASF5
     /tmp/ccKDvyKx.s:5856   .debug_str:0000000000000090 .LASF6
     /tmp/ccKDvyKx.s:6082   .debug_str:000000000000072d .LASF7
     /tmp/ccKDvyKx.s:6076   .debug_str:00000000000006f2 .LASF8
     /tmp/ccKDvyKx.s:6010   .debug_str:0000000000000515 .LASF9
     /tmp/ccKDvyKx.s:5960   .debug_str:0000000000000376 .LASF10
     /tmp/ccKDvyKx.s:5972   .debug_str:00000000000003e8 .LASF11
     /tmp/ccKDvyKx.s:5896   .debug_str:00000000000001a7 .LASF12
     /tmp/ccKDvyKx.s:5954   .debug_str:000000000000034a .LASF13
     /tmp/ccKDvyKx.s:5912   .debug_str:0000000000000214 .LASF14
     /tmp/ccKDvyKx.s:5894   .debug_str:0000000000000197 .LASF15
     /tmp/ccKDvyKx.s:6160   .debug_str:0000000000000972 .LASF16
     /tmp/ccKDvyKx.s:5942   .debug_str:00000000000002d8 .LASF17
     /tmp/ccKDvyKx.s:6150   .debug_str:0000000000000928 .LASF18
     /tmp/ccKDvyKx.s:6236   .debug_str:0000000000000c19 .LASF19
     /tmp/ccKDvyKx.s:6140   .debug_str:00000000000008d5 .LASF213
     /tmp/ccKDvyKx.s:6086   .debug_str:0000000000000746 .LASF20
     /tmp/ccKDvyKx.s:5926   .debug_str:000000000000028e .LASF21
     /tmp/ccKDvyKx.s:6034   .debug_str:00000000000005bb .LASF22
     /tmp/ccKDvyKx.s:5858   .debug_str:0000000000000097 .LASF23
     /tmp/ccKDvyKx.s:5904   .debug_str:00000000000001d7 .LASF24
     /tmp/ccKDvyKx.s:5884   .debug_str:0000000000000151 .LASF25
     /tmp/ccKDvyKx.s:6166   .debug_str:000000000000098e .LASF105
     /tmp/ccKDvyKx.s:5900   .debug_str:00000000000001bb .LASF26
     /tmp/ccKDvyKx.s:5974   .debug_str:00000000000003f6 .LASF28
     /tmp/ccKDvyKx.s:5992   .debug_str:0000000000000478 .LASF30
     /tmp/ccKDvyKx.s:6032   .debug_str:00000000000005a7 .LASF32
     /tmp/ccKDvyKx.s:6158   .debug_str:0000000000000965 .LASF27
     /tmp/ccKDvyKx.s:6246   .debug_str:0000000000000c68 .LASF29
     /tmp/ccKDvyKx.s:6070   .debug_str:00000000000006cb .LASF214
     /tmp/ccKDvyKx.s:6262   .debug_str:0000000000000ce4 .LASF38
     /tmp/ccKDvyKx.s:6006   .debug_str:00000000000004eb .LASF40
     /tmp/ccKDvyKx.s:6026   .debug_str:0000000000000579 .LASF31
     /tmp/ccKDvyKx.s:6098   .debug_str:000000000000079a .LASF33
     /tmp/ccKDvyKx.s:5930   .debug_str:000000000000029a .LASF34
     /tmp/ccKDvyKx.s:6124   .debug_str:000000000000084e .LASF35
     /tmp/ccKDvyKx.s:6090   .debug_str:0000000000000769 .LASF36
     /tmp/ccKDvyKx.s:6036   .debug_str:00000000000005c3 .LASF37
     /tmp/ccKDvyKx.s:5962   .debug_str:0000000000000386 .LASF42
     /tmp/ccKDvyKx.s:6146   .debug_str:00000000000008ff .LASF44
     /tmp/ccKDvyKx.s:5842   .debug_str:000000000000002a .LASF39
     /tmp/ccKDvyKx.s:6176   .debug_str:00000000000009b8 .LASF41
     /tmp/ccKDvyKx.s:6214   .debug_str:0000000000000b9c .LASF43
     /tmp/ccKDvyKx.s:6066   .debug_str:00000000000006a5 .LASF45
     /tmp/ccKDvyKx.s:6212   .debug_str:0000000000000b91 .LASF46
     /tmp/ccKDvyKx.s:5956   .debug_str:0000000000000359 .LASF47
     /tmp/ccKDvyKx.s:6238   .debug_str:0000000000000c22 .LASF48
     /tmp/ccKDvyKx.s:5952   .debug_str:0000000000000331 .LASF50
     /tmp/ccKDvyKx.s:5932   .debug_str:00000000000002a7 .LASF49
     /tmp/ccKDvyKx.s:5908   .debug_str:00000000000001ef .LASF51
     /tmp/ccKDvyKx.s:6228   .debug_str:0000000000000bef .LASF52
     /tmp/ccKDvyKx.s:5864   .debug_str:00000000000000ce .LASF53
     /tmp/ccKDvyKx.s:6270   .debug_str:0000000000000d12 .LASF54
     /tmp/ccKDvyKx.s:5968   .debug_str:00000000000003c9 .LASF55
GAS LISTING /tmp/ccKDvyKx.s 			page 44


     /tmp/ccKDvyKx.s:5846   .debug_str:000000000000003a .LASF56
     /tmp/ccKDvyKx.s:6062   .debug_str:0000000000000690 .LASF57
     /tmp/ccKDvyKx.s:6258   .debug_str:0000000000000cc0 .LASF215
     /tmp/ccKDvyKx.s:6206   .debug_str:0000000000000b5f .LASF58
     /tmp/ccKDvyKx.s:5892   .debug_str:0000000000000188 .LASF59
     /tmp/ccKDvyKx.s:6264   .debug_str:0000000000000cea .LASF60
     /tmp/ccKDvyKx.s:6222   .debug_str:0000000000000bca .LASF61
     /tmp/ccKDvyKx.s:6194   .debug_str:0000000000000b02 .LASF62
     /tmp/ccKDvyKx.s:6186   .debug_str:0000000000000a04 .LASF63
     /tmp/ccKDvyKx.s:6074   .debug_str:00000000000006e6 .LASF64
     /tmp/ccKDvyKx.s:5948   .debug_str:0000000000000315 .LASF65
     /tmp/ccKDvyKx.s:6126   .debug_str:0000000000000866 .LASF66
     /tmp/ccKDvyKx.s:6234   .debug_str:0000000000000c12 .LASF67
     /tmp/ccKDvyKx.s:6184   .debug_str:00000000000009fc .LASF68
     /tmp/ccKDvyKx.s:5888   .debug_str:000000000000016a .LASF69
     /tmp/ccKDvyKx.s:5920   .debug_str:0000000000000253 .LASF99
     /tmp/ccKDvyKx.s:5850   .debug_str:0000000000000052 .LASF101
     /tmp/ccKDvyKx.s:6130   .debug_str:000000000000087b .LASF92
     /tmp/ccKDvyKx.s:5852   .debug_str:000000000000007a .LASF94
     /tmp/ccKDvyKx.s:6256   .debug_str:0000000000000cba .LASF70
     /tmp/ccKDvyKx.s:6152   .debug_str:000000000000093e .LASF71
     /tmp/ccKDvyKx.s:6016   .debug_str:000000000000053d .LASF72
     /tmp/ccKDvyKx.s:6060   .debug_str:000000000000067d .LASF73
     /tmp/ccKDvyKx.s:5934   .debug_str:00000000000002b0 .LASF74
     /tmp/ccKDvyKx.s:5938   .debug_str:00000000000002bb .LASF75
     /tmp/ccKDvyKx.s:6164   .debug_str:0000000000000987 .LASF76
     /tmp/ccKDvyKx.s:5874   .debug_str:0000000000000123 .LASF77
     /tmp/ccKDvyKx.s:6248   .debug_str:0000000000000c8a .LASF78
     /tmp/ccKDvyKx.s:6052   .debug_str:000000000000063f .LASF79
     /tmp/ccKDvyKx.s:5940   .debug_str:00000000000002cb .LASF80
     /tmp/ccKDvyKx.s:6218   .debug_str:0000000000000bb6 .LASF81
     /tmp/ccKDvyKx.s:5988   .debug_str:0000000000000465 .LASF82
     /tmp/ccKDvyKx.s:6180   .debug_str:00000000000009d5 .LASF83
     /tmp/ccKDvyKx.s:5848   .debug_str:000000000000004a .LASF84
     /tmp/ccKDvyKx.s:5860   .debug_str:000000000000009f .LASF85
     /tmp/ccKDvyKx.s:6244   .debug_str:0000000000000c5b .LASF86
     /tmp/ccKDvyKx.s:6210   .debug_str:0000000000000b81 .LASF87
     /tmp/ccKDvyKx.s:6120   .debug_str:000000000000083f .LASF88
     /tmp/ccKDvyKx.s:6012   .debug_str:0000000000000528 .LASF89
     /tmp/ccKDvyKx.s:6064   .debug_str:000000000000069d .LASF90
     /tmp/ccKDvyKx.s:6226   .debug_str:0000000000000be7 .LASF91
     /tmp/ccKDvyKx.s:5936   .debug_str:00000000000002b5 .LASF93
     /tmp/ccKDvyKx.s:6204   .debug_str:0000000000000b52 .LASF95
     /tmp/ccKDvyKx.s:6038   .debug_str:00000000000005d5 .LASF96
     /tmp/ccKDvyKx.s:6254   .debug_str:0000000000000cb5 .LASF97
     /tmp/ccKDvyKx.s:5924   .debug_str:000000000000027b .LASF98
     /tmp/ccKDvyKx.s:6042   .debug_str:00000000000005e9 .LASF100
     /tmp/ccKDvyKx.s:6252   .debug_str:0000000000000ca2 .LASF102
     /tmp/ccKDvyKx.s:6172   .debug_str:00000000000009a9 .LASF103
     /tmp/ccKDvyKx.s:6054   .debug_str:0000000000000655 .LASF104
     /tmp/ccKDvyKx.s:5928   .debug_str:0000000000000295 .LASF106
     /tmp/ccKDvyKx.s:6202   .debug_str:0000000000000b4d .LASF107
     /tmp/ccKDvyKx.s:5898   .debug_str:00000000000001b6 .LASF108
     /tmp/ccKDvyKx.s:5946   .debug_str:00000000000002f7 .LASF109
     /tmp/ccKDvyKx.s:5922   .debug_str:0000000000000261 .LASF110
     /tmp/ccKDvyKx.s:6088   .debug_str:000000000000074e .LASF152
     /tmp/ccKDvyKx.s:6216   .debug_str:0000000000000bb0 .LASF111
GAS LISTING /tmp/ccKDvyKx.s 			page 45


     /tmp/ccKDvyKx.s:6014   .debug_str:0000000000000538 .LASF112
     /tmp/ccKDvyKx.s:5870   .debug_str:00000000000000fb .LASF113
     /tmp/ccKDvyKx.s:5966   .debug_str:00000000000003b1 .LASF114
     /tmp/ccKDvyKx.s:6078   .debug_str:0000000000000705 .LASF139
     /tmp/ccKDvyKx.s:6168   .debug_str:0000000000000996 .LASF115
     /tmp/ccKDvyKx.s:5916   .debug_str:0000000000000239 .LASF116
     /tmp/ccKDvyKx.s:5996   .debug_str:0000000000000493 .LASF117
     /tmp/ccKDvyKx.s:5862   .debug_str:00000000000000b2 .LASF118
     /tmp/ccKDvyKx.s:6020   .debug_str:0000000000000558 .LASF119
     /tmp/ccKDvyKx.s:6050   .debug_str:0000000000000620 .LASF120
     /tmp/ccKDvyKx.s:5882   .debug_str:0000000000000148 .LASF121
     /tmp/ccKDvyKx.s:6048   .debug_str:0000000000000604 .LASF122
     /tmp/ccKDvyKx.s:5914   .debug_str:0000000000000224 .LASF123
     /tmp/ccKDvyKx.s:6240   .debug_str:0000000000000c30 .LASF124
     /tmp/ccKDvyKx.s:6104   .debug_str:00000000000007c7 .LASF125
     /tmp/ccKDvyKx.s:5906   .debug_str:00000000000001e0 .LASF126
     /tmp/ccKDvyKx.s:6208   .debug_str:0000000000000b67 .LASF127
     /tmp/ccKDvyKx.s:5998   .debug_str:000000000000049b .LASF128
     /tmp/ccKDvyKx.s:6174   .debug_str:00000000000009ae .LASF129
     /tmp/ccKDvyKx.s:5964   .debug_str:0000000000000391 .LASF130
     /tmp/ccKDvyKx.s:6008   .debug_str:00000000000004fd .LASF131
     /tmp/ccKDvyKx.s:5970   .debug_str:00000000000003d5 .LASF132
     /tmp/ccKDvyKx.s:5840   .debug_str:0000000000000000 .LASF216
     /tmp/ccKDvyKx.s:6132   .debug_str:0000000000000880 .LASF148
     /tmp/ccKDvyKx.s:5878   .debug_str:000000000000013a .LASF133
     /tmp/ccKDvyKx.s:6058   .debug_str:000000000000066d .LASF134
     /tmp/ccKDvyKx.s:6224   .debug_str:0000000000000bcf .LASF217
     /tmp/ccKDvyKx.s:5980   .debug_str:0000000000000434 .LASF135
     /tmp/ccKDvyKx.s:5910   .debug_str:0000000000000202 .LASF136
     /tmp/ccKDvyKx.s:6110   .debug_str:00000000000007f6 .LASF156
     /tmp/ccKDvyKx.s:6274   .debug_str:0000000000000d28 .LASF137
     /tmp/ccKDvyKx.s:6144   .debug_str:00000000000008f7 .LASF138
     /tmp/ccKDvyKx.s:5950   .debug_str:0000000000000322 .LASF140
     /tmp/ccKDvyKx.s:6024   .debug_str:0000000000000566 .LASF141
     /tmp/ccKDvyKx.s:6178   .debug_str:00000000000009d0 .LASF142
     /tmp/ccKDvyKx.s:6084   .debug_str:0000000000000734 .LASF143
     /tmp/ccKDvyKx.s:6072   .debug_str:00000000000006d0 .LASF144
     /tmp/ccKDvyKx.s:6022   .debug_str:0000000000000560 .LASF145
     /tmp/ccKDvyKx.s:6190   .debug_str:0000000000000ad8 .LASF146
     /tmp/ccKDvyKx.s:6000   .debug_str:00000000000004b6 .LASF147
     /tmp/ccKDvyKx.s:5984   .debug_str:0000000000000444 .LASF149
     /tmp/ccKDvyKx.s:5944   .debug_str:00000000000002ee .LASF150
     /tmp/ccKDvyKx.s:5844   .debug_str:0000000000000035 .LASF151
     /tmp/ccKDvyKx.s:6182   .debug_str:00000000000009e6 .LASF153
     /tmp/ccKDvyKx.s:6154   .debug_str:0000000000000943 .LASF154
     /tmp/ccKDvyKx.s:6108   .debug_str:00000000000007e1 .LASF155
     /tmp/ccKDvyKx.s:6266   .debug_str:0000000000000cf0 .LASF157
     /tmp/ccKDvyKx.s:6230   .debug_str:0000000000000bf7 .LASF158
     /tmp/ccKDvyKx.s:6094   .debug_str:0000000000000785 .LASF159
     /tmp/ccKDvyKx.s:6136   .debug_str:00000000000008b8 .LASF160
     /tmp/ccKDvyKx.s:6196   .debug_str:0000000000000b0c .LASF161
     /tmp/ccKDvyKx.s:6198   .debug_str:0000000000000b21 .LASF162
     /tmp/ccKDvyKx.s:5986   .debug_str:0000000000000455 .LASF218
     /tmp/ccKDvyKx.s:5958   .debug_str:0000000000000371 .LASF163
     /tmp/ccKDvyKx.s:5854   .debug_str:0000000000000086 .LASF164
     /tmp/ccKDvyKx.s:6276   .debug_str:0000000000000d3f .LASF165
     /tmp/ccKDvyKx.s:507    .text._ZN14PeriodicThreadD0Ev:0000000000000000 .LFB78
GAS LISTING /tmp/ccKDvyKx.s 			page 46


     /tmp/ccKDvyKx.s:547    .text._ZN14PeriodicThreadD0Ev:000000000000004c .LFE78
     /tmp/ccKDvyKx.s:5271   .debug_loc:0000000000000000 .LLST12
     /tmp/ccKDvyKx.s:523    .text._ZN14PeriodicThreadD0Ev:0000000000000018 .LBB73
     /tmp/ccKDvyKx.s:531    .text._ZN14PeriodicThreadD0Ev:000000000000002c .LBE73
     /tmp/ccKDvyKx.s:5289   .debug_loc:000000000000004c .LLST13
     /tmp/ccKDvyKx.s:529    .text._ZN14PeriodicThreadD0Ev:000000000000002c .LVL37
     /tmp/ccKDvyKx.s:534    .text._ZN14PeriodicThreadD0Ev:0000000000000038 .LVL38
     /tmp/ccKDvyKx.s:6114   .debug_str:000000000000080a .LASF166
     /tmp/ccKDvyKx.s:216    .text._ZN14PeriodicThreadD2Ev:0000000000000000 .LFB76
     /tmp/ccKDvyKx.s:244    .text._ZN14PeriodicThreadD2Ev:0000000000000034 .LFE76
     /tmp/ccKDvyKx.s:5300   .debug_loc:0000000000000082 .LLST4
     /tmp/ccKDvyKx.s:233    .text._ZN14PeriodicThreadD2Ev:0000000000000024 .LVL15
     /tmp/ccKDvyKx.s:1308   .text:0000000000000598 .LFB74
     /tmp/ccKDvyKx.s:1334   .text:00000000000005c0 .LFE74
     /tmp/ccKDvyKx.s:5314   .debug_loc:00000000000000bb .LLST32
     /tmp/ccKDvyKx.s:1323   .text:00000000000005b0 .LVL96
     /tmp/ccKDvyKx.s:1277   .text:0000000000000570 .LFB73
     /tmp/ccKDvyKx.s:1302   .text:0000000000000598 .LFE73
     /tmp/ccKDvyKx.s:1291   .text:0000000000000588 .LVL94
     /tmp/ccKDvyKx.s:914    .text:000000000000038c .LFB72
     /tmp/ccKDvyKx.s:976    .text:00000000000003f4 .LFE72
     /tmp/ccKDvyKx.s:5328   .debug_loc:00000000000000f4 .LLST23
     /tmp/ccKDvyKx.s:945    .text:00000000000003c0 .LVL68
     /tmp/ccKDvyKx.s:955    .text:00000000000003d4 .LVL69
     /tmp/ccKDvyKx.s:962    .text:00000000000003e0 .LVL70
     /tmp/ccKDvyKx.s:6156   .debug_str:000000000000094d .LASF167
     /tmp/ccKDvyKx.s:1226   .text:0000000000000520 .LFB70
     /tmp/ccKDvyKx.s:1269   .text:0000000000000570 .LFE70
     /tmp/ccKDvyKx.s:5346   .debug_loc:0000000000000140 .LLST30
     /tmp/ccKDvyKx.s:5364   .debug_loc:000000000000018c .LLST31
     /tmp/ccKDvyKx.s:1247   .text:0000000000000548 .LVL91
     /tmp/ccKDvyKx.s:1198   .text:0000000000000500 .LFB68
     /tmp/ccKDvyKx.s:1220   .text:0000000000000520 .LFE68
     /tmp/ccKDvyKx.s:1164   .text:00000000000004d4 .LFB67
     /tmp/ccKDvyKx.s:1192   .text:0000000000000500 .LFE67
     /tmp/ccKDvyKx.s:5383   .debug_loc:00000000000001d9 .LLST29
     /tmp/ccKDvyKx.s:1181   .text:00000000000004f0 .LVL88
     /tmp/ccKDvyKx.s:1130   .text:00000000000004a8 .LFB66
     /tmp/ccKDvyKx.s:1158   .text:00000000000004d4 .LFE66
     /tmp/ccKDvyKx.s:5397   .debug_loc:0000000000000212 .LLST28
     /tmp/ccKDvyKx.s:1147   .text:00000000000004c4 .LVL85
     /tmp/ccKDvyKx.s:6028   .debug_str:0000000000000586 .LASF168
     /tmp/ccKDvyKx.s:554    .text:00000000000001dc .LFB65
     /tmp/ccKDvyKx.s:587    .text:000000000000021c .LFE65
     /tmp/ccKDvyKx.s:5411   .debug_loc:000000000000024b .LLST14
     /tmp/ccKDvyKx.s:571    .text:00000000000001fc .LVL41
     /tmp/ccKDvyKx.s:574    .text:0000000000000208 .LVL42
     /tmp/ccKDvyKx.s:5866   .debug_str:00000000000000e0 .LASF169
     /tmp/ccKDvyKx.s:253    .text:00000000000000ac .LFB63
     /tmp/ccKDvyKx.s:347    .text:0000000000000124 .LFE63
     /tmp/ccKDvyKx.s:5429   .debug_loc:0000000000000297 .LLST5
     /tmp/ccKDvyKx.s:287    .text:00000000000000e4 .LBB65
     /tmp/ccKDvyKx.s:328    .text:0000000000000104 .LBE65
     /tmp/ccKDvyKx.s:288    .text:00000000000000e4 .LBB66
     /tmp/ccKDvyKx.s:327    .text:0000000000000104 .LBE66
     /tmp/ccKDvyKx.s:293    .text:00000000000000e4 .LBB68
     /tmp/ccKDvyKx.s:299    .text:00000000000000e8 .LBE68
GAS LISTING /tmp/ccKDvyKx.s 			page 47


     /tmp/ccKDvyKx.s:302    .text:00000000000000ec .LBB70
     /tmp/ccKDvyKx.s:325    .text:0000000000000104 .LBE70
     /tmp/ccKDvyKx.s:5447   .debug_loc:00000000000002e3 .LLST6
     /tmp/ccKDvyKx.s:314    .text:00000000000000f8 .LBB71
     /tmp/ccKDvyKx.s:324    .text:0000000000000104 .LBE71
     /tmp/ccKDvyKx.s:5454   .debug_loc:0000000000000306 .LLST7
     /tmp/ccKDvyKx.s:319    .text:0000000000000100 .LVL23
     /tmp/ccKDvyKx.s:279    .text:00000000000000dc .LVL18
     /tmp/ccKDvyKx.s:332    .text:0000000000000110 .LVL24
     /tmp/ccKDvyKx.s:5890   .debug_str:000000000000017b .LASF176
     /tmp/ccKDvyKx.s:5876   .debug_str:0000000000000135 .LASF170
     /tmp/ccKDvyKx.s:5902   .debug_str:00000000000001c5 .LASF171
     /tmp/ccKDvyKx.s:1089   .text:0000000000000470 .LFB57
     /tmp/ccKDvyKx.s:1122   .text:00000000000004a8 .LFE57
     /tmp/ccKDvyKx.s:5461   .debug_loc:0000000000000329 .LLST26
     /tmp/ccKDvyKx.s:5481   .debug_loc:0000000000000377 .LLST27
     /tmp/ccKDvyKx.s:1110   .text:0000000000000498 .LVL82
     /tmp/ccKDvyKx.s:62     .text:0000000000000000 .LFB55
     /tmp/ccKDvyKx.s:98     .text:0000000000000034 .LFE55
     /tmp/ccKDvyKx.s:6112   .debug_str:0000000000000803 .LASF172
     /tmp/ccKDvyKx.s:5495   .debug_loc:00000000000003b0 .LLST0
     /tmp/ccKDvyKx.s:84     .text:0000000000000020 .LVL3
     /tmp/ccKDvyKx.s:6118   .debug_str:0000000000000830 .LASF173
     /tmp/ccKDvyKx.s:982    .text:00000000000003f4 .LFB53
     /tmp/ccKDvyKx.s:1081   .text:0000000000000470 .LFE53
     /tmp/ccKDvyKx.s:5513   .debug_loc:00000000000003fc .LLST24
     /tmp/ccKDvyKx.s:1017   .text:0000000000000434 .LVL75
     /tmp/ccKDvyKx.s:1001   .text:0000000000000418 .LBB80
     /tmp/ccKDvyKx.s:1066   .text:000000000000045c .LBE80
     /tmp/ccKDvyKx.s:5537   .debug_loc:000000000000045d .LLST25
     /tmp/ccKDvyKx.s:880    .text:0000000000000360 .LFB51
     /tmp/ccKDvyKx.s:908    .text:000000000000038c .LFE51
     /tmp/ccKDvyKx.s:5549   .debug_loc:0000000000000494 .LLST22
     /tmp/ccKDvyKx.s:895    .text:0000000000000378 .LVL65
     /tmp/ccKDvyKx.s:849    .text:0000000000000338 .LFB50
     /tmp/ccKDvyKx.s:874    .text:0000000000000360 .LFE50
     /tmp/ccKDvyKx.s:863    .text:0000000000000350 .LVL63
     /tmp/ccKDvyKx.s:815    .text:000000000000030c .LFB49
     /tmp/ccKDvyKx.s:843    .text:0000000000000338 .LFE49
     /tmp/ccKDvyKx.s:5563   .debug_loc:00000000000004cd .LLST21
     /tmp/ccKDvyKx.s:832    .text:0000000000000328 .LVL62
     /tmp/ccKDvyKx.s:756    .text:00000000000002d4 .LFB48
     /tmp/ccKDvyKx.s:809    .text:000000000000030c .LFE48
     /tmp/ccKDvyKx.s:5577   .debug_loc:0000000000000506 .LLST20
     /tmp/ccKDvyKx.s:6030   .debug_str:0000000000000598 .LASF174
     /tmp/ccKDvyKx.s:467    .text:000000000000019c .LFB47
     /tmp/ccKDvyKx.s:500    .text:00000000000001dc .LFE47
     /tmp/ccKDvyKx.s:5602   .debug_loc:0000000000000568 .LLST11
     /tmp/ccKDvyKx.s:484    .text:00000000000001bc .LVL32
     /tmp/ccKDvyKx.s:487    .text:00000000000001c8 .LVL33
     /tmp/ccKDvyKx.s:6250   .debug_str:0000000000000c93 .LASF175
     /tmp/ccKDvyKx.s:104    .text:0000000000000034 .LFB45
     /tmp/ccKDvyKx.s:199    .text:00000000000000ac .LFE45
     /tmp/ccKDvyKx.s:5620   .debug_loc:00000000000005b4 .LLST1
     /tmp/ccKDvyKx.s:138    .text:000000000000006c .LBB55
     /tmp/ccKDvyKx.s:180    .text:000000000000008c .LBE55
     /tmp/ccKDvyKx.s:139    .text:000000000000006c .LBB56
GAS LISTING /tmp/ccKDvyKx.s 			page 48


     /tmp/ccKDvyKx.s:179    .text:000000000000008c .LBE56
     /tmp/ccKDvyKx.s:145    .text:000000000000006c .LBB58
     /tmp/ccKDvyKx.s:151    .text:0000000000000070 .LBE58
     /tmp/ccKDvyKx.s:154    .text:0000000000000074 .LBB60
     /tmp/ccKDvyKx.s:177    .text:000000000000008c .LBE60
     /tmp/ccKDvyKx.s:5638   .debug_loc:0000000000000600 .LLST2
     /tmp/ccKDvyKx.s:166    .text:0000000000000080 .LBB61
     /tmp/ccKDvyKx.s:176    .text:000000000000008c .LBE61
     /tmp/ccKDvyKx.s:5645   .debug_loc:0000000000000623 .LLST3
     /tmp/ccKDvyKx.s:171    .text:0000000000000088 .LVL12
     /tmp/ccKDvyKx.s:130    .text:0000000000000064 .LVL7
     /tmp/ccKDvyKx.s:184    .text:0000000000000098 .LVL13
     /tmp/ccKDvyKx.s:6046   .debug_str:00000000000005f8 .LASF177
     /tmp/ccKDvyKx.s:6192   .debug_str:0000000000000aeb .LASF178
     /tmp/ccKDvyKx.s:634    .text:0000000000000244 .LFB39
     /tmp/ccKDvyKx.s:748    .text:00000000000002d4 .LFE39
     /tmp/ccKDvyKx.s:5652   .debug_loc:0000000000000646 .LLST16
     /tmp/ccKDvyKx.s:5680   .debug_loc:00000000000006ba .LLST17
     /tmp/ccKDvyKx.s:5702   .debug_loc:0000000000000719 .LLST18
     /tmp/ccKDvyKx.s:675    .text:0000000000000290 .LVL49
     /tmp/ccKDvyKx.s:5724   .debug_loc:0000000000000778 .LLST19
     /tmp/ccKDvyKx.s:6148   .debug_str:0000000000000915 .LASF179
     /tmp/ccKDvyKx.s:5880   .debug_str:0000000000000141 .LASF180
     /tmp/ccKDvyKx.s:593    .text:000000000000021c .LFB37
     /tmp/ccKDvyKx.s:621    .text:0000000000000244 .LFE37
     /tmp/ccKDvyKx.s:5741   .debug_loc:00000000000007c3 .LLST15
     /tmp/ccKDvyKx.s:610    .text:0000000000000234 .LVL45
     /tmp/ccKDvyKx.s:6068   .debug_str:00000000000006c4 .LASF181
     /tmp/ccKDvyKx.s:426    .text:0000000000000174 .LFB36
     /tmp/ccKDvyKx.s:454    .text:000000000000019c .LFE36
     /tmp/ccKDvyKx.s:5755   .debug_loc:00000000000007fc .LLST10
     /tmp/ccKDvyKx.s:443    .text:000000000000018c .LVL30
     /tmp/ccKDvyKx.s:5886   .debug_str:000000000000015a .LASF182
     /tmp/ccKDvyKx.s:6170   .debug_str:00000000000009a3 .LASF183
     /tmp/ccKDvyKx.s:394    .text:000000000000014c .LFB35
     /tmp/ccKDvyKx.s:420    .text:0000000000000174 .LFE35
     /tmp/ccKDvyKx.s:5918   .debug_str:000000000000024e .LASF184
     /tmp/ccKDvyKx.s:5769   .debug_loc:0000000000000835 .LLST9
     /tmp/ccKDvyKx.s:409    .text:0000000000000164 .LVL28
     /tmp/ccKDvyKx.s:6220   .debug_str:0000000000000bc4 .LASF185
     /tmp/ccKDvyKx.s:362    .text:0000000000000124 .LFB34
     /tmp/ccKDvyKx.s:388    .text:000000000000014c .LFE34
     /tmp/ccKDvyKx.s:5783   .debug_loc:000000000000086e .LLST8
     /tmp/ccKDvyKx.s:377    .text:000000000000013c .LVL26
     /tmp/ccKDvyKx.s:6122   .debug_str:0000000000000849 .LASF186
     /tmp/ccKDvyKx.s:6200   .debug_str:0000000000000b38 .LASF187
     /tmp/ccKDvyKx.s:37     .text._ZN14PeriodicThread18periodicActivationEv:0000000000000000 .LFB1
     /tmp/ccKDvyKx.s:55     .text._ZN14PeriodicThread18periodicActivationEv:0000000000000018 .LFE1
     /tmp/ccKDvyKx.s:11     .text._ZN6Thread3runEv:0000000000000000 .LFB0
     /tmp/ccKDvyKx.s:30     .text._ZN6Thread3runEv:0000000000000018 .LFE0
     /tmp/ccKDvyKx.s:6162   .debug_str:000000000000097e .LASF188
     /tmp/ccKDvyKx.s:6232   .debug_str:0000000000000c09 .LASF189
     /tmp/ccKDvyKx.s:5994   .debug_str:0000000000000482 .LASF190
     /tmp/ccKDvyKx.s:6040   .debug_str:00000000000005dd .LASF191
     /tmp/ccKDvyKx.s:6106   .debug_str:00000000000007cc .LASF192
     /tmp/ccKDvyKx.s:5978   .debug_str:0000000000000429 .LASF193
     /tmp/ccKDvyKx.s:6268   .debug_str:0000000000000d00 .LASF194
GAS LISTING /tmp/ccKDvyKx.s 			page 49


     /tmp/ccKDvyKx.s:6272   .debug_str:0000000000000d1f .LASF195
     /tmp/ccKDvyKx.s:6260   .debug_str:0000000000000cd6 .LASF196
     /tmp/ccKDvyKx.s:5982   .debug_str:000000000000043b .LASF197
     /tmp/ccKDvyKx.s:5872   .debug_str:0000000000000110 .LASF198
     /tmp/ccKDvyKx.s:6096   .debug_str:0000000000000790 .LASF199
     /tmp/ccKDvyKx.s:6092   .debug_str:0000000000000771 .LASF200
     /tmp/ccKDvyKx.s:5868   .debug_str:00000000000000f2 .LASF201
     /tmp/ccKDvyKx.s:5976   .debug_str:000000000000041b .LASF202
     /tmp/ccKDvyKx.s:6044   .debug_str:00000000000005ee .LASF203
     /tmp/ccKDvyKx.s:6080   .debug_str:000000000000071d .LASF204
     /tmp/ccKDvyKx.s:6138   .debug_str:00000000000008ca .LASF205
     /tmp/ccKDvyKx.s:6242   .debug_str:0000000000000c46 .LASF206
     /tmp/ccKDvyKx.s:6100   .debug_str:00000000000007b2 .LASF207
     /tmp/ccKDvyKx.s:6142   .debug_str:00000000000008e2 .LASF208
     /tmp/ccKDvyKx.s:6056   .debug_str:0000000000000661 .LASF209
     /tmp/ccKDvyKx.s:510    .text._ZN14PeriodicThreadD0Ev:0000000000000000 .LVL35
     /tmp/ccKDvyKx.s:542    .text._ZN14PeriodicThreadD0Ev:0000000000000044 .LVL39
     /tmp/ccKDvyKx.s:522    .text._ZN14PeriodicThreadD0Ev:0000000000000018 .LVL36
     /tmp/ccKDvyKx.s:219    .text._ZN14PeriodicThreadD2Ev:0000000000000000 .LVL14
     /tmp/ccKDvyKx.s:1311   .text:0000000000000598 .LVL95
     /tmp/ccKDvyKx.s:917    .text:000000000000038c .LVL66
     /tmp/ccKDvyKx.s:929    .text:00000000000003a4 .LVL67
     /tmp/ccKDvyKx.s:971    .text:00000000000003ec .LVL71
     /tmp/ccKDvyKx.s:1229   .text:0000000000000520 .LVL90
     /tmp/ccKDvyKx.s:1261   .text:0000000000000564 .LVL92
     /tmp/ccKDvyKx.s:1264   .text:0000000000000568 .LVL93
     /tmp/ccKDvyKx.s:1167   .text:00000000000004d4 .LVL86
     /tmp/ccKDvyKx.s:1179   .text:00000000000004e8 .LVL87
     /tmp/ccKDvyKx.s:1133   .text:00000000000004a8 .LVL83
     /tmp/ccKDvyKx.s:1145   .text:00000000000004bc .LVL84
     /tmp/ccKDvyKx.s:557    .text:00000000000001dc .LVL40
     /tmp/ccKDvyKx.s:582    .text:0000000000000214 .LVL43
     /tmp/ccKDvyKx.s:258    .text:00000000000000ac .LVL16
     /tmp/ccKDvyKx.s:277    .text:00000000000000d4 .LVL17
     /tmp/ccKDvyKx.s:283    .text:00000000000000e0 .LVL19
     /tmp/ccKDvyKx.s:304    .text:00000000000000ec .LVL21
     /tmp/ccKDvyKx.s:313    .text:00000000000000f8 .LVL22
     /tmp/ccKDvyKx.s:1092   .text:0000000000000470 .LVL80
     /tmp/ccKDvyKx.s:1108   .text:0000000000000490 .LVL81
     /tmp/ccKDvyKx.s:66     .text:0000000000000000 .LVL2
     /tmp/ccKDvyKx.s:94     .text:0000000000000030 .LVL4
     /tmp/ccKDvyKx.s:985    .text:00000000000003f4 .LVL72
     /tmp/ccKDvyKx.s:1015   .text:000000000000042c .LVL74
     /tmp/ccKDvyKx.s:1049   .text:0000000000000450 .LVL78
     /tmp/ccKDvyKx.s:1076   .text:0000000000000468 .LVL79
     /tmp/ccKDvyKx.s:1010   .text:0000000000000428 .LVL73
     /tmp/ccKDvyKx.s:1019   .text:0000000000000438 .LVL76
     /tmp/ccKDvyKx.s:1030   .text:0000000000000440 .LVL77
     /tmp/ccKDvyKx.s:883    .text:0000000000000360 .LVL64
     /tmp/ccKDvyKx.s:818    .text:000000000000030c .LVL60
     /tmp/ccKDvyKx.s:830    .text:0000000000000320 .LVL61
     /tmp/ccKDvyKx.s:759    .text:00000000000002d4 .LVL56
     /tmp/ccKDvyKx.s:777    .text:00000000000002ec .LVL57
     /tmp/ccKDvyKx.s:801    .text:0000000000000304 .LVL58
     /tmp/ccKDvyKx.s:806    .text:0000000000000308 .LVL59
     /tmp/ccKDvyKx.s:470    .text:000000000000019c .LVL31
     /tmp/ccKDvyKx.s:495    .text:00000000000001d4 .LVL34
GAS LISTING /tmp/ccKDvyKx.s 			page 50


     /tmp/ccKDvyKx.s:109    .text:0000000000000034 .LVL5
     /tmp/ccKDvyKx.s:128    .text:000000000000005c .LVL6
     /tmp/ccKDvyKx.s:134    .text:0000000000000068 .LVL8
     /tmp/ccKDvyKx.s:156    .text:0000000000000074 .LVL10
     /tmp/ccKDvyKx.s:165    .text:0000000000000080 .LVL11
     /tmp/ccKDvyKx.s:637    .text:0000000000000244 .LVL46
     /tmp/ccKDvyKx.s:673    .text:0000000000000288 .LVL48
     /tmp/ccKDvyKx.s:699    .text:00000000000002a4 .LVL51
     /tmp/ccKDvyKx.s:727    .text:00000000000002bc .LVL52
     /tmp/ccKDvyKx.s:737    .text:00000000000002cc .LVL55
     /tmp/ccKDvyKx.s:730    .text:00000000000002c0 .LVL53
     /tmp/ccKDvyKx.s:733    .text:00000000000002c4 .LVL54
     /tmp/ccKDvyKx.s:667    .text:0000000000000280 .LVL47
     /tmp/ccKDvyKx.s:677    .text:0000000000000294 .LVL50
     /tmp/ccKDvyKx.s:598    .text:000000000000021c .LVL44
     /tmp/ccKDvyKx.s:431    .text:0000000000000174 .LVL29
     /tmp/ccKDvyKx.s:397    .text:000000000000014c .LVL27
     /tmp/ccKDvyKx.s:365    .text:0000000000000124 .LVL25
     /tmp/ccKDvyKx.s:1376   .debug_info:0000000000000000 .Ldebug_info0
     /tmp/ccKDvyKx.s:5      .text:0000000000000000 .Ltext0
     /tmp/ccKDvyKx.s:1370   .text:00000000000005c0 .Letext0
     /tmp/ccKDvyKx.s:659    .text:0000000000000278 .LBB76
     /tmp/ccKDvyKx.s:716    .text:00000000000002b0 .LBE76
     /tmp/ccKDvyKx.s:741    .text:00000000000002cc .LBB77
     /tmp/ccKDvyKx.s:745    .text:00000000000002d4 .LBE77
     /tmp/ccKDvyKx.s:202    .gcc_except_table:0000000000000000 .LLSDA45
     /tmp/ccKDvyKx.s:349    .gcc_except_table:0000000000000004 .LLSDA63
     /tmp/ccKDvyKx.s:456    .gcc_except_table:0000000000000008 .LLSDA36
     /tmp/ccKDvyKx.s:623    .gcc_except_table:000000000000000c .LLSDA37
                           .group:0000000000000000 _ZN14PeriodicThreadD5Ev

UNDEFINED SYMBOLS
_Z11thread_joinP3TCB
_Z8mem_freePv
_ZN3TCBdlEPv
__gxx_personality_v0
_Z9sem_closeP4KSem
_ZN4KSemdlEPv
_Z9mem_allocm
_Z15thread_dispatchv
_Z10time_sleepm
_Z11thread_exitv
_Z8sem_openPP4KSemj
_Z8sem_waitP4KSem
_Z10sem_signalP4KSem
_Z4getcv
_Z4putcc
