GAS LISTING /tmp/ccjdNVnt.s 			page 1


   1              		.file	"syscall_cpp.cpp"
   2              		.option pic
   3              		.option norelax
   4              		.text
   5              	.Ltext0:
   6              		.section	.text._ZN6Thread3runEv,"axG",@progbits,_ZN6Thread3runEv,comdat
   7              		.align	2
   8              		.weak	_ZN6Thread3runEv
  10              	_ZN6Thread3runEv:
  11              	.LFB0:
  12              		.file 1 "src/../h/syscall_cpp.hpp"
   1:src/../h/syscall_cpp.hpp **** #ifndef _syscall_cpp
   2:src/../h/syscall_cpp.hpp **** #define _syscall_cpp
   3:src/../h/syscall_cpp.hpp **** 
   4:src/../h/syscall_cpp.hpp **** #include "../lib/hw.h"
   5:src/../h/syscall_cpp.hpp **** 
   6:src/../h/syscall_cpp.hpp **** void* operator new(size_t);
   7:src/../h/syscall_cpp.hpp **** 
   8:src/../h/syscall_cpp.hpp **** void* operator new[](size_t);
   9:src/../h/syscall_cpp.hpp **** 
  10:src/../h/syscall_cpp.hpp **** void operator delete(void*)
  11:src/../h/syscall_cpp.hpp **** 
  12:src/../h/syscall_cpp.hpp **** noexcept;
  13:src/../h/syscall_cpp.hpp **** 
  14:src/../h/syscall_cpp.hpp **** void operator delete[](void*)
  15:src/../h/syscall_cpp.hpp **** 
  16:src/../h/syscall_cpp.hpp **** noexcept;
  17:src/../h/syscall_cpp.hpp **** 
  18:src/../h/syscall_cpp.hpp **** class TCB;
  19:src/../h/syscall_cpp.hpp **** 
  20:src/../h/syscall_cpp.hpp **** typedef TCB* thread_t;
  21:src/../h/syscall_cpp.hpp **** 
  22:src/../h/syscall_cpp.hpp **** class KSem;
  23:src/../h/syscall_cpp.hpp **** 
  24:src/../h/syscall_cpp.hpp **** typedef KSem* sem_t;
  25:src/../h/syscall_cpp.hpp **** 
  26:src/../h/syscall_cpp.hpp **** class Thread {
  27:src/../h/syscall_cpp.hpp **** public:
  28:src/../h/syscall_cpp.hpp ****     //konstruktor koji pravi nit koja izvrsava zadatu funkciju sa zadatim argumentima, ne pokrece n
  29:src/../h/syscall_cpp.hpp ****     Thread(void (* body)(void*), void* arg);
  30:src/../h/syscall_cpp.hpp **** 
  31:src/../h/syscall_cpp.hpp ****     virtual ~Thread();
  32:src/../h/syscall_cpp.hpp **** 
  33:src/../h/syscall_cpp.hpp ****     //stavlja nit u Scheduler
  34:src/../h/syscall_cpp.hpp ****     int start();
  35:src/../h/syscall_cpp.hpp **** 
  36:src/../h/syscall_cpp.hpp ****     //pozivajuca (running) nit se suspenduje dok se nit ciji se metod poziva(this) ne zavrsi
  37:src/../h/syscall_cpp.hpp ****     void join();
  38:src/../h/syscall_cpp.hpp **** 
  39:src/../h/syscall_cpp.hpp ****     //sinhrona promena konteksta
  40:src/../h/syscall_cpp.hpp ****     static void dispatch();
  41:src/../h/syscall_cpp.hpp **** 
  42:src/../h/syscall_cpp.hpp ****     //uspavljuje tekucu nit na zadati period
  43:src/../h/syscall_cpp.hpp ****     static int sleep(time_t);
  44:src/../h/syscall_cpp.hpp **** 
  45:src/../h/syscall_cpp.hpp **** protected:
  46:src/../h/syscall_cpp.hpp ****     //konstruktor koji pravi nit koja izvrsava run metodu, ne stavlja je u Scheduler
GAS LISTING /tmp/ccjdNVnt.s 			page 2


  47:src/../h/syscall_cpp.hpp ****     Thread();
  48:src/../h/syscall_cpp.hpp **** 
  49:src/../h/syscall_cpp.hpp ****     //funkcija koju nit izvrsava, samo ako je nit napravljena podrazumevanim konstruktorom
  50:src/../h/syscall_cpp.hpp ****     virtual void run() {}
  13              		.loc 1 50 18
  14              		.cfi_startproc
  15              	.LVL0:
  16 0000 130101FF 		addi	sp,sp,-16
  17              		.cfi_def_cfa_offset 16
  18 0004 23348100 		sd	s0,8(sp)
  19              		.cfi_offset 8, -8
  20 0008 13040101 		addi	s0,sp,16
  21              		.cfi_def_cfa 8, 0
  22              		.loc 1 50 25 is_stmt 0
  23 000c 03348100 		ld	s0,8(sp)
  24              		.cfi_restore 8
  25              		.cfi_def_cfa 2, 16
  26 0010 13010101 		addi	sp,sp,16
  27              		.cfi_def_cfa_offset 0
  28 0014 67800000 		jr	ra
  29              		.cfi_endproc
  30              	.LFE0:
  32              		.section	.text._ZN14PeriodicThread18periodicActivationEv,"axG",@progbits,_ZN14PeriodicThread18peri
  33              		.align	2
  34              		.weak	_ZN14PeriodicThread18periodicActivationEv
  36              	_ZN14PeriodicThread18periodicActivationEv:
  37              	.LFB1:
  51:src/../h/syscall_cpp.hpp **** 
  52:src/../h/syscall_cpp.hpp **** private:
  53:src/../h/syscall_cpp.hpp ****     //pokazivac na TCB strukturu kernela
  54:src/../h/syscall_cpp.hpp ****     thread_t myHandle;
  55:src/../h/syscall_cpp.hpp **** 
  56:src/../h/syscall_cpp.hpp ****     void (* body)(void*);
  57:src/../h/syscall_cpp.hpp **** 
  58:src/../h/syscall_cpp.hpp ****     void* arg;
  59:src/../h/syscall_cpp.hpp **** 
  60:src/../h/syscall_cpp.hpp ****     static void wrapper(void* thread);
  61:src/../h/syscall_cpp.hpp **** };
  62:src/../h/syscall_cpp.hpp **** 
  63:src/../h/syscall_cpp.hpp **** 
  64:src/../h/syscall_cpp.hpp **** class Semaphore {
  65:src/../h/syscall_cpp.hpp **** public:
  66:src/../h/syscall_cpp.hpp **** 
  67:src/../h/syscall_cpp.hpp ****     Semaphore(unsigned init = 1);
  68:src/../h/syscall_cpp.hpp **** 
  69:src/../h/syscall_cpp.hpp ****     virtual ~Semaphore();
  70:src/../h/syscall_cpp.hpp **** 
  71:src/../h/syscall_cpp.hpp ****     int wait();
  72:src/../h/syscall_cpp.hpp **** 
  73:src/../h/syscall_cpp.hpp ****     int signal();
  74:src/../h/syscall_cpp.hpp **** 
  75:src/../h/syscall_cpp.hpp **** private:
  76:src/../h/syscall_cpp.hpp ****     sem_t myHandle;
  77:src/../h/syscall_cpp.hpp **** };
  78:src/../h/syscall_cpp.hpp **** 
  79:src/../h/syscall_cpp.hpp **** 
  80:src/../h/syscall_cpp.hpp **** class PeriodicThread : public Thread {
GAS LISTING /tmp/ccjdNVnt.s 			page 3


  81:src/../h/syscall_cpp.hpp **** public:
  82:src/../h/syscall_cpp.hpp ****     void terminate();
  83:src/../h/syscall_cpp.hpp **** 
  84:src/../h/syscall_cpp.hpp **** protected:
  85:src/../h/syscall_cpp.hpp ****     PeriodicThread(time_t period);
  86:src/../h/syscall_cpp.hpp **** 
  87:src/../h/syscall_cpp.hpp ****     virtual void periodicActivation() {}
  38              		.loc 1 87 18 is_stmt 1
  39              		.cfi_startproc
  40              	.LVL1:
  41 0000 130101FF 		addi	sp,sp,-16
  42              		.cfi_def_cfa_offset 16
  43 0004 23348100 		sd	s0,8(sp)
  44              		.cfi_offset 8, -8
  45 0008 13040101 		addi	s0,sp,16
  46              		.cfi_def_cfa 8, 0
  47              		.loc 1 87 40 is_stmt 0
  48 000c 03348100 		ld	s0,8(sp)
  49              		.cfi_restore 8
  50              		.cfi_def_cfa 2, 16
  51 0010 13010101 		addi	sp,sp,16
  52              		.cfi_def_cfa_offset 0
  53 0014 67800000 		jr	ra
  54              		.cfi_endproc
  55              	.LFE1:
  57              		.text
  58              		.align	2
  59              		.globl	_ZN6Thread7wrapperEPv
  61              	_ZN6Thread7wrapperEPv:
  62              	.LFB61:
  63              		.file 2 "src/syscall_cpp.cpp"
   1:src/syscall_cpp.cpp **** //
   2:src/syscall_cpp.cpp **** // Created by os on 5/29/23.
   3:src/syscall_cpp.cpp **** //
   4:src/syscall_cpp.cpp **** #include "../h/syscall_cpp.hpp"
   5:src/syscall_cpp.cpp **** #include "../h/syscall_c.hpp"
   6:src/syscall_cpp.cpp **** #include "../h/TCB.hpp"
   7:src/syscall_cpp.cpp **** #include "../h/KSem.hpp"
   8:src/syscall_cpp.cpp **** #include "../h/Scheduler.hpp"
   9:src/syscall_cpp.cpp **** 
  10:src/syscall_cpp.cpp **** int main();
  11:src/syscall_cpp.cpp **** 
  12:src/syscall_cpp.cpp **** //override globalnog new
  13:src/syscall_cpp.cpp **** void* operator new(size_t size) {
  14:src/syscall_cpp.cpp ****     return mem_alloc(size);
  15:src/syscall_cpp.cpp **** }
  16:src/syscall_cpp.cpp **** 
  17:src/syscall_cpp.cpp **** void* operator new[](size_t size) {
  18:src/syscall_cpp.cpp ****     return mem_alloc(size);
  19:src/syscall_cpp.cpp **** }
  20:src/syscall_cpp.cpp **** 
  21:src/syscall_cpp.cpp **** void operator delete(void* ptr)
  22:src/syscall_cpp.cpp **** 
  23:src/syscall_cpp.cpp **** noexcept {
  24:src/syscall_cpp.cpp **** mem_free(ptr);
  25:src/syscall_cpp.cpp **** }
  26:src/syscall_cpp.cpp **** 
GAS LISTING /tmp/ccjdNVnt.s 			page 4


  27:src/syscall_cpp.cpp **** void operator delete[](void* ptr)
  28:src/syscall_cpp.cpp **** 
  29:src/syscall_cpp.cpp **** noexcept {
  30:src/syscall_cpp.cpp **** mem_free(ptr);
  31:src/syscall_cpp.cpp **** }
  32:src/syscall_cpp.cpp **** 
  33:src/syscall_cpp.cpp **** Thread::Thread(void (* body)(void*), void* arg) {
  34:src/syscall_cpp.cpp ****     this->body = body;
  35:src/syscall_cpp.cpp ****     this->arg = arg;
  36:src/syscall_cpp.cpp ****     //stvaranje steka ako se ne radi o main kernel niti, posto ona automatski ima stek
  37:src/syscall_cpp.cpp ****     uint64* stack = nullptr;
  38:src/syscall_cpp.cpp ****     if (body != (TCB::Body)main) {
  39:src/syscall_cpp.cpp ****         stack = (uint64*)mem_alloc(DEFAULT_STACK_SIZE);
  40:src/syscall_cpp.cpp ****     }
  41:src/syscall_cpp.cpp ****     //stavljanje argumenata za sistemski poziv
  42:src/syscall_cpp.cpp ****     __asm__ volatile("mv a4, %[sp]": :[sp] "r"(stack):"a5", "a0", "a1", "a2", "a3", "a4", "a6", "a7
  43:src/syscall_cpp.cpp ****     __asm__ volatile("mv a3, %[arg]": :[arg] "r"(arg):"a5", "a0", "a1", "a2", "a3", "a4", "a6", "a7
  44:src/syscall_cpp.cpp ****     __asm__ volatile("mv a2, %[function]": :[function] "r"(
  45:src/syscall_cpp.cpp ****             body):"a5", "a0", "a1", "a2", "a3", "a4", "a6", "a7");
  46:src/syscall_cpp.cpp ****     __asm__ volatile("mv a1, %[handle]": :[handle] "r"(&myHandle):"a5", "a0", "a1", "a2", "a3", "a4
  47:src/syscall_cpp.cpp ****     __asm__ volatile("li a0, 0x80");
  48:src/syscall_cpp.cpp ****     //a0 = 0x80
  49:src/syscall_cpp.cpp ****     //a1 = adresa pokazivaca na rucku niti
  50:src/syscall_cpp.cpp ****     //a2 = prva adresa funkcije koju nit izvrsava
  51:src/syscall_cpp.cpp ****     //a3 = pokazivac na argumente funkcije
  52:src/syscall_cpp.cpp ****     //a4 = pokazivac na najnizu adresu steka (stek raste ka nizim adresama, pokazuje na poslednju z
  53:src/syscall_cpp.cpp **** 
  54:src/syscall_cpp.cpp ****     __asm__ volatile("ecall");
  55:src/syscall_cpp.cpp **** }
  56:src/syscall_cpp.cpp **** 
  57:src/syscall_cpp.cpp **** Thread::~Thread() {
  58:src/syscall_cpp.cpp ****     //ne treba da se gasi running nit, vec nit na koju pokazuje rucka od this
  59:src/syscall_cpp.cpp ****     thread_join(this->myHandle);
  60:src/syscall_cpp.cpp ****     delete myHandle;
  61:src/syscall_cpp.cpp **** 
  62:src/syscall_cpp.cpp ****     __asm__ volatile("mv a1, %[handle]": :[handle] "r"(myHandle):"a5", "a0", "a1", "a2", "a3", "a4"
  63:src/syscall_cpp.cpp ****     __asm__ volatile("li a0, 0x15");
  64:src/syscall_cpp.cpp **** 
  65:src/syscall_cpp.cpp ****     __asm__ volatile("ecall");
  66:src/syscall_cpp.cpp **** }
  67:src/syscall_cpp.cpp **** 
  68:src/syscall_cpp.cpp **** int Thread::start() {
  69:src/syscall_cpp.cpp ****     if (myHandle == nullptr || myHandle->getStatus() != TCB::CREATED) return -1;
  70:src/syscall_cpp.cpp ****     __asm__ volatile("mv a1, %[handle]": :[handle] "r"(myHandle):"a5", "a0", "a1", "a2", "a3", "a4"
  71:src/syscall_cpp.cpp ****     __asm__ volatile("li a0, 0x81");
  72:src/syscall_cpp.cpp **** 
  73:src/syscall_cpp.cpp ****     __asm__ volatile("ecall");
  74:src/syscall_cpp.cpp **** 
  75:src/syscall_cpp.cpp ****     return 0;
  76:src/syscall_cpp.cpp **** }
  77:src/syscall_cpp.cpp **** 
  78:src/syscall_cpp.cpp **** void Thread::join() {
  79:src/syscall_cpp.cpp ****     thread_join(myHandle);
  80:src/syscall_cpp.cpp **** }
  81:src/syscall_cpp.cpp **** 
  82:src/syscall_cpp.cpp **** void Thread::dispatch() {
  83:src/syscall_cpp.cpp ****     thread_dispatch();
GAS LISTING /tmp/ccjdNVnt.s 			page 5


  84:src/syscall_cpp.cpp **** }
  85:src/syscall_cpp.cpp **** 
  86:src/syscall_cpp.cpp **** int Thread::sleep(time_t t) {
  87:src/syscall_cpp.cpp ****     time_sleep(t);
  88:src/syscall_cpp.cpp ****     return 0;
  89:src/syscall_cpp.cpp **** }
  90:src/syscall_cpp.cpp **** 
  91:src/syscall_cpp.cpp **** Thread::Thread() {
  92:src/syscall_cpp.cpp ****     this->body = wrapper;
  93:src/syscall_cpp.cpp ****     this->arg = this;
  94:src/syscall_cpp.cpp ****     uint64* stack = (uint64*)mem_alloc(DEFAULT_STACK_SIZE);
  95:src/syscall_cpp.cpp ****     //stavljanje argumenata za sistemski poziv
  96:src/syscall_cpp.cpp ****     __asm__ volatile("mv a4, %[sp]": :[sp] "r"(stack):"a5", "a0", "a1", "a2", "a3", "a4", "a6", "a7
  97:src/syscall_cpp.cpp ****     __asm__ volatile("mv a3, %[arg]": :[arg] "r"(arg):"a5", "a0", "a1", "a2", "a3", "a4", "a6", "a7
  98:src/syscall_cpp.cpp ****     __asm__ volatile("mv a2, %[function]": :[function] "r"(
  99:src/syscall_cpp.cpp ****             body):"a5", "a0", "a1", "a2", "a3", "a4", "a6", "a7");
 100:src/syscall_cpp.cpp ****     __asm__ volatile("mv a1, %[handle]": :[handle] "r"(&myHandle):"a5", "a0", "a1", "a2", "a3", "a4
 101:src/syscall_cpp.cpp ****     __asm__ volatile("li a0, 0x80");
 102:src/syscall_cpp.cpp ****     //a0 = 0x80
 103:src/syscall_cpp.cpp ****     //a1 = adresa pokazivaca na rucku niti
 104:src/syscall_cpp.cpp ****     //a2 = prva adresa funkcije koju nit izvrsava
 105:src/syscall_cpp.cpp ****     //a3 = pokazivac na argumente funkcije
 106:src/syscall_cpp.cpp ****     //a4 = pokazivac na najnizu adresu steka (stek raste ka nizim adresama, pokazuje na poslednju z
 107:src/syscall_cpp.cpp **** 
 108:src/syscall_cpp.cpp ****     __asm__ volatile("ecall");
 109:src/syscall_cpp.cpp **** }
 110:src/syscall_cpp.cpp **** 
 111:src/syscall_cpp.cpp **** void Thread::wrapper(void* thread) {
  64              		.loc 2 111 36 is_stmt 1
  65              		.cfi_startproc
  66              	.LVL2:
 112:src/syscall_cpp.cpp ****     if (thread != nullptr) {
  67              		.loc 2 112 5
  68 0000 63080502 		beqz	a0,.L8
 111:src/syscall_cpp.cpp ****     if (thread != nullptr) {
  69              		.loc 2 111 36 is_stmt 0
  70 0004 130101FF 		addi	sp,sp,-16
  71              		.cfi_def_cfa_offset 16
  72 0008 23341100 		sd	ra,8(sp)
  73 000c 23308100 		sd	s0,0(sp)
  74              		.cfi_offset 1, -8
  75              		.cfi_offset 8, -16
  76 0010 13040101 		addi	s0,sp,16
  77              		.cfi_def_cfa 8, 0
 113:src/syscall_cpp.cpp ****         ((Thread*)thread)->run();
  78              		.loc 2 113 9 is_stmt 1
  79              		.loc 2 113 32 is_stmt 0
  80 0014 83370500 		ld	a5,0(a0)
  81 0018 83B70701 		ld	a5,16(a5)
  82              		.loc 2 113 31
  83 001c E7800700 		jalr	a5
  84              	.LVL3:
 114:src/syscall_cpp.cpp ****     }
 115:src/syscall_cpp.cpp **** }
  85              		.loc 2 115 1
  86 0020 83308100 		ld	ra,8(sp)
  87              		.cfi_restore 1
GAS LISTING /tmp/ccjdNVnt.s 			page 6


  88 0024 03340100 		ld	s0,0(sp)
  89              		.cfi_restore 8
  90              		.cfi_def_cfa 2, 16
  91 0028 13010101 		addi	sp,sp,16
  92              		.cfi_def_cfa_offset 0
  93 002c 67800000 		jr	ra
  94              	.LVL4:
  95              	.L8:
  96 0030 67800000 		ret
  97              		.cfi_endproc
  98              	.LFE61:
 100              		.align	2
 101              		.globl	_ZN6ThreadD2Ev
 103              	_ZN6ThreadD2Ev:
 104              	.LFB51:
  57:src/syscall_cpp.cpp ****     //ne treba da se gasi running nit, vec nit na koju pokazuje rucka od this
 105              		.loc 2 57 1 is_stmt 1
 106              		.cfi_startproc
 107              		.cfi_personality 0x9b,DW.ref.__gxx_personality_v0
 108              		.cfi_lsda 0x1b,.LLSDA51
 109              	.LVL5:
 110 0034 130101FE 		addi	sp,sp,-32
 111              		.cfi_def_cfa_offset 32
 112 0038 233C1100 		sd	ra,24(sp)
 113 003c 23388100 		sd	s0,16(sp)
 114 0040 23349100 		sd	s1,8(sp)
 115 0044 23302101 		sd	s2,0(sp)
 116              		.cfi_offset 1, -8
 117              		.cfi_offset 8, -16
 118              		.cfi_offset 9, -24
 119              		.cfi_offset 18, -32
 120 0048 13040102 		addi	s0,sp,32
 121              		.cfi_def_cfa 8, 0
 122 004c 13090500 		mv	s2,a0
 123              	.LBB56:
  57:src/syscall_cpp.cpp ****     //ne treba da se gasi running nit, vec nit na koju pokazuje rucka od this
 124              		.loc 2 57 17 is_stmt 0
 125 0050 97070000 		lla	a5,_ZTV6Thread+16
 125      93870700 
 126 0058 2330F500 		sd	a5,0(a0)
  59:src/syscall_cpp.cpp ****     delete myHandle;
 127              		.loc 2 59 5 is_stmt 1
  59:src/syscall_cpp.cpp ****     delete myHandle;
 128              		.loc 2 59 16 is_stmt 0
 129 005c 03358500 		ld	a0,8(a0)
 130              	.LVL6:
 131 0060 97000000 		call	_Z11thread_joinP3TCB@plt
 131      E7800000 
 132              	.LVL7:
  60:src/syscall_cpp.cpp **** 
 133              		.loc 2 60 5 is_stmt 1
  60:src/syscall_cpp.cpp **** 
 134              		.loc 2 60 12 is_stmt 0
 135 0068 83348900 		ld	s1,8(s2)
  60:src/syscall_cpp.cpp **** 
 136              		.loc 2 60 20
 137 006c 63880402 		beqz	s1,.L12
GAS LISTING /tmp/ccjdNVnt.s 			page 7


 138              	.L14:
 139              	.LBB57:
 140              	.LBB58:
 141              	.LBB59:
 142              		.file 3 "src/../h/../h/ThreadQueue.hpp"
   1:src/../h/../h/ThreadQueue.hpp **** //
   2:src/../h/../h/ThreadQueue.hpp **** // Created by os on 6/4/23.
   3:src/../h/../h/ThreadQueue.hpp **** //
   4:src/../h/../h/ThreadQueue.hpp **** 
   5:src/../h/../h/ThreadQueue.hpp **** #ifndef PROJEKAT2023_THREADQUEUE_HPP
   6:src/../h/../h/ThreadQueue.hpp **** #define PROJEKAT2023_THREADQUEUE_HPP
   7:src/../h/../h/ThreadQueue.hpp **** 
   8:src/../h/../h/ThreadQueue.hpp **** #include "../h/syscall_c.hpp"
   9:src/../h/../h/ThreadQueue.hpp **** 
  10:src/../h/../h/ThreadQueue.hpp **** class TCB;
  11:src/../h/../h/ThreadQueue.hpp **** 
  12:src/../h/../h/ThreadQueue.hpp **** class ThreadQueue {
  13:src/../h/../h/ThreadQueue.hpp **** private:
  14:src/../h/../h/ThreadQueue.hpp ****     struct Node {
  15:src/../h/../h/ThreadQueue.hpp ****         TCB* data;
  16:src/../h/../h/ThreadQueue.hpp ****         Node* next;
  17:src/../h/../h/ThreadQueue.hpp **** 
  18:src/../h/../h/ThreadQueue.hpp ****         Node(TCB* d) : data(d), next(nullptr) {}
  19:src/../h/../h/ThreadQueue.hpp **** 
  20:src/../h/../h/ThreadQueue.hpp ****         static void* operator new(size_t size) {
  21:src/../h/../h/ThreadQueue.hpp ****             return mem_alloc(size);
  22:src/../h/../h/ThreadQueue.hpp ****         }
  23:src/../h/../h/ThreadQueue.hpp **** 
  24:src/../h/../h/ThreadQueue.hpp ****         static void operator delete(void* ptr) {
  25:src/../h/../h/ThreadQueue.hpp ****             mem_free(ptr);
  26:src/../h/../h/ThreadQueue.hpp ****         }
  27:src/../h/../h/ThreadQueue.hpp ****     };
  28:src/../h/../h/ThreadQueue.hpp **** 
  29:src/../h/../h/ThreadQueue.hpp ****     Node* front;
  30:src/../h/../h/ThreadQueue.hpp ****     Node* back;
  31:src/../h/../h/ThreadQueue.hpp **** 
  32:src/../h/../h/ThreadQueue.hpp **** public:
  33:src/../h/../h/ThreadQueue.hpp ****     ThreadQueue() : front(nullptr), back(nullptr) {}
  34:src/../h/../h/ThreadQueue.hpp **** 
  35:src/../h/../h/ThreadQueue.hpp ****     ThreadQueue(const ThreadQueue &) = delete;
  36:src/../h/../h/ThreadQueue.hpp **** 
  37:src/../h/../h/ThreadQueue.hpp ****     ThreadQueue &operator=(const ThreadQueue &) = delete;
  38:src/../h/../h/ThreadQueue.hpp **** 
  39:src/../h/../h/ThreadQueue.hpp ****     ~ThreadQueue() {
  40:src/../h/../h/ThreadQueue.hpp ****         while (!isEmpty()) {
 143              		.loc 3 40 9 is_stmt 1
 144              		.loc 3 40 16
 145              	.LVL8:
 146              	.LBB60:
 147              	.LBB61:
  41:src/../h/../h/ThreadQueue.hpp ****             Node* node = front;
  42:src/../h/../h/ThreadQueue.hpp ****             front = front->next;
  43:src/../h/../h/ThreadQueue.hpp ****             delete node;
  44:src/../h/../h/ThreadQueue.hpp ****         }
  45:src/../h/../h/ThreadQueue.hpp ****     }
  46:src/../h/../h/ThreadQueue.hpp **** 
  47:src/../h/../h/ThreadQueue.hpp ****     bool isEmpty() const {
GAS LISTING /tmp/ccjdNVnt.s 			page 8


  48:src/../h/../h/ThreadQueue.hpp ****         return front == nullptr;
 148              		.loc 3 48 9
 149              		.loc 3 48 16 is_stmt 0
 150 0070 03B58404 		ld	a0,72(s1)
 151              	.LBE61:
 152              	.LBE60:
  40:src/../h/../h/ThreadQueue.hpp ****             Node* node = front;
 153              		.loc 3 40 16
 154 0074 630E0500 		beqz	a0,.L13
 155              	.LBB62:
  41:src/../h/../h/ThreadQueue.hpp ****             Node* node = front;
 156              		.loc 3 41 13 is_stmt 1
 157              	.LVL9:
  42:src/../h/../h/ThreadQueue.hpp ****             delete node;
 158              		.loc 3 42 13
  42:src/../h/../h/ThreadQueue.hpp ****             delete node;
 159              		.loc 3 42 28 is_stmt 0
 160 0078 83378500 		ld	a5,8(a0)
  42:src/../h/../h/ThreadQueue.hpp ****             delete node;
 161              		.loc 3 42 19
 162 007c 23B4F404 		sd	a5,72(s1)
  43:src/../h/../h/ThreadQueue.hpp ****         }
 163              		.loc 3 43 13 is_stmt 1
  43:src/../h/../h/ThreadQueue.hpp ****         }
 164              		.loc 3 43 24 is_stmt 0
 165 0080 E30805FE 		beqz	a0,.L14
 166              	.LVL10:
 167              	.LBB63:
 168              	.LBB64:
  25:src/../h/../h/ThreadQueue.hpp ****         }
 169              		.loc 3 25 13 is_stmt 1
  25:src/../h/../h/ThreadQueue.hpp ****         }
 170              		.loc 3 25 21 is_stmt 0
 171 0084 97000000 		call	_Z8mem_freePv@plt
 171      E7800000 
 172              	.LVL11:
  26:src/../h/../h/ThreadQueue.hpp ****     };
 173              		.loc 3 26 9
 174 008c 6FF05FFE 		j	.L14
 175              	.L13:
 176              	.LBE64:
 177              	.LBE63:
 178              	.LBE62:
 179              	.LBE59:
 180              	.LBE58:
 181              	.LBE57:
  60:src/syscall_cpp.cpp **** 
 182              		.loc 2 60 12
 183 0090 13850400 		mv	a0,s1
 184 0094 97000000 		call	_ZN3TCBdlEPv@plt
 184      E7800000 
 185              	.LVL12:
 186              	.L12:
  62:src/syscall_cpp.cpp ****     __asm__ volatile("li a0, 0x15");
 187              		.loc 2 62 5 is_stmt 1
  62:src/syscall_cpp.cpp ****     __asm__ volatile("li a0, 0x15");
 188              		.loc 2 62 56 is_stmt 0
GAS LISTING /tmp/ccjdNVnt.s 			page 9


 189 009c 03338900 		ld	t1,8(s2)
  62:src/syscall_cpp.cpp ****     __asm__ volatile("li a0, 0x15");
 190              		.loc 2 62 113
 191              	#APP
 192              	# 62 "src/syscall_cpp.cpp" 1
  63:src/syscall_cpp.cpp **** 
 193              		mv a1, t1
 194              	# 0 "" 2
 195              		.loc 2 63 5 is_stmt 1
  63:src/syscall_cpp.cpp **** 
 196              		.loc 2 63 36 is_stmt 0
 197              	# 63 "src/syscall_cpp.cpp" 1
  65:src/syscall_cpp.cpp **** }
 198              		li a0, 0x15
 199              	# 0 "" 2
 200              		.loc 2 65 5 is_stmt 1
  65:src/syscall_cpp.cpp **** }
 201              		.loc 2 65 30 is_stmt 0
 202              	# 65 "src/syscall_cpp.cpp" 1
 203              		ecall
 204              	# 0 "" 2
 205              	#NO_APP
 206              	.LBE56:
  66:src/syscall_cpp.cpp **** 
 207              		.loc 2 66 1
 208 00ac 83308101 		ld	ra,24(sp)
 209              		.cfi_restore 1
 210 00b0 03340101 		ld	s0,16(sp)
 211              		.cfi_restore 8
 212              		.cfi_def_cfa 2, 32
 213 00b4 83348100 		ld	s1,8(sp)
 214              		.cfi_restore 9
 215 00b8 03390100 		ld	s2,0(sp)
 216              		.cfi_restore 18
 217              	.LVL13:
 218 00bc 13010102 		addi	sp,sp,32
 219              		.cfi_def_cfa_offset 0
 220 00c0 67800000 		jr	ra
 221              		.cfi_endproc
 222              	.LFE51:
 223              		.globl	__gxx_personality_v0
 224              		.section	.gcc_except_table,"a",@progbits
 225              	.LLSDA51:
 226 0000 FF       		.byte	0xff
 227 0001 FF       		.byte	0xff
 228 0002 03       		.byte	0x3
 229 0003 00       		.byte	0
 230              		.text
 232              		.globl	_ZN6ThreadD1Ev
 233              		.set	_ZN6ThreadD1Ev,_ZN6ThreadD2Ev
 234              		.section	.text._ZN14PeriodicThreadD2Ev,"axG",@progbits,_ZN14PeriodicThreadD5Ev,comdat
 235              		.align	2
 236              		.weak	_ZN14PeriodicThreadD2Ev
 238              	_ZN14PeriodicThreadD2Ev:
 239              	.LFB82:
  80:src/../h/syscall_cpp.hpp **** public:
 240              		.loc 1 80 7 is_stmt 1
GAS LISTING /tmp/ccjdNVnt.s 			page 10


 241              		.cfi_startproc
 242              	.LVL14:
 243 0000 130101FF 		addi	sp,sp,-16
 244              		.cfi_def_cfa_offset 16
 245 0004 23341100 		sd	ra,8(sp)
 246 0008 23308100 		sd	s0,0(sp)
 247              		.cfi_offset 1, -8
 248              		.cfi_offset 8, -16
 249 000c 13040101 		addi	s0,sp,16
 250              		.cfi_def_cfa 8, 0
 251              	.LBB65:
  80:src/../h/syscall_cpp.hpp **** public:
 252              		.loc 1 80 7 is_stmt 0
 253 0010 97070000 		lla	a5,_ZTV14PeriodicThread+16
 253      93870700 
 254 0018 2330F500 		sd	a5,0(a0)
 255 001c 97000000 		call	_ZN6ThreadD2Ev
 255      E7800000 
 256              	.LVL15:
 257              	.LBE65:
 258 0024 83308100 		ld	ra,8(sp)
 259              		.cfi_restore 1
 260 0028 03340100 		ld	s0,0(sp)
 261              		.cfi_restore 8
 262              		.cfi_def_cfa 2, 16
 263 002c 13010101 		addi	sp,sp,16
 264              		.cfi_def_cfa_offset 0
 265 0030 67800000 		jr	ra
 266              		.cfi_endproc
 267              	.LFE82:
 269              		.weak	_ZN14PeriodicThreadD1Ev
 270              		.set	_ZN14PeriodicThreadD1Ev,_ZN14PeriodicThreadD2Ev
 271              		.text
 272              		.align	2
 273              		.globl	_ZN9SemaphoreD2Ev
 275              	_ZN9SemaphoreD2Ev:
 276              	.LFB69:
 116:src/syscall_cpp.cpp **** 
 117:src/syscall_cpp.cpp **** Semaphore::Semaphore(unsigned int init) {
 118:src/syscall_cpp.cpp ****     sem_open(&myHandle, init);
 119:src/syscall_cpp.cpp **** }
 120:src/syscall_cpp.cpp **** 
 121:src/syscall_cpp.cpp **** Semaphore::~Semaphore() {
 277              		.loc 2 121 1 is_stmt 1
 278              		.cfi_startproc
 279              		.cfi_personality 0x9b,DW.ref.__gxx_personality_v0
 280              		.cfi_lsda 0x1b,.LLSDA69
 281              	.LVL16:
 282 00c4 130101FE 		addi	sp,sp,-32
 283              		.cfi_def_cfa_offset 32
 284 00c8 233C1100 		sd	ra,24(sp)
 285 00cc 23388100 		sd	s0,16(sp)
 286 00d0 23349100 		sd	s1,8(sp)
 287              		.cfi_offset 1, -8
 288              		.cfi_offset 8, -16
 289              		.cfi_offset 9, -24
 290 00d4 13040102 		addi	s0,sp,32
GAS LISTING /tmp/ccjdNVnt.s 			page 11


 291              		.cfi_def_cfa 8, 0
 292 00d8 93040500 		mv	s1,a0
 293              	.LBB66:
 294              		.loc 2 121 23 is_stmt 0
 295 00dc 97070000 		lla	a5,_ZTV9Semaphore+16
 295      93870700 
 296 00e4 2330F500 		sd	a5,0(a0)
 122:src/syscall_cpp.cpp ****     sem_close(myHandle);
 297              		.loc 2 122 5 is_stmt 1
 298              		.loc 2 122 14 is_stmt 0
 299 00e8 03358500 		ld	a0,8(a0)
 300              	.LVL17:
 301 00ec 97000000 		call	_Z9sem_closeP4KSem@plt
 301      E7800000 
 302              	.LVL18:
 123:src/syscall_cpp.cpp ****     delete myHandle;
 303              		.loc 2 123 5 is_stmt 1
 304              		.loc 2 123 12 is_stmt 0
 305 00f4 83B48400 		ld	s1,8(s1)
 306              	.LVL19:
 307              		.loc 2 123 20
 308 00f8 63880402 		beqz	s1,.L19
 309              	.L22:
 310              	.LBB67:
 311              	.LBB68:
 312              	.LBB69:
  40:src/../h/../h/ThreadQueue.hpp ****             Node* node = front;
 313              		.loc 3 40 9 is_stmt 1
  40:src/../h/../h/ThreadQueue.hpp ****             Node* node = front;
 314              		.loc 3 40 16
 315              	.LVL20:
 316              	.LBB70:
 317              	.LBB71:
 318              		.loc 3 48 9
 319              		.loc 3 48 16 is_stmt 0
 320 00fc 03B58400 		ld	a0,8(s1)
 321              	.LBE71:
 322              	.LBE70:
  40:src/../h/../h/ThreadQueue.hpp ****             Node* node = front;
 323              		.loc 3 40 16
 324 0100 630E0500 		beqz	a0,.L21
 325              	.LBB72:
  41:src/../h/../h/ThreadQueue.hpp ****             front = front->next;
 326              		.loc 3 41 13 is_stmt 1
 327              	.LVL21:
  42:src/../h/../h/ThreadQueue.hpp ****             delete node;
 328              		.loc 3 42 13
  42:src/../h/../h/ThreadQueue.hpp ****             delete node;
 329              		.loc 3 42 28 is_stmt 0
 330 0104 83378500 		ld	a5,8(a0)
  42:src/../h/../h/ThreadQueue.hpp ****             delete node;
 331              		.loc 3 42 19
 332 0108 23B4F400 		sd	a5,8(s1)
  43:src/../h/../h/ThreadQueue.hpp ****         }
 333              		.loc 3 43 13 is_stmt 1
  43:src/../h/../h/ThreadQueue.hpp ****         }
 334              		.loc 3 43 24 is_stmt 0
GAS LISTING /tmp/ccjdNVnt.s 			page 12


 335 010c E30805FE 		beqz	a0,.L22
 336              	.LVL22:
 337              	.LBB73:
 338              	.LBB74:
  25:src/../h/../h/ThreadQueue.hpp ****         }
 339              		.loc 3 25 13 is_stmt 1
  25:src/../h/../h/ThreadQueue.hpp ****         }
 340              		.loc 3 25 21 is_stmt 0
 341 0110 97000000 		call	_Z8mem_freePv@plt
 341      E7800000 
 342              	.LVL23:
  26:src/../h/../h/ThreadQueue.hpp ****     };
 343              		.loc 3 26 9
 344 0118 6FF05FFE 		j	.L22
 345              	.L21:
 346              	.LBE74:
 347              	.LBE73:
 348              	.LBE72:
 349              	.LBE69:
 350              	.LBE68:
 351              	.LBE67:
 352              		.loc 2 123 12
 353 011c 13850400 		mv	a0,s1
 354 0120 97000000 		call	_ZN4KSemdlEPv@plt
 354      E7800000 
 355              	.LVL24:
 356              	.L19:
 357              	.LBE66:
 124:src/syscall_cpp.cpp **** }
 358              		.loc 2 124 1
 359 0128 83308101 		ld	ra,24(sp)
 360              		.cfi_restore 1
 361 012c 03340101 		ld	s0,16(sp)
 362              		.cfi_restore 8
 363              		.cfi_def_cfa 2, 32
 364 0130 83348100 		ld	s1,8(sp)
 365              		.cfi_restore 9
 366 0134 13010102 		addi	sp,sp,32
 367              		.cfi_def_cfa_offset 0
 368 0138 67800000 		jr	ra
 369              		.cfi_endproc
 370              	.LFE69:
 371              		.section	.gcc_except_table
 372              	.LLSDA69:
 373 0004 FF       		.byte	0xff
 374 0005 FF       		.byte	0xff
 375 0006 03       		.byte	0x3
 376 0007 00       		.byte	0
 377              		.text
 379              		.globl	_ZN9SemaphoreD1Ev
 380              		.set	_ZN9SemaphoreD1Ev,_ZN9SemaphoreD2Ev
 381              		.align	2
 382              		.globl	_Znwm
 384              	_Znwm:
 385              	.LFB40:
  13:src/syscall_cpp.cpp ****     return mem_alloc(size);
 386              		.loc 2 13 33 is_stmt 1
GAS LISTING /tmp/ccjdNVnt.s 			page 13


 387              		.cfi_startproc
 388              	.LVL25:
 389 013c 130101FF 		addi	sp,sp,-16
 390              		.cfi_def_cfa_offset 16
 391 0140 23341100 		sd	ra,8(sp)
 392 0144 23308100 		sd	s0,0(sp)
 393              		.cfi_offset 1, -8
 394              		.cfi_offset 8, -16
 395 0148 13040101 		addi	s0,sp,16
 396              		.cfi_def_cfa 8, 0
  14:src/syscall_cpp.cpp **** }
 397              		.loc 2 14 5
  14:src/syscall_cpp.cpp **** }
 398              		.loc 2 14 21 is_stmt 0
 399 014c 97000000 		call	_Z9mem_allocm@plt
 399      E7800000 
 400              	.LVL26:
  15:src/syscall_cpp.cpp **** 
 401              		.loc 2 15 1
 402 0154 83308100 		ld	ra,8(sp)
 403              		.cfi_restore 1
 404 0158 03340100 		ld	s0,0(sp)
 405              		.cfi_restore 8
 406              		.cfi_def_cfa 2, 16
 407 015c 13010101 		addi	sp,sp,16
 408              		.cfi_def_cfa_offset 0
 409 0160 67800000 		jr	ra
 410              		.cfi_endproc
 411              	.LFE40:
 413              		.align	2
 414              		.globl	_Znam
 416              	_Znam:
 417              	.LFB41:
  17:src/syscall_cpp.cpp ****     return mem_alloc(size);
 418              		.loc 2 17 35 is_stmt 1
 419              		.cfi_startproc
 420              	.LVL27:
 421 0164 130101FF 		addi	sp,sp,-16
 422              		.cfi_def_cfa_offset 16
 423 0168 23341100 		sd	ra,8(sp)
 424 016c 23308100 		sd	s0,0(sp)
 425              		.cfi_offset 1, -8
 426              		.cfi_offset 8, -16
 427 0170 13040101 		addi	s0,sp,16
 428              		.cfi_def_cfa 8, 0
  18:src/syscall_cpp.cpp **** }
 429              		.loc 2 18 5
  18:src/syscall_cpp.cpp **** }
 430              		.loc 2 18 21 is_stmt 0
 431 0174 97000000 		call	_Z9mem_allocm@plt
 431      E7800000 
 432              	.LVL28:
  19:src/syscall_cpp.cpp **** 
 433              		.loc 2 19 1
 434 017c 83308100 		ld	ra,8(sp)
 435              		.cfi_restore 1
 436 0180 03340100 		ld	s0,0(sp)
GAS LISTING /tmp/ccjdNVnt.s 			page 14


 437              		.cfi_restore 8
 438              		.cfi_def_cfa 2, 16
 439 0184 13010101 		addi	sp,sp,16
 440              		.cfi_def_cfa_offset 0
 441 0188 67800000 		jr	ra
 442              		.cfi_endproc
 443              	.LFE41:
 445              		.align	2
 446              		.globl	_ZdlPv
 448              	_ZdlPv:
 449              	.LFB42:
  23:src/syscall_cpp.cpp **** mem_free(ptr);
 450              		.loc 2 23 10 is_stmt 1
 451              		.cfi_startproc
 452              		.cfi_personality 0x9b,DW.ref.__gxx_personality_v0
 453              		.cfi_lsda 0x1b,.LLSDA42
 454              	.LVL29:
 455 018c 130101FF 		addi	sp,sp,-16
 456              		.cfi_def_cfa_offset 16
 457 0190 23341100 		sd	ra,8(sp)
 458 0194 23308100 		sd	s0,0(sp)
 459              		.cfi_offset 1, -8
 460              		.cfi_offset 8, -16
 461 0198 13040101 		addi	s0,sp,16
 462              		.cfi_def_cfa 8, 0
  24:src/syscall_cpp.cpp **** }
 463              		.loc 2 24 1
  24:src/syscall_cpp.cpp **** }
 464              		.loc 2 24 9 is_stmt 0
 465 019c 97000000 		call	_Z8mem_freePv@plt
 465      E7800000 
 466              	.LVL30:
  25:src/syscall_cpp.cpp **** 
 467              		.loc 2 25 1
 468 01a4 83308100 		ld	ra,8(sp)
 469              		.cfi_restore 1
 470 01a8 03340100 		ld	s0,0(sp)
 471              		.cfi_restore 8
 472              		.cfi_def_cfa 2, 16
 473 01ac 13010101 		addi	sp,sp,16
 474              		.cfi_def_cfa_offset 0
 475 01b0 67800000 		jr	ra
 476              		.cfi_endproc
 477              	.LFE42:
 478              		.section	.gcc_except_table
 479              	.LLSDA42:
 480 0008 FF       		.byte	0xff
 481 0009 FF       		.byte	0xff
 482 000a 03       		.byte	0x3
 483 000b 00       		.byte	0
 484              		.text
 486              		.align	2
 487              		.globl	_ZN6ThreadD0Ev
 489              	_ZN6ThreadD0Ev:
 490              	.LFB53:
  57:src/syscall_cpp.cpp ****     //ne treba da se gasi running nit, vec nit na koju pokazuje rucka od this
 491              		.loc 2 57 1 is_stmt 1
GAS LISTING /tmp/ccjdNVnt.s 			page 15


 492              		.cfi_startproc
 493              	.LVL31:
 494 01b4 130101FE 		addi	sp,sp,-32
 495              		.cfi_def_cfa_offset 32
 496 01b8 233C1100 		sd	ra,24(sp)
 497 01bc 23388100 		sd	s0,16(sp)
 498 01c0 23349100 		sd	s1,8(sp)
 499              		.cfi_offset 1, -8
 500              		.cfi_offset 8, -16
 501              		.cfi_offset 9, -24
 502 01c4 13040102 		addi	s0,sp,32
 503              		.cfi_def_cfa 8, 0
 504 01c8 93040500 		mv	s1,a0
  66:src/syscall_cpp.cpp **** 
 505              		.loc 2 66 1 is_stmt 0
 506 01cc 97000000 		call	_ZN6ThreadD1Ev
 506      E7800000 
 507              	.LVL32:
 508 01d4 13850400 		mv	a0,s1
 509 01d8 97000000 		call	_ZdlPv
 509      E7800000 
 510              	.LVL33:
 511 01e0 83308101 		ld	ra,24(sp)
 512              		.cfi_restore 1
 513 01e4 03340101 		ld	s0,16(sp)
 514              		.cfi_restore 8
 515              		.cfi_def_cfa 2, 32
 516 01e8 83348100 		ld	s1,8(sp)
 517              		.cfi_restore 9
 518              	.LVL34:
 519 01ec 13010102 		addi	sp,sp,32
 520              		.cfi_def_cfa_offset 0
 521 01f0 67800000 		jr	ra
 522              		.cfi_endproc
 523              	.LFE53:
 525              		.section	.text._ZN14PeriodicThreadD0Ev,"axG",@progbits,_ZN14PeriodicThreadD5Ev,comdat
 526              		.align	2
 527              		.weak	_ZN14PeriodicThreadD0Ev
 529              	_ZN14PeriodicThreadD0Ev:
 530              	.LFB84:
  80:src/../h/syscall_cpp.hpp **** public:
 531              		.loc 1 80 7 is_stmt 1
 532              		.cfi_startproc
 533              	.LVL35:
 534 0000 130101FE 		addi	sp,sp,-32
 535              		.cfi_def_cfa_offset 32
 536 0004 233C1100 		sd	ra,24(sp)
 537 0008 23388100 		sd	s0,16(sp)
 538 000c 23349100 		sd	s1,8(sp)
 539              		.cfi_offset 1, -8
 540              		.cfi_offset 8, -16
 541              		.cfi_offset 9, -24
 542 0010 13040102 		addi	s0,sp,32
 543              		.cfi_def_cfa 8, 0
 544 0014 93040500 		mv	s1,a0
 545              	.LVL36:
 546              	.LBB75:
GAS LISTING /tmp/ccjdNVnt.s 			page 16


 547              	.LBB76:
  80:src/../h/syscall_cpp.hpp **** public:
 548              		.loc 1 80 7 is_stmt 0
 549 0018 97070000 		lla	a5,_ZTV14PeriodicThread+16
 549      93870700 
 550 0020 2330F500 		sd	a5,0(a0)
 551 0024 97000000 		call	_ZN6ThreadD2Ev
 551      E7800000 
 552              	.LVL37:
 553              	.LBE76:
 554              	.LBE75:
 555 002c 13850400 		mv	a0,s1
 556 0030 97000000 		call	_ZdlPv
 556      E7800000 
 557              	.LVL38:
 558 0038 83308101 		ld	ra,24(sp)
 559              		.cfi_restore 1
 560 003c 03340101 		ld	s0,16(sp)
 561              		.cfi_restore 8
 562              		.cfi_def_cfa 2, 32
 563 0040 83348100 		ld	s1,8(sp)
 564              		.cfi_restore 9
 565              	.LVL39:
 566 0044 13010102 		addi	sp,sp,32
 567              		.cfi_def_cfa_offset 0
 568 0048 67800000 		jr	ra
 569              		.cfi_endproc
 570              	.LFE84:
 572              		.text
 573              		.align	2
 574              		.globl	_ZN9SemaphoreD0Ev
 576              	_ZN9SemaphoreD0Ev:
 577              	.LFB71:
 121:src/syscall_cpp.cpp ****     sem_close(myHandle);
 578              		.loc 2 121 1 is_stmt 1
 579              		.cfi_startproc
 580              	.LVL40:
 581 01f4 130101FE 		addi	sp,sp,-32
 582              		.cfi_def_cfa_offset 32
 583 01f8 233C1100 		sd	ra,24(sp)
 584 01fc 23388100 		sd	s0,16(sp)
 585 0200 23349100 		sd	s1,8(sp)
 586              		.cfi_offset 1, -8
 587              		.cfi_offset 8, -16
 588              		.cfi_offset 9, -24
 589 0204 13040102 		addi	s0,sp,32
 590              		.cfi_def_cfa 8, 0
 591 0208 93040500 		mv	s1,a0
 592              		.loc 2 124 1 is_stmt 0
 593 020c 97000000 		call	_ZN9SemaphoreD1Ev
 593      E7800000 
 594              	.LVL41:
 595 0214 13850400 		mv	a0,s1
 596 0218 97000000 		call	_ZdlPv
 596      E7800000 
 597              	.LVL42:
 598 0220 83308101 		ld	ra,24(sp)
GAS LISTING /tmp/ccjdNVnt.s 			page 17


 599              		.cfi_restore 1
 600 0224 03340101 		ld	s0,16(sp)
 601              		.cfi_restore 8
 602              		.cfi_def_cfa 2, 32
 603 0228 83348100 		ld	s1,8(sp)
 604              		.cfi_restore 9
 605              	.LVL43:
 606 022c 13010102 		addi	sp,sp,32
 607              		.cfi_def_cfa_offset 0
 608 0230 67800000 		jr	ra
 609              		.cfi_endproc
 610              	.LFE71:
 612              		.align	2
 613              		.globl	_ZdaPv
 615              	_ZdaPv:
 616              	.LFB43:
  29:src/syscall_cpp.cpp **** mem_free(ptr);
 617              		.loc 2 29 10 is_stmt 1
 618              		.cfi_startproc
 619              		.cfi_personality 0x9b,DW.ref.__gxx_personality_v0
 620              		.cfi_lsda 0x1b,.LLSDA43
 621              	.LVL44:
 622 0234 130101FF 		addi	sp,sp,-16
 623              		.cfi_def_cfa_offset 16
 624 0238 23341100 		sd	ra,8(sp)
 625 023c 23308100 		sd	s0,0(sp)
 626              		.cfi_offset 1, -8
 627              		.cfi_offset 8, -16
 628 0240 13040101 		addi	s0,sp,16
 629              		.cfi_def_cfa 8, 0
  30:src/syscall_cpp.cpp **** }
 630              		.loc 2 30 1
  30:src/syscall_cpp.cpp **** }
 631              		.loc 2 30 9 is_stmt 0
 632 0244 97000000 		call	_Z8mem_freePv@plt
 632      E7800000 
 633              	.LVL45:
  31:src/syscall_cpp.cpp **** 
 634              		.loc 2 31 1
 635 024c 83308100 		ld	ra,8(sp)
 636              		.cfi_restore 1
 637 0250 03340100 		ld	s0,0(sp)
 638              		.cfi_restore 8
 639              		.cfi_def_cfa 2, 16
 640 0254 13010101 		addi	sp,sp,16
 641              		.cfi_def_cfa_offset 0
 642 0258 67800000 		jr	ra
 643              		.cfi_endproc
 644              	.LFE43:
 645              		.section	.gcc_except_table
 646              	.LLSDA43:
 647 000c FF       		.byte	0xff
 648 000d FF       		.byte	0xff
 649 000e 03       		.byte	0x3
 650 000f 00       		.byte	0
 651              		.text
 653              		.align	2
GAS LISTING /tmp/ccjdNVnt.s 			page 18


 654              		.globl	_ZN6ThreadC2EPFvPvES0_
 656              	_ZN6ThreadC2EPFvPvES0_:
 657              	.LFB45:
  33:src/syscall_cpp.cpp ****     this->body = body;
 658              		.loc 2 33 1 is_stmt 1
 659              		.cfi_startproc
 660              	.LVL46:
 661 025c 130101FD 		addi	sp,sp,-48
 662              		.cfi_def_cfa_offset 48
 663 0260 23341102 		sd	ra,40(sp)
 664 0264 23308102 		sd	s0,32(sp)
 665 0268 233C9100 		sd	s1,24(sp)
 666 026c 23382101 		sd	s2,16(sp)
 667 0270 23343101 		sd	s3,8(sp)
 668              		.cfi_offset 1, -8
 669              		.cfi_offset 8, -16
 670              		.cfi_offset 9, -24
 671              		.cfi_offset 18, -32
 672              		.cfi_offset 19, -40
 673 0274 13040103 		addi	s0,sp,48
 674              		.cfi_def_cfa 8, 0
 675 0278 93040500 		mv	s1,a0
 676 027c 13890500 		mv	s2,a1
 677 0280 93090600 		mv	s3,a2
 678              	.LBB77:
  33:src/syscall_cpp.cpp ****     this->body = body;
 679              		.loc 2 33 47 is_stmt 0
 680 0284 97070000 		lla	a5,_ZTV6Thread+16
 680      93870700 
 681 028c 2330F500 		sd	a5,0(a0)
 682              	.LBB78:
  34:src/syscall_cpp.cpp ****     this->arg = arg;
 683              		.loc 2 34 5 is_stmt 1
  34:src/syscall_cpp.cpp ****     this->arg = arg;
 684              		.loc 2 34 16 is_stmt 0
 685 0290 2338B500 		sd	a1,16(a0)
  35:src/syscall_cpp.cpp ****     //stvaranje steka ako se ne radi o main kernel niti, posto ona automatski ima stek
 686              		.loc 2 35 5 is_stmt 1
  35:src/syscall_cpp.cpp ****     //stvaranje steka ako se ne radi o main kernel niti, posto ona automatski ima stek
 687              		.loc 2 35 15 is_stmt 0
 688 0294 233CC500 		sd	a2,24(a0)
  37:src/syscall_cpp.cpp ****     if (body != (TCB::Body)main) {
 689              		.loc 2 37 5 is_stmt 1
 690              	.LVL47:
  38:src/syscall_cpp.cpp ****         stack = (uint64*)mem_alloc(DEFAULT_STACK_SIZE);
 691              		.loc 2 38 5
 692 0298 97070000 		la	a5,main
 692      83B70700 
 693 02a0 6386F504 		beq	a1,a5,.L41
  39:src/syscall_cpp.cpp ****     }
 694              		.loc 2 39 9
  39:src/syscall_cpp.cpp ****     }
 695              		.loc 2 39 35 is_stmt 0
 696 02a4 37150000 		li	a0,4096
 697              	.LVL48:
 698 02a8 97000000 		call	_Z9mem_allocm@plt
 698      E7800000 
GAS LISTING /tmp/ccjdNVnt.s 			page 19


 699              	.LVL49:
 700 02b0 13030500 		mv	t1,a0
 701              	.LVL50:
 702              	.L40:
  42:src/syscall_cpp.cpp ****     __asm__ volatile("mv a3, %[arg]": :[arg] "r"(arg):"a5", "a0", "a1", "a2", "a3", "a4", "a6", "a7
 703              		.loc 2 42 5 is_stmt 1
  42:src/syscall_cpp.cpp ****     __asm__ volatile("mv a3, %[arg]": :[arg] "r"(arg):"a5", "a0", "a1", "a2", "a3", "a4", "a6", "a7
 704              		.loc 2 42 102 is_stmt 0
 705              	#APP
 706              	# 42 "src/syscall_cpp.cpp" 1
  43:src/syscall_cpp.cpp ****     __asm__ volatile("mv a2, %[function]": :[function] "r"(
 707              		mv a4, t1
 708              	# 0 "" 2
 709              		.loc 2 43 5 is_stmt 1
  43:src/syscall_cpp.cpp ****     __asm__ volatile("mv a2, %[function]": :[function] "r"(
 710              		.loc 2 43 102 is_stmt 0
 711              	# 43 "src/syscall_cpp.cpp" 1
  44:src/syscall_cpp.cpp ****             body):"a5", "a0", "a1", "a2", "a3", "a4", "a6", "a7");
 712              		mv a3, s3
 713              	# 0 "" 2
 714              		.loc 2 44 5 is_stmt 1
  45:src/syscall_cpp.cpp ****     __asm__ volatile("mv a1, %[handle]": :[handle] "r"(&myHandle):"a5", "a0", "a1", "a2", "a3", "a4
 715              		.loc 2 45 66 is_stmt 0
 716              	# 45 "src/syscall_cpp.cpp" 1
  46:src/syscall_cpp.cpp ****     __asm__ volatile("li a0, 0x80");
 717              		mv a2, s2
 718              	# 0 "" 2
 719              		.loc 2 46 5 is_stmt 1
  46:src/syscall_cpp.cpp ****     __asm__ volatile("li a0, 0x80");
 720              		.loc 2 46 56 is_stmt 0
 721              	#NO_APP
 722 02c0 93848400 		addi	s1,s1,8
 723              	.LVL51:
  46:src/syscall_cpp.cpp ****     __asm__ volatile("li a0, 0x80");
 724              		.loc 2 46 114
 725              	#APP
 726              	# 46 "src/syscall_cpp.cpp" 1
  47:src/syscall_cpp.cpp ****     //a0 = 0x80
 727              		mv a1, s1
 728              	# 0 "" 2
 729              		.loc 2 47 5 is_stmt 1
  47:src/syscall_cpp.cpp ****     //a0 = 0x80
 730              		.loc 2 47 36 is_stmt 0
 731              	# 47 "src/syscall_cpp.cpp" 1
  54:src/syscall_cpp.cpp **** }
 732              		li a0, 0x80
 733              	# 0 "" 2
 734              		.loc 2 54 5 is_stmt 1
  54:src/syscall_cpp.cpp **** }
 735              		.loc 2 54 30 is_stmt 0
 736              	# 54 "src/syscall_cpp.cpp" 1
 737              		ecall
 738              	# 0 "" 2
 739              	#NO_APP
 740              	.LBE78:
 741              	.LBE77:
  55:src/syscall_cpp.cpp **** 
GAS LISTING /tmp/ccjdNVnt.s 			page 20


 742              		.loc 2 55 1
 743 02d0 83308102 		ld	ra,40(sp)
 744              		.cfi_remember_state
 745              		.cfi_restore 1
 746 02d4 03340102 		ld	s0,32(sp)
 747              		.cfi_restore 8
 748              		.cfi_def_cfa 2, 48
 749 02d8 83348101 		ld	s1,24(sp)
 750              		.cfi_restore 9
 751              	.LVL52:
 752 02dc 03390101 		ld	s2,16(sp)
 753              		.cfi_restore 18
 754              	.LVL53:
 755 02e0 83398100 		ld	s3,8(sp)
 756              		.cfi_restore 19
 757              	.LVL54:
 758 02e4 13010103 		addi	sp,sp,48
 759              		.cfi_def_cfa_offset 0
 760 02e8 67800000 		jr	ra
 761              	.LVL55:
 762              	.L41:
 763              		.cfi_restore_state
 764              	.LBB80:
 765              	.LBB79:
  37:src/syscall_cpp.cpp ****     if (body != (TCB::Body)main) {
 766              		.loc 2 37 13
 767 02ec 13030000 		li	t1,0
 768 02f0 6FF05FFC 		j	.L40
 769              	.LBE79:
 770              	.LBE80:
 771              		.cfi_endproc
 772              	.LFE45:
 774              		.globl	_ZN6ThreadC1EPFvPvES0_
 775              		.set	_ZN6ThreadC1EPFvPvES0_,_ZN6ThreadC2EPFvPvES0_
 776              		.align	2
 777              		.globl	_ZN6Thread5startEv
 779              	_ZN6Thread5startEv:
 780              	.LFB54:
  68:src/syscall_cpp.cpp ****     if (myHandle == nullptr || myHandle->getStatus() != TCB::CREATED) return -1;
 781              		.loc 2 68 21 is_stmt 1
 782              		.cfi_startproc
 783              	.LVL56:
 784 02f4 130101FF 		addi	sp,sp,-16
 785              		.cfi_def_cfa_offset 16
 786 02f8 23348100 		sd	s0,8(sp)
 787              		.cfi_offset 8, -8
 788 02fc 13040101 		addi	s0,sp,16
 789              		.cfi_def_cfa 8, 0
  69:src/syscall_cpp.cpp ****     __asm__ volatile("mv a1, %[handle]": :[handle] "r"(myHandle):"a5", "a0", "a1", "a2", "a3", "a4"
 790              		.loc 2 69 5
  69:src/syscall_cpp.cpp ****     __asm__ volatile("mv a1, %[handle]": :[handle] "r"(myHandle):"a5", "a0", "a1", "a2", "a3", "a4"
 791              		.loc 2 69 9 is_stmt 0
 792 0300 03338500 		ld	t1,8(a0)
  69:src/syscall_cpp.cpp ****     __asm__ volatile("mv a1, %[handle]": :[handle] "r"(myHandle):"a5", "a0", "a1", "a2", "a3", "a4"
 793              		.loc 2 69 29
 794 0304 63040302 		beqz	t1,.L45
 795              	.LVL57:
GAS LISTING /tmp/ccjdNVnt.s 			page 21


 796              	.LBB81:
 797              	.LBB82:
 798              		.file 4 "src/../h/TCB.hpp"
   1:src/../h/TCB.hpp **** //
   2:src/../h/TCB.hpp **** // Created by os on 5/23/23.
   3:src/../h/TCB.hpp **** //
   4:src/../h/TCB.hpp **** 
   5:src/../h/TCB.hpp **** #ifndef PROJEKAT2023_TCB_HPP
   6:src/../h/TCB.hpp **** #define PROJEKAT2023_TCB_HPP
   7:src/../h/TCB.hpp **** 
   8:src/../h/TCB.hpp **** #include "../lib/hw.h"
   9:src/../h/TCB.hpp **** #include "../h/ThreadQueue.hpp"
  10:src/../h/TCB.hpp **** 
  11:src/../h/TCB.hpp **** int main();
  12:src/../h/TCB.hpp **** 
  13:src/../h/TCB.hpp **** class TCB {
  14:src/../h/TCB.hpp **** public:
  15:src/../h/TCB.hpp ****     friend class Scheduler;
  16:src/../h/TCB.hpp **** 
  17:src/../h/TCB.hpp ****     using Body = void (*)(void*);
  18:src/../h/TCB.hpp **** 
  19:src/../h/TCB.hpp ****     enum ThreadStatus {
  20:src/../h/TCB.hpp ****         CREATED, ACTIVE, BLOCKED, JOINING, SLEEPING, FINISHED
  21:src/../h/TCB.hpp ****     };
  22:src/../h/TCB.hpp **** 
  23:src/../h/TCB.hpp ****     static TCB* createThread(Body function, void* args, uint64* stack);
  24:src/../h/TCB.hpp **** 
  25:src/../h/TCB.hpp ****     void setStatus(ThreadStatus stat) { this->status = stat; }
  26:src/../h/TCB.hpp **** 
  27:src/../h/TCB.hpp ****     ThreadStatus getStatus() { return this->status; }
 799              		.loc 4 27 32 is_stmt 1 discriminator 2
 800              		.loc 4 27 45 is_stmt 0 discriminator 2
 801 0308 83278305 		lw	a5,88(t1)
 802              	.LVL58:
 803              	.LBE82:
 804              	.LBE81:
  69:src/syscall_cpp.cpp ****     __asm__ volatile("mv a1, %[handle]": :[handle] "r"(myHandle):"a5", "a0", "a1", "a2", "a3", "a4"
 805              		.loc 2 69 29 discriminator 2
 806 030c 63940702 		bnez	a5,.L46
  70:src/syscall_cpp.cpp ****     __asm__ volatile("li a0, 0x81");
 807              		.loc 2 70 5 is_stmt 1
  70:src/syscall_cpp.cpp ****     __asm__ volatile("li a0, 0x81");
 808              		.loc 2 70 113 is_stmt 0
 809              	#APP
 810              	# 70 "src/syscall_cpp.cpp" 1
 811              		mv a1, t1
 812              	# 0 "" 2
 813              	.LVL59:
  71:src/syscall_cpp.cpp **** 
 814              		.loc 2 71 5 is_stmt 1
  71:src/syscall_cpp.cpp **** 
 815              		.loc 2 71 36 is_stmt 0
 816              	# 71 "src/syscall_cpp.cpp" 1
  73:src/syscall_cpp.cpp **** 
 817              		li a0, 0x81
 818              	# 0 "" 2
 819              		.loc 2 73 5 is_stmt 1
GAS LISTING /tmp/ccjdNVnt.s 			page 22


  73:src/syscall_cpp.cpp **** 
 820              		.loc 2 73 30 is_stmt 0
 821              	# 73 "src/syscall_cpp.cpp" 1
  75:src/syscall_cpp.cpp **** }
 822              		ecall
 823              	# 0 "" 2
 824              		.loc 2 75 5 is_stmt 1
  75:src/syscall_cpp.cpp **** }
 825              		.loc 2 75 12 is_stmt 0
 826              	#NO_APP
 827 031c 13050000 		li	a0,0
 828              	.L44:
  76:src/syscall_cpp.cpp **** 
 829              		.loc 2 76 1
 830 0320 03348100 		ld	s0,8(sp)
 831              		.cfi_remember_state
 832              		.cfi_restore 8
 833              		.cfi_def_cfa 2, 16
 834 0324 13010101 		addi	sp,sp,16
 835              		.cfi_def_cfa_offset 0
 836 0328 67800000 		jr	ra
 837              	.LVL60:
 838              	.L45:
 839              		.cfi_restore_state
  69:src/syscall_cpp.cpp ****     __asm__ volatile("mv a1, %[handle]": :[handle] "r"(myHandle):"a5", "a0", "a1", "a2", "a3", "a4"
 840              		.loc 2 69 79
 841 032c 1305F0FF 		li	a0,-1
 842              	.LVL61:
 843 0330 6FF01FFF 		j	.L44
 844              	.LVL62:
 845              	.L46:
 846 0334 1305F0FF 		li	a0,-1
 847              	.LVL63:
 848 0338 6FF09FFE 		j	.L44
 849              		.cfi_endproc
 850              	.LFE54:
 852              		.align	2
 853              		.globl	_ZN6Thread4joinEv
 855              	_ZN6Thread4joinEv:
 856              	.LFB55:
  78:src/syscall_cpp.cpp ****     thread_join(myHandle);
 857              		.loc 2 78 21 is_stmt 1
 858              		.cfi_startproc
 859              	.LVL64:
 860 033c 130101FF 		addi	sp,sp,-16
 861              		.cfi_def_cfa_offset 16
 862 0340 23341100 		sd	ra,8(sp)
 863 0344 23308100 		sd	s0,0(sp)
 864              		.cfi_offset 1, -8
 865              		.cfi_offset 8, -16
 866 0348 13040101 		addi	s0,sp,16
 867              		.cfi_def_cfa 8, 0
  79:src/syscall_cpp.cpp **** }
 868              		.loc 2 79 5
  79:src/syscall_cpp.cpp **** }
 869              		.loc 2 79 16 is_stmt 0
 870 034c 03358500 		ld	a0,8(a0)
GAS LISTING /tmp/ccjdNVnt.s 			page 23


 871              	.LVL65:
 872 0350 97000000 		call	_Z11thread_joinP3TCB@plt
 872      E7800000 
 873              	.LVL66:
  80:src/syscall_cpp.cpp **** 
 874              		.loc 2 80 1
 875 0358 83308100 		ld	ra,8(sp)
 876              		.cfi_restore 1
 877 035c 03340100 		ld	s0,0(sp)
 878              		.cfi_restore 8
 879              		.cfi_def_cfa 2, 16
 880 0360 13010101 		addi	sp,sp,16
 881              		.cfi_def_cfa_offset 0
 882 0364 67800000 		jr	ra
 883              		.cfi_endproc
 884              	.LFE55:
 886              		.align	2
 887              		.globl	_ZN6Thread8dispatchEv
 889              	_ZN6Thread8dispatchEv:
 890              	.LFB56:
  82:src/syscall_cpp.cpp ****     thread_dispatch();
 891              		.loc 2 82 25 is_stmt 1
 892              		.cfi_startproc
 893 0368 130101FF 		addi	sp,sp,-16
 894              		.cfi_def_cfa_offset 16
 895 036c 23341100 		sd	ra,8(sp)
 896 0370 23308100 		sd	s0,0(sp)
 897              		.cfi_offset 1, -8
 898              		.cfi_offset 8, -16
 899 0374 13040101 		addi	s0,sp,16
 900              		.cfi_def_cfa 8, 0
  83:src/syscall_cpp.cpp **** }
 901              		.loc 2 83 5
  83:src/syscall_cpp.cpp **** }
 902              		.loc 2 83 20 is_stmt 0
 903 0378 97000000 		call	_Z15thread_dispatchv@plt
 903      E7800000 
 904              	.LVL67:
  84:src/syscall_cpp.cpp **** 
 905              		.loc 2 84 1
 906 0380 83308100 		ld	ra,8(sp)
 907              		.cfi_restore 1
 908 0384 03340100 		ld	s0,0(sp)
 909              		.cfi_restore 8
 910              		.cfi_def_cfa 2, 16
 911 0388 13010101 		addi	sp,sp,16
 912              		.cfi_def_cfa_offset 0
 913 038c 67800000 		jr	ra
 914              		.cfi_endproc
 915              	.LFE56:
 917              		.align	2
 918              		.globl	_ZN6Thread5sleepEm
 920              	_ZN6Thread5sleepEm:
 921              	.LFB57:
  86:src/syscall_cpp.cpp ****     time_sleep(t);
 922              		.loc 2 86 29 is_stmt 1
 923              		.cfi_startproc
GAS LISTING /tmp/ccjdNVnt.s 			page 24


 924              	.LVL68:
 925 0390 130101FF 		addi	sp,sp,-16
 926              		.cfi_def_cfa_offset 16
 927 0394 23341100 		sd	ra,8(sp)
 928 0398 23308100 		sd	s0,0(sp)
 929              		.cfi_offset 1, -8
 930              		.cfi_offset 8, -16
 931 039c 13040101 		addi	s0,sp,16
 932              		.cfi_def_cfa 8, 0
  87:src/syscall_cpp.cpp ****     return 0;
 933              		.loc 2 87 5
  87:src/syscall_cpp.cpp ****     return 0;
 934              		.loc 2 87 15 is_stmt 0
 935 03a0 97000000 		call	_Z10time_sleepm@plt
 935      E7800000 
 936              	.LVL69:
  88:src/syscall_cpp.cpp **** }
 937              		.loc 2 88 5 is_stmt 1
  89:src/syscall_cpp.cpp **** 
 938              		.loc 2 89 1 is_stmt 0
 939 03a8 13050000 		li	a0,0
 940 03ac 83308100 		ld	ra,8(sp)
 941              		.cfi_restore 1
 942 03b0 03340100 		ld	s0,0(sp)
 943              		.cfi_restore 8
 944              		.cfi_def_cfa 2, 16
 945 03b4 13010101 		addi	sp,sp,16
 946              		.cfi_def_cfa_offset 0
 947 03b8 67800000 		jr	ra
 948              		.cfi_endproc
 949              	.LFE57:
 951              		.align	2
 952              		.globl	_ZN14PeriodicThread3runEv
 954              	_ZN14PeriodicThread3runEv:
 955              	.LFB78:
 125:src/syscall_cpp.cpp **** 
 126:src/syscall_cpp.cpp **** int Semaphore::wait() {
 127:src/syscall_cpp.cpp ****     return sem_wait(myHandle);
 128:src/syscall_cpp.cpp **** }
 129:src/syscall_cpp.cpp **** 
 130:src/syscall_cpp.cpp **** int Semaphore::signal() {
 131:src/syscall_cpp.cpp ****     return sem_signal(myHandle);
 132:src/syscall_cpp.cpp **** }
 133:src/syscall_cpp.cpp **** 
 134:src/syscall_cpp.cpp **** void PeriodicThread::terminate() {
 135:src/syscall_cpp.cpp ****     this->period = -1;
 136:src/syscall_cpp.cpp **** }
 137:src/syscall_cpp.cpp **** 
 138:src/syscall_cpp.cpp **** PeriodicThread::PeriodicThread(time_t period) : Thread(), period(period) {
 139:src/syscall_cpp.cpp ****     if (this->period < 0) this->period = 2;
 140:src/syscall_cpp.cpp **** }
 141:src/syscall_cpp.cpp **** 
 142:src/syscall_cpp.cpp **** void PeriodicThread::run() {
 956              		.loc 2 142 28 is_stmt 1
 957              		.cfi_startproc
 958              	.LVL70:
 959 03bc 130101FE 		addi	sp,sp,-32
GAS LISTING /tmp/ccjdNVnt.s 			page 25


 960              		.cfi_def_cfa_offset 32
 961 03c0 233C1100 		sd	ra,24(sp)
 962 03c4 23388100 		sd	s0,16(sp)
 963 03c8 23349100 		sd	s1,8(sp)
 964              		.cfi_offset 1, -8
 965              		.cfi_offset 8, -16
 966              		.cfi_offset 9, -24
 967 03cc 13040102 		addi	s0,sp,32
 968              		.cfi_def_cfa 8, 0
 969 03d0 93040500 		mv	s1,a0
 970              	.LVL71:
 971              	.L56:
 143:src/syscall_cpp.cpp ****     while (period != -1UL) {
 972              		.loc 2 143 5
 973              		.loc 2 143 19
 974              		.loc 2 143 12 is_stmt 0
 975 03d4 03B70402 		ld	a4,32(s1)
 976              		.loc 2 143 19
 977 03d8 9307F0FF 		li	a5,-1
 978 03dc 6306F702 		beq	a4,a5,.L55
 144:src/syscall_cpp.cpp ****         periodicActivation();
 979              		.loc 2 144 9 is_stmt 1
 980              		.loc 2 144 28 is_stmt 0
 981 03e0 83B70400 		ld	a5,0(s1)
 982 03e4 83B78701 		ld	a5,24(a5)
 983              		.loc 2 144 27
 984 03e8 13850400 		mv	a0,s1
 985 03ec E7800700 		jalr	a5
 986              	.LVL72:
 145:src/syscall_cpp.cpp ****         if (period == -1UL) break;
 987              		.loc 2 145 9 is_stmt 1
 988              		.loc 2 145 13 is_stmt 0
 989 03f0 03B50402 		ld	a0,32(s1)
 990              		.loc 2 145 9
 991 03f4 9307F0FF 		li	a5,-1
 992 03f8 6308F500 		beq	a0,a5,.L55
 146:src/syscall_cpp.cpp ****         sleep(period);
 993              		.loc 2 146 9 is_stmt 1
 994              		.loc 2 146 14 is_stmt 0
 995 03fc 97000000 		call	_ZN6Thread5sleepEm
 995      E7800000 
 996              	.LVL73:
 143:src/syscall_cpp.cpp ****         periodicActivation();
 997              		.loc 2 143 5
 998 0404 6FF01FFD 		j	.L56
 999              	.L55:
 147:src/syscall_cpp.cpp ****     }
 148:src/syscall_cpp.cpp ****     thread_exit();
 1000              		.loc 2 148 5 is_stmt 1
 1001              		.loc 2 148 16 is_stmt 0
 1002 0408 97000000 		call	_Z11thread_exitv@plt
 1002      E7800000 
 1003              	.LVL74:
 149:src/syscall_cpp.cpp **** }
 1004              		.loc 2 149 1
 1005 0410 83308101 		ld	ra,24(sp)
 1006              		.cfi_restore 1
GAS LISTING /tmp/ccjdNVnt.s 			page 26


 1007 0414 03340101 		ld	s0,16(sp)
 1008              		.cfi_restore 8
 1009              		.cfi_def_cfa 2, 32
 1010 0418 83348100 		ld	s1,8(sp)
 1011              		.cfi_restore 9
 1012              	.LVL75:
 1013 041c 13010102 		addi	sp,sp,32
 1014              		.cfi_def_cfa_offset 0
 1015 0420 67800000 		jr	ra
 1016              		.cfi_endproc
 1017              	.LFE78:
 1019              		.align	2
 1020              		.globl	_ZN6ThreadC2Ev
 1022              	_ZN6ThreadC2Ev:
 1023              	.LFB59:
  91:src/syscall_cpp.cpp ****     this->body = wrapper;
 1024              		.loc 2 91 1 is_stmt 1
 1025              		.cfi_startproc
 1026              	.LVL76:
 1027 0424 130101FE 		addi	sp,sp,-32
 1028              		.cfi_def_cfa_offset 32
 1029 0428 233C1100 		sd	ra,24(sp)
 1030 042c 23388100 		sd	s0,16(sp)
 1031 0430 23349100 		sd	s1,8(sp)
 1032              		.cfi_offset 1, -8
 1033              		.cfi_offset 8, -16
 1034              		.cfi_offset 9, -24
 1035 0434 13040102 		addi	s0,sp,32
 1036              		.cfi_def_cfa 8, 0
 1037 0438 93040500 		mv	s1,a0
 1038              	.LBB83:
  91:src/syscall_cpp.cpp ****     this->body = wrapper;
 1039              		.loc 2 91 16 is_stmt 0
 1040 043c 97070000 		lla	a5,_ZTV6Thread+16
 1040      93870700 
 1041 0444 2330F500 		sd	a5,0(a0)
 1042              	.LBB84:
  92:src/syscall_cpp.cpp ****     this->arg = this;
 1043              		.loc 2 92 5 is_stmt 1
  92:src/syscall_cpp.cpp ****     this->arg = this;
 1044              		.loc 2 92 16 is_stmt 0
 1045 0448 97070000 		lla	a5,_ZN6Thread7wrapperEPv
 1045      93870700 
 1046 0450 2338F500 		sd	a5,16(a0)
  93:src/syscall_cpp.cpp ****     uint64* stack = (uint64*)mem_alloc(DEFAULT_STACK_SIZE);
 1047              		.loc 2 93 5 is_stmt 1
  93:src/syscall_cpp.cpp ****     uint64* stack = (uint64*)mem_alloc(DEFAULT_STACK_SIZE);
 1048              		.loc 2 93 15 is_stmt 0
 1049 0454 233CA500 		sd	a0,24(a0)
  94:src/syscall_cpp.cpp ****     //stavljanje argumenata za sistemski poziv
 1050              		.loc 2 94 5 is_stmt 1
  94:src/syscall_cpp.cpp ****     //stavljanje argumenata za sistemski poziv
 1051              		.loc 2 94 39 is_stmt 0
 1052 0458 37150000 		li	a0,4096
 1053              	.LVL77:
 1054 045c 97000000 		call	_Z9mem_allocm@plt
 1054      E7800000 
GAS LISTING /tmp/ccjdNVnt.s 			page 27


 1055              	.LVL78:
 1056 0464 13030500 		mv	t1,a0
 1057              	.LVL79:
  96:src/syscall_cpp.cpp ****     __asm__ volatile("mv a3, %[arg]": :[arg] "r"(arg):"a5", "a0", "a1", "a2", "a3", "a4", "a6", "a7
 1058              		.loc 2 96 5 is_stmt 1
  96:src/syscall_cpp.cpp ****     __asm__ volatile("mv a3, %[arg]": :[arg] "r"(arg):"a5", "a0", "a1", "a2", "a3", "a4", "a6", "a7
 1059              		.loc 2 96 102 is_stmt 0
 1060              	#APP
 1061              	# 96 "src/syscall_cpp.cpp" 1
  97:src/syscall_cpp.cpp ****     __asm__ volatile("mv a2, %[function]": :[function] "r"(
 1062              		mv a4, t1
 1063              	# 0 "" 2
 1064              		.loc 2 97 5 is_stmt 1
  97:src/syscall_cpp.cpp ****     __asm__ volatile("mv a2, %[function]": :[function] "r"(
 1065              		.loc 2 97 50 is_stmt 0
 1066              	#NO_APP
 1067 046c 03B38401 		ld	t1,24(s1)
 1068              	.LVL80:
  97:src/syscall_cpp.cpp ****     __asm__ volatile("mv a2, %[function]": :[function] "r"(
 1069              		.loc 2 97 102
 1070              	#APP
 1071              	# 97 "src/syscall_cpp.cpp" 1
  98:src/syscall_cpp.cpp ****             body):"a5", "a0", "a1", "a2", "a3", "a4", "a6", "a7");
 1072              		mv a3, t1
 1073              	# 0 "" 2
 1074              		.loc 2 98 5 is_stmt 1
  99:src/syscall_cpp.cpp ****     __asm__ volatile("mv a1, %[handle]": :[handle] "r"(&myHandle):"a5", "a0", "a1", "a2", "a3", "a4
 1075              		.loc 2 99 13 is_stmt 0
 1076              	#NO_APP
 1077 0474 03B30401 		ld	t1,16(s1)
  99:src/syscall_cpp.cpp ****     __asm__ volatile("mv a1, %[handle]": :[handle] "r"(&myHandle):"a5", "a0", "a1", "a2", "a3", "a4
 1078              		.loc 2 99 66
 1079              	#APP
 1080              	# 99 "src/syscall_cpp.cpp" 1
 100:src/syscall_cpp.cpp ****     __asm__ volatile("li a0, 0x80");
 1081              		mv a2, t1
 1082              	# 0 "" 2
 1083              		.loc 2 100 5 is_stmt 1
 100:src/syscall_cpp.cpp ****     __asm__ volatile("li a0, 0x80");
 1084              		.loc 2 100 56 is_stmt 0
 1085              	#NO_APP
 1086 047c 93848400 		addi	s1,s1,8
 1087              	.LVL81:
 100:src/syscall_cpp.cpp ****     __asm__ volatile("li a0, 0x80");
 1088              		.loc 2 100 114
 1089              	#APP
 1090              	# 100 "src/syscall_cpp.cpp" 1
 101:src/syscall_cpp.cpp ****     //a0 = 0x80
 1091              		mv a1, s1
 1092              	# 0 "" 2
 1093              		.loc 2 101 5 is_stmt 1
 101:src/syscall_cpp.cpp ****     //a0 = 0x80
 1094              		.loc 2 101 36 is_stmt 0
 1095              	# 101 "src/syscall_cpp.cpp" 1
 108:src/syscall_cpp.cpp **** }
 1096              		li a0, 0x80
 1097              	# 0 "" 2
GAS LISTING /tmp/ccjdNVnt.s 			page 28


 1098              		.loc 2 108 5 is_stmt 1
 108:src/syscall_cpp.cpp **** }
 1099              		.loc 2 108 30 is_stmt 0
 1100              	# 108 "src/syscall_cpp.cpp" 1
 1101              		ecall
 1102              	# 0 "" 2
 1103              	#NO_APP
 1104              	.LBE84:
 1105              	.LBE83:
 109:src/syscall_cpp.cpp **** 
 1106              		.loc 2 109 1
 1107 048c 83308101 		ld	ra,24(sp)
 1108              		.cfi_restore 1
 1109 0490 03340101 		ld	s0,16(sp)
 1110              		.cfi_restore 8
 1111              		.cfi_def_cfa 2, 32
 1112 0494 83348100 		ld	s1,8(sp)
 1113              		.cfi_restore 9
 1114              	.LVL82:
 1115 0498 13010102 		addi	sp,sp,32
 1116              		.cfi_def_cfa_offset 0
 1117 049c 67800000 		jr	ra
 1118              		.cfi_endproc
 1119              	.LFE59:
 1121              		.globl	_ZN6ThreadC1Ev
 1122              		.set	_ZN6ThreadC1Ev,_ZN6ThreadC2Ev
 1123              		.align	2
 1124              		.globl	_ZN9SemaphoreC2Ej
 1126              	_ZN9SemaphoreC2Ej:
 1127              	.LFB63:
 117:src/syscall_cpp.cpp ****     sem_open(&myHandle, init);
 1128              		.loc 2 117 1 is_stmt 1
 1129              		.cfi_startproc
 1130              	.LVL83:
 1131 04a0 130101FF 		addi	sp,sp,-16
 1132              		.cfi_def_cfa_offset 16
 1133 04a4 23341100 		sd	ra,8(sp)
 1134 04a8 23308100 		sd	s0,0(sp)
 1135              		.cfi_offset 1, -8
 1136              		.cfi_offset 8, -16
 1137 04ac 13040101 		addi	s0,sp,16
 1138              		.cfi_def_cfa 8, 0
 1139              	.LBB85:
 117:src/syscall_cpp.cpp ****     sem_open(&myHandle, init);
 1140              		.loc 2 117 39 is_stmt 0
 1141 04b0 97070000 		lla	a5,_ZTV9Semaphore+16
 1141      93870700 
 1142 04b8 2330F500 		sd	a5,0(a0)
 118:src/syscall_cpp.cpp **** }
 1143              		.loc 2 118 5 is_stmt 1
 118:src/syscall_cpp.cpp **** }
 1144              		.loc 2 118 13 is_stmt 0
 1145 04bc 13058500 		addi	a0,a0,8
 1146              	.LVL84:
 1147 04c0 97000000 		call	_Z8sem_openPP4KSemj@plt
 1147      E7800000 
 1148              	.LVL85:
GAS LISTING /tmp/ccjdNVnt.s 			page 29


 1149              	.LBE85:
 119:src/syscall_cpp.cpp **** 
 1150              		.loc 2 119 1
 1151 04c8 83308100 		ld	ra,8(sp)
 1152              		.cfi_restore 1
 1153 04cc 03340100 		ld	s0,0(sp)
 1154              		.cfi_restore 8
 1155              		.cfi_def_cfa 2, 16
 1156 04d0 13010101 		addi	sp,sp,16
 1157              		.cfi_def_cfa_offset 0
 1158 04d4 67800000 		jr	ra
 1159              		.cfi_endproc
 1160              	.LFE63:
 1162              		.globl	_ZN9SemaphoreC1Ej
 1163              		.set	_ZN9SemaphoreC1Ej,_ZN9SemaphoreC2Ej
 1164              		.align	2
 1165              		.globl	_ZN9Semaphore4waitEv
 1167              	_ZN9Semaphore4waitEv:
 1168              	.LFB72:
 126:src/syscall_cpp.cpp ****     return sem_wait(myHandle);
 1169              		.loc 2 126 23 is_stmt 1
 1170              		.cfi_startproc
 1171              	.LVL86:
 1172 04d8 130101FF 		addi	sp,sp,-16
 1173              		.cfi_def_cfa_offset 16
 1174 04dc 23341100 		sd	ra,8(sp)
 1175 04e0 23308100 		sd	s0,0(sp)
 1176              		.cfi_offset 1, -8
 1177              		.cfi_offset 8, -16
 1178 04e4 13040101 		addi	s0,sp,16
 1179              		.cfi_def_cfa 8, 0
 127:src/syscall_cpp.cpp **** }
 1180              		.loc 2 127 5
 127:src/syscall_cpp.cpp **** }
 1181              		.loc 2 127 20 is_stmt 0
 1182 04e8 03358500 		ld	a0,8(a0)
 1183              	.LVL87:
 1184 04ec 97000000 		call	_Z8sem_waitP4KSem@plt
 1184      E7800000 
 1185              	.LVL88:
 128:src/syscall_cpp.cpp **** 
 1186              		.loc 2 128 1
 1187 04f4 83308100 		ld	ra,8(sp)
 1188              		.cfi_restore 1
 1189 04f8 03340100 		ld	s0,0(sp)
 1190              		.cfi_restore 8
 1191              		.cfi_def_cfa 2, 16
 1192 04fc 13010101 		addi	sp,sp,16
 1193              		.cfi_def_cfa_offset 0
 1194 0500 67800000 		jr	ra
 1195              		.cfi_endproc
 1196              	.LFE72:
 1198              		.align	2
 1199              		.globl	_ZN9Semaphore6signalEv
 1201              	_ZN9Semaphore6signalEv:
 1202              	.LFB73:
 130:src/syscall_cpp.cpp ****     return sem_signal(myHandle);
GAS LISTING /tmp/ccjdNVnt.s 			page 30


 1203              		.loc 2 130 25 is_stmt 1
 1204              		.cfi_startproc
 1205              	.LVL89:
 1206 0504 130101FF 		addi	sp,sp,-16
 1207              		.cfi_def_cfa_offset 16
 1208 0508 23341100 		sd	ra,8(sp)
 1209 050c 23308100 		sd	s0,0(sp)
 1210              		.cfi_offset 1, -8
 1211              		.cfi_offset 8, -16
 1212 0510 13040101 		addi	s0,sp,16
 1213              		.cfi_def_cfa 8, 0
 131:src/syscall_cpp.cpp **** }
 1214              		.loc 2 131 5
 131:src/syscall_cpp.cpp **** }
 1215              		.loc 2 131 22 is_stmt 0
 1216 0514 03358500 		ld	a0,8(a0)
 1217              	.LVL90:
 1218 0518 97000000 		call	_Z10sem_signalP4KSem@plt
 1218      E7800000 
 1219              	.LVL91:
 132:src/syscall_cpp.cpp **** 
 1220              		.loc 2 132 1
 1221 0520 83308100 		ld	ra,8(sp)
 1222              		.cfi_restore 1
 1223 0524 03340100 		ld	s0,0(sp)
 1224              		.cfi_restore 8
 1225              		.cfi_def_cfa 2, 16
 1226 0528 13010101 		addi	sp,sp,16
 1227              		.cfi_def_cfa_offset 0
 1228 052c 67800000 		jr	ra
 1229              		.cfi_endproc
 1230              	.LFE73:
 1232              		.align	2
 1233              		.globl	_ZN14PeriodicThread9terminateEv
 1235              	_ZN14PeriodicThread9terminateEv:
 1236              	.LFB74:
 134:src/syscall_cpp.cpp ****     this->period = -1;
 1237              		.loc 2 134 34 is_stmt 1
 1238              		.cfi_startproc
 1239              	.LVL92:
 1240 0530 130101FF 		addi	sp,sp,-16
 1241              		.cfi_def_cfa_offset 16
 1242 0534 23348100 		sd	s0,8(sp)
 1243              		.cfi_offset 8, -8
 1244 0538 13040101 		addi	s0,sp,16
 1245              		.cfi_def_cfa 8, 0
 135:src/syscall_cpp.cpp **** }
 1246              		.loc 2 135 5
 135:src/syscall_cpp.cpp **** }
 1247              		.loc 2 135 18 is_stmt 0
 1248 053c 9307F0FF 		li	a5,-1
 1249 0540 2330F502 		sd	a5,32(a0)
 136:src/syscall_cpp.cpp **** 
 1250              		.loc 2 136 1
 1251 0544 03348100 		ld	s0,8(sp)
 1252              		.cfi_restore 8
 1253              		.cfi_def_cfa 2, 16
GAS LISTING /tmp/ccjdNVnt.s 			page 31


 1254 0548 13010101 		addi	sp,sp,16
 1255              		.cfi_def_cfa_offset 0
 1256 054c 67800000 		jr	ra
 1257              		.cfi_endproc
 1258              	.LFE74:
 1260              		.align	2
 1261              		.globl	_ZN14PeriodicThreadC2Em
 1263              	_ZN14PeriodicThreadC2Em:
 1264              	.LFB76:
 138:src/syscall_cpp.cpp ****     if (this->period < 0) this->period = 2;
 1265              		.loc 2 138 1 is_stmt 1
 1266              		.cfi_startproc
 1267              	.LVL93:
 1268 0550 130101FE 		addi	sp,sp,-32
 1269              		.cfi_def_cfa_offset 32
 1270 0554 233C1100 		sd	ra,24(sp)
 1271 0558 23388100 		sd	s0,16(sp)
 1272 055c 23349100 		sd	s1,8(sp)
 1273 0560 23302101 		sd	s2,0(sp)
 1274              		.cfi_offset 1, -8
 1275              		.cfi_offset 8, -16
 1276              		.cfi_offset 9, -24
 1277              		.cfi_offset 18, -32
 1278 0564 13040102 		addi	s0,sp,32
 1279              		.cfi_def_cfa 8, 0
 1280 0568 93040500 		mv	s1,a0
 1281 056c 13890500 		mv	s2,a1
 1282              	.LBB86:
 138:src/syscall_cpp.cpp ****     if (this->period < 0) this->period = 2;
 1283              		.loc 2 138 72 is_stmt 0
 1284 0570 97000000 		call	_ZN6ThreadC2Ev
 1284      E7800000 
 1285              	.LVL94:
 1286 0578 97070000 		lla	a5,_ZTV14PeriodicThread+16
 1286      93870700 
 1287 0580 23B0F400 		sd	a5,0(s1)
 1288 0584 23B02403 		sd	s2,32(s1)
 139:src/syscall_cpp.cpp **** }
 1289              		.loc 2 139 5 is_stmt 1
 1290              	.LBE86:
 140:src/syscall_cpp.cpp **** 
 1291              		.loc 2 140 1 is_stmt 0
 1292 0588 83308101 		ld	ra,24(sp)
 1293              		.cfi_restore 1
 1294 058c 03340101 		ld	s0,16(sp)
 1295              		.cfi_restore 8
 1296              		.cfi_def_cfa 2, 32
 1297 0590 83348100 		ld	s1,8(sp)
 1298              		.cfi_restore 9
 1299              	.LVL95:
 1300 0594 03390100 		ld	s2,0(sp)
 1301              		.cfi_restore 18
 1302              	.LVL96:
 1303 0598 13010102 		addi	sp,sp,32
 1304              		.cfi_def_cfa_offset 0
 1305 059c 67800000 		jr	ra
 1306              		.cfi_endproc
GAS LISTING /tmp/ccjdNVnt.s 			page 32


 1307              	.LFE76:
 1309              		.globl	_ZN14PeriodicThreadC1Em
 1310              		.set	_ZN14PeriodicThreadC1Em,_ZN14PeriodicThreadC2Em
 1311              		.align	2
 1312              		.globl	_ZN7Console4getcEv
 1314              	_ZN7Console4getcEv:
 1315              	.LFB79:
 150:src/syscall_cpp.cpp **** 
 151:src/syscall_cpp.cpp **** char Console::getc() {
 1316              		.loc 2 151 22 is_stmt 1
 1317              		.cfi_startproc
 1318 05a0 130101FF 		addi	sp,sp,-16
 1319              		.cfi_def_cfa_offset 16
 1320 05a4 23341100 		sd	ra,8(sp)
 1321 05a8 23308100 		sd	s0,0(sp)
 1322              		.cfi_offset 1, -8
 1323              		.cfi_offset 8, -16
 1324 05ac 13040101 		addi	s0,sp,16
 1325              		.cfi_def_cfa 8, 0
 152:src/syscall_cpp.cpp ****     return ::getc();
 1326              		.loc 2 152 5
 1327              		.loc 2 152 18 is_stmt 0
 1328 05b0 97000000 		call	_Z4getcv@plt
 1328      E7800000 
 1329              	.LVL97:
 153:src/syscall_cpp.cpp **** }
 1330              		.loc 2 153 1
 1331 05b8 83308100 		ld	ra,8(sp)
 1332              		.cfi_restore 1
 1333 05bc 03340100 		ld	s0,0(sp)
 1334              		.cfi_restore 8
 1335              		.cfi_def_cfa 2, 16
 1336 05c0 13010101 		addi	sp,sp,16
 1337              		.cfi_def_cfa_offset 0
 1338 05c4 67800000 		jr	ra
 1339              		.cfi_endproc
 1340              	.LFE79:
 1342              		.align	2
 1343              		.globl	_ZN7Console4putcEc
 1345              	_ZN7Console4putcEc:
 1346              	.LFB80:
 154:src/syscall_cpp.cpp **** 
 155:src/syscall_cpp.cpp **** void Console::putc(char c) {
 1347              		.loc 2 155 28 is_stmt 1
 1348              		.cfi_startproc
 1349              	.LVL98:
 1350 05c8 130101FF 		addi	sp,sp,-16
 1351              		.cfi_def_cfa_offset 16
 1352 05cc 23341100 		sd	ra,8(sp)
 1353 05d0 23308100 		sd	s0,0(sp)
 1354              		.cfi_offset 1, -8
 1355              		.cfi_offset 8, -16
 1356 05d4 13040101 		addi	s0,sp,16
 1357              		.cfi_def_cfa 8, 0
 156:src/syscall_cpp.cpp ****     ::putc(c);
 1358              		.loc 2 156 5
 1359              		.loc 2 156 11 is_stmt 0
GAS LISTING /tmp/ccjdNVnt.s 			page 33


 1360 05d8 97000000 		call	_Z4putcc@plt
 1360      E7800000 
 1361              	.LVL99:
 157:src/syscall_cpp.cpp **** }
 1362              		.loc 2 157 1
 1363 05e0 83308100 		ld	ra,8(sp)
 1364              		.cfi_restore 1
 1365 05e4 03340100 		ld	s0,0(sp)
 1366              		.cfi_restore 8
 1367              		.cfi_def_cfa 2, 16
 1368 05e8 13010101 		addi	sp,sp,16
 1369              		.cfi_def_cfa_offset 0
 1370 05ec 67800000 		jr	ra
 1371              		.cfi_endproc
 1372              	.LFE80:
 1374              		.weak	_ZTV6Thread
 1375              		.section	.data.rel.ro.local._ZTV6Thread,"awG",@progbits,_ZTV6Thread,comdat
 1376              		.align	3
 1379              	_ZTV6Thread:
 1380 0000 00000000 		.dword	0
 1380      00000000 
 1381 0008 00000000 		.dword	0
 1381      00000000 
 1382 0010 00000000 		.dword	_ZN6ThreadD1Ev
 1382      00000000 
 1383 0018 00000000 		.dword	_ZN6ThreadD0Ev
 1383      00000000 
 1384 0020 00000000 		.dword	_ZN6Thread3runEv
 1384      00000000 
 1385              		.weak	_ZTV9Semaphore
 1386              		.section	.data.rel.ro.local._ZTV9Semaphore,"awG",@progbits,_ZTV9Semaphore,comdat
 1387              		.align	3
 1390              	_ZTV9Semaphore:
 1391 0000 00000000 		.dword	0
 1391      00000000 
 1392 0008 00000000 		.dword	0
 1392      00000000 
 1393 0010 00000000 		.dword	_ZN9SemaphoreD1Ev
 1393      00000000 
 1394 0018 00000000 		.dword	_ZN9SemaphoreD0Ev
 1394      00000000 
 1395              		.weak	_ZTV14PeriodicThread
 1396              		.section	.data.rel.ro.local._ZTV14PeriodicThread,"awG",@progbits,_ZTV14PeriodicThread,comdat
 1397              		.align	3
 1400              	_ZTV14PeriodicThread:
 1401 0000 00000000 		.dword	0
 1401      00000000 
 1402 0008 00000000 		.dword	0
 1402      00000000 
 1403 0010 00000000 		.dword	_ZN14PeriodicThreadD1Ev
 1403      00000000 
 1404 0018 00000000 		.dword	_ZN14PeriodicThreadD0Ev
 1404      00000000 
 1405 0020 00000000 		.dword	_ZN14PeriodicThread3runEv
 1405      00000000 
 1406 0028 00000000 		.dword	_ZN14PeriodicThread18periodicActivationEv
 1406      00000000 
GAS LISTING /tmp/ccjdNVnt.s 			page 34


 1407              		.text
 1408              	.Letext0:
 1409              		.file 5 "src/../h/../lib/hw.h"
 1410              		.file 6 "src/../h/KSem.hpp"
 1411              		.file 7 "src/../h/syscall_c.hpp"
 6401              		.align	3
 6404              	DW.ref.__gxx_personality_v0:
 6405 0000 00000000 		.dword	__gxx_personality_v0
 6405      00000000 
 6406              		.ident	"GCC: (Ubuntu 9.4.0-1ubuntu1~20.04) 9.4.0"
 6407              		.section	.note.GNU-stack,"",@progbits
GAS LISTING /tmp/ccjdNVnt.s 			page 35


DEFINED SYMBOLS
                            *ABS*:0000000000000000 syscall_cpp.cpp
     /tmp/ccjdNVnt.s:10     .text._ZN6Thread3runEv:0000000000000000 _ZN6Thread3runEv
     /tmp/ccjdNVnt.s:14     .text._ZN6Thread3runEv:0000000000000000 .L0 
     /tmp/ccjdNVnt.s:16     .text._ZN6Thread3runEv:0000000000000000 .L0 
     /tmp/ccjdNVnt.s:17     .text._ZN6Thread3runEv:0000000000000004 .L0 
     /tmp/ccjdNVnt.s:19     .text._ZN6Thread3runEv:0000000000000008 .L0 
     /tmp/ccjdNVnt.s:21     .text._ZN6Thread3runEv:000000000000000c .L0 
     /tmp/ccjdNVnt.s:23     .text._ZN6Thread3runEv:000000000000000c .L0 
     /tmp/ccjdNVnt.s:24     .text._ZN6Thread3runEv:0000000000000010 .L0 
     /tmp/ccjdNVnt.s:25     .text._ZN6Thread3runEv:0000000000000010 .L0 
     /tmp/ccjdNVnt.s:27     .text._ZN6Thread3runEv:0000000000000014 .L0 
     /tmp/ccjdNVnt.s:29     .text._ZN6Thread3runEv:0000000000000018 .L0 
     /tmp/ccjdNVnt.s:36     .text._ZN14PeriodicThread18periodicActivationEv:0000000000000000 _ZN14PeriodicThread18periodicActivationEv
     /tmp/ccjdNVnt.s:39     .text._ZN14PeriodicThread18periodicActivationEv:0000000000000000 .L0 
     /tmp/ccjdNVnt.s:41     .text._ZN14PeriodicThread18periodicActivationEv:0000000000000000 .L0 
     /tmp/ccjdNVnt.s:42     .text._ZN14PeriodicThread18periodicActivationEv:0000000000000004 .L0 
     /tmp/ccjdNVnt.s:44     .text._ZN14PeriodicThread18periodicActivationEv:0000000000000008 .L0 
     /tmp/ccjdNVnt.s:46     .text._ZN14PeriodicThread18periodicActivationEv:000000000000000c .L0 
     /tmp/ccjdNVnt.s:48     .text._ZN14PeriodicThread18periodicActivationEv:000000000000000c .L0 
     /tmp/ccjdNVnt.s:49     .text._ZN14PeriodicThread18periodicActivationEv:0000000000000010 .L0 
     /tmp/ccjdNVnt.s:50     .text._ZN14PeriodicThread18periodicActivationEv:0000000000000010 .L0 
     /tmp/ccjdNVnt.s:52     .text._ZN14PeriodicThread18periodicActivationEv:0000000000000014 .L0 
     /tmp/ccjdNVnt.s:54     .text._ZN14PeriodicThread18periodicActivationEv:0000000000000018 .L0 
     /tmp/ccjdNVnt.s:61     .text:0000000000000000 _ZN6Thread7wrapperEPv
     /tmp/ccjdNVnt.s:65     .text:0000000000000000 .L0 
     /tmp/ccjdNVnt.s:67     .text:0000000000000000 .L0 
     /tmp/ccjdNVnt.s:68     .text:0000000000000000 .L0 
     /tmp/ccjdNVnt.s:70     .text:0000000000000004 .L0 
     /tmp/ccjdNVnt.s:71     .text:0000000000000008 .L0 
     /tmp/ccjdNVnt.s:74     .text:0000000000000010 .L0 
     /tmp/ccjdNVnt.s:75     .text:0000000000000010 .L0 
     /tmp/ccjdNVnt.s:77     .text:0000000000000014 .L0 
     /tmp/ccjdNVnt.s:79     .text:0000000000000014 .L0 
     /tmp/ccjdNVnt.s:80     .text:0000000000000014 .L0 
     /tmp/ccjdNVnt.s:83     .text:000000000000001c .L0 
     /tmp/ccjdNVnt.s:86     .text:0000000000000020 .L0 
     /tmp/ccjdNVnt.s:87     .text:0000000000000024 .L0 
     /tmp/ccjdNVnt.s:89     .text:0000000000000028 .L0 
     /tmp/ccjdNVnt.s:90     .text:0000000000000028 .L0 
     /tmp/ccjdNVnt.s:92     .text:000000000000002c .L0 
     /tmp/ccjdNVnt.s:97     .text:0000000000000034 .L0 
     /tmp/ccjdNVnt.s:103    .text:0000000000000034 _ZN6ThreadD2Ev
     /tmp/ccjdNVnt.s:106    .text:0000000000000034 .L0 
     /tmp/ccjdNVnt.s:6404   .data.rel.local.DW.ref.__gxx_personality_v0:0000000000000000 DW.ref.__gxx_personality_v0
     /tmp/ccjdNVnt.s:110    .text:0000000000000034 .L0 
     /tmp/ccjdNVnt.s:111    .text:0000000000000038 .L0 
     /tmp/ccjdNVnt.s:116    .text:0000000000000048 .L0 
     /tmp/ccjdNVnt.s:117    .text:0000000000000048 .L0 
     /tmp/ccjdNVnt.s:118    .text:0000000000000048 .L0 
     /tmp/ccjdNVnt.s:119    .text:0000000000000048 .L0 
     /tmp/ccjdNVnt.s:121    .text:000000000000004c .L0 
     /tmp/ccjdNVnt.s:1379   .data.rel.ro.local._ZTV6Thread:0000000000000000 _ZTV6Thread
     /tmp/ccjdNVnt.s:125    .text:0000000000000050 .L0 
     /tmp/ccjdNVnt.s:128    .text:000000000000005c .L0 
     /tmp/ccjdNVnt.s:129    .text:000000000000005c .L0 
     /tmp/ccjdNVnt.s:134    .text:0000000000000068 .L0 
GAS LISTING /tmp/ccjdNVnt.s 			page 36


     /tmp/ccjdNVnt.s:135    .text:0000000000000068 .L0 
     /tmp/ccjdNVnt.s:137    .text:000000000000006c .L0 
     /tmp/ccjdNVnt.s:144    .text:0000000000000070 .L0 
     /tmp/ccjdNVnt.s:148    .text:0000000000000070 .L0 
     /tmp/ccjdNVnt.s:149    .text:0000000000000070 .L0 
     /tmp/ccjdNVnt.s:150    .text:0000000000000070 .L0 
     /tmp/ccjdNVnt.s:154    .text:0000000000000074 .L0 
     /tmp/ccjdNVnt.s:158    .text:0000000000000078 .L0 
     /tmp/ccjdNVnt.s:159    .text:0000000000000078 .L0 
     /tmp/ccjdNVnt.s:160    .text:0000000000000078 .L0 
     /tmp/ccjdNVnt.s:162    .text:000000000000007c .L0 
     /tmp/ccjdNVnt.s:164    .text:0000000000000080 .L0 
     /tmp/ccjdNVnt.s:165    .text:0000000000000080 .L0 
     /tmp/ccjdNVnt.s:170    .text:0000000000000084 .L0 
     /tmp/ccjdNVnt.s:171    .text:0000000000000084 .L0 
     /tmp/ccjdNVnt.s:174    .text:000000000000008c .L0 
     /tmp/ccjdNVnt.s:183    .text:0000000000000090 .L0 
     /tmp/ccjdNVnt.s:188    .text:000000000000009c .L0 
     /tmp/ccjdNVnt.s:189    .text:000000000000009c .L0 
 src/syscall_cpp.cpp:62     .text:00000000000000a0 .L0 
     /tmp/ccjdNVnt.s:196    .text:00000000000000a4 .L0 
 src/syscall_cpp.cpp:63     .text:00000000000000a4 .L0 
     /tmp/ccjdNVnt.s:201    .text:00000000000000a8 .L0 
 src/syscall_cpp.cpp:65     .text:00000000000000a8 .L0 
     /tmp/ccjdNVnt.s:208    .text:00000000000000ac .L0 
     /tmp/ccjdNVnt.s:209    .text:00000000000000b0 .L0 
     /tmp/ccjdNVnt.s:211    .text:00000000000000b4 .L0 
     /tmp/ccjdNVnt.s:212    .text:00000000000000b4 .L0 
     /tmp/ccjdNVnt.s:214    .text:00000000000000b8 .L0 
     /tmp/ccjdNVnt.s:216    .text:00000000000000bc .L0 
     /tmp/ccjdNVnt.s:219    .text:00000000000000c0 .L0 
     /tmp/ccjdNVnt.s:221    .text:00000000000000c4 .L0 
     /tmp/ccjdNVnt.s:103    .text:0000000000000034 _ZN6ThreadD1Ev
     /tmp/ccjdNVnt.s:238    .text._ZN14PeriodicThreadD2Ev:0000000000000000 _ZN14PeriodicThreadD2Ev
     /tmp/ccjdNVnt.s:241    .text._ZN14PeriodicThreadD2Ev:0000000000000000 .L0 
     /tmp/ccjdNVnt.s:243    .text._ZN14PeriodicThreadD2Ev:0000000000000000 .L0 
     /tmp/ccjdNVnt.s:244    .text._ZN14PeriodicThreadD2Ev:0000000000000004 .L0 
     /tmp/ccjdNVnt.s:247    .text._ZN14PeriodicThreadD2Ev:000000000000000c .L0 
     /tmp/ccjdNVnt.s:248    .text._ZN14PeriodicThreadD2Ev:000000000000000c .L0 
     /tmp/ccjdNVnt.s:250    .text._ZN14PeriodicThreadD2Ev:0000000000000010 .L0 
     /tmp/ccjdNVnt.s:1400   .data.rel.ro.local._ZTV14PeriodicThread:0000000000000000 _ZTV14PeriodicThread
     /tmp/ccjdNVnt.s:253    .text._ZN14PeriodicThreadD2Ev:0000000000000010 .L0 
     /tmp/ccjdNVnt.s:259    .text._ZN14PeriodicThreadD2Ev:0000000000000028 .L0 
     /tmp/ccjdNVnt.s:261    .text._ZN14PeriodicThreadD2Ev:000000000000002c .L0 
     /tmp/ccjdNVnt.s:262    .text._ZN14PeriodicThreadD2Ev:000000000000002c .L0 
     /tmp/ccjdNVnt.s:264    .text._ZN14PeriodicThreadD2Ev:0000000000000030 .L0 
     /tmp/ccjdNVnt.s:266    .text._ZN14PeriodicThreadD2Ev:0000000000000034 .L0 
     /tmp/ccjdNVnt.s:238    .text._ZN14PeriodicThreadD2Ev:0000000000000000 _ZN14PeriodicThreadD1Ev
     /tmp/ccjdNVnt.s:275    .text:00000000000000c4 _ZN9SemaphoreD2Ev
     /tmp/ccjdNVnt.s:278    .text:00000000000000c4 .L0 
     /tmp/ccjdNVnt.s:282    .text:00000000000000c4 .L0 
     /tmp/ccjdNVnt.s:283    .text:00000000000000c8 .L0 
     /tmp/ccjdNVnt.s:287    .text:00000000000000d4 .L0 
     /tmp/ccjdNVnt.s:288    .text:00000000000000d4 .L0 
     /tmp/ccjdNVnt.s:289    .text:00000000000000d4 .L0 
     /tmp/ccjdNVnt.s:291    .text:00000000000000d8 .L0 
     /tmp/ccjdNVnt.s:1390   .data.rel.ro.local._ZTV9Semaphore:0000000000000000 _ZTV9Semaphore
GAS LISTING /tmp/ccjdNVnt.s 			page 37


     /tmp/ccjdNVnt.s:295    .text:00000000000000dc .L0 
     /tmp/ccjdNVnt.s:298    .text:00000000000000e8 .L0 
     /tmp/ccjdNVnt.s:299    .text:00000000000000e8 .L0 
     /tmp/ccjdNVnt.s:304    .text:00000000000000f4 .L0 
     /tmp/ccjdNVnt.s:305    .text:00000000000000f4 .L0 
     /tmp/ccjdNVnt.s:308    .text:00000000000000f8 .L0 
     /tmp/ccjdNVnt.s:314    .text:00000000000000fc .L0 
     /tmp/ccjdNVnt.s:318    .text:00000000000000fc .L0 
     /tmp/ccjdNVnt.s:319    .text:00000000000000fc .L0 
     /tmp/ccjdNVnt.s:320    .text:00000000000000fc .L0 
     /tmp/ccjdNVnt.s:324    .text:0000000000000100 .L0 
     /tmp/ccjdNVnt.s:328    .text:0000000000000104 .L0 
     /tmp/ccjdNVnt.s:329    .text:0000000000000104 .L0 
     /tmp/ccjdNVnt.s:330    .text:0000000000000104 .L0 
     /tmp/ccjdNVnt.s:332    .text:0000000000000108 .L0 
     /tmp/ccjdNVnt.s:334    .text:000000000000010c .L0 
     /tmp/ccjdNVnt.s:335    .text:000000000000010c .L0 
     /tmp/ccjdNVnt.s:340    .text:0000000000000110 .L0 
     /tmp/ccjdNVnt.s:341    .text:0000000000000110 .L0 
     /tmp/ccjdNVnt.s:344    .text:0000000000000118 .L0 
     /tmp/ccjdNVnt.s:353    .text:000000000000011c .L0 
     /tmp/ccjdNVnt.s:359    .text:0000000000000128 .L0 
     /tmp/ccjdNVnt.s:360    .text:000000000000012c .L0 
     /tmp/ccjdNVnt.s:362    .text:0000000000000130 .L0 
     /tmp/ccjdNVnt.s:363    .text:0000000000000130 .L0 
     /tmp/ccjdNVnt.s:365    .text:0000000000000134 .L0 
     /tmp/ccjdNVnt.s:367    .text:0000000000000138 .L0 
     /tmp/ccjdNVnt.s:369    .text:000000000000013c .L0 
     /tmp/ccjdNVnt.s:275    .text:00000000000000c4 _ZN9SemaphoreD1Ev
     /tmp/ccjdNVnt.s:384    .text:000000000000013c _Znwm
     /tmp/ccjdNVnt.s:387    .text:000000000000013c .L0 
     /tmp/ccjdNVnt.s:389    .text:000000000000013c .L0 
     /tmp/ccjdNVnt.s:390    .text:0000000000000140 .L0 
     /tmp/ccjdNVnt.s:393    .text:0000000000000148 .L0 
     /tmp/ccjdNVnt.s:394    .text:0000000000000148 .L0 
     /tmp/ccjdNVnt.s:396    .text:000000000000014c .L0 
     /tmp/ccjdNVnt.s:398    .text:000000000000014c .L0 
     /tmp/ccjdNVnt.s:399    .text:000000000000014c .L0 
     /tmp/ccjdNVnt.s:402    .text:0000000000000154 .L0 
     /tmp/ccjdNVnt.s:403    .text:0000000000000158 .L0 
     /tmp/ccjdNVnt.s:405    .text:000000000000015c .L0 
     /tmp/ccjdNVnt.s:406    .text:000000000000015c .L0 
     /tmp/ccjdNVnt.s:408    .text:0000000000000160 .L0 
     /tmp/ccjdNVnt.s:410    .text:0000000000000164 .L0 
     /tmp/ccjdNVnt.s:416    .text:0000000000000164 _Znam
     /tmp/ccjdNVnt.s:419    .text:0000000000000164 .L0 
     /tmp/ccjdNVnt.s:421    .text:0000000000000164 .L0 
     /tmp/ccjdNVnt.s:422    .text:0000000000000168 .L0 
     /tmp/ccjdNVnt.s:425    .text:0000000000000170 .L0 
     /tmp/ccjdNVnt.s:426    .text:0000000000000170 .L0 
     /tmp/ccjdNVnt.s:428    .text:0000000000000174 .L0 
     /tmp/ccjdNVnt.s:430    .text:0000000000000174 .L0 
     /tmp/ccjdNVnt.s:431    .text:0000000000000174 .L0 
     /tmp/ccjdNVnt.s:434    .text:000000000000017c .L0 
     /tmp/ccjdNVnt.s:435    .text:0000000000000180 .L0 
     /tmp/ccjdNVnt.s:437    .text:0000000000000184 .L0 
     /tmp/ccjdNVnt.s:438    .text:0000000000000184 .L0 
GAS LISTING /tmp/ccjdNVnt.s 			page 38


     /tmp/ccjdNVnt.s:440    .text:0000000000000188 .L0 
     /tmp/ccjdNVnt.s:442    .text:000000000000018c .L0 
     /tmp/ccjdNVnt.s:448    .text:000000000000018c _ZdlPv
     /tmp/ccjdNVnt.s:451    .text:000000000000018c .L0 
     /tmp/ccjdNVnt.s:455    .text:000000000000018c .L0 
     /tmp/ccjdNVnt.s:456    .text:0000000000000190 .L0 
     /tmp/ccjdNVnt.s:459    .text:0000000000000198 .L0 
     /tmp/ccjdNVnt.s:460    .text:0000000000000198 .L0 
     /tmp/ccjdNVnt.s:462    .text:000000000000019c .L0 
     /tmp/ccjdNVnt.s:464    .text:000000000000019c .L0 
     /tmp/ccjdNVnt.s:465    .text:000000000000019c .L0 
     /tmp/ccjdNVnt.s:468    .text:00000000000001a4 .L0 
     /tmp/ccjdNVnt.s:469    .text:00000000000001a8 .L0 
     /tmp/ccjdNVnt.s:471    .text:00000000000001ac .L0 
     /tmp/ccjdNVnt.s:472    .text:00000000000001ac .L0 
     /tmp/ccjdNVnt.s:474    .text:00000000000001b0 .L0 
     /tmp/ccjdNVnt.s:476    .text:00000000000001b4 .L0 
     /tmp/ccjdNVnt.s:489    .text:00000000000001b4 _ZN6ThreadD0Ev
     /tmp/ccjdNVnt.s:492    .text:00000000000001b4 .L0 
     /tmp/ccjdNVnt.s:494    .text:00000000000001b4 .L0 
     /tmp/ccjdNVnt.s:495    .text:00000000000001b8 .L0 
     /tmp/ccjdNVnt.s:499    .text:00000000000001c4 .L0 
     /tmp/ccjdNVnt.s:500    .text:00000000000001c4 .L0 
     /tmp/ccjdNVnt.s:501    .text:00000000000001c4 .L0 
     /tmp/ccjdNVnt.s:503    .text:00000000000001c8 .L0 
     /tmp/ccjdNVnt.s:506    .text:00000000000001cc .L0 
     /tmp/ccjdNVnt.s:512    .text:00000000000001e4 .L0 
     /tmp/ccjdNVnt.s:514    .text:00000000000001e8 .L0 
     /tmp/ccjdNVnt.s:515    .text:00000000000001e8 .L0 
     /tmp/ccjdNVnt.s:517    .text:00000000000001ec .L0 
     /tmp/ccjdNVnt.s:520    .text:00000000000001f0 .L0 
     /tmp/ccjdNVnt.s:522    .text:00000000000001f4 .L0 
     /tmp/ccjdNVnt.s:529    .text._ZN14PeriodicThreadD0Ev:0000000000000000 _ZN14PeriodicThreadD0Ev
     /tmp/ccjdNVnt.s:532    .text._ZN14PeriodicThreadD0Ev:0000000000000000 .L0 
     /tmp/ccjdNVnt.s:534    .text._ZN14PeriodicThreadD0Ev:0000000000000000 .L0 
     /tmp/ccjdNVnt.s:535    .text._ZN14PeriodicThreadD0Ev:0000000000000004 .L0 
     /tmp/ccjdNVnt.s:539    .text._ZN14PeriodicThreadD0Ev:0000000000000010 .L0 
     /tmp/ccjdNVnt.s:540    .text._ZN14PeriodicThreadD0Ev:0000000000000010 .L0 
     /tmp/ccjdNVnt.s:541    .text._ZN14PeriodicThreadD0Ev:0000000000000010 .L0 
     /tmp/ccjdNVnt.s:543    .text._ZN14PeriodicThreadD0Ev:0000000000000014 .L0 
     /tmp/ccjdNVnt.s:549    .text._ZN14PeriodicThreadD0Ev:0000000000000018 .L0 
     /tmp/ccjdNVnt.s:559    .text._ZN14PeriodicThreadD0Ev:000000000000003c .L0 
     /tmp/ccjdNVnt.s:561    .text._ZN14PeriodicThreadD0Ev:0000000000000040 .L0 
     /tmp/ccjdNVnt.s:562    .text._ZN14PeriodicThreadD0Ev:0000000000000040 .L0 
     /tmp/ccjdNVnt.s:564    .text._ZN14PeriodicThreadD0Ev:0000000000000044 .L0 
     /tmp/ccjdNVnt.s:567    .text._ZN14PeriodicThreadD0Ev:0000000000000048 .L0 
     /tmp/ccjdNVnt.s:569    .text._ZN14PeriodicThreadD0Ev:000000000000004c .L0 
     /tmp/ccjdNVnt.s:576    .text:00000000000001f4 _ZN9SemaphoreD0Ev
     /tmp/ccjdNVnt.s:579    .text:00000000000001f4 .L0 
     /tmp/ccjdNVnt.s:581    .text:00000000000001f4 .L0 
     /tmp/ccjdNVnt.s:582    .text:00000000000001f8 .L0 
     /tmp/ccjdNVnt.s:586    .text:0000000000000204 .L0 
     /tmp/ccjdNVnt.s:587    .text:0000000000000204 .L0 
     /tmp/ccjdNVnt.s:588    .text:0000000000000204 .L0 
     /tmp/ccjdNVnt.s:590    .text:0000000000000208 .L0 
     /tmp/ccjdNVnt.s:593    .text:000000000000020c .L0 
     /tmp/ccjdNVnt.s:599    .text:0000000000000224 .L0 
GAS LISTING /tmp/ccjdNVnt.s 			page 39


     /tmp/ccjdNVnt.s:601    .text:0000000000000228 .L0 
     /tmp/ccjdNVnt.s:602    .text:0000000000000228 .L0 
     /tmp/ccjdNVnt.s:604    .text:000000000000022c .L0 
     /tmp/ccjdNVnt.s:607    .text:0000000000000230 .L0 
     /tmp/ccjdNVnt.s:609    .text:0000000000000234 .L0 
     /tmp/ccjdNVnt.s:615    .text:0000000000000234 _ZdaPv
     /tmp/ccjdNVnt.s:618    .text:0000000000000234 .L0 
     /tmp/ccjdNVnt.s:622    .text:0000000000000234 .L0 
     /tmp/ccjdNVnt.s:623    .text:0000000000000238 .L0 
     /tmp/ccjdNVnt.s:626    .text:0000000000000240 .L0 
     /tmp/ccjdNVnt.s:627    .text:0000000000000240 .L0 
     /tmp/ccjdNVnt.s:629    .text:0000000000000244 .L0 
     /tmp/ccjdNVnt.s:631    .text:0000000000000244 .L0 
     /tmp/ccjdNVnt.s:632    .text:0000000000000244 .L0 
     /tmp/ccjdNVnt.s:635    .text:000000000000024c .L0 
     /tmp/ccjdNVnt.s:636    .text:0000000000000250 .L0 
     /tmp/ccjdNVnt.s:638    .text:0000000000000254 .L0 
     /tmp/ccjdNVnt.s:639    .text:0000000000000254 .L0 
     /tmp/ccjdNVnt.s:641    .text:0000000000000258 .L0 
     /tmp/ccjdNVnt.s:643    .text:000000000000025c .L0 
     /tmp/ccjdNVnt.s:656    .text:000000000000025c _ZN6ThreadC2EPFvPvES0_
     /tmp/ccjdNVnt.s:659    .text:000000000000025c .L0 
     /tmp/ccjdNVnt.s:661    .text:000000000000025c .L0 
     /tmp/ccjdNVnt.s:662    .text:0000000000000260 .L0 
     /tmp/ccjdNVnt.s:668    .text:0000000000000274 .L0 
     /tmp/ccjdNVnt.s:669    .text:0000000000000274 .L0 
     /tmp/ccjdNVnt.s:670    .text:0000000000000274 .L0 
     /tmp/ccjdNVnt.s:671    .text:0000000000000274 .L0 
     /tmp/ccjdNVnt.s:672    .text:0000000000000274 .L0 
     /tmp/ccjdNVnt.s:674    .text:0000000000000278 .L0 
     /tmp/ccjdNVnt.s:680    .text:0000000000000284 .L0 
     /tmp/ccjdNVnt.s:684    .text:0000000000000290 .L0 
     /tmp/ccjdNVnt.s:685    .text:0000000000000290 .L0 
     /tmp/ccjdNVnt.s:687    .text:0000000000000294 .L0 
     /tmp/ccjdNVnt.s:688    .text:0000000000000294 .L0 
     /tmp/ccjdNVnt.s:691    .text:0000000000000298 .L0 
     /tmp/ccjdNVnt.s:692    .text:0000000000000298 .L0 
     /tmp/ccjdNVnt.s:695    .text:00000000000002a4 .L0 
     /tmp/ccjdNVnt.s:696    .text:00000000000002a4 .L0 
     /tmp/ccjdNVnt.s:704    .text:00000000000002b4 .L0 
 src/syscall_cpp.cpp:42     .text:00000000000002b4 .L0 
     /tmp/ccjdNVnt.s:710    .text:00000000000002b8 .L0 
 src/syscall_cpp.cpp:43     .text:00000000000002b8 .L0 
     /tmp/ccjdNVnt.s:715    .text:00000000000002bc .L0 
 src/syscall_cpp.cpp:45     .text:00000000000002bc .L0 
     /tmp/ccjdNVnt.s:720    .text:00000000000002c0 .L0 
     /tmp/ccjdNVnt.s:722    .text:00000000000002c0 .L0 
 src/syscall_cpp.cpp:46     .text:00000000000002c4 .L0 
     /tmp/ccjdNVnt.s:730    .text:00000000000002c8 .L0 
 src/syscall_cpp.cpp:47     .text:00000000000002c8 .L0 
     /tmp/ccjdNVnt.s:735    .text:00000000000002cc .L0 
 src/syscall_cpp.cpp:54     .text:00000000000002cc .L0 
     /tmp/ccjdNVnt.s:743    .text:00000000000002d0 .L0 
     /tmp/ccjdNVnt.s:744    .text:00000000000002d4 .L0 
     /tmp/ccjdNVnt.s:745    .text:00000000000002d4 .L0 
     /tmp/ccjdNVnt.s:747    .text:00000000000002d8 .L0 
     /tmp/ccjdNVnt.s:748    .text:00000000000002d8 .L0 
GAS LISTING /tmp/ccjdNVnt.s 			page 40


     /tmp/ccjdNVnt.s:750    .text:00000000000002dc .L0 
     /tmp/ccjdNVnt.s:753    .text:00000000000002e0 .L0 
     /tmp/ccjdNVnt.s:756    .text:00000000000002e4 .L0 
     /tmp/ccjdNVnt.s:759    .text:00000000000002e8 .L0 
     /tmp/ccjdNVnt.s:763    .text:00000000000002ec .L0 
     /tmp/ccjdNVnt.s:767    .text:00000000000002ec .L0 
     /tmp/ccjdNVnt.s:771    .text:00000000000002f4 .L0 
     /tmp/ccjdNVnt.s:656    .text:000000000000025c _ZN6ThreadC1EPFvPvES0_
     /tmp/ccjdNVnt.s:779    .text:00000000000002f4 _ZN6Thread5startEv
     /tmp/ccjdNVnt.s:782    .text:00000000000002f4 .L0 
     /tmp/ccjdNVnt.s:784    .text:00000000000002f4 .L0 
     /tmp/ccjdNVnt.s:785    .text:00000000000002f8 .L0 
     /tmp/ccjdNVnt.s:787    .text:00000000000002fc .L0 
     /tmp/ccjdNVnt.s:789    .text:0000000000000300 .L0 
     /tmp/ccjdNVnt.s:791    .text:0000000000000300 .L0 
     /tmp/ccjdNVnt.s:792    .text:0000000000000300 .L0 
     /tmp/ccjdNVnt.s:794    .text:0000000000000304 .L0 
     /tmp/ccjdNVnt.s:800    .text:0000000000000308 .L0 
     /tmp/ccjdNVnt.s:801    .text:0000000000000308 .L0 
     /tmp/ccjdNVnt.s:806    .text:000000000000030c .L0 
     /tmp/ccjdNVnt.s:808    .text:0000000000000310 .L0 
 src/syscall_cpp.cpp:70     .text:0000000000000310 .L0 
     /tmp/ccjdNVnt.s:815    .text:0000000000000314 .L0 
 src/syscall_cpp.cpp:71     .text:0000000000000314 .L0 
     /tmp/ccjdNVnt.s:820    .text:0000000000000318 .L0 
 src/syscall_cpp.cpp:73     .text:0000000000000318 .L0 
     /tmp/ccjdNVnt.s:825    .text:000000000000031c .L0 
     /tmp/ccjdNVnt.s:827    .text:000000000000031c .L0 
     /tmp/ccjdNVnt.s:830    .text:0000000000000320 .L0 
     /tmp/ccjdNVnt.s:831    .text:0000000000000324 .L0 
     /tmp/ccjdNVnt.s:832    .text:0000000000000324 .L0 
     /tmp/ccjdNVnt.s:833    .text:0000000000000324 .L0 
     /tmp/ccjdNVnt.s:835    .text:0000000000000328 .L0 
     /tmp/ccjdNVnt.s:839    .text:000000000000032c .L0 
     /tmp/ccjdNVnt.s:841    .text:000000000000032c .L0 
     /tmp/ccjdNVnt.s:849    .text:000000000000033c .L0 
     /tmp/ccjdNVnt.s:855    .text:000000000000033c _ZN6Thread4joinEv
     /tmp/ccjdNVnt.s:858    .text:000000000000033c .L0 
     /tmp/ccjdNVnt.s:860    .text:000000000000033c .L0 
     /tmp/ccjdNVnt.s:861    .text:0000000000000340 .L0 
     /tmp/ccjdNVnt.s:864    .text:0000000000000348 .L0 
     /tmp/ccjdNVnt.s:865    .text:0000000000000348 .L0 
     /tmp/ccjdNVnt.s:867    .text:000000000000034c .L0 
     /tmp/ccjdNVnt.s:869    .text:000000000000034c .L0 
     /tmp/ccjdNVnt.s:870    .text:000000000000034c .L0 
     /tmp/ccjdNVnt.s:875    .text:0000000000000358 .L0 
     /tmp/ccjdNVnt.s:876    .text:000000000000035c .L0 
     /tmp/ccjdNVnt.s:878    .text:0000000000000360 .L0 
     /tmp/ccjdNVnt.s:879    .text:0000000000000360 .L0 
     /tmp/ccjdNVnt.s:881    .text:0000000000000364 .L0 
     /tmp/ccjdNVnt.s:883    .text:0000000000000368 .L0 
     /tmp/ccjdNVnt.s:889    .text:0000000000000368 _ZN6Thread8dispatchEv
     /tmp/ccjdNVnt.s:892    .text:0000000000000368 .L0 
     /tmp/ccjdNVnt.s:893    .text:0000000000000368 .L0 
     /tmp/ccjdNVnt.s:894    .text:000000000000036c .L0 
     /tmp/ccjdNVnt.s:897    .text:0000000000000374 .L0 
     /tmp/ccjdNVnt.s:898    .text:0000000000000374 .L0 
GAS LISTING /tmp/ccjdNVnt.s 			page 41


     /tmp/ccjdNVnt.s:900    .text:0000000000000378 .L0 
     /tmp/ccjdNVnt.s:902    .text:0000000000000378 .L0 
     /tmp/ccjdNVnt.s:903    .text:0000000000000378 .L0 
     /tmp/ccjdNVnt.s:906    .text:0000000000000380 .L0 
     /tmp/ccjdNVnt.s:907    .text:0000000000000384 .L0 
     /tmp/ccjdNVnt.s:909    .text:0000000000000388 .L0 
     /tmp/ccjdNVnt.s:910    .text:0000000000000388 .L0 
     /tmp/ccjdNVnt.s:912    .text:000000000000038c .L0 
     /tmp/ccjdNVnt.s:914    .text:0000000000000390 .L0 
     /tmp/ccjdNVnt.s:920    .text:0000000000000390 _ZN6Thread5sleepEm
     /tmp/ccjdNVnt.s:923    .text:0000000000000390 .L0 
     /tmp/ccjdNVnt.s:925    .text:0000000000000390 .L0 
     /tmp/ccjdNVnt.s:926    .text:0000000000000394 .L0 
     /tmp/ccjdNVnt.s:929    .text:000000000000039c .L0 
     /tmp/ccjdNVnt.s:930    .text:000000000000039c .L0 
     /tmp/ccjdNVnt.s:932    .text:00000000000003a0 .L0 
     /tmp/ccjdNVnt.s:934    .text:00000000000003a0 .L0 
     /tmp/ccjdNVnt.s:935    .text:00000000000003a0 .L0 
     /tmp/ccjdNVnt.s:938    .text:00000000000003a8 .L0 
     /tmp/ccjdNVnt.s:939    .text:00000000000003a8 .L0 
     /tmp/ccjdNVnt.s:941    .text:00000000000003b0 .L0 
     /tmp/ccjdNVnt.s:943    .text:00000000000003b4 .L0 
     /tmp/ccjdNVnt.s:944    .text:00000000000003b4 .L0 
     /tmp/ccjdNVnt.s:946    .text:00000000000003b8 .L0 
     /tmp/ccjdNVnt.s:948    .text:00000000000003bc .L0 
     /tmp/ccjdNVnt.s:954    .text:00000000000003bc _ZN14PeriodicThread3runEv
     /tmp/ccjdNVnt.s:957    .text:00000000000003bc .L0 
     /tmp/ccjdNVnt.s:959    .text:00000000000003bc .L0 
     /tmp/ccjdNVnt.s:960    .text:00000000000003c0 .L0 
     /tmp/ccjdNVnt.s:964    .text:00000000000003cc .L0 
     /tmp/ccjdNVnt.s:965    .text:00000000000003cc .L0 
     /tmp/ccjdNVnt.s:966    .text:00000000000003cc .L0 
     /tmp/ccjdNVnt.s:968    .text:00000000000003d0 .L0 
     /tmp/ccjdNVnt.s:973    .text:00000000000003d4 .L0 
     /tmp/ccjdNVnt.s:974    .text:00000000000003d4 .L0 
     /tmp/ccjdNVnt.s:975    .text:00000000000003d4 .L0 
     /tmp/ccjdNVnt.s:977    .text:00000000000003d8 .L0 
     /tmp/ccjdNVnt.s:980    .text:00000000000003e0 .L0 
     /tmp/ccjdNVnt.s:981    .text:00000000000003e0 .L0 
     /tmp/ccjdNVnt.s:984    .text:00000000000003e8 .L0 
     /tmp/ccjdNVnt.s:988    .text:00000000000003f0 .L0 
     /tmp/ccjdNVnt.s:989    .text:00000000000003f0 .L0 
     /tmp/ccjdNVnt.s:991    .text:00000000000003f4 .L0 
     /tmp/ccjdNVnt.s:994    .text:00000000000003fc .L0 
     /tmp/ccjdNVnt.s:995    .text:00000000000003fc .L0 
     /tmp/ccjdNVnt.s:998    .text:0000000000000404 .L0 
     /tmp/ccjdNVnt.s:1001   .text:0000000000000408 .L0 
     /tmp/ccjdNVnt.s:1002   .text:0000000000000408 .L0 
     /tmp/ccjdNVnt.s:1005   .text:0000000000000410 .L0 
     /tmp/ccjdNVnt.s:1006   .text:0000000000000414 .L0 
     /tmp/ccjdNVnt.s:1008   .text:0000000000000418 .L0 
     /tmp/ccjdNVnt.s:1009   .text:0000000000000418 .L0 
     /tmp/ccjdNVnt.s:1011   .text:000000000000041c .L0 
     /tmp/ccjdNVnt.s:1014   .text:0000000000000420 .L0 
     /tmp/ccjdNVnt.s:1016   .text:0000000000000424 .L0 
     /tmp/ccjdNVnt.s:1022   .text:0000000000000424 _ZN6ThreadC2Ev
     /tmp/ccjdNVnt.s:1025   .text:0000000000000424 .L0 
GAS LISTING /tmp/ccjdNVnt.s 			page 42


     /tmp/ccjdNVnt.s:1027   .text:0000000000000424 .L0 
     /tmp/ccjdNVnt.s:1028   .text:0000000000000428 .L0 
     /tmp/ccjdNVnt.s:1032   .text:0000000000000434 .L0 
     /tmp/ccjdNVnt.s:1033   .text:0000000000000434 .L0 
     /tmp/ccjdNVnt.s:1034   .text:0000000000000434 .L0 
     /tmp/ccjdNVnt.s:1036   .text:0000000000000438 .L0 
     /tmp/ccjdNVnt.s:1040   .text:000000000000043c .L0 
     /tmp/ccjdNVnt.s:1044   .text:0000000000000448 .L0 
     /tmp/ccjdNVnt.s:1045   .text:0000000000000448 .L0 
     /tmp/ccjdNVnt.s:1048   .text:0000000000000454 .L0 
     /tmp/ccjdNVnt.s:1049   .text:0000000000000454 .L0 
     /tmp/ccjdNVnt.s:1051   .text:0000000000000458 .L0 
     /tmp/ccjdNVnt.s:1052   .text:0000000000000458 .L0 
     /tmp/ccjdNVnt.s:1059   .text:0000000000000468 .L0 
 src/syscall_cpp.cpp:96     .text:0000000000000468 .L0 
     /tmp/ccjdNVnt.s:1065   .text:000000000000046c .L0 
     /tmp/ccjdNVnt.s:1067   .text:000000000000046c .L0 
 src/syscall_cpp.cpp:97     .text:0000000000000470 .L0 
     /tmp/ccjdNVnt.s:1075   .text:0000000000000474 .L0 
     /tmp/ccjdNVnt.s:1077   .text:0000000000000474 .L0 
 src/syscall_cpp.cpp:99     .text:0000000000000478 .L0 
     /tmp/ccjdNVnt.s:1084   .text:000000000000047c .L0 
     /tmp/ccjdNVnt.s:1086   .text:000000000000047c .L0 
 src/syscall_cpp.cpp:100    .text:0000000000000480 .L0 
     /tmp/ccjdNVnt.s:1094   .text:0000000000000484 .L0 
 src/syscall_cpp.cpp:101    .text:0000000000000484 .L0 
     /tmp/ccjdNVnt.s:1099   .text:0000000000000488 .L0 
 src/syscall_cpp.cpp:108    .text:0000000000000488 .L0 
     /tmp/ccjdNVnt.s:1107   .text:000000000000048c .L0 
     /tmp/ccjdNVnt.s:1108   .text:0000000000000490 .L0 
     /tmp/ccjdNVnt.s:1110   .text:0000000000000494 .L0 
     /tmp/ccjdNVnt.s:1111   .text:0000000000000494 .L0 
     /tmp/ccjdNVnt.s:1113   .text:0000000000000498 .L0 
     /tmp/ccjdNVnt.s:1116   .text:000000000000049c .L0 
     /tmp/ccjdNVnt.s:1118   .text:00000000000004a0 .L0 
     /tmp/ccjdNVnt.s:1022   .text:0000000000000424 _ZN6ThreadC1Ev
     /tmp/ccjdNVnt.s:1126   .text:00000000000004a0 _ZN9SemaphoreC2Ej
     /tmp/ccjdNVnt.s:1129   .text:00000000000004a0 .L0 
     /tmp/ccjdNVnt.s:1131   .text:00000000000004a0 .L0 
     /tmp/ccjdNVnt.s:1132   .text:00000000000004a4 .L0 
     /tmp/ccjdNVnt.s:1135   .text:00000000000004ac .L0 
     /tmp/ccjdNVnt.s:1136   .text:00000000000004ac .L0 
     /tmp/ccjdNVnt.s:1138   .text:00000000000004b0 .L0 
     /tmp/ccjdNVnt.s:1141   .text:00000000000004b0 .L0 
     /tmp/ccjdNVnt.s:1144   .text:00000000000004bc .L0 
     /tmp/ccjdNVnt.s:1145   .text:00000000000004bc .L0 
     /tmp/ccjdNVnt.s:1151   .text:00000000000004c8 .L0 
     /tmp/ccjdNVnt.s:1152   .text:00000000000004cc .L0 
     /tmp/ccjdNVnt.s:1154   .text:00000000000004d0 .L0 
     /tmp/ccjdNVnt.s:1155   .text:00000000000004d0 .L0 
     /tmp/ccjdNVnt.s:1157   .text:00000000000004d4 .L0 
     /tmp/ccjdNVnt.s:1159   .text:00000000000004d8 .L0 
     /tmp/ccjdNVnt.s:1126   .text:00000000000004a0 _ZN9SemaphoreC1Ej
     /tmp/ccjdNVnt.s:1167   .text:00000000000004d8 _ZN9Semaphore4waitEv
     /tmp/ccjdNVnt.s:1170   .text:00000000000004d8 .L0 
     /tmp/ccjdNVnt.s:1172   .text:00000000000004d8 .L0 
     /tmp/ccjdNVnt.s:1173   .text:00000000000004dc .L0 
GAS LISTING /tmp/ccjdNVnt.s 			page 43


     /tmp/ccjdNVnt.s:1176   .text:00000000000004e4 .L0 
     /tmp/ccjdNVnt.s:1177   .text:00000000000004e4 .L0 
     /tmp/ccjdNVnt.s:1179   .text:00000000000004e8 .L0 
     /tmp/ccjdNVnt.s:1181   .text:00000000000004e8 .L0 
     /tmp/ccjdNVnt.s:1182   .text:00000000000004e8 .L0 
     /tmp/ccjdNVnt.s:1187   .text:00000000000004f4 .L0 
     /tmp/ccjdNVnt.s:1188   .text:00000000000004f8 .L0 
     /tmp/ccjdNVnt.s:1190   .text:00000000000004fc .L0 
     /tmp/ccjdNVnt.s:1191   .text:00000000000004fc .L0 
     /tmp/ccjdNVnt.s:1193   .text:0000000000000500 .L0 
     /tmp/ccjdNVnt.s:1195   .text:0000000000000504 .L0 
     /tmp/ccjdNVnt.s:1201   .text:0000000000000504 _ZN9Semaphore6signalEv
     /tmp/ccjdNVnt.s:1204   .text:0000000000000504 .L0 
     /tmp/ccjdNVnt.s:1206   .text:0000000000000504 .L0 
     /tmp/ccjdNVnt.s:1207   .text:0000000000000508 .L0 
     /tmp/ccjdNVnt.s:1210   .text:0000000000000510 .L0 
     /tmp/ccjdNVnt.s:1211   .text:0000000000000510 .L0 
     /tmp/ccjdNVnt.s:1213   .text:0000000000000514 .L0 
     /tmp/ccjdNVnt.s:1215   .text:0000000000000514 .L0 
     /tmp/ccjdNVnt.s:1216   .text:0000000000000514 .L0 
     /tmp/ccjdNVnt.s:1221   .text:0000000000000520 .L0 
     /tmp/ccjdNVnt.s:1222   .text:0000000000000524 .L0 
     /tmp/ccjdNVnt.s:1224   .text:0000000000000528 .L0 
     /tmp/ccjdNVnt.s:1225   .text:0000000000000528 .L0 
     /tmp/ccjdNVnt.s:1227   .text:000000000000052c .L0 
     /tmp/ccjdNVnt.s:1229   .text:0000000000000530 .L0 
     /tmp/ccjdNVnt.s:1235   .text:0000000000000530 _ZN14PeriodicThread9terminateEv
     /tmp/ccjdNVnt.s:1238   .text:0000000000000530 .L0 
     /tmp/ccjdNVnt.s:1240   .text:0000000000000530 .L0 
     /tmp/ccjdNVnt.s:1241   .text:0000000000000534 .L0 
     /tmp/ccjdNVnt.s:1243   .text:0000000000000538 .L0 
     /tmp/ccjdNVnt.s:1245   .text:000000000000053c .L0 
     /tmp/ccjdNVnt.s:1247   .text:000000000000053c .L0 
     /tmp/ccjdNVnt.s:1248   .text:000000000000053c .L0 
     /tmp/ccjdNVnt.s:1251   .text:0000000000000544 .L0 
     /tmp/ccjdNVnt.s:1252   .text:0000000000000548 .L0 
     /tmp/ccjdNVnt.s:1253   .text:0000000000000548 .L0 
     /tmp/ccjdNVnt.s:1255   .text:000000000000054c .L0 
     /tmp/ccjdNVnt.s:1257   .text:0000000000000550 .L0 
     /tmp/ccjdNVnt.s:1263   .text:0000000000000550 _ZN14PeriodicThreadC2Em
     /tmp/ccjdNVnt.s:1266   .text:0000000000000550 .L0 
     /tmp/ccjdNVnt.s:1268   .text:0000000000000550 .L0 
     /tmp/ccjdNVnt.s:1269   .text:0000000000000554 .L0 
     /tmp/ccjdNVnt.s:1274   .text:0000000000000564 .L0 
     /tmp/ccjdNVnt.s:1275   .text:0000000000000564 .L0 
     /tmp/ccjdNVnt.s:1276   .text:0000000000000564 .L0 
     /tmp/ccjdNVnt.s:1277   .text:0000000000000564 .L0 
     /tmp/ccjdNVnt.s:1279   .text:0000000000000568 .L0 
     /tmp/ccjdNVnt.s:1284   .text:0000000000000570 .L0 
     /tmp/ccjdNVnt.s:1291   .text:0000000000000588 .L0 
     /tmp/ccjdNVnt.s:1292   .text:0000000000000588 .L0 
     /tmp/ccjdNVnt.s:1293   .text:000000000000058c .L0 
     /tmp/ccjdNVnt.s:1295   .text:0000000000000590 .L0 
     /tmp/ccjdNVnt.s:1296   .text:0000000000000590 .L0 
     /tmp/ccjdNVnt.s:1298   .text:0000000000000594 .L0 
     /tmp/ccjdNVnt.s:1301   .text:0000000000000598 .L0 
     /tmp/ccjdNVnt.s:1304   .text:000000000000059c .L0 
GAS LISTING /tmp/ccjdNVnt.s 			page 44


     /tmp/ccjdNVnt.s:1306   .text:00000000000005a0 .L0 
     /tmp/ccjdNVnt.s:1263   .text:0000000000000550 _ZN14PeriodicThreadC1Em
     /tmp/ccjdNVnt.s:1314   .text:00000000000005a0 _ZN7Console4getcEv
     /tmp/ccjdNVnt.s:1317   .text:00000000000005a0 .L0 
     /tmp/ccjdNVnt.s:1318   .text:00000000000005a0 .L0 
     /tmp/ccjdNVnt.s:1319   .text:00000000000005a4 .L0 
     /tmp/ccjdNVnt.s:1322   .text:00000000000005ac .L0 
     /tmp/ccjdNVnt.s:1323   .text:00000000000005ac .L0 
     /tmp/ccjdNVnt.s:1325   .text:00000000000005b0 .L0 
     /tmp/ccjdNVnt.s:1327   .text:00000000000005b0 .L0 
     /tmp/ccjdNVnt.s:1328   .text:00000000000005b0 .L0 
     /tmp/ccjdNVnt.s:1331   .text:00000000000005b8 .L0 
     /tmp/ccjdNVnt.s:1332   .text:00000000000005bc .L0 
     /tmp/ccjdNVnt.s:1334   .text:00000000000005c0 .L0 
     /tmp/ccjdNVnt.s:1335   .text:00000000000005c0 .L0 
     /tmp/ccjdNVnt.s:1337   .text:00000000000005c4 .L0 
     /tmp/ccjdNVnt.s:1339   .text:00000000000005c8 .L0 
     /tmp/ccjdNVnt.s:1345   .text:00000000000005c8 _ZN7Console4putcEc
     /tmp/ccjdNVnt.s:1348   .text:00000000000005c8 .L0 
     /tmp/ccjdNVnt.s:1350   .text:00000000000005c8 .L0 
     /tmp/ccjdNVnt.s:1351   .text:00000000000005cc .L0 
     /tmp/ccjdNVnt.s:1354   .text:00000000000005d4 .L0 
     /tmp/ccjdNVnt.s:1355   .text:00000000000005d4 .L0 
     /tmp/ccjdNVnt.s:1357   .text:00000000000005d8 .L0 
     /tmp/ccjdNVnt.s:1359   .text:00000000000005d8 .L0 
     /tmp/ccjdNVnt.s:1360   .text:00000000000005d8 .L0 
     /tmp/ccjdNVnt.s:1363   .text:00000000000005e0 .L0 
     /tmp/ccjdNVnt.s:1364   .text:00000000000005e4 .L0 
     /tmp/ccjdNVnt.s:1366   .text:00000000000005e8 .L0 
     /tmp/ccjdNVnt.s:1367   .text:00000000000005e8 .L0 
     /tmp/ccjdNVnt.s:1369   .text:00000000000005ec .L0 
     /tmp/ccjdNVnt.s:1371   .text:00000000000005f0 .L0 
     /tmp/ccjdNVnt.s:32     .text._ZN6Thread3runEv:0000000000000018 .L0 
     /tmp/ccjdNVnt.s:57     .text._ZN14PeriodicThread18periodicActivationEv:0000000000000018 .L0 
     /tmp/ccjdNVnt.s:1412   .text:00000000000005f0 .L0 
     /tmp/ccjdNVnt.s:271    .text._ZN14PeriodicThreadD2Ev:0000000000000034 .L0 
     /tmp/ccjdNVnt.s:572    .text._ZN14PeriodicThreadD0Ev:000000000000004c .L0 
     /tmp/ccjdNVnt.s:125    .text:0000000000000050 .L0 
     /tmp/ccjdNVnt.s:295    .text:00000000000000dc .L0 
     /tmp/ccjdNVnt.s:680    .text:0000000000000284 .L0 
     /tmp/ccjdNVnt.s:692    .text:0000000000000298 .L0 
     /tmp/ccjdNVnt.s:1040   .text:000000000000043c .L0 
     /tmp/ccjdNVnt.s:1045   .text:0000000000000448 .L0 
     /tmp/ccjdNVnt.s:1141   .text:00000000000004b0 .L0 
     /tmp/ccjdNVnt.s:1286   .text:0000000000000578 .L0 
     /tmp/ccjdNVnt.s:95     .text:0000000000000030 .L8
     /tmp/ccjdNVnt.s:186    .text:000000000000009c .L12
     /tmp/ccjdNVnt.s:175    .text:0000000000000090 .L13
     /tmp/ccjdNVnt.s:138    .text:0000000000000070 .L14
     /tmp/ccjdNVnt.s:356    .text:0000000000000128 .L19
     /tmp/ccjdNVnt.s:345    .text:000000000000011c .L21
     /tmp/ccjdNVnt.s:309    .text:00000000000000fc .L22
     /tmp/ccjdNVnt.s:762    .text:00000000000002ec .L41
     /tmp/ccjdNVnt.s:702    .text:00000000000002b4 .L40
     /tmp/ccjdNVnt.s:838    .text:000000000000032c .L45
     /tmp/ccjdNVnt.s:845    .text:0000000000000334 .L46
     /tmp/ccjdNVnt.s:828    .text:0000000000000320 .L44
GAS LISTING /tmp/ccjdNVnt.s 			page 45


     /tmp/ccjdNVnt.s:999    .text:0000000000000408 .L55
     /tmp/ccjdNVnt.s:971    .text:00000000000003d4 .L56
     /tmp/ccjdNVnt.s:253    .text._ZN14PeriodicThreadD2Ev:0000000000000010 .L0 
     /tmp/ccjdNVnt.s:549    .text._ZN14PeriodicThreadD0Ev:0000000000000018 .L0 
     /tmp/ccjdNVnt.s:3929   .debug_abbrev:0000000000000000 .Ldebug_abbrev0
     /tmp/ccjdNVnt.s:6302   .debug_str:0000000000000a1d .LASF216
     /tmp/ccjdNVnt.s:6116   .debug_str:00000000000004b6 .LASF217
     /tmp/ccjdNVnt.s:6250   .debug_str:00000000000008a1 .LASF218
     /tmp/ccjdNVnt.s:5926   .debug_ranges:0000000000000000 .Ldebug_ranges0
     /tmp/ccjdNVnt.s:5946   .debug_line:0000000000000000 .Ldebug_line0
     /tmp/ccjdNVnt.s:6220   .debug_str:00000000000007cd .LASF3
     /tmp/ccjdNVnt.s:6102   .debug_str:0000000000000453 .LASF0
     /tmp/ccjdNVnt.s:6132   .debug_str:0000000000000531 .LASF1
     /tmp/ccjdNVnt.s:6234   .debug_str:0000000000000840 .LASF2
     /tmp/ccjdNVnt.s:6244   .debug_str:000000000000087a .LASF4
     /tmp/ccjdNVnt.s:6118   .debug_str:00000000000004ca .LASF5
     /tmp/ccjdNVnt.s:5964   .debug_str:0000000000000092 .LASF6
     /tmp/ccjdNVnt.s:6200   .debug_str:0000000000000738 .LASF7
     /tmp/ccjdNVnt.s:6194   .debug_str:00000000000006fd .LASF8
     /tmp/ccjdNVnt.s:6124   .debug_str:0000000000000501 .LASF9
     /tmp/ccjdNVnt.s:6072   .debug_str:000000000000036b .LASF10
     /tmp/ccjdNVnt.s:6084   .debug_str:00000000000003d0 .LASF11
     /tmp/ccjdNVnt.s:6004   .debug_str:00000000000001a9 .LASF12
     /tmp/ccjdNVnt.s:6064   .debug_str:000000000000033a .LASF13
     /tmp/ccjdNVnt.s:6020   .debug_str:0000000000000216 .LASF14
     /tmp/ccjdNVnt.s:6002   .debug_str:0000000000000199 .LASF15
     /tmp/ccjdNVnt.s:6276   .debug_str:0000000000000979 .LASF16
     /tmp/ccjdNVnt.s:6052   .debug_str:00000000000002db .LASF17
     /tmp/ccjdNVnt.s:6266   .debug_str:000000000000092f .LASF18
     /tmp/ccjdNVnt.s:6348   .debug_str:0000000000000c2b .LASF19
     /tmp/ccjdNVnt.s:6256   .debug_str:00000000000008dc .LASF219
     /tmp/ccjdNVnt.s:6204   .debug_str:0000000000000751 .LASF20
     /tmp/ccjdNVnt.s:6034   .debug_str:0000000000000290 .LASF21
     /tmp/ccjdNVnt.s:6150   .debug_str:00000000000005c5 .LASF22
     /tmp/ccjdNVnt.s:5966   .debug_str:0000000000000099 .LASF23
     /tmp/ccjdNVnt.s:6012   .debug_str:00000000000001d9 .LASF24
     /tmp/ccjdNVnt.s:5992   .debug_str:0000000000000153 .LASF25
     /tmp/ccjdNVnt.s:6282   .debug_str:00000000000009a4 .LASF108
     /tmp/ccjdNVnt.s:6274   .debug_str:000000000000096c .LASF26
     /tmp/ccjdNVnt.s:6362   .debug_str:0000000000000cac .LASF28
     /tmp/ccjdNVnt.s:6188   .debug_str:00000000000006e1 .LASF220
     /tmp/ccjdNVnt.s:6008   .debug_str:00000000000001bd .LASF27
     /tmp/ccjdNVnt.s:6086   .debug_str:00000000000003de .LASF29
     /tmp/ccjdNVnt.s:6104   .debug_str:0000000000000460 .LASF30
     /tmp/ccjdNVnt.s:6148   .debug_str:00000000000005b1 .LASF32
     /tmp/ccjdNVnt.s:6140   .debug_str:0000000000000565 .LASF31
     /tmp/ccjdNVnt.s:6216   .debug_str:00000000000007a5 .LASF33
     /tmp/ccjdNVnt.s:6208   .debug_str:0000000000000774 .LASF34
     /tmp/ccjdNVnt.s:6152   .debug_str:00000000000005cd .LASF35
     /tmp/ccjdNVnt.s:6360   .debug_str:0000000000000c94 .LASF36
     /tmp/ccjdNVnt.s:6364   .debug_str:0000000000000cce .LASF37
     /tmp/ccjdNVnt.s:6074   .debug_str:000000000000037b .LASF38
     /tmp/ccjdNVnt.s:6262   .debug_str:0000000000000906 .LASF40
     /tmp/ccjdNVnt.s:5950   .debug_str:000000000000002a .LASF42
     /tmp/ccjdNVnt.s:6290   .debug_str:00000000000009c1 .LASF44
     /tmp/ccjdNVnt.s:6330   .debug_str:0000000000000bbc .LASF39
     /tmp/ccjdNVnt.s:6184   .debug_str:00000000000006bb .LASF41
GAS LISTING /tmp/ccjdNVnt.s 			page 46


     /tmp/ccjdNVnt.s:6328   .debug_str:0000000000000bb1 .LASF43
     /tmp/ccjdNVnt.s:6066   .debug_str:0000000000000349 .LASF45
     /tmp/ccjdNVnt.s:6350   .debug_str:0000000000000c34 .LASF46
     /tmp/ccjdNVnt.s:6248   .debug_str:0000000000000886 .LASF47
     /tmp/ccjdNVnt.s:6042   .debug_str:00000000000002aa .LASF48
     /tmp/ccjdNVnt.s:6016   .debug_str:00000000000001f1 .LASF50
     /tmp/ccjdNVnt.s:6340   .debug_str:0000000000000c01 .LASF49
     /tmp/ccjdNVnt.s:5972   .debug_str:00000000000000d0 .LASF51
     /tmp/ccjdNVnt.s:6078   .debug_str:00000000000003a6 .LASF52
     /tmp/ccjdNVnt.s:6222   .debug_str:00000000000007d2 .LASF53
     /tmp/ccjdNVnt.s:6388   .debug_str:0000000000000d86 .LASF54
     /tmp/ccjdNVnt.s:6080   .debug_str:00000000000003b1 .LASF55
     /tmp/ccjdNVnt.s:5954   .debug_str:000000000000003c .LASF56
     /tmp/ccjdNVnt.s:6180   .debug_str:00000000000006a6 .LASF57
     /tmp/ccjdNVnt.s:6374   .debug_str:0000000000000d1e .LASF221
     /tmp/ccjdNVnt.s:6322   .debug_str:0000000000000b7f .LASF58
     /tmp/ccjdNVnt.s:6000   .debug_str:000000000000018a .LASF59
     /tmp/ccjdNVnt.s:6382   .debug_str:0000000000000d5e .LASF60
     /tmp/ccjdNVnt.s:6336   .debug_str:0000000000000be4 .LASF61
     /tmp/ccjdNVnt.s:6308   .debug_str:0000000000000b0b .LASF62
     /tmp/ccjdNVnt.s:6300   .debug_str:0000000000000a0d .LASF63
     /tmp/ccjdNVnt.s:6192   .debug_str:00000000000006f1 .LASF64
     /tmp/ccjdNVnt.s:6058   .debug_str:0000000000000318 .LASF65
     /tmp/ccjdNVnt.s:6242   .debug_str:000000000000086c .LASF66
     /tmp/ccjdNVnt.s:6346   .debug_str:0000000000000c24 .LASF67
     /tmp/ccjdNVnt.s:6168   .debug_str:0000000000000649 .LASF68
     /tmp/ccjdNVnt.s:6390   .debug_str:0000000000000d93 .LASF69
     /tmp/ccjdNVnt.s:6298   .debug_str:0000000000000a05 .LASF70
     /tmp/ccjdNVnt.s:5996   .debug_str:000000000000016c .LASF71
     /tmp/ccjdNVnt.s:6028   .debug_str:0000000000000255 .LASF102
     /tmp/ccjdNVnt.s:5958   .debug_str:0000000000000054 .LASF104
     /tmp/ccjdNVnt.s:6246   .debug_str:0000000000000881 .LASF95
     /tmp/ccjdNVnt.s:5960   .debug_str:000000000000007c .LASF97
     /tmp/ccjdNVnt.s:6372   .debug_str:0000000000000d18 .LASF72
     /tmp/ccjdNVnt.s:6268   .debug_str:0000000000000945 .LASF73
     /tmp/ccjdNVnt.s:6130   .debug_str:0000000000000529 .LASF74
     /tmp/ccjdNVnt.s:6178   .debug_str:0000000000000693 .LASF75
     /tmp/ccjdNVnt.s:6044   .debug_str:00000000000002b3 .LASF76
     /tmp/ccjdNVnt.s:6048   .debug_str:00000000000002be .LASF77
     /tmp/ccjdNVnt.s:6280   .debug_str:000000000000099d .LASF78
     /tmp/ccjdNVnt.s:5982   .debug_str:0000000000000125 .LASF79
     /tmp/ccjdNVnt.s:6038   .debug_str:000000000000029c .LASF80
     /tmp/ccjdNVnt.s:6170   .debug_str:0000000000000655 .LASF81
     /tmp/ccjdNVnt.s:6050   .debug_str:00000000000002ce .LASF82
     /tmp/ccjdNVnt.s:6334   .debug_str:0000000000000bd6 .LASF83
     /tmp/ccjdNVnt.s:6190   .debug_str:00000000000006e6 .LASF84
     /tmp/ccjdNVnt.s:6318   .debug_str:0000000000000b5b .LASF85
     /tmp/ccjdNVnt.s:6100   .debug_str:000000000000044d .LASF86
     /tmp/ccjdNVnt.s:6294   .debug_str:00000000000009de .LASF87
     /tmp/ccjdNVnt.s:5956   .debug_str:000000000000004c .LASF88
     /tmp/ccjdNVnt.s:5968   .debug_str:00000000000000a1 .LASF89
     /tmp/ccjdNVnt.s:6358   .debug_str:0000000000000c87 .LASF90
     /tmp/ccjdNVnt.s:6326   .debug_str:0000000000000ba1 .LASF91
     /tmp/ccjdNVnt.s:6238   .debug_str:000000000000085d .LASF92
     /tmp/ccjdNVnt.s:6126   .debug_str:0000000000000514 .LASF93
     /tmp/ccjdNVnt.s:6182   .debug_str:00000000000006b3 .LASF94
     /tmp/ccjdNVnt.s:6046   .debug_str:00000000000002b8 .LASF96
GAS LISTING /tmp/ccjdNVnt.s 			page 47


     /tmp/ccjdNVnt.s:6320   .debug_str:0000000000000b72 .LASF98
     /tmp/ccjdNVnt.s:6154   .debug_str:00000000000005df .LASF99
     /tmp/ccjdNVnt.s:6370   .debug_str:0000000000000d13 .LASF100
     /tmp/ccjdNVnt.s:6032   .debug_str:000000000000027d .LASF101
     /tmp/ccjdNVnt.s:6158   .debug_str:00000000000005f3 .LASF103
     /tmp/ccjdNVnt.s:6368   .debug_str:0000000000000d00 .LASF105
     /tmp/ccjdNVnt.s:6286   .debug_str:00000000000009b2 .LASF106
     /tmp/ccjdNVnt.s:6172   .debug_str:000000000000066b .LASF107
     /tmp/ccjdNVnt.s:6036   .debug_str:0000000000000297 .LASF109
     /tmp/ccjdNVnt.s:6070   .debug_str:0000000000000366 .LASF110
     /tmp/ccjdNVnt.s:6006   .debug_str:00000000000001b8 .LASF111
     /tmp/ccjdNVnt.s:6056   .debug_str:00000000000002fa .LASF112
     /tmp/ccjdNVnt.s:6030   .debug_str:0000000000000263 .LASF113
     /tmp/ccjdNVnt.s:6206   .debug_str:0000000000000759 .LASF158
     /tmp/ccjdNVnt.s:6332   .debug_str:0000000000000bd0 .LASF114
     /tmp/ccjdNVnt.s:6128   .debug_str:0000000000000524 .LASF115
     /tmp/ccjdNVnt.s:5978   .debug_str:00000000000000fd .LASF116
     /tmp/ccjdNVnt.s:6278   .debug_str:0000000000000985 .LASF117
     /tmp/ccjdNVnt.s:6196   .debug_str:0000000000000710 .LASF144
     /tmp/ccjdNVnt.s:6120   .debug_str:00000000000004dc .LASF118
     /tmp/ccjdNVnt.s:6024   .debug_str:000000000000023b .LASF119
     /tmp/ccjdNVnt.s:6108   .debug_str:000000000000047b .LASF120
     /tmp/ccjdNVnt.s:5970   .debug_str:00000000000000b4 .LASF121
     /tmp/ccjdNVnt.s:6134   .debug_str:0000000000000544 .LASF122
     /tmp/ccjdNVnt.s:6166   .debug_str:000000000000062a .LASF123
     /tmp/ccjdNVnt.s:5990   .debug_str:000000000000014a .LASF124
     /tmp/ccjdNVnt.s:6164   .debug_str:000000000000060e .LASF125
     /tmp/ccjdNVnt.s:5952   .debug_str:0000000000000035 .LASF126
     /tmp/ccjdNVnt.s:6144   .debug_str:0000000000000584 .LASF127
     /tmp/ccjdNVnt.s:6022   .debug_str:0000000000000226 .LASF128
     /tmp/ccjdNVnt.s:6352   .debug_str:0000000000000c42 .LASF129
     /tmp/ccjdNVnt.s:6314   .debug_str:0000000000000b41 .LASF130
     /tmp/ccjdNVnt.s:6014   .debug_str:00000000000001e2 .LASF131
     /tmp/ccjdNVnt.s:6324   .debug_str:0000000000000b87 .LASF132
     /tmp/ccjdNVnt.s:6110   .debug_str:0000000000000483 .LASF133
     /tmp/ccjdNVnt.s:6288   .debug_str:00000000000009b7 .LASF134
     /tmp/ccjdNVnt.s:6076   .debug_str:0000000000000386 .LASF135
     /tmp/ccjdNVnt.s:6122   .debug_str:00000000000004e9 .LASF136
     /tmp/ccjdNVnt.s:6082   .debug_str:00000000000003bd .LASF137
     /tmp/ccjdNVnt.s:5948   .debug_str:0000000000000000 .LASF222
     /tmp/ccjdNVnt.s:6354   .debug_str:0000000000000c58 .LASF154
     /tmp/ccjdNVnt.s:5986   .debug_str:000000000000013c .LASF138
     /tmp/ccjdNVnt.s:6176   .debug_str:0000000000000683 .LASF139
     /tmp/ccjdNVnt.s:6338   .debug_str:0000000000000be9 .LASF223
     /tmp/ccjdNVnt.s:6092   .debug_str:000000000000041c .LASF140
     /tmp/ccjdNVnt.s:6018   .debug_str:0000000000000204 .LASF141
     /tmp/ccjdNVnt.s:6228   .debug_str:0000000000000814 .LASF162
     /tmp/ccjdNVnt.s:6394   .debug_str:0000000000000dab .LASF142
     /tmp/ccjdNVnt.s:6260   .debug_str:00000000000008fe .LASF143
     /tmp/ccjdNVnt.s:6060   .debug_str:0000000000000325 .LASF145
     /tmp/ccjdNVnt.s:6380   .debug_str:0000000000000d58 .LASF146
     /tmp/ccjdNVnt.s:6138   .debug_str:0000000000000552 .LASF147
     /tmp/ccjdNVnt.s:6292   .debug_str:00000000000009d9 .LASF148
     /tmp/ccjdNVnt.s:6202   .debug_str:000000000000073f .LASF149
     /tmp/ccjdNVnt.s:6376   .debug_str:0000000000000d34 .LASF150
     /tmp/ccjdNVnt.s:6136   .debug_str:000000000000054c .LASF151
     /tmp/ccjdNVnt.s:6304   .debug_str:0000000000000ae1 .LASF152
GAS LISTING /tmp/ccjdNVnt.s 			page 48


     /tmp/ccjdNVnt.s:6112   .debug_str:000000000000049e .LASF153
     /tmp/ccjdNVnt.s:6096   .debug_str:000000000000042c .LASF155
     /tmp/ccjdNVnt.s:6054   .debug_str:00000000000002f1 .LASF156
     /tmp/ccjdNVnt.s:6040   .debug_str:00000000000002a5 .LASF157
     /tmp/ccjdNVnt.s:6296   .debug_str:00000000000009ef .LASF159
     /tmp/ccjdNVnt.s:6270   .debug_str:000000000000094a .LASF160
     /tmp/ccjdNVnt.s:6226   .debug_str:00000000000007ff .LASF161
     /tmp/ccjdNVnt.s:6384   .debug_str:0000000000000d64 .LASF163
     /tmp/ccjdNVnt.s:6342   .debug_str:0000000000000c09 .LASF164
     /tmp/ccjdNVnt.s:6212   .debug_str:0000000000000790 .LASF165
     /tmp/ccjdNVnt.s:6252   .debug_str:00000000000008bf .LASF166
     /tmp/ccjdNVnt.s:6310   .debug_str:0000000000000b15 .LASF167
     /tmp/ccjdNVnt.s:6312   .debug_str:0000000000000b2a .LASF168
     /tmp/ccjdNVnt.s:6098   .debug_str:000000000000043d .LASF224
     /tmp/ccjdNVnt.s:6068   .debug_str:0000000000000361 .LASF169
     /tmp/ccjdNVnt.s:5962   .debug_str:0000000000000088 .LASF170
     /tmp/ccjdNVnt.s:6396   .debug_str:0000000000000dc2 .LASF171
     /tmp/ccjdNVnt.s:530    .text._ZN14PeriodicThreadD0Ev:0000000000000000 .LFB84
     /tmp/ccjdNVnt.s:570    .text._ZN14PeriodicThreadD0Ev:000000000000004c .LFE84
     /tmp/ccjdNVnt.s:5366   .debug_loc:0000000000000000 .LLST12
     /tmp/ccjdNVnt.s:546    .text._ZN14PeriodicThreadD0Ev:0000000000000018 .LBB75
     /tmp/ccjdNVnt.s:554    .text._ZN14PeriodicThreadD0Ev:000000000000002c .LBE75
     /tmp/ccjdNVnt.s:5384   .debug_loc:000000000000004c .LLST13
     /tmp/ccjdNVnt.s:552    .text._ZN14PeriodicThreadD0Ev:000000000000002c .LVL37
     /tmp/ccjdNVnt.s:557    .text._ZN14PeriodicThreadD0Ev:0000000000000038 .LVL38
     /tmp/ccjdNVnt.s:6232   .debug_str:0000000000000828 .LASF172
     /tmp/ccjdNVnt.s:239    .text._ZN14PeriodicThreadD2Ev:0000000000000000 .LFB82
     /tmp/ccjdNVnt.s:267    .text._ZN14PeriodicThreadD2Ev:0000000000000034 .LFE82
     /tmp/ccjdNVnt.s:5395   .debug_loc:0000000000000082 .LLST4
     /tmp/ccjdNVnt.s:256    .text._ZN14PeriodicThreadD2Ev:0000000000000024 .LVL15
     /tmp/ccjdNVnt.s:1346   .text:00000000000005c8 .LFB80
     /tmp/ccjdNVnt.s:1372   .text:00000000000005f0 .LFE80
     /tmp/ccjdNVnt.s:5409   .debug_loc:00000000000000bb .LLST33
     /tmp/ccjdNVnt.s:1361   .text:00000000000005e0 .LVL99
     /tmp/ccjdNVnt.s:1315   .text:00000000000005a0 .LFB79
     /tmp/ccjdNVnt.s:1340   .text:00000000000005c8 .LFE79
     /tmp/ccjdNVnt.s:1329   .text:00000000000005b8 .LVL97
     /tmp/ccjdNVnt.s:955    .text:00000000000003bc .LFB78
     /tmp/ccjdNVnt.s:1017   .text:0000000000000424 .LFE78
     /tmp/ccjdNVnt.s:5423   .debug_loc:00000000000000f4 .LLST24
     /tmp/ccjdNVnt.s:986    .text:00000000000003f0 .LVL72
     /tmp/ccjdNVnt.s:996    .text:0000000000000404 .LVL73
     /tmp/ccjdNVnt.s:1003   .text:0000000000000410 .LVL74
     /tmp/ccjdNVnt.s:6272   .debug_str:0000000000000954 .LASF173
     /tmp/ccjdNVnt.s:1264   .text:0000000000000550 .LFB76
     /tmp/ccjdNVnt.s:1307   .text:00000000000005a0 .LFE76
     /tmp/ccjdNVnt.s:5441   .debug_loc:0000000000000140 .LLST31
     /tmp/ccjdNVnt.s:5459   .debug_loc:000000000000018c .LLST32
     /tmp/ccjdNVnt.s:1285   .text:0000000000000578 .LVL94
     /tmp/ccjdNVnt.s:1236   .text:0000000000000530 .LFB74
     /tmp/ccjdNVnt.s:1258   .text:0000000000000550 .LFE74
     /tmp/ccjdNVnt.s:1202   .text:0000000000000504 .LFB73
     /tmp/ccjdNVnt.s:1230   .text:0000000000000530 .LFE73
     /tmp/ccjdNVnt.s:5478   .debug_loc:00000000000001d9 .LLST30
     /tmp/ccjdNVnt.s:1219   .text:0000000000000520 .LVL91
     /tmp/ccjdNVnt.s:1168   .text:00000000000004d8 .LFB72
     /tmp/ccjdNVnt.s:1196   .text:0000000000000504 .LFE72
GAS LISTING /tmp/ccjdNVnt.s 			page 49


     /tmp/ccjdNVnt.s:5492   .debug_loc:0000000000000212 .LLST29
     /tmp/ccjdNVnt.s:1185   .text:00000000000004f4 .LVL88
     /tmp/ccjdNVnt.s:6142   .debug_str:0000000000000572 .LASF174
     /tmp/ccjdNVnt.s:577    .text:00000000000001f4 .LFB71
     /tmp/ccjdNVnt.s:610    .text:0000000000000234 .LFE71
     /tmp/ccjdNVnt.s:5506   .debug_loc:000000000000024b .LLST14
     /tmp/ccjdNVnt.s:594    .text:0000000000000214 .LVL41
     /tmp/ccjdNVnt.s:597    .text:0000000000000220 .LVL42
     /tmp/ccjdNVnt.s:5974   .debug_str:00000000000000e2 .LASF175
     /tmp/ccjdNVnt.s:276    .text:00000000000000c4 .LFB69
     /tmp/ccjdNVnt.s:370    .text:000000000000013c .LFE69
     /tmp/ccjdNVnt.s:5524   .debug_loc:0000000000000297 .LLST5
     /tmp/ccjdNVnt.s:310    .text:00000000000000fc .LBB67
     /tmp/ccjdNVnt.s:351    .text:000000000000011c .LBE67
     /tmp/ccjdNVnt.s:311    .text:00000000000000fc .LBB68
     /tmp/ccjdNVnt.s:350    .text:000000000000011c .LBE68
     /tmp/ccjdNVnt.s:316    .text:00000000000000fc .LBB70
     /tmp/ccjdNVnt.s:322    .text:0000000000000100 .LBE70
     /tmp/ccjdNVnt.s:325    .text:0000000000000104 .LBB72
     /tmp/ccjdNVnt.s:348    .text:000000000000011c .LBE72
     /tmp/ccjdNVnt.s:5542   .debug_loc:00000000000002e3 .LLST6
     /tmp/ccjdNVnt.s:337    .text:0000000000000110 .LBB73
     /tmp/ccjdNVnt.s:347    .text:000000000000011c .LBE73
     /tmp/ccjdNVnt.s:5549   .debug_loc:0000000000000306 .LLST7
     /tmp/ccjdNVnt.s:342    .text:0000000000000118 .LVL23
     /tmp/ccjdNVnt.s:302    .text:00000000000000f4 .LVL18
     /tmp/ccjdNVnt.s:355    .text:0000000000000128 .LVL24
     /tmp/ccjdNVnt.s:5998   .debug_str:000000000000017d .LASF182
     /tmp/ccjdNVnt.s:5984   .debug_str:0000000000000137 .LASF176
     /tmp/ccjdNVnt.s:6010   .debug_str:00000000000001c7 .LASF177
     /tmp/ccjdNVnt.s:1127   .text:00000000000004a0 .LFB63
     /tmp/ccjdNVnt.s:1160   .text:00000000000004d8 .LFE63
     /tmp/ccjdNVnt.s:5556   .debug_loc:0000000000000329 .LLST27
     /tmp/ccjdNVnt.s:5576   .debug_loc:0000000000000377 .LLST28
     /tmp/ccjdNVnt.s:1148   .text:00000000000004c8 .LVL85
     /tmp/ccjdNVnt.s:62     .text:0000000000000000 .LFB61
     /tmp/ccjdNVnt.s:98     .text:0000000000000034 .LFE61
     /tmp/ccjdNVnt.s:6230   .debug_str:0000000000000821 .LASF178
     /tmp/ccjdNVnt.s:5590   .debug_loc:00000000000003b0 .LLST0
     /tmp/ccjdNVnt.s:84     .text:0000000000000020 .LVL3
     /tmp/ccjdNVnt.s:6236   .debug_str:000000000000084e .LASF179
     /tmp/ccjdNVnt.s:1023   .text:0000000000000424 .LFB59
     /tmp/ccjdNVnt.s:1119   .text:00000000000004a0 .LFE59
     /tmp/ccjdNVnt.s:5608   .debug_loc:00000000000003fc .LLST25
     /tmp/ccjdNVnt.s:1055   .text:0000000000000464 .LVL78
     /tmp/ccjdNVnt.s:1042   .text:0000000000000448 .LBB84
     /tmp/ccjdNVnt.s:1104   .text:000000000000048c .LBE84
     /tmp/ccjdNVnt.s:5632   .debug_loc:000000000000045d .LLST26
     /tmp/ccjdNVnt.s:921    .text:0000000000000390 .LFB57
     /tmp/ccjdNVnt.s:949    .text:00000000000003bc .LFE57
     /tmp/ccjdNVnt.s:5639   .debug_loc:0000000000000480 .LLST23
     /tmp/ccjdNVnt.s:936    .text:00000000000003a8 .LVL69
     /tmp/ccjdNVnt.s:890    .text:0000000000000368 .LFB56
     /tmp/ccjdNVnt.s:915    .text:0000000000000390 .LFE56
     /tmp/ccjdNVnt.s:904    .text:0000000000000380 .LVL67
     /tmp/ccjdNVnt.s:856    .text:000000000000033c .LFB55
     /tmp/ccjdNVnt.s:884    .text:0000000000000368 .LFE55
GAS LISTING /tmp/ccjdNVnt.s 			page 50


     /tmp/ccjdNVnt.s:5653   .debug_loc:00000000000004b9 .LLST22
     /tmp/ccjdNVnt.s:873    .text:0000000000000358 .LVL66
     /tmp/ccjdNVnt.s:780    .text:00000000000002f4 .LFB54
     /tmp/ccjdNVnt.s:850    .text:000000000000033c .LFE54
     /tmp/ccjdNVnt.s:5667   .debug_loc:00000000000004f2 .LLST20
     /tmp/ccjdNVnt.s:796    .text:0000000000000308 .LBB81
     /tmp/ccjdNVnt.s:804    .text:000000000000030c .LBE81
     /tmp/ccjdNVnt.s:5703   .debug_loc:000000000000057d .LLST21
     /tmp/ccjdNVnt.s:6146   .debug_str:00000000000005a2 .LASF180
     /tmp/ccjdNVnt.s:490    .text:00000000000001b4 .LFB53
     /tmp/ccjdNVnt.s:523    .text:00000000000001f4 .LFE53
     /tmp/ccjdNVnt.s:5710   .debug_loc:00000000000005a0 .LLST11
     /tmp/ccjdNVnt.s:507    .text:00000000000001d4 .LVL32
     /tmp/ccjdNVnt.s:510    .text:00000000000001e0 .LVL33
     /tmp/ccjdNVnt.s:6366   .debug_str:0000000000000cf1 .LASF181
     /tmp/ccjdNVnt.s:104    .text:0000000000000034 .LFB51
     /tmp/ccjdNVnt.s:222    .text:00000000000000c4 .LFE51
     /tmp/ccjdNVnt.s:5728   .debug_loc:00000000000005ec .LLST1
     /tmp/ccjdNVnt.s:139    .text:0000000000000070 .LBB57
     /tmp/ccjdNVnt.s:181    .text:0000000000000090 .LBE57
     /tmp/ccjdNVnt.s:140    .text:0000000000000070 .LBB58
     /tmp/ccjdNVnt.s:180    .text:0000000000000090 .LBE58
     /tmp/ccjdNVnt.s:146    .text:0000000000000070 .LBB60
     /tmp/ccjdNVnt.s:152    .text:0000000000000074 .LBE60
     /tmp/ccjdNVnt.s:155    .text:0000000000000078 .LBB62
     /tmp/ccjdNVnt.s:178    .text:0000000000000090 .LBE62
     /tmp/ccjdNVnt.s:5746   .debug_loc:0000000000000638 .LLST2
     /tmp/ccjdNVnt.s:167    .text:0000000000000084 .LBB63
     /tmp/ccjdNVnt.s:177    .text:0000000000000090 .LBE63
     /tmp/ccjdNVnt.s:5753   .debug_loc:000000000000065b .LLST3
     /tmp/ccjdNVnt.s:172    .text:000000000000008c .LVL11
     /tmp/ccjdNVnt.s:132    .text:0000000000000068 .LVL7
     /tmp/ccjdNVnt.s:185    .text:000000000000009c .LVL12
     /tmp/ccjdNVnt.s:6162   .debug_str:0000000000000602 .LASF183
     /tmp/ccjdNVnt.s:6306   .debug_str:0000000000000af4 .LASF184
     /tmp/ccjdNVnt.s:657    .text:000000000000025c .LFB45
     /tmp/ccjdNVnt.s:772    .text:00000000000002f4 .LFE45
     /tmp/ccjdNVnt.s:5760   .debug_loc:000000000000067e .LLST16
     /tmp/ccjdNVnt.s:5788   .debug_loc:00000000000006f2 .LLST17
     /tmp/ccjdNVnt.s:5810   .debug_loc:0000000000000751 .LLST18
     /tmp/ccjdNVnt.s:699    .text:00000000000002b0 .LVL49
     /tmp/ccjdNVnt.s:5832   .debug_loc:00000000000007b0 .LLST19
     /tmp/ccjdNVnt.s:6264   .debug_str:000000000000091c .LASF185
     /tmp/ccjdNVnt.s:5988   .debug_str:0000000000000143 .LASF186
     /tmp/ccjdNVnt.s:616    .text:0000000000000234 .LFB43
     /tmp/ccjdNVnt.s:644    .text:000000000000025c .LFE43
     /tmp/ccjdNVnt.s:5849   .debug_loc:00000000000007fb .LLST15
     /tmp/ccjdNVnt.s:633    .text:000000000000024c .LVL45
     /tmp/ccjdNVnt.s:6186   .debug_str:00000000000006da .LASF187
     /tmp/ccjdNVnt.s:449    .text:000000000000018c .LFB42
     /tmp/ccjdNVnt.s:477    .text:00000000000001b4 .LFE42
     /tmp/ccjdNVnt.s:5863   .debug_loc:0000000000000834 .LLST10
     /tmp/ccjdNVnt.s:466    .text:00000000000001a4 .LVL30
     /tmp/ccjdNVnt.s:5994   .debug_str:000000000000015c .LASF188
     /tmp/ccjdNVnt.s:6284   .debug_str:00000000000009ac .LASF189
     /tmp/ccjdNVnt.s:417    .text:0000000000000164 .LFB41
     /tmp/ccjdNVnt.s:443    .text:000000000000018c .LFE41
GAS LISTING /tmp/ccjdNVnt.s 			page 51


     /tmp/ccjdNVnt.s:6026   .debug_str:0000000000000250 .LASF190
     /tmp/ccjdNVnt.s:5877   .debug_loc:000000000000086d .LLST9
     /tmp/ccjdNVnt.s:432    .text:000000000000017c .LVL28
     /tmp/ccjdNVnt.s:6062   .debug_str:0000000000000334 .LASF191
     /tmp/ccjdNVnt.s:385    .text:000000000000013c .LFB40
     /tmp/ccjdNVnt.s:411    .text:0000000000000164 .LFE40
     /tmp/ccjdNVnt.s:5891   .debug_loc:00000000000008a6 .LLST8
     /tmp/ccjdNVnt.s:400    .text:0000000000000154 .LVL26
     /tmp/ccjdNVnt.s:6240   .debug_str:0000000000000867 .LASF192
     /tmp/ccjdNVnt.s:6316   .debug_str:0000000000000b46 .LASF193
     /tmp/ccjdNVnt.s:37     .text._ZN14PeriodicThread18periodicActivationEv:0000000000000000 .LFB1
     /tmp/ccjdNVnt.s:55     .text._ZN14PeriodicThread18periodicActivationEv:0000000000000018 .LFE1
     /tmp/ccjdNVnt.s:11     .text._ZN6Thread3runEv:0000000000000000 .LFB0
     /tmp/ccjdNVnt.s:30     .text._ZN6Thread3runEv:0000000000000018 .LFE0
     /tmp/ccjdNVnt.s:6114   .debug_str:00000000000004ad .LASF194
     /tmp/ccjdNVnt.s:6344   .debug_str:0000000000000c1b .LASF195
     /tmp/ccjdNVnt.s:6106   .debug_str:000000000000046a .LASF196
     /tmp/ccjdNVnt.s:6156   .debug_str:00000000000005e7 .LASF197
     /tmp/ccjdNVnt.s:6224   .debug_str:00000000000007ea .LASF198
     /tmp/ccjdNVnt.s:6090   .debug_str:0000000000000411 .LASF199
     /tmp/ccjdNVnt.s:6386   .debug_str:0000000000000d74 .LASF200
     /tmp/ccjdNVnt.s:6392   .debug_str:0000000000000da2 .LASF201
     /tmp/ccjdNVnt.s:6378   .debug_str:0000000000000d4a .LASF202
     /tmp/ccjdNVnt.s:6094   .debug_str:0000000000000423 .LASF203
     /tmp/ccjdNVnt.s:5980   .debug_str:0000000000000112 .LASF204
     /tmp/ccjdNVnt.s:6214   .debug_str:000000000000079b .LASF205
     /tmp/ccjdNVnt.s:6210   .debug_str:000000000000077c .LASF206
     /tmp/ccjdNVnt.s:5976   .debug_str:00000000000000f4 .LASF207
     /tmp/ccjdNVnt.s:6088   .debug_str:0000000000000403 .LASF208
     /tmp/ccjdNVnt.s:6160   .debug_str:00000000000005f8 .LASF209
     /tmp/ccjdNVnt.s:6198   .debug_str:0000000000000728 .LASF210
     /tmp/ccjdNVnt.s:6254   .debug_str:00000000000008d1 .LASF211
     /tmp/ccjdNVnt.s:6356   .debug_str:0000000000000c72 .LASF212
     /tmp/ccjdNVnt.s:6218   .debug_str:00000000000007bd .LASF213
     /tmp/ccjdNVnt.s:6258   .debug_str:00000000000008e9 .LASF214
     /tmp/ccjdNVnt.s:6174   .debug_str:0000000000000677 .LASF215
     /tmp/ccjdNVnt.s:533    .text._ZN14PeriodicThreadD0Ev:0000000000000000 .LVL35
     /tmp/ccjdNVnt.s:565    .text._ZN14PeriodicThreadD0Ev:0000000000000044 .LVL39
     /tmp/ccjdNVnt.s:545    .text._ZN14PeriodicThreadD0Ev:0000000000000018 .LVL36
     /tmp/ccjdNVnt.s:242    .text._ZN14PeriodicThreadD2Ev:0000000000000000 .LVL14
     /tmp/ccjdNVnt.s:1349   .text:00000000000005c8 .LVL98
     /tmp/ccjdNVnt.s:958    .text:00000000000003bc .LVL70
     /tmp/ccjdNVnt.s:970    .text:00000000000003d4 .LVL71
     /tmp/ccjdNVnt.s:1012   .text:000000000000041c .LVL75
     /tmp/ccjdNVnt.s:1267   .text:0000000000000550 .LVL93
     /tmp/ccjdNVnt.s:1299   .text:0000000000000594 .LVL95
     /tmp/ccjdNVnt.s:1302   .text:0000000000000598 .LVL96
     /tmp/ccjdNVnt.s:1205   .text:0000000000000504 .LVL89
     /tmp/ccjdNVnt.s:1217   .text:0000000000000518 .LVL90
     /tmp/ccjdNVnt.s:1171   .text:00000000000004d8 .LVL86
     /tmp/ccjdNVnt.s:1183   .text:00000000000004ec .LVL87
     /tmp/ccjdNVnt.s:580    .text:00000000000001f4 .LVL40
     /tmp/ccjdNVnt.s:605    .text:000000000000022c .LVL43
     /tmp/ccjdNVnt.s:281    .text:00000000000000c4 .LVL16
     /tmp/ccjdNVnt.s:300    .text:00000000000000ec .LVL17
     /tmp/ccjdNVnt.s:306    .text:00000000000000f8 .LVL19
     /tmp/ccjdNVnt.s:327    .text:0000000000000104 .LVL21
GAS LISTING /tmp/ccjdNVnt.s 			page 52


     /tmp/ccjdNVnt.s:336    .text:0000000000000110 .LVL22
     /tmp/ccjdNVnt.s:1130   .text:00000000000004a0 .LVL83
     /tmp/ccjdNVnt.s:1146   .text:00000000000004c0 .LVL84
     /tmp/ccjdNVnt.s:66     .text:0000000000000000 .LVL2
     /tmp/ccjdNVnt.s:94     .text:0000000000000030 .LVL4
     /tmp/ccjdNVnt.s:1026   .text:0000000000000424 .LVL76
     /tmp/ccjdNVnt.s:1053   .text:000000000000045c .LVL77
     /tmp/ccjdNVnt.s:1087   .text:0000000000000480 .LVL81
     /tmp/ccjdNVnt.s:1114   .text:0000000000000498 .LVL82
     /tmp/ccjdNVnt.s:1057   .text:0000000000000468 .LVL79
     /tmp/ccjdNVnt.s:1068   .text:0000000000000470 .LVL80
     /tmp/ccjdNVnt.s:924    .text:0000000000000390 .LVL68
     /tmp/ccjdNVnt.s:859    .text:000000000000033c .LVL64
     /tmp/ccjdNVnt.s:871    .text:0000000000000350 .LVL65
     /tmp/ccjdNVnt.s:783    .text:00000000000002f4 .LVL56
     /tmp/ccjdNVnt.s:813    .text:0000000000000314 .LVL59
     /tmp/ccjdNVnt.s:837    .text:000000000000032c .LVL60
     /tmp/ccjdNVnt.s:842    .text:0000000000000330 .LVL61
     /tmp/ccjdNVnt.s:844    .text:0000000000000334 .LVL62
     /tmp/ccjdNVnt.s:847    .text:0000000000000338 .LVL63
     /tmp/ccjdNVnt.s:795    .text:0000000000000308 .LVL57
     /tmp/ccjdNVnt.s:802    .text:000000000000030c .LVL58
     /tmp/ccjdNVnt.s:493    .text:00000000000001b4 .LVL31
     /tmp/ccjdNVnt.s:518    .text:00000000000001ec .LVL34
     /tmp/ccjdNVnt.s:109    .text:0000000000000034 .LVL5
     /tmp/ccjdNVnt.s:130    .text:0000000000000060 .LVL6
     /tmp/ccjdNVnt.s:217    .text:00000000000000bc .LVL13
     /tmp/ccjdNVnt.s:157    .text:0000000000000078 .LVL9
     /tmp/ccjdNVnt.s:166    .text:0000000000000084 .LVL10
     /tmp/ccjdNVnt.s:660    .text:000000000000025c .LVL46
     /tmp/ccjdNVnt.s:697    .text:00000000000002a8 .LVL48
     /tmp/ccjdNVnt.s:723    .text:00000000000002c4 .LVL51
     /tmp/ccjdNVnt.s:751    .text:00000000000002dc .LVL52
     /tmp/ccjdNVnt.s:761    .text:00000000000002ec .LVL55
     /tmp/ccjdNVnt.s:754    .text:00000000000002e0 .LVL53
     /tmp/ccjdNVnt.s:757    .text:00000000000002e4 .LVL54
     /tmp/ccjdNVnt.s:690    .text:0000000000000298 .LVL47
     /tmp/ccjdNVnt.s:701    .text:00000000000002b4 .LVL50
     /tmp/ccjdNVnt.s:621    .text:0000000000000234 .LVL44
     /tmp/ccjdNVnt.s:454    .text:000000000000018c .LVL29
     /tmp/ccjdNVnt.s:420    .text:0000000000000164 .LVL27
     /tmp/ccjdNVnt.s:388    .text:000000000000013c .LVL25
     /tmp/ccjdNVnt.s:1413   .debug_info:0000000000000000 .Ldebug_info0
     /tmp/ccjdNVnt.s:5      .text:0000000000000000 .Ltext0
     /tmp/ccjdNVnt.s:1408   .text:00000000000005f0 .Letext0
     /tmp/ccjdNVnt.s:682    .text:0000000000000290 .LBB78
     /tmp/ccjdNVnt.s:740    .text:00000000000002d0 .LBE78
     /tmp/ccjdNVnt.s:765    .text:00000000000002ec .LBB79
     /tmp/ccjdNVnt.s:769    .text:00000000000002f4 .LBE79
     /tmp/ccjdNVnt.s:225    .gcc_except_table:0000000000000000 .LLSDA51
     /tmp/ccjdNVnt.s:372    .gcc_except_table:0000000000000004 .LLSDA69
     /tmp/ccjdNVnt.s:479    .gcc_except_table:0000000000000008 .LLSDA42
     /tmp/ccjdNVnt.s:646    .gcc_except_table:000000000000000c .LLSDA43
                           .group:0000000000000000 _ZN14PeriodicThreadD5Ev

UNDEFINED SYMBOLS
_Z11thread_joinP3TCB
GAS LISTING /tmp/ccjdNVnt.s 			page 53


_Z8mem_freePv
_ZN3TCBdlEPv
__gxx_personality_v0
_Z9sem_closeP4KSem
_ZN4KSemdlEPv
_Z9mem_allocm
main
_Z15thread_dispatchv
_Z10time_sleepm
_Z11thread_exitv
_Z8sem_openPP4KSemj
_Z8sem_waitP4KSem
_Z10sem_signalP4KSem
_Z4getcv
_Z4putcc
