GAS LISTING /tmp/ccMmwR5a.s 			page 1


   1              		.file	"syscall_cpp.cpp"
   2              		.option pic
   3              		.option norelax
   4              		.text
   5              	.Ltext0:
   6              		.section	.text._ZN6Thread3runEv,"axG",@progbits,_ZN6Thread3runEv,comdat
   7              		.align	2
   8              		.weak	_ZN6Thread3runEv
  10              	_ZN6Thread3runEv:
  11              	.LFB0:
  12              		.file 1 "src/../h/syscall_cpp.hpp"
   1:src/../h/syscall_cpp.hpp **** #ifndef _syscall_cpp
   2:src/../h/syscall_cpp.hpp **** #define _syscall_cpp
   3:src/../h/syscall_cpp.hpp **** 
   4:src/../h/syscall_cpp.hpp **** #include "../lib/hw.h"
   5:src/../h/syscall_cpp.hpp **** 
   6:src/../h/syscall_cpp.hpp **** void* operator new(size_t);
   7:src/../h/syscall_cpp.hpp **** 
   8:src/../h/syscall_cpp.hpp **** void* operator new[](size_t);
   9:src/../h/syscall_cpp.hpp **** 
  10:src/../h/syscall_cpp.hpp **** void operator delete(void*)
  11:src/../h/syscall_cpp.hpp **** 
  12:src/../h/syscall_cpp.hpp **** noexcept;
  13:src/../h/syscall_cpp.hpp **** 
  14:src/../h/syscall_cpp.hpp **** void operator delete[](void*)
  15:src/../h/syscall_cpp.hpp **** 
  16:src/../h/syscall_cpp.hpp **** noexcept;
  17:src/../h/syscall_cpp.hpp **** 
  18:src/../h/syscall_cpp.hpp **** class TCB;
  19:src/../h/syscall_cpp.hpp **** 
  20:src/../h/syscall_cpp.hpp **** typedef TCB* thread_t;
  21:src/../h/syscall_cpp.hpp **** 
  22:src/../h/syscall_cpp.hpp **** class KSem;
  23:src/../h/syscall_cpp.hpp **** 
  24:src/../h/syscall_cpp.hpp **** typedef KSem* sem_t;
  25:src/../h/syscall_cpp.hpp **** 
  26:src/../h/syscall_cpp.hpp **** class Thread {
  27:src/../h/syscall_cpp.hpp **** public:
  28:src/../h/syscall_cpp.hpp ****     //konstruktor koji pravi nit koja izvrsava zadatu funkciju sa zadatim argumentima, ne pokrece n
  29:src/../h/syscall_cpp.hpp ****     Thread(void (* body)(void*), void* arg);
  30:src/../h/syscall_cpp.hpp **** 
  31:src/../h/syscall_cpp.hpp ****     virtual ~Thread();
  32:src/../h/syscall_cpp.hpp **** 
  33:src/../h/syscall_cpp.hpp ****     //stavlja nit u Scheduler
  34:src/../h/syscall_cpp.hpp ****     int start();
  35:src/../h/syscall_cpp.hpp **** 
  36:src/../h/syscall_cpp.hpp ****     //pozivajuca (running) nit se suspenduje dok se nit ciji se metod poziva(this) ne zavrsi
  37:src/../h/syscall_cpp.hpp ****     void join();
  38:src/../h/syscall_cpp.hpp **** 
  39:src/../h/syscall_cpp.hpp ****     //sinhrona promena konteksta
  40:src/../h/syscall_cpp.hpp ****     static void dispatch();
  41:src/../h/syscall_cpp.hpp **** 
  42:src/../h/syscall_cpp.hpp ****     //uspavljuje tekucu nit na zadati period
  43:src/../h/syscall_cpp.hpp ****     static int sleep(time_t);
  44:src/../h/syscall_cpp.hpp **** 
  45:src/../h/syscall_cpp.hpp **** protected:
  46:src/../h/syscall_cpp.hpp ****     //konstruktor koji pravi nit koja izvrsava run metodu, ne stavlja je u Scheduler
GAS LISTING /tmp/ccMmwR5a.s 			page 2


  47:src/../h/syscall_cpp.hpp ****     Thread();
  48:src/../h/syscall_cpp.hpp **** 
  49:src/../h/syscall_cpp.hpp ****     //funkcija koju nit izvrsava, samo ako je nit napravljena podrazumevanim konstruktorom
  50:src/../h/syscall_cpp.hpp ****     virtual void run() {}
  13              		.loc 1 50 18
  14              		.cfi_startproc
  15              	.LVL0:
  16 0000 130101FF 		addi	sp,sp,-16
  17              		.cfi_def_cfa_offset 16
  18 0004 23348100 		sd	s0,8(sp)
  19              		.cfi_offset 8, -8
  20 0008 13040101 		addi	s0,sp,16
  21              		.cfi_def_cfa 8, 0
  22              		.loc 1 50 25 is_stmt 0
  23 000c 03348100 		ld	s0,8(sp)
  24              		.cfi_restore 8
  25              		.cfi_def_cfa 2, 16
  26 0010 13010101 		addi	sp,sp,16
  27              		.cfi_def_cfa_offset 0
  28 0014 67800000 		jr	ra
  29              		.cfi_endproc
  30              	.LFE0:
  32              		.section	.text._ZN14PeriodicThread18periodicActivationEv,"axG",@progbits,_ZN14PeriodicThread18peri
  33              		.align	2
  34              		.weak	_ZN14PeriodicThread18periodicActivationEv
  36              	_ZN14PeriodicThread18periodicActivationEv:
  37              	.LFB1:
  51:src/../h/syscall_cpp.hpp **** 
  52:src/../h/syscall_cpp.hpp **** private:
  53:src/../h/syscall_cpp.hpp ****     //pokazivac na TCB strukturu kernela
  54:src/../h/syscall_cpp.hpp ****     thread_t myHandle;
  55:src/../h/syscall_cpp.hpp **** 
  56:src/../h/syscall_cpp.hpp ****     void (* body)(void*);
  57:src/../h/syscall_cpp.hpp **** 
  58:src/../h/syscall_cpp.hpp ****     void* arg;
  59:src/../h/syscall_cpp.hpp **** 
  60:src/../h/syscall_cpp.hpp ****     static void wrapper(void* thread);
  61:src/../h/syscall_cpp.hpp **** };
  62:src/../h/syscall_cpp.hpp **** 
  63:src/../h/syscall_cpp.hpp **** 
  64:src/../h/syscall_cpp.hpp **** class Semaphore {
  65:src/../h/syscall_cpp.hpp **** public:
  66:src/../h/syscall_cpp.hpp **** 
  67:src/../h/syscall_cpp.hpp ****     Semaphore(unsigned init = 1);
  68:src/../h/syscall_cpp.hpp **** 
  69:src/../h/syscall_cpp.hpp ****     virtual ~Semaphore();
  70:src/../h/syscall_cpp.hpp **** 
  71:src/../h/syscall_cpp.hpp ****     int wait();
  72:src/../h/syscall_cpp.hpp **** 
  73:src/../h/syscall_cpp.hpp ****     int signal();
  74:src/../h/syscall_cpp.hpp **** 
  75:src/../h/syscall_cpp.hpp **** private:
  76:src/../h/syscall_cpp.hpp ****     sem_t myHandle;
  77:src/../h/syscall_cpp.hpp **** };
  78:src/../h/syscall_cpp.hpp **** 
  79:src/../h/syscall_cpp.hpp **** 
  80:src/../h/syscall_cpp.hpp **** class PeriodicThread : public Thread {
GAS LISTING /tmp/ccMmwR5a.s 			page 3


  81:src/../h/syscall_cpp.hpp **** public:
  82:src/../h/syscall_cpp.hpp ****     void terminate();
  83:src/../h/syscall_cpp.hpp **** 
  84:src/../h/syscall_cpp.hpp **** protected:
  85:src/../h/syscall_cpp.hpp ****     PeriodicThread(time_t period);
  86:src/../h/syscall_cpp.hpp **** 
  87:src/../h/syscall_cpp.hpp ****     virtual void periodicActivation() {}
  38              		.loc 1 87 18 is_stmt 1
  39              		.cfi_startproc
  40              	.LVL1:
  41 0000 130101FF 		addi	sp,sp,-16
  42              		.cfi_def_cfa_offset 16
  43 0004 23348100 		sd	s0,8(sp)
  44              		.cfi_offset 8, -8
  45 0008 13040101 		addi	s0,sp,16
  46              		.cfi_def_cfa 8, 0
  47              		.loc 1 87 40 is_stmt 0
  48 000c 03348100 		ld	s0,8(sp)
  49              		.cfi_restore 8
  50              		.cfi_def_cfa 2, 16
  51 0010 13010101 		addi	sp,sp,16
  52              		.cfi_def_cfa_offset 0
  53 0014 67800000 		jr	ra
  54              		.cfi_endproc
  55              	.LFE1:
  57              		.text
  58              		.align	2
  59              		.globl	_ZN6ThreadD2Ev
  61              	_ZN6ThreadD2Ev:
  62              	.LFB49:
  63              		.file 2 "src/syscall_cpp.cpp"
   1:src/syscall_cpp.cpp **** //
   2:src/syscall_cpp.cpp **** // Created by os on 5/29/23.
   3:src/syscall_cpp.cpp **** //
   4:src/syscall_cpp.cpp **** #include "../h/syscall_cpp.hpp"
   5:src/syscall_cpp.cpp **** #include "../h/syscall_c.hpp"
   6:src/syscall_cpp.cpp **** #include "../h/TCB.hpp"
   7:src/syscall_cpp.cpp **** #include "../h/KSem.hpp"
   8:src/syscall_cpp.cpp **** #include "../h/Scheduler.hpp"
   9:src/syscall_cpp.cpp **** 
  10:src/syscall_cpp.cpp **** int main();
  11:src/syscall_cpp.cpp **** 
  12:src/syscall_cpp.cpp **** //override globalnog new
  13:src/syscall_cpp.cpp **** void* operator new(size_t size) {
  14:src/syscall_cpp.cpp ****     return mem_alloc(size);
  15:src/syscall_cpp.cpp **** }
  16:src/syscall_cpp.cpp **** 
  17:src/syscall_cpp.cpp **** void* operator new[](size_t size) {
  18:src/syscall_cpp.cpp ****     return mem_alloc(size);
  19:src/syscall_cpp.cpp **** }
  20:src/syscall_cpp.cpp **** 
  21:src/syscall_cpp.cpp **** void operator delete(void* ptr)
  22:src/syscall_cpp.cpp **** 
  23:src/syscall_cpp.cpp **** noexcept {
  24:src/syscall_cpp.cpp **** mem_free(ptr);
  25:src/syscall_cpp.cpp **** }
  26:src/syscall_cpp.cpp **** 
GAS LISTING /tmp/ccMmwR5a.s 			page 4


  27:src/syscall_cpp.cpp **** void operator delete[](void* ptr)
  28:src/syscall_cpp.cpp **** 
  29:src/syscall_cpp.cpp **** noexcept {
  30:src/syscall_cpp.cpp **** mem_free(ptr);
  31:src/syscall_cpp.cpp **** }
  32:src/syscall_cpp.cpp **** 
  33:src/syscall_cpp.cpp **** Thread::Thread(void (* body)(void*), void* arg) {
  34:src/syscall_cpp.cpp ****     this->body = body;
  35:src/syscall_cpp.cpp ****     this->arg = arg;
  36:src/syscall_cpp.cpp ****     //stvaranje steka ako se ne radi o main kernel niti, posto ona automatski ima stek
  37:src/syscall_cpp.cpp ****     uint64* stack = nullptr;
  38:src/syscall_cpp.cpp ****     if (body != (TCB::Body)main) {
  39:src/syscall_cpp.cpp ****         stack = (uint64*)mem_alloc(DEFAULT_STACK_SIZE);
  40:src/syscall_cpp.cpp ****     }
  41:src/syscall_cpp.cpp ****     //stavljanje argumenata za sistemski poziv
  42:src/syscall_cpp.cpp ****     __asm__ volatile("mv a4, %[sp]": :[sp] "r"(stack):"a5", "a0", "a1", "a2", "a3", "a4", "a6", "a7
  43:src/syscall_cpp.cpp ****     __asm__ volatile("mv a3, %[arg]": :[arg] "r"(arg):"a5", "a0", "a1", "a2", "a3", "a4", "a6", "a7
  44:src/syscall_cpp.cpp ****     __asm__ volatile("mv a2, %[function]": :[function] "r"(
  45:src/syscall_cpp.cpp ****             body):"a5", "a0", "a1", "a2", "a3", "a4", "a6", "a7");
  46:src/syscall_cpp.cpp ****     __asm__ volatile("mv a1, %[handle]": :[handle] "r"(&myHandle):"a5", "a0", "a1", "a2", "a3", "a4
  47:src/syscall_cpp.cpp ****     __asm__ volatile("li a0, 0x80");
  48:src/syscall_cpp.cpp ****     //a0 = 0x80
  49:src/syscall_cpp.cpp ****     //a1 = adresa pokazivaca na rucku niti
  50:src/syscall_cpp.cpp ****     //a2 = prva adresa funkcije koju nit izvrsava
  51:src/syscall_cpp.cpp ****     //a3 = pokazivac na argumente funkcije
  52:src/syscall_cpp.cpp ****     //a4 = pokazivac na najnizu adresu steka (stek raste ka nizim adresama, pokazuje na poslednju z
  53:src/syscall_cpp.cpp **** 
  54:src/syscall_cpp.cpp ****     __asm__ volatile("ecall");
  55:src/syscall_cpp.cpp **** }
  56:src/syscall_cpp.cpp **** 
  57:src/syscall_cpp.cpp **** Thread::~Thread() {
  64              		.loc 2 57 1 is_stmt 1
  65              		.cfi_startproc
  66              	.LVL2:
  67 0000 130101FF 		addi	sp,sp,-16
  68              		.cfi_def_cfa_offset 16
  69 0004 23348100 		sd	s0,8(sp)
  70              		.cfi_offset 8, -8
  71 0008 13040101 		addi	s0,sp,16
  72              		.cfi_def_cfa 8, 0
  73              	.LBB35:
  74              		.loc 2 57 17 is_stmt 0
  75 000c 97070000 		lla	a5,_ZTV6Thread+16
  75      93870700 
  76 0014 2330F500 		sd	a5,0(a0)
  58:src/syscall_cpp.cpp ****     //ne treba da se gasi running nit, vec nit na koju pokazuje rucka od this
  59:src/syscall_cpp.cpp **** //    thread_join(this->myHandle);
  60:src/syscall_cpp.cpp **** //    delete myHandle;
  61:src/syscall_cpp.cpp **** 
  62:src/syscall_cpp.cpp ****     __asm__ volatile("mv a1, %[handle]": :[handle] "r"(myHandle):"a5", "a0", "a1", "a2", "a3", "a4"
  77              		.loc 2 62 5 is_stmt 1
  78              		.loc 2 62 56 is_stmt 0
  79 0018 03338500 		ld	t1,8(a0)
  80              		.loc 2 62 113
  81              	#APP
  82              	# 62 "src/syscall_cpp.cpp" 1
  63              	    __asm__ volatile("li a0, 0x15");
GAS LISTING /tmp/ccMmwR5a.s 			page 5


  83              		mv a1, t1
  84              	# 0 "" 2
  85              	.LVL3:
  86              		.loc 2 63 5 is_stmt 1
  87              		.loc 2 63 36 is_stmt 0
  88              	# 63 "src/syscall_cpp.cpp" 1
  64              	
  65:src/syscall_cpp.cpp ****     __asm__ volatile("ecall");
  89              		li a0, 0x15
  90              	# 0 "" 2
  91              		.loc 2 65 5 is_stmt 1
  92              		.loc 2 65 30 is_stmt 0
  93              	# 65 "src/syscall_cpp.cpp" 1
  66              	}
  94              		ecall
  95              	# 0 "" 2
  96              	#NO_APP
  97              	.LBE35:
  98              		.loc 2 66 1
  99 0028 03348100 		ld	s0,8(sp)
 100              		.cfi_restore 8
 101              		.cfi_def_cfa 2, 16
 102 002c 13010101 		addi	sp,sp,16
 103              		.cfi_def_cfa_offset 0
 104 0030 67800000 		jr	ra
 105              		.cfi_endproc
 106              	.LFE49:
 108              		.globl	_ZN6ThreadD1Ev
 109              		.set	_ZN6ThreadD1Ev,_ZN6ThreadD2Ev
 110              		.align	2
 111              		.globl	_ZN6Thread7wrapperEPv
 113              	_ZN6Thread7wrapperEPv:
 114              	.LFB59:
  67:src/syscall_cpp.cpp **** 
  68:src/syscall_cpp.cpp **** int Thread::start() {
  69:src/syscall_cpp.cpp ****     if (myHandle == nullptr || myHandle->getStatus() != TCB::CREATED) return -1;
  70:src/syscall_cpp.cpp ****     __asm__ volatile("mv a1, %[handle]": :[handle] "r"(myHandle):"a5", "a0", "a1", "a2", "a3", "a4"
  71:src/syscall_cpp.cpp ****     __asm__ volatile("li a0, 0x81");
  72:src/syscall_cpp.cpp **** 
  73:src/syscall_cpp.cpp ****     __asm__ volatile("ecall");
  74:src/syscall_cpp.cpp **** 
  75:src/syscall_cpp.cpp ****     return 0;
  76:src/syscall_cpp.cpp **** }
  77:src/syscall_cpp.cpp **** 
  78:src/syscall_cpp.cpp **** void Thread::join() {
  79:src/syscall_cpp.cpp ****     thread_join(myHandle);
  80:src/syscall_cpp.cpp **** }
  81:src/syscall_cpp.cpp **** 
  82:src/syscall_cpp.cpp **** void Thread::dispatch() {
  83:src/syscall_cpp.cpp ****     thread_dispatch();
  84:src/syscall_cpp.cpp **** }
  85:src/syscall_cpp.cpp **** 
  86:src/syscall_cpp.cpp **** int Thread::sleep(time_t t) {
  87:src/syscall_cpp.cpp ****     time_sleep(t);
  88:src/syscall_cpp.cpp ****     return 0;
  89:src/syscall_cpp.cpp **** }
  90:src/syscall_cpp.cpp **** 
GAS LISTING /tmp/ccMmwR5a.s 			page 6


  91:src/syscall_cpp.cpp **** Thread::Thread() {
  92:src/syscall_cpp.cpp ****     this->body = wrapper;
  93:src/syscall_cpp.cpp ****     this->arg = this;
  94:src/syscall_cpp.cpp ****     uint64* stack = (uint64*)mem_alloc(DEFAULT_STACK_SIZE);
  95:src/syscall_cpp.cpp ****     //stavljanje argumenata za sistemski poziv
  96:src/syscall_cpp.cpp ****     __asm__ volatile("mv a4, %[sp]": :[sp] "r"(stack):"a5", "a0", "a1", "a2", "a3", "a4", "a6", "a7
  97:src/syscall_cpp.cpp ****     __asm__ volatile("mv a3, %[arg]": :[arg] "r"(arg):"a5", "a0", "a1", "a2", "a3", "a4", "a6", "a7
  98:src/syscall_cpp.cpp ****     __asm__ volatile("mv a2, %[function]": :[function] "r"(
  99:src/syscall_cpp.cpp ****             body):"a5", "a0", "a1", "a2", "a3", "a4", "a6", "a7");
 100:src/syscall_cpp.cpp ****     __asm__ volatile("mv a1, %[handle]": :[handle] "r"(&myHandle):"a5", "a0", "a1", "a2", "a3", "a4
 101:src/syscall_cpp.cpp ****     __asm__ volatile("li a0, 0x80");
 102:src/syscall_cpp.cpp ****     //a0 = 0x80
 103:src/syscall_cpp.cpp ****     //a1 = adresa pokazivaca na rucku niti
 104:src/syscall_cpp.cpp ****     //a2 = prva adresa funkcije koju nit izvrsava
 105:src/syscall_cpp.cpp ****     //a3 = pokazivac na argumente funkcije
 106:src/syscall_cpp.cpp ****     //a4 = pokazivac na najnizu adresu steka (stek raste ka nizim adresama, pokazuje na poslednju z
 107:src/syscall_cpp.cpp **** 
 108:src/syscall_cpp.cpp ****     __asm__ volatile("ecall");
 109:src/syscall_cpp.cpp **** }
 110:src/syscall_cpp.cpp **** 
 111:src/syscall_cpp.cpp **** void Thread::wrapper(void* thread) {
 115              		.loc 2 111 36 is_stmt 1
 116              		.cfi_startproc
 117              	.LVL4:
 112:src/syscall_cpp.cpp ****     if (thread != nullptr) {
 118              		.loc 2 112 5
 119 0034 63080502 		beqz	a0,.L10
 111:src/syscall_cpp.cpp ****     if (thread != nullptr) {
 120              		.loc 2 111 36 is_stmt 0
 121 0038 130101FF 		addi	sp,sp,-16
 122              		.cfi_def_cfa_offset 16
 123 003c 23341100 		sd	ra,8(sp)
 124 0040 23308100 		sd	s0,0(sp)
 125              		.cfi_offset 1, -8
 126              		.cfi_offset 8, -16
 127 0044 13040101 		addi	s0,sp,16
 128              		.cfi_def_cfa 8, 0
 113:src/syscall_cpp.cpp ****         ((Thread*)thread)->run();
 129              		.loc 2 113 9 is_stmt 1
 130              		.loc 2 113 32 is_stmt 0
 131 0048 83370500 		ld	a5,0(a0)
 132 004c 83B70701 		ld	a5,16(a5)
 133              		.loc 2 113 31
 134 0050 E7800700 		jalr	a5
 135              	.LVL5:
 114:src/syscall_cpp.cpp ****     }
 115:src/syscall_cpp.cpp **** }
 136              		.loc 2 115 1
 137 0054 83308100 		ld	ra,8(sp)
 138              		.cfi_restore 1
 139 0058 03340100 		ld	s0,0(sp)
 140              		.cfi_restore 8
 141              		.cfi_def_cfa 2, 16
 142 005c 13010101 		addi	sp,sp,16
 143              		.cfi_def_cfa_offset 0
 144 0060 67800000 		jr	ra
 145              	.LVL6:
GAS LISTING /tmp/ccMmwR5a.s 			page 7


 146              	.L10:
 147 0064 67800000 		ret
 148              		.cfi_endproc
 149              	.LFE59:
 151              		.section	.text._ZN14PeriodicThreadD2Ev,"axG",@progbits,_ZN14PeriodicThreadD5Ev,comdat
 152              		.align	2
 153              		.weak	_ZN14PeriodicThreadD2Ev
 155              	_ZN14PeriodicThreadD2Ev:
 156              	.LFB80:
  80:src/../h/syscall_cpp.hpp **** public:
 157              		.loc 1 80 7 is_stmt 1
 158              		.cfi_startproc
 159              	.LVL7:
 160 0000 130101FF 		addi	sp,sp,-16
 161              		.cfi_def_cfa_offset 16
 162 0004 23341100 		sd	ra,8(sp)
 163 0008 23308100 		sd	s0,0(sp)
 164              		.cfi_offset 1, -8
 165              		.cfi_offset 8, -16
 166 000c 13040101 		addi	s0,sp,16
 167              		.cfi_def_cfa 8, 0
 168              	.LBB36:
  80:src/../h/syscall_cpp.hpp **** public:
 169              		.loc 1 80 7 is_stmt 0
 170 0010 97070000 		lla	a5,_ZTV14PeriodicThread+16
 170      93870700 
 171 0018 2330F500 		sd	a5,0(a0)
 172 001c 97000000 		call	_ZN6ThreadD2Ev
 172      E7800000 
 173              	.LVL8:
 174              	.LBE36:
 175 0024 83308100 		ld	ra,8(sp)
 176              		.cfi_restore 1
 177 0028 03340100 		ld	s0,0(sp)
 178              		.cfi_restore 8
 179              		.cfi_def_cfa 2, 16
 180 002c 13010101 		addi	sp,sp,16
 181              		.cfi_def_cfa_offset 0
 182 0030 67800000 		jr	ra
 183              		.cfi_endproc
 184              	.LFE80:
 186              		.weak	_ZN14PeriodicThreadD1Ev
 187              		.set	_ZN14PeriodicThreadD1Ev,_ZN14PeriodicThreadD2Ev
 188              		.text
 189              		.align	2
 190              		.globl	_ZN9SemaphoreD2Ev
 192              	_ZN9SemaphoreD2Ev:
 193              	.LFB67:
 116:src/syscall_cpp.cpp **** 
 117:src/syscall_cpp.cpp **** Semaphore::Semaphore(unsigned int init) {
 118:src/syscall_cpp.cpp ****     sem_open(&myHandle, init);
 119:src/syscall_cpp.cpp **** }
 120:src/syscall_cpp.cpp **** 
 121:src/syscall_cpp.cpp **** Semaphore::~Semaphore() {
 194              		.loc 2 121 1 is_stmt 1
 195              		.cfi_startproc
 196              		.cfi_personality 0x9b,DW.ref.__gxx_personality_v0
GAS LISTING /tmp/ccMmwR5a.s 			page 8


 197              		.cfi_lsda 0x1b,.LLSDA67
 198              	.LVL9:
 199 0068 130101FE 		addi	sp,sp,-32
 200              		.cfi_def_cfa_offset 32
 201 006c 233C1100 		sd	ra,24(sp)
 202 0070 23388100 		sd	s0,16(sp)
 203 0074 23349100 		sd	s1,8(sp)
 204              		.cfi_offset 1, -8
 205              		.cfi_offset 8, -16
 206              		.cfi_offset 9, -24
 207 0078 13040102 		addi	s0,sp,32
 208              		.cfi_def_cfa 8, 0
 209 007c 93040500 		mv	s1,a0
 210              	.LBB37:
 211              		.loc 2 121 23 is_stmt 0
 212 0080 97070000 		lla	a5,_ZTV9Semaphore+16
 212      93870700 
 213 0088 2330F500 		sd	a5,0(a0)
 122:src/syscall_cpp.cpp ****     sem_close(myHandle);
 214              		.loc 2 122 5 is_stmt 1
 215              		.loc 2 122 14 is_stmt 0
 216 008c 03358500 		ld	a0,8(a0)
 217              	.LVL10:
 218 0090 97000000 		call	_Z9sem_closeP4KSem@plt
 218      E7800000 
 219              	.LVL11:
 123:src/syscall_cpp.cpp ****     delete myHandle;
 220              		.loc 2 123 5 is_stmt 1
 221              		.loc 2 123 12 is_stmt 0
 222 0098 83B48400 		ld	s1,8(s1)
 223              	.LVL12:
 224              		.loc 2 123 20
 225 009c 63880402 		beqz	s1,.L15
 226              	.L18:
 227              	.LBB38:
 228              	.LBB39:
 229              	.LBB40:
 230              		.file 3 "src/../h/../h/ThreadQueue.hpp"
   1:src/../h/../h/ThreadQueue.hpp **** //
   2:src/../h/../h/ThreadQueue.hpp **** // Created by os on 6/4/23.
   3:src/../h/../h/ThreadQueue.hpp **** //
   4:src/../h/../h/ThreadQueue.hpp **** 
   5:src/../h/../h/ThreadQueue.hpp **** #ifndef PROJEKAT2023_THREADQUEUE_HPP
   6:src/../h/../h/ThreadQueue.hpp **** #define PROJEKAT2023_THREADQUEUE_HPP
   7:src/../h/../h/ThreadQueue.hpp **** 
   8:src/../h/../h/ThreadQueue.hpp **** #include "../h/syscall_c.hpp"
   9:src/../h/../h/ThreadQueue.hpp **** 
  10:src/../h/../h/ThreadQueue.hpp **** class TCB;
  11:src/../h/../h/ThreadQueue.hpp **** 
  12:src/../h/../h/ThreadQueue.hpp **** class ThreadQueue {
  13:src/../h/../h/ThreadQueue.hpp **** private:
  14:src/../h/../h/ThreadQueue.hpp ****     struct Node {
  15:src/../h/../h/ThreadQueue.hpp ****         TCB* data;
  16:src/../h/../h/ThreadQueue.hpp ****         Node* next;
  17:src/../h/../h/ThreadQueue.hpp **** 
  18:src/../h/../h/ThreadQueue.hpp ****         Node(TCB* d) : data(d), next(nullptr) {}
  19:src/../h/../h/ThreadQueue.hpp **** 
GAS LISTING /tmp/ccMmwR5a.s 			page 9


  20:src/../h/../h/ThreadQueue.hpp ****         static void* operator new(size_t size) {
  21:src/../h/../h/ThreadQueue.hpp ****             return mem_alloc(size);
  22:src/../h/../h/ThreadQueue.hpp ****         }
  23:src/../h/../h/ThreadQueue.hpp **** 
  24:src/../h/../h/ThreadQueue.hpp ****         static void operator delete(void* ptr) {
  25:src/../h/../h/ThreadQueue.hpp ****             mem_free(ptr);
  26:src/../h/../h/ThreadQueue.hpp ****         }
  27:src/../h/../h/ThreadQueue.hpp ****     };
  28:src/../h/../h/ThreadQueue.hpp **** 
  29:src/../h/../h/ThreadQueue.hpp ****     Node* front;
  30:src/../h/../h/ThreadQueue.hpp ****     Node* back;
  31:src/../h/../h/ThreadQueue.hpp **** 
  32:src/../h/../h/ThreadQueue.hpp **** public:
  33:src/../h/../h/ThreadQueue.hpp ****     ThreadQueue() : front(nullptr), back(nullptr) {}
  34:src/../h/../h/ThreadQueue.hpp **** 
  35:src/../h/../h/ThreadQueue.hpp ****     ThreadQueue(const ThreadQueue &) = delete;
  36:src/../h/../h/ThreadQueue.hpp **** 
  37:src/../h/../h/ThreadQueue.hpp ****     ThreadQueue &operator=(const ThreadQueue &) = delete;
  38:src/../h/../h/ThreadQueue.hpp **** 
  39:src/../h/../h/ThreadQueue.hpp ****     ~ThreadQueue() {
  40:src/../h/../h/ThreadQueue.hpp ****         while (!isEmpty()) {
 231              		.loc 3 40 9 is_stmt 1
 232              		.loc 3 40 16
 233              	.LVL13:
 234              	.LBB41:
 235              	.LBB42:
  41:src/../h/../h/ThreadQueue.hpp ****             Node* node = front;
  42:src/../h/../h/ThreadQueue.hpp ****             front = front->next;
  43:src/../h/../h/ThreadQueue.hpp ****             delete node;
  44:src/../h/../h/ThreadQueue.hpp ****         }
  45:src/../h/../h/ThreadQueue.hpp ****     }
  46:src/../h/../h/ThreadQueue.hpp **** 
  47:src/../h/../h/ThreadQueue.hpp ****     bool isEmpty() const {
  48:src/../h/../h/ThreadQueue.hpp ****         return front == nullptr;
 236              		.loc 3 48 9
 237              		.loc 3 48 16 is_stmt 0
 238 00a0 03B58400 		ld	a0,8(s1)
 239              	.LBE42:
 240              	.LBE41:
  40:src/../h/../h/ThreadQueue.hpp ****             Node* node = front;
 241              		.loc 3 40 16
 242 00a4 630E0500 		beqz	a0,.L17
 243              	.LBB43:
  41:src/../h/../h/ThreadQueue.hpp ****             Node* node = front;
 244              		.loc 3 41 13 is_stmt 1
 245              	.LVL14:
  42:src/../h/../h/ThreadQueue.hpp ****             delete node;
 246              		.loc 3 42 13
  42:src/../h/../h/ThreadQueue.hpp ****             delete node;
 247              		.loc 3 42 28 is_stmt 0
 248 00a8 83378500 		ld	a5,8(a0)
  42:src/../h/../h/ThreadQueue.hpp ****             delete node;
 249              		.loc 3 42 19
 250 00ac 23B4F400 		sd	a5,8(s1)
  43:src/../h/../h/ThreadQueue.hpp ****         }
 251              		.loc 3 43 13 is_stmt 1
  43:src/../h/../h/ThreadQueue.hpp ****         }
GAS LISTING /tmp/ccMmwR5a.s 			page 10


 252              		.loc 3 43 24 is_stmt 0
 253 00b0 E30805FE 		beqz	a0,.L18
 254              	.LVL15:
 255              	.LBB44:
 256              	.LBB45:
  25:src/../h/../h/ThreadQueue.hpp ****         }
 257              		.loc 3 25 13 is_stmt 1
  25:src/../h/../h/ThreadQueue.hpp ****         }
 258              		.loc 3 25 21 is_stmt 0
 259 00b4 97000000 		call	_Z8mem_freePv@plt
 259      E7800000 
 260              	.LVL16:
  26:src/../h/../h/ThreadQueue.hpp ****     };
 261              		.loc 3 26 9
 262 00bc 6FF05FFE 		j	.L18
 263              	.L17:
 264              	.LBE45:
 265              	.LBE44:
 266              	.LBE43:
 267              	.LBE40:
 268              	.LBE39:
 269              	.LBE38:
 270              		.loc 2 123 12
 271 00c0 13850400 		mv	a0,s1
 272 00c4 97000000 		call	_ZN4KSemdlEPv@plt
 272      E7800000 
 273              	.LVL17:
 274              	.L15:
 275              	.LBE37:
 124:src/syscall_cpp.cpp **** }
 276              		.loc 2 124 1
 277 00cc 83308101 		ld	ra,24(sp)
 278              		.cfi_restore 1
 279 00d0 03340101 		ld	s0,16(sp)
 280              		.cfi_restore 8
 281              		.cfi_def_cfa 2, 32
 282 00d4 83348100 		ld	s1,8(sp)
 283              		.cfi_restore 9
 284 00d8 13010102 		addi	sp,sp,32
 285              		.cfi_def_cfa_offset 0
 286 00dc 67800000 		jr	ra
 287              		.cfi_endproc
 288              	.LFE67:
 289              		.globl	__gxx_personality_v0
 290              		.section	.gcc_except_table,"a",@progbits
 291              	.LLSDA67:
 292 0000 FF       		.byte	0xff
 293 0001 FF       		.byte	0xff
 294 0002 03       		.byte	0x3
 295 0003 00       		.byte	0
 296              		.text
 298              		.globl	_ZN9SemaphoreD1Ev
 299              		.set	_ZN9SemaphoreD1Ev,_ZN9SemaphoreD2Ev
 300              		.align	2
 301              		.globl	_Znwm
 303              	_Znwm:
 304              	.LFB41:
GAS LISTING /tmp/ccMmwR5a.s 			page 11


  13:src/syscall_cpp.cpp ****     return mem_alloc(size);
 305              		.loc 2 13 33 is_stmt 1
 306              		.cfi_startproc
 307              	.LVL18:
 308 00e0 130101FF 		addi	sp,sp,-16
 309              		.cfi_def_cfa_offset 16
 310 00e4 23341100 		sd	ra,8(sp)
 311 00e8 23308100 		sd	s0,0(sp)
 312              		.cfi_offset 1, -8
 313              		.cfi_offset 8, -16
 314 00ec 13040101 		addi	s0,sp,16
 315              		.cfi_def_cfa 8, 0
  14:src/syscall_cpp.cpp **** }
 316              		.loc 2 14 5
  14:src/syscall_cpp.cpp **** }
 317              		.loc 2 14 21 is_stmt 0
 318 00f0 97000000 		call	_Z9mem_allocm@plt
 318      E7800000 
 319              	.LVL19:
  15:src/syscall_cpp.cpp **** 
 320              		.loc 2 15 1
 321 00f8 83308100 		ld	ra,8(sp)
 322              		.cfi_restore 1
 323 00fc 03340100 		ld	s0,0(sp)
 324              		.cfi_restore 8
 325              		.cfi_def_cfa 2, 16
 326 0100 13010101 		addi	sp,sp,16
 327              		.cfi_def_cfa_offset 0
 328 0104 67800000 		jr	ra
 329              		.cfi_endproc
 330              	.LFE41:
 332              		.align	2
 333              		.globl	_Znam
 335              	_Znam:
 336              	.LFB42:
  17:src/syscall_cpp.cpp ****     return mem_alloc(size);
 337              		.loc 2 17 35 is_stmt 1
 338              		.cfi_startproc
 339              	.LVL20:
 340 0108 130101FF 		addi	sp,sp,-16
 341              		.cfi_def_cfa_offset 16
 342 010c 23341100 		sd	ra,8(sp)
 343 0110 23308100 		sd	s0,0(sp)
 344              		.cfi_offset 1, -8
 345              		.cfi_offset 8, -16
 346 0114 13040101 		addi	s0,sp,16
 347              		.cfi_def_cfa 8, 0
  18:src/syscall_cpp.cpp **** }
 348              		.loc 2 18 5
  18:src/syscall_cpp.cpp **** }
 349              		.loc 2 18 21 is_stmt 0
 350 0118 97000000 		call	_Z9mem_allocm@plt
 350      E7800000 
 351              	.LVL21:
  19:src/syscall_cpp.cpp **** 
 352              		.loc 2 19 1
 353 0120 83308100 		ld	ra,8(sp)
GAS LISTING /tmp/ccMmwR5a.s 			page 12


 354              		.cfi_restore 1
 355 0124 03340100 		ld	s0,0(sp)
 356              		.cfi_restore 8
 357              		.cfi_def_cfa 2, 16
 358 0128 13010101 		addi	sp,sp,16
 359              		.cfi_def_cfa_offset 0
 360 012c 67800000 		jr	ra
 361              		.cfi_endproc
 362              	.LFE42:
 364              		.align	2
 365              		.globl	_ZdlPv
 367              	_ZdlPv:
 368              	.LFB43:
  23:src/syscall_cpp.cpp **** mem_free(ptr);
 369              		.loc 2 23 10 is_stmt 1
 370              		.cfi_startproc
 371              		.cfi_personality 0x9b,DW.ref.__gxx_personality_v0
 372              		.cfi_lsda 0x1b,.LLSDA43
 373              	.LVL22:
 374 0130 130101FF 		addi	sp,sp,-16
 375              		.cfi_def_cfa_offset 16
 376 0134 23341100 		sd	ra,8(sp)
 377 0138 23308100 		sd	s0,0(sp)
 378              		.cfi_offset 1, -8
 379              		.cfi_offset 8, -16
 380 013c 13040101 		addi	s0,sp,16
 381              		.cfi_def_cfa 8, 0
  24:src/syscall_cpp.cpp **** }
 382              		.loc 2 24 1
  24:src/syscall_cpp.cpp **** }
 383              		.loc 2 24 9 is_stmt 0
 384 0140 97000000 		call	_Z8mem_freePv@plt
 384      E7800000 
 385              	.LVL23:
  25:src/syscall_cpp.cpp **** 
 386              		.loc 2 25 1
 387 0148 83308100 		ld	ra,8(sp)
 388              		.cfi_restore 1
 389 014c 03340100 		ld	s0,0(sp)
 390              		.cfi_restore 8
 391              		.cfi_def_cfa 2, 16
 392 0150 13010101 		addi	sp,sp,16
 393              		.cfi_def_cfa_offset 0
 394 0154 67800000 		jr	ra
 395              		.cfi_endproc
 396              	.LFE43:
 397              		.section	.gcc_except_table
 398              	.LLSDA43:
 399 0004 FF       		.byte	0xff
 400 0005 FF       		.byte	0xff
 401 0006 03       		.byte	0x3
 402 0007 00       		.byte	0
 403              		.text
 405              		.align	2
 406              		.globl	_ZN6ThreadD0Ev
 408              	_ZN6ThreadD0Ev:
 409              	.LFB51:
GAS LISTING /tmp/ccMmwR5a.s 			page 13


  57:src/syscall_cpp.cpp ****     //ne treba da se gasi running nit, vec nit na koju pokazuje rucka od this
 410              		.loc 2 57 1 is_stmt 1
 411              		.cfi_startproc
 412              	.LVL24:
 413 0158 130101FE 		addi	sp,sp,-32
 414              		.cfi_def_cfa_offset 32
 415 015c 233C1100 		sd	ra,24(sp)
 416 0160 23388100 		sd	s0,16(sp)
 417 0164 23349100 		sd	s1,8(sp)
 418              		.cfi_offset 1, -8
 419              		.cfi_offset 8, -16
 420              		.cfi_offset 9, -24
 421 0168 13040102 		addi	s0,sp,32
 422              		.cfi_def_cfa 8, 0
 423 016c 93040500 		mv	s1,a0
  66:src/syscall_cpp.cpp **** 
 424              		.loc 2 66 1 is_stmt 0
 425 0170 97000000 		call	_ZN6ThreadD1Ev
 425      E7800000 
 426              	.LVL25:
 427 0178 13850400 		mv	a0,s1
 428 017c 97000000 		call	_ZdlPv
 428      E7800000 
 429              	.LVL26:
 430 0184 83308101 		ld	ra,24(sp)
 431              		.cfi_restore 1
 432 0188 03340101 		ld	s0,16(sp)
 433              		.cfi_restore 8
 434              		.cfi_def_cfa 2, 32
 435 018c 83348100 		ld	s1,8(sp)
 436              		.cfi_restore 9
 437              	.LVL27:
 438 0190 13010102 		addi	sp,sp,32
 439              		.cfi_def_cfa_offset 0
 440 0194 67800000 		jr	ra
 441              		.cfi_endproc
 442              	.LFE51:
 444              		.section	.text._ZN14PeriodicThreadD0Ev,"axG",@progbits,_ZN14PeriodicThreadD5Ev,comdat
 445              		.align	2
 446              		.weak	_ZN14PeriodicThreadD0Ev
 448              	_ZN14PeriodicThreadD0Ev:
 449              	.LFB82:
  80:src/../h/syscall_cpp.hpp **** public:
 450              		.loc 1 80 7 is_stmt 1
 451              		.cfi_startproc
 452              	.LVL28:
 453 0000 130101FE 		addi	sp,sp,-32
 454              		.cfi_def_cfa_offset 32
 455 0004 233C1100 		sd	ra,24(sp)
 456 0008 23388100 		sd	s0,16(sp)
 457 000c 23349100 		sd	s1,8(sp)
 458              		.cfi_offset 1, -8
 459              		.cfi_offset 8, -16
 460              		.cfi_offset 9, -24
 461 0010 13040102 		addi	s0,sp,32
 462              		.cfi_def_cfa 8, 0
 463 0014 93040500 		mv	s1,a0
GAS LISTING /tmp/ccMmwR5a.s 			page 14


 464              	.LVL29:
 465              	.LBB46:
 466              	.LBB47:
  80:src/../h/syscall_cpp.hpp **** public:
 467              		.loc 1 80 7 is_stmt 0
 468 0018 97070000 		lla	a5,_ZTV14PeriodicThread+16
 468      93870700 
 469 0020 2330F500 		sd	a5,0(a0)
 470 0024 97000000 		call	_ZN6ThreadD2Ev
 470      E7800000 
 471              	.LVL30:
 472              	.LBE47:
 473              	.LBE46:
 474 002c 13850400 		mv	a0,s1
 475 0030 97000000 		call	_ZdlPv
 475      E7800000 
 476              	.LVL31:
 477 0038 83308101 		ld	ra,24(sp)
 478              		.cfi_restore 1
 479 003c 03340101 		ld	s0,16(sp)
 480              		.cfi_restore 8
 481              		.cfi_def_cfa 2, 32
 482 0040 83348100 		ld	s1,8(sp)
 483              		.cfi_restore 9
 484              	.LVL32:
 485 0044 13010102 		addi	sp,sp,32
 486              		.cfi_def_cfa_offset 0
 487 0048 67800000 		jr	ra
 488              		.cfi_endproc
 489              	.LFE82:
 491              		.text
 492              		.align	2
 493              		.globl	_ZN9SemaphoreD0Ev
 495              	_ZN9SemaphoreD0Ev:
 496              	.LFB69:
 121:src/syscall_cpp.cpp ****     sem_close(myHandle);
 497              		.loc 2 121 1 is_stmt 1
 498              		.cfi_startproc
 499              	.LVL33:
 500 0198 130101FE 		addi	sp,sp,-32
 501              		.cfi_def_cfa_offset 32
 502 019c 233C1100 		sd	ra,24(sp)
 503 01a0 23388100 		sd	s0,16(sp)
 504 01a4 23349100 		sd	s1,8(sp)
 505              		.cfi_offset 1, -8
 506              		.cfi_offset 8, -16
 507              		.cfi_offset 9, -24
 508 01a8 13040102 		addi	s0,sp,32
 509              		.cfi_def_cfa 8, 0
 510 01ac 93040500 		mv	s1,a0
 511              		.loc 2 124 1 is_stmt 0
 512 01b0 97000000 		call	_ZN9SemaphoreD1Ev
 512      E7800000 
 513              	.LVL34:
 514 01b8 13850400 		mv	a0,s1
 515 01bc 97000000 		call	_ZdlPv
 515      E7800000 
GAS LISTING /tmp/ccMmwR5a.s 			page 15


 516              	.LVL35:
 517 01c4 83308101 		ld	ra,24(sp)
 518              		.cfi_restore 1
 519 01c8 03340101 		ld	s0,16(sp)
 520              		.cfi_restore 8
 521              		.cfi_def_cfa 2, 32
 522 01cc 83348100 		ld	s1,8(sp)
 523              		.cfi_restore 9
 524              	.LVL36:
 525 01d0 13010102 		addi	sp,sp,32
 526              		.cfi_def_cfa_offset 0
 527 01d4 67800000 		jr	ra
 528              		.cfi_endproc
 529              	.LFE69:
 531              		.align	2
 532              		.globl	_ZdaPv
 534              	_ZdaPv:
 535              	.LFB44:
  29:src/syscall_cpp.cpp **** mem_free(ptr);
 536              		.loc 2 29 10 is_stmt 1
 537              		.cfi_startproc
 538              		.cfi_personality 0x9b,DW.ref.__gxx_personality_v0
 539              		.cfi_lsda 0x1b,.LLSDA44
 540              	.LVL37:
 541 01d8 130101FF 		addi	sp,sp,-16
 542              		.cfi_def_cfa_offset 16
 543 01dc 23341100 		sd	ra,8(sp)
 544 01e0 23308100 		sd	s0,0(sp)
 545              		.cfi_offset 1, -8
 546              		.cfi_offset 8, -16
 547 01e4 13040101 		addi	s0,sp,16
 548              		.cfi_def_cfa 8, 0
  30:src/syscall_cpp.cpp **** }
 549              		.loc 2 30 1
  30:src/syscall_cpp.cpp **** }
 550              		.loc 2 30 9 is_stmt 0
 551 01e8 97000000 		call	_Z8mem_freePv@plt
 551      E7800000 
 552              	.LVL38:
  31:src/syscall_cpp.cpp **** 
 553              		.loc 2 31 1
 554 01f0 83308100 		ld	ra,8(sp)
 555              		.cfi_restore 1
 556 01f4 03340100 		ld	s0,0(sp)
 557              		.cfi_restore 8
 558              		.cfi_def_cfa 2, 16
 559 01f8 13010101 		addi	sp,sp,16
 560              		.cfi_def_cfa_offset 0
 561 01fc 67800000 		jr	ra
 562              		.cfi_endproc
 563              	.LFE44:
 564              		.section	.gcc_except_table
 565              	.LLSDA44:
 566 0008 FF       		.byte	0xff
 567 0009 FF       		.byte	0xff
 568 000a 03       		.byte	0x3
 569 000b 00       		.byte	0
GAS LISTING /tmp/ccMmwR5a.s 			page 16


 570              		.text
 572              		.align	2
 573              		.globl	_ZN6ThreadC2EPFvPvES0_
 575              	_ZN6ThreadC2EPFvPvES0_:
 576              	.LFB46:
  33:src/syscall_cpp.cpp ****     this->body = body;
 577              		.loc 2 33 1 is_stmt 1
 578              		.cfi_startproc
 579              	.LVL39:
 580 0200 130101FD 		addi	sp,sp,-48
 581              		.cfi_def_cfa_offset 48
 582 0204 23341102 		sd	ra,40(sp)
 583 0208 23308102 		sd	s0,32(sp)
 584 020c 233C9100 		sd	s1,24(sp)
 585 0210 23382101 		sd	s2,16(sp)
 586 0214 23343101 		sd	s3,8(sp)
 587              		.cfi_offset 1, -8
 588              		.cfi_offset 8, -16
 589              		.cfi_offset 9, -24
 590              		.cfi_offset 18, -32
 591              		.cfi_offset 19, -40
 592 0218 13040103 		addi	s0,sp,48
 593              		.cfi_def_cfa 8, 0
 594 021c 93040500 		mv	s1,a0
 595 0220 13890500 		mv	s2,a1
 596 0224 93090600 		mv	s3,a2
 597              	.LBB48:
  33:src/syscall_cpp.cpp ****     this->body = body;
 598              		.loc 2 33 47 is_stmt 0
 599 0228 97070000 		lla	a5,_ZTV6Thread+16
 599      93870700 
 600 0230 2330F500 		sd	a5,0(a0)
 601              	.LBB49:
  34:src/syscall_cpp.cpp ****     this->arg = arg;
 602              		.loc 2 34 5 is_stmt 1
  34:src/syscall_cpp.cpp ****     this->arg = arg;
 603              		.loc 2 34 16 is_stmt 0
 604 0234 2338B500 		sd	a1,16(a0)
  35:src/syscall_cpp.cpp ****     //stvaranje steka ako se ne radi o main kernel niti, posto ona automatski ima stek
 605              		.loc 2 35 5 is_stmt 1
  35:src/syscall_cpp.cpp ****     //stvaranje steka ako se ne radi o main kernel niti, posto ona automatski ima stek
 606              		.loc 2 35 15 is_stmt 0
 607 0238 233CC500 		sd	a2,24(a0)
  37:src/syscall_cpp.cpp ****     if (body != (TCB::Body)main) {
 608              		.loc 2 37 5 is_stmt 1
 609              	.LVL40:
  38:src/syscall_cpp.cpp ****         stack = (uint64*)mem_alloc(DEFAULT_STACK_SIZE);
 610              		.loc 2 38 5
 611 023c 97070000 		la	a5,main
 611      83B70700 
 612 0244 6386F504 		beq	a1,a5,.L37
  39:src/syscall_cpp.cpp ****     }
 613              		.loc 2 39 9
  39:src/syscall_cpp.cpp ****     }
 614              		.loc 2 39 35 is_stmt 0
 615 0248 37150000 		li	a0,4096
 616              	.LVL41:
GAS LISTING /tmp/ccMmwR5a.s 			page 17


 617 024c 97000000 		call	_Z9mem_allocm@plt
 617      E7800000 
 618              	.LVL42:
 619 0254 13030500 		mv	t1,a0
 620              	.LVL43:
 621              	.L36:
  42:src/syscall_cpp.cpp ****     __asm__ volatile("mv a3, %[arg]": :[arg] "r"(arg):"a5", "a0", "a1", "a2", "a3", "a4", "a6", "a7
 622              		.loc 2 42 5 is_stmt 1
  42:src/syscall_cpp.cpp ****     __asm__ volatile("mv a3, %[arg]": :[arg] "r"(arg):"a5", "a0", "a1", "a2", "a3", "a4", "a6", "a7
 623              		.loc 2 42 102 is_stmt 0
 624              	#APP
 625              	# 42 "src/syscall_cpp.cpp" 1
  43:src/syscall_cpp.cpp ****     __asm__ volatile("mv a2, %[function]": :[function] "r"(
 626              		mv a4, t1
 627              	# 0 "" 2
 628              		.loc 2 43 5 is_stmt 1
  43:src/syscall_cpp.cpp ****     __asm__ volatile("mv a2, %[function]": :[function] "r"(
 629              		.loc 2 43 102 is_stmt 0
 630              	# 43 "src/syscall_cpp.cpp" 1
  44:src/syscall_cpp.cpp ****             body):"a5", "a0", "a1", "a2", "a3", "a4", "a6", "a7");
 631              		mv a3, s3
 632              	# 0 "" 2
 633              		.loc 2 44 5 is_stmt 1
  45:src/syscall_cpp.cpp ****     __asm__ volatile("mv a1, %[handle]": :[handle] "r"(&myHandle):"a5", "a0", "a1", "a2", "a3", "a4
 634              		.loc 2 45 66 is_stmt 0
 635              	# 45 "src/syscall_cpp.cpp" 1
  46:src/syscall_cpp.cpp ****     __asm__ volatile("li a0, 0x80");
 636              		mv a2, s2
 637              	# 0 "" 2
 638              		.loc 2 46 5 is_stmt 1
  46:src/syscall_cpp.cpp ****     __asm__ volatile("li a0, 0x80");
 639              		.loc 2 46 56 is_stmt 0
 640              	#NO_APP
 641 0264 93848400 		addi	s1,s1,8
 642              	.LVL44:
  46:src/syscall_cpp.cpp ****     __asm__ volatile("li a0, 0x80");
 643              		.loc 2 46 114
 644              	#APP
 645              	# 46 "src/syscall_cpp.cpp" 1
  47:src/syscall_cpp.cpp ****     //a0 = 0x80
 646              		mv a1, s1
 647              	# 0 "" 2
 648              		.loc 2 47 5 is_stmt 1
  47:src/syscall_cpp.cpp ****     //a0 = 0x80
 649              		.loc 2 47 36 is_stmt 0
 650              	# 47 "src/syscall_cpp.cpp" 1
  54:src/syscall_cpp.cpp **** }
 651              		li a0, 0x80
 652              	# 0 "" 2
 653              		.loc 2 54 5 is_stmt 1
  54:src/syscall_cpp.cpp **** }
 654              		.loc 2 54 30 is_stmt 0
 655              	# 54 "src/syscall_cpp.cpp" 1
 656              		ecall
 657              	# 0 "" 2
 658              	#NO_APP
 659              	.LBE49:
GAS LISTING /tmp/ccMmwR5a.s 			page 18


 660              	.LBE48:
  55:src/syscall_cpp.cpp **** 
 661              		.loc 2 55 1
 662 0274 83308102 		ld	ra,40(sp)
 663              		.cfi_remember_state
 664              		.cfi_restore 1
 665 0278 03340102 		ld	s0,32(sp)
 666              		.cfi_restore 8
 667              		.cfi_def_cfa 2, 48
 668 027c 83348101 		ld	s1,24(sp)
 669              		.cfi_restore 9
 670              	.LVL45:
 671 0280 03390101 		ld	s2,16(sp)
 672              		.cfi_restore 18
 673              	.LVL46:
 674 0284 83398100 		ld	s3,8(sp)
 675              		.cfi_restore 19
 676              	.LVL47:
 677 0288 13010103 		addi	sp,sp,48
 678              		.cfi_def_cfa_offset 0
 679 028c 67800000 		jr	ra
 680              	.LVL48:
 681              	.L37:
 682              		.cfi_restore_state
 683              	.LBB51:
 684              	.LBB50:
  37:src/syscall_cpp.cpp ****     if (body != (TCB::Body)main) {
 685              		.loc 2 37 13
 686 0290 13030000 		li	t1,0
 687 0294 6FF05FFC 		j	.L36
 688              	.LBE50:
 689              	.LBE51:
 690              		.cfi_endproc
 691              	.LFE46:
 693              		.globl	_ZN6ThreadC1EPFvPvES0_
 694              		.set	_ZN6ThreadC1EPFvPvES0_,_ZN6ThreadC2EPFvPvES0_
 695              		.align	2
 696              		.globl	_ZN6Thread5startEv
 698              	_ZN6Thread5startEv:
 699              	.LFB52:
  68:src/syscall_cpp.cpp ****     if (myHandle == nullptr || myHandle->getStatus() != TCB::CREATED) return -1;
 700              		.loc 2 68 21 is_stmt 1
 701              		.cfi_startproc
 702              	.LVL49:
 703 0298 130101FF 		addi	sp,sp,-16
 704              		.cfi_def_cfa_offset 16
 705 029c 23348100 		sd	s0,8(sp)
 706              		.cfi_offset 8, -8
 707 02a0 13040101 		addi	s0,sp,16
 708              		.cfi_def_cfa 8, 0
  69:src/syscall_cpp.cpp ****     __asm__ volatile("mv a1, %[handle]": :[handle] "r"(myHandle):"a5", "a0", "a1", "a2", "a3", "a4"
 709              		.loc 2 69 5
  69:src/syscall_cpp.cpp ****     __asm__ volatile("mv a1, %[handle]": :[handle] "r"(myHandle):"a5", "a0", "a1", "a2", "a3", "a4"
 710              		.loc 2 69 9 is_stmt 0
 711 02a4 03338500 		ld	t1,8(a0)
  69:src/syscall_cpp.cpp ****     __asm__ volatile("mv a1, %[handle]": :[handle] "r"(myHandle):"a5", "a0", "a1", "a2", "a3", "a4"
 712              		.loc 2 69 29
GAS LISTING /tmp/ccMmwR5a.s 			page 19


 713 02a8 63040302 		beqz	t1,.L41
 714              	.LVL50:
 715              	.LBB52:
 716              	.LBB53:
 717              		.file 4 "src/../h/TCB.hpp"
   1:src/../h/TCB.hpp **** //
   2:src/../h/TCB.hpp **** // Created by os on 5/23/23.
   3:src/../h/TCB.hpp **** //
   4:src/../h/TCB.hpp **** 
   5:src/../h/TCB.hpp **** #ifndef PROJEKAT2023_TCB_HPP
   6:src/../h/TCB.hpp **** #define PROJEKAT2023_TCB_HPP
   7:src/../h/TCB.hpp **** 
   8:src/../h/TCB.hpp **** #include "../lib/hw.h"
   9:src/../h/TCB.hpp **** #include "../h/ThreadQueue.hpp"
  10:src/../h/TCB.hpp **** 
  11:src/../h/TCB.hpp **** int main();
  12:src/../h/TCB.hpp **** 
  13:src/../h/TCB.hpp **** class TCB {
  14:src/../h/TCB.hpp **** public:
  15:src/../h/TCB.hpp ****     friend class Scheduler;
  16:src/../h/TCB.hpp **** 
  17:src/../h/TCB.hpp ****     using Body = void (*)(void*);
  18:src/../h/TCB.hpp **** 
  19:src/../h/TCB.hpp ****     enum ThreadStatus {
  20:src/../h/TCB.hpp ****         CREATED, ACTIVE, BLOCKED, JOINING, SLEEPING, FINISHED
  21:src/../h/TCB.hpp ****     };
  22:src/../h/TCB.hpp **** 
  23:src/../h/TCB.hpp ****     static TCB* createThread(Body function, void* args, uint64* stack);
  24:src/../h/TCB.hpp **** 
  25:src/../h/TCB.hpp ****     void setStatus(ThreadStatus stat) { this->status = stat; }
  26:src/../h/TCB.hpp **** 
  27:src/../h/TCB.hpp ****     ThreadStatus getStatus() { return this->status; }
 718              		.loc 4 27 32 is_stmt 1 discriminator 2
 719              		.loc 4 27 45 is_stmt 0 discriminator 2
 720 02ac 83278305 		lw	a5,88(t1)
 721              	.LVL51:
 722              	.LBE53:
 723              	.LBE52:
  69:src/syscall_cpp.cpp ****     __asm__ volatile("mv a1, %[handle]": :[handle] "r"(myHandle):"a5", "a0", "a1", "a2", "a3", "a4"
 724              		.loc 2 69 29 discriminator 2
 725 02b0 63940702 		bnez	a5,.L42
  70:src/syscall_cpp.cpp ****     __asm__ volatile("li a0, 0x81");
 726              		.loc 2 70 5 is_stmt 1
  70:src/syscall_cpp.cpp ****     __asm__ volatile("li a0, 0x81");
 727              		.loc 2 70 113 is_stmt 0
 728              	#APP
 729              	# 70 "src/syscall_cpp.cpp" 1
 730              		mv a1, t1
 731              	# 0 "" 2
 732              	.LVL52:
  71:src/syscall_cpp.cpp **** 
 733              		.loc 2 71 5 is_stmt 1
  71:src/syscall_cpp.cpp **** 
 734              		.loc 2 71 36 is_stmt 0
 735              	# 71 "src/syscall_cpp.cpp" 1
  73:src/syscall_cpp.cpp **** 
 736              		li a0, 0x81
GAS LISTING /tmp/ccMmwR5a.s 			page 20


 737              	# 0 "" 2
 738              		.loc 2 73 5 is_stmt 1
  73:src/syscall_cpp.cpp **** 
 739              		.loc 2 73 30 is_stmt 0
 740              	# 73 "src/syscall_cpp.cpp" 1
  75:src/syscall_cpp.cpp **** }
 741              		ecall
 742              	# 0 "" 2
 743              		.loc 2 75 5 is_stmt 1
  75:src/syscall_cpp.cpp **** }
 744              		.loc 2 75 12 is_stmt 0
 745              	#NO_APP
 746 02c0 13050000 		li	a0,0
 747              	.L40:
  76:src/syscall_cpp.cpp **** 
 748              		.loc 2 76 1
 749 02c4 03348100 		ld	s0,8(sp)
 750              		.cfi_remember_state
 751              		.cfi_restore 8
 752              		.cfi_def_cfa 2, 16
 753 02c8 13010101 		addi	sp,sp,16
 754              		.cfi_def_cfa_offset 0
 755 02cc 67800000 		jr	ra
 756              	.LVL53:
 757              	.L41:
 758              		.cfi_restore_state
  69:src/syscall_cpp.cpp ****     __asm__ volatile("mv a1, %[handle]": :[handle] "r"(myHandle):"a5", "a0", "a1", "a2", "a3", "a4"
 759              		.loc 2 69 79
 760 02d0 1305F0FF 		li	a0,-1
 761              	.LVL54:
 762 02d4 6FF01FFF 		j	.L40
 763              	.LVL55:
 764              	.L42:
 765 02d8 1305F0FF 		li	a0,-1
 766              	.LVL56:
 767 02dc 6FF09FFE 		j	.L40
 768              		.cfi_endproc
 769              	.LFE52:
 771              		.align	2
 772              		.globl	_ZN6Thread4joinEv
 774              	_ZN6Thread4joinEv:
 775              	.LFB53:
  78:src/syscall_cpp.cpp ****     thread_join(myHandle);
 776              		.loc 2 78 21 is_stmt 1
 777              		.cfi_startproc
 778              	.LVL57:
 779 02e0 130101FF 		addi	sp,sp,-16
 780              		.cfi_def_cfa_offset 16
 781 02e4 23341100 		sd	ra,8(sp)
 782 02e8 23308100 		sd	s0,0(sp)
 783              		.cfi_offset 1, -8
 784              		.cfi_offset 8, -16
 785 02ec 13040101 		addi	s0,sp,16
 786              		.cfi_def_cfa 8, 0
  79:src/syscall_cpp.cpp **** }
 787              		.loc 2 79 5
  79:src/syscall_cpp.cpp **** }
GAS LISTING /tmp/ccMmwR5a.s 			page 21


 788              		.loc 2 79 16 is_stmt 0
 789 02f0 03358500 		ld	a0,8(a0)
 790              	.LVL58:
 791 02f4 97000000 		call	_Z11thread_joinP3TCB@plt
 791      E7800000 
 792              	.LVL59:
  80:src/syscall_cpp.cpp **** 
 793              		.loc 2 80 1
 794 02fc 83308100 		ld	ra,8(sp)
 795              		.cfi_restore 1
 796 0300 03340100 		ld	s0,0(sp)
 797              		.cfi_restore 8
 798              		.cfi_def_cfa 2, 16
 799 0304 13010101 		addi	sp,sp,16
 800              		.cfi_def_cfa_offset 0
 801 0308 67800000 		jr	ra
 802              		.cfi_endproc
 803              	.LFE53:
 805              		.align	2
 806              		.globl	_ZN6Thread8dispatchEv
 808              	_ZN6Thread8dispatchEv:
 809              	.LFB54:
  82:src/syscall_cpp.cpp ****     thread_dispatch();
 810              		.loc 2 82 25 is_stmt 1
 811              		.cfi_startproc
 812 030c 130101FF 		addi	sp,sp,-16
 813              		.cfi_def_cfa_offset 16
 814 0310 23341100 		sd	ra,8(sp)
 815 0314 23308100 		sd	s0,0(sp)
 816              		.cfi_offset 1, -8
 817              		.cfi_offset 8, -16
 818 0318 13040101 		addi	s0,sp,16
 819              		.cfi_def_cfa 8, 0
  83:src/syscall_cpp.cpp **** }
 820              		.loc 2 83 5
  83:src/syscall_cpp.cpp **** }
 821              		.loc 2 83 20 is_stmt 0
 822 031c 97000000 		call	_Z15thread_dispatchv@plt
 822      E7800000 
 823              	.LVL60:
  84:src/syscall_cpp.cpp **** 
 824              		.loc 2 84 1
 825 0324 83308100 		ld	ra,8(sp)
 826              		.cfi_restore 1
 827 0328 03340100 		ld	s0,0(sp)
 828              		.cfi_restore 8
 829              		.cfi_def_cfa 2, 16
 830 032c 13010101 		addi	sp,sp,16
 831              		.cfi_def_cfa_offset 0
 832 0330 67800000 		jr	ra
 833              		.cfi_endproc
 834              	.LFE54:
 836              		.align	2
 837              		.globl	_ZN6Thread5sleepEm
 839              	_ZN6Thread5sleepEm:
 840              	.LFB55:
  86:src/syscall_cpp.cpp ****     time_sleep(t);
GAS LISTING /tmp/ccMmwR5a.s 			page 22


 841              		.loc 2 86 29 is_stmt 1
 842              		.cfi_startproc
 843              	.LVL61:
 844 0334 130101FF 		addi	sp,sp,-16
 845              		.cfi_def_cfa_offset 16
 846 0338 23341100 		sd	ra,8(sp)
 847 033c 23308100 		sd	s0,0(sp)
 848              		.cfi_offset 1, -8
 849              		.cfi_offset 8, -16
 850 0340 13040101 		addi	s0,sp,16
 851              		.cfi_def_cfa 8, 0
  87:src/syscall_cpp.cpp ****     return 0;
 852              		.loc 2 87 5
  87:src/syscall_cpp.cpp ****     return 0;
 853              		.loc 2 87 15 is_stmt 0
 854 0344 97000000 		call	_Z10time_sleepm@plt
 854      E7800000 
 855              	.LVL62:
  88:src/syscall_cpp.cpp **** }
 856              		.loc 2 88 5 is_stmt 1
  89:src/syscall_cpp.cpp **** 
 857              		.loc 2 89 1 is_stmt 0
 858 034c 13050000 		li	a0,0
 859 0350 83308100 		ld	ra,8(sp)
 860              		.cfi_restore 1
 861 0354 03340100 		ld	s0,0(sp)
 862              		.cfi_restore 8
 863              		.cfi_def_cfa 2, 16
 864 0358 13010101 		addi	sp,sp,16
 865              		.cfi_def_cfa_offset 0
 866 035c 67800000 		jr	ra
 867              		.cfi_endproc
 868              	.LFE55:
 870              		.align	2
 871              		.globl	_ZN14PeriodicThread3runEv
 873              	_ZN14PeriodicThread3runEv:
 874              	.LFB76:
 125:src/syscall_cpp.cpp **** 
 126:src/syscall_cpp.cpp **** int Semaphore::wait() {
 127:src/syscall_cpp.cpp ****     return sem_wait(myHandle);
 128:src/syscall_cpp.cpp **** }
 129:src/syscall_cpp.cpp **** 
 130:src/syscall_cpp.cpp **** int Semaphore::signal() {
 131:src/syscall_cpp.cpp ****     return sem_signal(myHandle);
 132:src/syscall_cpp.cpp **** }
 133:src/syscall_cpp.cpp **** 
 134:src/syscall_cpp.cpp **** void PeriodicThread::terminate() {
 135:src/syscall_cpp.cpp ****     this->period = -1;
 136:src/syscall_cpp.cpp **** }
 137:src/syscall_cpp.cpp **** 
 138:src/syscall_cpp.cpp **** PeriodicThread::PeriodicThread(time_t period) : Thread(), period(period) {
 139:src/syscall_cpp.cpp ****     if (this->period < 0) this->period = 2;
 140:src/syscall_cpp.cpp **** }
 141:src/syscall_cpp.cpp **** 
 142:src/syscall_cpp.cpp **** void PeriodicThread::run() {
 875              		.loc 2 142 28 is_stmt 1
 876              		.cfi_startproc
GAS LISTING /tmp/ccMmwR5a.s 			page 23


 877              	.LVL63:
 878 0360 130101FE 		addi	sp,sp,-32
 879              		.cfi_def_cfa_offset 32
 880 0364 233C1100 		sd	ra,24(sp)
 881 0368 23388100 		sd	s0,16(sp)
 882 036c 23349100 		sd	s1,8(sp)
 883              		.cfi_offset 1, -8
 884              		.cfi_offset 8, -16
 885              		.cfi_offset 9, -24
 886 0370 13040102 		addi	s0,sp,32
 887              		.cfi_def_cfa 8, 0
 888 0374 93040500 		mv	s1,a0
 889              	.LVL64:
 890              	.L52:
 143:src/syscall_cpp.cpp ****     while (period != -1UL) {
 891              		.loc 2 143 5
 892              		.loc 2 143 19
 893              		.loc 2 143 12 is_stmt 0
 894 0378 03B70402 		ld	a4,32(s1)
 895              		.loc 2 143 19
 896 037c 9307F0FF 		li	a5,-1
 897 0380 6306F702 		beq	a4,a5,.L51
 144:src/syscall_cpp.cpp ****         periodicActivation();
 898              		.loc 2 144 9 is_stmt 1
 899              		.loc 2 144 28 is_stmt 0
 900 0384 83B70400 		ld	a5,0(s1)
 901 0388 83B78701 		ld	a5,24(a5)
 902              		.loc 2 144 27
 903 038c 13850400 		mv	a0,s1
 904 0390 E7800700 		jalr	a5
 905              	.LVL65:
 145:src/syscall_cpp.cpp ****         if (period == -1UL) break;
 906              		.loc 2 145 9 is_stmt 1
 907              		.loc 2 145 13 is_stmt 0
 908 0394 03B50402 		ld	a0,32(s1)
 909              		.loc 2 145 9
 910 0398 9307F0FF 		li	a5,-1
 911 039c 6308F500 		beq	a0,a5,.L51
 146:src/syscall_cpp.cpp ****         sleep(period);
 912              		.loc 2 146 9 is_stmt 1
 913              		.loc 2 146 14 is_stmt 0
 914 03a0 97000000 		call	_ZN6Thread5sleepEm
 914      E7800000 
 915              	.LVL66:
 143:src/syscall_cpp.cpp ****         periodicActivation();
 916              		.loc 2 143 5
 917 03a8 6FF01FFD 		j	.L52
 918              	.L51:
 147:src/syscall_cpp.cpp ****     }
 148:src/syscall_cpp.cpp ****     thread_exit();
 919              		.loc 2 148 5 is_stmt 1
 920              		.loc 2 148 16 is_stmt 0
 921 03ac 97000000 		call	_Z11thread_exitv@plt
 921      E7800000 
 922              	.LVL67:
 149:src/syscall_cpp.cpp **** }
 923              		.loc 2 149 1
GAS LISTING /tmp/ccMmwR5a.s 			page 24


 924 03b4 83308101 		ld	ra,24(sp)
 925              		.cfi_restore 1
 926 03b8 03340101 		ld	s0,16(sp)
 927              		.cfi_restore 8
 928              		.cfi_def_cfa 2, 32
 929 03bc 83348100 		ld	s1,8(sp)
 930              		.cfi_restore 9
 931              	.LVL68:
 932 03c0 13010102 		addi	sp,sp,32
 933              		.cfi_def_cfa_offset 0
 934 03c4 67800000 		jr	ra
 935              		.cfi_endproc
 936              	.LFE76:
 938              		.align	2
 939              		.globl	_ZN6ThreadC2Ev
 941              	_ZN6ThreadC2Ev:
 942              	.LFB57:
  91:src/syscall_cpp.cpp ****     this->body = wrapper;
 943              		.loc 2 91 1 is_stmt 1
 944              		.cfi_startproc
 945              	.LVL69:
 946 03c8 130101FE 		addi	sp,sp,-32
 947              		.cfi_def_cfa_offset 32
 948 03cc 233C1100 		sd	ra,24(sp)
 949 03d0 23388100 		sd	s0,16(sp)
 950 03d4 23349100 		sd	s1,8(sp)
 951              		.cfi_offset 1, -8
 952              		.cfi_offset 8, -16
 953              		.cfi_offset 9, -24
 954 03d8 13040102 		addi	s0,sp,32
 955              		.cfi_def_cfa 8, 0
 956 03dc 93040500 		mv	s1,a0
 957              	.LBB54:
  91:src/syscall_cpp.cpp ****     this->body = wrapper;
 958              		.loc 2 91 16 is_stmt 0
 959 03e0 97070000 		lla	a5,_ZTV6Thread+16
 959      93870700 
 960 03e8 2330F500 		sd	a5,0(a0)
 961              	.LBB55:
  92:src/syscall_cpp.cpp ****     this->arg = this;
 962              		.loc 2 92 5 is_stmt 1
  92:src/syscall_cpp.cpp ****     this->arg = this;
 963              		.loc 2 92 16 is_stmt 0
 964 03ec 97070000 		lla	a5,_ZN6Thread7wrapperEPv
 964      93870700 
 965 03f4 2338F500 		sd	a5,16(a0)
  93:src/syscall_cpp.cpp ****     uint64* stack = (uint64*)mem_alloc(DEFAULT_STACK_SIZE);
 966              		.loc 2 93 5 is_stmt 1
  93:src/syscall_cpp.cpp ****     uint64* stack = (uint64*)mem_alloc(DEFAULT_STACK_SIZE);
 967              		.loc 2 93 15 is_stmt 0
 968 03f8 233CA500 		sd	a0,24(a0)
  94:src/syscall_cpp.cpp ****     //stavljanje argumenata za sistemski poziv
 969              		.loc 2 94 5 is_stmt 1
  94:src/syscall_cpp.cpp ****     //stavljanje argumenata za sistemski poziv
 970              		.loc 2 94 39 is_stmt 0
 971 03fc 37150000 		li	a0,4096
 972              	.LVL70:
GAS LISTING /tmp/ccMmwR5a.s 			page 25


 973 0400 97000000 		call	_Z9mem_allocm@plt
 973      E7800000 
 974              	.LVL71:
 975 0408 13030500 		mv	t1,a0
 976              	.LVL72:
  96:src/syscall_cpp.cpp ****     __asm__ volatile("mv a3, %[arg]": :[arg] "r"(arg):"a5", "a0", "a1", "a2", "a3", "a4", "a6", "a7
 977              		.loc 2 96 5 is_stmt 1
  96:src/syscall_cpp.cpp ****     __asm__ volatile("mv a3, %[arg]": :[arg] "r"(arg):"a5", "a0", "a1", "a2", "a3", "a4", "a6", "a7
 978              		.loc 2 96 102 is_stmt 0
 979              	#APP
 980              	# 96 "src/syscall_cpp.cpp" 1
  97:src/syscall_cpp.cpp ****     __asm__ volatile("mv a2, %[function]": :[function] "r"(
 981              		mv a4, t1
 982              	# 0 "" 2
 983              		.loc 2 97 5 is_stmt 1
  97:src/syscall_cpp.cpp ****     __asm__ volatile("mv a2, %[function]": :[function] "r"(
 984              		.loc 2 97 50 is_stmt 0
 985              	#NO_APP
 986 0410 03B38401 		ld	t1,24(s1)
 987              	.LVL73:
  97:src/syscall_cpp.cpp ****     __asm__ volatile("mv a2, %[function]": :[function] "r"(
 988              		.loc 2 97 102
 989              	#APP
 990              	# 97 "src/syscall_cpp.cpp" 1
  98:src/syscall_cpp.cpp ****             body):"a5", "a0", "a1", "a2", "a3", "a4", "a6", "a7");
 991              		mv a3, t1
 992              	# 0 "" 2
 993              		.loc 2 98 5 is_stmt 1
  99:src/syscall_cpp.cpp ****     __asm__ volatile("mv a1, %[handle]": :[handle] "r"(&myHandle):"a5", "a0", "a1", "a2", "a3", "a4
 994              		.loc 2 99 13 is_stmt 0
 995              	#NO_APP
 996 0418 03B30401 		ld	t1,16(s1)
  99:src/syscall_cpp.cpp ****     __asm__ volatile("mv a1, %[handle]": :[handle] "r"(&myHandle):"a5", "a0", "a1", "a2", "a3", "a4
 997              		.loc 2 99 66
 998              	#APP
 999              	# 99 "src/syscall_cpp.cpp" 1
 100:src/syscall_cpp.cpp ****     __asm__ volatile("li a0, 0x80");
 1000              		mv a2, t1
 1001              	# 0 "" 2
 1002              		.loc 2 100 5 is_stmt 1
 100:src/syscall_cpp.cpp ****     __asm__ volatile("li a0, 0x80");
 1003              		.loc 2 100 56 is_stmt 0
 1004              	#NO_APP
 1005 0420 93848400 		addi	s1,s1,8
 1006              	.LVL74:
 100:src/syscall_cpp.cpp ****     __asm__ volatile("li a0, 0x80");
 1007              		.loc 2 100 114
 1008              	#APP
 1009              	# 100 "src/syscall_cpp.cpp" 1
 101:src/syscall_cpp.cpp ****     //a0 = 0x80
 1010              		mv a1, s1
 1011              	# 0 "" 2
 1012              		.loc 2 101 5 is_stmt 1
 101:src/syscall_cpp.cpp ****     //a0 = 0x80
 1013              		.loc 2 101 36 is_stmt 0
 1014              	# 101 "src/syscall_cpp.cpp" 1
 108:src/syscall_cpp.cpp **** }
GAS LISTING /tmp/ccMmwR5a.s 			page 26


 1015              		li a0, 0x80
 1016              	# 0 "" 2
 1017              		.loc 2 108 5 is_stmt 1
 108:src/syscall_cpp.cpp **** }
 1018              		.loc 2 108 30 is_stmt 0
 1019              	# 108 "src/syscall_cpp.cpp" 1
 1020              		ecall
 1021              	# 0 "" 2
 1022              	#NO_APP
 1023              	.LBE55:
 1024              	.LBE54:
 109:src/syscall_cpp.cpp **** 
 1025              		.loc 2 109 1
 1026 0430 83308101 		ld	ra,24(sp)
 1027              		.cfi_restore 1
 1028 0434 03340101 		ld	s0,16(sp)
 1029              		.cfi_restore 8
 1030              		.cfi_def_cfa 2, 32
 1031 0438 83348100 		ld	s1,8(sp)
 1032              		.cfi_restore 9
 1033              	.LVL75:
 1034 043c 13010102 		addi	sp,sp,32
 1035              		.cfi_def_cfa_offset 0
 1036 0440 67800000 		jr	ra
 1037              		.cfi_endproc
 1038              	.LFE57:
 1040              		.globl	_ZN6ThreadC1Ev
 1041              		.set	_ZN6ThreadC1Ev,_ZN6ThreadC2Ev
 1042              		.align	2
 1043              		.globl	_ZN9SemaphoreC2Ej
 1045              	_ZN9SemaphoreC2Ej:
 1046              	.LFB61:
 117:src/syscall_cpp.cpp ****     sem_open(&myHandle, init);
 1047              		.loc 2 117 1 is_stmt 1
 1048              		.cfi_startproc
 1049              	.LVL76:
 1050 0444 130101FF 		addi	sp,sp,-16
 1051              		.cfi_def_cfa_offset 16
 1052 0448 23341100 		sd	ra,8(sp)
 1053 044c 23308100 		sd	s0,0(sp)
 1054              		.cfi_offset 1, -8
 1055              		.cfi_offset 8, -16
 1056 0450 13040101 		addi	s0,sp,16
 1057              		.cfi_def_cfa 8, 0
 1058              	.LBB56:
 117:src/syscall_cpp.cpp ****     sem_open(&myHandle, init);
 1059              		.loc 2 117 39 is_stmt 0
 1060 0454 97070000 		lla	a5,_ZTV9Semaphore+16
 1060      93870700 
 1061 045c 2330F500 		sd	a5,0(a0)
 118:src/syscall_cpp.cpp **** }
 1062              		.loc 2 118 5 is_stmt 1
 118:src/syscall_cpp.cpp **** }
 1063              		.loc 2 118 13 is_stmt 0
 1064 0460 13058500 		addi	a0,a0,8
 1065              	.LVL77:
 1066 0464 97000000 		call	_Z8sem_openPP4KSemj@plt
GAS LISTING /tmp/ccMmwR5a.s 			page 27


 1066      E7800000 
 1067              	.LVL78:
 1068              	.LBE56:
 119:src/syscall_cpp.cpp **** 
 1069              		.loc 2 119 1
 1070 046c 83308100 		ld	ra,8(sp)
 1071              		.cfi_restore 1
 1072 0470 03340100 		ld	s0,0(sp)
 1073              		.cfi_restore 8
 1074              		.cfi_def_cfa 2, 16
 1075 0474 13010101 		addi	sp,sp,16
 1076              		.cfi_def_cfa_offset 0
 1077 0478 67800000 		jr	ra
 1078              		.cfi_endproc
 1079              	.LFE61:
 1081              		.globl	_ZN9SemaphoreC1Ej
 1082              		.set	_ZN9SemaphoreC1Ej,_ZN9SemaphoreC2Ej
 1083              		.align	2
 1084              		.globl	_ZN9Semaphore4waitEv
 1086              	_ZN9Semaphore4waitEv:
 1087              	.LFB70:
 126:src/syscall_cpp.cpp ****     return sem_wait(myHandle);
 1088              		.loc 2 126 23 is_stmt 1
 1089              		.cfi_startproc
 1090              	.LVL79:
 1091 047c 130101FF 		addi	sp,sp,-16
 1092              		.cfi_def_cfa_offset 16
 1093 0480 23341100 		sd	ra,8(sp)
 1094 0484 23308100 		sd	s0,0(sp)
 1095              		.cfi_offset 1, -8
 1096              		.cfi_offset 8, -16
 1097 0488 13040101 		addi	s0,sp,16
 1098              		.cfi_def_cfa 8, 0
 127:src/syscall_cpp.cpp **** }
 1099              		.loc 2 127 5
 127:src/syscall_cpp.cpp **** }
 1100              		.loc 2 127 20 is_stmt 0
 1101 048c 03358500 		ld	a0,8(a0)
 1102              	.LVL80:
 1103 0490 97000000 		call	_Z8sem_waitP4KSem@plt
 1103      E7800000 
 1104              	.LVL81:
 128:src/syscall_cpp.cpp **** 
 1105              		.loc 2 128 1
 1106 0498 83308100 		ld	ra,8(sp)
 1107              		.cfi_restore 1
 1108 049c 03340100 		ld	s0,0(sp)
 1109              		.cfi_restore 8
 1110              		.cfi_def_cfa 2, 16
 1111 04a0 13010101 		addi	sp,sp,16
 1112              		.cfi_def_cfa_offset 0
 1113 04a4 67800000 		jr	ra
 1114              		.cfi_endproc
 1115              	.LFE70:
 1117              		.align	2
 1118              		.globl	_ZN9Semaphore6signalEv
 1120              	_ZN9Semaphore6signalEv:
GAS LISTING /tmp/ccMmwR5a.s 			page 28


 1121              	.LFB71:
 130:src/syscall_cpp.cpp ****     return sem_signal(myHandle);
 1122              		.loc 2 130 25 is_stmt 1
 1123              		.cfi_startproc
 1124              	.LVL82:
 1125 04a8 130101FF 		addi	sp,sp,-16
 1126              		.cfi_def_cfa_offset 16
 1127 04ac 23341100 		sd	ra,8(sp)
 1128 04b0 23308100 		sd	s0,0(sp)
 1129              		.cfi_offset 1, -8
 1130              		.cfi_offset 8, -16
 1131 04b4 13040101 		addi	s0,sp,16
 1132              		.cfi_def_cfa 8, 0
 131:src/syscall_cpp.cpp **** }
 1133              		.loc 2 131 5
 131:src/syscall_cpp.cpp **** }
 1134              		.loc 2 131 22 is_stmt 0
 1135 04b8 03358500 		ld	a0,8(a0)
 1136              	.LVL83:
 1137 04bc 97000000 		call	_Z10sem_signalP4KSem@plt
 1137      E7800000 
 1138              	.LVL84:
 132:src/syscall_cpp.cpp **** 
 1139              		.loc 2 132 1
 1140 04c4 83308100 		ld	ra,8(sp)
 1141              		.cfi_restore 1
 1142 04c8 03340100 		ld	s0,0(sp)
 1143              		.cfi_restore 8
 1144              		.cfi_def_cfa 2, 16
 1145 04cc 13010101 		addi	sp,sp,16
 1146              		.cfi_def_cfa_offset 0
 1147 04d0 67800000 		jr	ra
 1148              		.cfi_endproc
 1149              	.LFE71:
 1151              		.align	2
 1152              		.globl	_ZN14PeriodicThread9terminateEv
 1154              	_ZN14PeriodicThread9terminateEv:
 1155              	.LFB72:
 134:src/syscall_cpp.cpp ****     this->period = -1;
 1156              		.loc 2 134 34 is_stmt 1
 1157              		.cfi_startproc
 1158              	.LVL85:
 1159 04d4 130101FF 		addi	sp,sp,-16
 1160              		.cfi_def_cfa_offset 16
 1161 04d8 23348100 		sd	s0,8(sp)
 1162              		.cfi_offset 8, -8
 1163 04dc 13040101 		addi	s0,sp,16
 1164              		.cfi_def_cfa 8, 0
 135:src/syscall_cpp.cpp **** }
 1165              		.loc 2 135 5
 135:src/syscall_cpp.cpp **** }
 1166              		.loc 2 135 18 is_stmt 0
 1167 04e0 9307F0FF 		li	a5,-1
 1168 04e4 2330F502 		sd	a5,32(a0)
 136:src/syscall_cpp.cpp **** 
 1169              		.loc 2 136 1
 1170 04e8 03348100 		ld	s0,8(sp)
GAS LISTING /tmp/ccMmwR5a.s 			page 29


 1171              		.cfi_restore 8
 1172              		.cfi_def_cfa 2, 16
 1173 04ec 13010101 		addi	sp,sp,16
 1174              		.cfi_def_cfa_offset 0
 1175 04f0 67800000 		jr	ra
 1176              		.cfi_endproc
 1177              	.LFE72:
 1179              		.align	2
 1180              		.globl	_ZN14PeriodicThreadC2Em
 1182              	_ZN14PeriodicThreadC2Em:
 1183              	.LFB74:
 138:src/syscall_cpp.cpp ****     if (this->period < 0) this->period = 2;
 1184              		.loc 2 138 1 is_stmt 1
 1185              		.cfi_startproc
 1186              	.LVL86:
 1187 04f4 130101FE 		addi	sp,sp,-32
 1188              		.cfi_def_cfa_offset 32
 1189 04f8 233C1100 		sd	ra,24(sp)
 1190 04fc 23388100 		sd	s0,16(sp)
 1191 0500 23349100 		sd	s1,8(sp)
 1192 0504 23302101 		sd	s2,0(sp)
 1193              		.cfi_offset 1, -8
 1194              		.cfi_offset 8, -16
 1195              		.cfi_offset 9, -24
 1196              		.cfi_offset 18, -32
 1197 0508 13040102 		addi	s0,sp,32
 1198              		.cfi_def_cfa 8, 0
 1199 050c 93040500 		mv	s1,a0
 1200 0510 13890500 		mv	s2,a1
 1201              	.LBB57:
 138:src/syscall_cpp.cpp ****     if (this->period < 0) this->period = 2;
 1202              		.loc 2 138 72 is_stmt 0
 1203 0514 97000000 		call	_ZN6ThreadC2Ev
 1203      E7800000 
 1204              	.LVL87:
 1205 051c 97070000 		lla	a5,_ZTV14PeriodicThread+16
 1205      93870700 
 1206 0524 23B0F400 		sd	a5,0(s1)
 1207 0528 23B02403 		sd	s2,32(s1)
 139:src/syscall_cpp.cpp **** }
 1208              		.loc 2 139 5 is_stmt 1
 1209              	.LBE57:
 140:src/syscall_cpp.cpp **** 
 1210              		.loc 2 140 1 is_stmt 0
 1211 052c 83308101 		ld	ra,24(sp)
 1212              		.cfi_restore 1
 1213 0530 03340101 		ld	s0,16(sp)
 1214              		.cfi_restore 8
 1215              		.cfi_def_cfa 2, 32
 1216 0534 83348100 		ld	s1,8(sp)
 1217              		.cfi_restore 9
 1218              	.LVL88:
 1219 0538 03390100 		ld	s2,0(sp)
 1220              		.cfi_restore 18
 1221              	.LVL89:
 1222 053c 13010102 		addi	sp,sp,32
 1223              		.cfi_def_cfa_offset 0
GAS LISTING /tmp/ccMmwR5a.s 			page 30


 1224 0540 67800000 		jr	ra
 1225              		.cfi_endproc
 1226              	.LFE74:
 1228              		.globl	_ZN14PeriodicThreadC1Em
 1229              		.set	_ZN14PeriodicThreadC1Em,_ZN14PeriodicThreadC2Em
 1230              		.align	2
 1231              		.globl	_ZN7Console4getcEv
 1233              	_ZN7Console4getcEv:
 1234              	.LFB77:
 150:src/syscall_cpp.cpp **** 
 151:src/syscall_cpp.cpp **** char Console::getc() {
 1235              		.loc 2 151 22 is_stmt 1
 1236              		.cfi_startproc
 1237 0544 130101FF 		addi	sp,sp,-16
 1238              		.cfi_def_cfa_offset 16
 1239 0548 23341100 		sd	ra,8(sp)
 1240 054c 23308100 		sd	s0,0(sp)
 1241              		.cfi_offset 1, -8
 1242              		.cfi_offset 8, -16
 1243 0550 13040101 		addi	s0,sp,16
 1244              		.cfi_def_cfa 8, 0
 152:src/syscall_cpp.cpp ****     return ::getc();
 1245              		.loc 2 152 5
 1246              		.loc 2 152 18 is_stmt 0
 1247 0554 97000000 		call	_Z4getcv@plt
 1247      E7800000 
 1248              	.LVL90:
 153:src/syscall_cpp.cpp **** }
 1249              		.loc 2 153 1
 1250 055c 83308100 		ld	ra,8(sp)
 1251              		.cfi_restore 1
 1252 0560 03340100 		ld	s0,0(sp)
 1253              		.cfi_restore 8
 1254              		.cfi_def_cfa 2, 16
 1255 0564 13010101 		addi	sp,sp,16
 1256              		.cfi_def_cfa_offset 0
 1257 0568 67800000 		jr	ra
 1258              		.cfi_endproc
 1259              	.LFE77:
 1261              		.align	2
 1262              		.globl	_ZN7Console4putcEc
 1264              	_ZN7Console4putcEc:
 1265              	.LFB78:
 154:src/syscall_cpp.cpp **** 
 155:src/syscall_cpp.cpp **** void Console::putc(char c) {
 1266              		.loc 2 155 28 is_stmt 1
 1267              		.cfi_startproc
 1268              	.LVL91:
 1269 056c 130101FF 		addi	sp,sp,-16
 1270              		.cfi_def_cfa_offset 16
 1271 0570 23341100 		sd	ra,8(sp)
 1272 0574 23308100 		sd	s0,0(sp)
 1273              		.cfi_offset 1, -8
 1274              		.cfi_offset 8, -16
 1275 0578 13040101 		addi	s0,sp,16
 1276              		.cfi_def_cfa 8, 0
 156:src/syscall_cpp.cpp ****     ::putc(c);
GAS LISTING /tmp/ccMmwR5a.s 			page 31


 1277              		.loc 2 156 5
 1278              		.loc 2 156 11 is_stmt 0
 1279 057c 97000000 		call	_Z4putcc@plt
 1279      E7800000 
 1280              	.LVL92:
 157:src/syscall_cpp.cpp **** }
 1281              		.loc 2 157 1
 1282 0584 83308100 		ld	ra,8(sp)
 1283              		.cfi_restore 1
 1284 0588 03340100 		ld	s0,0(sp)
 1285              		.cfi_restore 8
 1286              		.cfi_def_cfa 2, 16
 1287 058c 13010101 		addi	sp,sp,16
 1288              		.cfi_def_cfa_offset 0
 1289 0590 67800000 		jr	ra
 1290              		.cfi_endproc
 1291              	.LFE78:
 1293              		.weak	_ZTV6Thread
 1294              		.section	.data.rel.ro.local._ZTV6Thread,"awG",@progbits,_ZTV6Thread,comdat
 1295              		.align	3
 1298              	_ZTV6Thread:
 1299 0000 00000000 		.dword	0
 1299      00000000 
 1300 0008 00000000 		.dword	0
 1300      00000000 
 1301 0010 00000000 		.dword	_ZN6ThreadD1Ev
 1301      00000000 
 1302 0018 00000000 		.dword	_ZN6ThreadD0Ev
 1302      00000000 
 1303 0020 00000000 		.dword	_ZN6Thread3runEv
 1303      00000000 
 1304              		.weak	_ZTV9Semaphore
 1305              		.section	.data.rel.ro.local._ZTV9Semaphore,"awG",@progbits,_ZTV9Semaphore,comdat
 1306              		.align	3
 1309              	_ZTV9Semaphore:
 1310 0000 00000000 		.dword	0
 1310      00000000 
 1311 0008 00000000 		.dword	0
 1311      00000000 
 1312 0010 00000000 		.dword	_ZN9SemaphoreD1Ev
 1312      00000000 
 1313 0018 00000000 		.dword	_ZN9SemaphoreD0Ev
 1313      00000000 
 1314              		.weak	_ZTV14PeriodicThread
 1315              		.section	.data.rel.ro.local._ZTV14PeriodicThread,"awG",@progbits,_ZTV14PeriodicThread,comdat
 1316              		.align	3
 1319              	_ZTV14PeriodicThread:
 1320 0000 00000000 		.dword	0
 1320      00000000 
 1321 0008 00000000 		.dword	0
 1321      00000000 
 1322 0010 00000000 		.dword	_ZN14PeriodicThreadD1Ev
 1322      00000000 
 1323 0018 00000000 		.dword	_ZN14PeriodicThreadD0Ev
 1323      00000000 
 1324 0020 00000000 		.dword	_ZN14PeriodicThread3runEv
 1324      00000000 
GAS LISTING /tmp/ccMmwR5a.s 			page 32


 1325 0028 00000000 		.dword	_ZN14PeriodicThread18periodicActivationEv
 1325      00000000 
 1326              		.text
 1327              	.Letext0:
 1328              		.file 5 "src/../h/../lib/hw.h"
 1329              		.file 6 "src/../h/KSem.hpp"
 1330              		.file 7 "src/../h/syscall_c.hpp"
 6192              		.align	3
 6195              	DW.ref.__gxx_personality_v0:
 6196 0000 00000000 		.dword	__gxx_personality_v0
 6196      00000000 
 6197              		.ident	"GCC: (Ubuntu 9.4.0-1ubuntu1~20.04) 9.4.0"
 6198              		.section	.note.GNU-stack,"",@progbits
GAS LISTING /tmp/ccMmwR5a.s 			page 33


DEFINED SYMBOLS
                            *ABS*:0000000000000000 syscall_cpp.cpp
     /tmp/ccMmwR5a.s:10     .text._ZN6Thread3runEv:0000000000000000 _ZN6Thread3runEv
     /tmp/ccMmwR5a.s:14     .text._ZN6Thread3runEv:0000000000000000 .L0 
     /tmp/ccMmwR5a.s:16     .text._ZN6Thread3runEv:0000000000000000 .L0 
     /tmp/ccMmwR5a.s:17     .text._ZN6Thread3runEv:0000000000000004 .L0 
     /tmp/ccMmwR5a.s:19     .text._ZN6Thread3runEv:0000000000000008 .L0 
     /tmp/ccMmwR5a.s:21     .text._ZN6Thread3runEv:000000000000000c .L0 
     /tmp/ccMmwR5a.s:23     .text._ZN6Thread3runEv:000000000000000c .L0 
     /tmp/ccMmwR5a.s:24     .text._ZN6Thread3runEv:0000000000000010 .L0 
     /tmp/ccMmwR5a.s:25     .text._ZN6Thread3runEv:0000000000000010 .L0 
     /tmp/ccMmwR5a.s:27     .text._ZN6Thread3runEv:0000000000000014 .L0 
     /tmp/ccMmwR5a.s:29     .text._ZN6Thread3runEv:0000000000000018 .L0 
     /tmp/ccMmwR5a.s:36     .text._ZN14PeriodicThread18periodicActivationEv:0000000000000000 _ZN14PeriodicThread18periodicActivationEv
     /tmp/ccMmwR5a.s:39     .text._ZN14PeriodicThread18periodicActivationEv:0000000000000000 .L0 
     /tmp/ccMmwR5a.s:41     .text._ZN14PeriodicThread18periodicActivationEv:0000000000000000 .L0 
     /tmp/ccMmwR5a.s:42     .text._ZN14PeriodicThread18periodicActivationEv:0000000000000004 .L0 
     /tmp/ccMmwR5a.s:44     .text._ZN14PeriodicThread18periodicActivationEv:0000000000000008 .L0 
     /tmp/ccMmwR5a.s:46     .text._ZN14PeriodicThread18periodicActivationEv:000000000000000c .L0 
     /tmp/ccMmwR5a.s:48     .text._ZN14PeriodicThread18periodicActivationEv:000000000000000c .L0 
     /tmp/ccMmwR5a.s:49     .text._ZN14PeriodicThread18periodicActivationEv:0000000000000010 .L0 
     /tmp/ccMmwR5a.s:50     .text._ZN14PeriodicThread18periodicActivationEv:0000000000000010 .L0 
     /tmp/ccMmwR5a.s:52     .text._ZN14PeriodicThread18periodicActivationEv:0000000000000014 .L0 
     /tmp/ccMmwR5a.s:54     .text._ZN14PeriodicThread18periodicActivationEv:0000000000000018 .L0 
     /tmp/ccMmwR5a.s:61     .text:0000000000000000 _ZN6ThreadD2Ev
     /tmp/ccMmwR5a.s:65     .text:0000000000000000 .L0 
     /tmp/ccMmwR5a.s:67     .text:0000000000000000 .L0 
     /tmp/ccMmwR5a.s:68     .text:0000000000000004 .L0 
     /tmp/ccMmwR5a.s:70     .text:0000000000000008 .L0 
     /tmp/ccMmwR5a.s:72     .text:000000000000000c .L0 
     /tmp/ccMmwR5a.s:1298   .data.rel.ro.local._ZTV6Thread:0000000000000000 _ZTV6Thread
     /tmp/ccMmwR5a.s:75     .text:000000000000000c .L0 
     /tmp/ccMmwR5a.s:78     .text:0000000000000018 .L0 
     /tmp/ccMmwR5a.s:79     .text:0000000000000018 .L0 
 src/syscall_cpp.cpp:62     .text:000000000000001c .L0 
     /tmp/ccMmwR5a.s:87     .text:0000000000000020 .L0 
 src/syscall_cpp.cpp:63     .text:0000000000000020 .L0 
     /tmp/ccMmwR5a.s:92     .text:0000000000000024 .L0 
 src/syscall_cpp.cpp:65     .text:0000000000000024 .L0 
     /tmp/ccMmwR5a.s:99     .text:0000000000000028 .L0 
     /tmp/ccMmwR5a.s:100    .text:000000000000002c .L0 
     /tmp/ccMmwR5a.s:101    .text:000000000000002c .L0 
     /tmp/ccMmwR5a.s:103    .text:0000000000000030 .L0 
     /tmp/ccMmwR5a.s:105    .text:0000000000000034 .L0 
     /tmp/ccMmwR5a.s:61     .text:0000000000000000 _ZN6ThreadD1Ev
     /tmp/ccMmwR5a.s:113    .text:0000000000000034 _ZN6Thread7wrapperEPv
     /tmp/ccMmwR5a.s:116    .text:0000000000000034 .L0 
     /tmp/ccMmwR5a.s:118    .text:0000000000000034 .L0 
     /tmp/ccMmwR5a.s:119    .text:0000000000000034 .L0 
     /tmp/ccMmwR5a.s:121    .text:0000000000000038 .L0 
     /tmp/ccMmwR5a.s:122    .text:000000000000003c .L0 
     /tmp/ccMmwR5a.s:125    .text:0000000000000044 .L0 
     /tmp/ccMmwR5a.s:126    .text:0000000000000044 .L0 
     /tmp/ccMmwR5a.s:128    .text:0000000000000048 .L0 
     /tmp/ccMmwR5a.s:130    .text:0000000000000048 .L0 
     /tmp/ccMmwR5a.s:131    .text:0000000000000048 .L0 
     /tmp/ccMmwR5a.s:134    .text:0000000000000050 .L0 
GAS LISTING /tmp/ccMmwR5a.s 			page 34


     /tmp/ccMmwR5a.s:137    .text:0000000000000054 .L0 
     /tmp/ccMmwR5a.s:138    .text:0000000000000058 .L0 
     /tmp/ccMmwR5a.s:140    .text:000000000000005c .L0 
     /tmp/ccMmwR5a.s:141    .text:000000000000005c .L0 
     /tmp/ccMmwR5a.s:143    .text:0000000000000060 .L0 
     /tmp/ccMmwR5a.s:148    .text:0000000000000068 .L0 
     /tmp/ccMmwR5a.s:155    .text._ZN14PeriodicThreadD2Ev:0000000000000000 _ZN14PeriodicThreadD2Ev
     /tmp/ccMmwR5a.s:158    .text._ZN14PeriodicThreadD2Ev:0000000000000000 .L0 
     /tmp/ccMmwR5a.s:160    .text._ZN14PeriodicThreadD2Ev:0000000000000000 .L0 
     /tmp/ccMmwR5a.s:161    .text._ZN14PeriodicThreadD2Ev:0000000000000004 .L0 
     /tmp/ccMmwR5a.s:164    .text._ZN14PeriodicThreadD2Ev:000000000000000c .L0 
     /tmp/ccMmwR5a.s:165    .text._ZN14PeriodicThreadD2Ev:000000000000000c .L0 
     /tmp/ccMmwR5a.s:167    .text._ZN14PeriodicThreadD2Ev:0000000000000010 .L0 
     /tmp/ccMmwR5a.s:1319   .data.rel.ro.local._ZTV14PeriodicThread:0000000000000000 _ZTV14PeriodicThread
     /tmp/ccMmwR5a.s:170    .text._ZN14PeriodicThreadD2Ev:0000000000000010 .L0 
     /tmp/ccMmwR5a.s:176    .text._ZN14PeriodicThreadD2Ev:0000000000000028 .L0 
     /tmp/ccMmwR5a.s:178    .text._ZN14PeriodicThreadD2Ev:000000000000002c .L0 
     /tmp/ccMmwR5a.s:179    .text._ZN14PeriodicThreadD2Ev:000000000000002c .L0 
     /tmp/ccMmwR5a.s:181    .text._ZN14PeriodicThreadD2Ev:0000000000000030 .L0 
     /tmp/ccMmwR5a.s:183    .text._ZN14PeriodicThreadD2Ev:0000000000000034 .L0 
     /tmp/ccMmwR5a.s:155    .text._ZN14PeriodicThreadD2Ev:0000000000000000 _ZN14PeriodicThreadD1Ev
     /tmp/ccMmwR5a.s:192    .text:0000000000000068 _ZN9SemaphoreD2Ev
     /tmp/ccMmwR5a.s:195    .text:0000000000000068 .L0 
     /tmp/ccMmwR5a.s:6195   .data.rel.local.DW.ref.__gxx_personality_v0:0000000000000000 DW.ref.__gxx_personality_v0
     /tmp/ccMmwR5a.s:199    .text:0000000000000068 .L0 
     /tmp/ccMmwR5a.s:200    .text:000000000000006c .L0 
     /tmp/ccMmwR5a.s:204    .text:0000000000000078 .L0 
     /tmp/ccMmwR5a.s:205    .text:0000000000000078 .L0 
     /tmp/ccMmwR5a.s:206    .text:0000000000000078 .L0 
     /tmp/ccMmwR5a.s:208    .text:000000000000007c .L0 
     /tmp/ccMmwR5a.s:1309   .data.rel.ro.local._ZTV9Semaphore:0000000000000000 _ZTV9Semaphore
     /tmp/ccMmwR5a.s:212    .text:0000000000000080 .L0 
     /tmp/ccMmwR5a.s:215    .text:000000000000008c .L0 
     /tmp/ccMmwR5a.s:216    .text:000000000000008c .L0 
     /tmp/ccMmwR5a.s:221    .text:0000000000000098 .L0 
     /tmp/ccMmwR5a.s:222    .text:0000000000000098 .L0 
     /tmp/ccMmwR5a.s:225    .text:000000000000009c .L0 
     /tmp/ccMmwR5a.s:232    .text:00000000000000a0 .L0 
     /tmp/ccMmwR5a.s:236    .text:00000000000000a0 .L0 
     /tmp/ccMmwR5a.s:237    .text:00000000000000a0 .L0 
     /tmp/ccMmwR5a.s:238    .text:00000000000000a0 .L0 
     /tmp/ccMmwR5a.s:242    .text:00000000000000a4 .L0 
     /tmp/ccMmwR5a.s:246    .text:00000000000000a8 .L0 
     /tmp/ccMmwR5a.s:247    .text:00000000000000a8 .L0 
     /tmp/ccMmwR5a.s:248    .text:00000000000000a8 .L0 
     /tmp/ccMmwR5a.s:250    .text:00000000000000ac .L0 
     /tmp/ccMmwR5a.s:252    .text:00000000000000b0 .L0 
     /tmp/ccMmwR5a.s:253    .text:00000000000000b0 .L0 
     /tmp/ccMmwR5a.s:258    .text:00000000000000b4 .L0 
     /tmp/ccMmwR5a.s:259    .text:00000000000000b4 .L0 
     /tmp/ccMmwR5a.s:262    .text:00000000000000bc .L0 
     /tmp/ccMmwR5a.s:271    .text:00000000000000c0 .L0 
     /tmp/ccMmwR5a.s:277    .text:00000000000000cc .L0 
     /tmp/ccMmwR5a.s:278    .text:00000000000000d0 .L0 
     /tmp/ccMmwR5a.s:280    .text:00000000000000d4 .L0 
     /tmp/ccMmwR5a.s:281    .text:00000000000000d4 .L0 
     /tmp/ccMmwR5a.s:283    .text:00000000000000d8 .L0 
GAS LISTING /tmp/ccMmwR5a.s 			page 35


     /tmp/ccMmwR5a.s:285    .text:00000000000000dc .L0 
     /tmp/ccMmwR5a.s:287    .text:00000000000000e0 .L0 
     /tmp/ccMmwR5a.s:192    .text:0000000000000068 _ZN9SemaphoreD1Ev
     /tmp/ccMmwR5a.s:303    .text:00000000000000e0 _Znwm
     /tmp/ccMmwR5a.s:306    .text:00000000000000e0 .L0 
     /tmp/ccMmwR5a.s:308    .text:00000000000000e0 .L0 
     /tmp/ccMmwR5a.s:309    .text:00000000000000e4 .L0 
     /tmp/ccMmwR5a.s:312    .text:00000000000000ec .L0 
     /tmp/ccMmwR5a.s:313    .text:00000000000000ec .L0 
     /tmp/ccMmwR5a.s:315    .text:00000000000000f0 .L0 
     /tmp/ccMmwR5a.s:317    .text:00000000000000f0 .L0 
     /tmp/ccMmwR5a.s:318    .text:00000000000000f0 .L0 
     /tmp/ccMmwR5a.s:321    .text:00000000000000f8 .L0 
     /tmp/ccMmwR5a.s:322    .text:00000000000000fc .L0 
     /tmp/ccMmwR5a.s:324    .text:0000000000000100 .L0 
     /tmp/ccMmwR5a.s:325    .text:0000000000000100 .L0 
     /tmp/ccMmwR5a.s:327    .text:0000000000000104 .L0 
     /tmp/ccMmwR5a.s:329    .text:0000000000000108 .L0 
     /tmp/ccMmwR5a.s:335    .text:0000000000000108 _Znam
     /tmp/ccMmwR5a.s:338    .text:0000000000000108 .L0 
     /tmp/ccMmwR5a.s:340    .text:0000000000000108 .L0 
     /tmp/ccMmwR5a.s:341    .text:000000000000010c .L0 
     /tmp/ccMmwR5a.s:344    .text:0000000000000114 .L0 
     /tmp/ccMmwR5a.s:345    .text:0000000000000114 .L0 
     /tmp/ccMmwR5a.s:347    .text:0000000000000118 .L0 
     /tmp/ccMmwR5a.s:349    .text:0000000000000118 .L0 
     /tmp/ccMmwR5a.s:350    .text:0000000000000118 .L0 
     /tmp/ccMmwR5a.s:353    .text:0000000000000120 .L0 
     /tmp/ccMmwR5a.s:354    .text:0000000000000124 .L0 
     /tmp/ccMmwR5a.s:356    .text:0000000000000128 .L0 
     /tmp/ccMmwR5a.s:357    .text:0000000000000128 .L0 
     /tmp/ccMmwR5a.s:359    .text:000000000000012c .L0 
     /tmp/ccMmwR5a.s:361    .text:0000000000000130 .L0 
     /tmp/ccMmwR5a.s:367    .text:0000000000000130 _ZdlPv
     /tmp/ccMmwR5a.s:370    .text:0000000000000130 .L0 
     /tmp/ccMmwR5a.s:374    .text:0000000000000130 .L0 
     /tmp/ccMmwR5a.s:375    .text:0000000000000134 .L0 
     /tmp/ccMmwR5a.s:378    .text:000000000000013c .L0 
     /tmp/ccMmwR5a.s:379    .text:000000000000013c .L0 
     /tmp/ccMmwR5a.s:381    .text:0000000000000140 .L0 
     /tmp/ccMmwR5a.s:383    .text:0000000000000140 .L0 
     /tmp/ccMmwR5a.s:384    .text:0000000000000140 .L0 
     /tmp/ccMmwR5a.s:387    .text:0000000000000148 .L0 
     /tmp/ccMmwR5a.s:388    .text:000000000000014c .L0 
     /tmp/ccMmwR5a.s:390    .text:0000000000000150 .L0 
     /tmp/ccMmwR5a.s:391    .text:0000000000000150 .L0 
     /tmp/ccMmwR5a.s:393    .text:0000000000000154 .L0 
     /tmp/ccMmwR5a.s:395    .text:0000000000000158 .L0 
     /tmp/ccMmwR5a.s:408    .text:0000000000000158 _ZN6ThreadD0Ev
     /tmp/ccMmwR5a.s:411    .text:0000000000000158 .L0 
     /tmp/ccMmwR5a.s:413    .text:0000000000000158 .L0 
     /tmp/ccMmwR5a.s:414    .text:000000000000015c .L0 
     /tmp/ccMmwR5a.s:418    .text:0000000000000168 .L0 
     /tmp/ccMmwR5a.s:419    .text:0000000000000168 .L0 
     /tmp/ccMmwR5a.s:420    .text:0000000000000168 .L0 
     /tmp/ccMmwR5a.s:422    .text:000000000000016c .L0 
     /tmp/ccMmwR5a.s:425    .text:0000000000000170 .L0 
GAS LISTING /tmp/ccMmwR5a.s 			page 36


     /tmp/ccMmwR5a.s:431    .text:0000000000000188 .L0 
     /tmp/ccMmwR5a.s:433    .text:000000000000018c .L0 
     /tmp/ccMmwR5a.s:434    .text:000000000000018c .L0 
     /tmp/ccMmwR5a.s:436    .text:0000000000000190 .L0 
     /tmp/ccMmwR5a.s:439    .text:0000000000000194 .L0 
     /tmp/ccMmwR5a.s:441    .text:0000000000000198 .L0 
     /tmp/ccMmwR5a.s:448    .text._ZN14PeriodicThreadD0Ev:0000000000000000 _ZN14PeriodicThreadD0Ev
     /tmp/ccMmwR5a.s:451    .text._ZN14PeriodicThreadD0Ev:0000000000000000 .L0 
     /tmp/ccMmwR5a.s:453    .text._ZN14PeriodicThreadD0Ev:0000000000000000 .L0 
     /tmp/ccMmwR5a.s:454    .text._ZN14PeriodicThreadD0Ev:0000000000000004 .L0 
     /tmp/ccMmwR5a.s:458    .text._ZN14PeriodicThreadD0Ev:0000000000000010 .L0 
     /tmp/ccMmwR5a.s:459    .text._ZN14PeriodicThreadD0Ev:0000000000000010 .L0 
     /tmp/ccMmwR5a.s:460    .text._ZN14PeriodicThreadD0Ev:0000000000000010 .L0 
     /tmp/ccMmwR5a.s:462    .text._ZN14PeriodicThreadD0Ev:0000000000000014 .L0 
     /tmp/ccMmwR5a.s:468    .text._ZN14PeriodicThreadD0Ev:0000000000000018 .L0 
     /tmp/ccMmwR5a.s:478    .text._ZN14PeriodicThreadD0Ev:000000000000003c .L0 
     /tmp/ccMmwR5a.s:480    .text._ZN14PeriodicThreadD0Ev:0000000000000040 .L0 
     /tmp/ccMmwR5a.s:481    .text._ZN14PeriodicThreadD0Ev:0000000000000040 .L0 
     /tmp/ccMmwR5a.s:483    .text._ZN14PeriodicThreadD0Ev:0000000000000044 .L0 
     /tmp/ccMmwR5a.s:486    .text._ZN14PeriodicThreadD0Ev:0000000000000048 .L0 
     /tmp/ccMmwR5a.s:488    .text._ZN14PeriodicThreadD0Ev:000000000000004c .L0 
     /tmp/ccMmwR5a.s:495    .text:0000000000000198 _ZN9SemaphoreD0Ev
     /tmp/ccMmwR5a.s:498    .text:0000000000000198 .L0 
     /tmp/ccMmwR5a.s:500    .text:0000000000000198 .L0 
     /tmp/ccMmwR5a.s:501    .text:000000000000019c .L0 
     /tmp/ccMmwR5a.s:505    .text:00000000000001a8 .L0 
     /tmp/ccMmwR5a.s:506    .text:00000000000001a8 .L0 
     /tmp/ccMmwR5a.s:507    .text:00000000000001a8 .L0 
     /tmp/ccMmwR5a.s:509    .text:00000000000001ac .L0 
     /tmp/ccMmwR5a.s:512    .text:00000000000001b0 .L0 
     /tmp/ccMmwR5a.s:518    .text:00000000000001c8 .L0 
     /tmp/ccMmwR5a.s:520    .text:00000000000001cc .L0 
     /tmp/ccMmwR5a.s:521    .text:00000000000001cc .L0 
     /tmp/ccMmwR5a.s:523    .text:00000000000001d0 .L0 
     /tmp/ccMmwR5a.s:526    .text:00000000000001d4 .L0 
     /tmp/ccMmwR5a.s:528    .text:00000000000001d8 .L0 
     /tmp/ccMmwR5a.s:534    .text:00000000000001d8 _ZdaPv
     /tmp/ccMmwR5a.s:537    .text:00000000000001d8 .L0 
     /tmp/ccMmwR5a.s:541    .text:00000000000001d8 .L0 
     /tmp/ccMmwR5a.s:542    .text:00000000000001dc .L0 
     /tmp/ccMmwR5a.s:545    .text:00000000000001e4 .L0 
     /tmp/ccMmwR5a.s:546    .text:00000000000001e4 .L0 
     /tmp/ccMmwR5a.s:548    .text:00000000000001e8 .L0 
     /tmp/ccMmwR5a.s:550    .text:00000000000001e8 .L0 
     /tmp/ccMmwR5a.s:551    .text:00000000000001e8 .L0 
     /tmp/ccMmwR5a.s:554    .text:00000000000001f0 .L0 
     /tmp/ccMmwR5a.s:555    .text:00000000000001f4 .L0 
     /tmp/ccMmwR5a.s:557    .text:00000000000001f8 .L0 
     /tmp/ccMmwR5a.s:558    .text:00000000000001f8 .L0 
     /tmp/ccMmwR5a.s:560    .text:00000000000001fc .L0 
     /tmp/ccMmwR5a.s:562    .text:0000000000000200 .L0 
     /tmp/ccMmwR5a.s:575    .text:0000000000000200 _ZN6ThreadC2EPFvPvES0_
     /tmp/ccMmwR5a.s:578    .text:0000000000000200 .L0 
     /tmp/ccMmwR5a.s:580    .text:0000000000000200 .L0 
     /tmp/ccMmwR5a.s:581    .text:0000000000000204 .L0 
     /tmp/ccMmwR5a.s:587    .text:0000000000000218 .L0 
     /tmp/ccMmwR5a.s:588    .text:0000000000000218 .L0 
GAS LISTING /tmp/ccMmwR5a.s 			page 37


     /tmp/ccMmwR5a.s:589    .text:0000000000000218 .L0 
     /tmp/ccMmwR5a.s:590    .text:0000000000000218 .L0 
     /tmp/ccMmwR5a.s:591    .text:0000000000000218 .L0 
     /tmp/ccMmwR5a.s:593    .text:000000000000021c .L0 
     /tmp/ccMmwR5a.s:599    .text:0000000000000228 .L0 
     /tmp/ccMmwR5a.s:603    .text:0000000000000234 .L0 
     /tmp/ccMmwR5a.s:604    .text:0000000000000234 .L0 
     /tmp/ccMmwR5a.s:606    .text:0000000000000238 .L0 
     /tmp/ccMmwR5a.s:607    .text:0000000000000238 .L0 
     /tmp/ccMmwR5a.s:610    .text:000000000000023c .L0 
     /tmp/ccMmwR5a.s:611    .text:000000000000023c .L0 
     /tmp/ccMmwR5a.s:614    .text:0000000000000248 .L0 
     /tmp/ccMmwR5a.s:615    .text:0000000000000248 .L0 
     /tmp/ccMmwR5a.s:623    .text:0000000000000258 .L0 
 src/syscall_cpp.cpp:42     .text:0000000000000258 .L0 
     /tmp/ccMmwR5a.s:629    .text:000000000000025c .L0 
 src/syscall_cpp.cpp:43     .text:000000000000025c .L0 
     /tmp/ccMmwR5a.s:634    .text:0000000000000260 .L0 
 src/syscall_cpp.cpp:45     .text:0000000000000260 .L0 
     /tmp/ccMmwR5a.s:639    .text:0000000000000264 .L0 
     /tmp/ccMmwR5a.s:641    .text:0000000000000264 .L0 
 src/syscall_cpp.cpp:46     .text:0000000000000268 .L0 
     /tmp/ccMmwR5a.s:649    .text:000000000000026c .L0 
 src/syscall_cpp.cpp:47     .text:000000000000026c .L0 
     /tmp/ccMmwR5a.s:654    .text:0000000000000270 .L0 
 src/syscall_cpp.cpp:54     .text:0000000000000270 .L0 
     /tmp/ccMmwR5a.s:662    .text:0000000000000274 .L0 
     /tmp/ccMmwR5a.s:663    .text:0000000000000278 .L0 
     /tmp/ccMmwR5a.s:664    .text:0000000000000278 .L0 
     /tmp/ccMmwR5a.s:666    .text:000000000000027c .L0 
     /tmp/ccMmwR5a.s:667    .text:000000000000027c .L0 
     /tmp/ccMmwR5a.s:669    .text:0000000000000280 .L0 
     /tmp/ccMmwR5a.s:672    .text:0000000000000284 .L0 
     /tmp/ccMmwR5a.s:675    .text:0000000000000288 .L0 
     /tmp/ccMmwR5a.s:678    .text:000000000000028c .L0 
     /tmp/ccMmwR5a.s:682    .text:0000000000000290 .L0 
     /tmp/ccMmwR5a.s:686    .text:0000000000000290 .L0 
     /tmp/ccMmwR5a.s:690    .text:0000000000000298 .L0 
     /tmp/ccMmwR5a.s:575    .text:0000000000000200 _ZN6ThreadC1EPFvPvES0_
     /tmp/ccMmwR5a.s:698    .text:0000000000000298 _ZN6Thread5startEv
     /tmp/ccMmwR5a.s:701    .text:0000000000000298 .L0 
     /tmp/ccMmwR5a.s:703    .text:0000000000000298 .L0 
     /tmp/ccMmwR5a.s:704    .text:000000000000029c .L0 
     /tmp/ccMmwR5a.s:706    .text:00000000000002a0 .L0 
     /tmp/ccMmwR5a.s:708    .text:00000000000002a4 .L0 
     /tmp/ccMmwR5a.s:710    .text:00000000000002a4 .L0 
     /tmp/ccMmwR5a.s:711    .text:00000000000002a4 .L0 
     /tmp/ccMmwR5a.s:713    .text:00000000000002a8 .L0 
     /tmp/ccMmwR5a.s:719    .text:00000000000002ac .L0 
     /tmp/ccMmwR5a.s:720    .text:00000000000002ac .L0 
     /tmp/ccMmwR5a.s:725    .text:00000000000002b0 .L0 
     /tmp/ccMmwR5a.s:727    .text:00000000000002b4 .L0 
 src/syscall_cpp.cpp:70     .text:00000000000002b4 .L0 
     /tmp/ccMmwR5a.s:734    .text:00000000000002b8 .L0 
 src/syscall_cpp.cpp:71     .text:00000000000002b8 .L0 
     /tmp/ccMmwR5a.s:739    .text:00000000000002bc .L0 
 src/syscall_cpp.cpp:73     .text:00000000000002bc .L0 
GAS LISTING /tmp/ccMmwR5a.s 			page 38


     /tmp/ccMmwR5a.s:744    .text:00000000000002c0 .L0 
     /tmp/ccMmwR5a.s:746    .text:00000000000002c0 .L0 
     /tmp/ccMmwR5a.s:749    .text:00000000000002c4 .L0 
     /tmp/ccMmwR5a.s:750    .text:00000000000002c8 .L0 
     /tmp/ccMmwR5a.s:751    .text:00000000000002c8 .L0 
     /tmp/ccMmwR5a.s:752    .text:00000000000002c8 .L0 
     /tmp/ccMmwR5a.s:754    .text:00000000000002cc .L0 
     /tmp/ccMmwR5a.s:758    .text:00000000000002d0 .L0 
     /tmp/ccMmwR5a.s:760    .text:00000000000002d0 .L0 
     /tmp/ccMmwR5a.s:768    .text:00000000000002e0 .L0 
     /tmp/ccMmwR5a.s:774    .text:00000000000002e0 _ZN6Thread4joinEv
     /tmp/ccMmwR5a.s:777    .text:00000000000002e0 .L0 
     /tmp/ccMmwR5a.s:779    .text:00000000000002e0 .L0 
     /tmp/ccMmwR5a.s:780    .text:00000000000002e4 .L0 
     /tmp/ccMmwR5a.s:783    .text:00000000000002ec .L0 
     /tmp/ccMmwR5a.s:784    .text:00000000000002ec .L0 
     /tmp/ccMmwR5a.s:786    .text:00000000000002f0 .L0 
     /tmp/ccMmwR5a.s:788    .text:00000000000002f0 .L0 
     /tmp/ccMmwR5a.s:789    .text:00000000000002f0 .L0 
     /tmp/ccMmwR5a.s:794    .text:00000000000002fc .L0 
     /tmp/ccMmwR5a.s:795    .text:0000000000000300 .L0 
     /tmp/ccMmwR5a.s:797    .text:0000000000000304 .L0 
     /tmp/ccMmwR5a.s:798    .text:0000000000000304 .L0 
     /tmp/ccMmwR5a.s:800    .text:0000000000000308 .L0 
     /tmp/ccMmwR5a.s:802    .text:000000000000030c .L0 
     /tmp/ccMmwR5a.s:808    .text:000000000000030c _ZN6Thread8dispatchEv
     /tmp/ccMmwR5a.s:811    .text:000000000000030c .L0 
     /tmp/ccMmwR5a.s:812    .text:000000000000030c .L0 
     /tmp/ccMmwR5a.s:813    .text:0000000000000310 .L0 
     /tmp/ccMmwR5a.s:816    .text:0000000000000318 .L0 
     /tmp/ccMmwR5a.s:817    .text:0000000000000318 .L0 
     /tmp/ccMmwR5a.s:819    .text:000000000000031c .L0 
     /tmp/ccMmwR5a.s:821    .text:000000000000031c .L0 
     /tmp/ccMmwR5a.s:822    .text:000000000000031c .L0 
     /tmp/ccMmwR5a.s:825    .text:0000000000000324 .L0 
     /tmp/ccMmwR5a.s:826    .text:0000000000000328 .L0 
     /tmp/ccMmwR5a.s:828    .text:000000000000032c .L0 
     /tmp/ccMmwR5a.s:829    .text:000000000000032c .L0 
     /tmp/ccMmwR5a.s:831    .text:0000000000000330 .L0 
     /tmp/ccMmwR5a.s:833    .text:0000000000000334 .L0 
     /tmp/ccMmwR5a.s:839    .text:0000000000000334 _ZN6Thread5sleepEm
     /tmp/ccMmwR5a.s:842    .text:0000000000000334 .L0 
     /tmp/ccMmwR5a.s:844    .text:0000000000000334 .L0 
     /tmp/ccMmwR5a.s:845    .text:0000000000000338 .L0 
     /tmp/ccMmwR5a.s:848    .text:0000000000000340 .L0 
     /tmp/ccMmwR5a.s:849    .text:0000000000000340 .L0 
     /tmp/ccMmwR5a.s:851    .text:0000000000000344 .L0 
     /tmp/ccMmwR5a.s:853    .text:0000000000000344 .L0 
     /tmp/ccMmwR5a.s:854    .text:0000000000000344 .L0 
     /tmp/ccMmwR5a.s:857    .text:000000000000034c .L0 
     /tmp/ccMmwR5a.s:858    .text:000000000000034c .L0 
     /tmp/ccMmwR5a.s:860    .text:0000000000000354 .L0 
     /tmp/ccMmwR5a.s:862    .text:0000000000000358 .L0 
     /tmp/ccMmwR5a.s:863    .text:0000000000000358 .L0 
     /tmp/ccMmwR5a.s:865    .text:000000000000035c .L0 
     /tmp/ccMmwR5a.s:867    .text:0000000000000360 .L0 
     /tmp/ccMmwR5a.s:873    .text:0000000000000360 _ZN14PeriodicThread3runEv
GAS LISTING /tmp/ccMmwR5a.s 			page 39


     /tmp/ccMmwR5a.s:876    .text:0000000000000360 .L0 
     /tmp/ccMmwR5a.s:878    .text:0000000000000360 .L0 
     /tmp/ccMmwR5a.s:879    .text:0000000000000364 .L0 
     /tmp/ccMmwR5a.s:883    .text:0000000000000370 .L0 
     /tmp/ccMmwR5a.s:884    .text:0000000000000370 .L0 
     /tmp/ccMmwR5a.s:885    .text:0000000000000370 .L0 
     /tmp/ccMmwR5a.s:887    .text:0000000000000374 .L0 
     /tmp/ccMmwR5a.s:892    .text:0000000000000378 .L0 
     /tmp/ccMmwR5a.s:893    .text:0000000000000378 .L0 
     /tmp/ccMmwR5a.s:894    .text:0000000000000378 .L0 
     /tmp/ccMmwR5a.s:896    .text:000000000000037c .L0 
     /tmp/ccMmwR5a.s:899    .text:0000000000000384 .L0 
     /tmp/ccMmwR5a.s:900    .text:0000000000000384 .L0 
     /tmp/ccMmwR5a.s:903    .text:000000000000038c .L0 
     /tmp/ccMmwR5a.s:907    .text:0000000000000394 .L0 
     /tmp/ccMmwR5a.s:908    .text:0000000000000394 .L0 
     /tmp/ccMmwR5a.s:910    .text:0000000000000398 .L0 
     /tmp/ccMmwR5a.s:913    .text:00000000000003a0 .L0 
     /tmp/ccMmwR5a.s:914    .text:00000000000003a0 .L0 
     /tmp/ccMmwR5a.s:917    .text:00000000000003a8 .L0 
     /tmp/ccMmwR5a.s:920    .text:00000000000003ac .L0 
     /tmp/ccMmwR5a.s:921    .text:00000000000003ac .L0 
     /tmp/ccMmwR5a.s:924    .text:00000000000003b4 .L0 
     /tmp/ccMmwR5a.s:925    .text:00000000000003b8 .L0 
     /tmp/ccMmwR5a.s:927    .text:00000000000003bc .L0 
     /tmp/ccMmwR5a.s:928    .text:00000000000003bc .L0 
     /tmp/ccMmwR5a.s:930    .text:00000000000003c0 .L0 
     /tmp/ccMmwR5a.s:933    .text:00000000000003c4 .L0 
     /tmp/ccMmwR5a.s:935    .text:00000000000003c8 .L0 
     /tmp/ccMmwR5a.s:941    .text:00000000000003c8 _ZN6ThreadC2Ev
     /tmp/ccMmwR5a.s:944    .text:00000000000003c8 .L0 
     /tmp/ccMmwR5a.s:946    .text:00000000000003c8 .L0 
     /tmp/ccMmwR5a.s:947    .text:00000000000003cc .L0 
     /tmp/ccMmwR5a.s:951    .text:00000000000003d8 .L0 
     /tmp/ccMmwR5a.s:952    .text:00000000000003d8 .L0 
     /tmp/ccMmwR5a.s:953    .text:00000000000003d8 .L0 
     /tmp/ccMmwR5a.s:955    .text:00000000000003dc .L0 
     /tmp/ccMmwR5a.s:959    .text:00000000000003e0 .L0 
     /tmp/ccMmwR5a.s:963    .text:00000000000003ec .L0 
     /tmp/ccMmwR5a.s:964    .text:00000000000003ec .L0 
     /tmp/ccMmwR5a.s:967    .text:00000000000003f8 .L0 
     /tmp/ccMmwR5a.s:968    .text:00000000000003f8 .L0 
     /tmp/ccMmwR5a.s:970    .text:00000000000003fc .L0 
     /tmp/ccMmwR5a.s:971    .text:00000000000003fc .L0 
     /tmp/ccMmwR5a.s:978    .text:000000000000040c .L0 
 src/syscall_cpp.cpp:96     .text:000000000000040c .L0 
     /tmp/ccMmwR5a.s:984    .text:0000000000000410 .L0 
     /tmp/ccMmwR5a.s:986    .text:0000000000000410 .L0 
 src/syscall_cpp.cpp:97     .text:0000000000000414 .L0 
     /tmp/ccMmwR5a.s:994    .text:0000000000000418 .L0 
     /tmp/ccMmwR5a.s:996    .text:0000000000000418 .L0 
 src/syscall_cpp.cpp:99     .text:000000000000041c .L0 
     /tmp/ccMmwR5a.s:1003   .text:0000000000000420 .L0 
     /tmp/ccMmwR5a.s:1005   .text:0000000000000420 .L0 
 src/syscall_cpp.cpp:100    .text:0000000000000424 .L0 
     /tmp/ccMmwR5a.s:1013   .text:0000000000000428 .L0 
 src/syscall_cpp.cpp:101    .text:0000000000000428 .L0 
GAS LISTING /tmp/ccMmwR5a.s 			page 40


     /tmp/ccMmwR5a.s:1018   .text:000000000000042c .L0 
 src/syscall_cpp.cpp:108    .text:000000000000042c .L0 
     /tmp/ccMmwR5a.s:1026   .text:0000000000000430 .L0 
     /tmp/ccMmwR5a.s:1027   .text:0000000000000434 .L0 
     /tmp/ccMmwR5a.s:1029   .text:0000000000000438 .L0 
     /tmp/ccMmwR5a.s:1030   .text:0000000000000438 .L0 
     /tmp/ccMmwR5a.s:1032   .text:000000000000043c .L0 
     /tmp/ccMmwR5a.s:1035   .text:0000000000000440 .L0 
     /tmp/ccMmwR5a.s:1037   .text:0000000000000444 .L0 
     /tmp/ccMmwR5a.s:941    .text:00000000000003c8 _ZN6ThreadC1Ev
     /tmp/ccMmwR5a.s:1045   .text:0000000000000444 _ZN9SemaphoreC2Ej
     /tmp/ccMmwR5a.s:1048   .text:0000000000000444 .L0 
     /tmp/ccMmwR5a.s:1050   .text:0000000000000444 .L0 
     /tmp/ccMmwR5a.s:1051   .text:0000000000000448 .L0 
     /tmp/ccMmwR5a.s:1054   .text:0000000000000450 .L0 
     /tmp/ccMmwR5a.s:1055   .text:0000000000000450 .L0 
     /tmp/ccMmwR5a.s:1057   .text:0000000000000454 .L0 
     /tmp/ccMmwR5a.s:1060   .text:0000000000000454 .L0 
     /tmp/ccMmwR5a.s:1063   .text:0000000000000460 .L0 
     /tmp/ccMmwR5a.s:1064   .text:0000000000000460 .L0 
     /tmp/ccMmwR5a.s:1070   .text:000000000000046c .L0 
     /tmp/ccMmwR5a.s:1071   .text:0000000000000470 .L0 
     /tmp/ccMmwR5a.s:1073   .text:0000000000000474 .L0 
     /tmp/ccMmwR5a.s:1074   .text:0000000000000474 .L0 
     /tmp/ccMmwR5a.s:1076   .text:0000000000000478 .L0 
     /tmp/ccMmwR5a.s:1078   .text:000000000000047c .L0 
     /tmp/ccMmwR5a.s:1045   .text:0000000000000444 _ZN9SemaphoreC1Ej
     /tmp/ccMmwR5a.s:1086   .text:000000000000047c _ZN9Semaphore4waitEv
     /tmp/ccMmwR5a.s:1089   .text:000000000000047c .L0 
     /tmp/ccMmwR5a.s:1091   .text:000000000000047c .L0 
     /tmp/ccMmwR5a.s:1092   .text:0000000000000480 .L0 
     /tmp/ccMmwR5a.s:1095   .text:0000000000000488 .L0 
     /tmp/ccMmwR5a.s:1096   .text:0000000000000488 .L0 
     /tmp/ccMmwR5a.s:1098   .text:000000000000048c .L0 
     /tmp/ccMmwR5a.s:1100   .text:000000000000048c .L0 
     /tmp/ccMmwR5a.s:1101   .text:000000000000048c .L0 
     /tmp/ccMmwR5a.s:1106   .text:0000000000000498 .L0 
     /tmp/ccMmwR5a.s:1107   .text:000000000000049c .L0 
     /tmp/ccMmwR5a.s:1109   .text:00000000000004a0 .L0 
     /tmp/ccMmwR5a.s:1110   .text:00000000000004a0 .L0 
     /tmp/ccMmwR5a.s:1112   .text:00000000000004a4 .L0 
     /tmp/ccMmwR5a.s:1114   .text:00000000000004a8 .L0 
     /tmp/ccMmwR5a.s:1120   .text:00000000000004a8 _ZN9Semaphore6signalEv
     /tmp/ccMmwR5a.s:1123   .text:00000000000004a8 .L0 
     /tmp/ccMmwR5a.s:1125   .text:00000000000004a8 .L0 
     /tmp/ccMmwR5a.s:1126   .text:00000000000004ac .L0 
     /tmp/ccMmwR5a.s:1129   .text:00000000000004b4 .L0 
     /tmp/ccMmwR5a.s:1130   .text:00000000000004b4 .L0 
     /tmp/ccMmwR5a.s:1132   .text:00000000000004b8 .L0 
     /tmp/ccMmwR5a.s:1134   .text:00000000000004b8 .L0 
     /tmp/ccMmwR5a.s:1135   .text:00000000000004b8 .L0 
     /tmp/ccMmwR5a.s:1140   .text:00000000000004c4 .L0 
     /tmp/ccMmwR5a.s:1141   .text:00000000000004c8 .L0 
     /tmp/ccMmwR5a.s:1143   .text:00000000000004cc .L0 
     /tmp/ccMmwR5a.s:1144   .text:00000000000004cc .L0 
     /tmp/ccMmwR5a.s:1146   .text:00000000000004d0 .L0 
     /tmp/ccMmwR5a.s:1148   .text:00000000000004d4 .L0 
GAS LISTING /tmp/ccMmwR5a.s 			page 41


     /tmp/ccMmwR5a.s:1154   .text:00000000000004d4 _ZN14PeriodicThread9terminateEv
     /tmp/ccMmwR5a.s:1157   .text:00000000000004d4 .L0 
     /tmp/ccMmwR5a.s:1159   .text:00000000000004d4 .L0 
     /tmp/ccMmwR5a.s:1160   .text:00000000000004d8 .L0 
     /tmp/ccMmwR5a.s:1162   .text:00000000000004dc .L0 
     /tmp/ccMmwR5a.s:1164   .text:00000000000004e0 .L0 
     /tmp/ccMmwR5a.s:1166   .text:00000000000004e0 .L0 
     /tmp/ccMmwR5a.s:1167   .text:00000000000004e0 .L0 
     /tmp/ccMmwR5a.s:1170   .text:00000000000004e8 .L0 
     /tmp/ccMmwR5a.s:1171   .text:00000000000004ec .L0 
     /tmp/ccMmwR5a.s:1172   .text:00000000000004ec .L0 
     /tmp/ccMmwR5a.s:1174   .text:00000000000004f0 .L0 
     /tmp/ccMmwR5a.s:1176   .text:00000000000004f4 .L0 
     /tmp/ccMmwR5a.s:1182   .text:00000000000004f4 _ZN14PeriodicThreadC2Em
     /tmp/ccMmwR5a.s:1185   .text:00000000000004f4 .L0 
     /tmp/ccMmwR5a.s:1187   .text:00000000000004f4 .L0 
     /tmp/ccMmwR5a.s:1188   .text:00000000000004f8 .L0 
     /tmp/ccMmwR5a.s:1193   .text:0000000000000508 .L0 
     /tmp/ccMmwR5a.s:1194   .text:0000000000000508 .L0 
     /tmp/ccMmwR5a.s:1195   .text:0000000000000508 .L0 
     /tmp/ccMmwR5a.s:1196   .text:0000000000000508 .L0 
     /tmp/ccMmwR5a.s:1198   .text:000000000000050c .L0 
     /tmp/ccMmwR5a.s:1203   .text:0000000000000514 .L0 
     /tmp/ccMmwR5a.s:1210   .text:000000000000052c .L0 
     /tmp/ccMmwR5a.s:1211   .text:000000000000052c .L0 
     /tmp/ccMmwR5a.s:1212   .text:0000000000000530 .L0 
     /tmp/ccMmwR5a.s:1214   .text:0000000000000534 .L0 
     /tmp/ccMmwR5a.s:1215   .text:0000000000000534 .L0 
     /tmp/ccMmwR5a.s:1217   .text:0000000000000538 .L0 
     /tmp/ccMmwR5a.s:1220   .text:000000000000053c .L0 
     /tmp/ccMmwR5a.s:1223   .text:0000000000000540 .L0 
     /tmp/ccMmwR5a.s:1225   .text:0000000000000544 .L0 
     /tmp/ccMmwR5a.s:1182   .text:00000000000004f4 _ZN14PeriodicThreadC1Em
     /tmp/ccMmwR5a.s:1233   .text:0000000000000544 _ZN7Console4getcEv
     /tmp/ccMmwR5a.s:1236   .text:0000000000000544 .L0 
     /tmp/ccMmwR5a.s:1237   .text:0000000000000544 .L0 
     /tmp/ccMmwR5a.s:1238   .text:0000000000000548 .L0 
     /tmp/ccMmwR5a.s:1241   .text:0000000000000550 .L0 
     /tmp/ccMmwR5a.s:1242   .text:0000000000000550 .L0 
     /tmp/ccMmwR5a.s:1244   .text:0000000000000554 .L0 
     /tmp/ccMmwR5a.s:1246   .text:0000000000000554 .L0 
     /tmp/ccMmwR5a.s:1247   .text:0000000000000554 .L0 
     /tmp/ccMmwR5a.s:1250   .text:000000000000055c .L0 
     /tmp/ccMmwR5a.s:1251   .text:0000000000000560 .L0 
     /tmp/ccMmwR5a.s:1253   .text:0000000000000564 .L0 
     /tmp/ccMmwR5a.s:1254   .text:0000000000000564 .L0 
     /tmp/ccMmwR5a.s:1256   .text:0000000000000568 .L0 
     /tmp/ccMmwR5a.s:1258   .text:000000000000056c .L0 
     /tmp/ccMmwR5a.s:1264   .text:000000000000056c _ZN7Console4putcEc
     /tmp/ccMmwR5a.s:1267   .text:000000000000056c .L0 
     /tmp/ccMmwR5a.s:1269   .text:000000000000056c .L0 
     /tmp/ccMmwR5a.s:1270   .text:0000000000000570 .L0 
     /tmp/ccMmwR5a.s:1273   .text:0000000000000578 .L0 
     /tmp/ccMmwR5a.s:1274   .text:0000000000000578 .L0 
     /tmp/ccMmwR5a.s:1276   .text:000000000000057c .L0 
     /tmp/ccMmwR5a.s:1278   .text:000000000000057c .L0 
     /tmp/ccMmwR5a.s:1279   .text:000000000000057c .L0 
GAS LISTING /tmp/ccMmwR5a.s 			page 42


     /tmp/ccMmwR5a.s:1282   .text:0000000000000584 .L0 
     /tmp/ccMmwR5a.s:1283   .text:0000000000000588 .L0 
     /tmp/ccMmwR5a.s:1285   .text:000000000000058c .L0 
     /tmp/ccMmwR5a.s:1286   .text:000000000000058c .L0 
     /tmp/ccMmwR5a.s:1288   .text:0000000000000590 .L0 
     /tmp/ccMmwR5a.s:1290   .text:0000000000000594 .L0 
     /tmp/ccMmwR5a.s:32     .text._ZN6Thread3runEv:0000000000000018 .L0 
     /tmp/ccMmwR5a.s:57     .text._ZN14PeriodicThread18periodicActivationEv:0000000000000018 .L0 
     /tmp/ccMmwR5a.s:1331   .text:0000000000000594 .L0 
     /tmp/ccMmwR5a.s:188    .text._ZN14PeriodicThreadD2Ev:0000000000000034 .L0 
     /tmp/ccMmwR5a.s:491    .text._ZN14PeriodicThreadD0Ev:000000000000004c .L0 
     /tmp/ccMmwR5a.s:75     .text:000000000000000c .L0 
     /tmp/ccMmwR5a.s:212    .text:0000000000000080 .L0 
     /tmp/ccMmwR5a.s:599    .text:0000000000000228 .L0 
     /tmp/ccMmwR5a.s:611    .text:000000000000023c .L0 
     /tmp/ccMmwR5a.s:959    .text:00000000000003e0 .L0 
     /tmp/ccMmwR5a.s:964    .text:00000000000003ec .L0 
     /tmp/ccMmwR5a.s:1060   .text:0000000000000454 .L0 
     /tmp/ccMmwR5a.s:1205   .text:000000000000051c .L0 
     /tmp/ccMmwR5a.s:146    .text:0000000000000064 .L10
     /tmp/ccMmwR5a.s:274    .text:00000000000000cc .L15
     /tmp/ccMmwR5a.s:263    .text:00000000000000c0 .L17
     /tmp/ccMmwR5a.s:226    .text:00000000000000a0 .L18
     /tmp/ccMmwR5a.s:681    .text:0000000000000290 .L37
     /tmp/ccMmwR5a.s:621    .text:0000000000000258 .L36
     /tmp/ccMmwR5a.s:757    .text:00000000000002d0 .L41
     /tmp/ccMmwR5a.s:764    .text:00000000000002d8 .L42
     /tmp/ccMmwR5a.s:747    .text:00000000000002c4 .L40
     /tmp/ccMmwR5a.s:918    .text:00000000000003ac .L51
     /tmp/ccMmwR5a.s:890    .text:0000000000000378 .L52
     /tmp/ccMmwR5a.s:170    .text._ZN14PeriodicThreadD2Ev:0000000000000010 .L0 
     /tmp/ccMmwR5a.s:468    .text._ZN14PeriodicThreadD0Ev:0000000000000018 .L0 
     /tmp/ccMmwR5a.s:3761   .debug_abbrev:0000000000000000 .Ldebug_abbrev0
     /tmp/ccMmwR5a.s:6097   .debug_str:0000000000000a52 .LASF214
     /tmp/ccMmwR5a.s:5909   .debug_str:00000000000004c9 .LASF215
     /tmp/ccMmwR5a.s:6045   .debug_str:00000000000008d6 .LASF216
     /tmp/ccMmwR5a.s:5719   .debug_ranges:0000000000000000 .Ldebug_ranges0
     /tmp/ccMmwR5a.s:5739   .debug_line:0000000000000000 .Ldebug_line0
     /tmp/ccMmwR5a.s:6017   .debug_str:0000000000000807 .LASF3
     /tmp/ccMmwR5a.s:5895   .debug_str:0000000000000466 .LASF0
     /tmp/ccMmwR5a.s:5927   .debug_str:000000000000054b .LASF1
     /tmp/ccMmwR5a.s:6031   .debug_str:000000000000087a .LASF2
     /tmp/ccMmwR5a.s:6041   .debug_str:00000000000008b4 .LASF4
     /tmp/ccMmwR5a.s:5911   .debug_str:00000000000004dd .LASF5
     /tmp/ccMmwR5a.s:5757   .debug_str:0000000000000094 .LASF6
     /tmp/ccMmwR5a.s:5995   .debug_str:000000000000075b .LASF7
     /tmp/ccMmwR5a.s:5989   .debug_str:0000000000000720 .LASF8
     /tmp/ccMmwR5a.s:5919   .debug_str:000000000000051b .LASF9
     /tmp/ccMmwR5a.s:5865   .debug_str:000000000000037e .LASF10
     /tmp/ccMmwR5a.s:5877   .debug_str:00000000000003e3 .LASF11
     /tmp/ccMmwR5a.s:5797   .debug_str:00000000000001bc .LASF12
     /tmp/ccMmwR5a.s:5857   .debug_str:000000000000034d .LASF13
     /tmp/ccMmwR5a.s:5813   .debug_str:0000000000000229 .LASF14
     /tmp/ccMmwR5a.s:5795   .debug_str:00000000000001ac .LASF15
     /tmp/ccMmwR5a.s:6071   .debug_str:00000000000009ae .LASF16
     /tmp/ccMmwR5a.s:5845   .debug_str:00000000000002ee .LASF17
     /tmp/ccMmwR5a.s:6061   .debug_str:0000000000000964 .LASF18
GAS LISTING /tmp/ccMmwR5a.s 			page 43


     /tmp/ccMmwR5a.s:6141   .debug_str:0000000000000c47 .LASF19
     /tmp/ccMmwR5a.s:6051   .debug_str:0000000000000911 .LASF217
     /tmp/ccMmwR5a.s:6001   .debug_str:000000000000078b .LASF20
     /tmp/ccMmwR5a.s:5827   .debug_str:00000000000002a3 .LASF21
     /tmp/ccMmwR5a.s:5945   .debug_str:00000000000005df .LASF22
     /tmp/ccMmwR5a.s:5759   .debug_str:000000000000009b .LASF23
     /tmp/ccMmwR5a.s:5805   .debug_str:00000000000001ec .LASF24
     /tmp/ccMmwR5a.s:5785   .debug_str:0000000000000166 .LASF25
     /tmp/ccMmwR5a.s:6077   .debug_str:00000000000009d9 .LASF104
     /tmp/ccMmwR5a.s:6069   .debug_str:00000000000009a1 .LASF26
     /tmp/ccMmwR5a.s:6153   .debug_str:0000000000000cb3 .LASF28
     /tmp/ccMmwR5a.s:5983   .debug_str:0000000000000704 .LASF218
     /tmp/ccMmwR5a.s:5801   .debug_str:00000000000001d0 .LASF27
     /tmp/ccMmwR5a.s:5879   .debug_str:00000000000003f1 .LASF29
     /tmp/ccMmwR5a.s:5897   .debug_str:0000000000000473 .LASF30
     /tmp/ccMmwR5a.s:5943   .debug_str:00000000000005cb .LASF32
     /tmp/ccMmwR5a.s:5935   .debug_str:000000000000057f .LASF31
     /tmp/ccMmwR5a.s:6013   .debug_str:00000000000007df .LASF33
     /tmp/ccMmwR5a.s:6005   .debug_str:00000000000007ae .LASF34
     /tmp/ccMmwR5a.s:5947   .debug_str:00000000000005e7 .LASF35
     /tmp/ccMmwR5a.s:6151   .debug_str:0000000000000c9b .LASF36
     /tmp/ccMmwR5a.s:6155   .debug_str:0000000000000cd5 .LASF37
     /tmp/ccMmwR5a.s:5867   .debug_str:000000000000038e .LASF38
     /tmp/ccMmwR5a.s:6057   .debug_str:000000000000093b .LASF40
     /tmp/ccMmwR5a.s:5743   .debug_str:000000000000002a .LASF42
     /tmp/ccMmwR5a.s:6085   .debug_str:00000000000009f6 .LASF44
     /tmp/ccMmwR5a.s:6125   .debug_str:0000000000000be6 .LASF39
     /tmp/ccMmwR5a.s:5979   .debug_str:00000000000006de .LASF41
     /tmp/ccMmwR5a.s:6123   .debug_str:0000000000000bdb .LASF43
     /tmp/ccMmwR5a.s:5859   .debug_str:000000000000035c .LASF45
     /tmp/ccMmwR5a.s:6143   .debug_str:0000000000000c50 .LASF46
     /tmp/ccMmwR5a.s:6043   .debug_str:00000000000008bb .LASF47
     /tmp/ccMmwR5a.s:5835   .debug_str:00000000000002bd .LASF48
     /tmp/ccMmwR5a.s:5809   .debug_str:0000000000000204 .LASF50
     /tmp/ccMmwR5a.s:6133   .debug_str:0000000000000c1d .LASF49
     /tmp/ccMmwR5a.s:5765   .debug_str:00000000000000d2 .LASF51
     /tmp/ccMmwR5a.s:5871   .debug_str:00000000000003b9 .LASF52
     /tmp/ccMmwR5a.s:6019   .debug_str:000000000000080c .LASF53
     /tmp/ccMmwR5a.s:6179   .debug_str:0000000000000d8d .LASF54
     /tmp/ccMmwR5a.s:5873   .debug_str:00000000000003c4 .LASF55
     /tmp/ccMmwR5a.s:5747   .debug_str:000000000000003c .LASF56
     /tmp/ccMmwR5a.s:5975   .debug_str:00000000000006c9 .LASF57
     /tmp/ccMmwR5a.s:6165   .debug_str:0000000000000d25 .LASF219
     /tmp/ccMmwR5a.s:6117   .debug_str:0000000000000ba9 .LASF58
     /tmp/ccMmwR5a.s:5793   .debug_str:000000000000019d .LASF59
     /tmp/ccMmwR5a.s:6173   .debug_str:0000000000000d65 .LASF60
     /tmp/ccMmwR5a.s:6129   .debug_str:0000000000000c00 .LASF61
     /tmp/ccMmwR5a.s:6103   .debug_str:0000000000000b40 .LASF62
     /tmp/ccMmwR5a.s:6095   .debug_str:0000000000000a42 .LASF63
     /tmp/ccMmwR5a.s:5987   .debug_str:0000000000000714 .LASF64
     /tmp/ccMmwR5a.s:5851   .debug_str:000000000000032b .LASF65
     /tmp/ccMmwR5a.s:6039   .debug_str:00000000000008a6 .LASF66
     /tmp/ccMmwR5a.s:6139   .debug_str:0000000000000c40 .LASF67
     /tmp/ccMmwR5a.s:5963   .debug_str:000000000000066c .LASF68
     /tmp/ccMmwR5a.s:6181   .debug_str:0000000000000d9a .LASF69
     /tmp/ccMmwR5a.s:6093   .debug_str:0000000000000a3a .LASF70
     /tmp/ccMmwR5a.s:5789   .debug_str:000000000000017f .LASF71
GAS LISTING /tmp/ccMmwR5a.s 			page 44


     /tmp/ccMmwR5a.s:5821   .debug_str:0000000000000268 .LASF97
     /tmp/ccMmwR5a.s:5751   .debug_str:0000000000000054 .LASF110
     /tmp/ccMmwR5a.s:6163   .debug_str:0000000000000d1f .LASF72
     /tmp/ccMmwR5a.s:6063   .debug_str:000000000000097a .LASF73
     /tmp/ccMmwR5a.s:5925   .debug_str:0000000000000543 .LASF74
     /tmp/ccMmwR5a.s:5973   .debug_str:00000000000006b6 .LASF75
     /tmp/ccMmwR5a.s:5837   .debug_str:00000000000002c6 .LASF76
     /tmp/ccMmwR5a.s:5841   .debug_str:00000000000002d1 .LASF77
     /tmp/ccMmwR5a.s:6075   .debug_str:00000000000009d2 .LASF78
     /tmp/ccMmwR5a.s:5775   .debug_str:000000000000012a .LASF79
     /tmp/ccMmwR5a.s:5831   .debug_str:00000000000002af .LASF80
     /tmp/ccMmwR5a.s:5965   .debug_str:0000000000000678 .LASF81
     /tmp/ccMmwR5a.s:5843   .debug_str:00000000000002e1 .LASF82
     /tmp/ccMmwR5a.s:5753   .debug_str:000000000000007c .LASF83
     /tmp/ccMmwR5a.s:5985   .debug_str:0000000000000709 .LASF84
     /tmp/ccMmwR5a.s:6113   .debug_str:0000000000000b85 .LASF85
     /tmp/ccMmwR5a.s:6107   .debug_str:0000000000000b5f .LASF86
     /tmp/ccMmwR5a.s:5771   .debug_str:00000000000000ff .LASF87
     /tmp/ccMmwR5a.s:5893   .debug_str:0000000000000460 .LASF88
     /tmp/ccMmwR5a.s:6089   .debug_str:0000000000000a13 .LASF89
     /tmp/ccMmwR5a.s:5749   .debug_str:000000000000004c .LASF90
     /tmp/ccMmwR5a.s:5761   .debug_str:00000000000000a3 .LASF91
     /tmp/ccMmwR5a.s:6149   .debug_str:0000000000000c8e .LASF92
     /tmp/ccMmwR5a.s:6121   .debug_str:0000000000000bcb .LASF93
     /tmp/ccMmwR5a.s:6035   .debug_str:0000000000000897 .LASF94
     /tmp/ccMmwR5a.s:5921   .debug_str:000000000000052e .LASF95
     /tmp/ccMmwR5a.s:5977   .debug_str:00000000000006d6 .LASF96
     /tmp/ccMmwR5a.s:5839   .debug_str:00000000000002cb .LASF98
     /tmp/ccMmwR5a.s:6115   .debug_str:0000000000000b9c .LASF220
     /tmp/ccMmwR5a.s:5949   .debug_str:00000000000005f9 .LASF99
     /tmp/ccMmwR5a.s:6161   .debug_str:0000000000000d1a .LASF100
     /tmp/ccMmwR5a.s:5825   .debug_str:0000000000000290 .LASF101
     /tmp/ccMmwR5a.s:5953   .debug_str:000000000000060d .LASF127
     /tmp/ccMmwR5a.s:6159   .debug_str:0000000000000d07 .LASF128
     /tmp/ccMmwR5a.s:6081   .debug_str:00000000000009e7 .LASF102
     /tmp/ccMmwR5a.s:5967   .debug_str:000000000000068e .LASF103
     /tmp/ccMmwR5a.s:5829   .debug_str:00000000000002aa .LASF105
     /tmp/ccMmwR5a.s:5863   .debug_str:0000000000000379 .LASF106
     /tmp/ccMmwR5a.s:5799   .debug_str:00000000000001cb .LASF107
     /tmp/ccMmwR5a.s:5849   .debug_str:000000000000030d .LASF108
     /tmp/ccMmwR5a.s:5823   .debug_str:0000000000000276 .LASF109
     /tmp/ccMmwR5a.s:6003   .debug_str:0000000000000793 .LASF111
     /tmp/ccMmwR5a.s:6127   .debug_str:0000000000000bfa .LASF112
     /tmp/ccMmwR5a.s:5923   .debug_str:000000000000053e .LASF113
     /tmp/ccMmwR5a.s:5781   .debug_str:0000000000000148 .LASF114
     /tmp/ccMmwR5a.s:6073   .debug_str:00000000000009ba .LASF115
     /tmp/ccMmwR5a.s:5991   .debug_str:0000000000000733 .LASF144
     /tmp/ccMmwR5a.s:5913   .debug_str:00000000000004ef .LASF116
     /tmp/ccMmwR5a.s:5817   .debug_str:000000000000024e .LASF117
     /tmp/ccMmwR5a.s:5901   .debug_str:000000000000048e .LASF118
     /tmp/ccMmwR5a.s:5763   .debug_str:00000000000000b6 .LASF119
     /tmp/ccMmwR5a.s:5929   .debug_str:000000000000055e .LASF120
     /tmp/ccMmwR5a.s:5961   .debug_str:000000000000064d .LASF121
     /tmp/ccMmwR5a.s:5783   .debug_str:000000000000015d .LASF122
     /tmp/ccMmwR5a.s:5959   .debug_str:0000000000000631 .LASF123
     /tmp/ccMmwR5a.s:5745   .debug_str:0000000000000035 .LASF124
     /tmp/ccMmwR5a.s:5939   .debug_str:000000000000059e .LASF125
GAS LISTING /tmp/ccMmwR5a.s 			page 45


     /tmp/ccMmwR5a.s:5815   .debug_str:0000000000000239 .LASF126
     /tmp/ccMmwR5a.s:6145   .debug_str:0000000000000c5e .LASF129
     /tmp/ccMmwR5a.s:6109   .debug_str:0000000000000b6b .LASF130
     /tmp/ccMmwR5a.s:5807   .debug_str:00000000000001f5 .LASF131
     /tmp/ccMmwR5a.s:6119   .debug_str:0000000000000bb1 .LASF132
     /tmp/ccMmwR5a.s:5903   .debug_str:0000000000000496 .LASF133
     /tmp/ccMmwR5a.s:6083   .debug_str:00000000000009ec .LASF134
     /tmp/ccMmwR5a.s:5869   .debug_str:0000000000000399 .LASF135
     /tmp/ccMmwR5a.s:5917   .debug_str:0000000000000503 .LASF136
     /tmp/ccMmwR5a.s:5875   .debug_str:00000000000003d0 .LASF137
     /tmp/ccMmwR5a.s:5741   .debug_str:0000000000000000 .LASF221
     /tmp/ccMmwR5a.s:6147   .debug_str:0000000000000c74 .LASF154
     /tmp/ccMmwR5a.s:5779   .debug_str:0000000000000141 .LASF138
     /tmp/ccMmwR5a.s:5971   .debug_str:00000000000006a6 .LASF139
     /tmp/ccMmwR5a.s:6131   .debug_str:0000000000000c05 .LASF222
     /tmp/ccMmwR5a.s:5885   .debug_str:000000000000042f .LASF140
     /tmp/ccMmwR5a.s:5811   .debug_str:0000000000000217 .LASF141
     /tmp/ccMmwR5a.s:6025   .debug_str:000000000000084e .LASF161
     /tmp/ccMmwR5a.s:6185   .debug_str:0000000000000db2 .LASF142
     /tmp/ccMmwR5a.s:6055   .debug_str:0000000000000933 .LASF143
     /tmp/ccMmwR5a.s:5853   .debug_str:0000000000000338 .LASF145
     /tmp/ccMmwR5a.s:6171   .debug_str:0000000000000d5f .LASF146
     /tmp/ccMmwR5a.s:5933   .debug_str:000000000000056c .LASF147
     /tmp/ccMmwR5a.s:6087   .debug_str:0000000000000a0e .LASF148
     /tmp/ccMmwR5a.s:5999   .debug_str:0000000000000779 .LASF149
     /tmp/ccMmwR5a.s:6167   .debug_str:0000000000000d3b .LASF150
     /tmp/ccMmwR5a.s:5931   .debug_str:0000000000000566 .LASF151
     /tmp/ccMmwR5a.s:6099   .debug_str:0000000000000b16 .LASF152
     /tmp/ccMmwR5a.s:5905   .debug_str:00000000000004b1 .LASF153
     /tmp/ccMmwR5a.s:5889   .debug_str:000000000000043f .LASF155
     /tmp/ccMmwR5a.s:5847   .debug_str:0000000000000304 .LASF156
     /tmp/ccMmwR5a.s:5833   .debug_str:00000000000002b8 .LASF157
     /tmp/ccMmwR5a.s:6091   .debug_str:0000000000000a24 .LASF158
     /tmp/ccMmwR5a.s:6065   .debug_str:000000000000097f .LASF159
     /tmp/ccMmwR5a.s:6023   .debug_str:0000000000000839 .LASF160
     /tmp/ccMmwR5a.s:6175   .debug_str:0000000000000d6b .LASF162
     /tmp/ccMmwR5a.s:6135   .debug_str:0000000000000c25 .LASF163
     /tmp/ccMmwR5a.s:6009   .debug_str:00000000000007ca .LASF164
     /tmp/ccMmwR5a.s:6047   .debug_str:00000000000008f4 .LASF165
     /tmp/ccMmwR5a.s:6105   .debug_str:0000000000000b4a .LASF166
     /tmp/ccMmwR5a.s:5997   .debug_str:0000000000000762 .LASF167
     /tmp/ccMmwR5a.s:5891   .debug_str:0000000000000450 .LASF223
     /tmp/ccMmwR5a.s:5861   .debug_str:0000000000000374 .LASF168
     /tmp/ccMmwR5a.s:5755   .debug_str:000000000000008a .LASF169
     /tmp/ccMmwR5a.s:6187   .debug_str:0000000000000dc9 .LASF170
     /tmp/ccMmwR5a.s:449    .text._ZN14PeriodicThreadD0Ev:0000000000000000 .LFB82
     /tmp/ccMmwR5a.s:489    .text._ZN14PeriodicThreadD0Ev:000000000000004c .LFE82
     /tmp/ccMmwR5a.s:5177   .debug_loc:0000000000000000 .LLST10
     /tmp/ccMmwR5a.s:465    .text._ZN14PeriodicThreadD0Ev:0000000000000018 .LBB46
     /tmp/ccMmwR5a.s:473    .text._ZN14PeriodicThreadD0Ev:000000000000002c .LBE46
     /tmp/ccMmwR5a.s:5195   .debug_loc:000000000000004c .LLST11
     /tmp/ccMmwR5a.s:471    .text._ZN14PeriodicThreadD0Ev:000000000000002c .LVL30
     /tmp/ccMmwR5a.s:476    .text._ZN14PeriodicThreadD0Ev:0000000000000038 .LVL31
     /tmp/ccMmwR5a.s:6029   .debug_str:0000000000000862 .LASF171
     /tmp/ccMmwR5a.s:156    .text._ZN14PeriodicThreadD2Ev:0000000000000000 .LFB80
     /tmp/ccMmwR5a.s:184    .text._ZN14PeriodicThreadD2Ev:0000000000000034 .LFE80
     /tmp/ccMmwR5a.s:5206   .debug_loc:0000000000000082 .LLST2
GAS LISTING /tmp/ccMmwR5a.s 			page 46


     /tmp/ccMmwR5a.s:173    .text._ZN14PeriodicThreadD2Ev:0000000000000024 .LVL8
     /tmp/ccMmwR5a.s:1265   .text:000000000000056c .LFB78
     /tmp/ccMmwR5a.s:1291   .text:0000000000000594 .LFE78
     /tmp/ccMmwR5a.s:5220   .debug_loc:00000000000000bb .LLST31
     /tmp/ccMmwR5a.s:1280   .text:0000000000000584 .LVL92
     /tmp/ccMmwR5a.s:1234   .text:0000000000000544 .LFB77
     /tmp/ccMmwR5a.s:1259   .text:000000000000056c .LFE77
     /tmp/ccMmwR5a.s:1248   .text:000000000000055c .LVL90
     /tmp/ccMmwR5a.s:874    .text:0000000000000360 .LFB76
     /tmp/ccMmwR5a.s:936    .text:00000000000003c8 .LFE76
     /tmp/ccMmwR5a.s:5234   .debug_loc:00000000000000f4 .LLST22
     /tmp/ccMmwR5a.s:905    .text:0000000000000394 .LVL65
     /tmp/ccMmwR5a.s:915    .text:00000000000003a8 .LVL66
     /tmp/ccMmwR5a.s:922    .text:00000000000003b4 .LVL67
     /tmp/ccMmwR5a.s:6067   .debug_str:0000000000000989 .LASF172
     /tmp/ccMmwR5a.s:1183   .text:00000000000004f4 .LFB74
     /tmp/ccMmwR5a.s:1226   .text:0000000000000544 .LFE74
     /tmp/ccMmwR5a.s:5252   .debug_loc:0000000000000140 .LLST29
     /tmp/ccMmwR5a.s:5270   .debug_loc:000000000000018c .LLST30
     /tmp/ccMmwR5a.s:1204   .text:000000000000051c .LVL87
     /tmp/ccMmwR5a.s:1155   .text:00000000000004d4 .LFB72
     /tmp/ccMmwR5a.s:1177   .text:00000000000004f4 .LFE72
     /tmp/ccMmwR5a.s:1121   .text:00000000000004a8 .LFB71
     /tmp/ccMmwR5a.s:1149   .text:00000000000004d4 .LFE71
     /tmp/ccMmwR5a.s:5289   .debug_loc:00000000000001d9 .LLST28
     /tmp/ccMmwR5a.s:1138   .text:00000000000004c4 .LVL84
     /tmp/ccMmwR5a.s:1087   .text:000000000000047c .LFB70
     /tmp/ccMmwR5a.s:1115   .text:00000000000004a8 .LFE70
     /tmp/ccMmwR5a.s:5303   .debug_loc:0000000000000212 .LLST27
     /tmp/ccMmwR5a.s:1104   .text:0000000000000498 .LVL81
     /tmp/ccMmwR5a.s:5937   .debug_str:000000000000058c .LASF173
     /tmp/ccMmwR5a.s:496    .text:0000000000000198 .LFB69
     /tmp/ccMmwR5a.s:529    .text:00000000000001d8 .LFE69
     /tmp/ccMmwR5a.s:5317   .debug_loc:000000000000024b .LLST12
     /tmp/ccMmwR5a.s:513    .text:00000000000001b8 .LVL34
     /tmp/ccMmwR5a.s:516    .text:00000000000001c4 .LVL35
     /tmp/ccMmwR5a.s:5767   .debug_str:00000000000000e4 .LASF174
     /tmp/ccMmwR5a.s:193    .text:0000000000000068 .LFB67
     /tmp/ccMmwR5a.s:288    .text:00000000000000e0 .LFE67
     /tmp/ccMmwR5a.s:5335   .debug_loc:0000000000000297 .LLST3
     /tmp/ccMmwR5a.s:227    .text:00000000000000a0 .LBB38
     /tmp/ccMmwR5a.s:269    .text:00000000000000c0 .LBE38
     /tmp/ccMmwR5a.s:228    .text:00000000000000a0 .LBB39
     /tmp/ccMmwR5a.s:268    .text:00000000000000c0 .LBE39
     /tmp/ccMmwR5a.s:234    .text:00000000000000a0 .LBB41
     /tmp/ccMmwR5a.s:240    .text:00000000000000a4 .LBE41
     /tmp/ccMmwR5a.s:243    .text:00000000000000a8 .LBB43
     /tmp/ccMmwR5a.s:266    .text:00000000000000c0 .LBE43
     /tmp/ccMmwR5a.s:5353   .debug_loc:00000000000002e3 .LLST4
     /tmp/ccMmwR5a.s:255    .text:00000000000000b4 .LBB44
     /tmp/ccMmwR5a.s:265    .text:00000000000000c0 .LBE44
     /tmp/ccMmwR5a.s:5360   .debug_loc:0000000000000306 .LLST5
     /tmp/ccMmwR5a.s:260    .text:00000000000000bc .LVL16
     /tmp/ccMmwR5a.s:219    .text:0000000000000098 .LVL11
     /tmp/ccMmwR5a.s:273    .text:00000000000000cc .LVL17
     /tmp/ccMmwR5a.s:5791   .debug_str:0000000000000190 .LASF190
     /tmp/ccMmwR5a.s:5777   .debug_str:000000000000013c .LASF175
GAS LISTING /tmp/ccMmwR5a.s 			page 47


     /tmp/ccMmwR5a.s:5803   .debug_str:00000000000001da .LASF176
     /tmp/ccMmwR5a.s:1046   .text:0000000000000444 .LFB61
     /tmp/ccMmwR5a.s:1079   .text:000000000000047c .LFE61
     /tmp/ccMmwR5a.s:5367   .debug_loc:0000000000000329 .LLST25
     /tmp/ccMmwR5a.s:5387   .debug_loc:0000000000000377 .LLST26
     /tmp/ccMmwR5a.s:1067   .text:000000000000046c .LVL78
     /tmp/ccMmwR5a.s:114    .text:0000000000000034 .LFB59
     /tmp/ccMmwR5a.s:149    .text:0000000000000068 .LFE59
     /tmp/ccMmwR5a.s:6027   .debug_str:000000000000085b .LASF177
     /tmp/ccMmwR5a.s:5401   .debug_loc:00000000000003b0 .LLST1
     /tmp/ccMmwR5a.s:135    .text:0000000000000054 .LVL5
     /tmp/ccMmwR5a.s:6033   .debug_str:0000000000000888 .LASF178
     /tmp/ccMmwR5a.s:942    .text:00000000000003c8 .LFB57
     /tmp/ccMmwR5a.s:1038   .text:0000000000000444 .LFE57
     /tmp/ccMmwR5a.s:5419   .debug_loc:00000000000003fc .LLST23
     /tmp/ccMmwR5a.s:974    .text:0000000000000408 .LVL71
     /tmp/ccMmwR5a.s:961    .text:00000000000003ec .LBB55
     /tmp/ccMmwR5a.s:1023   .text:0000000000000430 .LBE55
     /tmp/ccMmwR5a.s:5443   .debug_loc:000000000000045d .LLST24
     /tmp/ccMmwR5a.s:840    .text:0000000000000334 .LFB55
     /tmp/ccMmwR5a.s:868    .text:0000000000000360 .LFE55
     /tmp/ccMmwR5a.s:5450   .debug_loc:0000000000000480 .LLST21
     /tmp/ccMmwR5a.s:855    .text:000000000000034c .LVL62
     /tmp/ccMmwR5a.s:809    .text:000000000000030c .LFB54
     /tmp/ccMmwR5a.s:834    .text:0000000000000334 .LFE54
     /tmp/ccMmwR5a.s:823    .text:0000000000000324 .LVL60
     /tmp/ccMmwR5a.s:775    .text:00000000000002e0 .LFB53
     /tmp/ccMmwR5a.s:803    .text:000000000000030c .LFE53
     /tmp/ccMmwR5a.s:5464   .debug_loc:00000000000004b9 .LLST20
     /tmp/ccMmwR5a.s:792    .text:00000000000002fc .LVL59
     /tmp/ccMmwR5a.s:699    .text:0000000000000298 .LFB52
     /tmp/ccMmwR5a.s:769    .text:00000000000002e0 .LFE52
     /tmp/ccMmwR5a.s:5478   .debug_loc:00000000000004f2 .LLST18
     /tmp/ccMmwR5a.s:715    .text:00000000000002ac .LBB52
     /tmp/ccMmwR5a.s:723    .text:00000000000002b0 .LBE52
     /tmp/ccMmwR5a.s:5514   .debug_loc:000000000000057d .LLST19
     /tmp/ccMmwR5a.s:5941   .debug_str:00000000000005bc .LASF179
     /tmp/ccMmwR5a.s:409    .text:0000000000000158 .LFB51
     /tmp/ccMmwR5a.s:442    .text:0000000000000198 .LFE51
     /tmp/ccMmwR5a.s:5521   .debug_loc:00000000000005a0 .LLST9
     /tmp/ccMmwR5a.s:426    .text:0000000000000178 .LVL25
     /tmp/ccMmwR5a.s:429    .text:0000000000000184 .LVL26
     /tmp/ccMmwR5a.s:6157   .debug_str:0000000000000cf8 .LASF180
     /tmp/ccMmwR5a.s:62     .text:0000000000000000 .LFB49
     /tmp/ccMmwR5a.s:106    .text:0000000000000034 .LFE49
     /tmp/ccMmwR5a.s:5539   .debug_loc:00000000000005ec .LLST0
     /tmp/ccMmwR5a.s:6101   .debug_str:0000000000000b29 .LASF181
     /tmp/ccMmwR5a.s:576    .text:0000000000000200 .LFB46
     /tmp/ccMmwR5a.s:691    .text:0000000000000298 .LFE46
     /tmp/ccMmwR5a.s:5553   .debug_loc:0000000000000625 .LLST14
     /tmp/ccMmwR5a.s:5581   .debug_loc:0000000000000699 .LLST15
     /tmp/ccMmwR5a.s:5603   .debug_loc:00000000000006f8 .LLST16
     /tmp/ccMmwR5a.s:618    .text:0000000000000254 .LVL42
     /tmp/ccMmwR5a.s:5625   .debug_loc:0000000000000757 .LLST17
     /tmp/ccMmwR5a.s:6059   .debug_str:0000000000000951 .LASF182
     /tmp/ccMmwR5a.s:5915   .debug_str:00000000000004fc .LASF183
     /tmp/ccMmwR5a.s:535    .text:00000000000001d8 .LFB44
GAS LISTING /tmp/ccMmwR5a.s 			page 48


     /tmp/ccMmwR5a.s:563    .text:0000000000000200 .LFE44
     /tmp/ccMmwR5a.s:5642   .debug_loc:00000000000007a2 .LLST13
     /tmp/ccMmwR5a.s:552    .text:00000000000001f0 .LVL38
     /tmp/ccMmwR5a.s:5981   .debug_str:00000000000006fd .LASF184
     /tmp/ccMmwR5a.s:368    .text:0000000000000130 .LFB43
     /tmp/ccMmwR5a.s:396    .text:0000000000000158 .LFE43
     /tmp/ccMmwR5a.s:5656   .debug_loc:00000000000007db .LLST8
     /tmp/ccMmwR5a.s:385    .text:0000000000000148 .LVL23
     /tmp/ccMmwR5a.s:5787   .debug_str:000000000000016f .LASF185
     /tmp/ccMmwR5a.s:6079   .debug_str:00000000000009e1 .LASF186
     /tmp/ccMmwR5a.s:336    .text:0000000000000108 .LFB42
     /tmp/ccMmwR5a.s:362    .text:0000000000000130 .LFE42
     /tmp/ccMmwR5a.s:5819   .debug_str:0000000000000263 .LASF187
     /tmp/ccMmwR5a.s:5670   .debug_loc:0000000000000814 .LLST7
     /tmp/ccMmwR5a.s:351    .text:0000000000000120 .LVL21
     /tmp/ccMmwR5a.s:5855   .debug_str:0000000000000347 .LASF188
     /tmp/ccMmwR5a.s:304    .text:00000000000000e0 .LFB41
     /tmp/ccMmwR5a.s:330    .text:0000000000000108 .LFE41
     /tmp/ccMmwR5a.s:5684   .debug_loc:000000000000084d .LLST6
     /tmp/ccMmwR5a.s:319    .text:00000000000000f8 .LVL19
     /tmp/ccMmwR5a.s:6037   .debug_str:00000000000008a1 .LASF189
     /tmp/ccMmwR5a.s:6111   .debug_str:0000000000000b70 .LASF191
     /tmp/ccMmwR5a.s:37     .text._ZN14PeriodicThread18periodicActivationEv:0000000000000000 .LFB1
     /tmp/ccMmwR5a.s:55     .text._ZN14PeriodicThread18periodicActivationEv:0000000000000018 .LFE1
     /tmp/ccMmwR5a.s:11     .text._ZN6Thread3runEv:0000000000000000 .LFB0
     /tmp/ccMmwR5a.s:30     .text._ZN6Thread3runEv:0000000000000018 .LFE0
     /tmp/ccMmwR5a.s:5907   .debug_str:00000000000004c0 .LASF192
     /tmp/ccMmwR5a.s:6137   .debug_str:0000000000000c37 .LASF193
     /tmp/ccMmwR5a.s:5899   .debug_str:000000000000047d .LASF194
     /tmp/ccMmwR5a.s:5951   .debug_str:0000000000000601 .LASF195
     /tmp/ccMmwR5a.s:6021   .debug_str:0000000000000824 .LASF196
     /tmp/ccMmwR5a.s:5883   .debug_str:0000000000000424 .LASF197
     /tmp/ccMmwR5a.s:6177   .debug_str:0000000000000d7b .LASF198
     /tmp/ccMmwR5a.s:6183   .debug_str:0000000000000da9 .LASF199
     /tmp/ccMmwR5a.s:6169   .debug_str:0000000000000d51 .LASF200
     /tmp/ccMmwR5a.s:5887   .debug_str:0000000000000436 .LASF201
     /tmp/ccMmwR5a.s:5773   .debug_str:0000000000000117 .LASF202
     /tmp/ccMmwR5a.s:6011   .debug_str:00000000000007d5 .LASF203
     /tmp/ccMmwR5a.s:6007   .debug_str:00000000000007b6 .LASF204
     /tmp/ccMmwR5a.s:5769   .debug_str:00000000000000f6 .LASF205
     /tmp/ccMmwR5a.s:5881   .debug_str:0000000000000416 .LASF206
     /tmp/ccMmwR5a.s:5955   .debug_str:0000000000000612 .LASF207
     /tmp/ccMmwR5a.s:5993   .debug_str:000000000000074b .LASF208
     /tmp/ccMmwR5a.s:6049   .debug_str:0000000000000906 .LASF209
     /tmp/ccMmwR5a.s:5957   .debug_str:000000000000061c .LASF210
     /tmp/ccMmwR5a.s:6015   .debug_str:00000000000007f7 .LASF211
     /tmp/ccMmwR5a.s:6053   .debug_str:000000000000091e .LASF212
     /tmp/ccMmwR5a.s:5969   .debug_str:000000000000069a .LASF213
     /tmp/ccMmwR5a.s:452    .text._ZN14PeriodicThreadD0Ev:0000000000000000 .LVL28
     /tmp/ccMmwR5a.s:484    .text._ZN14PeriodicThreadD0Ev:0000000000000044 .LVL32
     /tmp/ccMmwR5a.s:464    .text._ZN14PeriodicThreadD0Ev:0000000000000018 .LVL29
     /tmp/ccMmwR5a.s:159    .text._ZN14PeriodicThreadD2Ev:0000000000000000 .LVL7
     /tmp/ccMmwR5a.s:1268   .text:000000000000056c .LVL91
     /tmp/ccMmwR5a.s:877    .text:0000000000000360 .LVL63
     /tmp/ccMmwR5a.s:889    .text:0000000000000378 .LVL64
     /tmp/ccMmwR5a.s:931    .text:00000000000003c0 .LVL68
     /tmp/ccMmwR5a.s:1186   .text:00000000000004f4 .LVL86
GAS LISTING /tmp/ccMmwR5a.s 			page 49


     /tmp/ccMmwR5a.s:1218   .text:0000000000000538 .LVL88
     /tmp/ccMmwR5a.s:1221   .text:000000000000053c .LVL89
     /tmp/ccMmwR5a.s:1124   .text:00000000000004a8 .LVL82
     /tmp/ccMmwR5a.s:1136   .text:00000000000004bc .LVL83
     /tmp/ccMmwR5a.s:1090   .text:000000000000047c .LVL79
     /tmp/ccMmwR5a.s:1102   .text:0000000000000490 .LVL80
     /tmp/ccMmwR5a.s:499    .text:0000000000000198 .LVL33
     /tmp/ccMmwR5a.s:524    .text:00000000000001d0 .LVL36
     /tmp/ccMmwR5a.s:198    .text:0000000000000068 .LVL9
     /tmp/ccMmwR5a.s:217    .text:0000000000000090 .LVL10
     /tmp/ccMmwR5a.s:223    .text:000000000000009c .LVL12
     /tmp/ccMmwR5a.s:245    .text:00000000000000a8 .LVL14
     /tmp/ccMmwR5a.s:254    .text:00000000000000b4 .LVL15
     /tmp/ccMmwR5a.s:1049   .text:0000000000000444 .LVL76
     /tmp/ccMmwR5a.s:1065   .text:0000000000000464 .LVL77
     /tmp/ccMmwR5a.s:117    .text:0000000000000034 .LVL4
     /tmp/ccMmwR5a.s:145    .text:0000000000000064 .LVL6
     /tmp/ccMmwR5a.s:945    .text:00000000000003c8 .LVL69
     /tmp/ccMmwR5a.s:972    .text:0000000000000400 .LVL70
     /tmp/ccMmwR5a.s:1006   .text:0000000000000424 .LVL74
     /tmp/ccMmwR5a.s:1033   .text:000000000000043c .LVL75
     /tmp/ccMmwR5a.s:976    .text:000000000000040c .LVL72
     /tmp/ccMmwR5a.s:987    .text:0000000000000414 .LVL73
     /tmp/ccMmwR5a.s:843    .text:0000000000000334 .LVL61
     /tmp/ccMmwR5a.s:778    .text:00000000000002e0 .LVL57
     /tmp/ccMmwR5a.s:790    .text:00000000000002f4 .LVL58
     /tmp/ccMmwR5a.s:702    .text:0000000000000298 .LVL49
     /tmp/ccMmwR5a.s:732    .text:00000000000002b8 .LVL52
     /tmp/ccMmwR5a.s:756    .text:00000000000002d0 .LVL53
     /tmp/ccMmwR5a.s:761    .text:00000000000002d4 .LVL54
     /tmp/ccMmwR5a.s:763    .text:00000000000002d8 .LVL55
     /tmp/ccMmwR5a.s:766    .text:00000000000002dc .LVL56
     /tmp/ccMmwR5a.s:714    .text:00000000000002ac .LVL50
     /tmp/ccMmwR5a.s:721    .text:00000000000002b0 .LVL51
     /tmp/ccMmwR5a.s:412    .text:0000000000000158 .LVL24
     /tmp/ccMmwR5a.s:437    .text:0000000000000190 .LVL27
     /tmp/ccMmwR5a.s:66     .text:0000000000000000 .LVL2
     /tmp/ccMmwR5a.s:85     .text:0000000000000020 .LVL3
     /tmp/ccMmwR5a.s:579    .text:0000000000000200 .LVL39
     /tmp/ccMmwR5a.s:616    .text:000000000000024c .LVL41
     /tmp/ccMmwR5a.s:642    .text:0000000000000268 .LVL44
     /tmp/ccMmwR5a.s:670    .text:0000000000000280 .LVL45
     /tmp/ccMmwR5a.s:680    .text:0000000000000290 .LVL48
     /tmp/ccMmwR5a.s:673    .text:0000000000000284 .LVL46
     /tmp/ccMmwR5a.s:676    .text:0000000000000288 .LVL47
     /tmp/ccMmwR5a.s:609    .text:000000000000023c .LVL40
     /tmp/ccMmwR5a.s:620    .text:0000000000000258 .LVL43
     /tmp/ccMmwR5a.s:540    .text:00000000000001d8 .LVL37
     /tmp/ccMmwR5a.s:373    .text:0000000000000130 .LVL22
     /tmp/ccMmwR5a.s:339    .text:0000000000000108 .LVL20
     /tmp/ccMmwR5a.s:307    .text:00000000000000e0 .LVL18
     /tmp/ccMmwR5a.s:1332   .debug_info:0000000000000000 .Ldebug_info0
     /tmp/ccMmwR5a.s:5      .text:0000000000000000 .Ltext0
     /tmp/ccMmwR5a.s:1327   .text:0000000000000594 .Letext0
     /tmp/ccMmwR5a.s:601    .text:0000000000000234 .LBB49
     /tmp/ccMmwR5a.s:659    .text:0000000000000274 .LBE49
     /tmp/ccMmwR5a.s:684    .text:0000000000000290 .LBB50
GAS LISTING /tmp/ccMmwR5a.s 			page 50


     /tmp/ccMmwR5a.s:688    .text:0000000000000298 .LBE50
     /tmp/ccMmwR5a.s:291    .gcc_except_table:0000000000000000 .LLSDA67
     /tmp/ccMmwR5a.s:398    .gcc_except_table:0000000000000004 .LLSDA43
     /tmp/ccMmwR5a.s:565    .gcc_except_table:0000000000000008 .LLSDA44
                           .group:0000000000000000 _ZN14PeriodicThreadD5Ev

UNDEFINED SYMBOLS
_Z9sem_closeP4KSem
_Z8mem_freePv
_ZN4KSemdlEPv
__gxx_personality_v0
_Z9mem_allocm
main
_Z11thread_joinP3TCB
_Z15thread_dispatchv
_Z10time_sleepm
_Z11thread_exitv
_Z8sem_openPP4KSemj
_Z8sem_waitP4KSem
_Z10sem_signalP4KSem
_Z4getcv
_Z4putcc
