GAS LISTING /tmp/cc4dRis9.s 			page 1


   1              		.file	"syscall_c.cpp"
   2              		.option pic
   3              		.option norelax
   4              		.text
   5              	.Ltext0:
   6              		.align	2
   7              		.globl	_Z9mem_allocm
   9              	_Z9mem_allocm:
  10              	.LFB19:
  11              		.file 1 "src/syscall_c.cpp"
   1:src/syscall_c.cpp **** #include "../h/syscall_c.hpp"
   2:src/syscall_c.cpp **** #include "../h/Riscv.hpp"
   3:src/syscall_c.cpp **** #include "../h/MemoryAllocator.hpp"
   4:src/syscall_c.cpp **** 
   5:src/syscall_c.cpp **** inline void scall() {
   6:src/syscall_c.cpp **** 	__asm__ volatile("ecall");
   7:src/syscall_c.cpp **** }
   8:src/syscall_c.cpp **** 
   9:src/syscall_c.cpp **** void* mem_alloc(size_t size) {
  12              		.loc 1 9 30
  13              		.cfi_startproc
  14              	.LVL0:
  15 0000 130101FF 		addi	sp,sp,-16
  16              		.cfi_def_cfa_offset 16
  17 0004 23348100 		sd	s0,8(sp)
  18              		.cfi_offset 8, -8
  19 0008 13040101 		addi	s0,sp,16
  20              		.cfi_def_cfa 8, 0
  10:src/syscall_c.cpp **** 	//na size moramo dodati zaglavlje segmenta
  11:src/syscall_c.cpp **** 	size += sizeof(MemoryAllocator::UsedMemSegment);
  21              		.loc 1 11 2
  22              		.loc 1 11 7 is_stmt 0
  23 000c 13050501 		addi	a0,a0,16
  24              	.LVL1:
  12:src/syscall_c.cpp **** 	//size je u bajtovima, pretvara se u blokove
  13:src/syscall_c.cpp **** 	size = size / MEM_BLOCK_SIZE + (size % MEM_BLOCK_SIZE ? 1 : 0);
  25              		.loc 1 13 2 is_stmt 1
  26              		.loc 1 13 14 is_stmt 0
  27 0010 13536500 		srli	t1,a0,6
  28              		.loc 1 13 39
  29 0014 1375F503 		andi	a0,a0,63
  30              	.LVL2:
  31              		.loc 1 13 56
  32 0018 63040500 		beqz	a0,.L2
  33 001c 13051000 		li	a0,1
  34              	.L2:
  35              		.loc 1 13 7 discriminator 4
  36 0020 3303A300 		add	t1,t1,a0
  37              	.LVL3:
  14:src/syscall_c.cpp **** 
  15:src/syscall_c.cpp **** 	//stavljanje argumenata za sistemski poziv
  16:src/syscall_c.cpp **** 	__asm__ volatile("mv a1, %[size]": :[size] "r"(size):"a5", "a0", "a1", "a2", "a3", "a4", "a6", "a7
  38              		.loc 1 16 2 is_stmt 1 discriminator 4
  39              		.loc 1 16 102 is_stmt 0 discriminator 4
  40              	#APP
  41              	# 16 "src/syscall_c.cpp" 1
  17              		__asm__ volatile("li a0, 0x01");
GAS LISTING /tmp/cc4dRis9.s 			page 2


  42              		mv a1, t1
  43              	# 0 "" 2
  44              		.loc 1 17 2 is_stmt 1 discriminator 4
  45              		.loc 1 17 33 is_stmt 0 discriminator 4
  46              	# 17 "src/syscall_c.cpp" 1
  18              		//a0 = 0x01
  19:src/syscall_c.cpp **** 	//a1 = broj blokova velicine MEM_BLOCK_SIZE za alokaciju
  20:src/syscall_c.cpp **** 
  21:src/syscall_c.cpp **** 	scall();
  47              		li a0, 0x01
  48              	# 0 "" 2
  49              		.loc 1 21 2 is_stmt 1 discriminator 4
  50              	#NO_APP
  51              	.LBB8:
  52              	.LBB9:
   6:src/syscall_c.cpp **** }
  53              		.loc 1 6 2 discriminator 4
   6:src/syscall_c.cpp **** }
  54              		.loc 1 6 27 is_stmt 0 discriminator 4
  55              	#APP
  56              	# 6 "src/syscall_c.cpp" 1
  57              		ecall
  58              	# 0 "" 2
  59              	#NO_APP
  60              	.LBE9:
  61              	.LBE8:
  22:src/syscall_c.cpp **** 
  23:src/syscall_c.cpp **** 	void* ret;
  62              		.loc 1 23 2 is_stmt 1 discriminator 4
  24:src/syscall_c.cpp **** 	__asm__ volatile("mv %[ptr], a0":[ptr] "=r"(ret));
  63              		.loc 1 24 2 discriminator 4
  64              		.loc 1 24 51 is_stmt 0 discriminator 4
  65              	#APP
  66              	# 24 "src/syscall_c.cpp" 1
  25              		return ret;
  67              		mv a0, a0
  68              	# 0 "" 2
  69              	.LVL4:
  70              		.loc 1 25 2 is_stmt 1 discriminator 4
  26:src/syscall_c.cpp **** }
  71              		.loc 1 26 1 is_stmt 0 discriminator 4
  72              	#NO_APP
  73 0034 03348100 		ld	s0,8(sp)
  74              		.cfi_restore 8
  75              		.cfi_def_cfa 2, 16
  76 0038 13010101 		addi	sp,sp,16
  77              		.cfi_def_cfa_offset 0
  78 003c 67800000 		jr	ra
  79              		.cfi_endproc
  80              	.LFE19:
  82              		.align	2
  83              		.globl	_Z8mem_freePv
  85              	_Z8mem_freePv:
  86              	.LFB20:
  27:src/syscall_c.cpp **** 
  28:src/syscall_c.cpp **** int mem_free(void* ptr) {
  87              		.loc 1 28 25 is_stmt 1
GAS LISTING /tmp/cc4dRis9.s 			page 3


  88              		.cfi_startproc
  89              	.LVL5:
  90 0040 130101FF 		addi	sp,sp,-16
  91              		.cfi_def_cfa_offset 16
  92 0044 23348100 		sd	s0,8(sp)
  93              		.cfi_offset 8, -8
  94 0048 13040101 		addi	s0,sp,16
  95              		.cfi_def_cfa 8, 0
  96 004c 13030500 		mv	t1,a0
  29:src/syscall_c.cpp **** 	//stavljanje argumenata za sistemski poziv
  30:src/syscall_c.cpp **** 	__asm__ volatile("mv a1, %[ptr]": :[ptr] "r"(ptr):"a5", "a0", "a1", "a2", "a3", "a4", "a6", "a7");
  97              		.loc 1 30 2
  98              		.loc 1 30 99 is_stmt 0
  99              	#APP
 100              	# 30 "src/syscall_c.cpp" 1
  31              		__asm__ volatile("li a0, 0x02");
 101              		mv a1, t1
 102              	# 0 "" 2
 103              	.LVL6:
 104              		.loc 1 31 2 is_stmt 1
 105              		.loc 1 31 33 is_stmt 0
 106              	# 31 "src/syscall_c.cpp" 1
  32              		//a0 = 0x02
  33:src/syscall_c.cpp **** 	//a1 = pokazivac na memoriju koju treba dealocirati
  34:src/syscall_c.cpp **** 
  35:src/syscall_c.cpp **** 	scall();
 107              		li a0, 0x02
 108              	# 0 "" 2
 109              		.loc 1 35 2 is_stmt 1
 110              	#NO_APP
 111              	.LBB10:
 112              	.LBB11:
   6:src/syscall_c.cpp **** }
 113              		.loc 1 6 2
   6:src/syscall_c.cpp **** }
 114              		.loc 1 6 27 is_stmt 0
 115              	#APP
 116              	# 6 "src/syscall_c.cpp" 1
 117              		ecall
 118              	# 0 "" 2
 119              	#NO_APP
 120              	.LBE11:
 121              	.LBE10:
  36:src/syscall_c.cpp **** 
  37:src/syscall_c.cpp **** 	int status;
 122              		.loc 1 37 2 is_stmt 1
  38:src/syscall_c.cpp **** 	__asm__ volatile("mv %[status], a0":[status] "=r"(status));
 123              		.loc 1 38 2
 124              		.loc 1 38 60 is_stmt 0
 125              	#APP
 126              	# 38 "src/syscall_c.cpp" 1
  39              		return status;
 127              		mv a0, a0
 128              	# 0 "" 2
 129              	.LVL7:
 130              		.loc 1 39 2 is_stmt 1
  40:src/syscall_c.cpp **** }
GAS LISTING /tmp/cc4dRis9.s 			page 4


 131              		.loc 1 40 1 is_stmt 0
 132              	#NO_APP
 133 0060 1B050500 		sext.w	a0,a0
 134 0064 03348100 		ld	s0,8(sp)
 135              		.cfi_restore 8
 136              		.cfi_def_cfa 2, 16
 137 0068 13010101 		addi	sp,sp,16
 138              		.cfi_def_cfa_offset 0
 139 006c 67800000 		jr	ra
 140              		.cfi_endproc
 141              	.LFE20:
 143              		.align	2
 144              		.globl	_Z13thread_createPP3TCBPFvPvES2_
 146              	_Z13thread_createPP3TCBPFvPvES2_:
 147              	.LFB21:
  41:src/syscall_c.cpp **** 
  42:src/syscall_c.cpp **** int thread_create(thread_t* handle, void (* start_routine)(void*), void* arg) {
 148              		.loc 1 42 79 is_stmt 1
 149              		.cfi_startproc
 150              	.LVL8:
 151 0070 130101FD 		addi	sp,sp,-48
 152              		.cfi_def_cfa_offset 48
 153 0074 23341102 		sd	ra,40(sp)
 154 0078 23308102 		sd	s0,32(sp)
 155 007c 233C9100 		sd	s1,24(sp)
 156 0080 23382101 		sd	s2,16(sp)
 157 0084 23343101 		sd	s3,8(sp)
 158              		.cfi_offset 1, -8
 159              		.cfi_offset 8, -16
 160              		.cfi_offset 9, -24
 161              		.cfi_offset 18, -32
 162              		.cfi_offset 19, -40
 163 0088 13040103 		addi	s0,sp,48
 164              		.cfi_def_cfa 8, 0
 165 008c 13090500 		mv	s2,a0
 166 0090 93840500 		mv	s1,a1
 167 0094 93090600 		mv	s3,a2
  43:src/syscall_c.cpp **** 	//stvaranje steka ako se ne radi o main kernel niti, posto ona automatski ima stek
  44:src/syscall_c.cpp **** 	uint64* stack = (start_routine != nullptr ? (uint64*)MemoryAllocator::kmalloc(DEFAULT_STACK_SIZE) 
 168              		.loc 1 44 2
 169              		.loc 1 44 44 is_stmt 0
 170 0098 63880504 		beqz	a1,.L8
 171              		.loc 1 44 79 discriminator 1
 172 009c 37150000 		li	a0,4096
 173              	.LVL9:
 174 00a0 97000000 		call	_ZN15MemoryAllocator7kmallocEm@plt
 174      E7800000 
 175              	.LVL10:
 176 00a8 13030500 		mv	t1,a0
 177              	.L7:
 178              	.LVL11:
  45:src/syscall_c.cpp **** 	//stavljanje argumenata za sistemski poziv
  46:src/syscall_c.cpp **** 	__asm__ volatile("mv a4, %[sp]": :[sp] "r"(stack):"a5", "a0", "a1", "a2", "a3", "a4", "a6", "a7");
 179              		.loc 1 46 2 is_stmt 1 discriminator 4
 180              		.loc 1 46 99 is_stmt 0 discriminator 4
 181              	#APP
 182              	# 46 "src/syscall_c.cpp" 1
GAS LISTING /tmp/cc4dRis9.s 			page 5


  47              		__asm__ volatile("mv a3, %[arg]": :[arg] "r"(arg):"a5", "a0", "a1", "a2", "a3", "a4", "a6", "a7");
 183              		mv a4, t1
 184              	# 0 "" 2
 185              		.loc 1 47 2 is_stmt 1 discriminator 4
 186              		.loc 1 47 99 is_stmt 0 discriminator 4
 187              	# 47 "src/syscall_c.cpp" 1
  48              		__asm__ volatile("mv a2, %[function]": :[function] "r"(
 188              		mv a3, s3
 189              	# 0 "" 2
 190              		.loc 1 48 2 is_stmt 1 discriminator 4
  49:src/syscall_c.cpp **** 			start_routine):"a5", "a0", "a1", "a2", "a3", "a4", "a6", "a7");
 191              		.loc 1 49 66 is_stmt 0 discriminator 4
 192              	# 49 "src/syscall_c.cpp" 1
  50              		__asm__ volatile("mv a1, %[handle]": :[handle] "r"(handle):"a5", "a0", "a1", "a2", "a3", "a4", "a6
 193              		mv a2, s1
 194              	# 0 "" 2
 195              		.loc 1 50 2 is_stmt 1 discriminator 4
 196              		.loc 1 50 108 is_stmt 0 discriminator 4
 197              	# 50 "src/syscall_c.cpp" 1
  51              		__asm__ volatile("li a0, 0x11");
 198              		mv a1, s2
 199              	# 0 "" 2
 200              		.loc 1 51 2 is_stmt 1 discriminator 4
 201              		.loc 1 51 33 is_stmt 0 discriminator 4
 202              	# 51 "src/syscall_c.cpp" 1
  52              		//a0 = 0x11
  53:src/syscall_c.cpp **** 	//a1 = adresa pokazivaca na rucku niti
  54:src/syscall_c.cpp **** 	//a2 = prva adresa funkcije koju nit izvrsava
  55:src/syscall_c.cpp **** 	//a3 = pokazivac na argumente funkcije
  56:src/syscall_c.cpp **** 	//a4 = pokazivac na najnizu adresu steka (stek raste ka nizim adresama, pokazuje na poslednju zauz
  57:src/syscall_c.cpp **** 
  58:src/syscall_c.cpp **** 	scall();
 203              		li a0, 0x11
 204              	# 0 "" 2
 205              		.loc 1 58 2 is_stmt 1 discriminator 4
 206              	#NO_APP
 207              	.LBB12:
 208              	.LBB13:
   6:src/syscall_c.cpp **** }
 209              		.loc 1 6 2 discriminator 4
   6:src/syscall_c.cpp **** }
 210              		.loc 1 6 27 is_stmt 0 discriminator 4
 211              	#APP
 212              	# 6 "src/syscall_c.cpp" 1
 213              		ecall
 214              	# 0 "" 2
 215              	#NO_APP
 216              	.LBE13:
 217              	.LBE12:
  59:src/syscall_c.cpp **** 
  60:src/syscall_c.cpp **** 	int status;
 218              		.loc 1 60 2 is_stmt 1 discriminator 4
  61:src/syscall_c.cpp **** 	__asm__ volatile("mv %[status], a0":[status] "=r"(status));
 219              		.loc 1 61 2 discriminator 4
 220              		.loc 1 61 60 is_stmt 0 discriminator 4
 221              	#APP
 222              	# 61 "src/syscall_c.cpp" 1
GAS LISTING /tmp/cc4dRis9.s 			page 6


  62              		return status;
 223              		mv a0, a0
 224              	# 0 "" 2
 225              	.LVL12:
 226              		.loc 1 62 2 is_stmt 1 discriminator 4
  63:src/syscall_c.cpp **** }
 227              		.loc 1 63 1 is_stmt 0 discriminator 4
 228              	#NO_APP
 229 00c8 1B050500 		sext.w	a0,a0
 230 00cc 83308102 		ld	ra,40(sp)
 231              		.cfi_remember_state
 232              		.cfi_restore 1
 233 00d0 03340102 		ld	s0,32(sp)
 234              		.cfi_restore 8
 235              		.cfi_def_cfa 2, 48
 236 00d4 83348101 		ld	s1,24(sp)
 237              		.cfi_restore 9
 238              	.LVL13:
 239 00d8 03390101 		ld	s2,16(sp)
 240              		.cfi_restore 18
 241              	.LVL14:
 242 00dc 83398100 		ld	s3,8(sp)
 243              		.cfi_restore 19
 244              	.LVL15:
 245 00e0 13010103 		addi	sp,sp,48
 246              		.cfi_def_cfa_offset 0
 247 00e4 67800000 		jr	ra
 248              	.LVL16:
 249              	.L8:
 250              		.cfi_restore_state
  44:src/syscall_c.cpp **** 	//stavljanje argumenata za sistemski poziv
 251              		.loc 1 44 44
 252 00e8 13030000 		li	t1,0
 253 00ec 6FF01FFC 		j	.L7
 254              		.cfi_endproc
 255              	.LFE21:
 257              		.align	2
 258              		.globl	_Z11thread_exitv
 260              	_Z11thread_exitv:
 261              	.LFB22:
  64:src/syscall_c.cpp **** 
  65:src/syscall_c.cpp **** int thread_exit() {
 262              		.loc 1 65 19 is_stmt 1
 263              		.cfi_startproc
 264 00f0 130101FF 		addi	sp,sp,-16
 265              		.cfi_def_cfa_offset 16
 266 00f4 23348100 		sd	s0,8(sp)
 267              		.cfi_offset 8, -8
 268 00f8 13040101 		addi	s0,sp,16
 269              		.cfi_def_cfa 8, 0
  66:src/syscall_c.cpp **** 	return 0;
 270              		.loc 1 66 2
  67:src/syscall_c.cpp **** }
 271              		.loc 1 67 1 is_stmt 0
 272 00fc 13050000 		li	a0,0
 273 0100 03348100 		ld	s0,8(sp)
 274              		.cfi_restore 8
GAS LISTING /tmp/cc4dRis9.s 			page 7


 275              		.cfi_def_cfa 2, 16
 276 0104 13010101 		addi	sp,sp,16
 277              		.cfi_def_cfa_offset 0
 278 0108 67800000 		jr	ra
 279              		.cfi_endproc
 280              	.LFE22:
 282              		.align	2
 283              		.globl	_Z15thread_dispatchv
 285              	_Z15thread_dispatchv:
 286              	.LFB23:
  68:src/syscall_c.cpp **** 
  69:src/syscall_c.cpp **** void thread_dispatch() {
 287              		.loc 1 69 24 is_stmt 1
 288              		.cfi_startproc
 289 010c 130101FF 		addi	sp,sp,-16
 290              		.cfi_def_cfa_offset 16
 291 0110 23348100 		sd	s0,8(sp)
 292              		.cfi_offset 8, -8
 293 0114 13040101 		addi	s0,sp,16
 294              		.cfi_def_cfa 8, 0
  70:src/syscall_c.cpp **** 
  71:src/syscall_c.cpp **** }
 295              		.loc 1 71 1 is_stmt 0
 296 0118 03348100 		ld	s0,8(sp)
 297              		.cfi_restore 8
 298              		.cfi_def_cfa 2, 16
 299 011c 13010101 		addi	sp,sp,16
 300              		.cfi_def_cfa_offset 0
 301 0120 67800000 		jr	ra
 302              		.cfi_endproc
 303              	.LFE23:
 305              		.align	2
 306              		.globl	_Z11thread_joinP3TCB
 308              	_Z11thread_joinP3TCB:
 309              	.LFB24:
  72:src/syscall_c.cpp **** 
  73:src/syscall_c.cpp **** void thread_join(thread_t handle) {
 310              		.loc 1 73 35 is_stmt 1
 311              		.cfi_startproc
 312              	.LVL17:
 313 0124 130101FF 		addi	sp,sp,-16
 314              		.cfi_def_cfa_offset 16
 315 0128 23348100 		sd	s0,8(sp)
 316              		.cfi_offset 8, -8
 317 012c 13040101 		addi	s0,sp,16
 318              		.cfi_def_cfa 8, 0
  74:src/syscall_c.cpp **** 
  75:src/syscall_c.cpp **** }
 319              		.loc 1 75 1 is_stmt 0
 320 0130 03348100 		ld	s0,8(sp)
 321              		.cfi_restore 8
 322              		.cfi_def_cfa 2, 16
 323 0134 13010101 		addi	sp,sp,16
 324              		.cfi_def_cfa_offset 0
 325 0138 67800000 		jr	ra
 326              		.cfi_endproc
 327              	.LFE24:
GAS LISTING /tmp/cc4dRis9.s 			page 8


 329              		.align	2
 330              		.globl	_Z10time_sleepm
 332              	_Z10time_sleepm:
 333              	.LFB25:
  76:src/syscall_c.cpp **** 
  77:src/syscall_c.cpp **** int time_sleep(time_t) {
 334              		.loc 1 77 24 is_stmt 1
 335              		.cfi_startproc
 336 013c 130101FF 		addi	sp,sp,-16
 337              		.cfi_def_cfa_offset 16
 338 0140 23348100 		sd	s0,8(sp)
 339              		.cfi_offset 8, -8
 340 0144 13040101 		addi	s0,sp,16
 341              		.cfi_def_cfa 8, 0
  78:src/syscall_c.cpp **** 	return 0;
 342              		.loc 1 78 2
  79:src/syscall_c.cpp **** }
 343              		.loc 1 79 1 is_stmt 0
 344 0148 13050000 		li	a0,0
 345 014c 03348100 		ld	s0,8(sp)
 346              		.cfi_restore 8
 347              		.cfi_def_cfa 2, 16
 348 0150 13010101 		addi	sp,sp,16
 349              		.cfi_def_cfa_offset 0
 350 0154 67800000 		jr	ra
 351              		.cfi_endproc
 352              	.LFE25:
 354              		.align	2
 355              		.globl	_Z8sem_openPP4_semj
 357              	_Z8sem_openPP4_semj:
 358              	.LFB26:
  80:src/syscall_c.cpp **** 
  81:src/syscall_c.cpp **** int sem_open(sem_t* handle, unsigned int init) {
 359              		.loc 1 81 48 is_stmt 1
 360              		.cfi_startproc
 361              	.LVL18:
 362 0158 130101FF 		addi	sp,sp,-16
 363              		.cfi_def_cfa_offset 16
 364 015c 23348100 		sd	s0,8(sp)
 365              		.cfi_offset 8, -8
 366 0160 13040101 		addi	s0,sp,16
 367              		.cfi_def_cfa 8, 0
  82:src/syscall_c.cpp **** 	return 0;
 368              		.loc 1 82 2
  83:src/syscall_c.cpp **** }
 369              		.loc 1 83 1 is_stmt 0
 370 0164 13050000 		li	a0,0
 371              	.LVL19:
 372 0168 03348100 		ld	s0,8(sp)
 373              		.cfi_restore 8
 374              		.cfi_def_cfa 2, 16
 375 016c 13010101 		addi	sp,sp,16
 376              		.cfi_def_cfa_offset 0
 377 0170 67800000 		jr	ra
 378              		.cfi_endproc
 379              	.LFE26:
 381              		.align	2
GAS LISTING /tmp/cc4dRis9.s 			page 9


 382              		.globl	_Z9sem_closeP4_sem
 384              	_Z9sem_closeP4_sem:
 385              	.LFB27:
  84:src/syscall_c.cpp **** 
  85:src/syscall_c.cpp **** int sem_close(sem_t handle) {
 386              		.loc 1 85 29 is_stmt 1
 387              		.cfi_startproc
 388              	.LVL20:
 389 0174 130101FF 		addi	sp,sp,-16
 390              		.cfi_def_cfa_offset 16
 391 0178 23348100 		sd	s0,8(sp)
 392              		.cfi_offset 8, -8
 393 017c 13040101 		addi	s0,sp,16
 394              		.cfi_def_cfa 8, 0
  86:src/syscall_c.cpp **** 	return 0;
 395              		.loc 1 86 2
  87:src/syscall_c.cpp **** }
 396              		.loc 1 87 1 is_stmt 0
 397 0180 13050000 		li	a0,0
 398              	.LVL21:
 399 0184 03348100 		ld	s0,8(sp)
 400              		.cfi_restore 8
 401              		.cfi_def_cfa 2, 16
 402 0188 13010101 		addi	sp,sp,16
 403              		.cfi_def_cfa_offset 0
 404 018c 67800000 		jr	ra
 405              		.cfi_endproc
 406              	.LFE27:
 408              		.align	2
 409              		.globl	_Z8sem_waitP4_sem
 411              	_Z8sem_waitP4_sem:
 412              	.LFB28:
  88:src/syscall_c.cpp **** 
  89:src/syscall_c.cpp **** int sem_wait(sem_t id) {
 413              		.loc 1 89 24 is_stmt 1
 414              		.cfi_startproc
 415              	.LVL22:
 416 0190 130101FF 		addi	sp,sp,-16
 417              		.cfi_def_cfa_offset 16
 418 0194 23348100 		sd	s0,8(sp)
 419              		.cfi_offset 8, -8
 420 0198 13040101 		addi	s0,sp,16
 421              		.cfi_def_cfa 8, 0
  90:src/syscall_c.cpp **** 	return 0;
 422              		.loc 1 90 2
  91:src/syscall_c.cpp **** }
 423              		.loc 1 91 1 is_stmt 0
 424 019c 13050000 		li	a0,0
 425              	.LVL23:
 426 01a0 03348100 		ld	s0,8(sp)
 427              		.cfi_restore 8
 428              		.cfi_def_cfa 2, 16
 429 01a4 13010101 		addi	sp,sp,16
 430              		.cfi_def_cfa_offset 0
 431 01a8 67800000 		jr	ra
 432              		.cfi_endproc
 433              	.LFE28:
GAS LISTING /tmp/cc4dRis9.s 			page 10


 435              		.align	2
 436              		.globl	_Z10sem_signalP4_sem
 438              	_Z10sem_signalP4_sem:
 439              	.LFB29:
  92:src/syscall_c.cpp **** 
  93:src/syscall_c.cpp **** int sem_signal(sem_t id) {
 440              		.loc 1 93 26 is_stmt 1
 441              		.cfi_startproc
 442              	.LVL24:
 443 01ac 130101FF 		addi	sp,sp,-16
 444              		.cfi_def_cfa_offset 16
 445 01b0 23348100 		sd	s0,8(sp)
 446              		.cfi_offset 8, -8
 447 01b4 13040101 		addi	s0,sp,16
 448              		.cfi_def_cfa 8, 0
  94:src/syscall_c.cpp **** 	return 0;
 449              		.loc 1 94 2
  95:src/syscall_c.cpp **** }
 450              		.loc 1 95 1 is_stmt 0
 451 01b8 13050000 		li	a0,0
 452              	.LVL25:
 453 01bc 03348100 		ld	s0,8(sp)
 454              		.cfi_restore 8
 455              		.cfi_def_cfa 2, 16
 456 01c0 13010101 		addi	sp,sp,16
 457              		.cfi_def_cfa_offset 0
 458 01c4 67800000 		jr	ra
 459              		.cfi_endproc
 460              	.LFE29:
 462              		.align	2
 463              		.globl	_Z4getcv
 465              	_Z4getcv:
 466              	.LFB30:
  96:src/syscall_c.cpp **** 
  97:src/syscall_c.cpp **** char getc() {
 467              		.loc 1 97 13 is_stmt 1
 468              		.cfi_startproc
 469 01c8 130101FF 		addi	sp,sp,-16
 470              		.cfi_def_cfa_offset 16
 471 01cc 23348100 		sd	s0,8(sp)
 472              		.cfi_offset 8, -8
 473 01d0 13040101 		addi	s0,sp,16
 474              		.cfi_def_cfa 8, 0
  98:src/syscall_c.cpp **** 	return 0;
 475              		.loc 1 98 2
  99:src/syscall_c.cpp **** }
 476              		.loc 1 99 1 is_stmt 0
 477 01d4 13050000 		li	a0,0
 478 01d8 03348100 		ld	s0,8(sp)
 479              		.cfi_restore 8
 480              		.cfi_def_cfa 2, 16
 481 01dc 13010101 		addi	sp,sp,16
 482              		.cfi_def_cfa_offset 0
 483 01e0 67800000 		jr	ra
 484              		.cfi_endproc
 485              	.LFE30:
 487              		.align	2
GAS LISTING /tmp/cc4dRis9.s 			page 11


 488              		.globl	_Z4putcc
 490              	_Z4putcc:
 491              	.LFB31:
 100:src/syscall_c.cpp **** 
 101:src/syscall_c.cpp **** void putc(char) {
 492              		.loc 1 101 17 is_stmt 1
 493              		.cfi_startproc
 494 01e4 130101FF 		addi	sp,sp,-16
 495              		.cfi_def_cfa_offset 16
 496 01e8 23348100 		sd	s0,8(sp)
 497              		.cfi_offset 8, -8
 498 01ec 13040101 		addi	s0,sp,16
 499              		.cfi_def_cfa 8, 0
 102:src/syscall_c.cpp **** 
 103:src/syscall_c.cpp **** }
 500              		.loc 1 103 1 is_stmt 0
 501 01f0 03348100 		ld	s0,8(sp)
 502              		.cfi_restore 8
 503              		.cfi_def_cfa 2, 16
 504 01f4 13010101 		addi	sp,sp,16
 505              		.cfi_def_cfa_offset 0
 506 01f8 67800000 		jr	ra
 507              		.cfi_endproc
 508              	.LFE31:
 510              	.Letext0:
 511              		.file 2 "src/../h/../lib/hw.h"
 512              		.file 3 "src/../h/syscall_c.hpp"
 513              		.file 4 "src/../h/MemoryAllocator.hpp"
GAS LISTING /tmp/cc4dRis9.s 			page 12


DEFINED SYMBOLS
                            *ABS*:0000000000000000 syscall_c.cpp
     /tmp/cc4dRis9.s:9      .text:0000000000000000 _Z9mem_allocm
     /tmp/cc4dRis9.s:13     .text:0000000000000000 .L0 
     /tmp/cc4dRis9.s:15     .text:0000000000000000 .L0 
     /tmp/cc4dRis9.s:16     .text:0000000000000004 .L0 
     /tmp/cc4dRis9.s:18     .text:0000000000000008 .L0 
     /tmp/cc4dRis9.s:20     .text:000000000000000c .L0 
     /tmp/cc4dRis9.s:22     .text:000000000000000c .L0 
     /tmp/cc4dRis9.s:23     .text:000000000000000c .L0 
     /tmp/cc4dRis9.s:26     .text:0000000000000010 .L0 
     /tmp/cc4dRis9.s:27     .text:0000000000000010 .L0 
     /tmp/cc4dRis9.s:29     .text:0000000000000014 .L0 
     /tmp/cc4dRis9.s:32     .text:0000000000000018 .L0 
     /tmp/cc4dRis9.s:36     .text:0000000000000020 .L0 
     /tmp/cc4dRis9.s:39     .text:0000000000000024 .L0 
   src/syscall_c.cpp:16     .text:0000000000000024 .L0 
     /tmp/cc4dRis9.s:45     .text:0000000000000028 .L0 
   src/syscall_c.cpp:17     .text:0000000000000028 .L0 
     /tmp/cc4dRis9.s:53     .text:000000000000002c .L0 
     /tmp/cc4dRis9.s:54     .text:000000000000002c .L0 
   src/syscall_c.cpp:6      .text:000000000000002c .L0 
     /tmp/cc4dRis9.s:63     .text:0000000000000030 .L0 
     /tmp/cc4dRis9.s:64     .text:0000000000000030 .L0 
   src/syscall_c.cpp:24     .text:0000000000000030 .L0 
     /tmp/cc4dRis9.s:71     .text:0000000000000034 .L0 
     /tmp/cc4dRis9.s:73     .text:0000000000000034 .L0 
     /tmp/cc4dRis9.s:74     .text:0000000000000038 .L0 
     /tmp/cc4dRis9.s:75     .text:0000000000000038 .L0 
     /tmp/cc4dRis9.s:77     .text:000000000000003c .L0 
     /tmp/cc4dRis9.s:79     .text:0000000000000040 .L0 
     /tmp/cc4dRis9.s:85     .text:0000000000000040 _Z8mem_freePv
     /tmp/cc4dRis9.s:88     .text:0000000000000040 .L0 
     /tmp/cc4dRis9.s:90     .text:0000000000000040 .L0 
     /tmp/cc4dRis9.s:91     .text:0000000000000044 .L0 
     /tmp/cc4dRis9.s:93     .text:0000000000000048 .L0 
     /tmp/cc4dRis9.s:95     .text:000000000000004c .L0 
     /tmp/cc4dRis9.s:98     .text:0000000000000050 .L0 
   src/syscall_c.cpp:30     .text:0000000000000050 .L0 
     /tmp/cc4dRis9.s:105    .text:0000000000000054 .L0 
   src/syscall_c.cpp:31     .text:0000000000000054 .L0 
     /tmp/cc4dRis9.s:113    .text:0000000000000058 .L0 
     /tmp/cc4dRis9.s:114    .text:0000000000000058 .L0 
   src/syscall_c.cpp:6      .text:0000000000000058 .L0 
     /tmp/cc4dRis9.s:123    .text:000000000000005c .L0 
     /tmp/cc4dRis9.s:124    .text:000000000000005c .L0 
   src/syscall_c.cpp:38     .text:000000000000005c .L0 
     /tmp/cc4dRis9.s:131    .text:0000000000000060 .L0 
     /tmp/cc4dRis9.s:133    .text:0000000000000060 .L0 
     /tmp/cc4dRis9.s:135    .text:0000000000000068 .L0 
     /tmp/cc4dRis9.s:136    .text:0000000000000068 .L0 
     /tmp/cc4dRis9.s:138    .text:000000000000006c .L0 
     /tmp/cc4dRis9.s:140    .text:0000000000000070 .L0 
     /tmp/cc4dRis9.s:146    .text:0000000000000070 _Z13thread_createPP3TCBPFvPvES2_
     /tmp/cc4dRis9.s:149    .text:0000000000000070 .L0 
     /tmp/cc4dRis9.s:151    .text:0000000000000070 .L0 
     /tmp/cc4dRis9.s:152    .text:0000000000000074 .L0 
GAS LISTING /tmp/cc4dRis9.s 			page 13


     /tmp/cc4dRis9.s:158    .text:0000000000000088 .L0 
     /tmp/cc4dRis9.s:159    .text:0000000000000088 .L0 
     /tmp/cc4dRis9.s:160    .text:0000000000000088 .L0 
     /tmp/cc4dRis9.s:161    .text:0000000000000088 .L0 
     /tmp/cc4dRis9.s:162    .text:0000000000000088 .L0 
     /tmp/cc4dRis9.s:164    .text:000000000000008c .L0 
     /tmp/cc4dRis9.s:169    .text:0000000000000098 .L0 
     /tmp/cc4dRis9.s:170    .text:0000000000000098 .L0 
     /tmp/cc4dRis9.s:172    .text:000000000000009c .L0 
     /tmp/cc4dRis9.s:180    .text:00000000000000ac .L0 
   src/syscall_c.cpp:46     .text:00000000000000ac .L0 
     /tmp/cc4dRis9.s:186    .text:00000000000000b0 .L0 
   src/syscall_c.cpp:47     .text:00000000000000b0 .L0 
     /tmp/cc4dRis9.s:191    .text:00000000000000b4 .L0 
   src/syscall_c.cpp:49     .text:00000000000000b4 .L0 
     /tmp/cc4dRis9.s:196    .text:00000000000000b8 .L0 
   src/syscall_c.cpp:50     .text:00000000000000b8 .L0 
     /tmp/cc4dRis9.s:201    .text:00000000000000bc .L0 
   src/syscall_c.cpp:51     .text:00000000000000bc .L0 
     /tmp/cc4dRis9.s:209    .text:00000000000000c0 .L0 
     /tmp/cc4dRis9.s:210    .text:00000000000000c0 .L0 
   src/syscall_c.cpp:6      .text:00000000000000c0 .L0 
     /tmp/cc4dRis9.s:219    .text:00000000000000c4 .L0 
     /tmp/cc4dRis9.s:220    .text:00000000000000c4 .L0 
   src/syscall_c.cpp:61     .text:00000000000000c4 .L0 
     /tmp/cc4dRis9.s:227    .text:00000000000000c8 .L0 
     /tmp/cc4dRis9.s:229    .text:00000000000000c8 .L0 
     /tmp/cc4dRis9.s:231    .text:00000000000000d0 .L0 
     /tmp/cc4dRis9.s:232    .text:00000000000000d0 .L0 
     /tmp/cc4dRis9.s:234    .text:00000000000000d4 .L0 
     /tmp/cc4dRis9.s:235    .text:00000000000000d4 .L0 
     /tmp/cc4dRis9.s:237    .text:00000000000000d8 .L0 
     /tmp/cc4dRis9.s:240    .text:00000000000000dc .L0 
     /tmp/cc4dRis9.s:243    .text:00000000000000e0 .L0 
     /tmp/cc4dRis9.s:246    .text:00000000000000e4 .L0 
     /tmp/cc4dRis9.s:250    .text:00000000000000e8 .L0 
     /tmp/cc4dRis9.s:252    .text:00000000000000e8 .L0 
     /tmp/cc4dRis9.s:254    .text:00000000000000f0 .L0 
     /tmp/cc4dRis9.s:260    .text:00000000000000f0 _Z11thread_exitv
     /tmp/cc4dRis9.s:263    .text:00000000000000f0 .L0 
     /tmp/cc4dRis9.s:264    .text:00000000000000f0 .L0 
     /tmp/cc4dRis9.s:265    .text:00000000000000f4 .L0 
     /tmp/cc4dRis9.s:267    .text:00000000000000f8 .L0 
     /tmp/cc4dRis9.s:269    .text:00000000000000fc .L0 
     /tmp/cc4dRis9.s:271    .text:00000000000000fc .L0 
     /tmp/cc4dRis9.s:272    .text:00000000000000fc .L0 
     /tmp/cc4dRis9.s:274    .text:0000000000000104 .L0 
     /tmp/cc4dRis9.s:275    .text:0000000000000104 .L0 
     /tmp/cc4dRis9.s:277    .text:0000000000000108 .L0 
     /tmp/cc4dRis9.s:279    .text:000000000000010c .L0 
     /tmp/cc4dRis9.s:285    .text:000000000000010c _Z15thread_dispatchv
     /tmp/cc4dRis9.s:288    .text:000000000000010c .L0 
     /tmp/cc4dRis9.s:289    .text:000000000000010c .L0 
     /tmp/cc4dRis9.s:290    .text:0000000000000110 .L0 
     /tmp/cc4dRis9.s:292    .text:0000000000000114 .L0 
     /tmp/cc4dRis9.s:294    .text:0000000000000118 .L0 
     /tmp/cc4dRis9.s:296    .text:0000000000000118 .L0 
GAS LISTING /tmp/cc4dRis9.s 			page 14


     /tmp/cc4dRis9.s:297    .text:000000000000011c .L0 
     /tmp/cc4dRis9.s:298    .text:000000000000011c .L0 
     /tmp/cc4dRis9.s:300    .text:0000000000000120 .L0 
     /tmp/cc4dRis9.s:302    .text:0000000000000124 .L0 
     /tmp/cc4dRis9.s:308    .text:0000000000000124 _Z11thread_joinP3TCB
     /tmp/cc4dRis9.s:311    .text:0000000000000124 .L0 
     /tmp/cc4dRis9.s:313    .text:0000000000000124 .L0 
     /tmp/cc4dRis9.s:314    .text:0000000000000128 .L0 
     /tmp/cc4dRis9.s:316    .text:000000000000012c .L0 
     /tmp/cc4dRis9.s:318    .text:0000000000000130 .L0 
     /tmp/cc4dRis9.s:320    .text:0000000000000130 .L0 
     /tmp/cc4dRis9.s:321    .text:0000000000000134 .L0 
     /tmp/cc4dRis9.s:322    .text:0000000000000134 .L0 
     /tmp/cc4dRis9.s:324    .text:0000000000000138 .L0 
     /tmp/cc4dRis9.s:326    .text:000000000000013c .L0 
     /tmp/cc4dRis9.s:332    .text:000000000000013c _Z10time_sleepm
     /tmp/cc4dRis9.s:335    .text:000000000000013c .L0 
     /tmp/cc4dRis9.s:336    .text:000000000000013c .L0 
     /tmp/cc4dRis9.s:337    .text:0000000000000140 .L0 
     /tmp/cc4dRis9.s:339    .text:0000000000000144 .L0 
     /tmp/cc4dRis9.s:341    .text:0000000000000148 .L0 
     /tmp/cc4dRis9.s:343    .text:0000000000000148 .L0 
     /tmp/cc4dRis9.s:344    .text:0000000000000148 .L0 
     /tmp/cc4dRis9.s:346    .text:0000000000000150 .L0 
     /tmp/cc4dRis9.s:347    .text:0000000000000150 .L0 
     /tmp/cc4dRis9.s:349    .text:0000000000000154 .L0 
     /tmp/cc4dRis9.s:351    .text:0000000000000158 .L0 
     /tmp/cc4dRis9.s:357    .text:0000000000000158 _Z8sem_openPP4_semj
     /tmp/cc4dRis9.s:360    .text:0000000000000158 .L0 
     /tmp/cc4dRis9.s:362    .text:0000000000000158 .L0 
     /tmp/cc4dRis9.s:363    .text:000000000000015c .L0 
     /tmp/cc4dRis9.s:365    .text:0000000000000160 .L0 
     /tmp/cc4dRis9.s:367    .text:0000000000000164 .L0 
     /tmp/cc4dRis9.s:369    .text:0000000000000164 .L0 
     /tmp/cc4dRis9.s:370    .text:0000000000000164 .L0 
     /tmp/cc4dRis9.s:373    .text:000000000000016c .L0 
     /tmp/cc4dRis9.s:374    .text:000000000000016c .L0 
     /tmp/cc4dRis9.s:376    .text:0000000000000170 .L0 
     /tmp/cc4dRis9.s:378    .text:0000000000000174 .L0 
     /tmp/cc4dRis9.s:384    .text:0000000000000174 _Z9sem_closeP4_sem
     /tmp/cc4dRis9.s:387    .text:0000000000000174 .L0 
     /tmp/cc4dRis9.s:389    .text:0000000000000174 .L0 
     /tmp/cc4dRis9.s:390    .text:0000000000000178 .L0 
     /tmp/cc4dRis9.s:392    .text:000000000000017c .L0 
     /tmp/cc4dRis9.s:394    .text:0000000000000180 .L0 
     /tmp/cc4dRis9.s:396    .text:0000000000000180 .L0 
     /tmp/cc4dRis9.s:397    .text:0000000000000180 .L0 
     /tmp/cc4dRis9.s:400    .text:0000000000000188 .L0 
     /tmp/cc4dRis9.s:401    .text:0000000000000188 .L0 
     /tmp/cc4dRis9.s:403    .text:000000000000018c .L0 
     /tmp/cc4dRis9.s:405    .text:0000000000000190 .L0 
     /tmp/cc4dRis9.s:411    .text:0000000000000190 _Z8sem_waitP4_sem
     /tmp/cc4dRis9.s:414    .text:0000000000000190 .L0 
     /tmp/cc4dRis9.s:416    .text:0000000000000190 .L0 
     /tmp/cc4dRis9.s:417    .text:0000000000000194 .L0 
     /tmp/cc4dRis9.s:419    .text:0000000000000198 .L0 
     /tmp/cc4dRis9.s:421    .text:000000000000019c .L0 
GAS LISTING /tmp/cc4dRis9.s 			page 15


     /tmp/cc4dRis9.s:423    .text:000000000000019c .L0 
     /tmp/cc4dRis9.s:424    .text:000000000000019c .L0 
     /tmp/cc4dRis9.s:427    .text:00000000000001a4 .L0 
     /tmp/cc4dRis9.s:428    .text:00000000000001a4 .L0 
     /tmp/cc4dRis9.s:430    .text:00000000000001a8 .L0 
     /tmp/cc4dRis9.s:432    .text:00000000000001ac .L0 
     /tmp/cc4dRis9.s:438    .text:00000000000001ac _Z10sem_signalP4_sem
     /tmp/cc4dRis9.s:441    .text:00000000000001ac .L0 
     /tmp/cc4dRis9.s:443    .text:00000000000001ac .L0 
     /tmp/cc4dRis9.s:444    .text:00000000000001b0 .L0 
     /tmp/cc4dRis9.s:446    .text:00000000000001b4 .L0 
     /tmp/cc4dRis9.s:448    .text:00000000000001b8 .L0 
     /tmp/cc4dRis9.s:450    .text:00000000000001b8 .L0 
     /tmp/cc4dRis9.s:451    .text:00000000000001b8 .L0 
     /tmp/cc4dRis9.s:454    .text:00000000000001c0 .L0 
     /tmp/cc4dRis9.s:455    .text:00000000000001c0 .L0 
     /tmp/cc4dRis9.s:457    .text:00000000000001c4 .L0 
     /tmp/cc4dRis9.s:459    .text:00000000000001c8 .L0 
     /tmp/cc4dRis9.s:465    .text:00000000000001c8 _Z4getcv
     /tmp/cc4dRis9.s:468    .text:00000000000001c8 .L0 
     /tmp/cc4dRis9.s:469    .text:00000000000001c8 .L0 
     /tmp/cc4dRis9.s:470    .text:00000000000001cc .L0 
     /tmp/cc4dRis9.s:472    .text:00000000000001d0 .L0 
     /tmp/cc4dRis9.s:474    .text:00000000000001d4 .L0 
     /tmp/cc4dRis9.s:476    .text:00000000000001d4 .L0 
     /tmp/cc4dRis9.s:477    .text:00000000000001d4 .L0 
     /tmp/cc4dRis9.s:479    .text:00000000000001dc .L0 
     /tmp/cc4dRis9.s:480    .text:00000000000001dc .L0 
     /tmp/cc4dRis9.s:482    .text:00000000000001e0 .L0 
     /tmp/cc4dRis9.s:484    .text:00000000000001e4 .L0 
     /tmp/cc4dRis9.s:490    .text:00000000000001e4 _Z4putcc
     /tmp/cc4dRis9.s:493    .text:00000000000001e4 .L0 
     /tmp/cc4dRis9.s:494    .text:00000000000001e4 .L0 
     /tmp/cc4dRis9.s:495    .text:00000000000001e8 .L0 
     /tmp/cc4dRis9.s:497    .text:00000000000001ec .L0 
     /tmp/cc4dRis9.s:499    .text:00000000000001f0 .L0 
     /tmp/cc4dRis9.s:501    .text:00000000000001f0 .L0 
     /tmp/cc4dRis9.s:502    .text:00000000000001f4 .L0 
     /tmp/cc4dRis9.s:503    .text:00000000000001f4 .L0 
     /tmp/cc4dRis9.s:505    .text:00000000000001f8 .L0 
     /tmp/cc4dRis9.s:507    .text:00000000000001fc .L0 
     /tmp/cc4dRis9.s:514    .text:00000000000001fc .L0 
     /tmp/cc4dRis9.s:34     .text:0000000000000020 .L2
     /tmp/cc4dRis9.s:249    .text:00000000000000e8 .L8
     /tmp/cc4dRis9.s:177    .text:00000000000000ac .L7
     /tmp/cc4dRis9.s:1154   .debug_abbrev:0000000000000000 .Ldebug_abbrev0
     /tmp/cc4dRis9.s:2083   .debug_str:00000000000003a0 .LASF64
     /tmp/cc4dRis9.s:2019   .debug_str:00000000000001af .LASF65
     /tmp/cc4dRis9.s:2007   .debug_str:000000000000015b .LASF66
     /tmp/cc4dRis9.s:5      .text:0000000000000000 .Ltext0
     /tmp/cc4dRis9.s:510    .text:00000000000001fc .Letext0
     /tmp/cc4dRis9.s:1951   .debug_line:0000000000000000 .Ldebug_line0
     /tmp/cc4dRis9.s:2037   .debug_str:000000000000024f .LASF0
     /tmp/cc4dRis9.s:2043   .debug_str:0000000000000269 .LASF1
     /tmp/cc4dRis9.s:2027   .debug_str:00000000000001eb .LASF2
     /tmp/cc4dRis9.s:2015   .debug_str:0000000000000199 .LASF4
     /tmp/cc4dRis9.s:2073   .debug_str:000000000000036c .LASF3
GAS LISTING /tmp/cc4dRis9.s 			page 16


     /tmp/cc4dRis9.s:1969   .debug_str:0000000000000067 .LASF5
     /tmp/cc4dRis9.s:1987   .debug_str:00000000000000e8 .LASF6
     /tmp/cc4dRis9.s:2047   .debug_str:000000000000028d .LASF7
     /tmp/cc4dRis9.s:2035   .debug_str:000000000000023c .LASF8
     /tmp/cc4dRis9.s:2093   .debug_str:0000000000000495 .LASF9
     /tmp/cc4dRis9.s:2005   .debug_str:000000000000014d .LASF10
     /tmp/cc4dRis9.s:2057   .debug_str:00000000000002c9 .LASF11
     /tmp/cc4dRis9.s:2085   .debug_str:0000000000000464 .LASF12
     /tmp/cc4dRis9.s:1971   .debug_str:000000000000006e .LASF13
     /tmp/cc4dRis9.s:1959   .debug_str:0000000000000033 .LASF14
     /tmp/cc4dRis9.s:1975   .debug_str:0000000000000090 .LASF15
     /tmp/cc4dRis9.s:2069   .debug_str:000000000000034b .LASF16
     /tmp/cc4dRis9.s:1983   .debug_str:00000000000000c4 .LASF17
     /tmp/cc4dRis9.s:1953   .debug_str:0000000000000000 .LASF18
     /tmp/cc4dRis9.s:1993   .debug_str:0000000000000111 .LASF19
     /tmp/cc4dRis9.s:2013   .debug_str:0000000000000194 .LASF20
     /tmp/cc4dRis9.s:2025   .debug_str:00000000000001db .LASF67
     /tmp/cc4dRis9.s:2089   .debug_str:000000000000047b .LASF24
     /tmp/cc4dRis9.s:2101   .debug_str:00000000000004c4 .LASF21
     /tmp/cc4dRis9.s:2095   .debug_str:00000000000004a5 .LASF22
     /tmp/cc4dRis9.s:2079   .debug_str:000000000000038f .LASF23
     /tmp/cc4dRis9.s:2017   .debug_str:00000000000001a0 .LASF25
     /tmp/cc4dRis9.s:2087   .debug_str:0000000000000473 .LASF26
     /tmp/cc4dRis9.s:2067   .debug_str:000000000000032c .LASF28
     /tmp/cc4dRis9.s:1977   .debug_str:000000000000009c .LASF27
     /tmp/cc4dRis9.s:1957   .debug_str:0000000000000015 .LASF29
     /tmp/cc4dRis9.s:1989   .debug_str:00000000000000ef .LASF68
     /tmp/cc4dRis9.s:1955   .debug_str:0000000000000009 .LASF30
     /tmp/cc4dRis9.s:2099   .debug_str:00000000000004b8 .LASF31
     /tmp/cc4dRis9.s:2055   .debug_str:00000000000002bd .LASF32
     /tmp/cc4dRis9.s:1995   .debug_str:0000000000000117 .LASF69
     /tmp/cc4dRis9.s:2029   .debug_str:00000000000001f9 .LASF70
     /tmp/cc4dRis9.s:1999   .debug_str:000000000000012a .LASF33
     /tmp/cc4dRis9.s:2031   .debug_str:000000000000022e .LASF47
     /tmp/cc4dRis9.s:2001   .debug_str:000000000000012f .LASF49
     /tmp/cc4dRis9.s:491    .text:00000000000001e4 .LFB31
     /tmp/cc4dRis9.s:508    .text:00000000000001fc .LFE31
     /tmp/cc4dRis9.s:2049   .debug_str:00000000000002a0 .LASF34
     /tmp/cc4dRis9.s:1961   .debug_str:0000000000000043 .LASF51
     /tmp/cc4dRis9.s:1965   .debug_str:0000000000000054 .LASF53
     /tmp/cc4dRis9.s:466    .text:00000000000001c8 .LFB30
     /tmp/cc4dRis9.s:485    .text:00000000000001e4 .LFE30
     /tmp/cc4dRis9.s:2091   .debug_str:000000000000048a .LASF35
     /tmp/cc4dRis9.s:2003   .debug_str:0000000000000138 .LASF37
     /tmp/cc4dRis9.s:439    .text:00000000000001ac .LFB29
     /tmp/cc4dRis9.s:460    .text:00000000000001c8 .LFE29
     /tmp/cc4dRis9.s:1767   .debug_loc:0000000000000000 .LLST10
     /tmp/cc4dRis9.s:2033   .debug_str:0000000000000233 .LASF36
     /tmp/cc4dRis9.s:1973   .debug_str:000000000000007e .LASF38
     /tmp/cc4dRis9.s:412    .text:0000000000000190 .LFB28
     /tmp/cc4dRis9.s:433    .text:00000000000001ac .LFE28
     /tmp/cc4dRis9.s:1781   .debug_loc:0000000000000039 .LLST9
     /tmp/cc4dRis9.s:2021   .debug_str:00000000000001c1 .LASF39
     /tmp/cc4dRis9.s:2053   .debug_str:00000000000002aa .LASF40
     /tmp/cc4dRis9.s:385    .text:0000000000000174 .LFB27
     /tmp/cc4dRis9.s:406    .text:0000000000000190 .LFE27
     /tmp/cc4dRis9.s:2077   .debug_str:0000000000000388 .LASF41
GAS LISTING /tmp/cc4dRis9.s 			page 17


     /tmp/cc4dRis9.s:1795   .debug_loc:0000000000000072 .LLST8
     /tmp/cc4dRis9.s:1997   .debug_str:0000000000000121 .LASF42
     /tmp/cc4dRis9.s:1981   .debug_str:00000000000000b0 .LASF43
     /tmp/cc4dRis9.s:358    .text:0000000000000158 .LFB26
     /tmp/cc4dRis9.s:379    .text:0000000000000174 .LFE26
     /tmp/cc4dRis9.s:1809   .debug_loc:00000000000000ab .LLST7
     /tmp/cc4dRis9.s:2051   .debug_str:00000000000002a5 .LASF44
     /tmp/cc4dRis9.s:2071   .debug_str:0000000000000361 .LASF45
     /tmp/cc4dRis9.s:2061   .debug_str:00000000000002ed .LASF46
     /tmp/cc4dRis9.s:333    .text:000000000000013c .LFB25
     /tmp/cc4dRis9.s:352    .text:0000000000000158 .LFE25
     /tmp/cc4dRis9.s:2081   .debug_str:0000000000000394 .LASF48
     /tmp/cc4dRis9.s:2009   .debug_str:0000000000000179 .LASF50
     /tmp/cc4dRis9.s:309    .text:0000000000000124 .LFB24
     /tmp/cc4dRis9.s:327    .text:000000000000013c .LFE24
     /tmp/cc4dRis9.s:2023   .debug_str:00000000000001cb .LASF71
     /tmp/cc4dRis9.s:2059   .debug_str:00000000000002d8 .LASF72
     /tmp/cc4dRis9.s:286    .text:000000000000010c .LFB23
     /tmp/cc4dRis9.s:303    .text:0000000000000124 .LFE23
     /tmp/cc4dRis9.s:1963   .debug_str:0000000000000048 .LASF52
     /tmp/cc4dRis9.s:2045   .debug_str:000000000000027c .LASF54
     /tmp/cc4dRis9.s:261    .text:00000000000000f0 .LFB22
     /tmp/cc4dRis9.s:280    .text:000000000000010c .LFE22
     /tmp/cc4dRis9.s:1985   .debug_str:00000000000000da .LASF55
     /tmp/cc4dRis9.s:2065   .debug_str:000000000000030b .LASF56
     /tmp/cc4dRis9.s:147    .text:0000000000000070 .LFB21
     /tmp/cc4dRis9.s:255    .text:00000000000000f0 .LFE21
     /tmp/cc4dRis9.s:1823   .debug_loc:00000000000000e4 .LLST2
     /tmp/cc4dRis9.s:2063   .debug_str:00000000000002fd .LASF57
     /tmp/cc4dRis9.s:1845   .debug_loc:0000000000000143 .LLST3
     /tmp/cc4dRis9.s:1867   .debug_loc:00000000000001a2 .LLST4
     /tmp/cc4dRis9.s:2011   .debug_str:000000000000018e .LASF58
     /tmp/cc4dRis9.s:1889   .debug_loc:0000000000000201 .LLST5
     /tmp/cc4dRis9.s:2041   .debug_str:0000000000000262 .LASF59
     /tmp/cc4dRis9.s:1896   .debug_loc:0000000000000224 .LLST6
     /tmp/cc4dRis9.s:207    .text:00000000000000c0 .LBB12
     /tmp/cc4dRis9.s:217    .text:00000000000000c4 .LBE12
     /tmp/cc4dRis9.s:175    .text:00000000000000a8 .LVL10
     /tmp/cc4dRis9.s:1991   .debug_str:0000000000000108 .LASF60
     /tmp/cc4dRis9.s:2097   .debug_str:00000000000004aa .LASF61
     /tmp/cc4dRis9.s:86     .text:0000000000000040 .LFB20
     /tmp/cc4dRis9.s:141    .text:0000000000000070 .LFE20
     /tmp/cc4dRis9.s:1903   .debug_loc:0000000000000247 .LLST1
     /tmp/cc4dRis9.s:111    .text:0000000000000058 .LBB10
     /tmp/cc4dRis9.s:121    .text:000000000000005c .LBE10
     /tmp/cc4dRis9.s:2075   .debug_str:000000000000037e .LASF62
     /tmp/cc4dRis9.s:1979   .debug_str:00000000000000a2 .LASF63
     /tmp/cc4dRis9.s:10     .text:0000000000000000 .LFB19
     /tmp/cc4dRis9.s:80     .text:0000000000000040 .LFE19
     /tmp/cc4dRis9.s:1914   .debug_loc:000000000000027d .LLST0
     /tmp/cc4dRis9.s:51     .text:000000000000002c .LBB8
     /tmp/cc4dRis9.s:61     .text:0000000000000030 .LBE8
     /tmp/cc4dRis9.s:2039   .debug_str:000000000000025c .LASF73
     /tmp/cc4dRis9.s:1967   .debug_str:000000000000005d .LASF74
     /tmp/cc4dRis9.s:442    .text:00000000000001ac .LVL24
     /tmp/cc4dRis9.s:452    .text:00000000000001bc .LVL25
     /tmp/cc4dRis9.s:415    .text:0000000000000190 .LVL22
GAS LISTING /tmp/cc4dRis9.s 			page 18


     /tmp/cc4dRis9.s:425    .text:00000000000001a0 .LVL23
     /tmp/cc4dRis9.s:388    .text:0000000000000174 .LVL20
     /tmp/cc4dRis9.s:398    .text:0000000000000184 .LVL21
     /tmp/cc4dRis9.s:361    .text:0000000000000158 .LVL18
     /tmp/cc4dRis9.s:371    .text:0000000000000168 .LVL19
     /tmp/cc4dRis9.s:150    .text:0000000000000070 .LVL8
     /tmp/cc4dRis9.s:173    .text:00000000000000a0 .LVL9
     /tmp/cc4dRis9.s:241    .text:00000000000000dc .LVL14
     /tmp/cc4dRis9.s:248    .text:00000000000000e8 .LVL16
     /tmp/cc4dRis9.s:238    .text:00000000000000d8 .LVL13
     /tmp/cc4dRis9.s:244    .text:00000000000000e0 .LVL15
     /tmp/cc4dRis9.s:178    .text:00000000000000ac .LVL11
     /tmp/cc4dRis9.s:225    .text:00000000000000c8 .LVL12
     /tmp/cc4dRis9.s:89     .text:0000000000000040 .LVL5
     /tmp/cc4dRis9.s:103    .text:0000000000000054 .LVL6
     /tmp/cc4dRis9.s:14     .text:0000000000000000 .LVL0
     /tmp/cc4dRis9.s:24     .text:0000000000000010 .LVL1
     /tmp/cc4dRis9.s:30     .text:0000000000000018 .LVL2
     /tmp/cc4dRis9.s:37     .text:0000000000000024 .LVL3
     /tmp/cc4dRis9.s:515    .debug_info:0000000000000000 .Ldebug_info0

UNDEFINED SYMBOLS
_ZN15MemoryAllocator7kmallocEm
