GAS LISTING /tmp/ccpuD3Pj.s 			page 1


   1              		.file	"syscall_cpp.cpp"
   2              		.option pic
   3              		.option norelax
   4              		.text
   5              	.Ltext0:
   6              		.section	.text._ZN6Thread3runEv,"axG",@progbits,_ZN6Thread3runEv,comdat
   7              		.align	2
   8              		.weak	_ZN6Thread3runEv
  10              	_ZN6Thread3runEv:
  11              	.LFB0:
  12              		.file 1 "src/../h/syscall_cpp.hpp"
   1:src/../h/syscall_cpp.hpp **** #ifndef _syscall_cpp
   2:src/../h/syscall_cpp.hpp **** #define _syscall_cpp
   3:src/../h/syscall_cpp.hpp **** 
   4:src/../h/syscall_cpp.hpp **** #include "../lib/hw.h"
   5:src/../h/syscall_cpp.hpp **** 
   6:src/../h/syscall_cpp.hpp **** void* operator new(size_t);
   7:src/../h/syscall_cpp.hpp **** 
   8:src/../h/syscall_cpp.hpp **** void* operator new[](size_t);
   9:src/../h/syscall_cpp.hpp **** 
  10:src/../h/syscall_cpp.hpp **** void operator delete(void*)
  11:src/../h/syscall_cpp.hpp **** 
  12:src/../h/syscall_cpp.hpp **** noexcept;
  13:src/../h/syscall_cpp.hpp **** 
  14:src/../h/syscall_cpp.hpp **** void operator delete[](void*)
  15:src/../h/syscall_cpp.hpp **** 
  16:src/../h/syscall_cpp.hpp **** noexcept;
  17:src/../h/syscall_cpp.hpp **** 
  18:src/../h/syscall_cpp.hpp **** class TCB;
  19:src/../h/syscall_cpp.hpp **** 
  20:src/../h/syscall_cpp.hpp **** typedef TCB* thread_t;
  21:src/../h/syscall_cpp.hpp **** 
  22:src/../h/syscall_cpp.hpp **** class KSem;
  23:src/../h/syscall_cpp.hpp **** 
  24:src/../h/syscall_cpp.hpp **** typedef KSem* sem_t;
  25:src/../h/syscall_cpp.hpp **** 
  26:src/../h/syscall_cpp.hpp **** class Thread {
  27:src/../h/syscall_cpp.hpp **** public:
  28:src/../h/syscall_cpp.hpp **** 	Thread(void (* body)(void*), void* arg);
  29:src/../h/syscall_cpp.hpp **** 
  30:src/../h/syscall_cpp.hpp **** 	virtual ~Thread();
  31:src/../h/syscall_cpp.hpp **** 
  32:src/../h/syscall_cpp.hpp **** 	int start();
  33:src/../h/syscall_cpp.hpp **** 
  34:src/../h/syscall_cpp.hpp **** 	void join();
  35:src/../h/syscall_cpp.hpp **** 
  36:src/../h/syscall_cpp.hpp **** 	static void dispatch();
  37:src/../h/syscall_cpp.hpp **** 
  38:src/../h/syscall_cpp.hpp **** 	static int sleep(time_t);
  39:src/../h/syscall_cpp.hpp **** 
  40:src/../h/syscall_cpp.hpp **** protected:
  41:src/../h/syscall_cpp.hpp **** 	Thread();
  42:src/../h/syscall_cpp.hpp **** 
  43:src/../h/syscall_cpp.hpp **** 	virtual void run() {}
  13              		.loc 1 43 15
  14              		.cfi_startproc
  15              	.LVL0:
GAS LISTING /tmp/ccpuD3Pj.s 			page 2


  16 0000 130101FF 		addi	sp,sp,-16
  17              		.cfi_def_cfa_offset 16
  18 0004 23348100 		sd	s0,8(sp)
  19              		.cfi_offset 8, -8
  20 0008 13040101 		addi	s0,sp,16
  21              		.cfi_def_cfa 8, 0
  22              		.loc 1 43 22 is_stmt 0
  23 000c 03348100 		ld	s0,8(sp)
  24              		.cfi_restore 8
  25              		.cfi_def_cfa 2, 16
  26 0010 13010101 		addi	sp,sp,16
  27              		.cfi_def_cfa_offset 0
  28 0014 67800000 		jr	ra
  29              		.cfi_endproc
  30              	.LFE0:
  32              		.section	.text._ZN14PeriodicThread18periodicActivationEv,"axG",@progbits,_ZN14PeriodicThread18peri
  33              		.align	2
  34              		.weak	_ZN14PeriodicThread18periodicActivationEv
  36              	_ZN14PeriodicThread18periodicActivationEv:
  37              	.LFB1:
  44:src/../h/syscall_cpp.hpp **** 
  45:src/../h/syscall_cpp.hpp **** private:
  46:src/../h/syscall_cpp.hpp **** 	thread_t myHandle;
  47:src/../h/syscall_cpp.hpp **** 
  48:src/../h/syscall_cpp.hpp **** 	void (* body)(void*);
  49:src/../h/syscall_cpp.hpp **** 
  50:src/../h/syscall_cpp.hpp **** 	void* arg;
  51:src/../h/syscall_cpp.hpp **** 
  52:src/../h/syscall_cpp.hpp **** 	static void wrapper(void* thread);
  53:src/../h/syscall_cpp.hpp **** };
  54:src/../h/syscall_cpp.hpp **** 
  55:src/../h/syscall_cpp.hpp **** 
  56:src/../h/syscall_cpp.hpp **** class Semaphore {
  57:src/../h/syscall_cpp.hpp **** public:
  58:src/../h/syscall_cpp.hpp **** 
  59:src/../h/syscall_cpp.hpp **** 	Semaphore(unsigned init = 1);
  60:src/../h/syscall_cpp.hpp **** 
  61:src/../h/syscall_cpp.hpp **** 	virtual ~Semaphore();
  62:src/../h/syscall_cpp.hpp **** 
  63:src/../h/syscall_cpp.hpp **** 	int wait();
  64:src/../h/syscall_cpp.hpp **** 
  65:src/../h/syscall_cpp.hpp **** 	int signal();
  66:src/../h/syscall_cpp.hpp **** 
  67:src/../h/syscall_cpp.hpp **** private:
  68:src/../h/syscall_cpp.hpp **** 	sem_t myHandle;
  69:src/../h/syscall_cpp.hpp **** 
  70:src/../h/syscall_cpp.hpp **** };
  71:src/../h/syscall_cpp.hpp **** 
  72:src/../h/syscall_cpp.hpp **** 
  73:src/../h/syscall_cpp.hpp **** class PeriodicThread : public Thread {
  74:src/../h/syscall_cpp.hpp **** public:
  75:src/../h/syscall_cpp.hpp **** 	void terminate();
  76:src/../h/syscall_cpp.hpp **** 
  77:src/../h/syscall_cpp.hpp **** protected:
  78:src/../h/syscall_cpp.hpp **** 	PeriodicThread(time_t period);
  79:src/../h/syscall_cpp.hpp **** 
  80:src/../h/syscall_cpp.hpp **** 	virtual void periodicActivation() {}
GAS LISTING /tmp/ccpuD3Pj.s 			page 3


  38              		.loc 1 80 15 is_stmt 1
  39              		.cfi_startproc
  40              	.LVL1:
  41 0000 130101FF 		addi	sp,sp,-16
  42              		.cfi_def_cfa_offset 16
  43 0004 23348100 		sd	s0,8(sp)
  44              		.cfi_offset 8, -8
  45 0008 13040101 		addi	s0,sp,16
  46              		.cfi_def_cfa 8, 0
  47              		.loc 1 80 37 is_stmt 0
  48 000c 03348100 		ld	s0,8(sp)
  49              		.cfi_restore 8
  50              		.cfi_def_cfa 2, 16
  51 0010 13010101 		addi	sp,sp,16
  52              		.cfi_def_cfa_offset 0
  53 0014 67800000 		jr	ra
  54              		.cfi_endproc
  55              	.LFE1:
  57              		.text
  58              		.align	2
  59              		.globl	_ZN6Thread7wrapperEPv
  61              	_ZN6Thread7wrapperEPv:
  62              	.LFB56:
  63              		.file 2 "src/syscall_cpp.cpp"
   1:src/syscall_cpp.cpp **** //
   2:src/syscall_cpp.cpp **** // Created by os on 5/29/23.
   3:src/syscall_cpp.cpp **** //
   4:src/syscall_cpp.cpp **** #include "../h/syscall_cpp.hpp"
   5:src/syscall_cpp.cpp **** #include "../h/syscall_c.hpp"
   6:src/syscall_cpp.cpp **** #include "../h/TCB.hpp"
   7:src/syscall_cpp.cpp **** #include "../h/KSem.hpp"
   8:src/syscall_cpp.cpp **** #include "../h/Scheduler.hpp"
   9:src/syscall_cpp.cpp **** 
  10:src/syscall_cpp.cpp **** //override globalnog new
  11:src/syscall_cpp.cpp **** void* operator new(size_t size) {
  12:src/syscall_cpp.cpp **** 	return mem_alloc(size);
  13:src/syscall_cpp.cpp **** }
  14:src/syscall_cpp.cpp **** 
  15:src/syscall_cpp.cpp **** void* operator new[](size_t size) {
  16:src/syscall_cpp.cpp **** 	return mem_alloc(size);
  17:src/syscall_cpp.cpp **** }
  18:src/syscall_cpp.cpp **** 
  19:src/syscall_cpp.cpp **** void operator delete(void* ptr)
  20:src/syscall_cpp.cpp **** 
  21:src/syscall_cpp.cpp **** noexcept {
  22:src/syscall_cpp.cpp **** mem_free(ptr);
  23:src/syscall_cpp.cpp **** }
  24:src/syscall_cpp.cpp **** 
  25:src/syscall_cpp.cpp **** void operator delete[](void* ptr)
  26:src/syscall_cpp.cpp **** 
  27:src/syscall_cpp.cpp **** noexcept {
  28:src/syscall_cpp.cpp **** mem_free(ptr);
  29:src/syscall_cpp.cpp **** }
  30:src/syscall_cpp.cpp **** 
  31:src/syscall_cpp.cpp **** //konstruktor za Thread
  32:src/syscall_cpp.cpp **** Thread::Thread(void (* body)(void*), void* arg) {
  33:src/syscall_cpp.cpp **** 	this->body = body;
GAS LISTING /tmp/ccpuD3Pj.s 			page 4


  34:src/syscall_cpp.cpp **** 	this->arg = arg;
  35:src/syscall_cpp.cpp **** 	//stvaranje steka ako se ne radi o main kernel niti, posto ona automatski ima stek
  36:src/syscall_cpp.cpp **** 	uint64* stack = nullptr;
  37:src/syscall_cpp.cpp **** 	if (body != nullptr) {
  38:src/syscall_cpp.cpp **** 		stack = (uint64*)mem_alloc(DEFAULT_STACK_SIZE);
  39:src/syscall_cpp.cpp **** 	}
  40:src/syscall_cpp.cpp **** 	//uint64* stack = (start_routine != nullptr ? (uint64*)MemoryAllocator::kmalloc(DEFAULT_STACK_SIZE
  41:src/syscall_cpp.cpp **** 	//stavljanje argumenata za sistemski poziv
  42:src/syscall_cpp.cpp **** 	__asm__ volatile("mv a4, %[sp]": :[sp] "r"(stack):"a5", "a0", "a1", "a2", "a3", "a4", "a6", "a7");
  43:src/syscall_cpp.cpp **** 	__asm__ volatile("mv a3, %[arg]": :[arg] "r"(arg):"a5", "a0", "a1", "a2", "a3", "a4", "a6", "a7");
  44:src/syscall_cpp.cpp **** 	__asm__ volatile("mv a2, %[function]": :[function] "r"(
  45:src/syscall_cpp.cpp **** 			body):"a5", "a0", "a1", "a2", "a3", "a4", "a6", "a7");
  46:src/syscall_cpp.cpp **** 	__asm__ volatile("mv a1, %[handle]": :[handle] "r"(&myHandle):"a5", "a0", "a1", "a2", "a3", "a4", 
  47:src/syscall_cpp.cpp **** 	__asm__ volatile("li a0, 0x80");
  48:src/syscall_cpp.cpp **** 	//a0 = 0x80
  49:src/syscall_cpp.cpp **** 	//a1 = adresa pokazivaca na rucku niti
  50:src/syscall_cpp.cpp **** 	//a2 = prva adresa funkcije koju nit izvrsava
  51:src/syscall_cpp.cpp **** 	//a3 = pokazivac na argumente funkcije
  52:src/syscall_cpp.cpp **** 	//a4 = pokazivac na najnizu adresu steka (stek raste ka nizim adresama, pokazuje na poslednju zauz
  53:src/syscall_cpp.cpp **** 
  54:src/syscall_cpp.cpp **** 	__asm__ volatile("ecall");
  55:src/syscall_cpp.cpp **** }
  56:src/syscall_cpp.cpp **** 
  57:src/syscall_cpp.cpp **** Thread::~Thread() {
  58:src/syscall_cpp.cpp **** 	//ne treba da se gasi running nit, vec nit na koju pokazuje rucka od this
  59:src/syscall_cpp.cpp **** 	thread_join(this->myHandle);
  60:src/syscall_cpp.cpp **** 	delete myHandle;
  61:src/syscall_cpp.cpp **** 
  62:src/syscall_cpp.cpp **** 	//ovo nije dobro
  63:src/syscall_cpp.cpp **** 	//thread_exit();
  64:src/syscall_cpp.cpp **** }
  65:src/syscall_cpp.cpp **** 
  66:src/syscall_cpp.cpp **** int Thread::start() {
  67:src/syscall_cpp.cpp **** 	if (myHandle == nullptr) return -1;
  68:src/syscall_cpp.cpp **** 	__asm__ volatile("mv a1, %[handle]": :[handle] "r"(myHandle):"a5", "a0", "a1", "a2", "a3", "a4", "
  69:src/syscall_cpp.cpp **** 	__asm__ volatile("li a0, 0x81");
  70:src/syscall_cpp.cpp **** 
  71:src/syscall_cpp.cpp **** 	__asm__ volatile("ecall");
  72:src/syscall_cpp.cpp **** 
  73:src/syscall_cpp.cpp **** 	return 0;
  74:src/syscall_cpp.cpp **** }
  75:src/syscall_cpp.cpp **** 
  76:src/syscall_cpp.cpp **** void Thread::join() {
  77:src/syscall_cpp.cpp **** 	thread_join(myHandle);
  78:src/syscall_cpp.cpp **** }
  79:src/syscall_cpp.cpp **** 
  80:src/syscall_cpp.cpp **** void Thread::dispatch() {
  81:src/syscall_cpp.cpp **** 	thread_dispatch();
  82:src/syscall_cpp.cpp **** }
  83:src/syscall_cpp.cpp **** 
  84:src/syscall_cpp.cpp **** int Thread::sleep(time_t t) {
  85:src/syscall_cpp.cpp **** 	Scheduler::putToSleep(TCB::running, t);
  86:src/syscall_cpp.cpp **** 	return 0;
  87:src/syscall_cpp.cpp **** }
  88:src/syscall_cpp.cpp **** 
  89:src/syscall_cpp.cpp **** Thread::Thread() {
  90:src/syscall_cpp.cpp **** 	this->body = wrapper;
GAS LISTING /tmp/ccpuD3Pj.s 			page 5


  91:src/syscall_cpp.cpp **** 	this->arg = this;
  92:src/syscall_cpp.cpp **** 	//stvaranje steka ako se ne radi o main kernel niti, posto ona automatski ima stek
  93:src/syscall_cpp.cpp **** 	uint64* stack = nullptr;
  94:src/syscall_cpp.cpp **** 	if (body != nullptr) {
  95:src/syscall_cpp.cpp **** 		stack = (uint64*)mem_alloc(DEFAULT_STACK_SIZE);
  96:src/syscall_cpp.cpp **** 	}
  97:src/syscall_cpp.cpp **** 	//uint64* stack = (start_routine != nullptr ? (uint64*)MemoryAllocator::kmalloc(DEFAULT_STACK_SIZE
  98:src/syscall_cpp.cpp **** 	//stavljanje argumenata za sistemski poziv
  99:src/syscall_cpp.cpp **** 	__asm__ volatile("mv a4, %[sp]": :[sp] "r"(stack):"a5", "a0", "a1", "a2", "a3", "a4", "a6", "a7");
 100:src/syscall_cpp.cpp **** 	__asm__ volatile("mv a3, %[arg]": :[arg] "r"(arg):"a5", "a0", "a1", "a2", "a3", "a4", "a6", "a7");
 101:src/syscall_cpp.cpp **** 	__asm__ volatile("mv a2, %[function]": :[function] "r"(
 102:src/syscall_cpp.cpp **** 			body):"a5", "a0", "a1", "a2", "a3", "a4", "a6", "a7");
 103:src/syscall_cpp.cpp **** 	__asm__ volatile("mv a1, %[handle]": :[handle] "r"(&myHandle):"a5", "a0", "a1", "a2", "a3", "a4", 
 104:src/syscall_cpp.cpp **** 	__asm__ volatile("li a0, 0x80");
 105:src/syscall_cpp.cpp **** 	//a0 = 0x80
 106:src/syscall_cpp.cpp **** 	//a1 = adresa pokazivaca na rucku niti
 107:src/syscall_cpp.cpp **** 	//a2 = prva adresa funkcije koju nit izvrsava
 108:src/syscall_cpp.cpp **** 	//a3 = pokazivac na argumente funkcije
 109:src/syscall_cpp.cpp **** 	//a4 = pokazivac na najnizu adresu steka (stek raste ka nizim adresama, pokazuje na poslednju zauz
 110:src/syscall_cpp.cpp **** 
 111:src/syscall_cpp.cpp **** 	__asm__ volatile("ecall");
 112:src/syscall_cpp.cpp **** }
 113:src/syscall_cpp.cpp **** 
 114:src/syscall_cpp.cpp **** void Thread::wrapper(void* thread) {
  64              		.loc 2 114 36 is_stmt 1
  65              		.cfi_startproc
  66              	.LVL2:
 115:src/syscall_cpp.cpp **** 	if (thread != nullptr) {
  67              		.loc 2 115 2
  68 0000 63080502 		beqz	a0,.L8
 114:src/syscall_cpp.cpp **** 	if (thread != nullptr) {
  69              		.loc 2 114 36 is_stmt 0
  70 0004 130101FF 		addi	sp,sp,-16
  71              		.cfi_def_cfa_offset 16
  72 0008 23341100 		sd	ra,8(sp)
  73 000c 23308100 		sd	s0,0(sp)
  74              		.cfi_offset 1, -8
  75              		.cfi_offset 8, -16
  76 0010 13040101 		addi	s0,sp,16
  77              		.cfi_def_cfa 8, 0
 116:src/syscall_cpp.cpp **** 		((Thread*)thread)->run();
  78              		.loc 2 116 3 is_stmt 1
  79              		.loc 2 116 26 is_stmt 0
  80 0014 83370500 		ld	a5,0(a0)
  81 0018 83B70701 		ld	a5,16(a5)
  82              		.loc 2 116 25
  83 001c E7800700 		jalr	a5
  84              	.LVL3:
 117:src/syscall_cpp.cpp **** 	}
 118:src/syscall_cpp.cpp **** }
  85              		.loc 2 118 1
  86 0020 83308100 		ld	ra,8(sp)
  87              		.cfi_restore 1
  88 0024 03340100 		ld	s0,0(sp)
  89              		.cfi_restore 8
  90              		.cfi_def_cfa 2, 16
  91 0028 13010101 		addi	sp,sp,16
GAS LISTING /tmp/ccpuD3Pj.s 			page 6


  92              		.cfi_def_cfa_offset 0
  93 002c 67800000 		jr	ra
  94              	.LVL4:
  95              	.L8:
  96 0030 67800000 		ret
  97              		.cfi_endproc
  98              	.LFE56:
 100              		.align	2
 101              		.globl	_ZN6ThreadD2Ev
 103              	_ZN6ThreadD2Ev:
 104              	.LFB46:
  57:src/syscall_cpp.cpp **** 	//ne treba da se gasi running nit, vec nit na koju pokazuje rucka od this
 105              		.loc 2 57 1 is_stmt 1
 106              		.cfi_startproc
 107              		.cfi_personality 0x9b,DW.ref.__gxx_personality_v0
 108              		.cfi_lsda 0x1b,.LLSDA46
 109              	.LVL5:
 110 0034 130101FE 		addi	sp,sp,-32
 111              		.cfi_def_cfa_offset 32
 112 0038 233C1100 		sd	ra,24(sp)
 113 003c 23388100 		sd	s0,16(sp)
 114 0040 23349100 		sd	s1,8(sp)
 115              		.cfi_offset 1, -8
 116              		.cfi_offset 8, -16
 117              		.cfi_offset 9, -24
 118 0044 13040102 		addi	s0,sp,32
 119              		.cfi_def_cfa 8, 0
 120 0048 93040500 		mv	s1,a0
 121              	.LBB54:
  57:src/syscall_cpp.cpp **** 	//ne treba da se gasi running nit, vec nit na koju pokazuje rucka od this
 122              		.loc 2 57 17 is_stmt 0
 123 004c 97070000 		lla	a5,_ZTV6Thread+16
 123      93870700 
 124 0054 2330F500 		sd	a5,0(a0)
  59:src/syscall_cpp.cpp **** 	delete myHandle;
 125              		.loc 2 59 2 is_stmt 1
  59:src/syscall_cpp.cpp **** 	delete myHandle;
 126              		.loc 2 59 13 is_stmt 0
 127 0058 03358500 		ld	a0,8(a0)
 128              	.LVL6:
 129 005c 97000000 		call	_Z11thread_joinP3TCB@plt
 129      E7800000 
 130              	.LVL7:
  60:src/syscall_cpp.cpp **** 
 131              		.loc 2 60 2 is_stmt 1
  60:src/syscall_cpp.cpp **** 
 132              		.loc 2 60 9 is_stmt 0
 133 0064 83B48400 		ld	s1,8(s1)
 134              	.LVL8:
  60:src/syscall_cpp.cpp **** 
 135              		.loc 2 60 17
 136 0068 63880402 		beqz	s1,.L11
 137              	.L14:
 138              	.LBB55:
 139              	.LBB56:
 140              	.LBB57:
 141              		.file 3 "src/../h/../h/ThreadQueue.hpp"
GAS LISTING /tmp/ccpuD3Pj.s 			page 7


   1:src/../h/../h/ThreadQueue.hpp **** //
   2:src/../h/../h/ThreadQueue.hpp **** // Created by os on 6/4/23.
   3:src/../h/../h/ThreadQueue.hpp **** //
   4:src/../h/../h/ThreadQueue.hpp **** 
   5:src/../h/../h/ThreadQueue.hpp **** #ifndef PROJEKAT2023_THREADQUEUE_HPP
   6:src/../h/../h/ThreadQueue.hpp **** #define PROJEKAT2023_THREADQUEUE_HPP
   7:src/../h/../h/ThreadQueue.hpp **** 
   8:src/../h/../h/ThreadQueue.hpp **** #include "../h/MemoryAllocator.hpp"
   9:src/../h/../h/ThreadQueue.hpp **** #include "../h/syscall_c.hpp"
  10:src/../h/../h/ThreadQueue.hpp **** 
  11:src/../h/../h/ThreadQueue.hpp **** class TCB;
  12:src/../h/../h/ThreadQueue.hpp **** 
  13:src/../h/../h/ThreadQueue.hpp **** class ThreadQueue {
  14:src/../h/../h/ThreadQueue.hpp **** private:
  15:src/../h/../h/ThreadQueue.hpp **** 	struct Node {
  16:src/../h/../h/ThreadQueue.hpp **** 		TCB* data;
  17:src/../h/../h/ThreadQueue.hpp **** 		Node* next;
  18:src/../h/../h/ThreadQueue.hpp **** 
  19:src/../h/../h/ThreadQueue.hpp **** 		Node(TCB* d) : data(d), next(nullptr) {}
  20:src/../h/../h/ThreadQueue.hpp **** 
  21:src/../h/../h/ThreadQueue.hpp **** 		static void* operator new(size_t size) {
  22:src/../h/../h/ThreadQueue.hpp **** 			return mem_alloc(size);
  23:src/../h/../h/ThreadQueue.hpp **** 		}
  24:src/../h/../h/ThreadQueue.hpp **** 
  25:src/../h/../h/ThreadQueue.hpp **** 		static void operator delete(void* ptr) {
  26:src/../h/../h/ThreadQueue.hpp **** 			mem_free(ptr);
  27:src/../h/../h/ThreadQueue.hpp **** 		}
  28:src/../h/../h/ThreadQueue.hpp **** 	};
  29:src/../h/../h/ThreadQueue.hpp **** 
  30:src/../h/../h/ThreadQueue.hpp **** 	Node* front;
  31:src/../h/../h/ThreadQueue.hpp **** 	Node* back;
  32:src/../h/../h/ThreadQueue.hpp **** 
  33:src/../h/../h/ThreadQueue.hpp **** public:
  34:src/../h/../h/ThreadQueue.hpp **** 	ThreadQueue() : front(nullptr), back(nullptr) {}
  35:src/../h/../h/ThreadQueue.hpp **** 
  36:src/../h/../h/ThreadQueue.hpp **** 	ThreadQueue(const ThreadQueue&) = delete;
  37:src/../h/../h/ThreadQueue.hpp **** 
  38:src/../h/../h/ThreadQueue.hpp **** 	ThreadQueue& operator=(const ThreadQueue&) = delete;
  39:src/../h/../h/ThreadQueue.hpp **** 
  40:src/../h/../h/ThreadQueue.hpp **** 	~ThreadQueue() {
  41:src/../h/../h/ThreadQueue.hpp **** 		while (!isEmpty()) {
 142              		.loc 3 41 3 is_stmt 1
 143              		.loc 3 41 10
 144              	.LVL9:
 145              	.LBB58:
 146              	.LBB59:
  42:src/../h/../h/ThreadQueue.hpp **** 			Node* node = front;
  43:src/../h/../h/ThreadQueue.hpp **** 			front = front->next;
  44:src/../h/../h/ThreadQueue.hpp **** 			delete node;
  45:src/../h/../h/ThreadQueue.hpp **** 		}
  46:src/../h/../h/ThreadQueue.hpp **** 	}
  47:src/../h/../h/ThreadQueue.hpp **** 
  48:src/../h/../h/ThreadQueue.hpp **** 	bool isEmpty() const {
  49:src/../h/../h/ThreadQueue.hpp **** 		return front == nullptr;
 147              		.loc 3 49 3
 148              		.loc 3 49 10 is_stmt 0
 149 006c 03B50405 		ld	a0,80(s1)
GAS LISTING /tmp/ccpuD3Pj.s 			page 8


 150              	.LBE59:
 151              	.LBE58:
  41:src/../h/../h/ThreadQueue.hpp **** 			Node* node = front;
 152              		.loc 3 41 10
 153 0070 630E0500 		beqz	a0,.L13
 154              	.LBB60:
  42:src/../h/../h/ThreadQueue.hpp **** 			Node* node = front;
 155              		.loc 3 42 4 is_stmt 1
 156              	.LVL10:
  43:src/../h/../h/ThreadQueue.hpp **** 			delete node;
 157              		.loc 3 43 4
  43:src/../h/../h/ThreadQueue.hpp **** 			delete node;
 158              		.loc 3 43 19 is_stmt 0
 159 0074 83378500 		ld	a5,8(a0)
  43:src/../h/../h/ThreadQueue.hpp **** 			delete node;
 160              		.loc 3 43 10
 161 0078 23B8F404 		sd	a5,80(s1)
  44:src/../h/../h/ThreadQueue.hpp **** 		}
 162              		.loc 3 44 4 is_stmt 1
  44:src/../h/../h/ThreadQueue.hpp **** 		}
 163              		.loc 3 44 15 is_stmt 0
 164 007c E30805FE 		beqz	a0,.L14
 165              	.LVL11:
 166              	.LBB61:
 167              	.LBB62:
  26:src/../h/../h/ThreadQueue.hpp **** 		}
 168              		.loc 3 26 4 is_stmt 1
  26:src/../h/../h/ThreadQueue.hpp **** 		}
 169              		.loc 3 26 12 is_stmt 0
 170 0080 97000000 		call	_Z8mem_freePv@plt
 170      E7800000 
 171              	.LVL12:
  27:src/../h/../h/ThreadQueue.hpp **** 	};
 172              		.loc 3 27 3
 173 0088 6FF05FFE 		j	.L14
 174              	.L13:
 175              	.LBE62:
 176              	.LBE61:
 177              	.LBE60:
 178              	.LBE57:
 179              	.LBE56:
 180              	.LBE55:
  60:src/syscall_cpp.cpp **** 
 181              		.loc 2 60 9
 182 008c 13850400 		mv	a0,s1
 183 0090 97000000 		call	_ZN3TCBdlEPv@plt
 183      E7800000 
 184              	.LVL13:
 185              	.L11:
 186              	.LBE54:
  64:src/syscall_cpp.cpp **** 
 187              		.loc 2 64 1
 188 0098 83308101 		ld	ra,24(sp)
 189              		.cfi_restore 1
 190 009c 03340101 		ld	s0,16(sp)
 191              		.cfi_restore 8
 192              		.cfi_def_cfa 2, 32
GAS LISTING /tmp/ccpuD3Pj.s 			page 9


 193 00a0 83348100 		ld	s1,8(sp)
 194              		.cfi_restore 9
 195 00a4 13010102 		addi	sp,sp,32
 196              		.cfi_def_cfa_offset 0
 197 00a8 67800000 		jr	ra
 198              		.cfi_endproc
 199              	.LFE46:
 200              		.globl	__gxx_personality_v0
 201              		.section	.gcc_except_table,"a",@progbits
 202              	.LLSDA46:
 203 0000 FF       		.byte	0xff
 204 0001 FF       		.byte	0xff
 205 0002 03       		.byte	0x3
 206 0003 00       		.byte	0
 207              		.text
 209              		.globl	_ZN6ThreadD1Ev
 210              		.set	_ZN6ThreadD1Ev,_ZN6ThreadD2Ev
 211              		.section	.text._ZN14PeriodicThreadD2Ev,"axG",@progbits,_ZN14PeriodicThreadD5Ev,comdat
 212              		.align	2
 213              		.weak	_ZN14PeriodicThreadD2Ev
 215              	_ZN14PeriodicThreadD2Ev:
 216              	.LFB77:
  73:src/../h/syscall_cpp.hpp **** public:
 217              		.loc 1 73 7 is_stmt 1
 218              		.cfi_startproc
 219              	.LVL14:
 220 0000 130101FF 		addi	sp,sp,-16
 221              		.cfi_def_cfa_offset 16
 222 0004 23341100 		sd	ra,8(sp)
 223 0008 23308100 		sd	s0,0(sp)
 224              		.cfi_offset 1, -8
 225              		.cfi_offset 8, -16
 226 000c 13040101 		addi	s0,sp,16
 227              		.cfi_def_cfa 8, 0
 228              	.LBB63:
  73:src/../h/syscall_cpp.hpp **** public:
 229              		.loc 1 73 7 is_stmt 0
 230 0010 97070000 		lla	a5,_ZTV14PeriodicThread+16
 230      93870700 
 231 0018 2330F500 		sd	a5,0(a0)
 232 001c 97000000 		call	_ZN6ThreadD2Ev
 232      E7800000 
 233              	.LVL15:
 234              	.LBE63:
 235 0024 83308100 		ld	ra,8(sp)
 236              		.cfi_restore 1
 237 0028 03340100 		ld	s0,0(sp)
 238              		.cfi_restore 8
 239              		.cfi_def_cfa 2, 16
 240 002c 13010101 		addi	sp,sp,16
 241              		.cfi_def_cfa_offset 0
 242 0030 67800000 		jr	ra
 243              		.cfi_endproc
 244              	.LFE77:
 246              		.weak	_ZN14PeriodicThreadD1Ev
 247              		.set	_ZN14PeriodicThreadD1Ev,_ZN14PeriodicThreadD2Ev
 248              		.text
GAS LISTING /tmp/ccpuD3Pj.s 			page 10


 249              		.align	2
 250              		.globl	_ZN9SemaphoreD2Ev
 252              	_ZN9SemaphoreD2Ev:
 253              	.LFB64:
 119:src/syscall_cpp.cpp **** 
 120:src/syscall_cpp.cpp **** Semaphore::Semaphore(unsigned int init) {
 121:src/syscall_cpp.cpp **** 	sem_open(&myHandle, init);
 122:src/syscall_cpp.cpp **** }
 123:src/syscall_cpp.cpp **** 
 124:src/syscall_cpp.cpp **** Semaphore::~Semaphore() {
 254              		.loc 2 124 1 is_stmt 1
 255              		.cfi_startproc
 256              		.cfi_personality 0x9b,DW.ref.__gxx_personality_v0
 257              		.cfi_lsda 0x1b,.LLSDA64
 258              	.LVL16:
 259 00ac 130101FE 		addi	sp,sp,-32
 260              		.cfi_def_cfa_offset 32
 261 00b0 233C1100 		sd	ra,24(sp)
 262 00b4 23388100 		sd	s0,16(sp)
 263 00b8 23349100 		sd	s1,8(sp)
 264              		.cfi_offset 1, -8
 265              		.cfi_offset 8, -16
 266              		.cfi_offset 9, -24
 267 00bc 13040102 		addi	s0,sp,32
 268              		.cfi_def_cfa 8, 0
 269 00c0 93040500 		mv	s1,a0
 270              	.LBB64:
 271              		.loc 2 124 23 is_stmt 0
 272 00c4 97070000 		lla	a5,_ZTV9Semaphore+16
 272      93870700 
 273 00cc 2330F500 		sd	a5,0(a0)
 125:src/syscall_cpp.cpp **** 	sem_close(myHandle);
 274              		.loc 2 125 2 is_stmt 1
 275              		.loc 2 125 11 is_stmt 0
 276 00d0 03358500 		ld	a0,8(a0)
 277              	.LVL17:
 278 00d4 97000000 		call	_Z9sem_closeP4KSem@plt
 278      E7800000 
 279              	.LVL18:
 126:src/syscall_cpp.cpp **** 	delete myHandle;
 280              		.loc 2 126 2 is_stmt 1
 281              		.loc 2 126 9 is_stmt 0
 282 00dc 83B48400 		ld	s1,8(s1)
 283              	.LVL19:
 284              		.loc 2 126 17
 285 00e0 63880402 		beqz	s1,.L19
 286              	.L22:
 287              	.LBB65:
 288              	.LBB66:
 289              	.LBB67:
  41:src/../h/../h/ThreadQueue.hpp **** 			Node* node = front;
 290              		.loc 3 41 3 is_stmt 1
  41:src/../h/../h/ThreadQueue.hpp **** 			Node* node = front;
 291              		.loc 3 41 10
 292              	.LVL20:
 293              	.LBB68:
 294              	.LBB69:
GAS LISTING /tmp/ccpuD3Pj.s 			page 11


 295              		.loc 3 49 3
 296              		.loc 3 49 10 is_stmt 0
 297 00e4 03B58400 		ld	a0,8(s1)
 298              	.LBE69:
 299              	.LBE68:
  41:src/../h/../h/ThreadQueue.hpp **** 			Node* node = front;
 300              		.loc 3 41 10
 301 00e8 630E0500 		beqz	a0,.L21
 302              	.LBB70:
  42:src/../h/../h/ThreadQueue.hpp **** 			front = front->next;
 303              		.loc 3 42 4 is_stmt 1
 304              	.LVL21:
  43:src/../h/../h/ThreadQueue.hpp **** 			delete node;
 305              		.loc 3 43 4
  43:src/../h/../h/ThreadQueue.hpp **** 			delete node;
 306              		.loc 3 43 19 is_stmt 0
 307 00ec 83378500 		ld	a5,8(a0)
  43:src/../h/../h/ThreadQueue.hpp **** 			delete node;
 308              		.loc 3 43 10
 309 00f0 23B4F400 		sd	a5,8(s1)
  44:src/../h/../h/ThreadQueue.hpp **** 		}
 310              		.loc 3 44 4 is_stmt 1
  44:src/../h/../h/ThreadQueue.hpp **** 		}
 311              		.loc 3 44 15 is_stmt 0
 312 00f4 E30805FE 		beqz	a0,.L22
 313              	.LVL22:
 314              	.LBB71:
 315              	.LBB72:
  26:src/../h/../h/ThreadQueue.hpp **** 		}
 316              		.loc 3 26 4 is_stmt 1
  26:src/../h/../h/ThreadQueue.hpp **** 		}
 317              		.loc 3 26 12 is_stmt 0
 318 00f8 97000000 		call	_Z8mem_freePv@plt
 318      E7800000 
 319              	.LVL23:
  27:src/../h/../h/ThreadQueue.hpp **** 	};
 320              		.loc 3 27 3
 321 0100 6FF05FFE 		j	.L22
 322              	.L21:
 323              	.LBE72:
 324              	.LBE71:
 325              	.LBE70:
 326              	.LBE67:
 327              	.LBE66:
 328              	.LBE65:
 329              		.loc 2 126 9
 330 0104 13850400 		mv	a0,s1
 331 0108 97000000 		call	_ZN4KSemdlEPv@plt
 331      E7800000 
 332              	.LVL24:
 333              	.L19:
 334              	.LBE64:
 127:src/syscall_cpp.cpp **** }
 335              		.loc 2 127 1
 336 0110 83308101 		ld	ra,24(sp)
 337              		.cfi_restore 1
 338 0114 03340101 		ld	s0,16(sp)
GAS LISTING /tmp/ccpuD3Pj.s 			page 12


 339              		.cfi_restore 8
 340              		.cfi_def_cfa 2, 32
 341 0118 83348100 		ld	s1,8(sp)
 342              		.cfi_restore 9
 343 011c 13010102 		addi	sp,sp,32
 344              		.cfi_def_cfa_offset 0
 345 0120 67800000 		jr	ra
 346              		.cfi_endproc
 347              	.LFE64:
 348              		.section	.gcc_except_table
 349              	.LLSDA64:
 350 0004 FF       		.byte	0xff
 351 0005 FF       		.byte	0xff
 352 0006 03       		.byte	0x3
 353 0007 00       		.byte	0
 354              		.text
 356              		.globl	_ZN9SemaphoreD1Ev
 357              		.set	_ZN9SemaphoreD1Ev,_ZN9SemaphoreD2Ev
 358              		.align	2
 359              		.globl	_Znwm
 361              	_Znwm:
 362              	.LFB35:
  11:src/syscall_cpp.cpp **** 	return mem_alloc(size);
 363              		.loc 2 11 33 is_stmt 1
 364              		.cfi_startproc
 365              	.LVL25:
 366 0124 130101FF 		addi	sp,sp,-16
 367              		.cfi_def_cfa_offset 16
 368 0128 23341100 		sd	ra,8(sp)
 369 012c 23308100 		sd	s0,0(sp)
 370              		.cfi_offset 1, -8
 371              		.cfi_offset 8, -16
 372 0130 13040101 		addi	s0,sp,16
 373              		.cfi_def_cfa 8, 0
  12:src/syscall_cpp.cpp **** }
 374              		.loc 2 12 2
  12:src/syscall_cpp.cpp **** }
 375              		.loc 2 12 18 is_stmt 0
 376 0134 97000000 		call	_Z9mem_allocm@plt
 376      E7800000 
 377              	.LVL26:
  13:src/syscall_cpp.cpp **** 
 378              		.loc 2 13 1
 379 013c 83308100 		ld	ra,8(sp)
 380              		.cfi_restore 1
 381 0140 03340100 		ld	s0,0(sp)
 382              		.cfi_restore 8
 383              		.cfi_def_cfa 2, 16
 384 0144 13010101 		addi	sp,sp,16
 385              		.cfi_def_cfa_offset 0
 386 0148 67800000 		jr	ra
 387              		.cfi_endproc
 388              	.LFE35:
 390              		.align	2
 391              		.globl	_Znam
 393              	_Znam:
 394              	.LFB36:
GAS LISTING /tmp/ccpuD3Pj.s 			page 13


  15:src/syscall_cpp.cpp **** 	return mem_alloc(size);
 395              		.loc 2 15 35 is_stmt 1
 396              		.cfi_startproc
 397              	.LVL27:
 398 014c 130101FF 		addi	sp,sp,-16
 399              		.cfi_def_cfa_offset 16
 400 0150 23341100 		sd	ra,8(sp)
 401 0154 23308100 		sd	s0,0(sp)
 402              		.cfi_offset 1, -8
 403              		.cfi_offset 8, -16
 404 0158 13040101 		addi	s0,sp,16
 405              		.cfi_def_cfa 8, 0
  16:src/syscall_cpp.cpp **** }
 406              		.loc 2 16 2
  16:src/syscall_cpp.cpp **** }
 407              		.loc 2 16 18 is_stmt 0
 408 015c 97000000 		call	_Z9mem_allocm@plt
 408      E7800000 
 409              	.LVL28:
  17:src/syscall_cpp.cpp **** 
 410              		.loc 2 17 1
 411 0164 83308100 		ld	ra,8(sp)
 412              		.cfi_restore 1
 413 0168 03340100 		ld	s0,0(sp)
 414              		.cfi_restore 8
 415              		.cfi_def_cfa 2, 16
 416 016c 13010101 		addi	sp,sp,16
 417              		.cfi_def_cfa_offset 0
 418 0170 67800000 		jr	ra
 419              		.cfi_endproc
 420              	.LFE36:
 422              		.align	2
 423              		.globl	_ZdlPv
 425              	_ZdlPv:
 426              	.LFB37:
  21:src/syscall_cpp.cpp **** mem_free(ptr);
 427              		.loc 2 21 10 is_stmt 1
 428              		.cfi_startproc
 429              		.cfi_personality 0x9b,DW.ref.__gxx_personality_v0
 430              		.cfi_lsda 0x1b,.LLSDA37
 431              	.LVL29:
 432 0174 130101FF 		addi	sp,sp,-16
 433              		.cfi_def_cfa_offset 16
 434 0178 23341100 		sd	ra,8(sp)
 435 017c 23308100 		sd	s0,0(sp)
 436              		.cfi_offset 1, -8
 437              		.cfi_offset 8, -16
 438 0180 13040101 		addi	s0,sp,16
 439              		.cfi_def_cfa 8, 0
  22:src/syscall_cpp.cpp **** }
 440              		.loc 2 22 1
  22:src/syscall_cpp.cpp **** }
 441              		.loc 2 22 9 is_stmt 0
 442 0184 97000000 		call	_Z8mem_freePv@plt
 442      E7800000 
 443              	.LVL30:
  23:src/syscall_cpp.cpp **** 
GAS LISTING /tmp/ccpuD3Pj.s 			page 14


 444              		.loc 2 23 1
 445 018c 83308100 		ld	ra,8(sp)
 446              		.cfi_restore 1
 447 0190 03340100 		ld	s0,0(sp)
 448              		.cfi_restore 8
 449              		.cfi_def_cfa 2, 16
 450 0194 13010101 		addi	sp,sp,16
 451              		.cfi_def_cfa_offset 0
 452 0198 67800000 		jr	ra
 453              		.cfi_endproc
 454              	.LFE37:
 455              		.section	.gcc_except_table
 456              	.LLSDA37:
 457 0008 FF       		.byte	0xff
 458 0009 FF       		.byte	0xff
 459 000a 03       		.byte	0x3
 460 000b 00       		.byte	0
 461              		.text
 463              		.align	2
 464              		.globl	_ZN6ThreadD0Ev
 466              	_ZN6ThreadD0Ev:
 467              	.LFB48:
  57:src/syscall_cpp.cpp **** 	//ne treba da se gasi running nit, vec nit na koju pokazuje rucka od this
 468              		.loc 2 57 1 is_stmt 1
 469              		.cfi_startproc
 470              	.LVL31:
 471 019c 130101FE 		addi	sp,sp,-32
 472              		.cfi_def_cfa_offset 32
 473 01a0 233C1100 		sd	ra,24(sp)
 474 01a4 23388100 		sd	s0,16(sp)
 475 01a8 23349100 		sd	s1,8(sp)
 476              		.cfi_offset 1, -8
 477              		.cfi_offset 8, -16
 478              		.cfi_offset 9, -24
 479 01ac 13040102 		addi	s0,sp,32
 480              		.cfi_def_cfa 8, 0
 481 01b0 93040500 		mv	s1,a0
  64:src/syscall_cpp.cpp **** 
 482              		.loc 2 64 1 is_stmt 0
 483 01b4 97000000 		call	_ZN6ThreadD1Ev
 483      E7800000 
 484              	.LVL32:
 485 01bc 13850400 		mv	a0,s1
 486 01c0 97000000 		call	_ZdlPv
 486      E7800000 
 487              	.LVL33:
 488 01c8 83308101 		ld	ra,24(sp)
 489              		.cfi_restore 1
 490 01cc 03340101 		ld	s0,16(sp)
 491              		.cfi_restore 8
 492              		.cfi_def_cfa 2, 32
 493 01d0 83348100 		ld	s1,8(sp)
 494              		.cfi_restore 9
 495              	.LVL34:
 496 01d4 13010102 		addi	sp,sp,32
 497              		.cfi_def_cfa_offset 0
 498 01d8 67800000 		jr	ra
GAS LISTING /tmp/ccpuD3Pj.s 			page 15


 499              		.cfi_endproc
 500              	.LFE48:
 502              		.section	.text._ZN14PeriodicThreadD0Ev,"axG",@progbits,_ZN14PeriodicThreadD5Ev,comdat
 503              		.align	2
 504              		.weak	_ZN14PeriodicThreadD0Ev
 506              	_ZN14PeriodicThreadD0Ev:
 507              	.LFB79:
  73:src/../h/syscall_cpp.hpp **** public:
 508              		.loc 1 73 7 is_stmt 1
 509              		.cfi_startproc
 510              	.LVL35:
 511 0000 130101FE 		addi	sp,sp,-32
 512              		.cfi_def_cfa_offset 32
 513 0004 233C1100 		sd	ra,24(sp)
 514 0008 23388100 		sd	s0,16(sp)
 515 000c 23349100 		sd	s1,8(sp)
 516              		.cfi_offset 1, -8
 517              		.cfi_offset 8, -16
 518              		.cfi_offset 9, -24
 519 0010 13040102 		addi	s0,sp,32
 520              		.cfi_def_cfa 8, 0
 521 0014 93040500 		mv	s1,a0
 522              	.LVL36:
 523              	.LBB73:
 524              	.LBB74:
  73:src/../h/syscall_cpp.hpp **** public:
 525              		.loc 1 73 7 is_stmt 0
 526 0018 97070000 		lla	a5,_ZTV14PeriodicThread+16
 526      93870700 
 527 0020 2330F500 		sd	a5,0(a0)
 528 0024 97000000 		call	_ZN6ThreadD2Ev
 528      E7800000 
 529              	.LVL37:
 530              	.LBE74:
 531              	.LBE73:
 532 002c 13850400 		mv	a0,s1
 533 0030 97000000 		call	_ZdlPv
 533      E7800000 
 534              	.LVL38:
 535 0038 83308101 		ld	ra,24(sp)
 536              		.cfi_restore 1
 537 003c 03340101 		ld	s0,16(sp)
 538              		.cfi_restore 8
 539              		.cfi_def_cfa 2, 32
 540 0040 83348100 		ld	s1,8(sp)
 541              		.cfi_restore 9
 542              	.LVL39:
 543 0044 13010102 		addi	sp,sp,32
 544              		.cfi_def_cfa_offset 0
 545 0048 67800000 		jr	ra
 546              		.cfi_endproc
 547              	.LFE79:
 549              		.text
 550              		.align	2
 551              		.globl	_ZN9SemaphoreD0Ev
 553              	_ZN9SemaphoreD0Ev:
 554              	.LFB66:
GAS LISTING /tmp/ccpuD3Pj.s 			page 16


 124:src/syscall_cpp.cpp **** 	sem_close(myHandle);
 555              		.loc 2 124 1 is_stmt 1
 556              		.cfi_startproc
 557              	.LVL40:
 558 01dc 130101FE 		addi	sp,sp,-32
 559              		.cfi_def_cfa_offset 32
 560 01e0 233C1100 		sd	ra,24(sp)
 561 01e4 23388100 		sd	s0,16(sp)
 562 01e8 23349100 		sd	s1,8(sp)
 563              		.cfi_offset 1, -8
 564              		.cfi_offset 8, -16
 565              		.cfi_offset 9, -24
 566 01ec 13040102 		addi	s0,sp,32
 567              		.cfi_def_cfa 8, 0
 568 01f0 93040500 		mv	s1,a0
 569              		.loc 2 127 1 is_stmt 0
 570 01f4 97000000 		call	_ZN9SemaphoreD1Ev
 570      E7800000 
 571              	.LVL41:
 572 01fc 13850400 		mv	a0,s1
 573 0200 97000000 		call	_ZdlPv
 573      E7800000 
 574              	.LVL42:
 575 0208 83308101 		ld	ra,24(sp)
 576              		.cfi_restore 1
 577 020c 03340101 		ld	s0,16(sp)
 578              		.cfi_restore 8
 579              		.cfi_def_cfa 2, 32
 580 0210 83348100 		ld	s1,8(sp)
 581              		.cfi_restore 9
 582              	.LVL43:
 583 0214 13010102 		addi	sp,sp,32
 584              		.cfi_def_cfa_offset 0
 585 0218 67800000 		jr	ra
 586              		.cfi_endproc
 587              	.LFE66:
 589              		.align	2
 590              		.globl	_ZdaPv
 592              	_ZdaPv:
 593              	.LFB38:
  27:src/syscall_cpp.cpp **** mem_free(ptr);
 594              		.loc 2 27 10 is_stmt 1
 595              		.cfi_startproc
 596              		.cfi_personality 0x9b,DW.ref.__gxx_personality_v0
 597              		.cfi_lsda 0x1b,.LLSDA38
 598              	.LVL44:
 599 021c 130101FF 		addi	sp,sp,-16
 600              		.cfi_def_cfa_offset 16
 601 0220 23341100 		sd	ra,8(sp)
 602 0224 23308100 		sd	s0,0(sp)
 603              		.cfi_offset 1, -8
 604              		.cfi_offset 8, -16
 605 0228 13040101 		addi	s0,sp,16
 606              		.cfi_def_cfa 8, 0
  28:src/syscall_cpp.cpp **** }
 607              		.loc 2 28 1
  28:src/syscall_cpp.cpp **** }
GAS LISTING /tmp/ccpuD3Pj.s 			page 17


 608              		.loc 2 28 9 is_stmt 0
 609 022c 97000000 		call	_Z8mem_freePv@plt
 609      E7800000 
 610              	.LVL45:
  29:src/syscall_cpp.cpp **** 
 611              		.loc 2 29 1
 612 0234 83308100 		ld	ra,8(sp)
 613              		.cfi_restore 1
 614 0238 03340100 		ld	s0,0(sp)
 615              		.cfi_restore 8
 616              		.cfi_def_cfa 2, 16
 617 023c 13010101 		addi	sp,sp,16
 618              		.cfi_def_cfa_offset 0
 619 0240 67800000 		jr	ra
 620              		.cfi_endproc
 621              	.LFE38:
 622              		.section	.gcc_except_table
 623              	.LLSDA38:
 624 000c FF       		.byte	0xff
 625 000d FF       		.byte	0xff
 626 000e 03       		.byte	0x3
 627 000f 00       		.byte	0
 628              		.text
 630              		.align	2
 631              		.globl	_ZN6ThreadC2EPFvPvES0_
 633              	_ZN6ThreadC2EPFvPvES0_:
 634              	.LFB40:
  32:src/syscall_cpp.cpp **** 	this->body = body;
 635              		.loc 2 32 1 is_stmt 1
 636              		.cfi_startproc
 637              	.LVL46:
 638 0244 130101FD 		addi	sp,sp,-48
 639              		.cfi_def_cfa_offset 48
 640 0248 23341102 		sd	ra,40(sp)
 641 024c 23308102 		sd	s0,32(sp)
 642 0250 233C9100 		sd	s1,24(sp)
 643 0254 23382101 		sd	s2,16(sp)
 644 0258 23343101 		sd	s3,8(sp)
 645              		.cfi_offset 1, -8
 646              		.cfi_offset 8, -16
 647              		.cfi_offset 9, -24
 648              		.cfi_offset 18, -32
 649              		.cfi_offset 19, -40
 650 025c 13040103 		addi	s0,sp,48
 651              		.cfi_def_cfa 8, 0
 652 0260 93040500 		mv	s1,a0
 653 0264 13890500 		mv	s2,a1
 654 0268 93090600 		mv	s3,a2
 655              	.LBB75:
  32:src/syscall_cpp.cpp **** 	this->body = body;
 656              		.loc 2 32 47 is_stmt 0
 657 026c 97070000 		lla	a5,_ZTV6Thread+16
 657      93870700 
 658 0274 2330F500 		sd	a5,0(a0)
 659              	.LBB76:
  33:src/syscall_cpp.cpp **** 	this->arg = arg;
 660              		.loc 2 33 2 is_stmt 1
GAS LISTING /tmp/ccpuD3Pj.s 			page 18


  33:src/syscall_cpp.cpp **** 	this->arg = arg;
 661              		.loc 2 33 13 is_stmt 0
 662 0278 2338B500 		sd	a1,16(a0)
  34:src/syscall_cpp.cpp **** 	//stvaranje steka ako se ne radi o main kernel niti, posto ona automatski ima stek
 663              		.loc 2 34 2 is_stmt 1
  34:src/syscall_cpp.cpp **** 	//stvaranje steka ako se ne radi o main kernel niti, posto ona automatski ima stek
 664              		.loc 2 34 12 is_stmt 0
 665 027c 233CC500 		sd	a2,24(a0)
  36:src/syscall_cpp.cpp **** 	if (body != nullptr) {
 666              		.loc 2 36 2 is_stmt 1
 667              	.LVL47:
  37:src/syscall_cpp.cpp **** 		stack = (uint64*)mem_alloc(DEFAULT_STACK_SIZE);
 668              		.loc 2 37 2
 669 0280 63860504 		beqz	a1,.L41
  38:src/syscall_cpp.cpp **** 	}
 670              		.loc 2 38 3
  38:src/syscall_cpp.cpp **** 	}
 671              		.loc 2 38 29 is_stmt 0
 672 0284 37150000 		li	a0,4096
 673              	.LVL48:
 674 0288 97000000 		call	_Z9mem_allocm@plt
 674      E7800000 
 675              	.LVL49:
 676 0290 13030500 		mv	t1,a0
 677              	.LVL50:
 678              	.L40:
  42:src/syscall_cpp.cpp **** 	__asm__ volatile("mv a3, %[arg]": :[arg] "r"(arg):"a5", "a0", "a1", "a2", "a3", "a4", "a6", "a7");
 679              		.loc 2 42 2 is_stmt 1
  42:src/syscall_cpp.cpp **** 	__asm__ volatile("mv a3, %[arg]": :[arg] "r"(arg):"a5", "a0", "a1", "a2", "a3", "a4", "a6", "a7");
 680              		.loc 2 42 99 is_stmt 0
 681              	#APP
 682              	# 42 "src/syscall_cpp.cpp" 1
  43:src/syscall_cpp.cpp **** 	__asm__ volatile("mv a2, %[function]": :[function] "r"(
 683              		mv a4, t1
 684              	# 0 "" 2
 685              		.loc 2 43 2 is_stmt 1
  43:src/syscall_cpp.cpp **** 	__asm__ volatile("mv a2, %[function]": :[function] "r"(
 686              		.loc 2 43 99 is_stmt 0
 687              	# 43 "src/syscall_cpp.cpp" 1
  44:src/syscall_cpp.cpp **** 			body):"a5", "a0", "a1", "a2", "a3", "a4", "a6", "a7");
 688              		mv a3, s3
 689              	# 0 "" 2
 690              		.loc 2 44 2 is_stmt 1
  45:src/syscall_cpp.cpp **** 	__asm__ volatile("mv a1, %[handle]": :[handle] "r"(&myHandle):"a5", "a0", "a1", "a2", "a3", "a4", 
 691              		.loc 2 45 57 is_stmt 0
 692              	# 45 "src/syscall_cpp.cpp" 1
  46:src/syscall_cpp.cpp **** 	__asm__ volatile("li a0, 0x80");
 693              		mv a2, s2
 694              	# 0 "" 2
 695              		.loc 2 46 2 is_stmt 1
  46:src/syscall_cpp.cpp **** 	__asm__ volatile("li a0, 0x80");
 696              		.loc 2 46 53 is_stmt 0
 697              	#NO_APP
 698 02a0 93848400 		addi	s1,s1,8
 699              	.LVL51:
  46:src/syscall_cpp.cpp **** 	__asm__ volatile("li a0, 0x80");
 700              		.loc 2 46 111
GAS LISTING /tmp/ccpuD3Pj.s 			page 19


 701              	#APP
 702              	# 46 "src/syscall_cpp.cpp" 1
  47:src/syscall_cpp.cpp **** 	//a0 = 0x80
 703              		mv a1, s1
 704              	# 0 "" 2
 705              		.loc 2 47 2 is_stmt 1
  47:src/syscall_cpp.cpp **** 	//a0 = 0x80
 706              		.loc 2 47 33 is_stmt 0
 707              	# 47 "src/syscall_cpp.cpp" 1
  54:src/syscall_cpp.cpp **** }
 708              		li a0, 0x80
 709              	# 0 "" 2
 710              		.loc 2 54 2 is_stmt 1
  54:src/syscall_cpp.cpp **** }
 711              		.loc 2 54 27 is_stmt 0
 712              	# 54 "src/syscall_cpp.cpp" 1
 713              		ecall
 714              	# 0 "" 2
 715              	#NO_APP
 716              	.LBE76:
 717              	.LBE75:
  55:src/syscall_cpp.cpp **** 
 718              		.loc 2 55 1
 719 02b0 83308102 		ld	ra,40(sp)
 720              		.cfi_remember_state
 721              		.cfi_restore 1
 722 02b4 03340102 		ld	s0,32(sp)
 723              		.cfi_restore 8
 724              		.cfi_def_cfa 2, 48
 725 02b8 83348101 		ld	s1,24(sp)
 726              		.cfi_restore 9
 727              	.LVL52:
 728 02bc 03390101 		ld	s2,16(sp)
 729              		.cfi_restore 18
 730              	.LVL53:
 731 02c0 83398100 		ld	s3,8(sp)
 732              		.cfi_restore 19
 733              	.LVL54:
 734 02c4 13010103 		addi	sp,sp,48
 735              		.cfi_def_cfa_offset 0
 736 02c8 67800000 		jr	ra
 737              	.LVL55:
 738              	.L41:
 739              		.cfi_restore_state
 740              	.LBB78:
 741              	.LBB77:
  36:src/syscall_cpp.cpp **** 	if (body != nullptr) {
 742              		.loc 2 36 10
 743 02cc 13030000 		li	t1,0
 744 02d0 6FF05FFC 		j	.L40
 745              	.LBE77:
 746              	.LBE78:
 747              		.cfi_endproc
 748              	.LFE40:
 750              		.globl	_ZN6ThreadC1EPFvPvES0_
 751              		.set	_ZN6ThreadC1EPFvPvES0_,_ZN6ThreadC2EPFvPvES0_
 752              		.align	2
GAS LISTING /tmp/ccpuD3Pj.s 			page 20


 753              		.globl	_ZN6Thread5startEv
 755              	_ZN6Thread5startEv:
 756              	.LFB49:
  66:src/syscall_cpp.cpp **** 	if (myHandle == nullptr) return -1;
 757              		.loc 2 66 21 is_stmt 1
 758              		.cfi_startproc
 759              	.LVL56:
 760 02d4 130101FF 		addi	sp,sp,-16
 761              		.cfi_def_cfa_offset 16
 762 02d8 23348100 		sd	s0,8(sp)
 763              		.cfi_offset 8, -8
 764 02dc 13040101 		addi	s0,sp,16
 765              		.cfi_def_cfa 8, 0
  67:src/syscall_cpp.cpp **** 	__asm__ volatile("mv a1, %[handle]": :[handle] "r"(myHandle):"a5", "a0", "a1", "a2", "a3", "a4", "
 766              		.loc 2 67 2
  67:src/syscall_cpp.cpp **** 	__asm__ volatile("mv a1, %[handle]": :[handle] "r"(myHandle):"a5", "a0", "a1", "a2", "a3", "a4", "
 767              		.loc 2 67 6 is_stmt 0
 768 02e0 03338500 		ld	t1,8(a0)
  67:src/syscall_cpp.cpp **** 	__asm__ volatile("mv a1, %[handle]": :[handle] "r"(myHandle):"a5", "a0", "a1", "a2", "a3", "a4", "
 769              		.loc 2 67 2
 770 02e4 63000302 		beqz	t1,.L45
  68:src/syscall_cpp.cpp **** 	__asm__ volatile("li a0, 0x81");
 771              		.loc 2 68 2 is_stmt 1
  68:src/syscall_cpp.cpp **** 	__asm__ volatile("li a0, 0x81");
 772              		.loc 2 68 110 is_stmt 0
 773              	#APP
 774              	# 68 "src/syscall_cpp.cpp" 1
 775              		mv a1, t1
 776              	# 0 "" 2
 777              	.LVL57:
  69:src/syscall_cpp.cpp **** 
 778              		.loc 2 69 2 is_stmt 1
  69:src/syscall_cpp.cpp **** 
 779              		.loc 2 69 33 is_stmt 0
 780              	# 69 "src/syscall_cpp.cpp" 1
  71:src/syscall_cpp.cpp **** 
 781              		li a0, 0x81
 782              	# 0 "" 2
 783              		.loc 2 71 2 is_stmt 1
  71:src/syscall_cpp.cpp **** 
 784              		.loc 2 71 27 is_stmt 0
 785              	# 71 "src/syscall_cpp.cpp" 1
  73:src/syscall_cpp.cpp **** }
 786              		ecall
 787              	# 0 "" 2
 788              		.loc 2 73 2 is_stmt 1
  73:src/syscall_cpp.cpp **** }
 789              		.loc 2 73 9 is_stmt 0
 790              	#NO_APP
 791 02f4 13050000 		li	a0,0
 792              	.L44:
  74:src/syscall_cpp.cpp **** 
 793              		.loc 2 74 1
 794 02f8 03348100 		ld	s0,8(sp)
 795              		.cfi_remember_state
 796              		.cfi_restore 8
 797              		.cfi_def_cfa 2, 16
GAS LISTING /tmp/ccpuD3Pj.s 			page 21


 798 02fc 13010101 		addi	sp,sp,16
 799              		.cfi_def_cfa_offset 0
 800 0300 67800000 		jr	ra
 801              	.LVL58:
 802              	.L45:
 803              		.cfi_restore_state
  67:src/syscall_cpp.cpp **** 	__asm__ volatile("mv a1, %[handle]": :[handle] "r"(myHandle):"a5", "a0", "a1", "a2", "a3", "a4", "
 804              		.loc 2 67 35
 805 0304 1305F0FF 		li	a0,-1
 806              	.LVL59:
 807 0308 6FF01FFF 		j	.L44
 808              		.cfi_endproc
 809              	.LFE49:
 811              		.align	2
 812              		.globl	_ZN6Thread4joinEv
 814              	_ZN6Thread4joinEv:
 815              	.LFB50:
  76:src/syscall_cpp.cpp **** 	thread_join(myHandle);
 816              		.loc 2 76 21 is_stmt 1
 817              		.cfi_startproc
 818              	.LVL60:
 819 030c 130101FF 		addi	sp,sp,-16
 820              		.cfi_def_cfa_offset 16
 821 0310 23341100 		sd	ra,8(sp)
 822 0314 23308100 		sd	s0,0(sp)
 823              		.cfi_offset 1, -8
 824              		.cfi_offset 8, -16
 825 0318 13040101 		addi	s0,sp,16
 826              		.cfi_def_cfa 8, 0
  77:src/syscall_cpp.cpp **** }
 827              		.loc 2 77 2
  77:src/syscall_cpp.cpp **** }
 828              		.loc 2 77 13 is_stmt 0
 829 031c 03358500 		ld	a0,8(a0)
 830              	.LVL61:
 831 0320 97000000 		call	_Z11thread_joinP3TCB@plt
 831      E7800000 
 832              	.LVL62:
  78:src/syscall_cpp.cpp **** 
 833              		.loc 2 78 1
 834 0328 83308100 		ld	ra,8(sp)
 835              		.cfi_restore 1
 836 032c 03340100 		ld	s0,0(sp)
 837              		.cfi_restore 8
 838              		.cfi_def_cfa 2, 16
 839 0330 13010101 		addi	sp,sp,16
 840              		.cfi_def_cfa_offset 0
 841 0334 67800000 		jr	ra
 842              		.cfi_endproc
 843              	.LFE50:
 845              		.align	2
 846              		.globl	_ZN6Thread8dispatchEv
 848              	_ZN6Thread8dispatchEv:
 849              	.LFB51:
  80:src/syscall_cpp.cpp **** 	thread_dispatch();
 850              		.loc 2 80 25 is_stmt 1
 851              		.cfi_startproc
GAS LISTING /tmp/ccpuD3Pj.s 			page 22


 852 0338 130101FF 		addi	sp,sp,-16
 853              		.cfi_def_cfa_offset 16
 854 033c 23341100 		sd	ra,8(sp)
 855 0340 23308100 		sd	s0,0(sp)
 856              		.cfi_offset 1, -8
 857              		.cfi_offset 8, -16
 858 0344 13040101 		addi	s0,sp,16
 859              		.cfi_def_cfa 8, 0
  81:src/syscall_cpp.cpp **** }
 860              		.loc 2 81 2
  81:src/syscall_cpp.cpp **** }
 861              		.loc 2 81 17 is_stmt 0
 862 0348 97000000 		call	_Z15thread_dispatchv@plt
 862      E7800000 
 863              	.LVL63:
  82:src/syscall_cpp.cpp **** 
 864              		.loc 2 82 1
 865 0350 83308100 		ld	ra,8(sp)
 866              		.cfi_restore 1
 867 0354 03340100 		ld	s0,0(sp)
 868              		.cfi_restore 8
 869              		.cfi_def_cfa 2, 16
 870 0358 13010101 		addi	sp,sp,16
 871              		.cfi_def_cfa_offset 0
 872 035c 67800000 		jr	ra
 873              		.cfi_endproc
 874              	.LFE51:
 876              		.align	2
 877              		.globl	_ZN6Thread5sleepEm
 879              	_ZN6Thread5sleepEm:
 880              	.LFB52:
  84:src/syscall_cpp.cpp **** 	Scheduler::putToSleep(TCB::running, t);
 881              		.loc 2 84 29 is_stmt 1
 882              		.cfi_startproc
 883              	.LVL64:
 884 0360 130101FF 		addi	sp,sp,-16
 885              		.cfi_def_cfa_offset 16
 886 0364 23341100 		sd	ra,8(sp)
 887 0368 23308100 		sd	s0,0(sp)
 888              		.cfi_offset 1, -8
 889              		.cfi_offset 8, -16
 890 036c 13040101 		addi	s0,sp,16
 891              		.cfi_def_cfa 8, 0
 892 0370 93050500 		mv	a1,a0
  85:src/syscall_cpp.cpp **** 	return 0;
 893              		.loc 2 85 2
  85:src/syscall_cpp.cpp **** 	return 0;
 894              		.loc 2 85 23 is_stmt 0
 895 0374 97070000 		la	a5,_ZN3TCB7runningE
 895      83B70700 
 896 037c 03B50700 		ld	a0,0(a5)
 897              	.LVL65:
 898 0380 97000000 		call	_ZN9Scheduler10putToSleepEP3TCBm@plt
 898      E7800000 
 899              	.LVL66:
  86:src/syscall_cpp.cpp **** }
 900              		.loc 2 86 2 is_stmt 1
GAS LISTING /tmp/ccpuD3Pj.s 			page 23


  87:src/syscall_cpp.cpp **** 
 901              		.loc 2 87 1 is_stmt 0
 902 0388 13050000 		li	a0,0
 903 038c 83308100 		ld	ra,8(sp)
 904              		.cfi_restore 1
 905 0390 03340100 		ld	s0,0(sp)
 906              		.cfi_restore 8
 907              		.cfi_def_cfa 2, 16
 908 0394 13010101 		addi	sp,sp,16
 909              		.cfi_def_cfa_offset 0
 910 0398 67800000 		jr	ra
 911              		.cfi_endproc
 912              	.LFE52:
 914              		.align	2
 915              		.globl	_ZN14PeriodicThread15periodicWrapperEPv
 917              	_ZN14PeriodicThread15periodicWrapperEPv:
 918              	.LFB73:
 128:src/syscall_cpp.cpp **** 
 129:src/syscall_cpp.cpp **** int Semaphore::wait() {
 130:src/syscall_cpp.cpp **** 	return sem_wait(myHandle);
 131:src/syscall_cpp.cpp **** }
 132:src/syscall_cpp.cpp **** 
 133:src/syscall_cpp.cpp **** int Semaphore::signal() {
 134:src/syscall_cpp.cpp **** 	return sem_signal(myHandle);
 135:src/syscall_cpp.cpp **** }
 136:src/syscall_cpp.cpp **** 
 137:src/syscall_cpp.cpp **** void PeriodicThread::terminate() {
 138:src/syscall_cpp.cpp **** }
 139:src/syscall_cpp.cpp **** 
 140:src/syscall_cpp.cpp **** PeriodicThread::PeriodicThread(time_t period) : Thread(periodicWrapper, this), period(period) {
 141:src/syscall_cpp.cpp **** }
 142:src/syscall_cpp.cpp **** 
 143:src/syscall_cpp.cpp **** void PeriodicThread::periodicWrapper(void* pThread) {
 919              		.loc 2 143 53 is_stmt 1
 920              		.cfi_startproc
 921              	.LVL67:
 922 039c 130101FE 		addi	sp,sp,-32
 923              		.cfi_def_cfa_offset 32
 924 03a0 233C1100 		sd	ra,24(sp)
 925 03a4 23388100 		sd	s0,16(sp)
 926 03a8 23349100 		sd	s1,8(sp)
 927              		.cfi_offset 1, -8
 928              		.cfi_offset 8, -16
 929              		.cfi_offset 9, -24
 930 03ac 13040102 		addi	s0,sp,32
 931              		.cfi_def_cfa 8, 0
 932 03b0 93040500 		mv	s1,a0
 144:src/syscall_cpp.cpp **** 	if (pThread != nullptr) {
 933              		.loc 2 144 2
 934              	.LBB79:
 935 03b4 63020502 		beqz	a0,.L53
 936              	.LVL68:
 937              	.L55:
 938              	.LBB80:
 145:src/syscall_cpp.cpp **** 		PeriodicThread* ptr = (PeriodicThread*)pThread;
 146:src/syscall_cpp.cpp **** 		while (1) {
 939              		.loc 2 146 3 discriminator 1
GAS LISTING /tmp/ccpuD3Pj.s 			page 24


 147:src/syscall_cpp.cpp **** 			ptr->periodicActivation();
 940              		.loc 2 147 4 discriminator 1
 941              		.loc 2 147 28 is_stmt 0 discriminator 1
 942 03b8 83B70400 		ld	a5,0(s1)
 943 03bc 83B78701 		ld	a5,24(a5)
 944              		.loc 2 147 27 discriminator 1
 945 03c0 13850400 		mv	a0,s1
 946 03c4 E7800700 		jalr	a5
 947              	.LVL69:
 148:src/syscall_cpp.cpp **** 			Thread::sleep(ptr->period);
 948              		.loc 2 148 4 is_stmt 1 discriminator 1
 949              		.loc 2 148 17 is_stmt 0 discriminator 1
 950 03c8 03B50402 		ld	a0,32(s1)
 951 03cc 97000000 		call	_ZN6Thread5sleepEm
 951      E7800000 
 952              	.LVL70:
 146:src/syscall_cpp.cpp **** 			ptr->periodicActivation();
 953              		.loc 2 146 3 is_stmt 1 discriminator 1
 954 03d4 6FF05FFE 		j	.L55
 955              	.L53:
 956              	.LBE80:
 957              	.LBE79:
 149:src/syscall_cpp.cpp **** 		}
 150:src/syscall_cpp.cpp **** 	}
 151:src/syscall_cpp.cpp **** }
 958              		.loc 2 151 1 is_stmt 0
 959 03d8 83308101 		ld	ra,24(sp)
 960              		.cfi_restore 1
 961 03dc 03340101 		ld	s0,16(sp)
 962              		.cfi_restore 8
 963              		.cfi_def_cfa 2, 32
 964 03e0 83348100 		ld	s1,8(sp)
 965              		.cfi_restore 9
 966              	.LVL71:
 967 03e4 13010102 		addi	sp,sp,32
 968              		.cfi_def_cfa_offset 0
 969 03e8 67800000 		jr	ra
 970              		.cfi_endproc
 971              	.LFE73:
 973              		.align	2
 974              		.globl	_ZN6ThreadC2Ev
 976              	_ZN6ThreadC2Ev:
 977              	.LFB54:
  89:src/syscall_cpp.cpp **** 	this->body = wrapper;
 978              		.loc 2 89 1 is_stmt 1
 979              		.cfi_startproc
 980              	.LVL72:
 981 03ec 130101FE 		addi	sp,sp,-32
 982              		.cfi_def_cfa_offset 32
 983 03f0 233C1100 		sd	ra,24(sp)
 984 03f4 23388100 		sd	s0,16(sp)
 985 03f8 23349100 		sd	s1,8(sp)
 986              		.cfi_offset 1, -8
 987              		.cfi_offset 8, -16
 988              		.cfi_offset 9, -24
 989 03fc 13040102 		addi	s0,sp,32
 990              		.cfi_def_cfa 8, 0
GAS LISTING /tmp/ccpuD3Pj.s 			page 25


 991 0400 93040500 		mv	s1,a0
 992              	.LBB81:
  89:src/syscall_cpp.cpp **** 	this->body = wrapper;
 993              		.loc 2 89 16 is_stmt 0
 994 0404 97070000 		lla	a5,_ZTV6Thread+16
 994      93870700 
 995 040c 2330F500 		sd	a5,0(a0)
 996              	.LBB82:
  90:src/syscall_cpp.cpp **** 	this->arg = this;
 997              		.loc 2 90 2 is_stmt 1
  90:src/syscall_cpp.cpp **** 	this->arg = this;
 998              		.loc 2 90 13 is_stmt 0
 999 0410 97070000 		lla	a5,_ZN6Thread7wrapperEPv
 999      93870700 
 1000 0418 2338F500 		sd	a5,16(a0)
  91:src/syscall_cpp.cpp **** 	//stvaranje steka ako se ne radi o main kernel niti, posto ona automatski ima stek
 1001              		.loc 2 91 2 is_stmt 1
  91:src/syscall_cpp.cpp **** 	//stvaranje steka ako se ne radi o main kernel niti, posto ona automatski ima stek
 1002              		.loc 2 91 12 is_stmt 0
 1003 041c 233CA500 		sd	a0,24(a0)
  93:src/syscall_cpp.cpp **** 	if (body != nullptr) {
 1004              		.loc 2 93 2 is_stmt 1
 1005              	.LVL73:
  94:src/syscall_cpp.cpp **** 		stack = (uint64*)mem_alloc(DEFAULT_STACK_SIZE);
 1006              		.loc 2 94 2
  95:src/syscall_cpp.cpp **** 	}
 1007              		.loc 2 95 3
  95:src/syscall_cpp.cpp **** 	}
 1008              		.loc 2 95 29 is_stmt 0
 1009 0420 37150000 		li	a0,4096
 1010              	.LVL74:
 1011 0424 97000000 		call	_Z9mem_allocm@plt
 1011      E7800000 
 1012              	.LVL75:
 1013 042c 13030500 		mv	t1,a0
 1014              	.LVL76:
  99:src/syscall_cpp.cpp **** 	__asm__ volatile("mv a3, %[arg]": :[arg] "r"(arg):"a5", "a0", "a1", "a2", "a3", "a4", "a6", "a7");
 1015              		.loc 2 99 2 is_stmt 1
  99:src/syscall_cpp.cpp **** 	__asm__ volatile("mv a3, %[arg]": :[arg] "r"(arg):"a5", "a0", "a1", "a2", "a3", "a4", "a6", "a7");
 1016              		.loc 2 99 99 is_stmt 0
 1017              	#APP
 1018              	# 99 "src/syscall_cpp.cpp" 1
 100:src/syscall_cpp.cpp **** 	__asm__ volatile("mv a2, %[function]": :[function] "r"(
 1019              		mv a4, t1
 1020              	# 0 "" 2
 1021              		.loc 2 100 2 is_stmt 1
 100:src/syscall_cpp.cpp **** 	__asm__ volatile("mv a2, %[function]": :[function] "r"(
 1022              		.loc 2 100 47 is_stmt 0
 1023              	#NO_APP
 1024 0434 03B38401 		ld	t1,24(s1)
 1025              	.LVL77:
 100:src/syscall_cpp.cpp **** 	__asm__ volatile("mv a2, %[function]": :[function] "r"(
 1026              		.loc 2 100 99
 1027              	#APP
 1028              	# 100 "src/syscall_cpp.cpp" 1
 101:src/syscall_cpp.cpp **** 			body):"a5", "a0", "a1", "a2", "a3", "a4", "a6", "a7");
 1029              		mv a3, t1
GAS LISTING /tmp/ccpuD3Pj.s 			page 26


 1030              	# 0 "" 2
 1031              		.loc 2 101 2 is_stmt 1
 102:src/syscall_cpp.cpp **** 	__asm__ volatile("mv a1, %[handle]": :[handle] "r"(&myHandle):"a5", "a0", "a1", "a2", "a3", "a4", 
 1032              		.loc 2 102 4 is_stmt 0
 1033              	#NO_APP
 1034 043c 03B30401 		ld	t1,16(s1)
 102:src/syscall_cpp.cpp **** 	__asm__ volatile("mv a1, %[handle]": :[handle] "r"(&myHandle):"a5", "a0", "a1", "a2", "a3", "a4", 
 1035              		.loc 2 102 57
 1036              	#APP
 1037              	# 102 "src/syscall_cpp.cpp" 1
 103:src/syscall_cpp.cpp **** 	__asm__ volatile("li a0, 0x80");
 1038              		mv a2, t1
 1039              	# 0 "" 2
 1040              		.loc 2 103 2 is_stmt 1
 103:src/syscall_cpp.cpp **** 	__asm__ volatile("li a0, 0x80");
 1041              		.loc 2 103 53 is_stmt 0
 1042              	#NO_APP
 1043 0444 93848400 		addi	s1,s1,8
 1044              	.LVL78:
 103:src/syscall_cpp.cpp **** 	__asm__ volatile("li a0, 0x80");
 1045              		.loc 2 103 111
 1046              	#APP
 1047              	# 103 "src/syscall_cpp.cpp" 1
 104:src/syscall_cpp.cpp **** 	//a0 = 0x80
 1048              		mv a1, s1
 1049              	# 0 "" 2
 1050              		.loc 2 104 2 is_stmt 1
 104:src/syscall_cpp.cpp **** 	//a0 = 0x80
 1051              		.loc 2 104 33 is_stmt 0
 1052              	# 104 "src/syscall_cpp.cpp" 1
 111:src/syscall_cpp.cpp **** }
 1053              		li a0, 0x80
 1054              	# 0 "" 2
 1055              		.loc 2 111 2 is_stmt 1
 111:src/syscall_cpp.cpp **** }
 1056              		.loc 2 111 27 is_stmt 0
 1057              	# 111 "src/syscall_cpp.cpp" 1
 1058              		ecall
 1059              	# 0 "" 2
 1060              	#NO_APP
 1061              	.LBE82:
 1062              	.LBE81:
 112:src/syscall_cpp.cpp **** 
 1063              		.loc 2 112 1
 1064 0454 83308101 		ld	ra,24(sp)
 1065              		.cfi_restore 1
 1066 0458 03340101 		ld	s0,16(sp)
 1067              		.cfi_restore 8
 1068              		.cfi_def_cfa 2, 32
 1069 045c 83348100 		ld	s1,8(sp)
 1070              		.cfi_restore 9
 1071              	.LVL79:
 1072 0460 13010102 		addi	sp,sp,32
 1073              		.cfi_def_cfa_offset 0
 1074 0464 67800000 		jr	ra
 1075              		.cfi_endproc
 1076              	.LFE54:
GAS LISTING /tmp/ccpuD3Pj.s 			page 27


 1078              		.globl	_ZN6ThreadC1Ev
 1079              		.set	_ZN6ThreadC1Ev,_ZN6ThreadC2Ev
 1080              		.align	2
 1081              		.globl	_ZN9SemaphoreC2Ej
 1083              	_ZN9SemaphoreC2Ej:
 1084              	.LFB58:
 120:src/syscall_cpp.cpp **** 	sem_open(&myHandle, init);
 1085              		.loc 2 120 1 is_stmt 1
 1086              		.cfi_startproc
 1087              	.LVL80:
 1088 0468 130101FF 		addi	sp,sp,-16
 1089              		.cfi_def_cfa_offset 16
 1090 046c 23341100 		sd	ra,8(sp)
 1091 0470 23308100 		sd	s0,0(sp)
 1092              		.cfi_offset 1, -8
 1093              		.cfi_offset 8, -16
 1094 0474 13040101 		addi	s0,sp,16
 1095              		.cfi_def_cfa 8, 0
 1096              	.LBB83:
 120:src/syscall_cpp.cpp **** 	sem_open(&myHandle, init);
 1097              		.loc 2 120 39 is_stmt 0
 1098 0478 97070000 		lla	a5,_ZTV9Semaphore+16
 1098      93870700 
 1099 0480 2330F500 		sd	a5,0(a0)
 121:src/syscall_cpp.cpp **** }
 1100              		.loc 2 121 2 is_stmt 1
 121:src/syscall_cpp.cpp **** }
 1101              		.loc 2 121 10 is_stmt 0
 1102 0484 13058500 		addi	a0,a0,8
 1103              	.LVL81:
 1104 0488 97000000 		call	_Z8sem_openPP4KSemj@plt
 1104      E7800000 
 1105              	.LVL82:
 1106              	.LBE83:
 122:src/syscall_cpp.cpp **** 
 1107              		.loc 2 122 1
 1108 0490 83308100 		ld	ra,8(sp)
 1109              		.cfi_restore 1
 1110 0494 03340100 		ld	s0,0(sp)
 1111              		.cfi_restore 8
 1112              		.cfi_def_cfa 2, 16
 1113 0498 13010101 		addi	sp,sp,16
 1114              		.cfi_def_cfa_offset 0
 1115 049c 67800000 		jr	ra
 1116              		.cfi_endproc
 1117              	.LFE58:
 1119              		.globl	_ZN9SemaphoreC1Ej
 1120              		.set	_ZN9SemaphoreC1Ej,_ZN9SemaphoreC2Ej
 1121              		.align	2
 1122              		.globl	_ZN9Semaphore4waitEv
 1124              	_ZN9Semaphore4waitEv:
 1125              	.LFB67:
 129:src/syscall_cpp.cpp **** 	return sem_wait(myHandle);
 1126              		.loc 2 129 23 is_stmt 1
 1127              		.cfi_startproc
 1128              	.LVL83:
 1129 04a0 130101FF 		addi	sp,sp,-16
GAS LISTING /tmp/ccpuD3Pj.s 			page 28


 1130              		.cfi_def_cfa_offset 16
 1131 04a4 23341100 		sd	ra,8(sp)
 1132 04a8 23308100 		sd	s0,0(sp)
 1133              		.cfi_offset 1, -8
 1134              		.cfi_offset 8, -16
 1135 04ac 13040101 		addi	s0,sp,16
 1136              		.cfi_def_cfa 8, 0
 130:src/syscall_cpp.cpp **** }
 1137              		.loc 2 130 2
 130:src/syscall_cpp.cpp **** }
 1138              		.loc 2 130 17 is_stmt 0
 1139 04b0 03358500 		ld	a0,8(a0)
 1140              	.LVL84:
 1141 04b4 97000000 		call	_Z8sem_waitP4KSem@plt
 1141      E7800000 
 1142              	.LVL85:
 131:src/syscall_cpp.cpp **** 
 1143              		.loc 2 131 1
 1144 04bc 83308100 		ld	ra,8(sp)
 1145              		.cfi_restore 1
 1146 04c0 03340100 		ld	s0,0(sp)
 1147              		.cfi_restore 8
 1148              		.cfi_def_cfa 2, 16
 1149 04c4 13010101 		addi	sp,sp,16
 1150              		.cfi_def_cfa_offset 0
 1151 04c8 67800000 		jr	ra
 1152              		.cfi_endproc
 1153              	.LFE67:
 1155              		.align	2
 1156              		.globl	_ZN9Semaphore6signalEv
 1158              	_ZN9Semaphore6signalEv:
 1159              	.LFB68:
 133:src/syscall_cpp.cpp **** 	return sem_signal(myHandle);
 1160              		.loc 2 133 25 is_stmt 1
 1161              		.cfi_startproc
 1162              	.LVL86:
 1163 04cc 130101FF 		addi	sp,sp,-16
 1164              		.cfi_def_cfa_offset 16
 1165 04d0 23341100 		sd	ra,8(sp)
 1166 04d4 23308100 		sd	s0,0(sp)
 1167              		.cfi_offset 1, -8
 1168              		.cfi_offset 8, -16
 1169 04d8 13040101 		addi	s0,sp,16
 1170              		.cfi_def_cfa 8, 0
 134:src/syscall_cpp.cpp **** }
 1171              		.loc 2 134 2
 134:src/syscall_cpp.cpp **** }
 1172              		.loc 2 134 19 is_stmt 0
 1173 04dc 03358500 		ld	a0,8(a0)
 1174              	.LVL87:
 1175 04e0 97000000 		call	_Z10sem_signalP4KSem@plt
 1175      E7800000 
 1176              	.LVL88:
 135:src/syscall_cpp.cpp **** 
 1177              		.loc 2 135 1
 1178 04e8 83308100 		ld	ra,8(sp)
 1179              		.cfi_restore 1
GAS LISTING /tmp/ccpuD3Pj.s 			page 29


 1180 04ec 03340100 		ld	s0,0(sp)
 1181              		.cfi_restore 8
 1182              		.cfi_def_cfa 2, 16
 1183 04f0 13010101 		addi	sp,sp,16
 1184              		.cfi_def_cfa_offset 0
 1185 04f4 67800000 		jr	ra
 1186              		.cfi_endproc
 1187              	.LFE68:
 1189              		.align	2
 1190              		.globl	_ZN14PeriodicThread9terminateEv
 1192              	_ZN14PeriodicThread9terminateEv:
 1193              	.LFB69:
 137:src/syscall_cpp.cpp **** }
 1194              		.loc 2 137 34 is_stmt 1
 1195              		.cfi_startproc
 1196              	.LVL89:
 1197 04f8 130101FF 		addi	sp,sp,-16
 1198              		.cfi_def_cfa_offset 16
 1199 04fc 23348100 		sd	s0,8(sp)
 1200              		.cfi_offset 8, -8
 1201 0500 13040101 		addi	s0,sp,16
 1202              		.cfi_def_cfa 8, 0
 138:src/syscall_cpp.cpp **** 
 1203              		.loc 2 138 1 is_stmt 0
 1204 0504 03348100 		ld	s0,8(sp)
 1205              		.cfi_restore 8
 1206              		.cfi_def_cfa 2, 16
 1207 0508 13010101 		addi	sp,sp,16
 1208              		.cfi_def_cfa_offset 0
 1209 050c 67800000 		jr	ra
 1210              		.cfi_endproc
 1211              	.LFE69:
 1213              		.align	2
 1214              		.globl	_ZN14PeriodicThreadC2Em
 1216              	_ZN14PeriodicThreadC2Em:
 1217              	.LFB71:
 140:src/syscall_cpp.cpp **** }
 1218              		.loc 2 140 1 is_stmt 1
 1219              		.cfi_startproc
 1220              	.LVL90:
 1221 0510 130101FE 		addi	sp,sp,-32
 1222              		.cfi_def_cfa_offset 32
 1223 0514 233C1100 		sd	ra,24(sp)
 1224 0518 23388100 		sd	s0,16(sp)
 1225 051c 23349100 		sd	s1,8(sp)
 1226 0520 23302101 		sd	s2,0(sp)
 1227              		.cfi_offset 1, -8
 1228              		.cfi_offset 8, -16
 1229              		.cfi_offset 9, -24
 1230              		.cfi_offset 18, -32
 1231 0524 13040102 		addi	s0,sp,32
 1232              		.cfi_def_cfa 8, 0
 1233 0528 93040500 		mv	s1,a0
 1234 052c 13890500 		mv	s2,a1
 1235              	.LBB84:
 140:src/syscall_cpp.cpp **** }
 1236              		.loc 2 140 93 is_stmt 0
GAS LISTING /tmp/ccpuD3Pj.s 			page 30


 1237 0530 13060500 		mv	a2,a0
 1238 0534 97050000 		lla	a1,_ZN14PeriodicThread15periodicWrapperEPv
 1238      93850500 
 1239              	.LVL91:
 1240 053c 97000000 		call	_ZN6ThreadC2EPFvPvES0_
 1240      E7800000 
 1241              	.LVL92:
 1242 0544 97070000 		lla	a5,_ZTV14PeriodicThread+16
 1242      93870700 
 1243 054c 23B0F400 		sd	a5,0(s1)
 1244 0550 23B02403 		sd	s2,32(s1)
 1245              	.LBE84:
 141:src/syscall_cpp.cpp **** 
 1246              		.loc 2 141 1
 1247 0554 83308101 		ld	ra,24(sp)
 1248              		.cfi_restore 1
 1249 0558 03340101 		ld	s0,16(sp)
 1250              		.cfi_restore 8
 1251              		.cfi_def_cfa 2, 32
 1252 055c 83348100 		ld	s1,8(sp)
 1253              		.cfi_restore 9
 1254              	.LVL93:
 1255 0560 03390100 		ld	s2,0(sp)
 1256              		.cfi_restore 18
 1257              	.LVL94:
 1258 0564 13010102 		addi	sp,sp,32
 1259              		.cfi_def_cfa_offset 0
 1260 0568 67800000 		jr	ra
 1261              		.cfi_endproc
 1262              	.LFE71:
 1264              		.globl	_ZN14PeriodicThreadC1Em
 1265              		.set	_ZN14PeriodicThreadC1Em,_ZN14PeriodicThreadC2Em
 1266              		.align	2
 1267              		.globl	_ZN7Console4getcEv
 1269              	_ZN7Console4getcEv:
 1270              	.LFB74:
 152:src/syscall_cpp.cpp **** 
 153:src/syscall_cpp.cpp **** char Console::getc() {
 1271              		.loc 2 153 22 is_stmt 1
 1272              		.cfi_startproc
 1273 056c 130101FF 		addi	sp,sp,-16
 1274              		.cfi_def_cfa_offset 16
 1275 0570 23341100 		sd	ra,8(sp)
 1276 0574 23308100 		sd	s0,0(sp)
 1277              		.cfi_offset 1, -8
 1278              		.cfi_offset 8, -16
 1279 0578 13040101 		addi	s0,sp,16
 1280              		.cfi_def_cfa 8, 0
 154:src/syscall_cpp.cpp **** 	return ::getc();
 1281              		.loc 2 154 2
 1282              		.loc 2 154 15 is_stmt 0
 1283 057c 97000000 		call	_Z4getcv@plt
 1283      E7800000 
 1284              	.LVL95:
 155:src/syscall_cpp.cpp **** }
 1285              		.loc 2 155 1
 1286 0584 83308100 		ld	ra,8(sp)
GAS LISTING /tmp/ccpuD3Pj.s 			page 31


 1287              		.cfi_restore 1
 1288 0588 03340100 		ld	s0,0(sp)
 1289              		.cfi_restore 8
 1290              		.cfi_def_cfa 2, 16
 1291 058c 13010101 		addi	sp,sp,16
 1292              		.cfi_def_cfa_offset 0
 1293 0590 67800000 		jr	ra
 1294              		.cfi_endproc
 1295              	.LFE74:
 1297              		.align	2
 1298              		.globl	_ZN7Console4putcEc
 1300              	_ZN7Console4putcEc:
 1301              	.LFB75:
 156:src/syscall_cpp.cpp **** 
 157:src/syscall_cpp.cpp **** void Console::putc(char c) {
 1302              		.loc 2 157 28 is_stmt 1
 1303              		.cfi_startproc
 1304              	.LVL96:
 1305 0594 130101FF 		addi	sp,sp,-16
 1306              		.cfi_def_cfa_offset 16
 1307 0598 23341100 		sd	ra,8(sp)
 1308 059c 23308100 		sd	s0,0(sp)
 1309              		.cfi_offset 1, -8
 1310              		.cfi_offset 8, -16
 1311 05a0 13040101 		addi	s0,sp,16
 1312              		.cfi_def_cfa 8, 0
 158:src/syscall_cpp.cpp **** 	::putc(c);
 1313              		.loc 2 158 2
 1314              		.loc 2 158 8 is_stmt 0
 1315 05a4 97000000 		call	_Z4putcc@plt
 1315      E7800000 
 1316              	.LVL97:
 159:src/syscall_cpp.cpp **** }
 1317              		.loc 2 159 1
 1318 05ac 83308100 		ld	ra,8(sp)
 1319              		.cfi_restore 1
 1320 05b0 03340100 		ld	s0,0(sp)
 1321              		.cfi_restore 8
 1322              		.cfi_def_cfa 2, 16
 1323 05b4 13010101 		addi	sp,sp,16
 1324              		.cfi_def_cfa_offset 0
 1325 05b8 67800000 		jr	ra
 1326              		.cfi_endproc
 1327              	.LFE75:
 1329              		.weak	_ZTV14PeriodicThread
 1330              		.section	.data.rel.ro.local._ZTV14PeriodicThread,"awG",@progbits,_ZTV14PeriodicThread,comdat
 1331              		.align	3
 1334              	_ZTV14PeriodicThread:
 1335 0000 00000000 		.dword	0
 1335      00000000 
 1336 0008 00000000 		.dword	0
 1336      00000000 
 1337 0010 00000000 		.dword	_ZN14PeriodicThreadD1Ev
 1337      00000000 
 1338 0018 00000000 		.dword	_ZN14PeriodicThreadD0Ev
 1338      00000000 
 1339 0020 00000000 		.dword	_ZN6Thread3runEv
GAS LISTING /tmp/ccpuD3Pj.s 			page 32


 1339      00000000 
 1340 0028 00000000 		.dword	_ZN14PeriodicThread18periodicActivationEv
 1340      00000000 
 1341              		.weak	_ZTV6Thread
 1342              		.section	.data.rel.ro.local._ZTV6Thread,"awG",@progbits,_ZTV6Thread,comdat
 1343              		.align	3
 1346              	_ZTV6Thread:
 1347 0000 00000000 		.dword	0
 1347      00000000 
 1348 0008 00000000 		.dword	0
 1348      00000000 
 1349 0010 00000000 		.dword	_ZN6ThreadD1Ev
 1349      00000000 
 1350 0018 00000000 		.dword	_ZN6ThreadD0Ev
 1350      00000000 
 1351 0020 00000000 		.dword	_ZN6Thread3runEv
 1351      00000000 
 1352              		.weak	_ZTV9Semaphore
 1353              		.section	.data.rel.ro.local._ZTV9Semaphore,"awG",@progbits,_ZTV9Semaphore,comdat
 1354              		.align	3
 1357              	_ZTV9Semaphore:
 1358 0000 00000000 		.dword	0
 1358      00000000 
 1359 0008 00000000 		.dword	0
 1359      00000000 
 1360 0010 00000000 		.dword	_ZN9SemaphoreD1Ev
 1360      00000000 
 1361 0018 00000000 		.dword	_ZN9SemaphoreD0Ev
 1361      00000000 
 1362              		.text
 1363              	.Letext0:
 1364              		.file 4 "src/../h/../lib/hw.h"
 1365              		.file 5 "src/../h/TCB.hpp"
 1366              		.file 6 "src/../h/KSem.hpp"
 1367              		.file 7 "src/../h/Scheduler.hpp"
 1368              		.file 8 "src/../h/syscall_c.hpp"
 6408              		.align	3
 6411              	DW.ref.__gxx_personality_v0:
 6412 0000 00000000 		.dword	__gxx_personality_v0
 6412      00000000 
 6413              		.ident	"GCC: (Ubuntu 9.4.0-1ubuntu1~20.04) 9.4.0"
 6414              		.section	.note.GNU-stack,"",@progbits
GAS LISTING /tmp/ccpuD3Pj.s 			page 33


DEFINED SYMBOLS
                            *ABS*:0000000000000000 syscall_cpp.cpp
     /tmp/ccpuD3Pj.s:10     .text._ZN6Thread3runEv:0000000000000000 _ZN6Thread3runEv
     /tmp/ccpuD3Pj.s:14     .text._ZN6Thread3runEv:0000000000000000 .L0 
     /tmp/ccpuD3Pj.s:16     .text._ZN6Thread3runEv:0000000000000000 .L0 
     /tmp/ccpuD3Pj.s:17     .text._ZN6Thread3runEv:0000000000000004 .L0 
     /tmp/ccpuD3Pj.s:19     .text._ZN6Thread3runEv:0000000000000008 .L0 
     /tmp/ccpuD3Pj.s:21     .text._ZN6Thread3runEv:000000000000000c .L0 
     /tmp/ccpuD3Pj.s:23     .text._ZN6Thread3runEv:000000000000000c .L0 
     /tmp/ccpuD3Pj.s:24     .text._ZN6Thread3runEv:0000000000000010 .L0 
     /tmp/ccpuD3Pj.s:25     .text._ZN6Thread3runEv:0000000000000010 .L0 
     /tmp/ccpuD3Pj.s:27     .text._ZN6Thread3runEv:0000000000000014 .L0 
     /tmp/ccpuD3Pj.s:29     .text._ZN6Thread3runEv:0000000000000018 .L0 
     /tmp/ccpuD3Pj.s:36     .text._ZN14PeriodicThread18periodicActivationEv:0000000000000000 _ZN14PeriodicThread18periodicActivationEv
     /tmp/ccpuD3Pj.s:39     .text._ZN14PeriodicThread18periodicActivationEv:0000000000000000 .L0 
     /tmp/ccpuD3Pj.s:41     .text._ZN14PeriodicThread18periodicActivationEv:0000000000000000 .L0 
     /tmp/ccpuD3Pj.s:42     .text._ZN14PeriodicThread18periodicActivationEv:0000000000000004 .L0 
     /tmp/ccpuD3Pj.s:44     .text._ZN14PeriodicThread18periodicActivationEv:0000000000000008 .L0 
     /tmp/ccpuD3Pj.s:46     .text._ZN14PeriodicThread18periodicActivationEv:000000000000000c .L0 
     /tmp/ccpuD3Pj.s:48     .text._ZN14PeriodicThread18periodicActivationEv:000000000000000c .L0 
     /tmp/ccpuD3Pj.s:49     .text._ZN14PeriodicThread18periodicActivationEv:0000000000000010 .L0 
     /tmp/ccpuD3Pj.s:50     .text._ZN14PeriodicThread18periodicActivationEv:0000000000000010 .L0 
     /tmp/ccpuD3Pj.s:52     .text._ZN14PeriodicThread18periodicActivationEv:0000000000000014 .L0 
     /tmp/ccpuD3Pj.s:54     .text._ZN14PeriodicThread18periodicActivationEv:0000000000000018 .L0 
     /tmp/ccpuD3Pj.s:61     .text:0000000000000000 _ZN6Thread7wrapperEPv
     /tmp/ccpuD3Pj.s:65     .text:0000000000000000 .L0 
     /tmp/ccpuD3Pj.s:67     .text:0000000000000000 .L0 
     /tmp/ccpuD3Pj.s:68     .text:0000000000000000 .L0 
     /tmp/ccpuD3Pj.s:70     .text:0000000000000004 .L0 
     /tmp/ccpuD3Pj.s:71     .text:0000000000000008 .L0 
     /tmp/ccpuD3Pj.s:74     .text:0000000000000010 .L0 
     /tmp/ccpuD3Pj.s:75     .text:0000000000000010 .L0 
     /tmp/ccpuD3Pj.s:77     .text:0000000000000014 .L0 
     /tmp/ccpuD3Pj.s:79     .text:0000000000000014 .L0 
     /tmp/ccpuD3Pj.s:80     .text:0000000000000014 .L0 
     /tmp/ccpuD3Pj.s:83     .text:000000000000001c .L0 
     /tmp/ccpuD3Pj.s:86     .text:0000000000000020 .L0 
     /tmp/ccpuD3Pj.s:87     .text:0000000000000024 .L0 
     /tmp/ccpuD3Pj.s:89     .text:0000000000000028 .L0 
     /tmp/ccpuD3Pj.s:90     .text:0000000000000028 .L0 
     /tmp/ccpuD3Pj.s:92     .text:000000000000002c .L0 
     /tmp/ccpuD3Pj.s:97     .text:0000000000000034 .L0 
     /tmp/ccpuD3Pj.s:103    .text:0000000000000034 _ZN6ThreadD2Ev
     /tmp/ccpuD3Pj.s:106    .text:0000000000000034 .L0 
     /tmp/ccpuD3Pj.s:6411   .data.rel.local.DW.ref.__gxx_personality_v0:0000000000000000 DW.ref.__gxx_personality_v0
     /tmp/ccpuD3Pj.s:110    .text:0000000000000034 .L0 
     /tmp/ccpuD3Pj.s:111    .text:0000000000000038 .L0 
     /tmp/ccpuD3Pj.s:115    .text:0000000000000044 .L0 
     /tmp/ccpuD3Pj.s:116    .text:0000000000000044 .L0 
     /tmp/ccpuD3Pj.s:117    .text:0000000000000044 .L0 
     /tmp/ccpuD3Pj.s:119    .text:0000000000000048 .L0 
     /tmp/ccpuD3Pj.s:1346   .data.rel.ro.local._ZTV6Thread:0000000000000000 _ZTV6Thread
     /tmp/ccpuD3Pj.s:123    .text:000000000000004c .L0 
     /tmp/ccpuD3Pj.s:126    .text:0000000000000058 .L0 
     /tmp/ccpuD3Pj.s:127    .text:0000000000000058 .L0 
     /tmp/ccpuD3Pj.s:132    .text:0000000000000064 .L0 
     /tmp/ccpuD3Pj.s:133    .text:0000000000000064 .L0 
GAS LISTING /tmp/ccpuD3Pj.s 			page 34


     /tmp/ccpuD3Pj.s:136    .text:0000000000000068 .L0 
     /tmp/ccpuD3Pj.s:143    .text:000000000000006c .L0 
     /tmp/ccpuD3Pj.s:147    .text:000000000000006c .L0 
     /tmp/ccpuD3Pj.s:148    .text:000000000000006c .L0 
     /tmp/ccpuD3Pj.s:149    .text:000000000000006c .L0 
     /tmp/ccpuD3Pj.s:153    .text:0000000000000070 .L0 
     /tmp/ccpuD3Pj.s:157    .text:0000000000000074 .L0 
     /tmp/ccpuD3Pj.s:158    .text:0000000000000074 .L0 
     /tmp/ccpuD3Pj.s:159    .text:0000000000000074 .L0 
     /tmp/ccpuD3Pj.s:161    .text:0000000000000078 .L0 
     /tmp/ccpuD3Pj.s:163    .text:000000000000007c .L0 
     /tmp/ccpuD3Pj.s:164    .text:000000000000007c .L0 
     /tmp/ccpuD3Pj.s:169    .text:0000000000000080 .L0 
     /tmp/ccpuD3Pj.s:170    .text:0000000000000080 .L0 
     /tmp/ccpuD3Pj.s:173    .text:0000000000000088 .L0 
     /tmp/ccpuD3Pj.s:182    .text:000000000000008c .L0 
     /tmp/ccpuD3Pj.s:188    .text:0000000000000098 .L0 
     /tmp/ccpuD3Pj.s:189    .text:000000000000009c .L0 
     /tmp/ccpuD3Pj.s:191    .text:00000000000000a0 .L0 
     /tmp/ccpuD3Pj.s:192    .text:00000000000000a0 .L0 
     /tmp/ccpuD3Pj.s:194    .text:00000000000000a4 .L0 
     /tmp/ccpuD3Pj.s:196    .text:00000000000000a8 .L0 
     /tmp/ccpuD3Pj.s:198    .text:00000000000000ac .L0 
     /tmp/ccpuD3Pj.s:103    .text:0000000000000034 _ZN6ThreadD1Ev
     /tmp/ccpuD3Pj.s:215    .text._ZN14PeriodicThreadD2Ev:0000000000000000 _ZN14PeriodicThreadD2Ev
     /tmp/ccpuD3Pj.s:218    .text._ZN14PeriodicThreadD2Ev:0000000000000000 .L0 
     /tmp/ccpuD3Pj.s:220    .text._ZN14PeriodicThreadD2Ev:0000000000000000 .L0 
     /tmp/ccpuD3Pj.s:221    .text._ZN14PeriodicThreadD2Ev:0000000000000004 .L0 
     /tmp/ccpuD3Pj.s:224    .text._ZN14PeriodicThreadD2Ev:000000000000000c .L0 
     /tmp/ccpuD3Pj.s:225    .text._ZN14PeriodicThreadD2Ev:000000000000000c .L0 
     /tmp/ccpuD3Pj.s:227    .text._ZN14PeriodicThreadD2Ev:0000000000000010 .L0 
     /tmp/ccpuD3Pj.s:1334   .data.rel.ro.local._ZTV14PeriodicThread:0000000000000000 _ZTV14PeriodicThread
     /tmp/ccpuD3Pj.s:230    .text._ZN14PeriodicThreadD2Ev:0000000000000010 .L0 
     /tmp/ccpuD3Pj.s:236    .text._ZN14PeriodicThreadD2Ev:0000000000000028 .L0 
     /tmp/ccpuD3Pj.s:238    .text._ZN14PeriodicThreadD2Ev:000000000000002c .L0 
     /tmp/ccpuD3Pj.s:239    .text._ZN14PeriodicThreadD2Ev:000000000000002c .L0 
     /tmp/ccpuD3Pj.s:241    .text._ZN14PeriodicThreadD2Ev:0000000000000030 .L0 
     /tmp/ccpuD3Pj.s:243    .text._ZN14PeriodicThreadD2Ev:0000000000000034 .L0 
     /tmp/ccpuD3Pj.s:215    .text._ZN14PeriodicThreadD2Ev:0000000000000000 _ZN14PeriodicThreadD1Ev
     /tmp/ccpuD3Pj.s:252    .text:00000000000000ac _ZN9SemaphoreD2Ev
     /tmp/ccpuD3Pj.s:255    .text:00000000000000ac .L0 
     /tmp/ccpuD3Pj.s:259    .text:00000000000000ac .L0 
     /tmp/ccpuD3Pj.s:260    .text:00000000000000b0 .L0 
     /tmp/ccpuD3Pj.s:264    .text:00000000000000bc .L0 
     /tmp/ccpuD3Pj.s:265    .text:00000000000000bc .L0 
     /tmp/ccpuD3Pj.s:266    .text:00000000000000bc .L0 
     /tmp/ccpuD3Pj.s:268    .text:00000000000000c0 .L0 
     /tmp/ccpuD3Pj.s:1357   .data.rel.ro.local._ZTV9Semaphore:0000000000000000 _ZTV9Semaphore
     /tmp/ccpuD3Pj.s:272    .text:00000000000000c4 .L0 
     /tmp/ccpuD3Pj.s:275    .text:00000000000000d0 .L0 
     /tmp/ccpuD3Pj.s:276    .text:00000000000000d0 .L0 
     /tmp/ccpuD3Pj.s:281    .text:00000000000000dc .L0 
     /tmp/ccpuD3Pj.s:282    .text:00000000000000dc .L0 
     /tmp/ccpuD3Pj.s:285    .text:00000000000000e0 .L0 
     /tmp/ccpuD3Pj.s:291    .text:00000000000000e4 .L0 
     /tmp/ccpuD3Pj.s:295    .text:00000000000000e4 .L0 
     /tmp/ccpuD3Pj.s:296    .text:00000000000000e4 .L0 
GAS LISTING /tmp/ccpuD3Pj.s 			page 35


     /tmp/ccpuD3Pj.s:297    .text:00000000000000e4 .L0 
     /tmp/ccpuD3Pj.s:301    .text:00000000000000e8 .L0 
     /tmp/ccpuD3Pj.s:305    .text:00000000000000ec .L0 
     /tmp/ccpuD3Pj.s:306    .text:00000000000000ec .L0 
     /tmp/ccpuD3Pj.s:307    .text:00000000000000ec .L0 
     /tmp/ccpuD3Pj.s:309    .text:00000000000000f0 .L0 
     /tmp/ccpuD3Pj.s:311    .text:00000000000000f4 .L0 
     /tmp/ccpuD3Pj.s:312    .text:00000000000000f4 .L0 
     /tmp/ccpuD3Pj.s:317    .text:00000000000000f8 .L0 
     /tmp/ccpuD3Pj.s:318    .text:00000000000000f8 .L0 
     /tmp/ccpuD3Pj.s:321    .text:0000000000000100 .L0 
     /tmp/ccpuD3Pj.s:330    .text:0000000000000104 .L0 
     /tmp/ccpuD3Pj.s:336    .text:0000000000000110 .L0 
     /tmp/ccpuD3Pj.s:337    .text:0000000000000114 .L0 
     /tmp/ccpuD3Pj.s:339    .text:0000000000000118 .L0 
     /tmp/ccpuD3Pj.s:340    .text:0000000000000118 .L0 
     /tmp/ccpuD3Pj.s:342    .text:000000000000011c .L0 
     /tmp/ccpuD3Pj.s:344    .text:0000000000000120 .L0 
     /tmp/ccpuD3Pj.s:346    .text:0000000000000124 .L0 
     /tmp/ccpuD3Pj.s:252    .text:00000000000000ac _ZN9SemaphoreD1Ev
     /tmp/ccpuD3Pj.s:361    .text:0000000000000124 _Znwm
     /tmp/ccpuD3Pj.s:364    .text:0000000000000124 .L0 
     /tmp/ccpuD3Pj.s:366    .text:0000000000000124 .L0 
     /tmp/ccpuD3Pj.s:367    .text:0000000000000128 .L0 
     /tmp/ccpuD3Pj.s:370    .text:0000000000000130 .L0 
     /tmp/ccpuD3Pj.s:371    .text:0000000000000130 .L0 
     /tmp/ccpuD3Pj.s:373    .text:0000000000000134 .L0 
     /tmp/ccpuD3Pj.s:375    .text:0000000000000134 .L0 
     /tmp/ccpuD3Pj.s:376    .text:0000000000000134 .L0 
     /tmp/ccpuD3Pj.s:379    .text:000000000000013c .L0 
     /tmp/ccpuD3Pj.s:380    .text:0000000000000140 .L0 
     /tmp/ccpuD3Pj.s:382    .text:0000000000000144 .L0 
     /tmp/ccpuD3Pj.s:383    .text:0000000000000144 .L0 
     /tmp/ccpuD3Pj.s:385    .text:0000000000000148 .L0 
     /tmp/ccpuD3Pj.s:387    .text:000000000000014c .L0 
     /tmp/ccpuD3Pj.s:393    .text:000000000000014c _Znam
     /tmp/ccpuD3Pj.s:396    .text:000000000000014c .L0 
     /tmp/ccpuD3Pj.s:398    .text:000000000000014c .L0 
     /tmp/ccpuD3Pj.s:399    .text:0000000000000150 .L0 
     /tmp/ccpuD3Pj.s:402    .text:0000000000000158 .L0 
     /tmp/ccpuD3Pj.s:403    .text:0000000000000158 .L0 
     /tmp/ccpuD3Pj.s:405    .text:000000000000015c .L0 
     /tmp/ccpuD3Pj.s:407    .text:000000000000015c .L0 
     /tmp/ccpuD3Pj.s:408    .text:000000000000015c .L0 
     /tmp/ccpuD3Pj.s:411    .text:0000000000000164 .L0 
     /tmp/ccpuD3Pj.s:412    .text:0000000000000168 .L0 
     /tmp/ccpuD3Pj.s:414    .text:000000000000016c .L0 
     /tmp/ccpuD3Pj.s:415    .text:000000000000016c .L0 
     /tmp/ccpuD3Pj.s:417    .text:0000000000000170 .L0 
     /tmp/ccpuD3Pj.s:419    .text:0000000000000174 .L0 
     /tmp/ccpuD3Pj.s:425    .text:0000000000000174 _ZdlPv
     /tmp/ccpuD3Pj.s:428    .text:0000000000000174 .L0 
     /tmp/ccpuD3Pj.s:432    .text:0000000000000174 .L0 
     /tmp/ccpuD3Pj.s:433    .text:0000000000000178 .L0 
     /tmp/ccpuD3Pj.s:436    .text:0000000000000180 .L0 
     /tmp/ccpuD3Pj.s:437    .text:0000000000000180 .L0 
     /tmp/ccpuD3Pj.s:439    .text:0000000000000184 .L0 
GAS LISTING /tmp/ccpuD3Pj.s 			page 36


     /tmp/ccpuD3Pj.s:441    .text:0000000000000184 .L0 
     /tmp/ccpuD3Pj.s:442    .text:0000000000000184 .L0 
     /tmp/ccpuD3Pj.s:445    .text:000000000000018c .L0 
     /tmp/ccpuD3Pj.s:446    .text:0000000000000190 .L0 
     /tmp/ccpuD3Pj.s:448    .text:0000000000000194 .L0 
     /tmp/ccpuD3Pj.s:449    .text:0000000000000194 .L0 
     /tmp/ccpuD3Pj.s:451    .text:0000000000000198 .L0 
     /tmp/ccpuD3Pj.s:453    .text:000000000000019c .L0 
     /tmp/ccpuD3Pj.s:466    .text:000000000000019c _ZN6ThreadD0Ev
     /tmp/ccpuD3Pj.s:469    .text:000000000000019c .L0 
     /tmp/ccpuD3Pj.s:471    .text:000000000000019c .L0 
     /tmp/ccpuD3Pj.s:472    .text:00000000000001a0 .L0 
     /tmp/ccpuD3Pj.s:476    .text:00000000000001ac .L0 
     /tmp/ccpuD3Pj.s:477    .text:00000000000001ac .L0 
     /tmp/ccpuD3Pj.s:478    .text:00000000000001ac .L0 
     /tmp/ccpuD3Pj.s:480    .text:00000000000001b0 .L0 
     /tmp/ccpuD3Pj.s:483    .text:00000000000001b4 .L0 
     /tmp/ccpuD3Pj.s:489    .text:00000000000001cc .L0 
     /tmp/ccpuD3Pj.s:491    .text:00000000000001d0 .L0 
     /tmp/ccpuD3Pj.s:492    .text:00000000000001d0 .L0 
     /tmp/ccpuD3Pj.s:494    .text:00000000000001d4 .L0 
     /tmp/ccpuD3Pj.s:497    .text:00000000000001d8 .L0 
     /tmp/ccpuD3Pj.s:499    .text:00000000000001dc .L0 
     /tmp/ccpuD3Pj.s:506    .text._ZN14PeriodicThreadD0Ev:0000000000000000 _ZN14PeriodicThreadD0Ev
     /tmp/ccpuD3Pj.s:509    .text._ZN14PeriodicThreadD0Ev:0000000000000000 .L0 
     /tmp/ccpuD3Pj.s:511    .text._ZN14PeriodicThreadD0Ev:0000000000000000 .L0 
     /tmp/ccpuD3Pj.s:512    .text._ZN14PeriodicThreadD0Ev:0000000000000004 .L0 
     /tmp/ccpuD3Pj.s:516    .text._ZN14PeriodicThreadD0Ev:0000000000000010 .L0 
     /tmp/ccpuD3Pj.s:517    .text._ZN14PeriodicThreadD0Ev:0000000000000010 .L0 
     /tmp/ccpuD3Pj.s:518    .text._ZN14PeriodicThreadD0Ev:0000000000000010 .L0 
     /tmp/ccpuD3Pj.s:520    .text._ZN14PeriodicThreadD0Ev:0000000000000014 .L0 
     /tmp/ccpuD3Pj.s:526    .text._ZN14PeriodicThreadD0Ev:0000000000000018 .L0 
     /tmp/ccpuD3Pj.s:536    .text._ZN14PeriodicThreadD0Ev:000000000000003c .L0 
     /tmp/ccpuD3Pj.s:538    .text._ZN14PeriodicThreadD0Ev:0000000000000040 .L0 
     /tmp/ccpuD3Pj.s:539    .text._ZN14PeriodicThreadD0Ev:0000000000000040 .L0 
     /tmp/ccpuD3Pj.s:541    .text._ZN14PeriodicThreadD0Ev:0000000000000044 .L0 
     /tmp/ccpuD3Pj.s:544    .text._ZN14PeriodicThreadD0Ev:0000000000000048 .L0 
     /tmp/ccpuD3Pj.s:546    .text._ZN14PeriodicThreadD0Ev:000000000000004c .L0 
     /tmp/ccpuD3Pj.s:553    .text:00000000000001dc _ZN9SemaphoreD0Ev
     /tmp/ccpuD3Pj.s:556    .text:00000000000001dc .L0 
     /tmp/ccpuD3Pj.s:558    .text:00000000000001dc .L0 
     /tmp/ccpuD3Pj.s:559    .text:00000000000001e0 .L0 
     /tmp/ccpuD3Pj.s:563    .text:00000000000001ec .L0 
     /tmp/ccpuD3Pj.s:564    .text:00000000000001ec .L0 
     /tmp/ccpuD3Pj.s:565    .text:00000000000001ec .L0 
     /tmp/ccpuD3Pj.s:567    .text:00000000000001f0 .L0 
     /tmp/ccpuD3Pj.s:570    .text:00000000000001f4 .L0 
     /tmp/ccpuD3Pj.s:576    .text:000000000000020c .L0 
     /tmp/ccpuD3Pj.s:578    .text:0000000000000210 .L0 
     /tmp/ccpuD3Pj.s:579    .text:0000000000000210 .L0 
     /tmp/ccpuD3Pj.s:581    .text:0000000000000214 .L0 
     /tmp/ccpuD3Pj.s:584    .text:0000000000000218 .L0 
     /tmp/ccpuD3Pj.s:586    .text:000000000000021c .L0 
     /tmp/ccpuD3Pj.s:592    .text:000000000000021c _ZdaPv
     /tmp/ccpuD3Pj.s:595    .text:000000000000021c .L0 
     /tmp/ccpuD3Pj.s:599    .text:000000000000021c .L0 
     /tmp/ccpuD3Pj.s:600    .text:0000000000000220 .L0 
GAS LISTING /tmp/ccpuD3Pj.s 			page 37


     /tmp/ccpuD3Pj.s:603    .text:0000000000000228 .L0 
     /tmp/ccpuD3Pj.s:604    .text:0000000000000228 .L0 
     /tmp/ccpuD3Pj.s:606    .text:000000000000022c .L0 
     /tmp/ccpuD3Pj.s:608    .text:000000000000022c .L0 
     /tmp/ccpuD3Pj.s:609    .text:000000000000022c .L0 
     /tmp/ccpuD3Pj.s:612    .text:0000000000000234 .L0 
     /tmp/ccpuD3Pj.s:613    .text:0000000000000238 .L0 
     /tmp/ccpuD3Pj.s:615    .text:000000000000023c .L0 
     /tmp/ccpuD3Pj.s:616    .text:000000000000023c .L0 
     /tmp/ccpuD3Pj.s:618    .text:0000000000000240 .L0 
     /tmp/ccpuD3Pj.s:620    .text:0000000000000244 .L0 
     /tmp/ccpuD3Pj.s:633    .text:0000000000000244 _ZN6ThreadC2EPFvPvES0_
     /tmp/ccpuD3Pj.s:636    .text:0000000000000244 .L0 
     /tmp/ccpuD3Pj.s:638    .text:0000000000000244 .L0 
     /tmp/ccpuD3Pj.s:639    .text:0000000000000248 .L0 
     /tmp/ccpuD3Pj.s:645    .text:000000000000025c .L0 
     /tmp/ccpuD3Pj.s:646    .text:000000000000025c .L0 
     /tmp/ccpuD3Pj.s:647    .text:000000000000025c .L0 
     /tmp/ccpuD3Pj.s:648    .text:000000000000025c .L0 
     /tmp/ccpuD3Pj.s:649    .text:000000000000025c .L0 
     /tmp/ccpuD3Pj.s:651    .text:0000000000000260 .L0 
     /tmp/ccpuD3Pj.s:657    .text:000000000000026c .L0 
     /tmp/ccpuD3Pj.s:661    .text:0000000000000278 .L0 
     /tmp/ccpuD3Pj.s:662    .text:0000000000000278 .L0 
     /tmp/ccpuD3Pj.s:664    .text:000000000000027c .L0 
     /tmp/ccpuD3Pj.s:665    .text:000000000000027c .L0 
     /tmp/ccpuD3Pj.s:668    .text:0000000000000280 .L0 
     /tmp/ccpuD3Pj.s:669    .text:0000000000000280 .L0 
     /tmp/ccpuD3Pj.s:671    .text:0000000000000284 .L0 
     /tmp/ccpuD3Pj.s:672    .text:0000000000000284 .L0 
     /tmp/ccpuD3Pj.s:680    .text:0000000000000294 .L0 
 src/syscall_cpp.cpp:42     .text:0000000000000294 .L0 
     /tmp/ccpuD3Pj.s:686    .text:0000000000000298 .L0 
 src/syscall_cpp.cpp:43     .text:0000000000000298 .L0 
     /tmp/ccpuD3Pj.s:691    .text:000000000000029c .L0 
 src/syscall_cpp.cpp:45     .text:000000000000029c .L0 
     /tmp/ccpuD3Pj.s:696    .text:00000000000002a0 .L0 
     /tmp/ccpuD3Pj.s:698    .text:00000000000002a0 .L0 
 src/syscall_cpp.cpp:46     .text:00000000000002a4 .L0 
     /tmp/ccpuD3Pj.s:706    .text:00000000000002a8 .L0 
 src/syscall_cpp.cpp:47     .text:00000000000002a8 .L0 
     /tmp/ccpuD3Pj.s:711    .text:00000000000002ac .L0 
 src/syscall_cpp.cpp:54     .text:00000000000002ac .L0 
     /tmp/ccpuD3Pj.s:719    .text:00000000000002b0 .L0 
     /tmp/ccpuD3Pj.s:720    .text:00000000000002b4 .L0 
     /tmp/ccpuD3Pj.s:721    .text:00000000000002b4 .L0 
     /tmp/ccpuD3Pj.s:723    .text:00000000000002b8 .L0 
     /tmp/ccpuD3Pj.s:724    .text:00000000000002b8 .L0 
     /tmp/ccpuD3Pj.s:726    .text:00000000000002bc .L0 
     /tmp/ccpuD3Pj.s:729    .text:00000000000002c0 .L0 
     /tmp/ccpuD3Pj.s:732    .text:00000000000002c4 .L0 
     /tmp/ccpuD3Pj.s:735    .text:00000000000002c8 .L0 
     /tmp/ccpuD3Pj.s:739    .text:00000000000002cc .L0 
     /tmp/ccpuD3Pj.s:743    .text:00000000000002cc .L0 
     /tmp/ccpuD3Pj.s:747    .text:00000000000002d4 .L0 
     /tmp/ccpuD3Pj.s:633    .text:0000000000000244 _ZN6ThreadC1EPFvPvES0_
     /tmp/ccpuD3Pj.s:755    .text:00000000000002d4 _ZN6Thread5startEv
GAS LISTING /tmp/ccpuD3Pj.s 			page 38


     /tmp/ccpuD3Pj.s:758    .text:00000000000002d4 .L0 
     /tmp/ccpuD3Pj.s:760    .text:00000000000002d4 .L0 
     /tmp/ccpuD3Pj.s:761    .text:00000000000002d8 .L0 
     /tmp/ccpuD3Pj.s:763    .text:00000000000002dc .L0 
     /tmp/ccpuD3Pj.s:765    .text:00000000000002e0 .L0 
     /tmp/ccpuD3Pj.s:767    .text:00000000000002e0 .L0 
     /tmp/ccpuD3Pj.s:768    .text:00000000000002e0 .L0 
     /tmp/ccpuD3Pj.s:770    .text:00000000000002e4 .L0 
     /tmp/ccpuD3Pj.s:772    .text:00000000000002e8 .L0 
 src/syscall_cpp.cpp:68     .text:00000000000002e8 .L0 
     /tmp/ccpuD3Pj.s:779    .text:00000000000002ec .L0 
 src/syscall_cpp.cpp:69     .text:00000000000002ec .L0 
     /tmp/ccpuD3Pj.s:784    .text:00000000000002f0 .L0 
 src/syscall_cpp.cpp:71     .text:00000000000002f0 .L0 
     /tmp/ccpuD3Pj.s:789    .text:00000000000002f4 .L0 
     /tmp/ccpuD3Pj.s:791    .text:00000000000002f4 .L0 
     /tmp/ccpuD3Pj.s:794    .text:00000000000002f8 .L0 
     /tmp/ccpuD3Pj.s:795    .text:00000000000002fc .L0 
     /tmp/ccpuD3Pj.s:796    .text:00000000000002fc .L0 
     /tmp/ccpuD3Pj.s:797    .text:00000000000002fc .L0 
     /tmp/ccpuD3Pj.s:799    .text:0000000000000300 .L0 
     /tmp/ccpuD3Pj.s:803    .text:0000000000000304 .L0 
     /tmp/ccpuD3Pj.s:805    .text:0000000000000304 .L0 
     /tmp/ccpuD3Pj.s:808    .text:000000000000030c .L0 
     /tmp/ccpuD3Pj.s:814    .text:000000000000030c _ZN6Thread4joinEv
     /tmp/ccpuD3Pj.s:817    .text:000000000000030c .L0 
     /tmp/ccpuD3Pj.s:819    .text:000000000000030c .L0 
     /tmp/ccpuD3Pj.s:820    .text:0000000000000310 .L0 
     /tmp/ccpuD3Pj.s:823    .text:0000000000000318 .L0 
     /tmp/ccpuD3Pj.s:824    .text:0000000000000318 .L0 
     /tmp/ccpuD3Pj.s:826    .text:000000000000031c .L0 
     /tmp/ccpuD3Pj.s:828    .text:000000000000031c .L0 
     /tmp/ccpuD3Pj.s:829    .text:000000000000031c .L0 
     /tmp/ccpuD3Pj.s:834    .text:0000000000000328 .L0 
     /tmp/ccpuD3Pj.s:835    .text:000000000000032c .L0 
     /tmp/ccpuD3Pj.s:837    .text:0000000000000330 .L0 
     /tmp/ccpuD3Pj.s:838    .text:0000000000000330 .L0 
     /tmp/ccpuD3Pj.s:840    .text:0000000000000334 .L0 
     /tmp/ccpuD3Pj.s:842    .text:0000000000000338 .L0 
     /tmp/ccpuD3Pj.s:848    .text:0000000000000338 _ZN6Thread8dispatchEv
     /tmp/ccpuD3Pj.s:851    .text:0000000000000338 .L0 
     /tmp/ccpuD3Pj.s:852    .text:0000000000000338 .L0 
     /tmp/ccpuD3Pj.s:853    .text:000000000000033c .L0 
     /tmp/ccpuD3Pj.s:856    .text:0000000000000344 .L0 
     /tmp/ccpuD3Pj.s:857    .text:0000000000000344 .L0 
     /tmp/ccpuD3Pj.s:859    .text:0000000000000348 .L0 
     /tmp/ccpuD3Pj.s:861    .text:0000000000000348 .L0 
     /tmp/ccpuD3Pj.s:862    .text:0000000000000348 .L0 
     /tmp/ccpuD3Pj.s:865    .text:0000000000000350 .L0 
     /tmp/ccpuD3Pj.s:866    .text:0000000000000354 .L0 
     /tmp/ccpuD3Pj.s:868    .text:0000000000000358 .L0 
     /tmp/ccpuD3Pj.s:869    .text:0000000000000358 .L0 
     /tmp/ccpuD3Pj.s:871    .text:000000000000035c .L0 
     /tmp/ccpuD3Pj.s:873    .text:0000000000000360 .L0 
     /tmp/ccpuD3Pj.s:879    .text:0000000000000360 _ZN6Thread5sleepEm
     /tmp/ccpuD3Pj.s:882    .text:0000000000000360 .L0 
     /tmp/ccpuD3Pj.s:884    .text:0000000000000360 .L0 
GAS LISTING /tmp/ccpuD3Pj.s 			page 39


     /tmp/ccpuD3Pj.s:885    .text:0000000000000364 .L0 
     /tmp/ccpuD3Pj.s:888    .text:000000000000036c .L0 
     /tmp/ccpuD3Pj.s:889    .text:000000000000036c .L0 
     /tmp/ccpuD3Pj.s:891    .text:0000000000000370 .L0 
     /tmp/ccpuD3Pj.s:894    .text:0000000000000374 .L0 
     /tmp/ccpuD3Pj.s:895    .text:0000000000000374 .L0 
     /tmp/ccpuD3Pj.s:901    .text:0000000000000388 .L0 
     /tmp/ccpuD3Pj.s:902    .text:0000000000000388 .L0 
     /tmp/ccpuD3Pj.s:904    .text:0000000000000390 .L0 
     /tmp/ccpuD3Pj.s:906    .text:0000000000000394 .L0 
     /tmp/ccpuD3Pj.s:907    .text:0000000000000394 .L0 
     /tmp/ccpuD3Pj.s:909    .text:0000000000000398 .L0 
     /tmp/ccpuD3Pj.s:911    .text:000000000000039c .L0 
     /tmp/ccpuD3Pj.s:917    .text:000000000000039c _ZN14PeriodicThread15periodicWrapperEPv
     /tmp/ccpuD3Pj.s:920    .text:000000000000039c .L0 
     /tmp/ccpuD3Pj.s:922    .text:000000000000039c .L0 
     /tmp/ccpuD3Pj.s:923    .text:00000000000003a0 .L0 
     /tmp/ccpuD3Pj.s:927    .text:00000000000003ac .L0 
     /tmp/ccpuD3Pj.s:928    .text:00000000000003ac .L0 
     /tmp/ccpuD3Pj.s:929    .text:00000000000003ac .L0 
     /tmp/ccpuD3Pj.s:931    .text:00000000000003b0 .L0 
     /tmp/ccpuD3Pj.s:935    .text:00000000000003b4 .L0 
     /tmp/ccpuD3Pj.s:940    .text:00000000000003b8 .L0 
     /tmp/ccpuD3Pj.s:941    .text:00000000000003b8 .L0 
     /tmp/ccpuD3Pj.s:942    .text:00000000000003b8 .L0 
     /tmp/ccpuD3Pj.s:945    .text:00000000000003c0 .L0 
     /tmp/ccpuD3Pj.s:949    .text:00000000000003c8 .L0 
     /tmp/ccpuD3Pj.s:950    .text:00000000000003c8 .L0 
     /tmp/ccpuD3Pj.s:954    .text:00000000000003d4 .L0 
     /tmp/ccpuD3Pj.s:959    .text:00000000000003d8 .L0 
     /tmp/ccpuD3Pj.s:960    .text:00000000000003dc .L0 
     /tmp/ccpuD3Pj.s:962    .text:00000000000003e0 .L0 
     /tmp/ccpuD3Pj.s:963    .text:00000000000003e0 .L0 
     /tmp/ccpuD3Pj.s:965    .text:00000000000003e4 .L0 
     /tmp/ccpuD3Pj.s:968    .text:00000000000003e8 .L0 
     /tmp/ccpuD3Pj.s:970    .text:00000000000003ec .L0 
     /tmp/ccpuD3Pj.s:976    .text:00000000000003ec _ZN6ThreadC2Ev
     /tmp/ccpuD3Pj.s:979    .text:00000000000003ec .L0 
     /tmp/ccpuD3Pj.s:981    .text:00000000000003ec .L0 
     /tmp/ccpuD3Pj.s:982    .text:00000000000003f0 .L0 
     /tmp/ccpuD3Pj.s:986    .text:00000000000003fc .L0 
     /tmp/ccpuD3Pj.s:987    .text:00000000000003fc .L0 
     /tmp/ccpuD3Pj.s:988    .text:00000000000003fc .L0 
     /tmp/ccpuD3Pj.s:990    .text:0000000000000400 .L0 
     /tmp/ccpuD3Pj.s:994    .text:0000000000000404 .L0 
     /tmp/ccpuD3Pj.s:998    .text:0000000000000410 .L0 
     /tmp/ccpuD3Pj.s:999    .text:0000000000000410 .L0 
     /tmp/ccpuD3Pj.s:1002   .text:000000000000041c .L0 
     /tmp/ccpuD3Pj.s:1003   .text:000000000000041c .L0 
     /tmp/ccpuD3Pj.s:1006   .text:0000000000000420 .L0 
     /tmp/ccpuD3Pj.s:1007   .text:0000000000000420 .L0 
     /tmp/ccpuD3Pj.s:1008   .text:0000000000000420 .L0 
     /tmp/ccpuD3Pj.s:1009   .text:0000000000000420 .L0 
     /tmp/ccpuD3Pj.s:1016   .text:0000000000000430 .L0 
 src/syscall_cpp.cpp:99     .text:0000000000000430 .L0 
     /tmp/ccpuD3Pj.s:1022   .text:0000000000000434 .L0 
     /tmp/ccpuD3Pj.s:1024   .text:0000000000000434 .L0 
GAS LISTING /tmp/ccpuD3Pj.s 			page 40


 src/syscall_cpp.cpp:100    .text:0000000000000438 .L0 
     /tmp/ccpuD3Pj.s:1032   .text:000000000000043c .L0 
     /tmp/ccpuD3Pj.s:1034   .text:000000000000043c .L0 
 src/syscall_cpp.cpp:102    .text:0000000000000440 .L0 
     /tmp/ccpuD3Pj.s:1041   .text:0000000000000444 .L0 
     /tmp/ccpuD3Pj.s:1043   .text:0000000000000444 .L0 
 src/syscall_cpp.cpp:103    .text:0000000000000448 .L0 
     /tmp/ccpuD3Pj.s:1051   .text:000000000000044c .L0 
 src/syscall_cpp.cpp:104    .text:000000000000044c .L0 
     /tmp/ccpuD3Pj.s:1056   .text:0000000000000450 .L0 
 src/syscall_cpp.cpp:111    .text:0000000000000450 .L0 
     /tmp/ccpuD3Pj.s:1064   .text:0000000000000454 .L0 
     /tmp/ccpuD3Pj.s:1065   .text:0000000000000458 .L0 
     /tmp/ccpuD3Pj.s:1067   .text:000000000000045c .L0 
     /tmp/ccpuD3Pj.s:1068   .text:000000000000045c .L0 
     /tmp/ccpuD3Pj.s:1070   .text:0000000000000460 .L0 
     /tmp/ccpuD3Pj.s:1073   .text:0000000000000464 .L0 
     /tmp/ccpuD3Pj.s:1075   .text:0000000000000468 .L0 
     /tmp/ccpuD3Pj.s:976    .text:00000000000003ec _ZN6ThreadC1Ev
     /tmp/ccpuD3Pj.s:1083   .text:0000000000000468 _ZN9SemaphoreC2Ej
     /tmp/ccpuD3Pj.s:1086   .text:0000000000000468 .L0 
     /tmp/ccpuD3Pj.s:1088   .text:0000000000000468 .L0 
     /tmp/ccpuD3Pj.s:1089   .text:000000000000046c .L0 
     /tmp/ccpuD3Pj.s:1092   .text:0000000000000474 .L0 
     /tmp/ccpuD3Pj.s:1093   .text:0000000000000474 .L0 
     /tmp/ccpuD3Pj.s:1095   .text:0000000000000478 .L0 
     /tmp/ccpuD3Pj.s:1098   .text:0000000000000478 .L0 
     /tmp/ccpuD3Pj.s:1101   .text:0000000000000484 .L0 
     /tmp/ccpuD3Pj.s:1102   .text:0000000000000484 .L0 
     /tmp/ccpuD3Pj.s:1108   .text:0000000000000490 .L0 
     /tmp/ccpuD3Pj.s:1109   .text:0000000000000494 .L0 
     /tmp/ccpuD3Pj.s:1111   .text:0000000000000498 .L0 
     /tmp/ccpuD3Pj.s:1112   .text:0000000000000498 .L0 
     /tmp/ccpuD3Pj.s:1114   .text:000000000000049c .L0 
     /tmp/ccpuD3Pj.s:1116   .text:00000000000004a0 .L0 
     /tmp/ccpuD3Pj.s:1083   .text:0000000000000468 _ZN9SemaphoreC1Ej
     /tmp/ccpuD3Pj.s:1124   .text:00000000000004a0 _ZN9Semaphore4waitEv
     /tmp/ccpuD3Pj.s:1127   .text:00000000000004a0 .L0 
     /tmp/ccpuD3Pj.s:1129   .text:00000000000004a0 .L0 
     /tmp/ccpuD3Pj.s:1130   .text:00000000000004a4 .L0 
     /tmp/ccpuD3Pj.s:1133   .text:00000000000004ac .L0 
     /tmp/ccpuD3Pj.s:1134   .text:00000000000004ac .L0 
     /tmp/ccpuD3Pj.s:1136   .text:00000000000004b0 .L0 
     /tmp/ccpuD3Pj.s:1138   .text:00000000000004b0 .L0 
     /tmp/ccpuD3Pj.s:1139   .text:00000000000004b0 .L0 
     /tmp/ccpuD3Pj.s:1144   .text:00000000000004bc .L0 
     /tmp/ccpuD3Pj.s:1145   .text:00000000000004c0 .L0 
     /tmp/ccpuD3Pj.s:1147   .text:00000000000004c4 .L0 
     /tmp/ccpuD3Pj.s:1148   .text:00000000000004c4 .L0 
     /tmp/ccpuD3Pj.s:1150   .text:00000000000004c8 .L0 
     /tmp/ccpuD3Pj.s:1152   .text:00000000000004cc .L0 
     /tmp/ccpuD3Pj.s:1158   .text:00000000000004cc _ZN9Semaphore6signalEv
     /tmp/ccpuD3Pj.s:1161   .text:00000000000004cc .L0 
     /tmp/ccpuD3Pj.s:1163   .text:00000000000004cc .L0 
     /tmp/ccpuD3Pj.s:1164   .text:00000000000004d0 .L0 
     /tmp/ccpuD3Pj.s:1167   .text:00000000000004d8 .L0 
     /tmp/ccpuD3Pj.s:1168   .text:00000000000004d8 .L0 
GAS LISTING /tmp/ccpuD3Pj.s 			page 41


     /tmp/ccpuD3Pj.s:1170   .text:00000000000004dc .L0 
     /tmp/ccpuD3Pj.s:1172   .text:00000000000004dc .L0 
     /tmp/ccpuD3Pj.s:1173   .text:00000000000004dc .L0 
     /tmp/ccpuD3Pj.s:1178   .text:00000000000004e8 .L0 
     /tmp/ccpuD3Pj.s:1179   .text:00000000000004ec .L0 
     /tmp/ccpuD3Pj.s:1181   .text:00000000000004f0 .L0 
     /tmp/ccpuD3Pj.s:1182   .text:00000000000004f0 .L0 
     /tmp/ccpuD3Pj.s:1184   .text:00000000000004f4 .L0 
     /tmp/ccpuD3Pj.s:1186   .text:00000000000004f8 .L0 
     /tmp/ccpuD3Pj.s:1192   .text:00000000000004f8 _ZN14PeriodicThread9terminateEv
     /tmp/ccpuD3Pj.s:1195   .text:00000000000004f8 .L0 
     /tmp/ccpuD3Pj.s:1197   .text:00000000000004f8 .L0 
     /tmp/ccpuD3Pj.s:1198   .text:00000000000004fc .L0 
     /tmp/ccpuD3Pj.s:1200   .text:0000000000000500 .L0 
     /tmp/ccpuD3Pj.s:1202   .text:0000000000000504 .L0 
     /tmp/ccpuD3Pj.s:1204   .text:0000000000000504 .L0 
     /tmp/ccpuD3Pj.s:1205   .text:0000000000000508 .L0 
     /tmp/ccpuD3Pj.s:1206   .text:0000000000000508 .L0 
     /tmp/ccpuD3Pj.s:1208   .text:000000000000050c .L0 
     /tmp/ccpuD3Pj.s:1210   .text:0000000000000510 .L0 
     /tmp/ccpuD3Pj.s:1216   .text:0000000000000510 _ZN14PeriodicThreadC2Em
     /tmp/ccpuD3Pj.s:1219   .text:0000000000000510 .L0 
     /tmp/ccpuD3Pj.s:1221   .text:0000000000000510 .L0 
     /tmp/ccpuD3Pj.s:1222   .text:0000000000000514 .L0 
     /tmp/ccpuD3Pj.s:1227   .text:0000000000000524 .L0 
     /tmp/ccpuD3Pj.s:1228   .text:0000000000000524 .L0 
     /tmp/ccpuD3Pj.s:1229   .text:0000000000000524 .L0 
     /tmp/ccpuD3Pj.s:1230   .text:0000000000000524 .L0 
     /tmp/ccpuD3Pj.s:1232   .text:0000000000000528 .L0 
     /tmp/ccpuD3Pj.s:1237   .text:0000000000000530 .L0 
     /tmp/ccpuD3Pj.s:1247   .text:0000000000000554 .L0 
     /tmp/ccpuD3Pj.s:1248   .text:0000000000000558 .L0 
     /tmp/ccpuD3Pj.s:1250   .text:000000000000055c .L0 
     /tmp/ccpuD3Pj.s:1251   .text:000000000000055c .L0 
     /tmp/ccpuD3Pj.s:1253   .text:0000000000000560 .L0 
     /tmp/ccpuD3Pj.s:1256   .text:0000000000000564 .L0 
     /tmp/ccpuD3Pj.s:1259   .text:0000000000000568 .L0 
     /tmp/ccpuD3Pj.s:1261   .text:000000000000056c .L0 
     /tmp/ccpuD3Pj.s:1216   .text:0000000000000510 _ZN14PeriodicThreadC1Em
     /tmp/ccpuD3Pj.s:1269   .text:000000000000056c _ZN7Console4getcEv
     /tmp/ccpuD3Pj.s:1272   .text:000000000000056c .L0 
     /tmp/ccpuD3Pj.s:1273   .text:000000000000056c .L0 
     /tmp/ccpuD3Pj.s:1274   .text:0000000000000570 .L0 
     /tmp/ccpuD3Pj.s:1277   .text:0000000000000578 .L0 
     /tmp/ccpuD3Pj.s:1278   .text:0000000000000578 .L0 
     /tmp/ccpuD3Pj.s:1280   .text:000000000000057c .L0 
     /tmp/ccpuD3Pj.s:1282   .text:000000000000057c .L0 
     /tmp/ccpuD3Pj.s:1283   .text:000000000000057c .L0 
     /tmp/ccpuD3Pj.s:1286   .text:0000000000000584 .L0 
     /tmp/ccpuD3Pj.s:1287   .text:0000000000000588 .L0 
     /tmp/ccpuD3Pj.s:1289   .text:000000000000058c .L0 
     /tmp/ccpuD3Pj.s:1290   .text:000000000000058c .L0 
     /tmp/ccpuD3Pj.s:1292   .text:0000000000000590 .L0 
     /tmp/ccpuD3Pj.s:1294   .text:0000000000000594 .L0 
     /tmp/ccpuD3Pj.s:1300   .text:0000000000000594 _ZN7Console4putcEc
     /tmp/ccpuD3Pj.s:1303   .text:0000000000000594 .L0 
     /tmp/ccpuD3Pj.s:1305   .text:0000000000000594 .L0 
GAS LISTING /tmp/ccpuD3Pj.s 			page 42


     /tmp/ccpuD3Pj.s:1306   .text:0000000000000598 .L0 
     /tmp/ccpuD3Pj.s:1309   .text:00000000000005a0 .L0 
     /tmp/ccpuD3Pj.s:1310   .text:00000000000005a0 .L0 
     /tmp/ccpuD3Pj.s:1312   .text:00000000000005a4 .L0 
     /tmp/ccpuD3Pj.s:1314   .text:00000000000005a4 .L0 
     /tmp/ccpuD3Pj.s:1315   .text:00000000000005a4 .L0 
     /tmp/ccpuD3Pj.s:1318   .text:00000000000005ac .L0 
     /tmp/ccpuD3Pj.s:1319   .text:00000000000005b0 .L0 
     /tmp/ccpuD3Pj.s:1321   .text:00000000000005b4 .L0 
     /tmp/ccpuD3Pj.s:1322   .text:00000000000005b4 .L0 
     /tmp/ccpuD3Pj.s:1324   .text:00000000000005b8 .L0 
     /tmp/ccpuD3Pj.s:1326   .text:00000000000005bc .L0 
     /tmp/ccpuD3Pj.s:32     .text._ZN6Thread3runEv:0000000000000018 .L0 
     /tmp/ccpuD3Pj.s:57     .text._ZN14PeriodicThread18periodicActivationEv:0000000000000018 .L0 
     /tmp/ccpuD3Pj.s:1369   .text:00000000000005bc .L0 
     /tmp/ccpuD3Pj.s:248    .text._ZN14PeriodicThreadD2Ev:0000000000000034 .L0 
     /tmp/ccpuD3Pj.s:549    .text._ZN14PeriodicThreadD0Ev:000000000000004c .L0 
     /tmp/ccpuD3Pj.s:123    .text:000000000000004c .L0 
     /tmp/ccpuD3Pj.s:272    .text:00000000000000c4 .L0 
     /tmp/ccpuD3Pj.s:657    .text:000000000000026c .L0 
     /tmp/ccpuD3Pj.s:895    .text:0000000000000374 .L0 
     /tmp/ccpuD3Pj.s:994    .text:0000000000000404 .L0 
     /tmp/ccpuD3Pj.s:999    .text:0000000000000410 .L0 
     /tmp/ccpuD3Pj.s:1098   .text:0000000000000478 .L0 
     /tmp/ccpuD3Pj.s:1238   .text:0000000000000534 .L0 
     /tmp/ccpuD3Pj.s:1242   .text:0000000000000544 .L0 
     /tmp/ccpuD3Pj.s:95     .text:0000000000000030 .L8
     /tmp/ccpuD3Pj.s:185    .text:0000000000000098 .L11
     /tmp/ccpuD3Pj.s:174    .text:000000000000008c .L13
     /tmp/ccpuD3Pj.s:137    .text:000000000000006c .L14
     /tmp/ccpuD3Pj.s:333    .text:0000000000000110 .L19
     /tmp/ccpuD3Pj.s:322    .text:0000000000000104 .L21
     /tmp/ccpuD3Pj.s:286    .text:00000000000000e4 .L22
     /tmp/ccpuD3Pj.s:738    .text:00000000000002cc .L41
     /tmp/ccpuD3Pj.s:678    .text:0000000000000294 .L40
     /tmp/ccpuD3Pj.s:802    .text:0000000000000304 .L45
     /tmp/ccpuD3Pj.s:792    .text:00000000000002f8 .L44
     /tmp/ccpuD3Pj.s:955    .text:00000000000003d8 .L53
     /tmp/ccpuD3Pj.s:937    .text:00000000000003b8 .L55
     /tmp/ccpuD3Pj.s:230    .text._ZN14PeriodicThreadD2Ev:0000000000000010 .L0 
     /tmp/ccpuD3Pj.s:526    .text._ZN14PeriodicThreadD0Ev:0000000000000018 .L0 
     /tmp/ccpuD3Pj.s:3895   .debug_abbrev:0000000000000000 .Ldebug_abbrev0
     /tmp/ccpuD3Pj.s:6311   .debug_str:0000000000000a38 .LASF213
     /tmp/ccpuD3Pj.s:6127   .debug_str:000000000000050a .LASF214
     /tmp/ccpuD3Pj.s:6251   .debug_str:000000000000089d .LASF215
     /tmp/ccpuD3Pj.s:5939   .debug_ranges:0000000000000000 .Ldebug_ranges0
     /tmp/ccpuD3Pj.s:5959   .debug_line:0000000000000000 .Ldebug_line0
     /tmp/ccpuD3Pj.s:6221   .debug_str:00000000000007d3 .LASF3
     /tmp/ccpuD3Pj.s:6119   .debug_str:00000000000004e1 .LASF0
     /tmp/ccpuD3Pj.s:6145   .debug_str:0000000000000591 .LASF1
     /tmp/ccpuD3Pj.s:6235   .debug_str:000000000000083f .LASF2
     /tmp/ccpuD3Pj.s:6247   .debug_str:0000000000000891 .LASF4
     /tmp/ccpuD3Pj.s:6129   .debug_str:000000000000051e .LASF5
     /tmp/ccpuD3Pj.s:5977   .debug_str:0000000000000092 .LASF6
     /tmp/ccpuD3Pj.s:6205   .debug_str:000000000000074e .LASF7
     /tmp/ccpuD3Pj.s:6201   .debug_str:0000000000000723 .LASF8
     /tmp/ccpuD3Pj.s:6137   .debug_str:0000000000000561 .LASF9
GAS LISTING /tmp/ccpuD3Pj.s 			page 43


     /tmp/ccpuD3Pj.s:6087   .debug_str:00000000000003e4 .LASF10
     /tmp/ccpuD3Pj.s:6099   .debug_str:0000000000000460 .LASF11
     /tmp/ccpuD3Pj.s:6023   .debug_str:0000000000000202 .LASF12
     /tmp/ccpuD3Pj.s:6079   .debug_str:00000000000003ae .LASF13
     /tmp/ccpuD3Pj.s:6039   .debug_str:0000000000000286 .LASF14
     /tmp/ccpuD3Pj.s:6021   .debug_str:00000000000001f2 .LASF15
     /tmp/ccpuD3Pj.s:6275   .debug_str:000000000000095c .LASF16
     /tmp/ccpuD3Pj.s:6069   .debug_str:0000000000000342 .LASF17
     /tmp/ccpuD3Pj.s:6263   .debug_str:0000000000000908 .LASF18
     /tmp/ccpuD3Pj.s:6355   .debug_str:0000000000000c13 .LASF19
     /tmp/ccpuD3Pj.s:6285   .debug_str:00000000000009a2 .LASF97
     /tmp/ccpuD3Pj.s:6273   .debug_str:000000000000094f .LASF20
     /tmp/ccpuD3Pj.s:6365   .debug_str:0000000000000c62 .LASF22
     /tmp/ccpuD3Pj.s:6193   .debug_str:00000000000006d4 .LASF216
     /tmp/ccpuD3Pj.s:6383   .debug_str:0000000000000cfe .LASF34
     /tmp/ccpuD3Pj.s:6131   .debug_str:0000000000000530 .LASF36
     /tmp/ccpuD3Pj.s:6287   .debug_str:00000000000009aa .LASF24
     /tmp/ccpuD3Pj.s:6281   .debug_str:0000000000000985 .LASF26
     /tmp/ccpuD3Pj.s:6007   .debug_str:0000000000000184 .LASF21
     /tmp/ccpuD3Pj.s:6329   .debug_str:0000000000000b6a .LASF23
     /tmp/ccpuD3Pj.s:6239   .debug_str:000000000000085c .LASF25
     /tmp/ccpuD3Pj.s:6279   .debug_str:0000000000000971 .LASF27
     /tmp/ccpuD3Pj.s:6291   .debug_str:00000000000009c2 .LASF28
     /tmp/ccpuD3Pj.s:6075   .debug_str:000000000000037f .LASF29
     /tmp/ccpuD3Pj.s:6153   .debug_str:00000000000005c5 .LASF30
     /tmp/ccpuD3Pj.s:6217   .debug_str:00000000000007ab .LASF31
     /tmp/ccpuD3Pj.s:6055   .debug_str:00000000000002fc .LASF32
     /tmp/ccpuD3Pj.s:6243   .debug_str:000000000000086b .LASF33
     /tmp/ccpuD3Pj.s:6335   .debug_str:0000000000000bab .LASF35
     /tmp/ccpuD3Pj.s:6081   .debug_str:00000000000003bd .LASF37
     /tmp/ccpuD3Pj.s:6357   .debug_str:0000000000000c1c .LASF38
     /tmp/ccpuD3Pj.s:6077   .debug_str:0000000000000395 .LASF40
     /tmp/ccpuD3Pj.s:6149   .debug_str:00000000000005ac .LASF39
     /tmp/ccpuD3Pj.s:6315   .debug_str:0000000000000b0f .LASF41
     /tmp/ccpuD3Pj.s:6057   .debug_str:0000000000000309 .LASF42
     /tmp/ccpuD3Pj.s:6033   .debug_str:000000000000024c .LASF43
     /tmp/ccpuD3Pj.s:6351   .debug_str:0000000000000c02 .LASF44
     /tmp/ccpuD3Pj.s:5985   .debug_str:00000000000000df .LASF45
     /tmp/ccpuD3Pj.s:6307   .debug_str:0000000000000a20 .LASF46
     /tmp/ccpuD3Pj.s:6015   .debug_str:00000000000001c5 .LASF47
     /tmp/ccpuD3Pj.s:6397   .debug_str:0000000000000d60 .LASF48
     /tmp/ccpuD3Pj.s:6095   .debug_str:0000000000000441 .LASF49
     /tmp/ccpuD3Pj.s:5967   .debug_str:000000000000003c .LASF50
     /tmp/ccpuD3Pj.s:6161   .debug_str:00000000000005f8 .LASF51
     /tmp/ccpuD3Pj.s:6327   .debug_str:0000000000000b62 .LASF52
     /tmp/ccpuD3Pj.s:6019   .debug_str:00000000000001e3 .LASF53
     /tmp/ccpuD3Pj.s:6389   .debug_str:0000000000000d25 .LASF54
     /tmp/ccpuD3Pj.s:6345   .debug_str:0000000000000beb .LASF55
     /tmp/ccpuD3Pj.s:6319   .debug_str:0000000000000b36 .LASF56
     /tmp/ccpuD3Pj.s:6261   .debug_str:00000000000008ff .LASF57
     /tmp/ccpuD3Pj.s:6189   .debug_str:00000000000006c5 .LASF58
     /tmp/ccpuD3Pj.s:6107   .debug_str:000000000000048e .LASF59
     /tmp/ccpuD3Pj.s:6309   .debug_str:0000000000000a28 .LASF60
     /tmp/ccpuD3Pj.s:6197   .debug_str:00000000000006ef .LASF61
     /tmp/ccpuD3Pj.s:5963   .debug_str:000000000000002a .LASF62
     /tmp/ccpuD3Pj.s:6245   .debug_str:0000000000000883 .LASF63
     /tmp/ccpuD3Pj.s:6379   .debug_str:0000000000000cda .LASF122
GAS LISTING /tmp/ccpuD3Pj.s 			page 44


     /tmp/ccpuD3Pj.s:6047   .debug_str:00000000000002c5 .LASF90
     /tmp/ccpuD3Pj.s:5971   .debug_str:0000000000000054 .LASF92
     /tmp/ccpuD3Pj.s:6249   .debug_str:0000000000000898 .LASF85
     /tmp/ccpuD3Pj.s:5973   .debug_str:000000000000007c .LASF87
     /tmp/ccpuD3Pj.s:6375   .debug_str:0000000000000cc2 .LASF64
     /tmp/ccpuD3Pj.s:6265   .debug_str:000000000000091e .LASF65
     /tmp/ccpuD3Pj.s:6143   .debug_str:0000000000000589 .LASF66
     /tmp/ccpuD3Pj.s:6187   .debug_str:00000000000006b2 .LASF67
     /tmp/ccpuD3Pj.s:6059   .debug_str:0000000000000312 .LASF68
     /tmp/ccpuD3Pj.s:6063   .debug_str:000000000000031d .LASF69
     /tmp/ccpuD3Pj.s:6283   .debug_str:000000000000099b .LASF70
     /tmp/ccpuD3Pj.s:6001   .debug_str:0000000000000166 .LASF71
     /tmp/ccpuD3Pj.s:6369   .debug_str:0000000000000c97 .LASF72
     /tmp/ccpuD3Pj.s:6179   .debug_str:0000000000000674 .LASF73
     /tmp/ccpuD3Pj.s:6065   .debug_str:000000000000032d .LASF74
     /tmp/ccpuD3Pj.s:6341   .debug_str:0000000000000bd7 .LASF75
     /tmp/ccpuD3Pj.s:6117   .debug_str:00000000000004db .LASF76
     /tmp/ccpuD3Pj.s:6303   .debug_str:00000000000009f9 .LASF77
     /tmp/ccpuD3Pj.s:5969   .debug_str:000000000000004c .LASF78
     /tmp/ccpuD3Pj.s:5981   .debug_str:00000000000000b0 .LASF79
     /tmp/ccpuD3Pj.s:6363   .debug_str:0000000000000c55 .LASF80
     /tmp/ccpuD3Pj.s:6333   .debug_str:0000000000000b9b .LASF81
     /tmp/ccpuD3Pj.s:6051   .debug_str:00000000000002ed .LASF82
     /tmp/ccpuD3Pj.s:6139   .debug_str:0000000000000574 .LASF83
     /tmp/ccpuD3Pj.s:6349   .debug_str:0000000000000bfa .LASF84
     /tmp/ccpuD3Pj.s:6061   .debug_str:0000000000000317 .LASF86
     /tmp/ccpuD3Pj.s:6325   .debug_str:0000000000000b55 .LASF88
     /tmp/ccpuD3Pj.s:6165   .debug_str:000000000000061d .LASF89
     /tmp/ccpuD3Pj.s:6121   .debug_str:00000000000004ee .LASF124
     /tmp/ccpuD3Pj.s:6367   .debug_str:0000000000000c84 .LASF126
     /tmp/ccpuD3Pj.s:6167   .debug_str:0000000000000625 .LASF91
     /tmp/ccpuD3Pj.s:6373   .debug_str:0000000000000caf .LASF93
     /tmp/ccpuD3Pj.s:6295   .debug_str:00000000000009d3 .LASF94
     /tmp/ccpuD3Pj.s:6225   .debug_str:00000000000007f9 .LASF95
     /tmp/ccpuD3Pj.s:6181   .debug_str:000000000000068a .LASF96
     /tmp/ccpuD3Pj.s:6053   .debug_str:00000000000002f7 .LASF98
     /tmp/ccpuD3Pj.s:6323   .debug_str:0000000000000b50 .LASF99
     /tmp/ccpuD3Pj.s:6025   .debug_str:0000000000000211 .LASF100
     /tmp/ccpuD3Pj.s:6073   .debug_str:0000000000000361 .LASF101
     /tmp/ccpuD3Pj.s:6049   .debug_str:00000000000002d3 .LASF102
     /tmp/ccpuD3Pj.s:6209   .debug_str:0000000000000767 .LASF156
     /tmp/ccpuD3Pj.s:6339   .debug_str:0000000000000bd1 .LASF103
     /tmp/ccpuD3Pj.s:6141   .debug_str:0000000000000584 .LASF104
     /tmp/ccpuD3Pj.s:5991   .debug_str:000000000000010c .LASF105
     /tmp/ccpuD3Pj.s:6093   .debug_str:0000000000000429 .LASF106
     /tmp/ccpuD3Pj.s:6203   .debug_str:0000000000000736 .LASF135
     /tmp/ccpuD3Pj.s:6289   .debug_str:00000000000009b5 .LASF107
     /tmp/ccpuD3Pj.s:6043   .debug_str:00000000000002ab .LASF108
     /tmp/ccpuD3Pj.s:6123   .debug_str:00000000000004f3 .LASF109
     /tmp/ccpuD3Pj.s:5983   .debug_str:00000000000000c3 .LASF110
     /tmp/ccpuD3Pj.s:6147   .debug_str:00000000000005a4 .LASF111
     /tmp/ccpuD3Pj.s:6175   .debug_str:0000000000000650 .LASF112
     /tmp/ccpuD3Pj.s:6009   .debug_str:0000000000000190 .LASF113
     /tmp/ccpuD3Pj.s:6011   .debug_str:0000000000000199 .LASF114
     /tmp/ccpuD3Pj.s:6041   .debug_str:0000000000000296 .LASF115
     /tmp/ccpuD3Pj.s:6359   .debug_str:0000000000000c2a .LASF116
     /tmp/ccpuD3Pj.s:6085   .debug_str:00000000000003da .LASF117
GAS LISTING /tmp/ccpuD3Pj.s 			page 45


     /tmp/ccpuD3Pj.s:6269   .debug_str:0000000000000932 .LASF118
     /tmp/ccpuD3Pj.s:6177   .debug_str:000000000000066f .LASF119
     /tmp/ccpuD3Pj.s:6387   .debug_str:0000000000000d18 .LASF120
     /tmp/ccpuD3Pj.s:6377   .debug_str:0000000000000cc8 .LASF121
     /tmp/ccpuD3Pj.s:6109   .debug_str:0000000000000499 .LASF123
     /tmp/ccpuD3Pj.s:6385   .debug_str:0000000000000d04 .LASF217
     /tmp/ccpuD3Pj.s:6321   .debug_str:0000000000000b40 .LASF125
     /tmp/ccpuD3Pj.s:6223   .debug_str:00000000000007d8 .LASF127
     /tmp/ccpuD3Pj.s:5999   .debug_str:000000000000015b .LASF128
     /tmp/ccpuD3Pj.s:5993   .debug_str:0000000000000121 .LASF129
     /tmp/ccpuD3Pj.s:6159   .debug_str:00000000000005f3 .LASF130
     /tmp/ccpuD3Pj.s:6037   .debug_str:0000000000000271 .LASF131
     /tmp/ccpuD3Pj.s:6347   .debug_str:0000000000000bf0 .LASF132
     /tmp/ccpuD3Pj.s:6257   .debug_str:00000000000008e2 .LASF141
     /tmp/ccpuD3Pj.s:6391   .debug_str:0000000000000d2b .LASF143
     /tmp/ccpuD3Pj.s:6299   .debug_str:00000000000009e2 .LASF133
     /tmp/ccpuD3Pj.s:6213   .debug_str:0000000000000796 .LASF134
     /tmp/ccpuD3Pj.s:6253   .debug_str:00000000000008bb .LASF136
     /tmp/ccpuD3Pj.s:6029   .debug_str:0000000000000228 .LASF137
     /tmp/ccpuD3Pj.s:5979   .debug_str:0000000000000099 .LASF138
     /tmp/ccpuD3Pj.s:6071   .debug_str:0000000000000358 .LASF139
     /tmp/ccpuD3Pj.s:6115   .debug_str:00000000000004cb .LASF218
     /tmp/ccpuD3Pj.s:6105   .debug_str:0000000000000487 .LASF140
     /tmp/ccpuD3Pj.s:6035   .debug_str:000000000000025f .LASF142
     /tmp/ccpuD3Pj.s:6229   .debug_str:0000000000000813 .LASF144
     /tmp/ccpuD3Pj.s:6401   .debug_str:0000000000000d76 .LASF145
     /tmp/ccpuD3Pj.s:6259   .debug_str:00000000000008f7 .LASF146
     /tmp/ccpuD3Pj.s:6267   .debug_str:0000000000000923 .LASF147
     /tmp/ccpuD3Pj.s:6151   .debug_str:00000000000005b2 .LASF148
     /tmp/ccpuD3Pj.s:6301   .debug_str:00000000000009f4 .LASF149
     /tmp/ccpuD3Pj.s:6207   .debug_str:0000000000000755 .LASF150
     /tmp/ccpuD3Pj.s:6195   .debug_str:00000000000006d9 .LASF151
     /tmp/ccpuD3Pj.s:5995   .debug_str:0000000000000142 .LASF152
     /tmp/ccpuD3Pj.s:6313   .debug_str:0000000000000afc .LASF153
     /tmp/ccpuD3Pj.s:6125   .debug_str:00000000000004fb .LASF154
     /tmp/ccpuD3Pj.s:6113   .debug_str:00000000000004ba .LASF219
     /tmp/ccpuD3Pj.s:5965   .debug_str:0000000000000037 .LASF155
     /tmp/ccpuD3Pj.s:6305   .debug_str:0000000000000a0a .LASF157
     /tmp/ccpuD3Pj.s:6031   .debug_str:000000000000023d .LASF158
     /tmp/ccpuD3Pj.s:6331   .debug_str:0000000000000b81 .LASF159
     /tmp/ccpuD3Pj.s:6337   .debug_str:0000000000000bb6 .LASF160
     /tmp/ccpuD3Pj.s:6297   .debug_str:00000000000009d8 .LASF161
     /tmp/ccpuD3Pj.s:6091   .debug_str:0000000000000409 .LASF162
     /tmp/ccpuD3Pj.s:6135   .debug_str:0000000000000549 .LASF163
     /tmp/ccpuD3Pj.s:6097   .debug_str:000000000000044d .LASF164
     /tmp/ccpuD3Pj.s:5961   .debug_str:0000000000000000 .LASF220
     /tmp/ccpuD3Pj.s:6005   .debug_str:000000000000017d .LASF165
     /tmp/ccpuD3Pj.s:6169   .debug_str:000000000000062a .LASF166
     /tmp/ccpuD3Pj.s:6199   .debug_str:00000000000006fb .LASF167
     /tmp/ccpuD3Pj.s:6185   .debug_str:00000000000006a2 .LASF168
     /tmp/ccpuD3Pj.s:6163   .debug_str:0000000000000605 .LASF221
     /tmp/ccpuD3Pj.s:6083   .debug_str:00000000000003d5 .LASF169
     /tmp/ccpuD3Pj.s:5975   .debug_str:0000000000000088 .LASF170
     /tmp/ccpuD3Pj.s:6403   .debug_str:0000000000000d8d .LASF171
     /tmp/ccpuD3Pj.s:507    .text._ZN14PeriodicThreadD0Ev:0000000000000000 .LFB79
     /tmp/ccpuD3Pj.s:547    .text._ZN14PeriodicThreadD0Ev:000000000000004c .LFE79
     /tmp/ccpuD3Pj.s:5391   .debug_loc:0000000000000000 .LLST12
GAS LISTING /tmp/ccpuD3Pj.s 			page 46


     /tmp/ccpuD3Pj.s:523    .text._ZN14PeriodicThreadD0Ev:0000000000000018 .LBB73
     /tmp/ccpuD3Pj.s:531    .text._ZN14PeriodicThreadD0Ev:000000000000002c .LBE73
     /tmp/ccpuD3Pj.s:5409   .debug_loc:000000000000004c .LLST13
     /tmp/ccpuD3Pj.s:529    .text._ZN14PeriodicThreadD0Ev:000000000000002c .LVL37
     /tmp/ccpuD3Pj.s:534    .text._ZN14PeriodicThreadD0Ev:0000000000000038 .LVL38
     /tmp/ccpuD3Pj.s:6233   .debug_str:0000000000000827 .LASF172
     /tmp/ccpuD3Pj.s:216    .text._ZN14PeriodicThreadD2Ev:0000000000000000 .LFB77
     /tmp/ccpuD3Pj.s:244    .text._ZN14PeriodicThreadD2Ev:0000000000000034 .LFE77
     /tmp/ccpuD3Pj.s:5420   .debug_loc:0000000000000082 .LLST4
     /tmp/ccpuD3Pj.s:233    .text._ZN14PeriodicThreadD2Ev:0000000000000024 .LVL15
     /tmp/ccpuD3Pj.s:1301   .text:0000000000000594 .LFB75
     /tmp/ccpuD3Pj.s:1327   .text:00000000000005bc .LFE75
     /tmp/ccpuD3Pj.s:5434   .debug_loc:00000000000000bb .LLST32
     /tmp/ccpuD3Pj.s:1316   .text:00000000000005ac .LVL97
     /tmp/ccpuD3Pj.s:1270   .text:000000000000056c .LFB74
     /tmp/ccpuD3Pj.s:1295   .text:0000000000000594 .LFE74
     /tmp/ccpuD3Pj.s:1284   .text:0000000000000584 .LVL95
     /tmp/ccpuD3Pj.s:918    .text:000000000000039c .LFB73
     /tmp/ccpuD3Pj.s:971    .text:00000000000003ec .LFE73
     /tmp/ccpuD3Pj.s:6067   .debug_str:000000000000033a .LASF173
     /tmp/ccpuD3Pj.s:5448   .debug_loc:00000000000000f4 .LLST23
     /tmp/ccpuD3Pj.s:938    .text:00000000000003b8 .LBB80
     /tmp/ccpuD3Pj.s:956    .text:00000000000003d8 .LBE80
     /tmp/ccpuD3Pj.s:947    .text:00000000000003c8 .LVL69
     /tmp/ccpuD3Pj.s:952    .text:00000000000003d4 .LVL70
     /tmp/ccpuD3Pj.s:6271   .debug_str:0000000000000937 .LASF174
     /tmp/ccpuD3Pj.s:1217   .text:0000000000000510 .LFB71
     /tmp/ccpuD3Pj.s:1262   .text:000000000000056c .LFE71
     /tmp/ccpuD3Pj.s:5463   .debug_loc:000000000000013d .LLST30
     /tmp/ccpuD3Pj.s:5481   .debug_loc:0000000000000189 .LLST31
     /tmp/ccpuD3Pj.s:1241   .text:0000000000000544 .LVL92
     /tmp/ccpuD3Pj.s:1193   .text:00000000000004f8 .LFB69
     /tmp/ccpuD3Pj.s:1211   .text:0000000000000510 .LFE69
     /tmp/ccpuD3Pj.s:1159   .text:00000000000004cc .LFB68
     /tmp/ccpuD3Pj.s:1187   .text:00000000000004f8 .LFE68
     /tmp/ccpuD3Pj.s:5500   .debug_loc:00000000000001d6 .LLST29
     /tmp/ccpuD3Pj.s:1176   .text:00000000000004e8 .LVL88
     /tmp/ccpuD3Pj.s:1125   .text:00000000000004a0 .LFB67
     /tmp/ccpuD3Pj.s:1153   .text:00000000000004cc .LFE67
     /tmp/ccpuD3Pj.s:5514   .debug_loc:000000000000020f .LLST28
     /tmp/ccpuD3Pj.s:1142   .text:00000000000004bc .LVL85
     /tmp/ccpuD3Pj.s:6155   .debug_str:00000000000005d2 .LASF175
     /tmp/ccpuD3Pj.s:554    .text:00000000000001dc .LFB66
     /tmp/ccpuD3Pj.s:587    .text:000000000000021c .LFE66
     /tmp/ccpuD3Pj.s:5528   .debug_loc:0000000000000248 .LLST14
     /tmp/ccpuD3Pj.s:571    .text:00000000000001fc .LVL41
     /tmp/ccpuD3Pj.s:574    .text:0000000000000208 .LVL42
     /tmp/ccpuD3Pj.s:5987   .debug_str:00000000000000f1 .LASF176
     /tmp/ccpuD3Pj.s:253    .text:00000000000000ac .LFB64
     /tmp/ccpuD3Pj.s:347    .text:0000000000000124 .LFE64
     /tmp/ccpuD3Pj.s:5546   .debug_loc:0000000000000294 .LLST5
     /tmp/ccpuD3Pj.s:287    .text:00000000000000e4 .LBB65
     /tmp/ccpuD3Pj.s:328    .text:0000000000000104 .LBE65
     /tmp/ccpuD3Pj.s:288    .text:00000000000000e4 .LBB66
     /tmp/ccpuD3Pj.s:327    .text:0000000000000104 .LBE66
     /tmp/ccpuD3Pj.s:293    .text:00000000000000e4 .LBB68
     /tmp/ccpuD3Pj.s:299    .text:00000000000000e8 .LBE68
GAS LISTING /tmp/ccpuD3Pj.s 			page 47


     /tmp/ccpuD3Pj.s:302    .text:00000000000000ec .LBB70
     /tmp/ccpuD3Pj.s:325    .text:0000000000000104 .LBE70
     /tmp/ccpuD3Pj.s:5564   .debug_loc:00000000000002e0 .LLST6
     /tmp/ccpuD3Pj.s:314    .text:00000000000000f8 .LBB71
     /tmp/ccpuD3Pj.s:324    .text:0000000000000104 .LBE71
     /tmp/ccpuD3Pj.s:5571   .debug_loc:0000000000000303 .LLST7
     /tmp/ccpuD3Pj.s:319    .text:0000000000000100 .LVL23
     /tmp/ccpuD3Pj.s:279    .text:00000000000000dc .LVL18
     /tmp/ccpuD3Pj.s:332    .text:0000000000000110 .LVL24
     /tmp/ccpuD3Pj.s:6017   .debug_str:00000000000001d6 .LASF183
     /tmp/ccpuD3Pj.s:6003   .debug_str:0000000000000178 .LASF177
     /tmp/ccpuD3Pj.s:6027   .debug_str:0000000000000216 .LASF178
     /tmp/ccpuD3Pj.s:1084   .text:0000000000000468 .LFB58
     /tmp/ccpuD3Pj.s:1117   .text:00000000000004a0 .LFE58
     /tmp/ccpuD3Pj.s:5578   .debug_loc:0000000000000326 .LLST26
     /tmp/ccpuD3Pj.s:5598   .debug_loc:0000000000000374 .LLST27
     /tmp/ccpuD3Pj.s:1105   .text:0000000000000490 .LVL82
     /tmp/ccpuD3Pj.s:62     .text:0000000000000000 .LFB56
     /tmp/ccpuD3Pj.s:98     .text:0000000000000034 .LFE56
     /tmp/ccpuD3Pj.s:6231   .debug_str:0000000000000820 .LASF179
     /tmp/ccpuD3Pj.s:5612   .debug_loc:00000000000003ad .LLST0
     /tmp/ccpuD3Pj.s:84     .text:0000000000000020 .LVL3
     /tmp/ccpuD3Pj.s:6237   .debug_str:000000000000084d .LASF180
     /tmp/ccpuD3Pj.s:977    .text:00000000000003ec .LFB54
     /tmp/ccpuD3Pj.s:1076   .text:0000000000000468 .LFE54
     /tmp/ccpuD3Pj.s:5630   .debug_loc:00000000000003f9 .LLST24
     /tmp/ccpuD3Pj.s:1012   .text:000000000000042c .LVL75
     /tmp/ccpuD3Pj.s:996    .text:0000000000000410 .LBB82
     /tmp/ccpuD3Pj.s:1061   .text:0000000000000454 .LBE82
     /tmp/ccpuD3Pj.s:5654   .debug_loc:000000000000045a .LLST25
     /tmp/ccpuD3Pj.s:880    .text:0000000000000360 .LFB52
     /tmp/ccpuD3Pj.s:912    .text:000000000000039c .LFE52
     /tmp/ccpuD3Pj.s:5666   .debug_loc:0000000000000491 .LLST22
     /tmp/ccpuD3Pj.s:899    .text:0000000000000388 .LVL66
     /tmp/ccpuD3Pj.s:849    .text:0000000000000338 .LFB51
     /tmp/ccpuD3Pj.s:874    .text:0000000000000360 .LFE51
     /tmp/ccpuD3Pj.s:863    .text:0000000000000350 .LVL63
     /tmp/ccpuD3Pj.s:815    .text:000000000000030c .LFB50
     /tmp/ccpuD3Pj.s:843    .text:0000000000000338 .LFE50
     /tmp/ccpuD3Pj.s:5684   .debug_loc:00000000000004dd .LLST21
     /tmp/ccpuD3Pj.s:832    .text:0000000000000328 .LVL62
     /tmp/ccpuD3Pj.s:756    .text:00000000000002d4 .LFB49
     /tmp/ccpuD3Pj.s:809    .text:000000000000030c .LFE49
     /tmp/ccpuD3Pj.s:5698   .debug_loc:0000000000000516 .LLST20
     /tmp/ccpuD3Pj.s:6157   .debug_str:00000000000005e4 .LASF181
     /tmp/ccpuD3Pj.s:467    .text:000000000000019c .LFB48
     /tmp/ccpuD3Pj.s:500    .text:00000000000001dc .LFE48
     /tmp/ccpuD3Pj.s:5723   .debug_loc:0000000000000578 .LLST11
     /tmp/ccpuD3Pj.s:484    .text:00000000000001bc .LVL32
     /tmp/ccpuD3Pj.s:487    .text:00000000000001c8 .LVL33
     /tmp/ccpuD3Pj.s:6371   .debug_str:0000000000000ca0 .LASF182
     /tmp/ccpuD3Pj.s:104    .text:0000000000000034 .LFB46
     /tmp/ccpuD3Pj.s:199    .text:00000000000000ac .LFE46
     /tmp/ccpuD3Pj.s:5741   .debug_loc:00000000000005c4 .LLST1
     /tmp/ccpuD3Pj.s:138    .text:000000000000006c .LBB55
     /tmp/ccpuD3Pj.s:180    .text:000000000000008c .LBE55
     /tmp/ccpuD3Pj.s:139    .text:000000000000006c .LBB56
GAS LISTING /tmp/ccpuD3Pj.s 			page 48


     /tmp/ccpuD3Pj.s:179    .text:000000000000008c .LBE56
     /tmp/ccpuD3Pj.s:145    .text:000000000000006c .LBB58
     /tmp/ccpuD3Pj.s:151    .text:0000000000000070 .LBE58
     /tmp/ccpuD3Pj.s:154    .text:0000000000000074 .LBB60
     /tmp/ccpuD3Pj.s:177    .text:000000000000008c .LBE60
     /tmp/ccpuD3Pj.s:5759   .debug_loc:0000000000000610 .LLST2
     /tmp/ccpuD3Pj.s:166    .text:0000000000000080 .LBB61
     /tmp/ccpuD3Pj.s:176    .text:000000000000008c .LBE61
     /tmp/ccpuD3Pj.s:5766   .debug_loc:0000000000000633 .LLST3
     /tmp/ccpuD3Pj.s:171    .text:0000000000000088 .LVL12
     /tmp/ccpuD3Pj.s:130    .text:0000000000000064 .LVL7
     /tmp/ccpuD3Pj.s:184    .text:0000000000000098 .LVL13
     /tmp/ccpuD3Pj.s:6173   .debug_str:0000000000000644 .LASF184
     /tmp/ccpuD3Pj.s:6317   .debug_str:0000000000000b1f .LASF185
     /tmp/ccpuD3Pj.s:634    .text:0000000000000244 .LFB40
     /tmp/ccpuD3Pj.s:748    .text:00000000000002d4 .LFE40
     /tmp/ccpuD3Pj.s:5773   .debug_loc:0000000000000656 .LLST16
     /tmp/ccpuD3Pj.s:5801   .debug_loc:00000000000006ca .LLST17
     /tmp/ccpuD3Pj.s:5823   .debug_loc:0000000000000729 .LLST18
     /tmp/ccpuD3Pj.s:675    .text:0000000000000290 .LVL49
     /tmp/ccpuD3Pj.s:5845   .debug_loc:0000000000000788 .LLST19
     /tmp/ccpuD3Pj.s:6393   .debug_str:0000000000000d3b .LASF186
     /tmp/ccpuD3Pj.s:6133   .debug_str:0000000000000542 .LASF187
     /tmp/ccpuD3Pj.s:593    .text:000000000000021c .LFB38
     /tmp/ccpuD3Pj.s:621    .text:0000000000000244 .LFE38
     /tmp/ccpuD3Pj.s:5862   .debug_loc:00000000000007d3 .LLST15
     /tmp/ccpuD3Pj.s:610    .text:0000000000000234 .LVL45
     /tmp/ccpuD3Pj.s:6191   .debug_str:00000000000006cd .LASF188
     /tmp/ccpuD3Pj.s:426    .text:0000000000000174 .LFB37
     /tmp/ccpuD3Pj.s:454    .text:000000000000019c .LFE37
     /tmp/ccpuD3Pj.s:5876   .debug_loc:000000000000080c .LLST10
     /tmp/ccpuD3Pj.s:443    .text:000000000000018c .LVL30
     /tmp/ccpuD3Pj.s:6013   .debug_str:00000000000001b5 .LASF189
     /tmp/ccpuD3Pj.s:6293   .debug_str:00000000000009cd .LASF190
     /tmp/ccpuD3Pj.s:394    .text:000000000000014c .LFB36
     /tmp/ccpuD3Pj.s:420    .text:0000000000000174 .LFE36
     /tmp/ccpuD3Pj.s:6045   .debug_str:00000000000002c0 .LASF191
     /tmp/ccpuD3Pj.s:5890   .debug_loc:0000000000000845 .LLST9
     /tmp/ccpuD3Pj.s:409    .text:0000000000000164 .LVL28
     /tmp/ccpuD3Pj.s:6343   .debug_str:0000000000000be5 .LASF192
     /tmp/ccpuD3Pj.s:362    .text:0000000000000124 .LFB35
     /tmp/ccpuD3Pj.s:388    .text:000000000000014c .LFE35
     /tmp/ccpuD3Pj.s:5904   .debug_loc:000000000000087e .LLST8
     /tmp/ccpuD3Pj.s:377    .text:000000000000013c .LVL26
     /tmp/ccpuD3Pj.s:6241   .debug_str:0000000000000866 .LASF193
     /tmp/ccpuD3Pj.s:6089   .debug_str:00000000000003f4 .LASF194
     /tmp/ccpuD3Pj.s:37     .text._ZN14PeriodicThread18periodicActivationEv:0000000000000000 .LFB1
     /tmp/ccpuD3Pj.s:55     .text._ZN14PeriodicThread18periodicActivationEv:0000000000000018 .LFE1
     /tmp/ccpuD3Pj.s:11     .text._ZN6Thread3runEv:0000000000000000 .LFB0
     /tmp/ccpuD3Pj.s:30     .text._ZN6Thread3runEv:0000000000000018 .LFE0
     /tmp/ccpuD3Pj.s:6277   .debug_str:0000000000000968 .LASF195
     /tmp/ccpuD3Pj.s:6353   .debug_str:0000000000000c0a .LASF196
     /tmp/ccpuD3Pj.s:6227   .debug_str:00000000000007fe .LASF197
     /tmp/ccpuD3Pj.s:6103   .debug_str:000000000000047c .LASF198
     /tmp/ccpuD3Pj.s:6395   .debug_str:0000000000000d4e .LASF199
     /tmp/ccpuD3Pj.s:6399   .debug_str:0000000000000d6d .LASF200
     /tmp/ccpuD3Pj.s:6381   .debug_str:0000000000000cf0 .LASF201
GAS LISTING /tmp/ccpuD3Pj.s 			page 49


     /tmp/ccpuD3Pj.s:6111   .debug_str:00000000000004b1 .LASF202
     /tmp/ccpuD3Pj.s:5997   .debug_str:0000000000000148 .LASF203
     /tmp/ccpuD3Pj.s:6215   .debug_str:00000000000007a1 .LASF204
     /tmp/ccpuD3Pj.s:6211   .debug_str:0000000000000782 .LASF205
     /tmp/ccpuD3Pj.s:5989   .debug_str:0000000000000103 .LASF206
     /tmp/ccpuD3Pj.s:6101   .debug_str:000000000000046e .LASF207
     /tmp/ccpuD3Pj.s:6171   .debug_str:000000000000063a .LASF208
     /tmp/ccpuD3Pj.s:6361   .debug_str:0000000000000c40 .LASF209
     /tmp/ccpuD3Pj.s:6219   .debug_str:00000000000007c3 .LASF210
     /tmp/ccpuD3Pj.s:6255   .debug_str:00000000000008cd .LASF211
     /tmp/ccpuD3Pj.s:6183   .debug_str:0000000000000696 .LASF212
     /tmp/ccpuD3Pj.s:510    .text._ZN14PeriodicThreadD0Ev:0000000000000000 .LVL35
     /tmp/ccpuD3Pj.s:542    .text._ZN14PeriodicThreadD0Ev:0000000000000044 .LVL39
     /tmp/ccpuD3Pj.s:522    .text._ZN14PeriodicThreadD0Ev:0000000000000018 .LVL36
     /tmp/ccpuD3Pj.s:219    .text._ZN14PeriodicThreadD2Ev:0000000000000000 .LVL14
     /tmp/ccpuD3Pj.s:1304   .text:0000000000000594 .LVL96
     /tmp/ccpuD3Pj.s:921    .text:000000000000039c .LVL67
     /tmp/ccpuD3Pj.s:936    .text:00000000000003b8 .LVL68
     /tmp/ccpuD3Pj.s:966    .text:00000000000003e4 .LVL71
     /tmp/ccpuD3Pj.s:1220   .text:0000000000000510 .LVL90
     /tmp/ccpuD3Pj.s:1254   .text:0000000000000560 .LVL93
     /tmp/ccpuD3Pj.s:1239   .text:000000000000053c .LVL91
     /tmp/ccpuD3Pj.s:1257   .text:0000000000000564 .LVL94
     /tmp/ccpuD3Pj.s:1162   .text:00000000000004cc .LVL86
     /tmp/ccpuD3Pj.s:1174   .text:00000000000004e0 .LVL87
     /tmp/ccpuD3Pj.s:1128   .text:00000000000004a0 .LVL83
     /tmp/ccpuD3Pj.s:1140   .text:00000000000004b4 .LVL84
     /tmp/ccpuD3Pj.s:557    .text:00000000000001dc .LVL40
     /tmp/ccpuD3Pj.s:582    .text:0000000000000214 .LVL43
     /tmp/ccpuD3Pj.s:258    .text:00000000000000ac .LVL16
     /tmp/ccpuD3Pj.s:277    .text:00000000000000d4 .LVL17
     /tmp/ccpuD3Pj.s:283    .text:00000000000000e0 .LVL19
     /tmp/ccpuD3Pj.s:304    .text:00000000000000ec .LVL21
     /tmp/ccpuD3Pj.s:313    .text:00000000000000f8 .LVL22
     /tmp/ccpuD3Pj.s:1087   .text:0000000000000468 .LVL80
     /tmp/ccpuD3Pj.s:1103   .text:0000000000000488 .LVL81
     /tmp/ccpuD3Pj.s:66     .text:0000000000000000 .LVL2
     /tmp/ccpuD3Pj.s:94     .text:0000000000000030 .LVL4
     /tmp/ccpuD3Pj.s:980    .text:00000000000003ec .LVL72
     /tmp/ccpuD3Pj.s:1010   .text:0000000000000424 .LVL74
     /tmp/ccpuD3Pj.s:1044   .text:0000000000000448 .LVL78
     /tmp/ccpuD3Pj.s:1071   .text:0000000000000460 .LVL79
     /tmp/ccpuD3Pj.s:1005   .text:0000000000000420 .LVL73
     /tmp/ccpuD3Pj.s:1014   .text:0000000000000430 .LVL76
     /tmp/ccpuD3Pj.s:1025   .text:0000000000000438 .LVL77
     /tmp/ccpuD3Pj.s:883    .text:0000000000000360 .LVL64
     /tmp/ccpuD3Pj.s:897    .text:0000000000000380 .LVL65
     /tmp/ccpuD3Pj.s:818    .text:000000000000030c .LVL60
     /tmp/ccpuD3Pj.s:830    .text:0000000000000320 .LVL61
     /tmp/ccpuD3Pj.s:759    .text:00000000000002d4 .LVL56
     /tmp/ccpuD3Pj.s:777    .text:00000000000002ec .LVL57
     /tmp/ccpuD3Pj.s:801    .text:0000000000000304 .LVL58
     /tmp/ccpuD3Pj.s:806    .text:0000000000000308 .LVL59
     /tmp/ccpuD3Pj.s:470    .text:000000000000019c .LVL31
     /tmp/ccpuD3Pj.s:495    .text:00000000000001d4 .LVL34
     /tmp/ccpuD3Pj.s:109    .text:0000000000000034 .LVL5
     /tmp/ccpuD3Pj.s:128    .text:000000000000005c .LVL6
GAS LISTING /tmp/ccpuD3Pj.s 			page 50


     /tmp/ccpuD3Pj.s:134    .text:0000000000000068 .LVL8
     /tmp/ccpuD3Pj.s:156    .text:0000000000000074 .LVL10
     /tmp/ccpuD3Pj.s:165    .text:0000000000000080 .LVL11
     /tmp/ccpuD3Pj.s:637    .text:0000000000000244 .LVL46
     /tmp/ccpuD3Pj.s:673    .text:0000000000000288 .LVL48
     /tmp/ccpuD3Pj.s:699    .text:00000000000002a4 .LVL51
     /tmp/ccpuD3Pj.s:727    .text:00000000000002bc .LVL52
     /tmp/ccpuD3Pj.s:737    .text:00000000000002cc .LVL55
     /tmp/ccpuD3Pj.s:730    .text:00000000000002c0 .LVL53
     /tmp/ccpuD3Pj.s:733    .text:00000000000002c4 .LVL54
     /tmp/ccpuD3Pj.s:667    .text:0000000000000280 .LVL47
     /tmp/ccpuD3Pj.s:677    .text:0000000000000294 .LVL50
     /tmp/ccpuD3Pj.s:598    .text:000000000000021c .LVL44
     /tmp/ccpuD3Pj.s:431    .text:0000000000000174 .LVL29
     /tmp/ccpuD3Pj.s:397    .text:000000000000014c .LVL27
     /tmp/ccpuD3Pj.s:365    .text:0000000000000124 .LVL25
     /tmp/ccpuD3Pj.s:1370   .debug_info:0000000000000000 .Ldebug_info0
     /tmp/ccpuD3Pj.s:5      .text:0000000000000000 .Ltext0
     /tmp/ccpuD3Pj.s:1363   .text:00000000000005bc .Letext0
     /tmp/ccpuD3Pj.s:659    .text:0000000000000278 .LBB76
     /tmp/ccpuD3Pj.s:716    .text:00000000000002b0 .LBE76
     /tmp/ccpuD3Pj.s:741    .text:00000000000002cc .LBB77
     /tmp/ccpuD3Pj.s:745    .text:00000000000002d4 .LBE77
     /tmp/ccpuD3Pj.s:202    .gcc_except_table:0000000000000000 .LLSDA46
     /tmp/ccpuD3Pj.s:349    .gcc_except_table:0000000000000004 .LLSDA64
     /tmp/ccpuD3Pj.s:456    .gcc_except_table:0000000000000008 .LLSDA37
     /tmp/ccpuD3Pj.s:623    .gcc_except_table:000000000000000c .LLSDA38
                           .group:0000000000000000 _ZN14PeriodicThreadD5Ev

UNDEFINED SYMBOLS
_Z11thread_joinP3TCB
_Z8mem_freePv
_ZN3TCBdlEPv
__gxx_personality_v0
_Z9sem_closeP4KSem
_ZN4KSemdlEPv
_Z9mem_allocm
_Z15thread_dispatchv
_ZN3TCB7runningE
_ZN9Scheduler10putToSleepEP3TCBm
_Z8sem_openPP4KSemj
_Z8sem_waitP4KSem
_Z10sem_signalP4KSem
_Z4getcv
_Z4putcc
