GAS LISTING /tmp/ccDOEKdr.s 			page 1


   1              		.file	"syscall_cpp.cpp"
   2              		.option pic
   3              		.option norelax
   4              		.text
   5              	.Ltext0:
   6              		.section	.text._ZN6Thread3runEv,"axG",@progbits,_ZN6Thread3runEv,comdat
   7              		.align	2
   8              		.weak	_ZN6Thread3runEv
  10              	_ZN6Thread3runEv:
  11              	.LFB0:
  12              		.file 1 "src/../h/syscall_cpp.hpp"
   1:src/../h/syscall_cpp.hpp **** #ifndef _syscall_cpp
   2:src/../h/syscall_cpp.hpp **** #define _syscall_cpp
   3:src/../h/syscall_cpp.hpp **** 
   4:src/../h/syscall_cpp.hpp **** #include "../lib/hw.h"
   5:src/../h/syscall_cpp.hpp **** 
   6:src/../h/syscall_cpp.hpp **** void* operator new(size_t);
   7:src/../h/syscall_cpp.hpp **** 
   8:src/../h/syscall_cpp.hpp **** void* operator new[](size_t);
   9:src/../h/syscall_cpp.hpp **** 
  10:src/../h/syscall_cpp.hpp **** void operator delete(void*)
  11:src/../h/syscall_cpp.hpp **** 
  12:src/../h/syscall_cpp.hpp **** noexcept;
  13:src/../h/syscall_cpp.hpp **** 
  14:src/../h/syscall_cpp.hpp **** void operator delete[](void*)
  15:src/../h/syscall_cpp.hpp **** 
  16:src/../h/syscall_cpp.hpp **** noexcept;
  17:src/../h/syscall_cpp.hpp **** 
  18:src/../h/syscall_cpp.hpp **** class TCB;
  19:src/../h/syscall_cpp.hpp **** 
  20:src/../h/syscall_cpp.hpp **** typedef TCB* thread_t;
  21:src/../h/syscall_cpp.hpp **** 
  22:src/../h/syscall_cpp.hpp **** class KSem;
  23:src/../h/syscall_cpp.hpp **** 
  24:src/../h/syscall_cpp.hpp **** typedef KSem* sem_t;
  25:src/../h/syscall_cpp.hpp **** 
  26:src/../h/syscall_cpp.hpp **** class Thread {
  27:src/../h/syscall_cpp.hpp **** public:
  28:src/../h/syscall_cpp.hpp ****     //konstruktor koji pravi nit koja izvrsava zadatu funkciju sa zadatim argumentima, ne pokrece n
  29:src/../h/syscall_cpp.hpp ****     Thread(void (* body)(void*), void* arg);
  30:src/../h/syscall_cpp.hpp **** 
  31:src/../h/syscall_cpp.hpp ****     virtual ~Thread();
  32:src/../h/syscall_cpp.hpp **** 
  33:src/../h/syscall_cpp.hpp ****     //stavlja nit u Scheduler
  34:src/../h/syscall_cpp.hpp ****     int start();
  35:src/../h/syscall_cpp.hpp **** 
  36:src/../h/syscall_cpp.hpp ****     //pozivajuca (running) nit se suspenduje dok se nit ciji se metod poziva(this) ne zavrsi
  37:src/../h/syscall_cpp.hpp ****     void join();
  38:src/../h/syscall_cpp.hpp **** 
  39:src/../h/syscall_cpp.hpp ****     //sinhrona promena konteksta
  40:src/../h/syscall_cpp.hpp ****     static void dispatch();
  41:src/../h/syscall_cpp.hpp **** 
  42:src/../h/syscall_cpp.hpp ****     //uspavljuje tekucu nit na zadati period
  43:src/../h/syscall_cpp.hpp ****     static int sleep(time_t);
  44:src/../h/syscall_cpp.hpp **** 
  45:src/../h/syscall_cpp.hpp **** protected:
  46:src/../h/syscall_cpp.hpp ****     //konstruktor koji pravi nit koja izvrsava run metodu, ne stavlja je u Scheduler
GAS LISTING /tmp/ccDOEKdr.s 			page 2


  47:src/../h/syscall_cpp.hpp ****     Thread();
  48:src/../h/syscall_cpp.hpp **** 
  49:src/../h/syscall_cpp.hpp ****     //funkcija koju nit izvrsava, samo ako je nit napravljena podrazumevanim konstruktorom
  50:src/../h/syscall_cpp.hpp ****     virtual void run() {}
  13              		.loc 1 50 18
  14              		.cfi_startproc
  15              	.LVL0:
  16 0000 130101FF 		addi	sp,sp,-16
  17              		.cfi_def_cfa_offset 16
  18 0004 23348100 		sd	s0,8(sp)
  19              		.cfi_offset 8, -8
  20 0008 13040101 		addi	s0,sp,16
  21              		.cfi_def_cfa 8, 0
  22              		.loc 1 50 25 is_stmt 0
  23 000c 03348100 		ld	s0,8(sp)
  24              		.cfi_restore 8
  25              		.cfi_def_cfa 2, 16
  26 0010 13010101 		addi	sp,sp,16
  27              		.cfi_def_cfa_offset 0
  28 0014 67800000 		jr	ra
  29              		.cfi_endproc
  30              	.LFE0:
  32              		.section	.text._ZN14PeriodicThread18periodicActivationEv,"axG",@progbits,_ZN14PeriodicThread18peri
  33              		.align	2
  34              		.weak	_ZN14PeriodicThread18periodicActivationEv
  36              	_ZN14PeriodicThread18periodicActivationEv:
  37              	.LFB1:
  51:src/../h/syscall_cpp.hpp **** 
  52:src/../h/syscall_cpp.hpp **** private:
  53:src/../h/syscall_cpp.hpp ****     //pokazivac na TCB strukturu kernela
  54:src/../h/syscall_cpp.hpp ****     thread_t myHandle;
  55:src/../h/syscall_cpp.hpp **** 
  56:src/../h/syscall_cpp.hpp ****     void (* body)(void*);
  57:src/../h/syscall_cpp.hpp **** 
  58:src/../h/syscall_cpp.hpp ****     void* arg;
  59:src/../h/syscall_cpp.hpp **** 
  60:src/../h/syscall_cpp.hpp ****     static void wrapper(void* thread);
  61:src/../h/syscall_cpp.hpp **** };
  62:src/../h/syscall_cpp.hpp **** 
  63:src/../h/syscall_cpp.hpp **** 
  64:src/../h/syscall_cpp.hpp **** class Semaphore {
  65:src/../h/syscall_cpp.hpp **** public:
  66:src/../h/syscall_cpp.hpp **** 
  67:src/../h/syscall_cpp.hpp ****     Semaphore(unsigned init = 1);
  68:src/../h/syscall_cpp.hpp **** 
  69:src/../h/syscall_cpp.hpp ****     virtual ~Semaphore();
  70:src/../h/syscall_cpp.hpp **** 
  71:src/../h/syscall_cpp.hpp ****     int wait();
  72:src/../h/syscall_cpp.hpp **** 
  73:src/../h/syscall_cpp.hpp ****     int signal();
  74:src/../h/syscall_cpp.hpp **** 
  75:src/../h/syscall_cpp.hpp **** private:
  76:src/../h/syscall_cpp.hpp ****     sem_t myHandle;
  77:src/../h/syscall_cpp.hpp **** 
  78:src/../h/syscall_cpp.hpp **** };
  79:src/../h/syscall_cpp.hpp **** 
  80:src/../h/syscall_cpp.hpp **** 
GAS LISTING /tmp/ccDOEKdr.s 			page 3


  81:src/../h/syscall_cpp.hpp **** class PeriodicThread : public Thread {
  82:src/../h/syscall_cpp.hpp **** public:
  83:src/../h/syscall_cpp.hpp ****     void terminate();
  84:src/../h/syscall_cpp.hpp **** 
  85:src/../h/syscall_cpp.hpp **** protected:
  86:src/../h/syscall_cpp.hpp ****     PeriodicThread(time_t period);
  87:src/../h/syscall_cpp.hpp **** 
  88:src/../h/syscall_cpp.hpp ****     virtual void periodicActivation() {}
  38              		.loc 1 88 18 is_stmt 1
  39              		.cfi_startproc
  40              	.LVL1:
  41 0000 130101FF 		addi	sp,sp,-16
  42              		.cfi_def_cfa_offset 16
  43 0004 23348100 		sd	s0,8(sp)
  44              		.cfi_offset 8, -8
  45 0008 13040101 		addi	s0,sp,16
  46              		.cfi_def_cfa 8, 0
  47              		.loc 1 88 40 is_stmt 0
  48 000c 03348100 		ld	s0,8(sp)
  49              		.cfi_restore 8
  50              		.cfi_def_cfa 2, 16
  51 0010 13010101 		addi	sp,sp,16
  52              		.cfi_def_cfa_offset 0
  53 0014 67800000 		jr	ra
  54              		.cfi_endproc
  55              	.LFE1:
  57              		.text
  58              		.align	2
  59              		.globl	_ZN6Thread7wrapperEPv
  61              	_ZN6Thread7wrapperEPv:
  62              	.LFB54:
  63              		.file 2 "src/syscall_cpp.cpp"
   1:src/syscall_cpp.cpp **** //
   2:src/syscall_cpp.cpp **** // Created by os on 5/29/23.
   3:src/syscall_cpp.cpp **** //
   4:src/syscall_cpp.cpp **** #include "../h/syscall_cpp.hpp"
   5:src/syscall_cpp.cpp **** #include "../h/syscall_c.hpp"
   6:src/syscall_cpp.cpp **** #include "../h/TCB.hpp"
   7:src/syscall_cpp.cpp **** #include "../h/KSem.hpp"
   8:src/syscall_cpp.cpp **** #include "../h/Scheduler.hpp"
   9:src/syscall_cpp.cpp **** 
  10:src/syscall_cpp.cpp **** int main();
  11:src/syscall_cpp.cpp **** 
  12:src/syscall_cpp.cpp **** //override globalnog new
  13:src/syscall_cpp.cpp **** void* operator new(size_t size) {
  14:src/syscall_cpp.cpp ****     return mem_alloc(size);
  15:src/syscall_cpp.cpp **** }
  16:src/syscall_cpp.cpp **** 
  17:src/syscall_cpp.cpp **** void* operator new[](size_t size) {
  18:src/syscall_cpp.cpp ****     return mem_alloc(size);
  19:src/syscall_cpp.cpp **** }
  20:src/syscall_cpp.cpp **** 
  21:src/syscall_cpp.cpp **** void operator delete(void* ptr)
  22:src/syscall_cpp.cpp **** 
  23:src/syscall_cpp.cpp **** noexcept {
  24:src/syscall_cpp.cpp **** mem_free(ptr);
  25:src/syscall_cpp.cpp **** }
GAS LISTING /tmp/ccDOEKdr.s 			page 4


  26:src/syscall_cpp.cpp **** 
  27:src/syscall_cpp.cpp **** void operator delete[](void* ptr)
  28:src/syscall_cpp.cpp **** 
  29:src/syscall_cpp.cpp **** noexcept {
  30:src/syscall_cpp.cpp **** mem_free(ptr);
  31:src/syscall_cpp.cpp **** }
  32:src/syscall_cpp.cpp **** 
  33:src/syscall_cpp.cpp **** Thread::Thread(void (* body)(void*), void* arg) {
  34:src/syscall_cpp.cpp ****     this->body = body;
  35:src/syscall_cpp.cpp ****     this->arg = arg;
  36:src/syscall_cpp.cpp ****     //stvaranje steka ako se ne radi o main kernel niti, posto ona automatski ima stek
  37:src/syscall_cpp.cpp ****     uint64* stack = nullptr;
  38:src/syscall_cpp.cpp ****     if (body != (TCB::Body)main) {
  39:src/syscall_cpp.cpp ****         stack = (uint64*)mem_alloc(DEFAULT_STACK_SIZE);
  40:src/syscall_cpp.cpp ****     }
  41:src/syscall_cpp.cpp ****     //stavljanje argumenata za sistemski poziv
  42:src/syscall_cpp.cpp ****     __asm__ volatile("mv a4, %[sp]": :[sp] "r"(stack):"a5", "a0", "a1", "a2", "a3", "a4", "a6", "a7
  43:src/syscall_cpp.cpp ****     __asm__ volatile("mv a3, %[arg]": :[arg] "r"(arg):"a5", "a0", "a1", "a2", "a3", "a4", "a6", "a7
  44:src/syscall_cpp.cpp ****     __asm__ volatile("mv a2, %[function]": :[function] "r"(
  45:src/syscall_cpp.cpp ****             body):"a5", "a0", "a1", "a2", "a3", "a4", "a6", "a7");
  46:src/syscall_cpp.cpp ****     __asm__ volatile("mv a1, %[handle]": :[handle] "r"(&myHandle):"a5", "a0", "a1", "a2", "a3", "a4
  47:src/syscall_cpp.cpp ****     __asm__ volatile("li a0, 0x80");
  48:src/syscall_cpp.cpp ****     //a0 = 0x80
  49:src/syscall_cpp.cpp ****     //a1 = adresa pokazivaca na rucku niti
  50:src/syscall_cpp.cpp ****     //a2 = prva adresa funkcije koju nit izvrsava
  51:src/syscall_cpp.cpp ****     //a3 = pokazivac na argumente funkcije
  52:src/syscall_cpp.cpp ****     //a4 = pokazivac na najnizu adresu steka (stek raste ka nizim adresama, pokazuje na poslednju z
  53:src/syscall_cpp.cpp **** 
  54:src/syscall_cpp.cpp ****     __asm__ volatile("ecall");
  55:src/syscall_cpp.cpp **** }
  56:src/syscall_cpp.cpp **** 
  57:src/syscall_cpp.cpp **** Thread::~Thread() {
  58:src/syscall_cpp.cpp ****     //ne treba da se gasi running nit, vec nit na koju pokazuje rucka od this
  59:src/syscall_cpp.cpp ****     thread_join(this->myHandle);
  60:src/syscall_cpp.cpp ****     delete myHandle;
  61:src/syscall_cpp.cpp **** }
  62:src/syscall_cpp.cpp **** 
  63:src/syscall_cpp.cpp **** int Thread::start() {
  64:src/syscall_cpp.cpp ****     if (myHandle == nullptr || myHandle->getStatus() != TCB::CREATED) return -1;
  65:src/syscall_cpp.cpp ****     __asm__ volatile("mv a1, %[handle]": :[handle] "r"(myHandle):"a5", "a0", "a1", "a2", "a3", "a4"
  66:src/syscall_cpp.cpp ****     __asm__ volatile("li a0, 0x81");
  67:src/syscall_cpp.cpp **** 
  68:src/syscall_cpp.cpp ****     __asm__ volatile("ecall");
  69:src/syscall_cpp.cpp **** 
  70:src/syscall_cpp.cpp ****     return 0;
  71:src/syscall_cpp.cpp **** }
  72:src/syscall_cpp.cpp **** 
  73:src/syscall_cpp.cpp **** void Thread::join() {
  74:src/syscall_cpp.cpp ****     thread_join(myHandle);
  75:src/syscall_cpp.cpp **** }
  76:src/syscall_cpp.cpp **** 
  77:src/syscall_cpp.cpp **** void Thread::dispatch() {
  78:src/syscall_cpp.cpp ****     thread_dispatch();
  79:src/syscall_cpp.cpp **** }
  80:src/syscall_cpp.cpp **** 
  81:src/syscall_cpp.cpp **** int Thread::sleep(time_t t) {
  82:src/syscall_cpp.cpp ****     time_sleep(t);
GAS LISTING /tmp/ccDOEKdr.s 			page 5


  83:src/syscall_cpp.cpp ****     return 0;
  84:src/syscall_cpp.cpp **** }
  85:src/syscall_cpp.cpp **** 
  86:src/syscall_cpp.cpp **** Thread::Thread() {
  87:src/syscall_cpp.cpp ****     this->body = wrapper;
  88:src/syscall_cpp.cpp ****     this->arg = this;
  89:src/syscall_cpp.cpp ****     uint64* stack = (uint64*)mem_alloc(DEFAULT_STACK_SIZE);
  90:src/syscall_cpp.cpp ****     //stavljanje argumenata za sistemski poziv
  91:src/syscall_cpp.cpp ****     __asm__ volatile("mv a4, %[sp]": :[sp] "r"(stack):"a5", "a0", "a1", "a2", "a3", "a4", "a6", "a7
  92:src/syscall_cpp.cpp ****     __asm__ volatile("mv a3, %[arg]": :[arg] "r"(arg):"a5", "a0", "a1", "a2", "a3", "a4", "a6", "a7
  93:src/syscall_cpp.cpp ****     __asm__ volatile("mv a2, %[function]": :[function] "r"(
  94:src/syscall_cpp.cpp ****             body):"a5", "a0", "a1", "a2", "a3", "a4", "a6", "a7");
  95:src/syscall_cpp.cpp ****     __asm__ volatile("mv a1, %[handle]": :[handle] "r"(&myHandle):"a5", "a0", "a1", "a2", "a3", "a4
  96:src/syscall_cpp.cpp ****     __asm__ volatile("li a0, 0x80");
  97:src/syscall_cpp.cpp ****     //a0 = 0x80
  98:src/syscall_cpp.cpp ****     //a1 = adresa pokazivaca na rucku niti
  99:src/syscall_cpp.cpp ****     //a2 = prva adresa funkcije koju nit izvrsava
 100:src/syscall_cpp.cpp ****     //a3 = pokazivac na argumente funkcije
 101:src/syscall_cpp.cpp ****     //a4 = pokazivac na najnizu adresu steka (stek raste ka nizim adresama, pokazuje na poslednju z
 102:src/syscall_cpp.cpp **** 
 103:src/syscall_cpp.cpp ****     __asm__ volatile("ecall");
 104:src/syscall_cpp.cpp **** }
 105:src/syscall_cpp.cpp **** 
 106:src/syscall_cpp.cpp **** void Thread::wrapper(void* thread) {
  64              		.loc 2 106 36 is_stmt 1
  65              		.cfi_startproc
  66              	.LVL2:
 107:src/syscall_cpp.cpp ****     if (thread != nullptr) {
  67              		.loc 2 107 5
  68 0000 63080502 		beqz	a0,.L8
 106:src/syscall_cpp.cpp ****     if (thread != nullptr) {
  69              		.loc 2 106 36 is_stmt 0
  70 0004 130101FF 		addi	sp,sp,-16
  71              		.cfi_def_cfa_offset 16
  72 0008 23341100 		sd	ra,8(sp)
  73 000c 23308100 		sd	s0,0(sp)
  74              		.cfi_offset 1, -8
  75              		.cfi_offset 8, -16
  76 0010 13040101 		addi	s0,sp,16
  77              		.cfi_def_cfa 8, 0
 108:src/syscall_cpp.cpp ****         ((Thread*)thread)->run();
  78              		.loc 2 108 9 is_stmt 1
  79              		.loc 2 108 32 is_stmt 0
  80 0014 83370500 		ld	a5,0(a0)
  81 0018 83B70701 		ld	a5,16(a5)
  82              		.loc 2 108 31
  83 001c E7800700 		jalr	a5
  84              	.LVL3:
 109:src/syscall_cpp.cpp ****     }
 110:src/syscall_cpp.cpp **** }
  85              		.loc 2 110 1
  86 0020 83308100 		ld	ra,8(sp)
  87              		.cfi_restore 1
  88 0024 03340100 		ld	s0,0(sp)
  89              		.cfi_restore 8
  90              		.cfi_def_cfa 2, 16
  91 0028 13010101 		addi	sp,sp,16
GAS LISTING /tmp/ccDOEKdr.s 			page 6


  92              		.cfi_def_cfa_offset 0
  93 002c 67800000 		jr	ra
  94              	.LVL4:
  95              	.L8:
  96 0030 67800000 		ret
  97              		.cfi_endproc
  98              	.LFE54:
 100              		.align	2
 101              		.globl	_ZN6ThreadD2Ev
 103              	_ZN6ThreadD2Ev:
 104              	.LFB44:
  57:src/syscall_cpp.cpp ****     //ne treba da se gasi running nit, vec nit na koju pokazuje rucka od this
 105              		.loc 2 57 1 is_stmt 1
 106              		.cfi_startproc
 107              		.cfi_personality 0x9b,DW.ref.__gxx_personality_v0
 108              		.cfi_lsda 0x1b,.LLSDA44
 109              	.LVL5:
 110 0034 130101FE 		addi	sp,sp,-32
 111              		.cfi_def_cfa_offset 32
 112 0038 233C1100 		sd	ra,24(sp)
 113 003c 23388100 		sd	s0,16(sp)
 114 0040 23349100 		sd	s1,8(sp)
 115              		.cfi_offset 1, -8
 116              		.cfi_offset 8, -16
 117              		.cfi_offset 9, -24
 118 0044 13040102 		addi	s0,sp,32
 119              		.cfi_def_cfa 8, 0
 120 0048 93040500 		mv	s1,a0
 121              	.LBB56:
  57:src/syscall_cpp.cpp ****     //ne treba da se gasi running nit, vec nit na koju pokazuje rucka od this
 122              		.loc 2 57 17 is_stmt 0
 123 004c 97070000 		lla	a5,_ZTV6Thread+16
 123      93870700 
 124 0054 2330F500 		sd	a5,0(a0)
  59:src/syscall_cpp.cpp ****     delete myHandle;
 125              		.loc 2 59 5 is_stmt 1
  59:src/syscall_cpp.cpp ****     delete myHandle;
 126              		.loc 2 59 16 is_stmt 0
 127 0058 03358500 		ld	a0,8(a0)
 128              	.LVL6:
 129 005c 97000000 		call	_Z11thread_joinP3TCB@plt
 129      E7800000 
 130              	.LVL7:
  60:src/syscall_cpp.cpp **** }
 131              		.loc 2 60 5 is_stmt 1
  60:src/syscall_cpp.cpp **** }
 132              		.loc 2 60 12 is_stmt 0
 133 0064 83B48400 		ld	s1,8(s1)
 134              	.LVL8:
  60:src/syscall_cpp.cpp **** }
 135              		.loc 2 60 20
 136 0068 63880402 		beqz	s1,.L11
 137              	.L14:
 138              	.LBB57:
 139              	.LBB58:
 140              	.LBB59:
 141              		.file 3 "src/../h/../h/ThreadQueue.hpp"
GAS LISTING /tmp/ccDOEKdr.s 			page 7


   1:src/../h/../h/ThreadQueue.hpp **** //
   2:src/../h/../h/ThreadQueue.hpp **** // Created by os on 6/4/23.
   3:src/../h/../h/ThreadQueue.hpp **** //
   4:src/../h/../h/ThreadQueue.hpp **** 
   5:src/../h/../h/ThreadQueue.hpp **** #ifndef PROJEKAT2023_THREADQUEUE_HPP
   6:src/../h/../h/ThreadQueue.hpp **** #define PROJEKAT2023_THREADQUEUE_HPP
   7:src/../h/../h/ThreadQueue.hpp **** 
   8:src/../h/../h/ThreadQueue.hpp **** #include "../h/syscall_c.hpp"
   9:src/../h/../h/ThreadQueue.hpp **** 
  10:src/../h/../h/ThreadQueue.hpp **** class TCB;
  11:src/../h/../h/ThreadQueue.hpp **** 
  12:src/../h/../h/ThreadQueue.hpp **** class ThreadQueue {
  13:src/../h/../h/ThreadQueue.hpp **** private:
  14:src/../h/../h/ThreadQueue.hpp ****     struct Node {
  15:src/../h/../h/ThreadQueue.hpp ****         TCB* data;
  16:src/../h/../h/ThreadQueue.hpp ****         Node* next;
  17:src/../h/../h/ThreadQueue.hpp **** 
  18:src/../h/../h/ThreadQueue.hpp ****         Node(TCB* d) : data(d), next(nullptr) {}
  19:src/../h/../h/ThreadQueue.hpp **** 
  20:src/../h/../h/ThreadQueue.hpp ****         static void* operator new(size_t size) {
  21:src/../h/../h/ThreadQueue.hpp ****             return mem_alloc(size);
  22:src/../h/../h/ThreadQueue.hpp ****         }
  23:src/../h/../h/ThreadQueue.hpp **** 
  24:src/../h/../h/ThreadQueue.hpp ****         static void operator delete(void* ptr) {
  25:src/../h/../h/ThreadQueue.hpp ****             mem_free(ptr);
  26:src/../h/../h/ThreadQueue.hpp ****         }
  27:src/../h/../h/ThreadQueue.hpp ****     };
  28:src/../h/../h/ThreadQueue.hpp **** 
  29:src/../h/../h/ThreadQueue.hpp ****     Node* front;
  30:src/../h/../h/ThreadQueue.hpp ****     Node* back;
  31:src/../h/../h/ThreadQueue.hpp **** 
  32:src/../h/../h/ThreadQueue.hpp **** public:
  33:src/../h/../h/ThreadQueue.hpp ****     ThreadQueue() : front(nullptr), back(nullptr) {}
  34:src/../h/../h/ThreadQueue.hpp **** 
  35:src/../h/../h/ThreadQueue.hpp ****     ThreadQueue(const ThreadQueue &) = delete;
  36:src/../h/../h/ThreadQueue.hpp **** 
  37:src/../h/../h/ThreadQueue.hpp ****     ThreadQueue &operator=(const ThreadQueue &) = delete;
  38:src/../h/../h/ThreadQueue.hpp **** 
  39:src/../h/../h/ThreadQueue.hpp ****     ~ThreadQueue() {
  40:src/../h/../h/ThreadQueue.hpp ****         while (!isEmpty()) {
 142              		.loc 3 40 9 is_stmt 1
 143              		.loc 3 40 16
 144              	.LVL9:
 145              	.LBB60:
 146              	.LBB61:
  41:src/../h/../h/ThreadQueue.hpp ****             Node* node = front;
  42:src/../h/../h/ThreadQueue.hpp ****             front = front->next;
  43:src/../h/../h/ThreadQueue.hpp ****             delete node;
  44:src/../h/../h/ThreadQueue.hpp ****         }
  45:src/../h/../h/ThreadQueue.hpp ****     }
  46:src/../h/../h/ThreadQueue.hpp **** 
  47:src/../h/../h/ThreadQueue.hpp ****     bool isEmpty() const {
  48:src/../h/../h/ThreadQueue.hpp ****         return front == nullptr;
 147              		.loc 3 48 9
 148              		.loc 3 48 16 is_stmt 0
 149 006c 03B58404 		ld	a0,72(s1)
 150              	.LBE61:
GAS LISTING /tmp/ccDOEKdr.s 			page 8


 151              	.LBE60:
  40:src/../h/../h/ThreadQueue.hpp ****             Node* node = front;
 152              		.loc 3 40 16
 153 0070 630E0500 		beqz	a0,.L13
 154              	.LBB62:
  41:src/../h/../h/ThreadQueue.hpp ****             Node* node = front;
 155              		.loc 3 41 13 is_stmt 1
 156              	.LVL10:
  42:src/../h/../h/ThreadQueue.hpp ****             delete node;
 157              		.loc 3 42 13
  42:src/../h/../h/ThreadQueue.hpp ****             delete node;
 158              		.loc 3 42 28 is_stmt 0
 159 0074 83378500 		ld	a5,8(a0)
  42:src/../h/../h/ThreadQueue.hpp ****             delete node;
 160              		.loc 3 42 19
 161 0078 23B4F404 		sd	a5,72(s1)
  43:src/../h/../h/ThreadQueue.hpp ****         }
 162              		.loc 3 43 13 is_stmt 1
  43:src/../h/../h/ThreadQueue.hpp ****         }
 163              		.loc 3 43 24 is_stmt 0
 164 007c E30805FE 		beqz	a0,.L14
 165              	.LVL11:
 166              	.LBB63:
 167              	.LBB64:
  25:src/../h/../h/ThreadQueue.hpp ****         }
 168              		.loc 3 25 13 is_stmt 1
  25:src/../h/../h/ThreadQueue.hpp ****         }
 169              		.loc 3 25 21 is_stmt 0
 170 0080 97000000 		call	_Z8mem_freePv@plt
 170      E7800000 
 171              	.LVL12:
  26:src/../h/../h/ThreadQueue.hpp ****     };
 172              		.loc 3 26 9
 173 0088 6FF05FFE 		j	.L14
 174              	.L13:
 175              	.LBE64:
 176              	.LBE63:
 177              	.LBE62:
 178              	.LBE59:
 179              	.LBE58:
 180              	.LBE57:
  60:src/syscall_cpp.cpp **** }
 181              		.loc 2 60 12
 182 008c 13850400 		mv	a0,s1
 183 0090 97000000 		call	_ZN3TCBdlEPv@plt
 183      E7800000 
 184              	.LVL13:
 185              	.L11:
 186              	.LBE56:
  61:src/syscall_cpp.cpp **** 
 187              		.loc 2 61 1
 188 0098 83308101 		ld	ra,24(sp)
 189              		.cfi_restore 1
 190 009c 03340101 		ld	s0,16(sp)
 191              		.cfi_restore 8
 192              		.cfi_def_cfa 2, 32
 193 00a0 83348100 		ld	s1,8(sp)
GAS LISTING /tmp/ccDOEKdr.s 			page 9


 194              		.cfi_restore 9
 195 00a4 13010102 		addi	sp,sp,32
 196              		.cfi_def_cfa_offset 0
 197 00a8 67800000 		jr	ra
 198              		.cfi_endproc
 199              	.LFE44:
 200              		.globl	__gxx_personality_v0
 201              		.section	.gcc_except_table,"a",@progbits
 202              	.LLSDA44:
 203 0000 FF       		.byte	0xff
 204 0001 FF       		.byte	0xff
 205 0002 03       		.byte	0x3
 206 0003 00       		.byte	0
 207              		.text
 209              		.globl	_ZN6ThreadD1Ev
 210              		.set	_ZN6ThreadD1Ev,_ZN6ThreadD2Ev
 211              		.section	.text._ZN14PeriodicThreadD2Ev,"axG",@progbits,_ZN14PeriodicThreadD5Ev,comdat
 212              		.align	2
 213              		.weak	_ZN14PeriodicThreadD2Ev
 215              	_ZN14PeriodicThreadD2Ev:
 216              	.LFB75:
  81:src/../h/syscall_cpp.hpp **** public:
 217              		.loc 1 81 7 is_stmt 1
 218              		.cfi_startproc
 219              	.LVL14:
 220 0000 130101FF 		addi	sp,sp,-16
 221              		.cfi_def_cfa_offset 16
 222 0004 23341100 		sd	ra,8(sp)
 223 0008 23308100 		sd	s0,0(sp)
 224              		.cfi_offset 1, -8
 225              		.cfi_offset 8, -16
 226 000c 13040101 		addi	s0,sp,16
 227              		.cfi_def_cfa 8, 0
 228              	.LBB65:
  81:src/../h/syscall_cpp.hpp **** public:
 229              		.loc 1 81 7 is_stmt 0
 230 0010 97070000 		lla	a5,_ZTV14PeriodicThread+16
 230      93870700 
 231 0018 2330F500 		sd	a5,0(a0)
 232 001c 97000000 		call	_ZN6ThreadD2Ev
 232      E7800000 
 233              	.LVL15:
 234              	.LBE65:
 235 0024 83308100 		ld	ra,8(sp)
 236              		.cfi_restore 1
 237 0028 03340100 		ld	s0,0(sp)
 238              		.cfi_restore 8
 239              		.cfi_def_cfa 2, 16
 240 002c 13010101 		addi	sp,sp,16
 241              		.cfi_def_cfa_offset 0
 242 0030 67800000 		jr	ra
 243              		.cfi_endproc
 244              	.LFE75:
 246              		.weak	_ZN14PeriodicThreadD1Ev
 247              		.set	_ZN14PeriodicThreadD1Ev,_ZN14PeriodicThreadD2Ev
 248              		.text
 249              		.align	2
GAS LISTING /tmp/ccDOEKdr.s 			page 10


 250              		.globl	_ZN9SemaphoreD2Ev
 252              	_ZN9SemaphoreD2Ev:
 253              	.LFB62:
 111:src/syscall_cpp.cpp **** 
 112:src/syscall_cpp.cpp **** Semaphore::Semaphore(unsigned int init) {
 113:src/syscall_cpp.cpp ****     sem_open(&myHandle, init);
 114:src/syscall_cpp.cpp **** }
 115:src/syscall_cpp.cpp **** 
 116:src/syscall_cpp.cpp **** Semaphore::~Semaphore() {
 254              		.loc 2 116 1 is_stmt 1
 255              		.cfi_startproc
 256              		.cfi_personality 0x9b,DW.ref.__gxx_personality_v0
 257              		.cfi_lsda 0x1b,.LLSDA62
 258              	.LVL16:
 259 00ac 130101FE 		addi	sp,sp,-32
 260              		.cfi_def_cfa_offset 32
 261 00b0 233C1100 		sd	ra,24(sp)
 262 00b4 23388100 		sd	s0,16(sp)
 263 00b8 23349100 		sd	s1,8(sp)
 264              		.cfi_offset 1, -8
 265              		.cfi_offset 8, -16
 266              		.cfi_offset 9, -24
 267 00bc 13040102 		addi	s0,sp,32
 268              		.cfi_def_cfa 8, 0
 269 00c0 93040500 		mv	s1,a0
 270              	.LBB66:
 271              		.loc 2 116 23 is_stmt 0
 272 00c4 97070000 		lla	a5,_ZTV9Semaphore+16
 272      93870700 
 273 00cc 2330F500 		sd	a5,0(a0)
 117:src/syscall_cpp.cpp ****     sem_close(myHandle);
 274              		.loc 2 117 5 is_stmt 1
 275              		.loc 2 117 14 is_stmt 0
 276 00d0 03358500 		ld	a0,8(a0)
 277              	.LVL17:
 278 00d4 97000000 		call	_Z9sem_closeP4KSem@plt
 278      E7800000 
 279              	.LVL18:
 118:src/syscall_cpp.cpp ****     delete myHandle;
 280              		.loc 2 118 5 is_stmt 1
 281              		.loc 2 118 12 is_stmt 0
 282 00dc 83B48400 		ld	s1,8(s1)
 283              	.LVL19:
 284              		.loc 2 118 20
 285 00e0 63880402 		beqz	s1,.L19
 286              	.L22:
 287              	.LBB67:
 288              	.LBB68:
 289              	.LBB69:
  40:src/../h/../h/ThreadQueue.hpp ****             Node* node = front;
 290              		.loc 3 40 9 is_stmt 1
  40:src/../h/../h/ThreadQueue.hpp ****             Node* node = front;
 291              		.loc 3 40 16
 292              	.LVL20:
 293              	.LBB70:
 294              	.LBB71:
 295              		.loc 3 48 9
GAS LISTING /tmp/ccDOEKdr.s 			page 11


 296              		.loc 3 48 16 is_stmt 0
 297 00e4 03B58400 		ld	a0,8(s1)
 298              	.LBE71:
 299              	.LBE70:
  40:src/../h/../h/ThreadQueue.hpp ****             Node* node = front;
 300              		.loc 3 40 16
 301 00e8 630E0500 		beqz	a0,.L21
 302              	.LBB72:
  41:src/../h/../h/ThreadQueue.hpp ****             front = front->next;
 303              		.loc 3 41 13 is_stmt 1
 304              	.LVL21:
  42:src/../h/../h/ThreadQueue.hpp ****             delete node;
 305              		.loc 3 42 13
  42:src/../h/../h/ThreadQueue.hpp ****             delete node;
 306              		.loc 3 42 28 is_stmt 0
 307 00ec 83378500 		ld	a5,8(a0)
  42:src/../h/../h/ThreadQueue.hpp ****             delete node;
 308              		.loc 3 42 19
 309 00f0 23B4F400 		sd	a5,8(s1)
  43:src/../h/../h/ThreadQueue.hpp ****         }
 310              		.loc 3 43 13 is_stmt 1
  43:src/../h/../h/ThreadQueue.hpp ****         }
 311              		.loc 3 43 24 is_stmt 0
 312 00f4 E30805FE 		beqz	a0,.L22
 313              	.LVL22:
 314              	.LBB73:
 315              	.LBB74:
  25:src/../h/../h/ThreadQueue.hpp ****         }
 316              		.loc 3 25 13 is_stmt 1
  25:src/../h/../h/ThreadQueue.hpp ****         }
 317              		.loc 3 25 21 is_stmt 0
 318 00f8 97000000 		call	_Z8mem_freePv@plt
 318      E7800000 
 319              	.LVL23:
  26:src/../h/../h/ThreadQueue.hpp ****     };
 320              		.loc 3 26 9
 321 0100 6FF05FFE 		j	.L22
 322              	.L21:
 323              	.LBE74:
 324              	.LBE73:
 325              	.LBE72:
 326              	.LBE69:
 327              	.LBE68:
 328              	.LBE67:
 329              		.loc 2 118 12
 330 0104 13850400 		mv	a0,s1
 331 0108 97000000 		call	_ZN4KSemdlEPv@plt
 331      E7800000 
 332              	.LVL24:
 333              	.L19:
 334              	.LBE66:
 119:src/syscall_cpp.cpp **** }
 335              		.loc 2 119 1
 336 0110 83308101 		ld	ra,24(sp)
 337              		.cfi_restore 1
 338 0114 03340101 		ld	s0,16(sp)
 339              		.cfi_restore 8
GAS LISTING /tmp/ccDOEKdr.s 			page 12


 340              		.cfi_def_cfa 2, 32
 341 0118 83348100 		ld	s1,8(sp)
 342              		.cfi_restore 9
 343 011c 13010102 		addi	sp,sp,32
 344              		.cfi_def_cfa_offset 0
 345 0120 67800000 		jr	ra
 346              		.cfi_endproc
 347              	.LFE62:
 348              		.section	.gcc_except_table
 349              	.LLSDA62:
 350 0004 FF       		.byte	0xff
 351 0005 FF       		.byte	0xff
 352 0006 03       		.byte	0x3
 353 0007 00       		.byte	0
 354              		.text
 356              		.globl	_ZN9SemaphoreD1Ev
 357              		.set	_ZN9SemaphoreD1Ev,_ZN9SemaphoreD2Ev
 358              		.align	2
 359              		.globl	_Znwm
 361              	_Znwm:
 362              	.LFB33:
  13:src/syscall_cpp.cpp ****     return mem_alloc(size);
 363              		.loc 2 13 33 is_stmt 1
 364              		.cfi_startproc
 365              	.LVL25:
 366 0124 130101FF 		addi	sp,sp,-16
 367              		.cfi_def_cfa_offset 16
 368 0128 23341100 		sd	ra,8(sp)
 369 012c 23308100 		sd	s0,0(sp)
 370              		.cfi_offset 1, -8
 371              		.cfi_offset 8, -16
 372 0130 13040101 		addi	s0,sp,16
 373              		.cfi_def_cfa 8, 0
  14:src/syscall_cpp.cpp **** }
 374              		.loc 2 14 5
  14:src/syscall_cpp.cpp **** }
 375              		.loc 2 14 21 is_stmt 0
 376 0134 97000000 		call	_Z9mem_allocm@plt
 376      E7800000 
 377              	.LVL26:
  15:src/syscall_cpp.cpp **** 
 378              		.loc 2 15 1
 379 013c 83308100 		ld	ra,8(sp)
 380              		.cfi_restore 1
 381 0140 03340100 		ld	s0,0(sp)
 382              		.cfi_restore 8
 383              		.cfi_def_cfa 2, 16
 384 0144 13010101 		addi	sp,sp,16
 385              		.cfi_def_cfa_offset 0
 386 0148 67800000 		jr	ra
 387              		.cfi_endproc
 388              	.LFE33:
 390              		.align	2
 391              		.globl	_Znam
 393              	_Znam:
 394              	.LFB34:
  17:src/syscall_cpp.cpp ****     return mem_alloc(size);
GAS LISTING /tmp/ccDOEKdr.s 			page 13


 395              		.loc 2 17 35 is_stmt 1
 396              		.cfi_startproc
 397              	.LVL27:
 398 014c 130101FF 		addi	sp,sp,-16
 399              		.cfi_def_cfa_offset 16
 400 0150 23341100 		sd	ra,8(sp)
 401 0154 23308100 		sd	s0,0(sp)
 402              		.cfi_offset 1, -8
 403              		.cfi_offset 8, -16
 404 0158 13040101 		addi	s0,sp,16
 405              		.cfi_def_cfa 8, 0
  18:src/syscall_cpp.cpp **** }
 406              		.loc 2 18 5
  18:src/syscall_cpp.cpp **** }
 407              		.loc 2 18 21 is_stmt 0
 408 015c 97000000 		call	_Z9mem_allocm@plt
 408      E7800000 
 409              	.LVL28:
  19:src/syscall_cpp.cpp **** 
 410              		.loc 2 19 1
 411 0164 83308100 		ld	ra,8(sp)
 412              		.cfi_restore 1
 413 0168 03340100 		ld	s0,0(sp)
 414              		.cfi_restore 8
 415              		.cfi_def_cfa 2, 16
 416 016c 13010101 		addi	sp,sp,16
 417              		.cfi_def_cfa_offset 0
 418 0170 67800000 		jr	ra
 419              		.cfi_endproc
 420              	.LFE34:
 422              		.align	2
 423              		.globl	_ZdlPv
 425              	_ZdlPv:
 426              	.LFB35:
  23:src/syscall_cpp.cpp **** mem_free(ptr);
 427              		.loc 2 23 10 is_stmt 1
 428              		.cfi_startproc
 429              		.cfi_personality 0x9b,DW.ref.__gxx_personality_v0
 430              		.cfi_lsda 0x1b,.LLSDA35
 431              	.LVL29:
 432 0174 130101FF 		addi	sp,sp,-16
 433              		.cfi_def_cfa_offset 16
 434 0178 23341100 		sd	ra,8(sp)
 435 017c 23308100 		sd	s0,0(sp)
 436              		.cfi_offset 1, -8
 437              		.cfi_offset 8, -16
 438 0180 13040101 		addi	s0,sp,16
 439              		.cfi_def_cfa 8, 0
  24:src/syscall_cpp.cpp **** }
 440              		.loc 2 24 1
  24:src/syscall_cpp.cpp **** }
 441              		.loc 2 24 9 is_stmt 0
 442 0184 97000000 		call	_Z8mem_freePv@plt
 442      E7800000 
 443              	.LVL30:
  25:src/syscall_cpp.cpp **** 
 444              		.loc 2 25 1
GAS LISTING /tmp/ccDOEKdr.s 			page 14


 445 018c 83308100 		ld	ra,8(sp)
 446              		.cfi_restore 1
 447 0190 03340100 		ld	s0,0(sp)
 448              		.cfi_restore 8
 449              		.cfi_def_cfa 2, 16
 450 0194 13010101 		addi	sp,sp,16
 451              		.cfi_def_cfa_offset 0
 452 0198 67800000 		jr	ra
 453              		.cfi_endproc
 454              	.LFE35:
 455              		.section	.gcc_except_table
 456              	.LLSDA35:
 457 0008 FF       		.byte	0xff
 458 0009 FF       		.byte	0xff
 459 000a 03       		.byte	0x3
 460 000b 00       		.byte	0
 461              		.text
 463              		.align	2
 464              		.globl	_ZN6ThreadD0Ev
 466              	_ZN6ThreadD0Ev:
 467              	.LFB46:
  57:src/syscall_cpp.cpp ****     //ne treba da se gasi running nit, vec nit na koju pokazuje rucka od this
 468              		.loc 2 57 1 is_stmt 1
 469              		.cfi_startproc
 470              	.LVL31:
 471 019c 130101FE 		addi	sp,sp,-32
 472              		.cfi_def_cfa_offset 32
 473 01a0 233C1100 		sd	ra,24(sp)
 474 01a4 23388100 		sd	s0,16(sp)
 475 01a8 23349100 		sd	s1,8(sp)
 476              		.cfi_offset 1, -8
 477              		.cfi_offset 8, -16
 478              		.cfi_offset 9, -24
 479 01ac 13040102 		addi	s0,sp,32
 480              		.cfi_def_cfa 8, 0
 481 01b0 93040500 		mv	s1,a0
  61:src/syscall_cpp.cpp **** 
 482              		.loc 2 61 1 is_stmt 0
 483 01b4 97000000 		call	_ZN6ThreadD1Ev
 483      E7800000 
 484              	.LVL32:
 485 01bc 13850400 		mv	a0,s1
 486 01c0 97000000 		call	_ZdlPv
 486      E7800000 
 487              	.LVL33:
 488 01c8 83308101 		ld	ra,24(sp)
 489              		.cfi_restore 1
 490 01cc 03340101 		ld	s0,16(sp)
 491              		.cfi_restore 8
 492              		.cfi_def_cfa 2, 32
 493 01d0 83348100 		ld	s1,8(sp)
 494              		.cfi_restore 9
 495              	.LVL34:
 496 01d4 13010102 		addi	sp,sp,32
 497              		.cfi_def_cfa_offset 0
 498 01d8 67800000 		jr	ra
 499              		.cfi_endproc
GAS LISTING /tmp/ccDOEKdr.s 			page 15


 500              	.LFE46:
 502              		.section	.text._ZN14PeriodicThreadD0Ev,"axG",@progbits,_ZN14PeriodicThreadD5Ev,comdat
 503              		.align	2
 504              		.weak	_ZN14PeriodicThreadD0Ev
 506              	_ZN14PeriodicThreadD0Ev:
 507              	.LFB77:
  81:src/../h/syscall_cpp.hpp **** public:
 508              		.loc 1 81 7 is_stmt 1
 509              		.cfi_startproc
 510              	.LVL35:
 511 0000 130101FE 		addi	sp,sp,-32
 512              		.cfi_def_cfa_offset 32
 513 0004 233C1100 		sd	ra,24(sp)
 514 0008 23388100 		sd	s0,16(sp)
 515 000c 23349100 		sd	s1,8(sp)
 516              		.cfi_offset 1, -8
 517              		.cfi_offset 8, -16
 518              		.cfi_offset 9, -24
 519 0010 13040102 		addi	s0,sp,32
 520              		.cfi_def_cfa 8, 0
 521 0014 93040500 		mv	s1,a0
 522              	.LVL36:
 523              	.LBB75:
 524              	.LBB76:
  81:src/../h/syscall_cpp.hpp **** public:
 525              		.loc 1 81 7 is_stmt 0
 526 0018 97070000 		lla	a5,_ZTV14PeriodicThread+16
 526      93870700 
 527 0020 2330F500 		sd	a5,0(a0)
 528 0024 97000000 		call	_ZN6ThreadD2Ev
 528      E7800000 
 529              	.LVL37:
 530              	.LBE76:
 531              	.LBE75:
 532 002c 13850400 		mv	a0,s1
 533 0030 97000000 		call	_ZdlPv
 533      E7800000 
 534              	.LVL38:
 535 0038 83308101 		ld	ra,24(sp)
 536              		.cfi_restore 1
 537 003c 03340101 		ld	s0,16(sp)
 538              		.cfi_restore 8
 539              		.cfi_def_cfa 2, 32
 540 0040 83348100 		ld	s1,8(sp)
 541              		.cfi_restore 9
 542              	.LVL39:
 543 0044 13010102 		addi	sp,sp,32
 544              		.cfi_def_cfa_offset 0
 545 0048 67800000 		jr	ra
 546              		.cfi_endproc
 547              	.LFE77:
 549              		.text
 550              		.align	2
 551              		.globl	_ZN9SemaphoreD0Ev
 553              	_ZN9SemaphoreD0Ev:
 554              	.LFB64:
 116:src/syscall_cpp.cpp ****     sem_close(myHandle);
GAS LISTING /tmp/ccDOEKdr.s 			page 16


 555              		.loc 2 116 1 is_stmt 1
 556              		.cfi_startproc
 557              	.LVL40:
 558 01dc 130101FE 		addi	sp,sp,-32
 559              		.cfi_def_cfa_offset 32
 560 01e0 233C1100 		sd	ra,24(sp)
 561 01e4 23388100 		sd	s0,16(sp)
 562 01e8 23349100 		sd	s1,8(sp)
 563              		.cfi_offset 1, -8
 564              		.cfi_offset 8, -16
 565              		.cfi_offset 9, -24
 566 01ec 13040102 		addi	s0,sp,32
 567              		.cfi_def_cfa 8, 0
 568 01f0 93040500 		mv	s1,a0
 569              		.loc 2 119 1 is_stmt 0
 570 01f4 97000000 		call	_ZN9SemaphoreD1Ev
 570      E7800000 
 571              	.LVL41:
 572 01fc 13850400 		mv	a0,s1
 573 0200 97000000 		call	_ZdlPv
 573      E7800000 
 574              	.LVL42:
 575 0208 83308101 		ld	ra,24(sp)
 576              		.cfi_restore 1
 577 020c 03340101 		ld	s0,16(sp)
 578              		.cfi_restore 8
 579              		.cfi_def_cfa 2, 32
 580 0210 83348100 		ld	s1,8(sp)
 581              		.cfi_restore 9
 582              	.LVL43:
 583 0214 13010102 		addi	sp,sp,32
 584              		.cfi_def_cfa_offset 0
 585 0218 67800000 		jr	ra
 586              		.cfi_endproc
 587              	.LFE64:
 589              		.align	2
 590              		.globl	_ZdaPv
 592              	_ZdaPv:
 593              	.LFB36:
  29:src/syscall_cpp.cpp **** mem_free(ptr);
 594              		.loc 2 29 10 is_stmt 1
 595              		.cfi_startproc
 596              		.cfi_personality 0x9b,DW.ref.__gxx_personality_v0
 597              		.cfi_lsda 0x1b,.LLSDA36
 598              	.LVL44:
 599 021c 130101FF 		addi	sp,sp,-16
 600              		.cfi_def_cfa_offset 16
 601 0220 23341100 		sd	ra,8(sp)
 602 0224 23308100 		sd	s0,0(sp)
 603              		.cfi_offset 1, -8
 604              		.cfi_offset 8, -16
 605 0228 13040101 		addi	s0,sp,16
 606              		.cfi_def_cfa 8, 0
  30:src/syscall_cpp.cpp **** }
 607              		.loc 2 30 1
  30:src/syscall_cpp.cpp **** }
 608              		.loc 2 30 9 is_stmt 0
GAS LISTING /tmp/ccDOEKdr.s 			page 17


 609 022c 97000000 		call	_Z8mem_freePv@plt
 609      E7800000 
 610              	.LVL45:
  31:src/syscall_cpp.cpp **** 
 611              		.loc 2 31 1
 612 0234 83308100 		ld	ra,8(sp)
 613              		.cfi_restore 1
 614 0238 03340100 		ld	s0,0(sp)
 615              		.cfi_restore 8
 616              		.cfi_def_cfa 2, 16
 617 023c 13010101 		addi	sp,sp,16
 618              		.cfi_def_cfa_offset 0
 619 0240 67800000 		jr	ra
 620              		.cfi_endproc
 621              	.LFE36:
 622              		.section	.gcc_except_table
 623              	.LLSDA36:
 624 000c FF       		.byte	0xff
 625 000d FF       		.byte	0xff
 626 000e 03       		.byte	0x3
 627 000f 00       		.byte	0
 628              		.text
 630              		.align	2
 631              		.globl	_ZN6ThreadC2EPFvPvES0_
 633              	_ZN6ThreadC2EPFvPvES0_:
 634              	.LFB38:
  33:src/syscall_cpp.cpp ****     this->body = body;
 635              		.loc 2 33 1 is_stmt 1
 636              		.cfi_startproc
 637              	.LVL46:
 638 0244 130101FD 		addi	sp,sp,-48
 639              		.cfi_def_cfa_offset 48
 640 0248 23341102 		sd	ra,40(sp)
 641 024c 23308102 		sd	s0,32(sp)
 642 0250 233C9100 		sd	s1,24(sp)
 643 0254 23382101 		sd	s2,16(sp)
 644 0258 23343101 		sd	s3,8(sp)
 645              		.cfi_offset 1, -8
 646              		.cfi_offset 8, -16
 647              		.cfi_offset 9, -24
 648              		.cfi_offset 18, -32
 649              		.cfi_offset 19, -40
 650 025c 13040103 		addi	s0,sp,48
 651              		.cfi_def_cfa 8, 0
 652 0260 93040500 		mv	s1,a0
 653 0264 13890500 		mv	s2,a1
 654 0268 93090600 		mv	s3,a2
 655              	.LBB77:
  33:src/syscall_cpp.cpp ****     this->body = body;
 656              		.loc 2 33 47 is_stmt 0
 657 026c 97070000 		lla	a5,_ZTV6Thread+16
 657      93870700 
 658 0274 2330F500 		sd	a5,0(a0)
 659              	.LBB78:
  34:src/syscall_cpp.cpp ****     this->arg = arg;
 660              		.loc 2 34 5 is_stmt 1
  34:src/syscall_cpp.cpp ****     this->arg = arg;
GAS LISTING /tmp/ccDOEKdr.s 			page 18


 661              		.loc 2 34 16 is_stmt 0
 662 0278 2338B500 		sd	a1,16(a0)
  35:src/syscall_cpp.cpp ****     //stvaranje steka ako se ne radi o main kernel niti, posto ona automatski ima stek
 663              		.loc 2 35 5 is_stmt 1
  35:src/syscall_cpp.cpp ****     //stvaranje steka ako se ne radi o main kernel niti, posto ona automatski ima stek
 664              		.loc 2 35 15 is_stmt 0
 665 027c 233CC500 		sd	a2,24(a0)
  37:src/syscall_cpp.cpp ****     if (body != (TCB::Body)main) {
 666              		.loc 2 37 5 is_stmt 1
 667              	.LVL47:
  38:src/syscall_cpp.cpp ****         stack = (uint64*)mem_alloc(DEFAULT_STACK_SIZE);
 668              		.loc 2 38 5
 669 0280 97070000 		la	a5,main
 669      83B70700 
 670 0288 6386F504 		beq	a1,a5,.L41
  39:src/syscall_cpp.cpp ****     }
 671              		.loc 2 39 9
  39:src/syscall_cpp.cpp ****     }
 672              		.loc 2 39 35 is_stmt 0
 673 028c 37150000 		li	a0,4096
 674              	.LVL48:
 675 0290 97000000 		call	_Z9mem_allocm@plt
 675      E7800000 
 676              	.LVL49:
 677 0298 13030500 		mv	t1,a0
 678              	.LVL50:
 679              	.L40:
  42:src/syscall_cpp.cpp ****     __asm__ volatile("mv a3, %[arg]": :[arg] "r"(arg):"a5", "a0", "a1", "a2", "a3", "a4", "a6", "a7
 680              		.loc 2 42 5 is_stmt 1
  42:src/syscall_cpp.cpp ****     __asm__ volatile("mv a3, %[arg]": :[arg] "r"(arg):"a5", "a0", "a1", "a2", "a3", "a4", "a6", "a7
 681              		.loc 2 42 102 is_stmt 0
 682              	#APP
 683              	# 42 "src/syscall_cpp.cpp" 1
  43:src/syscall_cpp.cpp ****     __asm__ volatile("mv a2, %[function]": :[function] "r"(
 684              		mv a4, t1
 685              	# 0 "" 2
 686              		.loc 2 43 5 is_stmt 1
  43:src/syscall_cpp.cpp ****     __asm__ volatile("mv a2, %[function]": :[function] "r"(
 687              		.loc 2 43 102 is_stmt 0
 688              	# 43 "src/syscall_cpp.cpp" 1
  44:src/syscall_cpp.cpp ****             body):"a5", "a0", "a1", "a2", "a3", "a4", "a6", "a7");
 689              		mv a3, s3
 690              	# 0 "" 2
 691              		.loc 2 44 5 is_stmt 1
  45:src/syscall_cpp.cpp ****     __asm__ volatile("mv a1, %[handle]": :[handle] "r"(&myHandle):"a5", "a0", "a1", "a2", "a3", "a4
 692              		.loc 2 45 66 is_stmt 0
 693              	# 45 "src/syscall_cpp.cpp" 1
  46:src/syscall_cpp.cpp ****     __asm__ volatile("li a0, 0x80");
 694              		mv a2, s2
 695              	# 0 "" 2
 696              		.loc 2 46 5 is_stmt 1
  46:src/syscall_cpp.cpp ****     __asm__ volatile("li a0, 0x80");
 697              		.loc 2 46 56 is_stmt 0
 698              	#NO_APP
 699 02a8 93848400 		addi	s1,s1,8
 700              	.LVL51:
  46:src/syscall_cpp.cpp ****     __asm__ volatile("li a0, 0x80");
GAS LISTING /tmp/ccDOEKdr.s 			page 19


 701              		.loc 2 46 114
 702              	#APP
 703              	# 46 "src/syscall_cpp.cpp" 1
  47:src/syscall_cpp.cpp ****     //a0 = 0x80
 704              		mv a1, s1
 705              	# 0 "" 2
 706              		.loc 2 47 5 is_stmt 1
  47:src/syscall_cpp.cpp ****     //a0 = 0x80
 707              		.loc 2 47 36 is_stmt 0
 708              	# 47 "src/syscall_cpp.cpp" 1
  54:src/syscall_cpp.cpp **** }
 709              		li a0, 0x80
 710              	# 0 "" 2
 711              		.loc 2 54 5 is_stmt 1
  54:src/syscall_cpp.cpp **** }
 712              		.loc 2 54 30 is_stmt 0
 713              	# 54 "src/syscall_cpp.cpp" 1
 714              		ecall
 715              	# 0 "" 2
 716              	#NO_APP
 717              	.LBE78:
 718              	.LBE77:
  55:src/syscall_cpp.cpp **** 
 719              		.loc 2 55 1
 720 02b8 83308102 		ld	ra,40(sp)
 721              		.cfi_remember_state
 722              		.cfi_restore 1
 723 02bc 03340102 		ld	s0,32(sp)
 724              		.cfi_restore 8
 725              		.cfi_def_cfa 2, 48
 726 02c0 83348101 		ld	s1,24(sp)
 727              		.cfi_restore 9
 728              	.LVL52:
 729 02c4 03390101 		ld	s2,16(sp)
 730              		.cfi_restore 18
 731              	.LVL53:
 732 02c8 83398100 		ld	s3,8(sp)
 733              		.cfi_restore 19
 734              	.LVL54:
 735 02cc 13010103 		addi	sp,sp,48
 736              		.cfi_def_cfa_offset 0
 737 02d0 67800000 		jr	ra
 738              	.LVL55:
 739              	.L41:
 740              		.cfi_restore_state
 741              	.LBB80:
 742              	.LBB79:
  37:src/syscall_cpp.cpp ****     if (body != (TCB::Body)main) {
 743              		.loc 2 37 13
 744 02d4 13030000 		li	t1,0
 745 02d8 6FF05FFC 		j	.L40
 746              	.LBE79:
 747              	.LBE80:
 748              		.cfi_endproc
 749              	.LFE38:
 751              		.globl	_ZN6ThreadC1EPFvPvES0_
 752              		.set	_ZN6ThreadC1EPFvPvES0_,_ZN6ThreadC2EPFvPvES0_
GAS LISTING /tmp/ccDOEKdr.s 			page 20


 753              		.align	2
 754              		.globl	_ZN6Thread5startEv
 756              	_ZN6Thread5startEv:
 757              	.LFB47:
  63:src/syscall_cpp.cpp ****     if (myHandle == nullptr || myHandle->getStatus() != TCB::CREATED) return -1;
 758              		.loc 2 63 21 is_stmt 1
 759              		.cfi_startproc
 760              	.LVL56:
 761 02dc 130101FF 		addi	sp,sp,-16
 762              		.cfi_def_cfa_offset 16
 763 02e0 23348100 		sd	s0,8(sp)
 764              		.cfi_offset 8, -8
 765 02e4 13040101 		addi	s0,sp,16
 766              		.cfi_def_cfa 8, 0
  64:src/syscall_cpp.cpp ****     __asm__ volatile("mv a1, %[handle]": :[handle] "r"(myHandle):"a5", "a0", "a1", "a2", "a3", "a4"
 767              		.loc 2 64 5
  64:src/syscall_cpp.cpp ****     __asm__ volatile("mv a1, %[handle]": :[handle] "r"(myHandle):"a5", "a0", "a1", "a2", "a3", "a4"
 768              		.loc 2 64 9 is_stmt 0
 769 02e8 03338500 		ld	t1,8(a0)
  64:src/syscall_cpp.cpp ****     __asm__ volatile("mv a1, %[handle]": :[handle] "r"(myHandle):"a5", "a0", "a1", "a2", "a3", "a4"
 770              		.loc 2 64 29
 771 02ec 63040302 		beqz	t1,.L45
 772              	.LVL57:
 773              	.LBB81:
 774              	.LBB82:
 775              		.file 4 "src/../h/TCB.hpp"
   1:src/../h/TCB.hpp **** //
   2:src/../h/TCB.hpp **** // Created by os on 5/23/23.
   3:src/../h/TCB.hpp **** //
   4:src/../h/TCB.hpp **** 
   5:src/../h/TCB.hpp **** #ifndef PROJEKAT2023_TCB_HPP
   6:src/../h/TCB.hpp **** #define PROJEKAT2023_TCB_HPP
   7:src/../h/TCB.hpp **** 
   8:src/../h/TCB.hpp **** #include "../lib/hw.h"
   9:src/../h/TCB.hpp **** #include "../h/ThreadQueue.hpp"
  10:src/../h/TCB.hpp **** 
  11:src/../h/TCB.hpp **** int main();
  12:src/../h/TCB.hpp **** 
  13:src/../h/TCB.hpp **** class TCB {
  14:src/../h/TCB.hpp **** public:
  15:src/../h/TCB.hpp ****     friend class Scheduler;
  16:src/../h/TCB.hpp **** 
  17:src/../h/TCB.hpp ****     using Body = void (*)(void*);
  18:src/../h/TCB.hpp **** 
  19:src/../h/TCB.hpp ****     enum ThreadStatus {
  20:src/../h/TCB.hpp ****         CREATED, ACTIVE, BLOCKED, JOINING, SLEEPING, FINISHED
  21:src/../h/TCB.hpp ****     };
  22:src/../h/TCB.hpp **** 
  23:src/../h/TCB.hpp ****     void setStatus(ThreadStatus stat) { this->status = stat; }
  24:src/../h/TCB.hpp **** 
  25:src/../h/TCB.hpp ****     ThreadStatus getStatus() { return this->status; }
 776              		.loc 4 25 32 is_stmt 1 discriminator 2
 777              		.loc 4 25 45 is_stmt 0 discriminator 2
 778 02f0 83278305 		lw	a5,88(t1)
 779              	.LVL58:
 780              	.LBE82:
 781              	.LBE81:
GAS LISTING /tmp/ccDOEKdr.s 			page 21


  64:src/syscall_cpp.cpp ****     __asm__ volatile("mv a1, %[handle]": :[handle] "r"(myHandle):"a5", "a0", "a1", "a2", "a3", "a4"
 782              		.loc 2 64 29 discriminator 2
 783 02f4 63940702 		bnez	a5,.L46
  65:src/syscall_cpp.cpp ****     __asm__ volatile("li a0, 0x81");
 784              		.loc 2 65 5 is_stmt 1
  65:src/syscall_cpp.cpp ****     __asm__ volatile("li a0, 0x81");
 785              		.loc 2 65 113 is_stmt 0
 786              	#APP
 787              	# 65 "src/syscall_cpp.cpp" 1
 788              		mv a1, t1
 789              	# 0 "" 2
 790              	.LVL59:
  66:src/syscall_cpp.cpp **** 
 791              		.loc 2 66 5 is_stmt 1
  66:src/syscall_cpp.cpp **** 
 792              		.loc 2 66 36 is_stmt 0
 793              	# 66 "src/syscall_cpp.cpp" 1
  68:src/syscall_cpp.cpp **** 
 794              		li a0, 0x81
 795              	# 0 "" 2
 796              		.loc 2 68 5 is_stmt 1
  68:src/syscall_cpp.cpp **** 
 797              		.loc 2 68 30 is_stmt 0
 798              	# 68 "src/syscall_cpp.cpp" 1
  70:src/syscall_cpp.cpp **** }
 799              		ecall
 800              	# 0 "" 2
 801              		.loc 2 70 5 is_stmt 1
  70:src/syscall_cpp.cpp **** }
 802              		.loc 2 70 12 is_stmt 0
 803              	#NO_APP
 804 0304 13050000 		li	a0,0
 805              	.L44:
  71:src/syscall_cpp.cpp **** 
 806              		.loc 2 71 1
 807 0308 03348100 		ld	s0,8(sp)
 808              		.cfi_remember_state
 809              		.cfi_restore 8
 810              		.cfi_def_cfa 2, 16
 811 030c 13010101 		addi	sp,sp,16
 812              		.cfi_def_cfa_offset 0
 813 0310 67800000 		jr	ra
 814              	.LVL60:
 815              	.L45:
 816              		.cfi_restore_state
  64:src/syscall_cpp.cpp ****     __asm__ volatile("mv a1, %[handle]": :[handle] "r"(myHandle):"a5", "a0", "a1", "a2", "a3", "a4"
 817              		.loc 2 64 79
 818 0314 1305F0FF 		li	a0,-1
 819              	.LVL61:
 820 0318 6FF01FFF 		j	.L44
 821              	.LVL62:
 822              	.L46:
 823 031c 1305F0FF 		li	a0,-1
 824              	.LVL63:
 825 0320 6FF09FFE 		j	.L44
 826              		.cfi_endproc
 827              	.LFE47:
GAS LISTING /tmp/ccDOEKdr.s 			page 22


 829              		.align	2
 830              		.globl	_ZN6Thread4joinEv
 832              	_ZN6Thread4joinEv:
 833              	.LFB48:
  73:src/syscall_cpp.cpp ****     thread_join(myHandle);
 834              		.loc 2 73 21 is_stmt 1
 835              		.cfi_startproc
 836              	.LVL64:
 837 0324 130101FF 		addi	sp,sp,-16
 838              		.cfi_def_cfa_offset 16
 839 0328 23341100 		sd	ra,8(sp)
 840 032c 23308100 		sd	s0,0(sp)
 841              		.cfi_offset 1, -8
 842              		.cfi_offset 8, -16
 843 0330 13040101 		addi	s0,sp,16
 844              		.cfi_def_cfa 8, 0
  74:src/syscall_cpp.cpp **** }
 845              		.loc 2 74 5
  74:src/syscall_cpp.cpp **** }
 846              		.loc 2 74 16 is_stmt 0
 847 0334 03358500 		ld	a0,8(a0)
 848              	.LVL65:
 849 0338 97000000 		call	_Z11thread_joinP3TCB@plt
 849      E7800000 
 850              	.LVL66:
  75:src/syscall_cpp.cpp **** 
 851              		.loc 2 75 1
 852 0340 83308100 		ld	ra,8(sp)
 853              		.cfi_restore 1
 854 0344 03340100 		ld	s0,0(sp)
 855              		.cfi_restore 8
 856              		.cfi_def_cfa 2, 16
 857 0348 13010101 		addi	sp,sp,16
 858              		.cfi_def_cfa_offset 0
 859 034c 67800000 		jr	ra
 860              		.cfi_endproc
 861              	.LFE48:
 863              		.align	2
 864              		.globl	_ZN6Thread8dispatchEv
 866              	_ZN6Thread8dispatchEv:
 867              	.LFB49:
  77:src/syscall_cpp.cpp ****     thread_dispatch();
 868              		.loc 2 77 25 is_stmt 1
 869              		.cfi_startproc
 870 0350 130101FF 		addi	sp,sp,-16
 871              		.cfi_def_cfa_offset 16
 872 0354 23341100 		sd	ra,8(sp)
 873 0358 23308100 		sd	s0,0(sp)
 874              		.cfi_offset 1, -8
 875              		.cfi_offset 8, -16
 876 035c 13040101 		addi	s0,sp,16
 877              		.cfi_def_cfa 8, 0
  78:src/syscall_cpp.cpp **** }
 878              		.loc 2 78 5
  78:src/syscall_cpp.cpp **** }
 879              		.loc 2 78 20 is_stmt 0
 880 0360 97000000 		call	_Z15thread_dispatchv@plt
GAS LISTING /tmp/ccDOEKdr.s 			page 23


 880      E7800000 
 881              	.LVL67:
  79:src/syscall_cpp.cpp **** 
 882              		.loc 2 79 1
 883 0368 83308100 		ld	ra,8(sp)
 884              		.cfi_restore 1
 885 036c 03340100 		ld	s0,0(sp)
 886              		.cfi_restore 8
 887              		.cfi_def_cfa 2, 16
 888 0370 13010101 		addi	sp,sp,16
 889              		.cfi_def_cfa_offset 0
 890 0374 67800000 		jr	ra
 891              		.cfi_endproc
 892              	.LFE49:
 894              		.align	2
 895              		.globl	_ZN6Thread5sleepEm
 897              	_ZN6Thread5sleepEm:
 898              	.LFB50:
  81:src/syscall_cpp.cpp ****     time_sleep(t);
 899              		.loc 2 81 29 is_stmt 1
 900              		.cfi_startproc
 901              	.LVL68:
 902 0378 130101FF 		addi	sp,sp,-16
 903              		.cfi_def_cfa_offset 16
 904 037c 23341100 		sd	ra,8(sp)
 905 0380 23308100 		sd	s0,0(sp)
 906              		.cfi_offset 1, -8
 907              		.cfi_offset 8, -16
 908 0384 13040101 		addi	s0,sp,16
 909              		.cfi_def_cfa 8, 0
  82:src/syscall_cpp.cpp ****     return 0;
 910              		.loc 2 82 5
  82:src/syscall_cpp.cpp ****     return 0;
 911              		.loc 2 82 15 is_stmt 0
 912 0388 97000000 		call	_Z10time_sleepm@plt
 912      E7800000 
 913              	.LVL69:
  83:src/syscall_cpp.cpp **** }
 914              		.loc 2 83 5 is_stmt 1
  84:src/syscall_cpp.cpp **** 
 915              		.loc 2 84 1 is_stmt 0
 916 0390 13050000 		li	a0,0
 917 0394 83308100 		ld	ra,8(sp)
 918              		.cfi_restore 1
 919 0398 03340100 		ld	s0,0(sp)
 920              		.cfi_restore 8
 921              		.cfi_def_cfa 2, 16
 922 039c 13010101 		addi	sp,sp,16
 923              		.cfi_def_cfa_offset 0
 924 03a0 67800000 		jr	ra
 925              		.cfi_endproc
 926              	.LFE50:
 928              		.align	2
 929              		.globl	_ZN14PeriodicThread3runEv
 931              	_ZN14PeriodicThread3runEv:
 932              	.LFB71:
 120:src/syscall_cpp.cpp **** 
GAS LISTING /tmp/ccDOEKdr.s 			page 24


 121:src/syscall_cpp.cpp **** int Semaphore::wait() {
 122:src/syscall_cpp.cpp ****     return sem_wait(myHandle);
 123:src/syscall_cpp.cpp **** }
 124:src/syscall_cpp.cpp **** 
 125:src/syscall_cpp.cpp **** int Semaphore::signal() {
 126:src/syscall_cpp.cpp ****     return sem_signal(myHandle);
 127:src/syscall_cpp.cpp **** }
 128:src/syscall_cpp.cpp **** 
 129:src/syscall_cpp.cpp **** void PeriodicThread::terminate() {
 130:src/syscall_cpp.cpp ****     this->period = -1;
 131:src/syscall_cpp.cpp **** }
 132:src/syscall_cpp.cpp **** 
 133:src/syscall_cpp.cpp **** PeriodicThread::PeriodicThread(time_t period) : Thread(), period(period) {
 134:src/syscall_cpp.cpp ****     if (this->period < 0) this->period = 2;
 135:src/syscall_cpp.cpp **** }
 136:src/syscall_cpp.cpp **** 
 137:src/syscall_cpp.cpp **** void PeriodicThread::run() {
 933              		.loc 2 137 28 is_stmt 1
 934              		.cfi_startproc
 935              	.LVL70:
 936 03a4 130101FE 		addi	sp,sp,-32
 937              		.cfi_def_cfa_offset 32
 938 03a8 233C1100 		sd	ra,24(sp)
 939 03ac 23388100 		sd	s0,16(sp)
 940 03b0 23349100 		sd	s1,8(sp)
 941              		.cfi_offset 1, -8
 942              		.cfi_offset 8, -16
 943              		.cfi_offset 9, -24
 944 03b4 13040102 		addi	s0,sp,32
 945              		.cfi_def_cfa 8, 0
 946 03b8 93040500 		mv	s1,a0
 947              	.LVL71:
 948              	.L56:
 138:src/syscall_cpp.cpp ****     while (period != -1UL) {
 949              		.loc 2 138 5
 950              		.loc 2 138 19
 951              		.loc 2 138 12 is_stmt 0
 952 03bc 03B70402 		ld	a4,32(s1)
 953              		.loc 2 138 19
 954 03c0 9307F0FF 		li	a5,-1
 955 03c4 6306F702 		beq	a4,a5,.L55
 139:src/syscall_cpp.cpp ****         periodicActivation();
 956              		.loc 2 139 9 is_stmt 1
 957              		.loc 2 139 28 is_stmt 0
 958 03c8 83B70400 		ld	a5,0(s1)
 959 03cc 83B78701 		ld	a5,24(a5)
 960              		.loc 2 139 27
 961 03d0 13850400 		mv	a0,s1
 962 03d4 E7800700 		jalr	a5
 963              	.LVL72:
 140:src/syscall_cpp.cpp ****         if (period == -1UL) break;
 964              		.loc 2 140 9 is_stmt 1
 965              		.loc 2 140 13 is_stmt 0
 966 03d8 03B50402 		ld	a0,32(s1)
 967              		.loc 2 140 9
 968 03dc 9307F0FF 		li	a5,-1
 969 03e0 6308F500 		beq	a0,a5,.L55
GAS LISTING /tmp/ccDOEKdr.s 			page 25


 141:src/syscall_cpp.cpp ****         sleep(period);
 970              		.loc 2 141 9 is_stmt 1
 971              		.loc 2 141 14 is_stmt 0
 972 03e4 97000000 		call	_ZN6Thread5sleepEm
 972      E7800000 
 973              	.LVL73:
 138:src/syscall_cpp.cpp ****         periodicActivation();
 974              		.loc 2 138 5
 975 03ec 6FF01FFD 		j	.L56
 976              	.L55:
 142:src/syscall_cpp.cpp ****     }
 143:src/syscall_cpp.cpp ****     thread_exit();
 977              		.loc 2 143 5 is_stmt 1
 978              		.loc 2 143 16 is_stmt 0
 979 03f0 97000000 		call	_Z11thread_exitv@plt
 979      E7800000 
 980              	.LVL74:
 144:src/syscall_cpp.cpp **** }
 981              		.loc 2 144 1
 982 03f8 83308101 		ld	ra,24(sp)
 983              		.cfi_restore 1
 984 03fc 03340101 		ld	s0,16(sp)
 985              		.cfi_restore 8
 986              		.cfi_def_cfa 2, 32
 987 0400 83348100 		ld	s1,8(sp)
 988              		.cfi_restore 9
 989              	.LVL75:
 990 0404 13010102 		addi	sp,sp,32
 991              		.cfi_def_cfa_offset 0
 992 0408 67800000 		jr	ra
 993              		.cfi_endproc
 994              	.LFE71:
 996              		.align	2
 997              		.globl	_ZN6ThreadC2Ev
 999              	_ZN6ThreadC2Ev:
 1000              	.LFB52:
  86:src/syscall_cpp.cpp ****     this->body = wrapper;
 1001              		.loc 2 86 1 is_stmt 1
 1002              		.cfi_startproc
 1003              	.LVL76:
 1004 040c 130101FE 		addi	sp,sp,-32
 1005              		.cfi_def_cfa_offset 32
 1006 0410 233C1100 		sd	ra,24(sp)
 1007 0414 23388100 		sd	s0,16(sp)
 1008 0418 23349100 		sd	s1,8(sp)
 1009              		.cfi_offset 1, -8
 1010              		.cfi_offset 8, -16
 1011              		.cfi_offset 9, -24
 1012 041c 13040102 		addi	s0,sp,32
 1013              		.cfi_def_cfa 8, 0
 1014 0420 93040500 		mv	s1,a0
 1015              	.LBB83:
  86:src/syscall_cpp.cpp ****     this->body = wrapper;
 1016              		.loc 2 86 16 is_stmt 0
 1017 0424 97070000 		lla	a5,_ZTV6Thread+16
 1017      93870700 
 1018 042c 2330F500 		sd	a5,0(a0)
GAS LISTING /tmp/ccDOEKdr.s 			page 26


 1019              	.LBB84:
  87:src/syscall_cpp.cpp ****     this->arg = this;
 1020              		.loc 2 87 5 is_stmt 1
  87:src/syscall_cpp.cpp ****     this->arg = this;
 1021              		.loc 2 87 16 is_stmt 0
 1022 0430 97070000 		lla	a5,_ZN6Thread7wrapperEPv
 1022      93870700 
 1023 0438 2338F500 		sd	a5,16(a0)
  88:src/syscall_cpp.cpp ****     uint64* stack = (uint64*)mem_alloc(DEFAULT_STACK_SIZE);
 1024              		.loc 2 88 5 is_stmt 1
  88:src/syscall_cpp.cpp ****     uint64* stack = (uint64*)mem_alloc(DEFAULT_STACK_SIZE);
 1025              		.loc 2 88 15 is_stmt 0
 1026 043c 233CA500 		sd	a0,24(a0)
  89:src/syscall_cpp.cpp ****     //stavljanje argumenata za sistemski poziv
 1027              		.loc 2 89 5 is_stmt 1
  89:src/syscall_cpp.cpp ****     //stavljanje argumenata za sistemski poziv
 1028              		.loc 2 89 39 is_stmt 0
 1029 0440 37150000 		li	a0,4096
 1030              	.LVL77:
 1031 0444 97000000 		call	_Z9mem_allocm@plt
 1031      E7800000 
 1032              	.LVL78:
 1033 044c 13030500 		mv	t1,a0
 1034              	.LVL79:
  91:src/syscall_cpp.cpp ****     __asm__ volatile("mv a3, %[arg]": :[arg] "r"(arg):"a5", "a0", "a1", "a2", "a3", "a4", "a6", "a7
 1035              		.loc 2 91 5 is_stmt 1
  91:src/syscall_cpp.cpp ****     __asm__ volatile("mv a3, %[arg]": :[arg] "r"(arg):"a5", "a0", "a1", "a2", "a3", "a4", "a6", "a7
 1036              		.loc 2 91 102 is_stmt 0
 1037              	#APP
 1038              	# 91 "src/syscall_cpp.cpp" 1
  92:src/syscall_cpp.cpp ****     __asm__ volatile("mv a2, %[function]": :[function] "r"(
 1039              		mv a4, t1
 1040              	# 0 "" 2
 1041              		.loc 2 92 5 is_stmt 1
  92:src/syscall_cpp.cpp ****     __asm__ volatile("mv a2, %[function]": :[function] "r"(
 1042              		.loc 2 92 50 is_stmt 0
 1043              	#NO_APP
 1044 0454 03B38401 		ld	t1,24(s1)
 1045              	.LVL80:
  92:src/syscall_cpp.cpp ****     __asm__ volatile("mv a2, %[function]": :[function] "r"(
 1046              		.loc 2 92 102
 1047              	#APP
 1048              	# 92 "src/syscall_cpp.cpp" 1
  93:src/syscall_cpp.cpp ****             body):"a5", "a0", "a1", "a2", "a3", "a4", "a6", "a7");
 1049              		mv a3, t1
 1050              	# 0 "" 2
 1051              		.loc 2 93 5 is_stmt 1
  94:src/syscall_cpp.cpp ****     __asm__ volatile("mv a1, %[handle]": :[handle] "r"(&myHandle):"a5", "a0", "a1", "a2", "a3", "a4
 1052              		.loc 2 94 13 is_stmt 0
 1053              	#NO_APP
 1054 045c 03B30401 		ld	t1,16(s1)
  94:src/syscall_cpp.cpp ****     __asm__ volatile("mv a1, %[handle]": :[handle] "r"(&myHandle):"a5", "a0", "a1", "a2", "a3", "a4
 1055              		.loc 2 94 66
 1056              	#APP
 1057              	# 94 "src/syscall_cpp.cpp" 1
  95:src/syscall_cpp.cpp ****     __asm__ volatile("li a0, 0x80");
 1058              		mv a2, t1
GAS LISTING /tmp/ccDOEKdr.s 			page 27


 1059              	# 0 "" 2
 1060              		.loc 2 95 5 is_stmt 1
  95:src/syscall_cpp.cpp ****     __asm__ volatile("li a0, 0x80");
 1061              		.loc 2 95 56 is_stmt 0
 1062              	#NO_APP
 1063 0464 93848400 		addi	s1,s1,8
 1064              	.LVL81:
  95:src/syscall_cpp.cpp ****     __asm__ volatile("li a0, 0x80");
 1065              		.loc 2 95 114
 1066              	#APP
 1067              	# 95 "src/syscall_cpp.cpp" 1
  96:src/syscall_cpp.cpp ****     //a0 = 0x80
 1068              		mv a1, s1
 1069              	# 0 "" 2
 1070              		.loc 2 96 5 is_stmt 1
  96:src/syscall_cpp.cpp ****     //a0 = 0x80
 1071              		.loc 2 96 36 is_stmt 0
 1072              	# 96 "src/syscall_cpp.cpp" 1
 103:src/syscall_cpp.cpp **** }
 1073              		li a0, 0x80
 1074              	# 0 "" 2
 1075              		.loc 2 103 5 is_stmt 1
 103:src/syscall_cpp.cpp **** }
 1076              		.loc 2 103 30 is_stmt 0
 1077              	# 103 "src/syscall_cpp.cpp" 1
 1078              		ecall
 1079              	# 0 "" 2
 1080              	#NO_APP
 1081              	.LBE84:
 1082              	.LBE83:
 104:src/syscall_cpp.cpp **** 
 1083              		.loc 2 104 1
 1084 0474 83308101 		ld	ra,24(sp)
 1085              		.cfi_restore 1
 1086 0478 03340101 		ld	s0,16(sp)
 1087              		.cfi_restore 8
 1088              		.cfi_def_cfa 2, 32
 1089 047c 83348100 		ld	s1,8(sp)
 1090              		.cfi_restore 9
 1091              	.LVL82:
 1092 0480 13010102 		addi	sp,sp,32
 1093              		.cfi_def_cfa_offset 0
 1094 0484 67800000 		jr	ra
 1095              		.cfi_endproc
 1096              	.LFE52:
 1098              		.globl	_ZN6ThreadC1Ev
 1099              		.set	_ZN6ThreadC1Ev,_ZN6ThreadC2Ev
 1100              		.align	2
 1101              		.globl	_ZN9SemaphoreC2Ej
 1103              	_ZN9SemaphoreC2Ej:
 1104              	.LFB56:
 112:src/syscall_cpp.cpp ****     sem_open(&myHandle, init);
 1105              		.loc 2 112 1 is_stmt 1
 1106              		.cfi_startproc
 1107              	.LVL83:
 1108 0488 130101FF 		addi	sp,sp,-16
 1109              		.cfi_def_cfa_offset 16
GAS LISTING /tmp/ccDOEKdr.s 			page 28


 1110 048c 23341100 		sd	ra,8(sp)
 1111 0490 23308100 		sd	s0,0(sp)
 1112              		.cfi_offset 1, -8
 1113              		.cfi_offset 8, -16
 1114 0494 13040101 		addi	s0,sp,16
 1115              		.cfi_def_cfa 8, 0
 1116              	.LBB85:
 112:src/syscall_cpp.cpp ****     sem_open(&myHandle, init);
 1117              		.loc 2 112 39 is_stmt 0
 1118 0498 97070000 		lla	a5,_ZTV9Semaphore+16
 1118      93870700 
 1119 04a0 2330F500 		sd	a5,0(a0)
 113:src/syscall_cpp.cpp **** }
 1120              		.loc 2 113 5 is_stmt 1
 113:src/syscall_cpp.cpp **** }
 1121              		.loc 2 113 13 is_stmt 0
 1122 04a4 13058500 		addi	a0,a0,8
 1123              	.LVL84:
 1124 04a8 97000000 		call	_Z8sem_openPP4KSemj@plt
 1124      E7800000 
 1125              	.LVL85:
 1126              	.LBE85:
 114:src/syscall_cpp.cpp **** 
 1127              		.loc 2 114 1
 1128 04b0 83308100 		ld	ra,8(sp)
 1129              		.cfi_restore 1
 1130 04b4 03340100 		ld	s0,0(sp)
 1131              		.cfi_restore 8
 1132              		.cfi_def_cfa 2, 16
 1133 04b8 13010101 		addi	sp,sp,16
 1134              		.cfi_def_cfa_offset 0
 1135 04bc 67800000 		jr	ra
 1136              		.cfi_endproc
 1137              	.LFE56:
 1139              		.globl	_ZN9SemaphoreC1Ej
 1140              		.set	_ZN9SemaphoreC1Ej,_ZN9SemaphoreC2Ej
 1141              		.align	2
 1142              		.globl	_ZN9Semaphore4waitEv
 1144              	_ZN9Semaphore4waitEv:
 1145              	.LFB65:
 121:src/syscall_cpp.cpp ****     return sem_wait(myHandle);
 1146              		.loc 2 121 23 is_stmt 1
 1147              		.cfi_startproc
 1148              	.LVL86:
 1149 04c0 130101FF 		addi	sp,sp,-16
 1150              		.cfi_def_cfa_offset 16
 1151 04c4 23341100 		sd	ra,8(sp)
 1152 04c8 23308100 		sd	s0,0(sp)
 1153              		.cfi_offset 1, -8
 1154              		.cfi_offset 8, -16
 1155 04cc 13040101 		addi	s0,sp,16
 1156              		.cfi_def_cfa 8, 0
 122:src/syscall_cpp.cpp **** }
 1157              		.loc 2 122 5
 122:src/syscall_cpp.cpp **** }
 1158              		.loc 2 122 20 is_stmt 0
 1159 04d0 03358500 		ld	a0,8(a0)
GAS LISTING /tmp/ccDOEKdr.s 			page 29


 1160              	.LVL87:
 1161 04d4 97000000 		call	_Z8sem_waitP4KSem@plt
 1161      E7800000 
 1162              	.LVL88:
 123:src/syscall_cpp.cpp **** 
 1163              		.loc 2 123 1
 1164 04dc 83308100 		ld	ra,8(sp)
 1165              		.cfi_restore 1
 1166 04e0 03340100 		ld	s0,0(sp)
 1167              		.cfi_restore 8
 1168              		.cfi_def_cfa 2, 16
 1169 04e4 13010101 		addi	sp,sp,16
 1170              		.cfi_def_cfa_offset 0
 1171 04e8 67800000 		jr	ra
 1172              		.cfi_endproc
 1173              	.LFE65:
 1175              		.align	2
 1176              		.globl	_ZN9Semaphore6signalEv
 1178              	_ZN9Semaphore6signalEv:
 1179              	.LFB66:
 125:src/syscall_cpp.cpp ****     return sem_signal(myHandle);
 1180              		.loc 2 125 25 is_stmt 1
 1181              		.cfi_startproc
 1182              	.LVL89:
 1183 04ec 130101FF 		addi	sp,sp,-16
 1184              		.cfi_def_cfa_offset 16
 1185 04f0 23341100 		sd	ra,8(sp)
 1186 04f4 23308100 		sd	s0,0(sp)
 1187              		.cfi_offset 1, -8
 1188              		.cfi_offset 8, -16
 1189 04f8 13040101 		addi	s0,sp,16
 1190              		.cfi_def_cfa 8, 0
 126:src/syscall_cpp.cpp **** }
 1191              		.loc 2 126 5
 126:src/syscall_cpp.cpp **** }
 1192              		.loc 2 126 22 is_stmt 0
 1193 04fc 03358500 		ld	a0,8(a0)
 1194              	.LVL90:
 1195 0500 97000000 		call	_Z10sem_signalP4KSem@plt
 1195      E7800000 
 1196              	.LVL91:
 127:src/syscall_cpp.cpp **** 
 1197              		.loc 2 127 1
 1198 0508 83308100 		ld	ra,8(sp)
 1199              		.cfi_restore 1
 1200 050c 03340100 		ld	s0,0(sp)
 1201              		.cfi_restore 8
 1202              		.cfi_def_cfa 2, 16
 1203 0510 13010101 		addi	sp,sp,16
 1204              		.cfi_def_cfa_offset 0
 1205 0514 67800000 		jr	ra
 1206              		.cfi_endproc
 1207              	.LFE66:
 1209              		.align	2
 1210              		.globl	_ZN14PeriodicThread9terminateEv
 1212              	_ZN14PeriodicThread9terminateEv:
 1213              	.LFB67:
GAS LISTING /tmp/ccDOEKdr.s 			page 30


 129:src/syscall_cpp.cpp ****     this->period = -1;
 1214              		.loc 2 129 34 is_stmt 1
 1215              		.cfi_startproc
 1216              	.LVL92:
 1217 0518 130101FF 		addi	sp,sp,-16
 1218              		.cfi_def_cfa_offset 16
 1219 051c 23348100 		sd	s0,8(sp)
 1220              		.cfi_offset 8, -8
 1221 0520 13040101 		addi	s0,sp,16
 1222              		.cfi_def_cfa 8, 0
 130:src/syscall_cpp.cpp **** }
 1223              		.loc 2 130 5
 130:src/syscall_cpp.cpp **** }
 1224              		.loc 2 130 18 is_stmt 0
 1225 0524 9307F0FF 		li	a5,-1
 1226 0528 2330F502 		sd	a5,32(a0)
 131:src/syscall_cpp.cpp **** 
 1227              		.loc 2 131 1
 1228 052c 03348100 		ld	s0,8(sp)
 1229              		.cfi_restore 8
 1230              		.cfi_def_cfa 2, 16
 1231 0530 13010101 		addi	sp,sp,16
 1232              		.cfi_def_cfa_offset 0
 1233 0534 67800000 		jr	ra
 1234              		.cfi_endproc
 1235              	.LFE67:
 1237              		.align	2
 1238              		.globl	_ZN14PeriodicThreadC2Em
 1240              	_ZN14PeriodicThreadC2Em:
 1241              	.LFB69:
 133:src/syscall_cpp.cpp ****     if (this->period < 0) this->period = 2;
 1242              		.loc 2 133 1 is_stmt 1
 1243              		.cfi_startproc
 1244              	.LVL93:
 1245 0538 130101FE 		addi	sp,sp,-32
 1246              		.cfi_def_cfa_offset 32
 1247 053c 233C1100 		sd	ra,24(sp)
 1248 0540 23388100 		sd	s0,16(sp)
 1249 0544 23349100 		sd	s1,8(sp)
 1250 0548 23302101 		sd	s2,0(sp)
 1251              		.cfi_offset 1, -8
 1252              		.cfi_offset 8, -16
 1253              		.cfi_offset 9, -24
 1254              		.cfi_offset 18, -32
 1255 054c 13040102 		addi	s0,sp,32
 1256              		.cfi_def_cfa 8, 0
 1257 0550 93040500 		mv	s1,a0
 1258 0554 13890500 		mv	s2,a1
 1259              	.LBB86:
 133:src/syscall_cpp.cpp ****     if (this->period < 0) this->period = 2;
 1260              		.loc 2 133 72 is_stmt 0
 1261 0558 97000000 		call	_ZN6ThreadC2Ev
 1261      E7800000 
 1262              	.LVL94:
 1263 0560 97070000 		lla	a5,_ZTV14PeriodicThread+16
 1263      93870700 
 1264 0568 23B0F400 		sd	a5,0(s1)
GAS LISTING /tmp/ccDOEKdr.s 			page 31


 1265 056c 23B02403 		sd	s2,32(s1)
 134:src/syscall_cpp.cpp **** }
 1266              		.loc 2 134 5 is_stmt 1
 1267              	.LBE86:
 135:src/syscall_cpp.cpp **** 
 1268              		.loc 2 135 1 is_stmt 0
 1269 0570 83308101 		ld	ra,24(sp)
 1270              		.cfi_restore 1
 1271 0574 03340101 		ld	s0,16(sp)
 1272              		.cfi_restore 8
 1273              		.cfi_def_cfa 2, 32
 1274 0578 83348100 		ld	s1,8(sp)
 1275              		.cfi_restore 9
 1276              	.LVL95:
 1277 057c 03390100 		ld	s2,0(sp)
 1278              		.cfi_restore 18
 1279              	.LVL96:
 1280 0580 13010102 		addi	sp,sp,32
 1281              		.cfi_def_cfa_offset 0
 1282 0584 67800000 		jr	ra
 1283              		.cfi_endproc
 1284              	.LFE69:
 1286              		.globl	_ZN14PeriodicThreadC1Em
 1287              		.set	_ZN14PeriodicThreadC1Em,_ZN14PeriodicThreadC2Em
 1288              		.align	2
 1289              		.globl	_ZN7Console4getcEv
 1291              	_ZN7Console4getcEv:
 1292              	.LFB72:
 145:src/syscall_cpp.cpp **** 
 146:src/syscall_cpp.cpp **** char Console::getc() {
 1293              		.loc 2 146 22 is_stmt 1
 1294              		.cfi_startproc
 1295 0588 130101FF 		addi	sp,sp,-16
 1296              		.cfi_def_cfa_offset 16
 1297 058c 23341100 		sd	ra,8(sp)
 1298 0590 23308100 		sd	s0,0(sp)
 1299              		.cfi_offset 1, -8
 1300              		.cfi_offset 8, -16
 1301 0594 13040101 		addi	s0,sp,16
 1302              		.cfi_def_cfa 8, 0
 147:src/syscall_cpp.cpp ****     return ::getc();
 1303              		.loc 2 147 5
 1304              		.loc 2 147 18 is_stmt 0
 1305 0598 97000000 		call	_Z4getcv@plt
 1305      E7800000 
 1306              	.LVL97:
 148:src/syscall_cpp.cpp **** }
 1307              		.loc 2 148 1
 1308 05a0 83308100 		ld	ra,8(sp)
 1309              		.cfi_restore 1
 1310 05a4 03340100 		ld	s0,0(sp)
 1311              		.cfi_restore 8
 1312              		.cfi_def_cfa 2, 16
 1313 05a8 13010101 		addi	sp,sp,16
 1314              		.cfi_def_cfa_offset 0
 1315 05ac 67800000 		jr	ra
 1316              		.cfi_endproc
GAS LISTING /tmp/ccDOEKdr.s 			page 32


 1317              	.LFE72:
 1319              		.align	2
 1320              		.globl	_ZN7Console4putcEc
 1322              	_ZN7Console4putcEc:
 1323              	.LFB73:
 149:src/syscall_cpp.cpp **** 
 150:src/syscall_cpp.cpp **** void Console::putc(char c) {
 1324              		.loc 2 150 28 is_stmt 1
 1325              		.cfi_startproc
 1326              	.LVL98:
 1327 05b0 130101FF 		addi	sp,sp,-16
 1328              		.cfi_def_cfa_offset 16
 1329 05b4 23341100 		sd	ra,8(sp)
 1330 05b8 23308100 		sd	s0,0(sp)
 1331              		.cfi_offset 1, -8
 1332              		.cfi_offset 8, -16
 1333 05bc 13040101 		addi	s0,sp,16
 1334              		.cfi_def_cfa 8, 0
 151:src/syscall_cpp.cpp ****     ::putc(c);
 1335              		.loc 2 151 5
 1336              		.loc 2 151 11 is_stmt 0
 1337 05c0 97000000 		call	_Z4putcc@plt
 1337      E7800000 
 1338              	.LVL99:
 152:src/syscall_cpp.cpp **** }
 1339              		.loc 2 152 1
 1340 05c8 83308100 		ld	ra,8(sp)
 1341              		.cfi_restore 1
 1342 05cc 03340100 		ld	s0,0(sp)
 1343              		.cfi_restore 8
 1344              		.cfi_def_cfa 2, 16
 1345 05d0 13010101 		addi	sp,sp,16
 1346              		.cfi_def_cfa_offset 0
 1347 05d4 67800000 		jr	ra
 1348              		.cfi_endproc
 1349              	.LFE73:
 1351              		.weak	_ZTV6Thread
 1352              		.section	.data.rel.ro.local._ZTV6Thread,"awG",@progbits,_ZTV6Thread,comdat
 1353              		.align	3
 1356              	_ZTV6Thread:
 1357 0000 00000000 		.dword	0
 1357      00000000 
 1358 0008 00000000 		.dword	0
 1358      00000000 
 1359 0010 00000000 		.dword	_ZN6ThreadD1Ev
 1359      00000000 
 1360 0018 00000000 		.dword	_ZN6ThreadD0Ev
 1360      00000000 
 1361 0020 00000000 		.dword	_ZN6Thread3runEv
 1361      00000000 
 1362              		.weak	_ZTV9Semaphore
 1363              		.section	.data.rel.ro.local._ZTV9Semaphore,"awG",@progbits,_ZTV9Semaphore,comdat
 1364              		.align	3
 1367              	_ZTV9Semaphore:
 1368 0000 00000000 		.dword	0
 1368      00000000 
 1369 0008 00000000 		.dword	0
GAS LISTING /tmp/ccDOEKdr.s 			page 33


 1369      00000000 
 1370 0010 00000000 		.dword	_ZN9SemaphoreD1Ev
 1370      00000000 
 1371 0018 00000000 		.dword	_ZN9SemaphoreD0Ev
 1371      00000000 
 1372              		.weak	_ZTV14PeriodicThread
 1373              		.section	.data.rel.ro.local._ZTV14PeriodicThread,"awG",@progbits,_ZTV14PeriodicThread,comdat
 1374              		.align	3
 1377              	_ZTV14PeriodicThread:
 1378 0000 00000000 		.dword	0
 1378      00000000 
 1379 0008 00000000 		.dword	0
 1379      00000000 
 1380 0010 00000000 		.dword	_ZN14PeriodicThreadD1Ev
 1380      00000000 
 1381 0018 00000000 		.dword	_ZN14PeriodicThreadD0Ev
 1381      00000000 
 1382 0020 00000000 		.dword	_ZN14PeriodicThread3runEv
 1382      00000000 
 1383 0028 00000000 		.dword	_ZN14PeriodicThread18periodicActivationEv
 1383      00000000 
 1384              		.text
 1385              	.Letext0:
 1386              		.file 5 "src/../h/../lib/hw.h"
 1387              		.file 6 "src/../h/KSem.hpp"
 1388              		.file 7 "src/../h/syscall_c.hpp"
 6306              		.align	3
 6309              	DW.ref.__gxx_personality_v0:
 6310 0000 00000000 		.dword	__gxx_personality_v0
 6310      00000000 
 6311              		.ident	"GCC: (Ubuntu 9.4.0-1ubuntu1~20.04) 9.4.0"
 6312              		.section	.note.GNU-stack,"",@progbits
GAS LISTING /tmp/ccDOEKdr.s 			page 34


DEFINED SYMBOLS
                            *ABS*:0000000000000000 syscall_cpp.cpp
     /tmp/ccDOEKdr.s:10     .text._ZN6Thread3runEv:0000000000000000 _ZN6Thread3runEv
     /tmp/ccDOEKdr.s:14     .text._ZN6Thread3runEv:0000000000000000 .L0 
     /tmp/ccDOEKdr.s:16     .text._ZN6Thread3runEv:0000000000000000 .L0 
     /tmp/ccDOEKdr.s:17     .text._ZN6Thread3runEv:0000000000000004 .L0 
     /tmp/ccDOEKdr.s:19     .text._ZN6Thread3runEv:0000000000000008 .L0 
     /tmp/ccDOEKdr.s:21     .text._ZN6Thread3runEv:000000000000000c .L0 
     /tmp/ccDOEKdr.s:23     .text._ZN6Thread3runEv:000000000000000c .L0 
     /tmp/ccDOEKdr.s:24     .text._ZN6Thread3runEv:0000000000000010 .L0 
     /tmp/ccDOEKdr.s:25     .text._ZN6Thread3runEv:0000000000000010 .L0 
     /tmp/ccDOEKdr.s:27     .text._ZN6Thread3runEv:0000000000000014 .L0 
     /tmp/ccDOEKdr.s:29     .text._ZN6Thread3runEv:0000000000000018 .L0 
     /tmp/ccDOEKdr.s:36     .text._ZN14PeriodicThread18periodicActivationEv:0000000000000000 _ZN14PeriodicThread18periodicActivationEv
     /tmp/ccDOEKdr.s:39     .text._ZN14PeriodicThread18periodicActivationEv:0000000000000000 .L0 
     /tmp/ccDOEKdr.s:41     .text._ZN14PeriodicThread18periodicActivationEv:0000000000000000 .L0 
     /tmp/ccDOEKdr.s:42     .text._ZN14PeriodicThread18periodicActivationEv:0000000000000004 .L0 
     /tmp/ccDOEKdr.s:44     .text._ZN14PeriodicThread18periodicActivationEv:0000000000000008 .L0 
     /tmp/ccDOEKdr.s:46     .text._ZN14PeriodicThread18periodicActivationEv:000000000000000c .L0 
     /tmp/ccDOEKdr.s:48     .text._ZN14PeriodicThread18periodicActivationEv:000000000000000c .L0 
     /tmp/ccDOEKdr.s:49     .text._ZN14PeriodicThread18periodicActivationEv:0000000000000010 .L0 
     /tmp/ccDOEKdr.s:50     .text._ZN14PeriodicThread18periodicActivationEv:0000000000000010 .L0 
     /tmp/ccDOEKdr.s:52     .text._ZN14PeriodicThread18periodicActivationEv:0000000000000014 .L0 
     /tmp/ccDOEKdr.s:54     .text._ZN14PeriodicThread18periodicActivationEv:0000000000000018 .L0 
     /tmp/ccDOEKdr.s:61     .text:0000000000000000 _ZN6Thread7wrapperEPv
     /tmp/ccDOEKdr.s:65     .text:0000000000000000 .L0 
     /tmp/ccDOEKdr.s:67     .text:0000000000000000 .L0 
     /tmp/ccDOEKdr.s:68     .text:0000000000000000 .L0 
     /tmp/ccDOEKdr.s:70     .text:0000000000000004 .L0 
     /tmp/ccDOEKdr.s:71     .text:0000000000000008 .L0 
     /tmp/ccDOEKdr.s:74     .text:0000000000000010 .L0 
     /tmp/ccDOEKdr.s:75     .text:0000000000000010 .L0 
     /tmp/ccDOEKdr.s:77     .text:0000000000000014 .L0 
     /tmp/ccDOEKdr.s:79     .text:0000000000000014 .L0 
     /tmp/ccDOEKdr.s:80     .text:0000000000000014 .L0 
     /tmp/ccDOEKdr.s:83     .text:000000000000001c .L0 
     /tmp/ccDOEKdr.s:86     .text:0000000000000020 .L0 
     /tmp/ccDOEKdr.s:87     .text:0000000000000024 .L0 
     /tmp/ccDOEKdr.s:89     .text:0000000000000028 .L0 
     /tmp/ccDOEKdr.s:90     .text:0000000000000028 .L0 
     /tmp/ccDOEKdr.s:92     .text:000000000000002c .L0 
     /tmp/ccDOEKdr.s:97     .text:0000000000000034 .L0 
     /tmp/ccDOEKdr.s:103    .text:0000000000000034 _ZN6ThreadD2Ev
     /tmp/ccDOEKdr.s:106    .text:0000000000000034 .L0 
     /tmp/ccDOEKdr.s:6309   .data.rel.local.DW.ref.__gxx_personality_v0:0000000000000000 DW.ref.__gxx_personality_v0
     /tmp/ccDOEKdr.s:110    .text:0000000000000034 .L0 
     /tmp/ccDOEKdr.s:111    .text:0000000000000038 .L0 
     /tmp/ccDOEKdr.s:115    .text:0000000000000044 .L0 
     /tmp/ccDOEKdr.s:116    .text:0000000000000044 .L0 
     /tmp/ccDOEKdr.s:117    .text:0000000000000044 .L0 
     /tmp/ccDOEKdr.s:119    .text:0000000000000048 .L0 
     /tmp/ccDOEKdr.s:1356   .data.rel.ro.local._ZTV6Thread:0000000000000000 _ZTV6Thread
     /tmp/ccDOEKdr.s:123    .text:000000000000004c .L0 
     /tmp/ccDOEKdr.s:126    .text:0000000000000058 .L0 
     /tmp/ccDOEKdr.s:127    .text:0000000000000058 .L0 
     /tmp/ccDOEKdr.s:132    .text:0000000000000064 .L0 
     /tmp/ccDOEKdr.s:133    .text:0000000000000064 .L0 
GAS LISTING /tmp/ccDOEKdr.s 			page 35


     /tmp/ccDOEKdr.s:136    .text:0000000000000068 .L0 
     /tmp/ccDOEKdr.s:143    .text:000000000000006c .L0 
     /tmp/ccDOEKdr.s:147    .text:000000000000006c .L0 
     /tmp/ccDOEKdr.s:148    .text:000000000000006c .L0 
     /tmp/ccDOEKdr.s:149    .text:000000000000006c .L0 
     /tmp/ccDOEKdr.s:153    .text:0000000000000070 .L0 
     /tmp/ccDOEKdr.s:157    .text:0000000000000074 .L0 
     /tmp/ccDOEKdr.s:158    .text:0000000000000074 .L0 
     /tmp/ccDOEKdr.s:159    .text:0000000000000074 .L0 
     /tmp/ccDOEKdr.s:161    .text:0000000000000078 .L0 
     /tmp/ccDOEKdr.s:163    .text:000000000000007c .L0 
     /tmp/ccDOEKdr.s:164    .text:000000000000007c .L0 
     /tmp/ccDOEKdr.s:169    .text:0000000000000080 .L0 
     /tmp/ccDOEKdr.s:170    .text:0000000000000080 .L0 
     /tmp/ccDOEKdr.s:173    .text:0000000000000088 .L0 
     /tmp/ccDOEKdr.s:182    .text:000000000000008c .L0 
     /tmp/ccDOEKdr.s:188    .text:0000000000000098 .L0 
     /tmp/ccDOEKdr.s:189    .text:000000000000009c .L0 
     /tmp/ccDOEKdr.s:191    .text:00000000000000a0 .L0 
     /tmp/ccDOEKdr.s:192    .text:00000000000000a0 .L0 
     /tmp/ccDOEKdr.s:194    .text:00000000000000a4 .L0 
     /tmp/ccDOEKdr.s:196    .text:00000000000000a8 .L0 
     /tmp/ccDOEKdr.s:198    .text:00000000000000ac .L0 
     /tmp/ccDOEKdr.s:103    .text:0000000000000034 _ZN6ThreadD1Ev
     /tmp/ccDOEKdr.s:215    .text._ZN14PeriodicThreadD2Ev:0000000000000000 _ZN14PeriodicThreadD2Ev
     /tmp/ccDOEKdr.s:218    .text._ZN14PeriodicThreadD2Ev:0000000000000000 .L0 
     /tmp/ccDOEKdr.s:220    .text._ZN14PeriodicThreadD2Ev:0000000000000000 .L0 
     /tmp/ccDOEKdr.s:221    .text._ZN14PeriodicThreadD2Ev:0000000000000004 .L0 
     /tmp/ccDOEKdr.s:224    .text._ZN14PeriodicThreadD2Ev:000000000000000c .L0 
     /tmp/ccDOEKdr.s:225    .text._ZN14PeriodicThreadD2Ev:000000000000000c .L0 
     /tmp/ccDOEKdr.s:227    .text._ZN14PeriodicThreadD2Ev:0000000000000010 .L0 
     /tmp/ccDOEKdr.s:1377   .data.rel.ro.local._ZTV14PeriodicThread:0000000000000000 _ZTV14PeriodicThread
     /tmp/ccDOEKdr.s:230    .text._ZN14PeriodicThreadD2Ev:0000000000000010 .L0 
     /tmp/ccDOEKdr.s:236    .text._ZN14PeriodicThreadD2Ev:0000000000000028 .L0 
     /tmp/ccDOEKdr.s:238    .text._ZN14PeriodicThreadD2Ev:000000000000002c .L0 
     /tmp/ccDOEKdr.s:239    .text._ZN14PeriodicThreadD2Ev:000000000000002c .L0 
     /tmp/ccDOEKdr.s:241    .text._ZN14PeriodicThreadD2Ev:0000000000000030 .L0 
     /tmp/ccDOEKdr.s:243    .text._ZN14PeriodicThreadD2Ev:0000000000000034 .L0 
     /tmp/ccDOEKdr.s:215    .text._ZN14PeriodicThreadD2Ev:0000000000000000 _ZN14PeriodicThreadD1Ev
     /tmp/ccDOEKdr.s:252    .text:00000000000000ac _ZN9SemaphoreD2Ev
     /tmp/ccDOEKdr.s:255    .text:00000000000000ac .L0 
     /tmp/ccDOEKdr.s:259    .text:00000000000000ac .L0 
     /tmp/ccDOEKdr.s:260    .text:00000000000000b0 .L0 
     /tmp/ccDOEKdr.s:264    .text:00000000000000bc .L0 
     /tmp/ccDOEKdr.s:265    .text:00000000000000bc .L0 
     /tmp/ccDOEKdr.s:266    .text:00000000000000bc .L0 
     /tmp/ccDOEKdr.s:268    .text:00000000000000c0 .L0 
     /tmp/ccDOEKdr.s:1367   .data.rel.ro.local._ZTV9Semaphore:0000000000000000 _ZTV9Semaphore
     /tmp/ccDOEKdr.s:272    .text:00000000000000c4 .L0 
     /tmp/ccDOEKdr.s:275    .text:00000000000000d0 .L0 
     /tmp/ccDOEKdr.s:276    .text:00000000000000d0 .L0 
     /tmp/ccDOEKdr.s:281    .text:00000000000000dc .L0 
     /tmp/ccDOEKdr.s:282    .text:00000000000000dc .L0 
     /tmp/ccDOEKdr.s:285    .text:00000000000000e0 .L0 
     /tmp/ccDOEKdr.s:291    .text:00000000000000e4 .L0 
     /tmp/ccDOEKdr.s:295    .text:00000000000000e4 .L0 
     /tmp/ccDOEKdr.s:296    .text:00000000000000e4 .L0 
GAS LISTING /tmp/ccDOEKdr.s 			page 36


     /tmp/ccDOEKdr.s:297    .text:00000000000000e4 .L0 
     /tmp/ccDOEKdr.s:301    .text:00000000000000e8 .L0 
     /tmp/ccDOEKdr.s:305    .text:00000000000000ec .L0 
     /tmp/ccDOEKdr.s:306    .text:00000000000000ec .L0 
     /tmp/ccDOEKdr.s:307    .text:00000000000000ec .L0 
     /tmp/ccDOEKdr.s:309    .text:00000000000000f0 .L0 
     /tmp/ccDOEKdr.s:311    .text:00000000000000f4 .L0 
     /tmp/ccDOEKdr.s:312    .text:00000000000000f4 .L0 
     /tmp/ccDOEKdr.s:317    .text:00000000000000f8 .L0 
     /tmp/ccDOEKdr.s:318    .text:00000000000000f8 .L0 
     /tmp/ccDOEKdr.s:321    .text:0000000000000100 .L0 
     /tmp/ccDOEKdr.s:330    .text:0000000000000104 .L0 
     /tmp/ccDOEKdr.s:336    .text:0000000000000110 .L0 
     /tmp/ccDOEKdr.s:337    .text:0000000000000114 .L0 
     /tmp/ccDOEKdr.s:339    .text:0000000000000118 .L0 
     /tmp/ccDOEKdr.s:340    .text:0000000000000118 .L0 
     /tmp/ccDOEKdr.s:342    .text:000000000000011c .L0 
     /tmp/ccDOEKdr.s:344    .text:0000000000000120 .L0 
     /tmp/ccDOEKdr.s:346    .text:0000000000000124 .L0 
     /tmp/ccDOEKdr.s:252    .text:00000000000000ac _ZN9SemaphoreD1Ev
     /tmp/ccDOEKdr.s:361    .text:0000000000000124 _Znwm
     /tmp/ccDOEKdr.s:364    .text:0000000000000124 .L0 
     /tmp/ccDOEKdr.s:366    .text:0000000000000124 .L0 
     /tmp/ccDOEKdr.s:367    .text:0000000000000128 .L0 
     /tmp/ccDOEKdr.s:370    .text:0000000000000130 .L0 
     /tmp/ccDOEKdr.s:371    .text:0000000000000130 .L0 
     /tmp/ccDOEKdr.s:373    .text:0000000000000134 .L0 
     /tmp/ccDOEKdr.s:375    .text:0000000000000134 .L0 
     /tmp/ccDOEKdr.s:376    .text:0000000000000134 .L0 
     /tmp/ccDOEKdr.s:379    .text:000000000000013c .L0 
     /tmp/ccDOEKdr.s:380    .text:0000000000000140 .L0 
     /tmp/ccDOEKdr.s:382    .text:0000000000000144 .L0 
     /tmp/ccDOEKdr.s:383    .text:0000000000000144 .L0 
     /tmp/ccDOEKdr.s:385    .text:0000000000000148 .L0 
     /tmp/ccDOEKdr.s:387    .text:000000000000014c .L0 
     /tmp/ccDOEKdr.s:393    .text:000000000000014c _Znam
     /tmp/ccDOEKdr.s:396    .text:000000000000014c .L0 
     /tmp/ccDOEKdr.s:398    .text:000000000000014c .L0 
     /tmp/ccDOEKdr.s:399    .text:0000000000000150 .L0 
     /tmp/ccDOEKdr.s:402    .text:0000000000000158 .L0 
     /tmp/ccDOEKdr.s:403    .text:0000000000000158 .L0 
     /tmp/ccDOEKdr.s:405    .text:000000000000015c .L0 
     /tmp/ccDOEKdr.s:407    .text:000000000000015c .L0 
     /tmp/ccDOEKdr.s:408    .text:000000000000015c .L0 
     /tmp/ccDOEKdr.s:411    .text:0000000000000164 .L0 
     /tmp/ccDOEKdr.s:412    .text:0000000000000168 .L0 
     /tmp/ccDOEKdr.s:414    .text:000000000000016c .L0 
     /tmp/ccDOEKdr.s:415    .text:000000000000016c .L0 
     /tmp/ccDOEKdr.s:417    .text:0000000000000170 .L0 
     /tmp/ccDOEKdr.s:419    .text:0000000000000174 .L0 
     /tmp/ccDOEKdr.s:425    .text:0000000000000174 _ZdlPv
     /tmp/ccDOEKdr.s:428    .text:0000000000000174 .L0 
     /tmp/ccDOEKdr.s:432    .text:0000000000000174 .L0 
     /tmp/ccDOEKdr.s:433    .text:0000000000000178 .L0 
     /tmp/ccDOEKdr.s:436    .text:0000000000000180 .L0 
     /tmp/ccDOEKdr.s:437    .text:0000000000000180 .L0 
     /tmp/ccDOEKdr.s:439    .text:0000000000000184 .L0 
GAS LISTING /tmp/ccDOEKdr.s 			page 37


     /tmp/ccDOEKdr.s:441    .text:0000000000000184 .L0 
     /tmp/ccDOEKdr.s:442    .text:0000000000000184 .L0 
     /tmp/ccDOEKdr.s:445    .text:000000000000018c .L0 
     /tmp/ccDOEKdr.s:446    .text:0000000000000190 .L0 
     /tmp/ccDOEKdr.s:448    .text:0000000000000194 .L0 
     /tmp/ccDOEKdr.s:449    .text:0000000000000194 .L0 
     /tmp/ccDOEKdr.s:451    .text:0000000000000198 .L0 
     /tmp/ccDOEKdr.s:453    .text:000000000000019c .L0 
     /tmp/ccDOEKdr.s:466    .text:000000000000019c _ZN6ThreadD0Ev
     /tmp/ccDOEKdr.s:469    .text:000000000000019c .L0 
     /tmp/ccDOEKdr.s:471    .text:000000000000019c .L0 
     /tmp/ccDOEKdr.s:472    .text:00000000000001a0 .L0 
     /tmp/ccDOEKdr.s:476    .text:00000000000001ac .L0 
     /tmp/ccDOEKdr.s:477    .text:00000000000001ac .L0 
     /tmp/ccDOEKdr.s:478    .text:00000000000001ac .L0 
     /tmp/ccDOEKdr.s:480    .text:00000000000001b0 .L0 
     /tmp/ccDOEKdr.s:483    .text:00000000000001b4 .L0 
     /tmp/ccDOEKdr.s:489    .text:00000000000001cc .L0 
     /tmp/ccDOEKdr.s:491    .text:00000000000001d0 .L0 
     /tmp/ccDOEKdr.s:492    .text:00000000000001d0 .L0 
     /tmp/ccDOEKdr.s:494    .text:00000000000001d4 .L0 
     /tmp/ccDOEKdr.s:497    .text:00000000000001d8 .L0 
     /tmp/ccDOEKdr.s:499    .text:00000000000001dc .L0 
     /tmp/ccDOEKdr.s:506    .text._ZN14PeriodicThreadD0Ev:0000000000000000 _ZN14PeriodicThreadD0Ev
     /tmp/ccDOEKdr.s:509    .text._ZN14PeriodicThreadD0Ev:0000000000000000 .L0 
     /tmp/ccDOEKdr.s:511    .text._ZN14PeriodicThreadD0Ev:0000000000000000 .L0 
     /tmp/ccDOEKdr.s:512    .text._ZN14PeriodicThreadD0Ev:0000000000000004 .L0 
     /tmp/ccDOEKdr.s:516    .text._ZN14PeriodicThreadD0Ev:0000000000000010 .L0 
     /tmp/ccDOEKdr.s:517    .text._ZN14PeriodicThreadD0Ev:0000000000000010 .L0 
     /tmp/ccDOEKdr.s:518    .text._ZN14PeriodicThreadD0Ev:0000000000000010 .L0 
     /tmp/ccDOEKdr.s:520    .text._ZN14PeriodicThreadD0Ev:0000000000000014 .L0 
     /tmp/ccDOEKdr.s:526    .text._ZN14PeriodicThreadD0Ev:0000000000000018 .L0 
     /tmp/ccDOEKdr.s:536    .text._ZN14PeriodicThreadD0Ev:000000000000003c .L0 
     /tmp/ccDOEKdr.s:538    .text._ZN14PeriodicThreadD0Ev:0000000000000040 .L0 
     /tmp/ccDOEKdr.s:539    .text._ZN14PeriodicThreadD0Ev:0000000000000040 .L0 
     /tmp/ccDOEKdr.s:541    .text._ZN14PeriodicThreadD0Ev:0000000000000044 .L0 
     /tmp/ccDOEKdr.s:544    .text._ZN14PeriodicThreadD0Ev:0000000000000048 .L0 
     /tmp/ccDOEKdr.s:546    .text._ZN14PeriodicThreadD0Ev:000000000000004c .L0 
     /tmp/ccDOEKdr.s:553    .text:00000000000001dc _ZN9SemaphoreD0Ev
     /tmp/ccDOEKdr.s:556    .text:00000000000001dc .L0 
     /tmp/ccDOEKdr.s:558    .text:00000000000001dc .L0 
     /tmp/ccDOEKdr.s:559    .text:00000000000001e0 .L0 
     /tmp/ccDOEKdr.s:563    .text:00000000000001ec .L0 
     /tmp/ccDOEKdr.s:564    .text:00000000000001ec .L0 
     /tmp/ccDOEKdr.s:565    .text:00000000000001ec .L0 
     /tmp/ccDOEKdr.s:567    .text:00000000000001f0 .L0 
     /tmp/ccDOEKdr.s:570    .text:00000000000001f4 .L0 
     /tmp/ccDOEKdr.s:576    .text:000000000000020c .L0 
     /tmp/ccDOEKdr.s:578    .text:0000000000000210 .L0 
     /tmp/ccDOEKdr.s:579    .text:0000000000000210 .L0 
     /tmp/ccDOEKdr.s:581    .text:0000000000000214 .L0 
     /tmp/ccDOEKdr.s:584    .text:0000000000000218 .L0 
     /tmp/ccDOEKdr.s:586    .text:000000000000021c .L0 
     /tmp/ccDOEKdr.s:592    .text:000000000000021c _ZdaPv
     /tmp/ccDOEKdr.s:595    .text:000000000000021c .L0 
     /tmp/ccDOEKdr.s:599    .text:000000000000021c .L0 
     /tmp/ccDOEKdr.s:600    .text:0000000000000220 .L0 
GAS LISTING /tmp/ccDOEKdr.s 			page 38


     /tmp/ccDOEKdr.s:603    .text:0000000000000228 .L0 
     /tmp/ccDOEKdr.s:604    .text:0000000000000228 .L0 
     /tmp/ccDOEKdr.s:606    .text:000000000000022c .L0 
     /tmp/ccDOEKdr.s:608    .text:000000000000022c .L0 
     /tmp/ccDOEKdr.s:609    .text:000000000000022c .L0 
     /tmp/ccDOEKdr.s:612    .text:0000000000000234 .L0 
     /tmp/ccDOEKdr.s:613    .text:0000000000000238 .L0 
     /tmp/ccDOEKdr.s:615    .text:000000000000023c .L0 
     /tmp/ccDOEKdr.s:616    .text:000000000000023c .L0 
     /tmp/ccDOEKdr.s:618    .text:0000000000000240 .L0 
     /tmp/ccDOEKdr.s:620    .text:0000000000000244 .L0 
     /tmp/ccDOEKdr.s:633    .text:0000000000000244 _ZN6ThreadC2EPFvPvES0_
     /tmp/ccDOEKdr.s:636    .text:0000000000000244 .L0 
     /tmp/ccDOEKdr.s:638    .text:0000000000000244 .L0 
     /tmp/ccDOEKdr.s:639    .text:0000000000000248 .L0 
     /tmp/ccDOEKdr.s:645    .text:000000000000025c .L0 
     /tmp/ccDOEKdr.s:646    .text:000000000000025c .L0 
     /tmp/ccDOEKdr.s:647    .text:000000000000025c .L0 
     /tmp/ccDOEKdr.s:648    .text:000000000000025c .L0 
     /tmp/ccDOEKdr.s:649    .text:000000000000025c .L0 
     /tmp/ccDOEKdr.s:651    .text:0000000000000260 .L0 
     /tmp/ccDOEKdr.s:657    .text:000000000000026c .L0 
     /tmp/ccDOEKdr.s:661    .text:0000000000000278 .L0 
     /tmp/ccDOEKdr.s:662    .text:0000000000000278 .L0 
     /tmp/ccDOEKdr.s:664    .text:000000000000027c .L0 
     /tmp/ccDOEKdr.s:665    .text:000000000000027c .L0 
     /tmp/ccDOEKdr.s:668    .text:0000000000000280 .L0 
     /tmp/ccDOEKdr.s:669    .text:0000000000000280 .L0 
     /tmp/ccDOEKdr.s:672    .text:000000000000028c .L0 
     /tmp/ccDOEKdr.s:673    .text:000000000000028c .L0 
     /tmp/ccDOEKdr.s:681    .text:000000000000029c .L0 
 src/syscall_cpp.cpp:42     .text:000000000000029c .L0 
     /tmp/ccDOEKdr.s:687    .text:00000000000002a0 .L0 
 src/syscall_cpp.cpp:43     .text:00000000000002a0 .L0 
     /tmp/ccDOEKdr.s:692    .text:00000000000002a4 .L0 
 src/syscall_cpp.cpp:45     .text:00000000000002a4 .L0 
     /tmp/ccDOEKdr.s:697    .text:00000000000002a8 .L0 
     /tmp/ccDOEKdr.s:699    .text:00000000000002a8 .L0 
 src/syscall_cpp.cpp:46     .text:00000000000002ac .L0 
     /tmp/ccDOEKdr.s:707    .text:00000000000002b0 .L0 
 src/syscall_cpp.cpp:47     .text:00000000000002b0 .L0 
     /tmp/ccDOEKdr.s:712    .text:00000000000002b4 .L0 
 src/syscall_cpp.cpp:54     .text:00000000000002b4 .L0 
     /tmp/ccDOEKdr.s:720    .text:00000000000002b8 .L0 
     /tmp/ccDOEKdr.s:721    .text:00000000000002bc .L0 
     /tmp/ccDOEKdr.s:722    .text:00000000000002bc .L0 
     /tmp/ccDOEKdr.s:724    .text:00000000000002c0 .L0 
     /tmp/ccDOEKdr.s:725    .text:00000000000002c0 .L0 
     /tmp/ccDOEKdr.s:727    .text:00000000000002c4 .L0 
     /tmp/ccDOEKdr.s:730    .text:00000000000002c8 .L0 
     /tmp/ccDOEKdr.s:733    .text:00000000000002cc .L0 
     /tmp/ccDOEKdr.s:736    .text:00000000000002d0 .L0 
     /tmp/ccDOEKdr.s:740    .text:00000000000002d4 .L0 
     /tmp/ccDOEKdr.s:744    .text:00000000000002d4 .L0 
     /tmp/ccDOEKdr.s:748    .text:00000000000002dc .L0 
     /tmp/ccDOEKdr.s:633    .text:0000000000000244 _ZN6ThreadC1EPFvPvES0_
     /tmp/ccDOEKdr.s:756    .text:00000000000002dc _ZN6Thread5startEv
GAS LISTING /tmp/ccDOEKdr.s 			page 39


     /tmp/ccDOEKdr.s:759    .text:00000000000002dc .L0 
     /tmp/ccDOEKdr.s:761    .text:00000000000002dc .L0 
     /tmp/ccDOEKdr.s:762    .text:00000000000002e0 .L0 
     /tmp/ccDOEKdr.s:764    .text:00000000000002e4 .L0 
     /tmp/ccDOEKdr.s:766    .text:00000000000002e8 .L0 
     /tmp/ccDOEKdr.s:768    .text:00000000000002e8 .L0 
     /tmp/ccDOEKdr.s:769    .text:00000000000002e8 .L0 
     /tmp/ccDOEKdr.s:771    .text:00000000000002ec .L0 
     /tmp/ccDOEKdr.s:777    .text:00000000000002f0 .L0 
     /tmp/ccDOEKdr.s:778    .text:00000000000002f0 .L0 
     /tmp/ccDOEKdr.s:783    .text:00000000000002f4 .L0 
     /tmp/ccDOEKdr.s:785    .text:00000000000002f8 .L0 
 src/syscall_cpp.cpp:65     .text:00000000000002f8 .L0 
     /tmp/ccDOEKdr.s:792    .text:00000000000002fc .L0 
 src/syscall_cpp.cpp:66     .text:00000000000002fc .L0 
     /tmp/ccDOEKdr.s:797    .text:0000000000000300 .L0 
 src/syscall_cpp.cpp:68     .text:0000000000000300 .L0 
     /tmp/ccDOEKdr.s:802    .text:0000000000000304 .L0 
     /tmp/ccDOEKdr.s:804    .text:0000000000000304 .L0 
     /tmp/ccDOEKdr.s:807    .text:0000000000000308 .L0 
     /tmp/ccDOEKdr.s:808    .text:000000000000030c .L0 
     /tmp/ccDOEKdr.s:809    .text:000000000000030c .L0 
     /tmp/ccDOEKdr.s:810    .text:000000000000030c .L0 
     /tmp/ccDOEKdr.s:812    .text:0000000000000310 .L0 
     /tmp/ccDOEKdr.s:816    .text:0000000000000314 .L0 
     /tmp/ccDOEKdr.s:818    .text:0000000000000314 .L0 
     /tmp/ccDOEKdr.s:826    .text:0000000000000324 .L0 
     /tmp/ccDOEKdr.s:832    .text:0000000000000324 _ZN6Thread4joinEv
     /tmp/ccDOEKdr.s:835    .text:0000000000000324 .L0 
     /tmp/ccDOEKdr.s:837    .text:0000000000000324 .L0 
     /tmp/ccDOEKdr.s:838    .text:0000000000000328 .L0 
     /tmp/ccDOEKdr.s:841    .text:0000000000000330 .L0 
     /tmp/ccDOEKdr.s:842    .text:0000000000000330 .L0 
     /tmp/ccDOEKdr.s:844    .text:0000000000000334 .L0 
     /tmp/ccDOEKdr.s:846    .text:0000000000000334 .L0 
     /tmp/ccDOEKdr.s:847    .text:0000000000000334 .L0 
     /tmp/ccDOEKdr.s:852    .text:0000000000000340 .L0 
     /tmp/ccDOEKdr.s:853    .text:0000000000000344 .L0 
     /tmp/ccDOEKdr.s:855    .text:0000000000000348 .L0 
     /tmp/ccDOEKdr.s:856    .text:0000000000000348 .L0 
     /tmp/ccDOEKdr.s:858    .text:000000000000034c .L0 
     /tmp/ccDOEKdr.s:860    .text:0000000000000350 .L0 
     /tmp/ccDOEKdr.s:866    .text:0000000000000350 _ZN6Thread8dispatchEv
     /tmp/ccDOEKdr.s:869    .text:0000000000000350 .L0 
     /tmp/ccDOEKdr.s:870    .text:0000000000000350 .L0 
     /tmp/ccDOEKdr.s:871    .text:0000000000000354 .L0 
     /tmp/ccDOEKdr.s:874    .text:000000000000035c .L0 
     /tmp/ccDOEKdr.s:875    .text:000000000000035c .L0 
     /tmp/ccDOEKdr.s:877    .text:0000000000000360 .L0 
     /tmp/ccDOEKdr.s:879    .text:0000000000000360 .L0 
     /tmp/ccDOEKdr.s:880    .text:0000000000000360 .L0 
     /tmp/ccDOEKdr.s:883    .text:0000000000000368 .L0 
     /tmp/ccDOEKdr.s:884    .text:000000000000036c .L0 
     /tmp/ccDOEKdr.s:886    .text:0000000000000370 .L0 
     /tmp/ccDOEKdr.s:887    .text:0000000000000370 .L0 
     /tmp/ccDOEKdr.s:889    .text:0000000000000374 .L0 
     /tmp/ccDOEKdr.s:891    .text:0000000000000378 .L0 
GAS LISTING /tmp/ccDOEKdr.s 			page 40


     /tmp/ccDOEKdr.s:897    .text:0000000000000378 _ZN6Thread5sleepEm
     /tmp/ccDOEKdr.s:900    .text:0000000000000378 .L0 
     /tmp/ccDOEKdr.s:902    .text:0000000000000378 .L0 
     /tmp/ccDOEKdr.s:903    .text:000000000000037c .L0 
     /tmp/ccDOEKdr.s:906    .text:0000000000000384 .L0 
     /tmp/ccDOEKdr.s:907    .text:0000000000000384 .L0 
     /tmp/ccDOEKdr.s:909    .text:0000000000000388 .L0 
     /tmp/ccDOEKdr.s:911    .text:0000000000000388 .L0 
     /tmp/ccDOEKdr.s:912    .text:0000000000000388 .L0 
     /tmp/ccDOEKdr.s:915    .text:0000000000000390 .L0 
     /tmp/ccDOEKdr.s:916    .text:0000000000000390 .L0 
     /tmp/ccDOEKdr.s:918    .text:0000000000000398 .L0 
     /tmp/ccDOEKdr.s:920    .text:000000000000039c .L0 
     /tmp/ccDOEKdr.s:921    .text:000000000000039c .L0 
     /tmp/ccDOEKdr.s:923    .text:00000000000003a0 .L0 
     /tmp/ccDOEKdr.s:925    .text:00000000000003a4 .L0 
     /tmp/ccDOEKdr.s:931    .text:00000000000003a4 _ZN14PeriodicThread3runEv
     /tmp/ccDOEKdr.s:934    .text:00000000000003a4 .L0 
     /tmp/ccDOEKdr.s:936    .text:00000000000003a4 .L0 
     /tmp/ccDOEKdr.s:937    .text:00000000000003a8 .L0 
     /tmp/ccDOEKdr.s:941    .text:00000000000003b4 .L0 
     /tmp/ccDOEKdr.s:942    .text:00000000000003b4 .L0 
     /tmp/ccDOEKdr.s:943    .text:00000000000003b4 .L0 
     /tmp/ccDOEKdr.s:945    .text:00000000000003b8 .L0 
     /tmp/ccDOEKdr.s:950    .text:00000000000003bc .L0 
     /tmp/ccDOEKdr.s:951    .text:00000000000003bc .L0 
     /tmp/ccDOEKdr.s:952    .text:00000000000003bc .L0 
     /tmp/ccDOEKdr.s:954    .text:00000000000003c0 .L0 
     /tmp/ccDOEKdr.s:957    .text:00000000000003c8 .L0 
     /tmp/ccDOEKdr.s:958    .text:00000000000003c8 .L0 
     /tmp/ccDOEKdr.s:961    .text:00000000000003d0 .L0 
     /tmp/ccDOEKdr.s:965    .text:00000000000003d8 .L0 
     /tmp/ccDOEKdr.s:966    .text:00000000000003d8 .L0 
     /tmp/ccDOEKdr.s:968    .text:00000000000003dc .L0 
     /tmp/ccDOEKdr.s:971    .text:00000000000003e4 .L0 
     /tmp/ccDOEKdr.s:972    .text:00000000000003e4 .L0 
     /tmp/ccDOEKdr.s:975    .text:00000000000003ec .L0 
     /tmp/ccDOEKdr.s:978    .text:00000000000003f0 .L0 
     /tmp/ccDOEKdr.s:979    .text:00000000000003f0 .L0 
     /tmp/ccDOEKdr.s:982    .text:00000000000003f8 .L0 
     /tmp/ccDOEKdr.s:983    .text:00000000000003fc .L0 
     /tmp/ccDOEKdr.s:985    .text:0000000000000400 .L0 
     /tmp/ccDOEKdr.s:986    .text:0000000000000400 .L0 
     /tmp/ccDOEKdr.s:988    .text:0000000000000404 .L0 
     /tmp/ccDOEKdr.s:991    .text:0000000000000408 .L0 
     /tmp/ccDOEKdr.s:993    .text:000000000000040c .L0 
     /tmp/ccDOEKdr.s:999    .text:000000000000040c _ZN6ThreadC2Ev
     /tmp/ccDOEKdr.s:1002   .text:000000000000040c .L0 
     /tmp/ccDOEKdr.s:1004   .text:000000000000040c .L0 
     /tmp/ccDOEKdr.s:1005   .text:0000000000000410 .L0 
     /tmp/ccDOEKdr.s:1009   .text:000000000000041c .L0 
     /tmp/ccDOEKdr.s:1010   .text:000000000000041c .L0 
     /tmp/ccDOEKdr.s:1011   .text:000000000000041c .L0 
     /tmp/ccDOEKdr.s:1013   .text:0000000000000420 .L0 
     /tmp/ccDOEKdr.s:1017   .text:0000000000000424 .L0 
     /tmp/ccDOEKdr.s:1021   .text:0000000000000430 .L0 
     /tmp/ccDOEKdr.s:1022   .text:0000000000000430 .L0 
GAS LISTING /tmp/ccDOEKdr.s 			page 41


     /tmp/ccDOEKdr.s:1025   .text:000000000000043c .L0 
     /tmp/ccDOEKdr.s:1026   .text:000000000000043c .L0 
     /tmp/ccDOEKdr.s:1028   .text:0000000000000440 .L0 
     /tmp/ccDOEKdr.s:1029   .text:0000000000000440 .L0 
     /tmp/ccDOEKdr.s:1036   .text:0000000000000450 .L0 
 src/syscall_cpp.cpp:91     .text:0000000000000450 .L0 
     /tmp/ccDOEKdr.s:1042   .text:0000000000000454 .L0 
     /tmp/ccDOEKdr.s:1044   .text:0000000000000454 .L0 
 src/syscall_cpp.cpp:92     .text:0000000000000458 .L0 
     /tmp/ccDOEKdr.s:1052   .text:000000000000045c .L0 
     /tmp/ccDOEKdr.s:1054   .text:000000000000045c .L0 
 src/syscall_cpp.cpp:94     .text:0000000000000460 .L0 
     /tmp/ccDOEKdr.s:1061   .text:0000000000000464 .L0 
     /tmp/ccDOEKdr.s:1063   .text:0000000000000464 .L0 
 src/syscall_cpp.cpp:95     .text:0000000000000468 .L0 
     /tmp/ccDOEKdr.s:1071   .text:000000000000046c .L0 
 src/syscall_cpp.cpp:96     .text:000000000000046c .L0 
     /tmp/ccDOEKdr.s:1076   .text:0000000000000470 .L0 
 src/syscall_cpp.cpp:103    .text:0000000000000470 .L0 
     /tmp/ccDOEKdr.s:1084   .text:0000000000000474 .L0 
     /tmp/ccDOEKdr.s:1085   .text:0000000000000478 .L0 
     /tmp/ccDOEKdr.s:1087   .text:000000000000047c .L0 
     /tmp/ccDOEKdr.s:1088   .text:000000000000047c .L0 
     /tmp/ccDOEKdr.s:1090   .text:0000000000000480 .L0 
     /tmp/ccDOEKdr.s:1093   .text:0000000000000484 .L0 
     /tmp/ccDOEKdr.s:1095   .text:0000000000000488 .L0 
     /tmp/ccDOEKdr.s:999    .text:000000000000040c _ZN6ThreadC1Ev
     /tmp/ccDOEKdr.s:1103   .text:0000000000000488 _ZN9SemaphoreC2Ej
     /tmp/ccDOEKdr.s:1106   .text:0000000000000488 .L0 
     /tmp/ccDOEKdr.s:1108   .text:0000000000000488 .L0 
     /tmp/ccDOEKdr.s:1109   .text:000000000000048c .L0 
     /tmp/ccDOEKdr.s:1112   .text:0000000000000494 .L0 
     /tmp/ccDOEKdr.s:1113   .text:0000000000000494 .L0 
     /tmp/ccDOEKdr.s:1115   .text:0000000000000498 .L0 
     /tmp/ccDOEKdr.s:1118   .text:0000000000000498 .L0 
     /tmp/ccDOEKdr.s:1121   .text:00000000000004a4 .L0 
     /tmp/ccDOEKdr.s:1122   .text:00000000000004a4 .L0 
     /tmp/ccDOEKdr.s:1128   .text:00000000000004b0 .L0 
     /tmp/ccDOEKdr.s:1129   .text:00000000000004b4 .L0 
     /tmp/ccDOEKdr.s:1131   .text:00000000000004b8 .L0 
     /tmp/ccDOEKdr.s:1132   .text:00000000000004b8 .L0 
     /tmp/ccDOEKdr.s:1134   .text:00000000000004bc .L0 
     /tmp/ccDOEKdr.s:1136   .text:00000000000004c0 .L0 
     /tmp/ccDOEKdr.s:1103   .text:0000000000000488 _ZN9SemaphoreC1Ej
     /tmp/ccDOEKdr.s:1144   .text:00000000000004c0 _ZN9Semaphore4waitEv
     /tmp/ccDOEKdr.s:1147   .text:00000000000004c0 .L0 
     /tmp/ccDOEKdr.s:1149   .text:00000000000004c0 .L0 
     /tmp/ccDOEKdr.s:1150   .text:00000000000004c4 .L0 
     /tmp/ccDOEKdr.s:1153   .text:00000000000004cc .L0 
     /tmp/ccDOEKdr.s:1154   .text:00000000000004cc .L0 
     /tmp/ccDOEKdr.s:1156   .text:00000000000004d0 .L0 
     /tmp/ccDOEKdr.s:1158   .text:00000000000004d0 .L0 
     /tmp/ccDOEKdr.s:1159   .text:00000000000004d0 .L0 
     /tmp/ccDOEKdr.s:1164   .text:00000000000004dc .L0 
     /tmp/ccDOEKdr.s:1165   .text:00000000000004e0 .L0 
     /tmp/ccDOEKdr.s:1167   .text:00000000000004e4 .L0 
     /tmp/ccDOEKdr.s:1168   .text:00000000000004e4 .L0 
GAS LISTING /tmp/ccDOEKdr.s 			page 42


     /tmp/ccDOEKdr.s:1170   .text:00000000000004e8 .L0 
     /tmp/ccDOEKdr.s:1172   .text:00000000000004ec .L0 
     /tmp/ccDOEKdr.s:1178   .text:00000000000004ec _ZN9Semaphore6signalEv
     /tmp/ccDOEKdr.s:1181   .text:00000000000004ec .L0 
     /tmp/ccDOEKdr.s:1183   .text:00000000000004ec .L0 
     /tmp/ccDOEKdr.s:1184   .text:00000000000004f0 .L0 
     /tmp/ccDOEKdr.s:1187   .text:00000000000004f8 .L0 
     /tmp/ccDOEKdr.s:1188   .text:00000000000004f8 .L0 
     /tmp/ccDOEKdr.s:1190   .text:00000000000004fc .L0 
     /tmp/ccDOEKdr.s:1192   .text:00000000000004fc .L0 
     /tmp/ccDOEKdr.s:1193   .text:00000000000004fc .L0 
     /tmp/ccDOEKdr.s:1198   .text:0000000000000508 .L0 
     /tmp/ccDOEKdr.s:1199   .text:000000000000050c .L0 
     /tmp/ccDOEKdr.s:1201   .text:0000000000000510 .L0 
     /tmp/ccDOEKdr.s:1202   .text:0000000000000510 .L0 
     /tmp/ccDOEKdr.s:1204   .text:0000000000000514 .L0 
     /tmp/ccDOEKdr.s:1206   .text:0000000000000518 .L0 
     /tmp/ccDOEKdr.s:1212   .text:0000000000000518 _ZN14PeriodicThread9terminateEv
     /tmp/ccDOEKdr.s:1215   .text:0000000000000518 .L0 
     /tmp/ccDOEKdr.s:1217   .text:0000000000000518 .L0 
     /tmp/ccDOEKdr.s:1218   .text:000000000000051c .L0 
     /tmp/ccDOEKdr.s:1220   .text:0000000000000520 .L0 
     /tmp/ccDOEKdr.s:1222   .text:0000000000000524 .L0 
     /tmp/ccDOEKdr.s:1224   .text:0000000000000524 .L0 
     /tmp/ccDOEKdr.s:1225   .text:0000000000000524 .L0 
     /tmp/ccDOEKdr.s:1228   .text:000000000000052c .L0 
     /tmp/ccDOEKdr.s:1229   .text:0000000000000530 .L0 
     /tmp/ccDOEKdr.s:1230   .text:0000000000000530 .L0 
     /tmp/ccDOEKdr.s:1232   .text:0000000000000534 .L0 
     /tmp/ccDOEKdr.s:1234   .text:0000000000000538 .L0 
     /tmp/ccDOEKdr.s:1240   .text:0000000000000538 _ZN14PeriodicThreadC2Em
     /tmp/ccDOEKdr.s:1243   .text:0000000000000538 .L0 
     /tmp/ccDOEKdr.s:1245   .text:0000000000000538 .L0 
     /tmp/ccDOEKdr.s:1246   .text:000000000000053c .L0 
     /tmp/ccDOEKdr.s:1251   .text:000000000000054c .L0 
     /tmp/ccDOEKdr.s:1252   .text:000000000000054c .L0 
     /tmp/ccDOEKdr.s:1253   .text:000000000000054c .L0 
     /tmp/ccDOEKdr.s:1254   .text:000000000000054c .L0 
     /tmp/ccDOEKdr.s:1256   .text:0000000000000550 .L0 
     /tmp/ccDOEKdr.s:1261   .text:0000000000000558 .L0 
     /tmp/ccDOEKdr.s:1268   .text:0000000000000570 .L0 
     /tmp/ccDOEKdr.s:1269   .text:0000000000000570 .L0 
     /tmp/ccDOEKdr.s:1270   .text:0000000000000574 .L0 
     /tmp/ccDOEKdr.s:1272   .text:0000000000000578 .L0 
     /tmp/ccDOEKdr.s:1273   .text:0000000000000578 .L0 
     /tmp/ccDOEKdr.s:1275   .text:000000000000057c .L0 
     /tmp/ccDOEKdr.s:1278   .text:0000000000000580 .L0 
     /tmp/ccDOEKdr.s:1281   .text:0000000000000584 .L0 
     /tmp/ccDOEKdr.s:1283   .text:0000000000000588 .L0 
     /tmp/ccDOEKdr.s:1240   .text:0000000000000538 _ZN14PeriodicThreadC1Em
     /tmp/ccDOEKdr.s:1291   .text:0000000000000588 _ZN7Console4getcEv
     /tmp/ccDOEKdr.s:1294   .text:0000000000000588 .L0 
     /tmp/ccDOEKdr.s:1295   .text:0000000000000588 .L0 
     /tmp/ccDOEKdr.s:1296   .text:000000000000058c .L0 
     /tmp/ccDOEKdr.s:1299   .text:0000000000000594 .L0 
     /tmp/ccDOEKdr.s:1300   .text:0000000000000594 .L0 
     /tmp/ccDOEKdr.s:1302   .text:0000000000000598 .L0 
GAS LISTING /tmp/ccDOEKdr.s 			page 43


     /tmp/ccDOEKdr.s:1304   .text:0000000000000598 .L0 
     /tmp/ccDOEKdr.s:1305   .text:0000000000000598 .L0 
     /tmp/ccDOEKdr.s:1308   .text:00000000000005a0 .L0 
     /tmp/ccDOEKdr.s:1309   .text:00000000000005a4 .L0 
     /tmp/ccDOEKdr.s:1311   .text:00000000000005a8 .L0 
     /tmp/ccDOEKdr.s:1312   .text:00000000000005a8 .L0 
     /tmp/ccDOEKdr.s:1314   .text:00000000000005ac .L0 
     /tmp/ccDOEKdr.s:1316   .text:00000000000005b0 .L0 
     /tmp/ccDOEKdr.s:1322   .text:00000000000005b0 _ZN7Console4putcEc
     /tmp/ccDOEKdr.s:1325   .text:00000000000005b0 .L0 
     /tmp/ccDOEKdr.s:1327   .text:00000000000005b0 .L0 
     /tmp/ccDOEKdr.s:1328   .text:00000000000005b4 .L0 
     /tmp/ccDOEKdr.s:1331   .text:00000000000005bc .L0 
     /tmp/ccDOEKdr.s:1332   .text:00000000000005bc .L0 
     /tmp/ccDOEKdr.s:1334   .text:00000000000005c0 .L0 
     /tmp/ccDOEKdr.s:1336   .text:00000000000005c0 .L0 
     /tmp/ccDOEKdr.s:1337   .text:00000000000005c0 .L0 
     /tmp/ccDOEKdr.s:1340   .text:00000000000005c8 .L0 
     /tmp/ccDOEKdr.s:1341   .text:00000000000005cc .L0 
     /tmp/ccDOEKdr.s:1343   .text:00000000000005d0 .L0 
     /tmp/ccDOEKdr.s:1344   .text:00000000000005d0 .L0 
     /tmp/ccDOEKdr.s:1346   .text:00000000000005d4 .L0 
     /tmp/ccDOEKdr.s:1348   .text:00000000000005d8 .L0 
     /tmp/ccDOEKdr.s:32     .text._ZN6Thread3runEv:0000000000000018 .L0 
     /tmp/ccDOEKdr.s:57     .text._ZN14PeriodicThread18periodicActivationEv:0000000000000018 .L0 
     /tmp/ccDOEKdr.s:1389   .text:00000000000005d8 .L0 
     /tmp/ccDOEKdr.s:248    .text._ZN14PeriodicThreadD2Ev:0000000000000034 .L0 
     /tmp/ccDOEKdr.s:549    .text._ZN14PeriodicThreadD0Ev:000000000000004c .L0 
     /tmp/ccDOEKdr.s:123    .text:000000000000004c .L0 
     /tmp/ccDOEKdr.s:272    .text:00000000000000c4 .L0 
     /tmp/ccDOEKdr.s:657    .text:000000000000026c .L0 
     /tmp/ccDOEKdr.s:669    .text:0000000000000280 .L0 
     /tmp/ccDOEKdr.s:1017   .text:0000000000000424 .L0 
     /tmp/ccDOEKdr.s:1022   .text:0000000000000430 .L0 
     /tmp/ccDOEKdr.s:1118   .text:0000000000000498 .L0 
     /tmp/ccDOEKdr.s:1263   .text:0000000000000560 .L0 
     /tmp/ccDOEKdr.s:95     .text:0000000000000030 .L8
     /tmp/ccDOEKdr.s:185    .text:0000000000000098 .L11
     /tmp/ccDOEKdr.s:174    .text:000000000000008c .L13
     /tmp/ccDOEKdr.s:137    .text:000000000000006c .L14
     /tmp/ccDOEKdr.s:333    .text:0000000000000110 .L19
     /tmp/ccDOEKdr.s:322    .text:0000000000000104 .L21
     /tmp/ccDOEKdr.s:286    .text:00000000000000e4 .L22
     /tmp/ccDOEKdr.s:739    .text:00000000000002d4 .L41
     /tmp/ccDOEKdr.s:679    .text:000000000000029c .L40
     /tmp/ccDOEKdr.s:815    .text:0000000000000314 .L45
     /tmp/ccDOEKdr.s:822    .text:000000000000031c .L46
     /tmp/ccDOEKdr.s:805    .text:0000000000000308 .L44
     /tmp/ccDOEKdr.s:976    .text:00000000000003f0 .L55
     /tmp/ccDOEKdr.s:948    .text:00000000000003bc .L56
     /tmp/ccDOEKdr.s:230    .text._ZN14PeriodicThreadD2Ev:0000000000000010 .L0 
     /tmp/ccDOEKdr.s:526    .text._ZN14PeriodicThreadD0Ev:0000000000000018 .L0 
     /tmp/ccDOEKdr.s:3850   .debug_abbrev:0000000000000000 .Ldebug_abbrev0
     /tmp/ccDOEKdr.s:6215   .debug_str:0000000000000a02 .LASF208
     /tmp/ccDOEKdr.s:6031   .debug_str:00000000000004c5 .LASF209
     /tmp/ccDOEKdr.s:6163   .debug_str:0000000000000895 .LASF210
     /tmp/ccDOEKdr.s:5847   .debug_ranges:0000000000000000 .Ldebug_ranges0
GAS LISTING /tmp/ccDOEKdr.s 			page 44


     /tmp/ccDOEKdr.s:5867   .debug_line:0000000000000000 .Ldebug_line0
     /tmp/ccDOEKdr.s:6131   .debug_str:00000000000007bd .LASF3
     /tmp/ccDOEKdr.s:6019   .debug_str:000000000000046b .LASF0
     /tmp/ccDOEKdr.s:6047   .debug_str:0000000000000540 .LASF1
     /tmp/ccDOEKdr.s:6145   .debug_str:000000000000081d .LASF2
     /tmp/ccDOEKdr.s:6157   .debug_str:000000000000086f .LASF4
     /tmp/ccDOEKdr.s:6033   .debug_str:00000000000004d9 .LASF5
     /tmp/ccDOEKdr.s:5885   .debug_str:0000000000000090 .LASF6
     /tmp/ccDOEKdr.s:6111   .debug_str:0000000000000728 .LASF7
     /tmp/ccDOEKdr.s:6105   .debug_str:00000000000006ed .LASF8
     /tmp/ccDOEKdr.s:6039   .debug_str:0000000000000510 .LASF9
     /tmp/ccDOEKdr.s:5989   .debug_str:0000000000000376 .LASF10
     /tmp/ccDOEKdr.s:6001   .debug_str:00000000000003e8 .LASF11
     /tmp/ccDOEKdr.s:5925   .debug_str:00000000000001a7 .LASF12
     /tmp/ccDOEKdr.s:5983   .debug_str:000000000000034a .LASF13
     /tmp/ccDOEKdr.s:5941   .debug_str:0000000000000214 .LASF14
     /tmp/ccDOEKdr.s:5923   .debug_str:0000000000000197 .LASF15
     /tmp/ccDOEKdr.s:6189   .debug_str:000000000000096d .LASF16
     /tmp/ccDOEKdr.s:5971   .debug_str:00000000000002d8 .LASF17
     /tmp/ccDOEKdr.s:6179   .debug_str:0000000000000923 .LASF18
     /tmp/ccDOEKdr.s:6261   .debug_str:0000000000000bff .LASF19
     /tmp/ccDOEKdr.s:6169   .debug_str:00000000000008d0 .LASF211
     /tmp/ccDOEKdr.s:6115   .debug_str:0000000000000741 .LASF20
     /tmp/ccDOEKdr.s:5955   .debug_str:000000000000028e .LASF21
     /tmp/ccDOEKdr.s:6063   .debug_str:00000000000005b6 .LASF22
     /tmp/ccDOEKdr.s:5887   .debug_str:0000000000000097 .LASF23
     /tmp/ccDOEKdr.s:5933   .debug_str:00000000000001d7 .LASF24
     /tmp/ccDOEKdr.s:5913   .debug_str:0000000000000151 .LASF25
     /tmp/ccDOEKdr.s:6195   .debug_str:0000000000000989 .LASF102
     /tmp/ccDOEKdr.s:5929   .debug_str:00000000000001bb .LASF26
     /tmp/ccDOEKdr.s:6003   .debug_str:00000000000003f6 .LASF28
     /tmp/ccDOEKdr.s:6021   .debug_str:0000000000000478 .LASF30
     /tmp/ccDOEKdr.s:6061   .debug_str:00000000000005a2 .LASF32
     /tmp/ccDOEKdr.s:6187   .debug_str:0000000000000960 .LASF27
     /tmp/ccDOEKdr.s:6271   .debug_str:0000000000000c4e .LASF29
     /tmp/ccDOEKdr.s:6099   .debug_str:00000000000006c6 .LASF212
     /tmp/ccDOEKdr.s:6055   .debug_str:0000000000000574 .LASF31
     /tmp/ccDOEKdr.s:6127   .debug_str:0000000000000795 .LASF33
     /tmp/ccDOEKdr.s:5959   .debug_str:000000000000029a .LASF34
     /tmp/ccDOEKdr.s:6153   .debug_str:0000000000000849 .LASF35
     /tmp/ccDOEKdr.s:6119   .debug_str:0000000000000764 .LASF36
     /tmp/ccDOEKdr.s:6065   .debug_str:00000000000005be .LASF37
     /tmp/ccDOEKdr.s:5991   .debug_str:0000000000000386 .LASF38
     /tmp/ccDOEKdr.s:6175   .debug_str:00000000000008fa .LASF40
     /tmp/ccDOEKdr.s:5871   .debug_str:000000000000002a .LASF42
     /tmp/ccDOEKdr.s:6203   .debug_str:00000000000009a6 .LASF44
     /tmp/ccDOEKdr.s:6241   .debug_str:0000000000000b8a .LASF39
     /tmp/ccDOEKdr.s:6095   .debug_str:00000000000006a0 .LASF41
     /tmp/ccDOEKdr.s:6239   .debug_str:0000000000000b7f .LASF43
     /tmp/ccDOEKdr.s:5985   .debug_str:0000000000000359 .LASF45
     /tmp/ccDOEKdr.s:6263   .debug_str:0000000000000c08 .LASF46
     /tmp/ccDOEKdr.s:5981   .debug_str:0000000000000331 .LASF48
     /tmp/ccDOEKdr.s:5961   .debug_str:00000000000002a7 .LASF47
     /tmp/ccDOEKdr.s:5937   .debug_str:00000000000001ef .LASF49
     /tmp/ccDOEKdr.s:6253   .debug_str:0000000000000bd5 .LASF50
     /tmp/ccDOEKdr.s:5893   .debug_str:00000000000000ce .LASF51
     /tmp/ccDOEKdr.s:6295   .debug_str:0000000000000cf8 .LASF52
GAS LISTING /tmp/ccDOEKdr.s 			page 45


     /tmp/ccDOEKdr.s:5997   .debug_str:00000000000003c9 .LASF53
     /tmp/ccDOEKdr.s:5875   .debug_str:000000000000003a .LASF54
     /tmp/ccDOEKdr.s:6091   .debug_str:000000000000068b .LASF55
     /tmp/ccDOEKdr.s:6283   .debug_str:0000000000000ca6 .LASF213
     /tmp/ccDOEKdr.s:6233   .debug_str:0000000000000b4d .LASF56
     /tmp/ccDOEKdr.s:5921   .debug_str:0000000000000188 .LASF57
     /tmp/ccDOEKdr.s:6289   .debug_str:0000000000000cd0 .LASF58
     /tmp/ccDOEKdr.s:6249   .debug_str:0000000000000bb8 .LASF59
     /tmp/ccDOEKdr.s:6221   .debug_str:0000000000000af0 .LASF60
     /tmp/ccDOEKdr.s:6213   .debug_str:00000000000009f2 .LASF61
     /tmp/ccDOEKdr.s:6103   .debug_str:00000000000006e1 .LASF62
     /tmp/ccDOEKdr.s:5977   .debug_str:0000000000000315 .LASF63
     /tmp/ccDOEKdr.s:6155   .debug_str:0000000000000861 .LASF64
     /tmp/ccDOEKdr.s:6259   .debug_str:0000000000000bf8 .LASF65
     /tmp/ccDOEKdr.s:6211   .debug_str:00000000000009ea .LASF66
     /tmp/ccDOEKdr.s:5917   .debug_str:000000000000016a .LASF67
     /tmp/ccDOEKdr.s:5949   .debug_str:0000000000000253 .LASF96
     /tmp/ccDOEKdr.s:5879   .debug_str:0000000000000052 .LASF98
     /tmp/ccDOEKdr.s:6159   .debug_str:0000000000000876 .LASF89
     /tmp/ccDOEKdr.s:5881   .debug_str:000000000000007a .LASF91
     /tmp/ccDOEKdr.s:6281   .debug_str:0000000000000ca0 .LASF68
     /tmp/ccDOEKdr.s:6181   .debug_str:0000000000000939 .LASF69
     /tmp/ccDOEKdr.s:6045   .debug_str:0000000000000538 .LASF70
     /tmp/ccDOEKdr.s:6089   .debug_str:0000000000000678 .LASF71
     /tmp/ccDOEKdr.s:5963   .debug_str:00000000000002b0 .LASF72
     /tmp/ccDOEKdr.s:5967   .debug_str:00000000000002bb .LASF73
     /tmp/ccDOEKdr.s:6193   .debug_str:0000000000000982 .LASF74
     /tmp/ccDOEKdr.s:5903   .debug_str:0000000000000123 .LASF75
     /tmp/ccDOEKdr.s:6273   .debug_str:0000000000000c70 .LASF76
     /tmp/ccDOEKdr.s:6081   .debug_str:000000000000063a .LASF77
     /tmp/ccDOEKdr.s:5969   .debug_str:00000000000002cb .LASF78
     /tmp/ccDOEKdr.s:6245   .debug_str:0000000000000ba4 .LASF79
     /tmp/ccDOEKdr.s:6017   .debug_str:0000000000000465 .LASF80
     /tmp/ccDOEKdr.s:6207   .debug_str:00000000000009c3 .LASF81
     /tmp/ccDOEKdr.s:5877   .debug_str:000000000000004a .LASF82
     /tmp/ccDOEKdr.s:5889   .debug_str:000000000000009f .LASF83
     /tmp/ccDOEKdr.s:6269   .debug_str:0000000000000c41 .LASF84
     /tmp/ccDOEKdr.s:6237   .debug_str:0000000000000b6f .LASF85
     /tmp/ccDOEKdr.s:6149   .debug_str:000000000000083a .LASF86
     /tmp/ccDOEKdr.s:6041   .debug_str:0000000000000523 .LASF87
     /tmp/ccDOEKdr.s:6093   .debug_str:0000000000000698 .LASF88
     /tmp/ccDOEKdr.s:5965   .debug_str:00000000000002b5 .LASF90
     /tmp/ccDOEKdr.s:6231   .debug_str:0000000000000b40 .LASF92
     /tmp/ccDOEKdr.s:6067   .debug_str:00000000000005d0 .LASF93
     /tmp/ccDOEKdr.s:6279   .debug_str:0000000000000c9b .LASF94
     /tmp/ccDOEKdr.s:5953   .debug_str:000000000000027b .LASF95
     /tmp/ccDOEKdr.s:6071   .debug_str:00000000000005e4 .LASF97
     /tmp/ccDOEKdr.s:6277   .debug_str:0000000000000c88 .LASF99
     /tmp/ccDOEKdr.s:6199   .debug_str:0000000000000997 .LASF100
     /tmp/ccDOEKdr.s:6083   .debug_str:0000000000000650 .LASF101
     /tmp/ccDOEKdr.s:5957   .debug_str:0000000000000295 .LASF103
     /tmp/ccDOEKdr.s:6229   .debug_str:0000000000000b3b .LASF104
     /tmp/ccDOEKdr.s:5927   .debug_str:00000000000001b6 .LASF105
     /tmp/ccDOEKdr.s:5975   .debug_str:00000000000002f7 .LASF106
     /tmp/ccDOEKdr.s:5951   .debug_str:0000000000000261 .LASF107
     /tmp/ccDOEKdr.s:6117   .debug_str:0000000000000749 .LASF150
     /tmp/ccDOEKdr.s:6243   .debug_str:0000000000000b9e .LASF108
GAS LISTING /tmp/ccDOEKdr.s 			page 46


     /tmp/ccDOEKdr.s:6043   .debug_str:0000000000000533 .LASF109
     /tmp/ccDOEKdr.s:5899   .debug_str:00000000000000fb .LASF110
     /tmp/ccDOEKdr.s:5995   .debug_str:00000000000003b1 .LASF111
     /tmp/ccDOEKdr.s:6107   .debug_str:0000000000000700 .LASF136
     /tmp/ccDOEKdr.s:6035   .debug_str:00000000000004eb .LASF112
     /tmp/ccDOEKdr.s:5945   .debug_str:0000000000000239 .LASF113
     /tmp/ccDOEKdr.s:6025   .debug_str:0000000000000493 .LASF114
     /tmp/ccDOEKdr.s:5891   .debug_str:00000000000000b2 .LASF115
     /tmp/ccDOEKdr.s:6049   .debug_str:0000000000000553 .LASF116
     /tmp/ccDOEKdr.s:6079   .debug_str:000000000000061b .LASF117
     /tmp/ccDOEKdr.s:5911   .debug_str:0000000000000148 .LASF118
     /tmp/ccDOEKdr.s:6077   .debug_str:00000000000005ff .LASF119
     /tmp/ccDOEKdr.s:5943   .debug_str:0000000000000224 .LASF120
     /tmp/ccDOEKdr.s:6265   .debug_str:0000000000000c16 .LASF121
     /tmp/ccDOEKdr.s:6133   .debug_str:00000000000007c2 .LASF122
     /tmp/ccDOEKdr.s:5935   .debug_str:00000000000001e0 .LASF123
     /tmp/ccDOEKdr.s:6235   .debug_str:0000000000000b55 .LASF124
     /tmp/ccDOEKdr.s:6027   .debug_str:000000000000049b .LASF125
     /tmp/ccDOEKdr.s:6201   .debug_str:000000000000099c .LASF126
     /tmp/ccDOEKdr.s:5993   .debug_str:0000000000000391 .LASF127
     /tmp/ccDOEKdr.s:6037   .debug_str:00000000000004f8 .LASF128
     /tmp/ccDOEKdr.s:5999   .debug_str:00000000000003d5 .LASF129
     /tmp/ccDOEKdr.s:5869   .debug_str:0000000000000000 .LASF214
     /tmp/ccDOEKdr.s:6161   .debug_str:000000000000087b .LASF146
     /tmp/ccDOEKdr.s:5907   .debug_str:000000000000013a .LASF130
     /tmp/ccDOEKdr.s:6087   .debug_str:0000000000000668 .LASF131
     /tmp/ccDOEKdr.s:6251   .debug_str:0000000000000bbd .LASF215
     /tmp/ccDOEKdr.s:6009   .debug_str:0000000000000434 .LASF132
     /tmp/ccDOEKdr.s:5939   .debug_str:0000000000000202 .LASF133
     /tmp/ccDOEKdr.s:6139   .debug_str:00000000000007f1 .LASF154
     /tmp/ccDOEKdr.s:6299   .debug_str:0000000000000d0e .LASF134
     /tmp/ccDOEKdr.s:6173   .debug_str:00000000000008f2 .LASF135
     /tmp/ccDOEKdr.s:5979   .debug_str:0000000000000322 .LASF137
     /tmp/ccDOEKdr.s:6287   .debug_str:0000000000000cca .LASF138
     /tmp/ccDOEKdr.s:6053   .debug_str:0000000000000561 .LASF139
     /tmp/ccDOEKdr.s:6205   .debug_str:00000000000009be .LASF140
     /tmp/ccDOEKdr.s:6113   .debug_str:000000000000072f .LASF141
     /tmp/ccDOEKdr.s:6101   .debug_str:00000000000006cb .LASF142
     /tmp/ccDOEKdr.s:6051   .debug_str:000000000000055b .LASF143
     /tmp/ccDOEKdr.s:6217   .debug_str:0000000000000ac6 .LASF144
     /tmp/ccDOEKdr.s:6029   .debug_str:00000000000004b6 .LASF145
     /tmp/ccDOEKdr.s:6013   .debug_str:0000000000000444 .LASF147
     /tmp/ccDOEKdr.s:5973   .debug_str:00000000000002ee .LASF148
     /tmp/ccDOEKdr.s:5873   .debug_str:0000000000000035 .LASF149
     /tmp/ccDOEKdr.s:6209   .debug_str:00000000000009d4 .LASF151
     /tmp/ccDOEKdr.s:6183   .debug_str:000000000000093e .LASF152
     /tmp/ccDOEKdr.s:6137   .debug_str:00000000000007dc .LASF153
     /tmp/ccDOEKdr.s:6291   .debug_str:0000000000000cd6 .LASF155
     /tmp/ccDOEKdr.s:6255   .debug_str:0000000000000bdd .LASF156
     /tmp/ccDOEKdr.s:6123   .debug_str:0000000000000780 .LASF157
     /tmp/ccDOEKdr.s:6165   .debug_str:00000000000008b3 .LASF158
     /tmp/ccDOEKdr.s:6223   .debug_str:0000000000000afa .LASF159
     /tmp/ccDOEKdr.s:6225   .debug_str:0000000000000b0f .LASF160
     /tmp/ccDOEKdr.s:6015   .debug_str:0000000000000455 .LASF216
     /tmp/ccDOEKdr.s:5987   .debug_str:0000000000000371 .LASF161
     /tmp/ccDOEKdr.s:5883   .debug_str:0000000000000086 .LASF162
     /tmp/ccDOEKdr.s:6301   .debug_str:0000000000000d25 .LASF163
GAS LISTING /tmp/ccDOEKdr.s 			page 47


     /tmp/ccDOEKdr.s:507    .text._ZN14PeriodicThreadD0Ev:0000000000000000 .LFB77
     /tmp/ccDOEKdr.s:547    .text._ZN14PeriodicThreadD0Ev:000000000000004c .LFE77
     /tmp/ccDOEKdr.s:5287   .debug_loc:0000000000000000 .LLST12
     /tmp/ccDOEKdr.s:523    .text._ZN14PeriodicThreadD0Ev:0000000000000018 .LBB75
     /tmp/ccDOEKdr.s:531    .text._ZN14PeriodicThreadD0Ev:000000000000002c .LBE75
     /tmp/ccDOEKdr.s:5305   .debug_loc:000000000000004c .LLST13
     /tmp/ccDOEKdr.s:529    .text._ZN14PeriodicThreadD0Ev:000000000000002c .LVL37
     /tmp/ccDOEKdr.s:534    .text._ZN14PeriodicThreadD0Ev:0000000000000038 .LVL38
     /tmp/ccDOEKdr.s:6143   .debug_str:0000000000000805 .LASF164
     /tmp/ccDOEKdr.s:216    .text._ZN14PeriodicThreadD2Ev:0000000000000000 .LFB75
     /tmp/ccDOEKdr.s:244    .text._ZN14PeriodicThreadD2Ev:0000000000000034 .LFE75
     /tmp/ccDOEKdr.s:5316   .debug_loc:0000000000000082 .LLST4
     /tmp/ccDOEKdr.s:233    .text._ZN14PeriodicThreadD2Ev:0000000000000024 .LVL15
     /tmp/ccDOEKdr.s:1323   .text:00000000000005b0 .LFB73
     /tmp/ccDOEKdr.s:1349   .text:00000000000005d8 .LFE73
     /tmp/ccDOEKdr.s:5330   .debug_loc:00000000000000bb .LLST33
     /tmp/ccDOEKdr.s:1338   .text:00000000000005c8 .LVL99
     /tmp/ccDOEKdr.s:1292   .text:0000000000000588 .LFB72
     /tmp/ccDOEKdr.s:1317   .text:00000000000005b0 .LFE72
     /tmp/ccDOEKdr.s:1306   .text:00000000000005a0 .LVL97
     /tmp/ccDOEKdr.s:932    .text:00000000000003a4 .LFB71
     /tmp/ccDOEKdr.s:994    .text:000000000000040c .LFE71
     /tmp/ccDOEKdr.s:5344   .debug_loc:00000000000000f4 .LLST24
     /tmp/ccDOEKdr.s:963    .text:00000000000003d8 .LVL72
     /tmp/ccDOEKdr.s:973    .text:00000000000003ec .LVL73
     /tmp/ccDOEKdr.s:980    .text:00000000000003f8 .LVL74
     /tmp/ccDOEKdr.s:6185   .debug_str:0000000000000948 .LASF165
     /tmp/ccDOEKdr.s:1241   .text:0000000000000538 .LFB69
     /tmp/ccDOEKdr.s:1284   .text:0000000000000588 .LFE69
     /tmp/ccDOEKdr.s:5362   .debug_loc:0000000000000140 .LLST31
     /tmp/ccDOEKdr.s:5380   .debug_loc:000000000000018c .LLST32
     /tmp/ccDOEKdr.s:1262   .text:0000000000000560 .LVL94
     /tmp/ccDOEKdr.s:1213   .text:0000000000000518 .LFB67
     /tmp/ccDOEKdr.s:1235   .text:0000000000000538 .LFE67
     /tmp/ccDOEKdr.s:1179   .text:00000000000004ec .LFB66
     /tmp/ccDOEKdr.s:1207   .text:0000000000000518 .LFE66
     /tmp/ccDOEKdr.s:5399   .debug_loc:00000000000001d9 .LLST30
     /tmp/ccDOEKdr.s:1196   .text:0000000000000508 .LVL91
     /tmp/ccDOEKdr.s:1145   .text:00000000000004c0 .LFB65
     /tmp/ccDOEKdr.s:1173   .text:00000000000004ec .LFE65
     /tmp/ccDOEKdr.s:5413   .debug_loc:0000000000000212 .LLST29
     /tmp/ccDOEKdr.s:1162   .text:00000000000004dc .LVL88
     /tmp/ccDOEKdr.s:6057   .debug_str:0000000000000581 .LASF166
     /tmp/ccDOEKdr.s:554    .text:00000000000001dc .LFB64
     /tmp/ccDOEKdr.s:587    .text:000000000000021c .LFE64
     /tmp/ccDOEKdr.s:5427   .debug_loc:000000000000024b .LLST14
     /tmp/ccDOEKdr.s:571    .text:00000000000001fc .LVL41
     /tmp/ccDOEKdr.s:574    .text:0000000000000208 .LVL42
     /tmp/ccDOEKdr.s:5895   .debug_str:00000000000000e0 .LASF167
     /tmp/ccDOEKdr.s:253    .text:00000000000000ac .LFB62
     /tmp/ccDOEKdr.s:347    .text:0000000000000124 .LFE62
     /tmp/ccDOEKdr.s:5445   .debug_loc:0000000000000297 .LLST5
     /tmp/ccDOEKdr.s:287    .text:00000000000000e4 .LBB67
     /tmp/ccDOEKdr.s:328    .text:0000000000000104 .LBE67
     /tmp/ccDOEKdr.s:288    .text:00000000000000e4 .LBB68
     /tmp/ccDOEKdr.s:327    .text:0000000000000104 .LBE68
     /tmp/ccDOEKdr.s:293    .text:00000000000000e4 .LBB70
GAS LISTING /tmp/ccDOEKdr.s 			page 48


     /tmp/ccDOEKdr.s:299    .text:00000000000000e8 .LBE70
     /tmp/ccDOEKdr.s:302    .text:00000000000000ec .LBB72
     /tmp/ccDOEKdr.s:325    .text:0000000000000104 .LBE72
     /tmp/ccDOEKdr.s:5463   .debug_loc:00000000000002e3 .LLST6
     /tmp/ccDOEKdr.s:314    .text:00000000000000f8 .LBB73
     /tmp/ccDOEKdr.s:324    .text:0000000000000104 .LBE73
     /tmp/ccDOEKdr.s:5470   .debug_loc:0000000000000306 .LLST7
     /tmp/ccDOEKdr.s:319    .text:0000000000000100 .LVL23
     /tmp/ccDOEKdr.s:279    .text:00000000000000dc .LVL18
     /tmp/ccDOEKdr.s:332    .text:0000000000000110 .LVL24
     /tmp/ccDOEKdr.s:5919   .debug_str:000000000000017b .LASF174
     /tmp/ccDOEKdr.s:5905   .debug_str:0000000000000135 .LASF168
     /tmp/ccDOEKdr.s:5931   .debug_str:00000000000001c5 .LASF169
     /tmp/ccDOEKdr.s:1104   .text:0000000000000488 .LFB56
     /tmp/ccDOEKdr.s:1137   .text:00000000000004c0 .LFE56
     /tmp/ccDOEKdr.s:5477   .debug_loc:0000000000000329 .LLST27
     /tmp/ccDOEKdr.s:5497   .debug_loc:0000000000000377 .LLST28
     /tmp/ccDOEKdr.s:1125   .text:00000000000004b0 .LVL85
     /tmp/ccDOEKdr.s:62     .text:0000000000000000 .LFB54
     /tmp/ccDOEKdr.s:98     .text:0000000000000034 .LFE54
     /tmp/ccDOEKdr.s:6141   .debug_str:00000000000007fe .LASF170
     /tmp/ccDOEKdr.s:5511   .debug_loc:00000000000003b0 .LLST0
     /tmp/ccDOEKdr.s:84     .text:0000000000000020 .LVL3
     /tmp/ccDOEKdr.s:6147   .debug_str:000000000000082b .LASF171
     /tmp/ccDOEKdr.s:1000   .text:000000000000040c .LFB52
     /tmp/ccDOEKdr.s:1096   .text:0000000000000488 .LFE52
     /tmp/ccDOEKdr.s:5529   .debug_loc:00000000000003fc .LLST25
     /tmp/ccDOEKdr.s:1032   .text:000000000000044c .LVL78
     /tmp/ccDOEKdr.s:1019   .text:0000000000000430 .LBB84
     /tmp/ccDOEKdr.s:1081   .text:0000000000000474 .LBE84
     /tmp/ccDOEKdr.s:5553   .debug_loc:000000000000045d .LLST26
     /tmp/ccDOEKdr.s:898    .text:0000000000000378 .LFB50
     /tmp/ccDOEKdr.s:926    .text:00000000000003a4 .LFE50
     /tmp/ccDOEKdr.s:5560   .debug_loc:0000000000000480 .LLST23
     /tmp/ccDOEKdr.s:913    .text:0000000000000390 .LVL69
     /tmp/ccDOEKdr.s:867    .text:0000000000000350 .LFB49
     /tmp/ccDOEKdr.s:892    .text:0000000000000378 .LFE49
     /tmp/ccDOEKdr.s:881    .text:0000000000000368 .LVL67
     /tmp/ccDOEKdr.s:833    .text:0000000000000324 .LFB48
     /tmp/ccDOEKdr.s:861    .text:0000000000000350 .LFE48
     /tmp/ccDOEKdr.s:5574   .debug_loc:00000000000004b9 .LLST22
     /tmp/ccDOEKdr.s:850    .text:0000000000000340 .LVL66
     /tmp/ccDOEKdr.s:757    .text:00000000000002dc .LFB47
     /tmp/ccDOEKdr.s:827    .text:0000000000000324 .LFE47
     /tmp/ccDOEKdr.s:5588   .debug_loc:00000000000004f2 .LLST20
     /tmp/ccDOEKdr.s:773    .text:00000000000002f0 .LBB81
     /tmp/ccDOEKdr.s:781    .text:00000000000002f4 .LBE81
     /tmp/ccDOEKdr.s:5624   .debug_loc:000000000000057d .LLST21
     /tmp/ccDOEKdr.s:6059   .debug_str:0000000000000593 .LASF172
     /tmp/ccDOEKdr.s:467    .text:000000000000019c .LFB46
     /tmp/ccDOEKdr.s:500    .text:00000000000001dc .LFE46
     /tmp/ccDOEKdr.s:5631   .debug_loc:00000000000005a0 .LLST11
     /tmp/ccDOEKdr.s:484    .text:00000000000001bc .LVL32
     /tmp/ccDOEKdr.s:487    .text:00000000000001c8 .LVL33
     /tmp/ccDOEKdr.s:6275   .debug_str:0000000000000c79 .LASF173
     /tmp/ccDOEKdr.s:104    .text:0000000000000034 .LFB44
     /tmp/ccDOEKdr.s:199    .text:00000000000000ac .LFE44
GAS LISTING /tmp/ccDOEKdr.s 			page 49


     /tmp/ccDOEKdr.s:5649   .debug_loc:00000000000005ec .LLST1
     /tmp/ccDOEKdr.s:138    .text:000000000000006c .LBB57
     /tmp/ccDOEKdr.s:180    .text:000000000000008c .LBE57
     /tmp/ccDOEKdr.s:139    .text:000000000000006c .LBB58
     /tmp/ccDOEKdr.s:179    .text:000000000000008c .LBE58
     /tmp/ccDOEKdr.s:145    .text:000000000000006c .LBB60
     /tmp/ccDOEKdr.s:151    .text:0000000000000070 .LBE60
     /tmp/ccDOEKdr.s:154    .text:0000000000000074 .LBB62
     /tmp/ccDOEKdr.s:177    .text:000000000000008c .LBE62
     /tmp/ccDOEKdr.s:5667   .debug_loc:0000000000000638 .LLST2
     /tmp/ccDOEKdr.s:166    .text:0000000000000080 .LBB63
     /tmp/ccDOEKdr.s:176    .text:000000000000008c .LBE63
     /tmp/ccDOEKdr.s:5674   .debug_loc:000000000000065b .LLST3
     /tmp/ccDOEKdr.s:171    .text:0000000000000088 .LVL12
     /tmp/ccDOEKdr.s:130    .text:0000000000000064 .LVL7
     /tmp/ccDOEKdr.s:184    .text:0000000000000098 .LVL13
     /tmp/ccDOEKdr.s:6075   .debug_str:00000000000005f3 .LASF175
     /tmp/ccDOEKdr.s:6219   .debug_str:0000000000000ad9 .LASF176
     /tmp/ccDOEKdr.s:634    .text:0000000000000244 .LFB38
     /tmp/ccDOEKdr.s:749    .text:00000000000002dc .LFE38
     /tmp/ccDOEKdr.s:5681   .debug_loc:000000000000067e .LLST16
     /tmp/ccDOEKdr.s:5709   .debug_loc:00000000000006f2 .LLST17
     /tmp/ccDOEKdr.s:5731   .debug_loc:0000000000000751 .LLST18
     /tmp/ccDOEKdr.s:676    .text:0000000000000298 .LVL49
     /tmp/ccDOEKdr.s:5753   .debug_loc:00000000000007b0 .LLST19
     /tmp/ccDOEKdr.s:6177   .debug_str:0000000000000910 .LASF177
     /tmp/ccDOEKdr.s:5909   .debug_str:0000000000000141 .LASF178
     /tmp/ccDOEKdr.s:593    .text:000000000000021c .LFB36
     /tmp/ccDOEKdr.s:621    .text:0000000000000244 .LFE36
     /tmp/ccDOEKdr.s:5770   .debug_loc:00000000000007fb .LLST15
     /tmp/ccDOEKdr.s:610    .text:0000000000000234 .LVL45
     /tmp/ccDOEKdr.s:6097   .debug_str:00000000000006bf .LASF179
     /tmp/ccDOEKdr.s:426    .text:0000000000000174 .LFB35
     /tmp/ccDOEKdr.s:454    .text:000000000000019c .LFE35
     /tmp/ccDOEKdr.s:5784   .debug_loc:0000000000000834 .LLST10
     /tmp/ccDOEKdr.s:443    .text:000000000000018c .LVL30
     /tmp/ccDOEKdr.s:5915   .debug_str:000000000000015a .LASF180
     /tmp/ccDOEKdr.s:6197   .debug_str:0000000000000991 .LASF181
     /tmp/ccDOEKdr.s:394    .text:000000000000014c .LFB34
     /tmp/ccDOEKdr.s:420    .text:0000000000000174 .LFE34
     /tmp/ccDOEKdr.s:5947   .debug_str:000000000000024e .LASF182
     /tmp/ccDOEKdr.s:5798   .debug_loc:000000000000086d .LLST9
     /tmp/ccDOEKdr.s:409    .text:0000000000000164 .LVL28
     /tmp/ccDOEKdr.s:6247   .debug_str:0000000000000bb2 .LASF183
     /tmp/ccDOEKdr.s:362    .text:0000000000000124 .LFB33
     /tmp/ccDOEKdr.s:388    .text:000000000000014c .LFE33
     /tmp/ccDOEKdr.s:5812   .debug_loc:00000000000008a6 .LLST8
     /tmp/ccDOEKdr.s:377    .text:000000000000013c .LVL26
     /tmp/ccDOEKdr.s:6151   .debug_str:0000000000000844 .LASF184
     /tmp/ccDOEKdr.s:6227   .debug_str:0000000000000b26 .LASF185
     /tmp/ccDOEKdr.s:37     .text._ZN14PeriodicThread18periodicActivationEv:0000000000000000 .LFB1
     /tmp/ccDOEKdr.s:55     .text._ZN14PeriodicThread18periodicActivationEv:0000000000000018 .LFE1
     /tmp/ccDOEKdr.s:11     .text._ZN6Thread3runEv:0000000000000000 .LFB0
     /tmp/ccDOEKdr.s:30     .text._ZN6Thread3runEv:0000000000000018 .LFE0
     /tmp/ccDOEKdr.s:6191   .debug_str:0000000000000979 .LASF186
     /tmp/ccDOEKdr.s:6257   .debug_str:0000000000000bef .LASF187
     /tmp/ccDOEKdr.s:6023   .debug_str:0000000000000482 .LASF188
GAS LISTING /tmp/ccDOEKdr.s 			page 50


     /tmp/ccDOEKdr.s:6069   .debug_str:00000000000005d8 .LASF189
     /tmp/ccDOEKdr.s:6135   .debug_str:00000000000007c7 .LASF190
     /tmp/ccDOEKdr.s:6007   .debug_str:0000000000000429 .LASF191
     /tmp/ccDOEKdr.s:6293   .debug_str:0000000000000ce6 .LASF192
     /tmp/ccDOEKdr.s:6297   .debug_str:0000000000000d05 .LASF193
     /tmp/ccDOEKdr.s:6285   .debug_str:0000000000000cbc .LASF194
     /tmp/ccDOEKdr.s:6011   .debug_str:000000000000043b .LASF195
     /tmp/ccDOEKdr.s:5901   .debug_str:0000000000000110 .LASF196
     /tmp/ccDOEKdr.s:6125   .debug_str:000000000000078b .LASF197
     /tmp/ccDOEKdr.s:6121   .debug_str:000000000000076c .LASF198
     /tmp/ccDOEKdr.s:5897   .debug_str:00000000000000f2 .LASF199
     /tmp/ccDOEKdr.s:6005   .debug_str:000000000000041b .LASF200
     /tmp/ccDOEKdr.s:6073   .debug_str:00000000000005e9 .LASF201
     /tmp/ccDOEKdr.s:6109   .debug_str:0000000000000718 .LASF202
     /tmp/ccDOEKdr.s:6167   .debug_str:00000000000008c5 .LASF203
     /tmp/ccDOEKdr.s:6267   .debug_str:0000000000000c2c .LASF204
     /tmp/ccDOEKdr.s:6129   .debug_str:00000000000007ad .LASF205
     /tmp/ccDOEKdr.s:6171   .debug_str:00000000000008dd .LASF206
     /tmp/ccDOEKdr.s:6085   .debug_str:000000000000065c .LASF207
     /tmp/ccDOEKdr.s:510    .text._ZN14PeriodicThreadD0Ev:0000000000000000 .LVL35
     /tmp/ccDOEKdr.s:542    .text._ZN14PeriodicThreadD0Ev:0000000000000044 .LVL39
     /tmp/ccDOEKdr.s:522    .text._ZN14PeriodicThreadD0Ev:0000000000000018 .LVL36
     /tmp/ccDOEKdr.s:219    .text._ZN14PeriodicThreadD2Ev:0000000000000000 .LVL14
     /tmp/ccDOEKdr.s:1326   .text:00000000000005b0 .LVL98
     /tmp/ccDOEKdr.s:935    .text:00000000000003a4 .LVL70
     /tmp/ccDOEKdr.s:947    .text:00000000000003bc .LVL71
     /tmp/ccDOEKdr.s:989    .text:0000000000000404 .LVL75
     /tmp/ccDOEKdr.s:1244   .text:0000000000000538 .LVL93
     /tmp/ccDOEKdr.s:1276   .text:000000000000057c .LVL95
     /tmp/ccDOEKdr.s:1279   .text:0000000000000580 .LVL96
     /tmp/ccDOEKdr.s:1182   .text:00000000000004ec .LVL89
     /tmp/ccDOEKdr.s:1194   .text:0000000000000500 .LVL90
     /tmp/ccDOEKdr.s:1148   .text:00000000000004c0 .LVL86
     /tmp/ccDOEKdr.s:1160   .text:00000000000004d4 .LVL87
     /tmp/ccDOEKdr.s:557    .text:00000000000001dc .LVL40
     /tmp/ccDOEKdr.s:582    .text:0000000000000214 .LVL43
     /tmp/ccDOEKdr.s:258    .text:00000000000000ac .LVL16
     /tmp/ccDOEKdr.s:277    .text:00000000000000d4 .LVL17
     /tmp/ccDOEKdr.s:283    .text:00000000000000e0 .LVL19
     /tmp/ccDOEKdr.s:304    .text:00000000000000ec .LVL21
     /tmp/ccDOEKdr.s:313    .text:00000000000000f8 .LVL22
     /tmp/ccDOEKdr.s:1107   .text:0000000000000488 .LVL83
     /tmp/ccDOEKdr.s:1123   .text:00000000000004a8 .LVL84
     /tmp/ccDOEKdr.s:66     .text:0000000000000000 .LVL2
     /tmp/ccDOEKdr.s:94     .text:0000000000000030 .LVL4
     /tmp/ccDOEKdr.s:1003   .text:000000000000040c .LVL76
     /tmp/ccDOEKdr.s:1030   .text:0000000000000444 .LVL77
     /tmp/ccDOEKdr.s:1064   .text:0000000000000468 .LVL81
     /tmp/ccDOEKdr.s:1091   .text:0000000000000480 .LVL82
     /tmp/ccDOEKdr.s:1034   .text:0000000000000450 .LVL79
     /tmp/ccDOEKdr.s:1045   .text:0000000000000458 .LVL80
     /tmp/ccDOEKdr.s:901    .text:0000000000000378 .LVL68
     /tmp/ccDOEKdr.s:836    .text:0000000000000324 .LVL64
     /tmp/ccDOEKdr.s:848    .text:0000000000000338 .LVL65
     /tmp/ccDOEKdr.s:760    .text:00000000000002dc .LVL56
     /tmp/ccDOEKdr.s:790    .text:00000000000002fc .LVL59
     /tmp/ccDOEKdr.s:814    .text:0000000000000314 .LVL60
GAS LISTING /tmp/ccDOEKdr.s 			page 51


     /tmp/ccDOEKdr.s:819    .text:0000000000000318 .LVL61
     /tmp/ccDOEKdr.s:821    .text:000000000000031c .LVL62
     /tmp/ccDOEKdr.s:824    .text:0000000000000320 .LVL63
     /tmp/ccDOEKdr.s:772    .text:00000000000002f0 .LVL57
     /tmp/ccDOEKdr.s:779    .text:00000000000002f4 .LVL58
     /tmp/ccDOEKdr.s:470    .text:000000000000019c .LVL31
     /tmp/ccDOEKdr.s:495    .text:00000000000001d4 .LVL34
     /tmp/ccDOEKdr.s:109    .text:0000000000000034 .LVL5
     /tmp/ccDOEKdr.s:128    .text:000000000000005c .LVL6
     /tmp/ccDOEKdr.s:134    .text:0000000000000068 .LVL8
     /tmp/ccDOEKdr.s:156    .text:0000000000000074 .LVL10
     /tmp/ccDOEKdr.s:165    .text:0000000000000080 .LVL11
     /tmp/ccDOEKdr.s:637    .text:0000000000000244 .LVL46
     /tmp/ccDOEKdr.s:674    .text:0000000000000290 .LVL48
     /tmp/ccDOEKdr.s:700    .text:00000000000002ac .LVL51
     /tmp/ccDOEKdr.s:728    .text:00000000000002c4 .LVL52
     /tmp/ccDOEKdr.s:738    .text:00000000000002d4 .LVL55
     /tmp/ccDOEKdr.s:731    .text:00000000000002c8 .LVL53
     /tmp/ccDOEKdr.s:734    .text:00000000000002cc .LVL54
     /tmp/ccDOEKdr.s:667    .text:0000000000000280 .LVL47
     /tmp/ccDOEKdr.s:678    .text:000000000000029c .LVL50
     /tmp/ccDOEKdr.s:598    .text:000000000000021c .LVL44
     /tmp/ccDOEKdr.s:431    .text:0000000000000174 .LVL29
     /tmp/ccDOEKdr.s:397    .text:000000000000014c .LVL27
     /tmp/ccDOEKdr.s:365    .text:0000000000000124 .LVL25
     /tmp/ccDOEKdr.s:1390   .debug_info:0000000000000000 .Ldebug_info0
     /tmp/ccDOEKdr.s:5      .text:0000000000000000 .Ltext0
     /tmp/ccDOEKdr.s:1385   .text:00000000000005d8 .Letext0
     /tmp/ccDOEKdr.s:659    .text:0000000000000278 .LBB78
     /tmp/ccDOEKdr.s:717    .text:00000000000002b8 .LBE78
     /tmp/ccDOEKdr.s:742    .text:00000000000002d4 .LBB79
     /tmp/ccDOEKdr.s:746    .text:00000000000002dc .LBE79
     /tmp/ccDOEKdr.s:202    .gcc_except_table:0000000000000000 .LLSDA44
     /tmp/ccDOEKdr.s:349    .gcc_except_table:0000000000000004 .LLSDA62
     /tmp/ccDOEKdr.s:456    .gcc_except_table:0000000000000008 .LLSDA35
     /tmp/ccDOEKdr.s:623    .gcc_except_table:000000000000000c .LLSDA36
                           .group:0000000000000000 _ZN14PeriodicThreadD5Ev

UNDEFINED SYMBOLS
_Z11thread_joinP3TCB
_Z8mem_freePv
_ZN3TCBdlEPv
__gxx_personality_v0
_Z9sem_closeP4KSem
_ZN4KSemdlEPv
_Z9mem_allocm
main
_Z15thread_dispatchv
_Z10time_sleepm
_Z11thread_exitv
_Z8sem_openPP4KSemj
_Z8sem_waitP4KSem
_Z10sem_signalP4KSem
_Z4getcv
_Z4putcc
