GAS LISTING /tmp/cczf8nSa.s 			page 1


   1              		.file	"syscall_c.cpp"
   2              		.option pic
   3              		.option norelax
   4              		.text
   5              	.Ltext0:
   6              		.align	2
   7              		.globl	_Z9mem_allocm
   9              	_Z9mem_allocm:
  10              	.LFB19:
  11              		.file 1 "src/syscall_c.cpp"
   1:src/syscall_c.cpp **** #include "../h/syscall_c.hpp"
   2:src/syscall_c.cpp **** #include "../h/Riscv.hpp"
   3:src/syscall_c.cpp **** #include "../h/MemoryAllocator.hpp"
   4:src/syscall_c.cpp **** #include "../lib/console.h"
   5:src/syscall_c.cpp **** 
   6:src/syscall_c.cpp **** inline void scall() {
   7:src/syscall_c.cpp **** 	__asm__ volatile("ecall");
   8:src/syscall_c.cpp **** }
   9:src/syscall_c.cpp **** 
  10:src/syscall_c.cpp **** void* mem_alloc(size_t size) {
  12              		.loc 1 10 30
  13              		.cfi_startproc
  14              	.LVL0:
  15 0000 130101FF 		addi	sp,sp,-16
  16              		.cfi_def_cfa_offset 16
  17 0004 23348100 		sd	s0,8(sp)
  18              		.cfi_offset 8, -8
  19 0008 13040101 		addi	s0,sp,16
  20              		.cfi_def_cfa 8, 0
  11:src/syscall_c.cpp **** 	//na size moramo dodati zaglavlje segmenta
  12:src/syscall_c.cpp **** 	size += sizeof(MemoryAllocator::UsedMemSegment);
  21              		.loc 1 12 2
  22              		.loc 1 12 7 is_stmt 0
  23 000c 13050501 		addi	a0,a0,16
  24              	.LVL1:
  13:src/syscall_c.cpp **** 	//size je u bajtovima, pretvara se u blokove
  14:src/syscall_c.cpp **** 	size = size / MEM_BLOCK_SIZE + (size % MEM_BLOCK_SIZE ? 1 : 0);
  25              		.loc 1 14 2 is_stmt 1
  26              		.loc 1 14 14 is_stmt 0
  27 0010 13536500 		srli	t1,a0,6
  28              		.loc 1 14 39
  29 0014 1375F503 		andi	a0,a0,63
  30              	.LVL2:
  31              		.loc 1 14 56
  32 0018 63040500 		beqz	a0,.L2
  33 001c 13051000 		li	a0,1
  34              	.L2:
  35              		.loc 1 14 7 discriminator 4
  36 0020 3303A300 		add	t1,t1,a0
  37              	.LVL3:
  15:src/syscall_c.cpp **** 
  16:src/syscall_c.cpp **** 	//stavljanje argumenata za sistemski poziv
  17:src/syscall_c.cpp **** 	__asm__ volatile("mv a1, %[size]": :[size] "r"(size):"a5", "a0", "a1", "a2", "a3", "a4", "a6", "a7
  38              		.loc 1 17 2 is_stmt 1 discriminator 4
  39              		.loc 1 17 102 is_stmt 0 discriminator 4
  40              	#APP
  41              	# 17 "src/syscall_c.cpp" 1
GAS LISTING /tmp/cczf8nSa.s 			page 2


  18              		__asm__ volatile("li a0, 0x01");
  42              		mv a1, t1
  43              	# 0 "" 2
  44              		.loc 1 18 2 is_stmt 1 discriminator 4
  45              		.loc 1 18 33 is_stmt 0 discriminator 4
  46              	# 18 "src/syscall_c.cpp" 1
  19              		//a0 = 0x01
  20:src/syscall_c.cpp **** 	//a1 = broj blokova velicine MEM_BLOCK_SIZE za alokaciju
  21:src/syscall_c.cpp **** 
  22:src/syscall_c.cpp **** 	scall();
  47              		li a0, 0x01
  48              	# 0 "" 2
  49              		.loc 1 22 2 is_stmt 1 discriminator 4
  50              	#NO_APP
  51              	.LBB16:
  52              	.LBB17:
   7:src/syscall_c.cpp **** }
  53              		.loc 1 7 2 discriminator 4
   7:src/syscall_c.cpp **** }
  54              		.loc 1 7 27 is_stmt 0 discriminator 4
  55              	#APP
  56              	# 7 "src/syscall_c.cpp" 1
  57              		ecall
  58              	# 0 "" 2
  59              	#NO_APP
  60              	.LBE17:
  61              	.LBE16:
  23:src/syscall_c.cpp **** 
  24:src/syscall_c.cpp **** 	void* ret;
  62              		.loc 1 24 2 is_stmt 1 discriminator 4
  25:src/syscall_c.cpp **** 	__asm__ volatile("mv %[ptr], a0":[ptr] "=r"(ret));
  63              		.loc 1 25 2 discriminator 4
  64              		.loc 1 25 51 is_stmt 0 discriminator 4
  65              	#APP
  66              	# 25 "src/syscall_c.cpp" 1
  26              		return ret;
  67              		mv a0, a0
  68              	# 0 "" 2
  69              	.LVL4:
  70              		.loc 1 26 2 is_stmt 1 discriminator 4
  27:src/syscall_c.cpp **** }
  71              		.loc 1 27 1 is_stmt 0 discriminator 4
  72              	#NO_APP
  73 0034 03348100 		ld	s0,8(sp)
  74              		.cfi_restore 8
  75              		.cfi_def_cfa 2, 16
  76 0038 13010101 		addi	sp,sp,16
  77              		.cfi_def_cfa_offset 0
  78 003c 67800000 		jr	ra
  79              		.cfi_endproc
  80              	.LFE19:
  82              		.align	2
  83              		.globl	_Z8mem_freePv
  85              	_Z8mem_freePv:
  86              	.LFB20:
  28:src/syscall_c.cpp **** 
  29:src/syscall_c.cpp **** int mem_free(void* ptr) {
GAS LISTING /tmp/cczf8nSa.s 			page 3


  87              		.loc 1 29 25 is_stmt 1
  88              		.cfi_startproc
  89              	.LVL5:
  90 0040 130101FF 		addi	sp,sp,-16
  91              		.cfi_def_cfa_offset 16
  92 0044 23348100 		sd	s0,8(sp)
  93              		.cfi_offset 8, -8
  94 0048 13040101 		addi	s0,sp,16
  95              		.cfi_def_cfa 8, 0
  96 004c 13030500 		mv	t1,a0
  30:src/syscall_c.cpp **** 	//stavljanje argumenata za sistemski poziv
  31:src/syscall_c.cpp **** 	__asm__ volatile("mv a1, %[ptr]": :[ptr] "r"(ptr):"a5", "a0", "a1", "a2", "a3", "a4", "a6", "a7");
  97              		.loc 1 31 2
  98              		.loc 1 31 99 is_stmt 0
  99              	#APP
 100              	# 31 "src/syscall_c.cpp" 1
  32              		__asm__ volatile("li a0, 0x02");
 101              		mv a1, t1
 102              	# 0 "" 2
 103              	.LVL6:
 104              		.loc 1 32 2 is_stmt 1
 105              		.loc 1 32 33 is_stmt 0
 106              	# 32 "src/syscall_c.cpp" 1
  33              		//a0 = 0x02
  34:src/syscall_c.cpp **** 	//a1 = pokazivac na memoriju koju treba dealocirati
  35:src/syscall_c.cpp **** 
  36:src/syscall_c.cpp **** 	scall();
 107              		li a0, 0x02
 108              	# 0 "" 2
 109              		.loc 1 36 2 is_stmt 1
 110              	#NO_APP
 111              	.LBB18:
 112              	.LBB19:
   7:src/syscall_c.cpp **** }
 113              		.loc 1 7 2
   7:src/syscall_c.cpp **** }
 114              		.loc 1 7 27 is_stmt 0
 115              	#APP
 116              	# 7 "src/syscall_c.cpp" 1
 117              		ecall
 118              	# 0 "" 2
 119              	#NO_APP
 120              	.LBE19:
 121              	.LBE18:
  37:src/syscall_c.cpp **** 
  38:src/syscall_c.cpp **** 	int status;
 122              		.loc 1 38 2 is_stmt 1
  39:src/syscall_c.cpp **** 	__asm__ volatile("mv %[status], a0":[status] "=r"(status));
 123              		.loc 1 39 2
 124              		.loc 1 39 60 is_stmt 0
 125              	#APP
 126              	# 39 "src/syscall_c.cpp" 1
  40              		return status;
 127              		mv a0, a0
 128              	# 0 "" 2
 129              	.LVL7:
 130              		.loc 1 40 2 is_stmt 1
GAS LISTING /tmp/cczf8nSa.s 			page 4


  41:src/syscall_c.cpp **** }
 131              		.loc 1 41 1 is_stmt 0
 132              	#NO_APP
 133 0060 1B050500 		sext.w	a0,a0
 134 0064 03348100 		ld	s0,8(sp)
 135              		.cfi_restore 8
 136              		.cfi_def_cfa 2, 16
 137 0068 13010101 		addi	sp,sp,16
 138              		.cfi_def_cfa_offset 0
 139 006c 67800000 		jr	ra
 140              		.cfi_endproc
 141              	.LFE20:
 143              		.align	2
 144              		.globl	_Z13thread_createPP3TCBPFvPvES2_
 146              	_Z13thread_createPP3TCBPFvPvES2_:
 147              	.LFB21:
  42:src/syscall_c.cpp **** 
  43:src/syscall_c.cpp **** int thread_create(thread_t* handle, void (* start_routine)(void*), void* arg) {
 148              		.loc 1 43 79 is_stmt 1
 149              		.cfi_startproc
 150              	.LVL8:
 151 0070 130101FD 		addi	sp,sp,-48
 152              		.cfi_def_cfa_offset 48
 153 0074 23341102 		sd	ra,40(sp)
 154 0078 23308102 		sd	s0,32(sp)
 155 007c 233C9100 		sd	s1,24(sp)
 156 0080 23382101 		sd	s2,16(sp)
 157 0084 23343101 		sd	s3,8(sp)
 158              		.cfi_offset 1, -8
 159              		.cfi_offset 8, -16
 160              		.cfi_offset 9, -24
 161              		.cfi_offset 18, -32
 162              		.cfi_offset 19, -40
 163 0088 13040103 		addi	s0,sp,48
 164              		.cfi_def_cfa 8, 0
 165 008c 13090500 		mv	s2,a0
 166 0090 93840500 		mv	s1,a1
 167 0094 93090600 		mv	s3,a2
  44:src/syscall_c.cpp **** 	//stvaranje steka ako se ne radi o main kernel niti, posto ona automatski ima stek
  45:src/syscall_c.cpp **** 	uint64* stack = nullptr;
 168              		.loc 1 45 2
 169              	.LVL9:
  46:src/syscall_c.cpp **** 	if (start_routine != nullptr) {
 170              		.loc 1 46 2
 171 0098 63880504 		beqz	a1,.L8
  47:src/syscall_c.cpp **** 		stack = (uint64*)mem_alloc(DEFAULT_STACK_SIZE);
 172              		.loc 1 47 3
 173              		.loc 1 47 29 is_stmt 0
 174 009c 37150000 		li	a0,4096
 175              	.LVL10:
 176 00a0 97000000 		call	_Z9mem_allocm
 176      E7800000 
 177              	.LVL11:
 178 00a8 13030500 		mv	t1,a0
 179              	.LVL12:
 180              	.L7:
  48:src/syscall_c.cpp **** 	}
GAS LISTING /tmp/cczf8nSa.s 			page 5


  49:src/syscall_c.cpp **** 	//uint64* stack = (start_routine != nullptr ? (uint64*)MemoryAllocator::kmalloc(DEFAULT_STACK_SIZE
  50:src/syscall_c.cpp **** 	//stavljanje argumenata za sistemski poziv
  51:src/syscall_c.cpp **** 	__asm__ volatile("mv a4, %[sp]": :[sp] "r"(stack):"a5", "a0", "a1", "a2", "a3", "a4", "a6", "a7");
 181              		.loc 1 51 2 is_stmt 1
 182              		.loc 1 51 99 is_stmt 0
 183              	#APP
 184              	# 51 "src/syscall_c.cpp" 1
  52              		__asm__ volatile("mv a3, %[arg]": :[arg] "r"(arg):"a5", "a0", "a1", "a2", "a3", "a4", "a6", "a7");
 185              		mv a4, t1
 186              	# 0 "" 2
 187              		.loc 1 52 2 is_stmt 1
 188              		.loc 1 52 99 is_stmt 0
 189              	# 52 "src/syscall_c.cpp" 1
  53              		__asm__ volatile("mv a2, %[function]": :[function] "r"(
 190              		mv a3, s3
 191              	# 0 "" 2
 192              		.loc 1 53 2 is_stmt 1
  54:src/syscall_c.cpp **** 			start_routine):"a5", "a0", "a1", "a2", "a3", "a4", "a6", "a7");
 193              		.loc 1 54 66 is_stmt 0
 194              	# 54 "src/syscall_c.cpp" 1
  55              		__asm__ volatile("mv a1, %[handle]": :[handle] "r"(handle):"a5", "a0", "a1", "a2", "a3", "a4", "a6
 195              		mv a2, s1
 196              	# 0 "" 2
 197              		.loc 1 55 2 is_stmt 1
 198              		.loc 1 55 108 is_stmt 0
 199              	# 55 "src/syscall_c.cpp" 1
  56              		__asm__ volatile("li a0, 0x11");
 200              		mv a1, s2
 201              	# 0 "" 2
 202              		.loc 1 56 2 is_stmt 1
 203              		.loc 1 56 33 is_stmt 0
 204              	# 56 "src/syscall_c.cpp" 1
  57              		//a0 = 0x11
  58:src/syscall_c.cpp **** 	//a1 = adresa pokazivaca na rucku niti
  59:src/syscall_c.cpp **** 	//a2 = prva adresa funkcije koju nit izvrsava
  60:src/syscall_c.cpp **** 	//a3 = pokazivac na argumente funkcije
  61:src/syscall_c.cpp **** 	//a4 = pokazivac na najnizu adresu steka (stek raste ka nizim adresama, pokazuje na poslednju zauz
  62:src/syscall_c.cpp **** 
  63:src/syscall_c.cpp **** 	scall();
 205              		li a0, 0x11
 206              	# 0 "" 2
 207              		.loc 1 63 2 is_stmt 1
 208              	#NO_APP
 209              	.LBB20:
 210              	.LBB21:
   7:src/syscall_c.cpp **** }
 211              		.loc 1 7 2
   7:src/syscall_c.cpp **** }
 212              		.loc 1 7 27 is_stmt 0
 213              	#APP
 214              	# 7 "src/syscall_c.cpp" 1
 215              		ecall
 216              	# 0 "" 2
 217              	#NO_APP
 218              	.LBE21:
 219              	.LBE20:
  64:src/syscall_c.cpp **** 
GAS LISTING /tmp/cczf8nSa.s 			page 6


  65:src/syscall_c.cpp **** 	int status;
 220              		.loc 1 65 2 is_stmt 1
  66:src/syscall_c.cpp **** 	__asm__ volatile("mv %[status], a0":[status] "=r"(status));
 221              		.loc 1 66 2
 222              		.loc 1 66 60 is_stmt 0
 223              	#APP
 224              	# 66 "src/syscall_c.cpp" 1
  67              		return status;
 225              		mv a0, a0
 226              	# 0 "" 2
 227              	.LVL13:
 228              		.loc 1 67 2 is_stmt 1
  68:src/syscall_c.cpp **** }
 229              		.loc 1 68 1 is_stmt 0
 230              	#NO_APP
 231 00c8 1B050500 		sext.w	a0,a0
 232 00cc 83308102 		ld	ra,40(sp)
 233              		.cfi_remember_state
 234              		.cfi_restore 1
 235 00d0 03340102 		ld	s0,32(sp)
 236              		.cfi_restore 8
 237              		.cfi_def_cfa 2, 48
 238 00d4 83348101 		ld	s1,24(sp)
 239              		.cfi_restore 9
 240              	.LVL14:
 241 00d8 03390101 		ld	s2,16(sp)
 242              		.cfi_restore 18
 243              	.LVL15:
 244 00dc 83398100 		ld	s3,8(sp)
 245              		.cfi_restore 19
 246              	.LVL16:
 247 00e0 13010103 		addi	sp,sp,48
 248              		.cfi_def_cfa_offset 0
 249 00e4 67800000 		jr	ra
 250              	.LVL17:
 251              	.L8:
 252              		.cfi_restore_state
  45:src/syscall_c.cpp **** 	if (start_routine != nullptr) {
 253              		.loc 1 45 10
 254 00e8 13030000 		li	t1,0
 255 00ec 6FF01FFC 		j	.L7
 256              		.cfi_endproc
 257              	.LFE21:
 259              		.align	2
 260              		.globl	_Z11thread_exitv
 262              	_Z11thread_exitv:
 263              	.LFB22:
  69:src/syscall_c.cpp **** 
  70:src/syscall_c.cpp **** int thread_exit() {
 264              		.loc 1 70 19 is_stmt 1
 265              		.cfi_startproc
 266 00f0 130101FF 		addi	sp,sp,-16
 267              		.cfi_def_cfa_offset 16
 268 00f4 23348100 		sd	s0,8(sp)
 269              		.cfi_offset 8, -8
 270 00f8 13040101 		addi	s0,sp,16
 271              		.cfi_def_cfa 8, 0
GAS LISTING /tmp/cczf8nSa.s 			page 7


  71:src/syscall_c.cpp **** 	//nema argumenata, samo kod sistemskog poziva
  72:src/syscall_c.cpp **** 	__asm__ volatile("li a0, 0x12");
 272              		.loc 1 72 2
 273              		.loc 1 72 33 is_stmt 0
 274              	#APP
 275              	# 72 "src/syscall_c.cpp" 1
  73              	
  74:src/syscall_c.cpp **** 	scall();
 276              		li a0, 0x12
 277              	# 0 "" 2
 278              		.loc 1 74 2 is_stmt 1
 279              	#NO_APP
 280              	.LBB22:
 281              	.LBB23:
   7:src/syscall_c.cpp **** }
 282              		.loc 1 7 2
   7:src/syscall_c.cpp **** }
 283              		.loc 1 7 27 is_stmt 0
 284              	#APP
 285              	# 7 "src/syscall_c.cpp" 1
 286              		ecall
 287              	# 0 "" 2
 288              	#NO_APP
 289              	.LBE23:
 290              	.LBE22:
  75:src/syscall_c.cpp **** 
  76:src/syscall_c.cpp **** 	int status;
 291              		.loc 1 76 2 is_stmt 1
  77:src/syscall_c.cpp **** 	__asm__ volatile("mv %[status], a0":[status] "=r"(status));
 292              		.loc 1 77 2
 293              		.loc 1 77 60 is_stmt 0
 294              	#APP
 295              	# 77 "src/syscall_c.cpp" 1
  78              		return status;
 296              		mv a0, a0
 297              	# 0 "" 2
 298              	.LVL18:
 299              		.loc 1 78 2 is_stmt 1
  79:src/syscall_c.cpp **** }
 300              		.loc 1 79 1 is_stmt 0
 301              	#NO_APP
 302 0108 1B050500 		sext.w	a0,a0
 303 010c 03348100 		ld	s0,8(sp)
 304              		.cfi_restore 8
 305              		.cfi_def_cfa 2, 16
 306 0110 13010101 		addi	sp,sp,16
 307              		.cfi_def_cfa_offset 0
 308 0114 67800000 		jr	ra
 309              		.cfi_endproc
 310              	.LFE22:
 312              		.align	2
 313              		.globl	_Z15thread_dispatchv
 315              	_Z15thread_dispatchv:
 316              	.LFB23:
  80:src/syscall_c.cpp **** 
  81:src/syscall_c.cpp **** void thread_dispatch() {
 317              		.loc 1 81 24 is_stmt 1
GAS LISTING /tmp/cczf8nSa.s 			page 8


 318              		.cfi_startproc
 319 0118 130101FF 		addi	sp,sp,-16
 320              		.cfi_def_cfa_offset 16
 321 011c 23348100 		sd	s0,8(sp)
 322              		.cfi_offset 8, -8
 323 0120 13040101 		addi	s0,sp,16
 324              		.cfi_def_cfa 8, 0
  82:src/syscall_c.cpp **** 	//nema argumenata, samo kod sistemskog poziva
  83:src/syscall_c.cpp **** 	__asm__ volatile("li a0, 0x13");
 325              		.loc 1 83 2
 326              		.loc 1 83 33 is_stmt 0
 327              	#APP
 328              	# 83 "src/syscall_c.cpp" 1
  84              	
  85:src/syscall_c.cpp **** 	scall();
 329              		li a0, 0x13
 330              	# 0 "" 2
 331              		.loc 1 85 2 is_stmt 1
 332              	#NO_APP
 333              	.LBB24:
 334              	.LBB25:
   7:src/syscall_c.cpp **** }
 335              		.loc 1 7 2
   7:src/syscall_c.cpp **** }
 336              		.loc 1 7 27 is_stmt 0
 337              	#APP
 338              	# 7 "src/syscall_c.cpp" 1
 339              		ecall
 340              	# 0 "" 2
 341              	#NO_APP
 342              	.LBE25:
 343              	.LBE24:
  86:src/syscall_c.cpp **** 	//nema povratne vrednosti
  87:src/syscall_c.cpp **** }
 344              		.loc 1 87 1
 345 012c 03348100 		ld	s0,8(sp)
 346              		.cfi_restore 8
 347              		.cfi_def_cfa 2, 16
 348 0130 13010101 		addi	sp,sp,16
 349              		.cfi_def_cfa_offset 0
 350 0134 67800000 		jr	ra
 351              		.cfi_endproc
 352              	.LFE23:
 354              		.align	2
 355              		.globl	_Z11thread_joinP3TCB
 357              	_Z11thread_joinP3TCB:
 358              	.LFB24:
  88:src/syscall_c.cpp **** 
  89:src/syscall_c.cpp **** void thread_join(thread_t handle) {
 359              		.loc 1 89 35 is_stmt 1
 360              		.cfi_startproc
 361              	.LVL19:
 362 0138 130101FF 		addi	sp,sp,-16
 363              		.cfi_def_cfa_offset 16
 364 013c 23348100 		sd	s0,8(sp)
 365              		.cfi_offset 8, -8
 366 0140 13040101 		addi	s0,sp,16
GAS LISTING /tmp/cczf8nSa.s 			page 9


 367              		.cfi_def_cfa 8, 0
 368 0144 13030500 		mv	t1,a0
  90:src/syscall_c.cpp **** //stavljanje argumenata za sistemski poziv
  91:src/syscall_c.cpp **** 	__asm__ volatile("mv a1, %[handle]": :[handle] "r"(handle):"a5", "a0", "a1", "a2", "a3", "a4", "a6
 369              		.loc 1 91 2
 370              		.loc 1 91 108 is_stmt 0
 371              	#APP
 372              	# 91 "src/syscall_c.cpp" 1
  92              		__asm__ volatile("li a0, 0x14");
 373              		mv a1, t1
 374              	# 0 "" 2
 375              	.LVL20:
 376              		.loc 1 92 2 is_stmt 1
 377              		.loc 1 92 33 is_stmt 0
 378              	# 92 "src/syscall_c.cpp" 1
  93              		//a0 = 0x14
  94:src/syscall_c.cpp **** 	//a1 = rucka niti na koju se ceka
  95:src/syscall_c.cpp **** 
  96:src/syscall_c.cpp **** 	scall();
 379              		li a0, 0x14
 380              	# 0 "" 2
 381              		.loc 1 96 2 is_stmt 1
 382              	#NO_APP
 383              	.LBB26:
 384              	.LBB27:
   7:src/syscall_c.cpp **** }
 385              		.loc 1 7 2
   7:src/syscall_c.cpp **** }
 386              		.loc 1 7 27 is_stmt 0
 387              	#APP
 388              	# 7 "src/syscall_c.cpp" 1
 389              		ecall
 390              	# 0 "" 2
 391              	#NO_APP
 392              	.LBE27:
 393              	.LBE26:
  97:src/syscall_c.cpp **** }
 394              		.loc 1 97 1
 395 0154 03348100 		ld	s0,8(sp)
 396              		.cfi_restore 8
 397              		.cfi_def_cfa 2, 16
 398 0158 13010101 		addi	sp,sp,16
 399              		.cfi_def_cfa_offset 0
 400 015c 67800000 		jr	ra
 401              		.cfi_endproc
 402              	.LFE24:
 404              		.align	2
 405              		.globl	_Z10time_sleepm
 407              	_Z10time_sleepm:
 408              	.LFB25:
  98:src/syscall_c.cpp **** 
  99:src/syscall_c.cpp **** int time_sleep(time_t timerPeriods) {
 409              		.loc 1 99 37 is_stmt 1
 410              		.cfi_startproc
 411              	.LVL21:
 412 0160 130101FF 		addi	sp,sp,-16
 413              		.cfi_def_cfa_offset 16
GAS LISTING /tmp/cczf8nSa.s 			page 10


 414 0164 23348100 		sd	s0,8(sp)
 415              		.cfi_offset 8, -8
 416 0168 13040101 		addi	s0,sp,16
 417              		.cfi_def_cfa 8, 0
 418 016c 13030500 		mv	t1,a0
 100:src/syscall_c.cpp **** 	//stavljanje argumenata za sistemski poziv
 101:src/syscall_c.cpp **** 	__asm__ volatile("mv a1, %[time]": :[time] "r"(timerPeriods):"a5", "a0", "a1", "a2", "a3", "a4", "
 419              		.loc 1 101 2
 420              		.loc 1 101 110 is_stmt 0
 421              	#APP
 422              	# 101 "src/syscall_c.cpp" 1
 102              		__asm__ volatile("li a0, 0x31");
 423              		mv a1, t1
 424              	# 0 "" 2
 425              	.LVL22:
 426              		.loc 1 102 2 is_stmt 1
 427              		.loc 1 102 33 is_stmt 0
 428              	# 102 "src/syscall_c.cpp" 1
 103              		//a0 = 0x31
 104:src/syscall_c.cpp **** 	//a1 = broj perioda tajmera na koji se uspavljuje nit
 105:src/syscall_c.cpp **** 
 106:src/syscall_c.cpp **** 	scall();
 429              		li a0, 0x31
 430              	# 0 "" 2
 431              		.loc 1 106 2 is_stmt 1
 432              	#NO_APP
 433              	.LBB28:
 434              	.LBB29:
   7:src/syscall_c.cpp **** }
 435              		.loc 1 7 2
   7:src/syscall_c.cpp **** }
 436              		.loc 1 7 27 is_stmt 0
 437              	#APP
 438              	# 7 "src/syscall_c.cpp" 1
 439              		ecall
 440              	# 0 "" 2
 441              	#NO_APP
 442              	.LBE29:
 443              	.LBE28:
 107:src/syscall_c.cpp **** 
 108:src/syscall_c.cpp **** 	int status;
 444              		.loc 1 108 2 is_stmt 1
 109:src/syscall_c.cpp **** 	__asm__ volatile("mv %[status], a0":[status] "=r"(status));
 445              		.loc 1 109 2
 446              		.loc 1 109 60 is_stmt 0
 447              	#APP
 448              	# 109 "src/syscall_c.cpp" 1
 110              		return status;
 449              		mv a0, a0
 450              	# 0 "" 2
 451              	.LVL23:
 452              		.loc 1 110 2 is_stmt 1
 111:src/syscall_c.cpp **** }
 453              		.loc 1 111 1 is_stmt 0
 454              	#NO_APP
 455 0180 1B050500 		sext.w	a0,a0
 456 0184 03348100 		ld	s0,8(sp)
GAS LISTING /tmp/cczf8nSa.s 			page 11


 457              		.cfi_restore 8
 458              		.cfi_def_cfa 2, 16
 459 0188 13010101 		addi	sp,sp,16
 460              		.cfi_def_cfa_offset 0
 461 018c 67800000 		jr	ra
 462              		.cfi_endproc
 463              	.LFE25:
 465              		.align	2
 466              		.globl	_Z8sem_openPP4_semj
 468              	_Z8sem_openPP4_semj:
 469              	.LFB26:
 112:src/syscall_c.cpp **** 
 113:src/syscall_c.cpp **** int sem_open(sem_t* handle, unsigned int init) {
 470              		.loc 1 113 48 is_stmt 1
 471              		.cfi_startproc
 472              	.LVL24:
 473 0190 130101FF 		addi	sp,sp,-16
 474              		.cfi_def_cfa_offset 16
 475 0194 23348100 		sd	s0,8(sp)
 476              		.cfi_offset 8, -8
 477 0198 13040101 		addi	s0,sp,16
 478              		.cfi_def_cfa 8, 0
 114:src/syscall_c.cpp **** 	return 0;
 479              		.loc 1 114 2
 115:src/syscall_c.cpp **** }
 480              		.loc 1 115 1 is_stmt 0
 481 019c 13050000 		li	a0,0
 482              	.LVL25:
 483 01a0 03348100 		ld	s0,8(sp)
 484              		.cfi_restore 8
 485              		.cfi_def_cfa 2, 16
 486 01a4 13010101 		addi	sp,sp,16
 487              		.cfi_def_cfa_offset 0
 488 01a8 67800000 		jr	ra
 489              		.cfi_endproc
 490              	.LFE26:
 492              		.align	2
 493              		.globl	_Z9sem_closeP4_sem
 495              	_Z9sem_closeP4_sem:
 496              	.LFB27:
 116:src/syscall_c.cpp **** 
 117:src/syscall_c.cpp **** int sem_close(sem_t handle) {
 497              		.loc 1 117 29 is_stmt 1
 498              		.cfi_startproc
 499              	.LVL26:
 500 01ac 130101FF 		addi	sp,sp,-16
 501              		.cfi_def_cfa_offset 16
 502 01b0 23348100 		sd	s0,8(sp)
 503              		.cfi_offset 8, -8
 504 01b4 13040101 		addi	s0,sp,16
 505              		.cfi_def_cfa 8, 0
 118:src/syscall_c.cpp **** 	return 0;
 506              		.loc 1 118 2
 119:src/syscall_c.cpp **** }
 507              		.loc 1 119 1 is_stmt 0
 508 01b8 13050000 		li	a0,0
 509              	.LVL27:
GAS LISTING /tmp/cczf8nSa.s 			page 12


 510 01bc 03348100 		ld	s0,8(sp)
 511              		.cfi_restore 8
 512              		.cfi_def_cfa 2, 16
 513 01c0 13010101 		addi	sp,sp,16
 514              		.cfi_def_cfa_offset 0
 515 01c4 67800000 		jr	ra
 516              		.cfi_endproc
 517              	.LFE27:
 519              		.align	2
 520              		.globl	_Z8sem_waitP4_sem
 522              	_Z8sem_waitP4_sem:
 523              	.LFB28:
 120:src/syscall_c.cpp **** 
 121:src/syscall_c.cpp **** int sem_wait(sem_t id) {
 524              		.loc 1 121 24 is_stmt 1
 525              		.cfi_startproc
 526              	.LVL28:
 527 01c8 130101FF 		addi	sp,sp,-16
 528              		.cfi_def_cfa_offset 16
 529 01cc 23348100 		sd	s0,8(sp)
 530              		.cfi_offset 8, -8
 531 01d0 13040101 		addi	s0,sp,16
 532              		.cfi_def_cfa 8, 0
 122:src/syscall_c.cpp **** 	return 0;
 533              		.loc 1 122 2
 123:src/syscall_c.cpp **** }
 534              		.loc 1 123 1 is_stmt 0
 535 01d4 13050000 		li	a0,0
 536              	.LVL29:
 537 01d8 03348100 		ld	s0,8(sp)
 538              		.cfi_restore 8
 539              		.cfi_def_cfa 2, 16
 540 01dc 13010101 		addi	sp,sp,16
 541              		.cfi_def_cfa_offset 0
 542 01e0 67800000 		jr	ra
 543              		.cfi_endproc
 544              	.LFE28:
 546              		.align	2
 547              		.globl	_Z10sem_signalP4_sem
 549              	_Z10sem_signalP4_sem:
 550              	.LFB29:
 124:src/syscall_c.cpp **** 
 125:src/syscall_c.cpp **** int sem_signal(sem_t id) {
 551              		.loc 1 125 26 is_stmt 1
 552              		.cfi_startproc
 553              	.LVL30:
 554 01e4 130101FF 		addi	sp,sp,-16
 555              		.cfi_def_cfa_offset 16
 556 01e8 23348100 		sd	s0,8(sp)
 557              		.cfi_offset 8, -8
 558 01ec 13040101 		addi	s0,sp,16
 559              		.cfi_def_cfa 8, 0
 126:src/syscall_c.cpp **** 	return 0;
 560              		.loc 1 126 2
 127:src/syscall_c.cpp **** }
 561              		.loc 1 127 1 is_stmt 0
 562 01f0 13050000 		li	a0,0
GAS LISTING /tmp/cczf8nSa.s 			page 13


 563              	.LVL31:
 564 01f4 03348100 		ld	s0,8(sp)
 565              		.cfi_restore 8
 566              		.cfi_def_cfa 2, 16
 567 01f8 13010101 		addi	sp,sp,16
 568              		.cfi_def_cfa_offset 0
 569 01fc 67800000 		jr	ra
 570              		.cfi_endproc
 571              	.LFE29:
 573              		.align	2
 574              		.globl	_Z4getcv
 576              	_Z4getcv:
 577              	.LFB30:
 128:src/syscall_c.cpp **** 
 129:src/syscall_c.cpp **** char getc() {
 578              		.loc 1 129 13 is_stmt 1
 579              		.cfi_startproc
 580 0200 130101FF 		addi	sp,sp,-16
 581              		.cfi_def_cfa_offset 16
 582 0204 23341100 		sd	ra,8(sp)
 583 0208 23308100 		sd	s0,0(sp)
 584              		.cfi_offset 1, -8
 585              		.cfi_offset 8, -16
 586 020c 13040101 		addi	s0,sp,16
 587              		.cfi_def_cfa 8, 0
 130:src/syscall_c.cpp **** 	return __getc();
 588              		.loc 1 130 2
 589              		.loc 1 130 15 is_stmt 0
 590 0210 97000000 		call	__getc@plt
 590      E7800000 
 591              	.LVL32:
 131:src/syscall_c.cpp **** }
 592              		.loc 1 131 1
 593 0218 83308100 		ld	ra,8(sp)
 594              		.cfi_restore 1
 595 021c 03340100 		ld	s0,0(sp)
 596              		.cfi_restore 8
 597              		.cfi_def_cfa 2, 16
 598 0220 13010101 		addi	sp,sp,16
 599              		.cfi_def_cfa_offset 0
 600 0224 67800000 		jr	ra
 601              		.cfi_endproc
 602              	.LFE30:
 604              		.align	2
 605              		.globl	_Z4putcc
 607              	_Z4putcc:
 608              	.LFB31:
 132:src/syscall_c.cpp **** 
 133:src/syscall_c.cpp **** void putc(char c) {
 609              		.loc 1 133 19 is_stmt 1
 610              		.cfi_startproc
 611              	.LVL33:
 612 0228 130101FF 		addi	sp,sp,-16
 613              		.cfi_def_cfa_offset 16
 614 022c 23341100 		sd	ra,8(sp)
 615 0230 23308100 		sd	s0,0(sp)
 616              		.cfi_offset 1, -8
GAS LISTING /tmp/cczf8nSa.s 			page 14


 617              		.cfi_offset 8, -16
 618 0234 13040101 		addi	s0,sp,16
 619              		.cfi_def_cfa 8, 0
 134:src/syscall_c.cpp **** 	__putc(c);
 620              		.loc 1 134 2
 621              		.loc 1 134 8 is_stmt 0
 622 0238 97000000 		call	__putc@plt
 622      E7800000 
 623              	.LVL34:
 135:src/syscall_c.cpp **** }
 624              		.loc 1 135 1
 625 0240 83308100 		ld	ra,8(sp)
 626              		.cfi_restore 1
 627 0244 03340100 		ld	s0,0(sp)
 628              		.cfi_restore 8
 629              		.cfi_def_cfa 2, 16
 630 0248 13010101 		addi	sp,sp,16
 631              		.cfi_def_cfa_offset 0
 632 024c 67800000 		jr	ra
 633              		.cfi_endproc
 634              	.LFE31:
 636              	.Letext0:
 637              		.file 2 "src/../h/../lib/hw.h"
 638              		.file 3 "src/../h/syscall_c.hpp"
 639              		.file 4 "src/../lib/console.h"
GAS LISTING /tmp/cczf8nSa.s 			page 15


DEFINED SYMBOLS
                            *ABS*:0000000000000000 syscall_c.cpp
     /tmp/cczf8nSa.s:9      .text:0000000000000000 _Z9mem_allocm
     /tmp/cczf8nSa.s:13     .text:0000000000000000 .L0 
     /tmp/cczf8nSa.s:15     .text:0000000000000000 .L0 
     /tmp/cczf8nSa.s:16     .text:0000000000000004 .L0 
     /tmp/cczf8nSa.s:18     .text:0000000000000008 .L0 
     /tmp/cczf8nSa.s:20     .text:000000000000000c .L0 
     /tmp/cczf8nSa.s:22     .text:000000000000000c .L0 
     /tmp/cczf8nSa.s:23     .text:000000000000000c .L0 
     /tmp/cczf8nSa.s:26     .text:0000000000000010 .L0 
     /tmp/cczf8nSa.s:27     .text:0000000000000010 .L0 
     /tmp/cczf8nSa.s:29     .text:0000000000000014 .L0 
     /tmp/cczf8nSa.s:32     .text:0000000000000018 .L0 
     /tmp/cczf8nSa.s:36     .text:0000000000000020 .L0 
     /tmp/cczf8nSa.s:39     .text:0000000000000024 .L0 
   src/syscall_c.cpp:17     .text:0000000000000024 .L0 
     /tmp/cczf8nSa.s:45     .text:0000000000000028 .L0 
   src/syscall_c.cpp:18     .text:0000000000000028 .L0 
     /tmp/cczf8nSa.s:53     .text:000000000000002c .L0 
     /tmp/cczf8nSa.s:54     .text:000000000000002c .L0 
   src/syscall_c.cpp:7      .text:000000000000002c .L0 
     /tmp/cczf8nSa.s:63     .text:0000000000000030 .L0 
     /tmp/cczf8nSa.s:64     .text:0000000000000030 .L0 
   src/syscall_c.cpp:25     .text:0000000000000030 .L0 
     /tmp/cczf8nSa.s:71     .text:0000000000000034 .L0 
     /tmp/cczf8nSa.s:73     .text:0000000000000034 .L0 
     /tmp/cczf8nSa.s:74     .text:0000000000000038 .L0 
     /tmp/cczf8nSa.s:75     .text:0000000000000038 .L0 
     /tmp/cczf8nSa.s:77     .text:000000000000003c .L0 
     /tmp/cczf8nSa.s:79     .text:0000000000000040 .L0 
     /tmp/cczf8nSa.s:85     .text:0000000000000040 _Z8mem_freePv
     /tmp/cczf8nSa.s:88     .text:0000000000000040 .L0 
     /tmp/cczf8nSa.s:90     .text:0000000000000040 .L0 
     /tmp/cczf8nSa.s:91     .text:0000000000000044 .L0 
     /tmp/cczf8nSa.s:93     .text:0000000000000048 .L0 
     /tmp/cczf8nSa.s:95     .text:000000000000004c .L0 
     /tmp/cczf8nSa.s:98     .text:0000000000000050 .L0 
   src/syscall_c.cpp:31     .text:0000000000000050 .L0 
     /tmp/cczf8nSa.s:105    .text:0000000000000054 .L0 
   src/syscall_c.cpp:32     .text:0000000000000054 .L0 
     /tmp/cczf8nSa.s:113    .text:0000000000000058 .L0 
     /tmp/cczf8nSa.s:114    .text:0000000000000058 .L0 
   src/syscall_c.cpp:7      .text:0000000000000058 .L0 
     /tmp/cczf8nSa.s:123    .text:000000000000005c .L0 
     /tmp/cczf8nSa.s:124    .text:000000000000005c .L0 
   src/syscall_c.cpp:39     .text:000000000000005c .L0 
     /tmp/cczf8nSa.s:131    .text:0000000000000060 .L0 
     /tmp/cczf8nSa.s:133    .text:0000000000000060 .L0 
     /tmp/cczf8nSa.s:135    .text:0000000000000068 .L0 
     /tmp/cczf8nSa.s:136    .text:0000000000000068 .L0 
     /tmp/cczf8nSa.s:138    .text:000000000000006c .L0 
     /tmp/cczf8nSa.s:140    .text:0000000000000070 .L0 
     /tmp/cczf8nSa.s:146    .text:0000000000000070 _Z13thread_createPP3TCBPFvPvES2_
     /tmp/cczf8nSa.s:149    .text:0000000000000070 .L0 
     /tmp/cczf8nSa.s:151    .text:0000000000000070 .L0 
     /tmp/cczf8nSa.s:152    .text:0000000000000074 .L0 
GAS LISTING /tmp/cczf8nSa.s 			page 16


     /tmp/cczf8nSa.s:158    .text:0000000000000088 .L0 
     /tmp/cczf8nSa.s:159    .text:0000000000000088 .L0 
     /tmp/cczf8nSa.s:160    .text:0000000000000088 .L0 
     /tmp/cczf8nSa.s:161    .text:0000000000000088 .L0 
     /tmp/cczf8nSa.s:162    .text:0000000000000088 .L0 
     /tmp/cczf8nSa.s:164    .text:000000000000008c .L0 
     /tmp/cczf8nSa.s:170    .text:0000000000000098 .L0 
     /tmp/cczf8nSa.s:171    .text:0000000000000098 .L0 
     /tmp/cczf8nSa.s:173    .text:000000000000009c .L0 
     /tmp/cczf8nSa.s:174    .text:000000000000009c .L0 
     /tmp/cczf8nSa.s:182    .text:00000000000000ac .L0 
   src/syscall_c.cpp:51     .text:00000000000000ac .L0 
     /tmp/cczf8nSa.s:188    .text:00000000000000b0 .L0 
   src/syscall_c.cpp:52     .text:00000000000000b0 .L0 
     /tmp/cczf8nSa.s:193    .text:00000000000000b4 .L0 
   src/syscall_c.cpp:54     .text:00000000000000b4 .L0 
     /tmp/cczf8nSa.s:198    .text:00000000000000b8 .L0 
   src/syscall_c.cpp:55     .text:00000000000000b8 .L0 
     /tmp/cczf8nSa.s:203    .text:00000000000000bc .L0 
   src/syscall_c.cpp:56     .text:00000000000000bc .L0 
     /tmp/cczf8nSa.s:211    .text:00000000000000c0 .L0 
     /tmp/cczf8nSa.s:212    .text:00000000000000c0 .L0 
   src/syscall_c.cpp:7      .text:00000000000000c0 .L0 
     /tmp/cczf8nSa.s:221    .text:00000000000000c4 .L0 
     /tmp/cczf8nSa.s:222    .text:00000000000000c4 .L0 
   src/syscall_c.cpp:66     .text:00000000000000c4 .L0 
     /tmp/cczf8nSa.s:229    .text:00000000000000c8 .L0 
     /tmp/cczf8nSa.s:231    .text:00000000000000c8 .L0 
     /tmp/cczf8nSa.s:233    .text:00000000000000d0 .L0 
     /tmp/cczf8nSa.s:234    .text:00000000000000d0 .L0 
     /tmp/cczf8nSa.s:236    .text:00000000000000d4 .L0 
     /tmp/cczf8nSa.s:237    .text:00000000000000d4 .L0 
     /tmp/cczf8nSa.s:239    .text:00000000000000d8 .L0 
     /tmp/cczf8nSa.s:242    .text:00000000000000dc .L0 
     /tmp/cczf8nSa.s:245    .text:00000000000000e0 .L0 
     /tmp/cczf8nSa.s:248    .text:00000000000000e4 .L0 
     /tmp/cczf8nSa.s:252    .text:00000000000000e8 .L0 
     /tmp/cczf8nSa.s:254    .text:00000000000000e8 .L0 
     /tmp/cczf8nSa.s:256    .text:00000000000000f0 .L0 
     /tmp/cczf8nSa.s:262    .text:00000000000000f0 _Z11thread_exitv
     /tmp/cczf8nSa.s:265    .text:00000000000000f0 .L0 
     /tmp/cczf8nSa.s:266    .text:00000000000000f0 .L0 
     /tmp/cczf8nSa.s:267    .text:00000000000000f4 .L0 
     /tmp/cczf8nSa.s:269    .text:00000000000000f8 .L0 
     /tmp/cczf8nSa.s:271    .text:00000000000000fc .L0 
     /tmp/cczf8nSa.s:273    .text:00000000000000fc .L0 
   src/syscall_c.cpp:72     .text:00000000000000fc .L0 
     /tmp/cczf8nSa.s:282    .text:0000000000000100 .L0 
     /tmp/cczf8nSa.s:283    .text:0000000000000100 .L0 
   src/syscall_c.cpp:7      .text:0000000000000100 .L0 
     /tmp/cczf8nSa.s:292    .text:0000000000000104 .L0 
     /tmp/cczf8nSa.s:293    .text:0000000000000104 .L0 
   src/syscall_c.cpp:77     .text:0000000000000104 .L0 
     /tmp/cczf8nSa.s:300    .text:0000000000000108 .L0 
     /tmp/cczf8nSa.s:302    .text:0000000000000108 .L0 
     /tmp/cczf8nSa.s:304    .text:0000000000000110 .L0 
     /tmp/cczf8nSa.s:305    .text:0000000000000110 .L0 
GAS LISTING /tmp/cczf8nSa.s 			page 17


     /tmp/cczf8nSa.s:307    .text:0000000000000114 .L0 
     /tmp/cczf8nSa.s:309    .text:0000000000000118 .L0 
     /tmp/cczf8nSa.s:315    .text:0000000000000118 _Z15thread_dispatchv
     /tmp/cczf8nSa.s:318    .text:0000000000000118 .L0 
     /tmp/cczf8nSa.s:319    .text:0000000000000118 .L0 
     /tmp/cczf8nSa.s:320    .text:000000000000011c .L0 
     /tmp/cczf8nSa.s:322    .text:0000000000000120 .L0 
     /tmp/cczf8nSa.s:324    .text:0000000000000124 .L0 
     /tmp/cczf8nSa.s:326    .text:0000000000000124 .L0 
   src/syscall_c.cpp:83     .text:0000000000000124 .L0 
     /tmp/cczf8nSa.s:335    .text:0000000000000128 .L0 
     /tmp/cczf8nSa.s:336    .text:0000000000000128 .L0 
   src/syscall_c.cpp:7      .text:0000000000000128 .L0 
     /tmp/cczf8nSa.s:345    .text:000000000000012c .L0 
     /tmp/cczf8nSa.s:346    .text:0000000000000130 .L0 
     /tmp/cczf8nSa.s:347    .text:0000000000000130 .L0 
     /tmp/cczf8nSa.s:349    .text:0000000000000134 .L0 
     /tmp/cczf8nSa.s:351    .text:0000000000000138 .L0 
     /tmp/cczf8nSa.s:357    .text:0000000000000138 _Z11thread_joinP3TCB
     /tmp/cczf8nSa.s:360    .text:0000000000000138 .L0 
     /tmp/cczf8nSa.s:362    .text:0000000000000138 .L0 
     /tmp/cczf8nSa.s:363    .text:000000000000013c .L0 
     /tmp/cczf8nSa.s:365    .text:0000000000000140 .L0 
     /tmp/cczf8nSa.s:367    .text:0000000000000144 .L0 
     /tmp/cczf8nSa.s:370    .text:0000000000000148 .L0 
   src/syscall_c.cpp:91     .text:0000000000000148 .L0 
     /tmp/cczf8nSa.s:377    .text:000000000000014c .L0 
   src/syscall_c.cpp:92     .text:000000000000014c .L0 
     /tmp/cczf8nSa.s:385    .text:0000000000000150 .L0 
     /tmp/cczf8nSa.s:386    .text:0000000000000150 .L0 
   src/syscall_c.cpp:7      .text:0000000000000150 .L0 
     /tmp/cczf8nSa.s:395    .text:0000000000000154 .L0 
     /tmp/cczf8nSa.s:396    .text:0000000000000158 .L0 
     /tmp/cczf8nSa.s:397    .text:0000000000000158 .L0 
     /tmp/cczf8nSa.s:399    .text:000000000000015c .L0 
     /tmp/cczf8nSa.s:401    .text:0000000000000160 .L0 
     /tmp/cczf8nSa.s:407    .text:0000000000000160 _Z10time_sleepm
     /tmp/cczf8nSa.s:410    .text:0000000000000160 .L0 
     /tmp/cczf8nSa.s:412    .text:0000000000000160 .L0 
     /tmp/cczf8nSa.s:413    .text:0000000000000164 .L0 
     /tmp/cczf8nSa.s:415    .text:0000000000000168 .L0 
     /tmp/cczf8nSa.s:417    .text:000000000000016c .L0 
     /tmp/cczf8nSa.s:420    .text:0000000000000170 .L0 
   src/syscall_c.cpp:101    .text:0000000000000170 .L0 
     /tmp/cczf8nSa.s:427    .text:0000000000000174 .L0 
   src/syscall_c.cpp:102    .text:0000000000000174 .L0 
     /tmp/cczf8nSa.s:435    .text:0000000000000178 .L0 
     /tmp/cczf8nSa.s:436    .text:0000000000000178 .L0 
   src/syscall_c.cpp:7      .text:0000000000000178 .L0 
     /tmp/cczf8nSa.s:445    .text:000000000000017c .L0 
     /tmp/cczf8nSa.s:446    .text:000000000000017c .L0 
   src/syscall_c.cpp:109    .text:000000000000017c .L0 
     /tmp/cczf8nSa.s:453    .text:0000000000000180 .L0 
     /tmp/cczf8nSa.s:455    .text:0000000000000180 .L0 
     /tmp/cczf8nSa.s:457    .text:0000000000000188 .L0 
     /tmp/cczf8nSa.s:458    .text:0000000000000188 .L0 
     /tmp/cczf8nSa.s:460    .text:000000000000018c .L0 
GAS LISTING /tmp/cczf8nSa.s 			page 18


     /tmp/cczf8nSa.s:462    .text:0000000000000190 .L0 
     /tmp/cczf8nSa.s:468    .text:0000000000000190 _Z8sem_openPP4_semj
     /tmp/cczf8nSa.s:471    .text:0000000000000190 .L0 
     /tmp/cczf8nSa.s:473    .text:0000000000000190 .L0 
     /tmp/cczf8nSa.s:474    .text:0000000000000194 .L0 
     /tmp/cczf8nSa.s:476    .text:0000000000000198 .L0 
     /tmp/cczf8nSa.s:478    .text:000000000000019c .L0 
     /tmp/cczf8nSa.s:480    .text:000000000000019c .L0 
     /tmp/cczf8nSa.s:481    .text:000000000000019c .L0 
     /tmp/cczf8nSa.s:484    .text:00000000000001a4 .L0 
     /tmp/cczf8nSa.s:485    .text:00000000000001a4 .L0 
     /tmp/cczf8nSa.s:487    .text:00000000000001a8 .L0 
     /tmp/cczf8nSa.s:489    .text:00000000000001ac .L0 
     /tmp/cczf8nSa.s:495    .text:00000000000001ac _Z9sem_closeP4_sem
     /tmp/cczf8nSa.s:498    .text:00000000000001ac .L0 
     /tmp/cczf8nSa.s:500    .text:00000000000001ac .L0 
     /tmp/cczf8nSa.s:501    .text:00000000000001b0 .L0 
     /tmp/cczf8nSa.s:503    .text:00000000000001b4 .L0 
     /tmp/cczf8nSa.s:505    .text:00000000000001b8 .L0 
     /tmp/cczf8nSa.s:507    .text:00000000000001b8 .L0 
     /tmp/cczf8nSa.s:508    .text:00000000000001b8 .L0 
     /tmp/cczf8nSa.s:511    .text:00000000000001c0 .L0 
     /tmp/cczf8nSa.s:512    .text:00000000000001c0 .L0 
     /tmp/cczf8nSa.s:514    .text:00000000000001c4 .L0 
     /tmp/cczf8nSa.s:516    .text:00000000000001c8 .L0 
     /tmp/cczf8nSa.s:522    .text:00000000000001c8 _Z8sem_waitP4_sem
     /tmp/cczf8nSa.s:525    .text:00000000000001c8 .L0 
     /tmp/cczf8nSa.s:527    .text:00000000000001c8 .L0 
     /tmp/cczf8nSa.s:528    .text:00000000000001cc .L0 
     /tmp/cczf8nSa.s:530    .text:00000000000001d0 .L0 
     /tmp/cczf8nSa.s:532    .text:00000000000001d4 .L0 
     /tmp/cczf8nSa.s:534    .text:00000000000001d4 .L0 
     /tmp/cczf8nSa.s:535    .text:00000000000001d4 .L0 
     /tmp/cczf8nSa.s:538    .text:00000000000001dc .L0 
     /tmp/cczf8nSa.s:539    .text:00000000000001dc .L0 
     /tmp/cczf8nSa.s:541    .text:00000000000001e0 .L0 
     /tmp/cczf8nSa.s:543    .text:00000000000001e4 .L0 
     /tmp/cczf8nSa.s:549    .text:00000000000001e4 _Z10sem_signalP4_sem
     /tmp/cczf8nSa.s:552    .text:00000000000001e4 .L0 
     /tmp/cczf8nSa.s:554    .text:00000000000001e4 .L0 
     /tmp/cczf8nSa.s:555    .text:00000000000001e8 .L0 
     /tmp/cczf8nSa.s:557    .text:00000000000001ec .L0 
     /tmp/cczf8nSa.s:559    .text:00000000000001f0 .L0 
     /tmp/cczf8nSa.s:561    .text:00000000000001f0 .L0 
     /tmp/cczf8nSa.s:562    .text:00000000000001f0 .L0 
     /tmp/cczf8nSa.s:565    .text:00000000000001f8 .L0 
     /tmp/cczf8nSa.s:566    .text:00000000000001f8 .L0 
     /tmp/cczf8nSa.s:568    .text:00000000000001fc .L0 
     /tmp/cczf8nSa.s:570    .text:0000000000000200 .L0 
     /tmp/cczf8nSa.s:576    .text:0000000000000200 _Z4getcv
     /tmp/cczf8nSa.s:579    .text:0000000000000200 .L0 
     /tmp/cczf8nSa.s:580    .text:0000000000000200 .L0 
     /tmp/cczf8nSa.s:581    .text:0000000000000204 .L0 
     /tmp/cczf8nSa.s:584    .text:000000000000020c .L0 
     /tmp/cczf8nSa.s:585    .text:000000000000020c .L0 
     /tmp/cczf8nSa.s:587    .text:0000000000000210 .L0 
     /tmp/cczf8nSa.s:589    .text:0000000000000210 .L0 
GAS LISTING /tmp/cczf8nSa.s 			page 19


     /tmp/cczf8nSa.s:590    .text:0000000000000210 .L0 
     /tmp/cczf8nSa.s:593    .text:0000000000000218 .L0 
     /tmp/cczf8nSa.s:594    .text:000000000000021c .L0 
     /tmp/cczf8nSa.s:596    .text:0000000000000220 .L0 
     /tmp/cczf8nSa.s:597    .text:0000000000000220 .L0 
     /tmp/cczf8nSa.s:599    .text:0000000000000224 .L0 
     /tmp/cczf8nSa.s:601    .text:0000000000000228 .L0 
     /tmp/cczf8nSa.s:607    .text:0000000000000228 _Z4putcc
     /tmp/cczf8nSa.s:610    .text:0000000000000228 .L0 
     /tmp/cczf8nSa.s:612    .text:0000000000000228 .L0 
     /tmp/cczf8nSa.s:613    .text:000000000000022c .L0 
     /tmp/cczf8nSa.s:616    .text:0000000000000234 .L0 
     /tmp/cczf8nSa.s:617    .text:0000000000000234 .L0 
     /tmp/cczf8nSa.s:619    .text:0000000000000238 .L0 
     /tmp/cczf8nSa.s:621    .text:0000000000000238 .L0 
     /tmp/cczf8nSa.s:622    .text:0000000000000238 .L0 
     /tmp/cczf8nSa.s:625    .text:0000000000000240 .L0 
     /tmp/cczf8nSa.s:626    .text:0000000000000244 .L0 
     /tmp/cczf8nSa.s:628    .text:0000000000000248 .L0 
     /tmp/cczf8nSa.s:629    .text:0000000000000248 .L0 
     /tmp/cczf8nSa.s:631    .text:000000000000024c .L0 
     /tmp/cczf8nSa.s:633    .text:0000000000000250 .L0 
     /tmp/cczf8nSa.s:640    .text:0000000000000250 .L0 
     /tmp/cczf8nSa.s:34     .text:0000000000000020 .L2
     /tmp/cczf8nSa.s:251    .text:00000000000000e8 .L8
     /tmp/cczf8nSa.s:180    .text:00000000000000ac .L7
     /tmp/cczf8nSa.s:1220   .debug_abbrev:0000000000000000 .Ldebug_abbrev0
     /tmp/cczf8nSa.s:1996   .debug_str:00000000000002dc .LASF58
     /tmp/cczf8nSa.s:1940   .debug_str:000000000000015d .LASF59
     /tmp/cczf8nSa.s:1928   .debug_str:0000000000000111 .LASF60
     /tmp/cczf8nSa.s:5      .text:0000000000000000 .Ltext0
     /tmp/cczf8nSa.s:636    .text:0000000000000250 .Letext0
     /tmp/cczf8nSa.s:1880   .debug_line:0000000000000000 .Ldebug_line0
     /tmp/cczf8nSa.s:1952   .debug_str:00000000000001af .LASF0
     /tmp/cczf8nSa.s:1956   .debug_str:00000000000001c2 .LASF1
     /tmp/cczf8nSa.s:1946   .debug_str:0000000000000189 .LASF2
     /tmp/cczf8nSa.s:1938   .debug_str:0000000000000156 .LASF4
     /tmp/cczf8nSa.s:1986   .debug_str:00000000000002a8 .LASF3
     /tmp/cczf8nSa.s:1894   .debug_str:000000000000003d .LASF5
     /tmp/cczf8nSa.s:1912   .debug_str:00000000000000c1 .LASF6
     /tmp/cczf8nSa.s:1960   .debug_str:00000000000001dc .LASF7
     /tmp/cczf8nSa.s:1950   .debug_str:000000000000019c .LASF8
     /tmp/cczf8nSa.s:2002   .debug_str:00000000000003ba .LASF9
     /tmp/cczf8nSa.s:1926   .debug_str:0000000000000103 .LASF10
     /tmp/cczf8nSa.s:1968   .debug_str:000000000000020c .LASF11
     /tmp/cczf8nSa.s:1998   .debug_str:00000000000003a0 .LASF12
     /tmp/cczf8nSa.s:1896   .debug_str:0000000000000044 .LASF13
     /tmp/cczf8nSa.s:1884   .debug_str:0000000000000009 .LASF14
     /tmp/cczf8nSa.s:1900   .debug_str:0000000000000066 .LASF15
     /tmp/cczf8nSa.s:1980   .debug_str:0000000000000276 .LASF16
     /tmp/cczf8nSa.s:1908   .debug_str:000000000000009d .LASF17
     /tmp/cczf8nSa.s:1882   .debug_str:0000000000000000 .LASF18
     /tmp/cczf8nSa.s:1916   .debug_str:00000000000000d1 .LASF19
     /tmp/cczf8nSa.s:1936   .debug_str:0000000000000151 .LASF20
     /tmp/cczf8nSa.s:1920   .debug_str:00000000000000e0 .LASF21
     /tmp/cczf8nSa.s:1948   .debug_str:0000000000000197 .LASF39
     /tmp/cczf8nSa.s:1922   .debug_str:00000000000000e5 .LASF41
GAS LISTING /tmp/cczf8nSa.s 			page 20


     /tmp/cczf8nSa.s:608    .text:0000000000000228 .LFB31
     /tmp/cczf8nSa.s:634    .text:0000000000000250 .LFE31
     /tmp/cczf8nSa.s:1650   .debug_loc:0000000000000000 .LLST13
     /tmp/cczf8nSa.s:623    .text:0000000000000240 .LVL34
     /tmp/cczf8nSa.s:1962   .debug_str:00000000000001ef .LASF22
     /tmp/cczf8nSa.s:1886   .debug_str:0000000000000019 .LASF23
     /tmp/cczf8nSa.s:1890   .debug_str:000000000000002a .LASF25
     /tmp/cczf8nSa.s:577    .text:0000000000000200 .LFB30
     /tmp/cczf8nSa.s:602    .text:0000000000000228 .LFE30
     /tmp/cczf8nSa.s:591    .text:0000000000000218 .LVL32
     /tmp/cczf8nSa.s:2000   .debug_str:00000000000003af .LASF24
     /tmp/cczf8nSa.s:1924   .debug_str:00000000000000ee .LASF26
     /tmp/cczf8nSa.s:550    .text:00000000000001e4 .LFB29
     /tmp/cczf8nSa.s:571    .text:0000000000000200 .LFE29
     /tmp/cczf8nSa.s:1664   .debug_loc:0000000000000039 .LLST12
     /tmp/cczf8nSa.s:1902   .debug_str:0000000000000072 .LASF27
     /tmp/cczf8nSa.s:1898   .debug_str:0000000000000054 .LASF28
     /tmp/cczf8nSa.s:523    .text:00000000000001c8 .LFB28
     /tmp/cczf8nSa.s:544    .text:00000000000001e4 .LFE28
     /tmp/cczf8nSa.s:1678   .debug_loc:0000000000000072 .LLST11
     /tmp/cczf8nSa.s:1942   .debug_str:000000000000016f .LASF29
     /tmp/cczf8nSa.s:1966   .debug_str:00000000000001f9 .LASF30
     /tmp/cczf8nSa.s:496    .text:00000000000001ac .LFB27
     /tmp/cczf8nSa.s:517    .text:00000000000001c8 .LFE27
     /tmp/cczf8nSa.s:1990   .debug_str:00000000000002c4 .LASF31
     /tmp/cczf8nSa.s:1692   .debug_loc:00000000000000ab .LLST10
     /tmp/cczf8nSa.s:1918   .debug_str:00000000000000d7 .LASF32
     /tmp/cczf8nSa.s:1906   .debug_str:0000000000000089 .LASF33
     /tmp/cczf8nSa.s:469    .text:0000000000000190 .LFB26
     /tmp/cczf8nSa.s:490    .text:00000000000001ac .LFE26
     /tmp/cczf8nSa.s:1706   .debug_loc:00000000000000e4 .LLST9
     /tmp/cczf8nSa.s:1964   .debug_str:00000000000001f4 .LASF34
     /tmp/cczf8nSa.s:1982   .debug_str:000000000000028c .LASF35
     /tmp/cczf8nSa.s:1972   .debug_str:0000000000000230 .LASF36
     /tmp/cczf8nSa.s:408    .text:0000000000000160 .LFB25
     /tmp/cczf8nSa.s:463    .text:0000000000000190 .LFE25
     /tmp/cczf8nSa.s:2004   .debug_str:00000000000003ca .LASF37
     /tmp/cczf8nSa.s:1720   .debug_loc:000000000000011d .LLST8
     /tmp/cczf8nSa.s:1958   .debug_str:00000000000001d5 .LASF38
     /tmp/cczf8nSa.s:433    .text:0000000000000178 .LBB28
     /tmp/cczf8nSa.s:443    .text:000000000000017c .LBE28
     /tmp/cczf8nSa.s:1994   .debug_str:00000000000002d0 .LASF40
     /tmp/cczf8nSa.s:1930   .debug_str:000000000000012f .LASF42
     /tmp/cczf8nSa.s:358    .text:0000000000000138 .LFB24
     /tmp/cczf8nSa.s:402    .text:0000000000000160 .LFE24
     /tmp/cczf8nSa.s:1731   .debug_loc:0000000000000153 .LLST7
     /tmp/cczf8nSa.s:383    .text:0000000000000150 .LBB26
     /tmp/cczf8nSa.s:393    .text:0000000000000154 .LBE26
     /tmp/cczf8nSa.s:1944   .debug_str:0000000000000179 .LASF43
     /tmp/cczf8nSa.s:1970   .debug_str:000000000000021b .LASF44
     /tmp/cczf8nSa.s:316    .text:0000000000000118 .LFB23
     /tmp/cczf8nSa.s:352    .text:0000000000000138 .LFE23
     /tmp/cczf8nSa.s:333    .text:0000000000000128 .LBB24
     /tmp/cczf8nSa.s:343    .text:000000000000012c .LBE24
     /tmp/cczf8nSa.s:1888   .debug_str:000000000000001e .LASF45
     /tmp/cczf8nSa.s:1984   .debug_str:0000000000000297 .LASF46
     /tmp/cczf8nSa.s:263    .text:00000000000000f0 .LFB22
GAS LISTING /tmp/cczf8nSa.s 			page 21


     /tmp/cczf8nSa.s:310    .text:0000000000000118 .LFE22
     /tmp/cczf8nSa.s:280    .text:0000000000000100 .LBB22
     /tmp/cczf8nSa.s:290    .text:0000000000000104 .LBE22
     /tmp/cczf8nSa.s:1910   .debug_str:00000000000000b3 .LASF47
     /tmp/cczf8nSa.s:1976   .debug_str:000000000000024e .LASF48
     /tmp/cczf8nSa.s:147    .text:0000000000000070 .LFB21
     /tmp/cczf8nSa.s:257    .text:00000000000000f0 .LFE21
     /tmp/cczf8nSa.s:1742   .debug_loc:0000000000000189 .LLST2
     /tmp/cczf8nSa.s:1974   .debug_str:0000000000000240 .LASF49
     /tmp/cczf8nSa.s:1764   .debug_loc:00000000000001e8 .LLST3
     /tmp/cczf8nSa.s:1786   .debug_loc:0000000000000247 .LLST4
     /tmp/cczf8nSa.s:1934   .debug_str:000000000000014b .LASF50
     /tmp/cczf8nSa.s:1808   .debug_loc:00000000000002a6 .LLST5
     /tmp/cczf8nSa.s:1825   .debug_loc:00000000000002f1 .LLST6
     /tmp/cczf8nSa.s:209    .text:00000000000000c0 .LBB20
     /tmp/cczf8nSa.s:219    .text:00000000000000c4 .LBE20
     /tmp/cczf8nSa.s:177    .text:00000000000000a8 .LVL11
     /tmp/cczf8nSa.s:1914   .debug_str:00000000000000c8 .LASF51
     /tmp/cczf8nSa.s:2006   .debug_str:00000000000003d7 .LASF52
     /tmp/cczf8nSa.s:86     .text:0000000000000040 .LFB20
     /tmp/cczf8nSa.s:141    .text:0000000000000070 .LFE20
     /tmp/cczf8nSa.s:1832   .debug_loc:0000000000000314 .LLST1
     /tmp/cczf8nSa.s:111    .text:0000000000000058 .LBB18
     /tmp/cczf8nSa.s:121    .text:000000000000005c .LBE18
     /tmp/cczf8nSa.s:1988   .debug_str:00000000000002ba .LASF53
     /tmp/cczf8nSa.s:1904   .debug_str:000000000000007b .LASF54
     /tmp/cczf8nSa.s:10     .text:0000000000000000 .LFB19
     /tmp/cczf8nSa.s:80     .text:0000000000000040 .LFE19
     /tmp/cczf8nSa.s:1992   .debug_str:00000000000002cb .LASF55
     /tmp/cczf8nSa.s:1843   .debug_loc:000000000000034a .LLST0
     /tmp/cczf8nSa.s:51     .text:000000000000002c .LBB16
     /tmp/cczf8nSa.s:61     .text:0000000000000030 .LBE16
     /tmp/cczf8nSa.s:1954   .debug_str:00000000000001bc .LASF61
     /tmp/cczf8nSa.s:1892   .debug_str:0000000000000033 .LASF62
     /tmp/cczf8nSa.s:1978   .debug_str:000000000000026f .LASF56
     /tmp/cczf8nSa.s:1932   .debug_str:0000000000000144 .LASF57
     /tmp/cczf8nSa.s:611    .text:0000000000000228 .LVL33
     /tmp/cczf8nSa.s:553    .text:00000000000001e4 .LVL30
     /tmp/cczf8nSa.s:563    .text:00000000000001f4 .LVL31
     /tmp/cczf8nSa.s:526    .text:00000000000001c8 .LVL28
     /tmp/cczf8nSa.s:536    .text:00000000000001d8 .LVL29
     /tmp/cczf8nSa.s:499    .text:00000000000001ac .LVL26
     /tmp/cczf8nSa.s:509    .text:00000000000001bc .LVL27
     /tmp/cczf8nSa.s:472    .text:0000000000000190 .LVL24
     /tmp/cczf8nSa.s:482    .text:00000000000001a0 .LVL25
     /tmp/cczf8nSa.s:411    .text:0000000000000160 .LVL21
     /tmp/cczf8nSa.s:425    .text:0000000000000174 .LVL22
     /tmp/cczf8nSa.s:361    .text:0000000000000138 .LVL19
     /tmp/cczf8nSa.s:375    .text:000000000000014c .LVL20
     /tmp/cczf8nSa.s:150    .text:0000000000000070 .LVL8
     /tmp/cczf8nSa.s:175    .text:00000000000000a0 .LVL10
     /tmp/cczf8nSa.s:243    .text:00000000000000dc .LVL15
     /tmp/cczf8nSa.s:250    .text:00000000000000e8 .LVL17
     /tmp/cczf8nSa.s:240    .text:00000000000000d8 .LVL14
     /tmp/cczf8nSa.s:246    .text:00000000000000e0 .LVL16
     /tmp/cczf8nSa.s:169    .text:0000000000000098 .LVL9
     /tmp/cczf8nSa.s:179    .text:00000000000000ac .LVL12
GAS LISTING /tmp/cczf8nSa.s 			page 22


     /tmp/cczf8nSa.s:227    .text:00000000000000c8 .LVL13
     /tmp/cczf8nSa.s:89     .text:0000000000000040 .LVL5
     /tmp/cczf8nSa.s:103    .text:0000000000000054 .LVL6
     /tmp/cczf8nSa.s:14     .text:0000000000000000 .LVL0
     /tmp/cczf8nSa.s:24     .text:0000000000000010 .LVL1
     /tmp/cczf8nSa.s:30     .text:0000000000000018 .LVL2
     /tmp/cczf8nSa.s:37     .text:0000000000000024 .LVL3
     /tmp/cczf8nSa.s:641    .debug_info:0000000000000000 .Ldebug_info0

UNDEFINED SYMBOLS
__getc
__putc
