GAS LISTING /tmp/cczf8nSa.s 			page 1


   1              		.file	"syscall_c.cpp"
   2              		.option pic
   3              		.option norelax
   4              		.text
   5              	.Ltext0:
   6              		.align	2
   7              		.globl	_Z9mem_allocm
   9              	_Z9mem_allocm:
  10              	.LFB19:
  11              		.file 1 "src/syscall_c.cpp"
   1:src/syscall_c.cpp **** #include "../h/syscall_c.hpp"
   2:src/syscall_c.cpp **** #include "../h/Riscv.hpp"
   3:src/syscall_c.cpp **** #include "../h/MemoryAllocator.hpp"
   4:src/syscall_c.cpp **** #include "../lib/console.h"
   5:src/syscall_c.cpp **** 
   6:src/syscall_c.cpp **** inline void scall() {
   7:src/syscall_c.cpp **** 	__asm__ volatile("ecall");
   8:src/syscall_c.cpp **** }
   9:src/syscall_c.cpp **** 
  10:src/syscall_c.cpp **** void* mem_alloc(size_t size) {
  12              		.loc 1 10 30
  13              		.cfi_startproc
  14              	.LVL0:
  15 0000 130101FF 		addi	sp,sp,-16
  16              		.cfi_def_cfa_offset 16
  17 0004 23348100 		sd	s0,8(sp)
  18              		.cfi_offset 8, -8
  19 0008 13040101 		addi	s0,sp,16
  20              		.cfi_def_cfa 8, 0
  11:src/syscall_c.cpp **** 	//na size moramo dodati zaglavlje segmenta
  12:src/syscall_c.cpp **** 	size += sizeof(MemoryAllocator::UsedMemSegment);
  21              		.loc 1 12 2
  22              		.loc 1 12 7 is_stmt 0
  23 000c 13050501 		addi	a0,a0,16
  24              	.LVL1:
  13:src/syscall_c.cpp **** 	//size je u bajtovima, pretvara se u blokove
  14:src/syscall_c.cpp **** 	size = size / MEM_BLOCK_SIZE + (size % MEM_BLOCK_SIZE ? 1 : 0);
  25              		.loc 1 14 2 is_stmt 1
  26              		.loc 1 14 14 is_stmt 0
  27 0010 13536500 		srli	t1,a0,6
  28              		.loc 1 14 39
  29 0014 1375F503 		andi	a0,a0,63
  30              	.LVL2:
  31              		.loc 1 14 56
  32 0018 63040500 		beqz	a0,.L2
  33 001c 13051000 		li	a0,1
  34              	.L2:
  35              		.loc 1 14 7 discriminator 4
  36 0020 3303A300 		add	t1,t1,a0
  37              	.LVL3:
  15:src/syscall_c.cpp **** 
  16:src/syscall_c.cpp **** 	//stavljanje argumenata za sistemski poziv
  17:src/syscall_c.cpp **** 	__asm__ volatile("mv a1, %[size]": :[size] "r"(size):"a5", "a0", "a1", "a2", "a3", "a4", "a6", "a7
  38              		.loc 1 17 2 is_stmt 1 discriminator 4
  39              		.loc 1 17 102 is_stmt 0 discriminator 4
  40              	#APP
  41              	# 17 "src/syscall_c.cpp" 1
GAS LISTING /tmp/cczf8nSa.s 			page 2


  18              		__asm__ volatile("li a0, 0x01");
  42              		mv a1, t1
  43              	# 0 "" 2
  44              		.loc 1 18 2 is_stmt 1 discriminator 4
  45              		.loc 1 18 33 is_stmt 0 discriminator 4
  46              	# 18 "src/syscall_c.cpp" 1
  19              		//a0 = 0x01
  20:src/syscall_c.cpp **** 	//a1 = broj blokova velicine MEM_BLOCK_SIZE za alokaciju
  21:src/syscall_c.cpp **** 
  22:src/syscall_c.cpp **** 	scall();
  47              		li a0, 0x01
  48              	# 0 "" 2
  49              		.loc 1 22 2 is_stmt 1 discriminator 4
  50              	#NO_APP
  51              	.LBB16:
  52              	.LBB17:
   7:src/syscall_c.cpp **** }
  53              		.loc 1 7 2 discriminator 4
   7:src/syscall_c.cpp **** }
  54              		.loc 1 7 27 is_stmt 0 discriminator 4
  55              	#APP
  56              	# 7 "src/syscall_c.cpp" 1
  57              		ecall
  58              	# 0 "" 2
  59              	#NO_APP
  60              	.LBE17:
  61              	.LBE16:
  23:src/syscall_c.cpp **** 
  24:src/syscall_c.cpp **** 	void* ret;
  62              		.loc 1 24 2 is_stmt 1 discriminator 4
  25:src/syscall_c.cpp **** 	__asm__ volatile("mv %[ptr], a0":[ptr] "=r"(ret));
  63              		.loc 1 25 2 discriminator 4
  64              		.loc 1 25 51 is_stmt 0 discriminator 4
  65              	#APP
  66              	# 25 "src/syscall_c.cpp" 1
  26              		return ret;
  67              		mv a0, a0
  68              	# 0 "" 2
  69              	.LVL4:
  70              		.loc 1 26 2 is_stmt 1 discriminator 4
  27:src/syscall_c.cpp **** }
  71              		.loc 1 27 1 is_stmt 0 discriminator 4
  72              	#NO_APP
  73 0034 03348100 		ld	s0,8(sp)
  74              		.cfi_restore 8
  75              		.cfi_def_cfa 2, 16
  76 0038 13010101 		addi	sp,sp,16
  77              		.cfi_def_cfa_offset 0
  78 003c 67800000 		jr	ra
  79              		.cfi_endproc
  80              	.LFE19:
  82              		.align	2
  83              		.globl	_Z8mem_freePv
  85              	_Z8mem_freePv:
  86              	.LFB20:
  28:src/syscall_c.cpp **** 
  29:src/syscall_c.cpp **** int mem_free(void* ptr) {
GAS LISTING /tmp/cczf8nSa.s 			page 3


  87              		.loc 1 29 25 is_stmt 1
  88              		.cfi_startproc
  89              	.LVL5:
  90 0040 130101FF 		addi	sp,sp,-16
  91              		.cfi_def_cfa_offset 16
  92 0044 23348100 		sd	s0,8(sp)
  93              		.cfi_offset 8, -8
  94 0048 13040101 		addi	s0,sp,16
  95              		.cfi_def_cfa 8, 0
  96 004c 13030500 		mv	t1,a0
  30:src/syscall_c.cpp **** 	//stavljanje argumenata za sistemski poziv
  31:src/syscall_c.cpp **** 	__asm__ volatile("mv a1, %[ptr]": :[ptr] "r"(ptr):"a5", "a0", "a1", "a2", "a3", "a4", "a6", "a7");
  97              		.loc 1 31 2
  98              		.loc 1 31 99 is_stmt 0
  99              	#APP
 100              	# 31 "src/syscall_c.cpp" 1
  32              		__asm__ volatile("li a0, 0x02");
 101              		mv a1, t1
 102              	# 0 "" 2
 103              	.LVL6:
 104              		.loc 1 32 2 is_stmt 1
 105              		.loc 1 32 33 is_stmt 0
 106              	# 32 "src/syscall_c.cpp" 1
  33              		//a0 = 0x02
  34:src/syscall_c.cpp **** 	//a1 = pokazivac na memoriju koju treba dealocirati
  35:src/syscall_c.cpp **** 
  36:src/syscall_c.cpp **** 	scall();
 107              		li a0, 0x02
 108              	# 0 "" 2
 109              		.loc 1 36 2 is_stmt 1
 110              	#NO_APP
 111              	.LBB18:
 112              	.LBB19:
   7:src/syscall_c.cpp **** }
 113              		.loc 1 7 2
   7:src/syscall_c.cpp **** }
 114              		.loc 1 7 27 is_stmt 0
 115              	#APP
 116              	# 7 "src/syscall_c.cpp" 1
 117              		ecall
 118              	# 0 "" 2
 119              	#NO_APP
 120              	.LBE19:
 121              	.LBE18:
  37:src/syscall_c.cpp **** 
  38:src/syscall_c.cpp **** 	int status;
 122              		.loc 1 38 2 is_stmt 1
  39:src/syscall_c.cpp **** 	__asm__ volatile("mv %[status], a0":[status] "=r"(status));
 123              		.loc 1 39 2
 124              		.loc 1 39 60 is_stmt 0
 125              	#APP
 126              	# 39 "src/syscall_c.cpp" 1
  40              		return status;
 127              		mv a0, a0
 128              	# 0 "" 2
 129              	.LVL7:
 130              		.loc 1 40 2 is_stmt 1
GAS LISTING /tmp/cczf8nSa.s 			page 4


  41:src/syscall_c.cpp **** }
 131              		.loc 1 41 1 is_stmt 0
 132              	#NO_APP
 133 0060 1B050500 		sext.w	a0,a0
 134 0064 03348100 		ld	s0,8(sp)
 135              		.cfi_restore 8
 136              		.cfi_def_cfa 2, 16
 137 0068 13010101 		addi	sp,sp,16
 138              		.cfi_def_cfa_offset 0
 139 006c 67800000 		jr	ra
 140              		.cfi_endproc
 141              	.LFE20:
 143              		.align	2
 144              		.globl	_Z13thread_createPP3TCBPFvPvES2_
 146              	_Z13thread_createPP3TCBPFvPvES2_:
 147              	.LFB21:
  42:src/syscall_c.cpp **** 
  43:src/syscall_c.cpp **** int thread_create(thread_t* handle, void (* start_routine)(void*), void* arg) {
 148              		.loc 1 43 79 is_stmt 1
 149              		.cfi_startproc
 150              	.LVL8:
 151 0070 130101FD 		addi	sp,sp,-48
 152              		.cfi_def_cfa_offset 48
 153 0074 23341102 		sd	ra,40(sp)
 154 0078 23308102 		sd	s0,32(sp)
 155 007c 233C9100 		sd	s1,24(sp)
 156 0080 23382101 		sd	s2,16(sp)
 157 0084 23343101 		sd	s3,8(sp)
 158              		.cfi_offset 1, -8
 159              		.cfi_offset 8, -16
 160              		.cfi_offset 9, -24
 161              		.cfi_offset 18, -32
 162              		.cfi_offset 19, -40
 163 0088 13040103 		addi	s0,sp,48
 164              		.cfi_def_cfa 8, 0
 165 008c 13090500 		mv	s2,a0
 166 0090 93840500 		mv	s1,a1
 167 0094 93090600 		mv	s3,a2
  44:src/syscall_c.cpp **** 	//stvaranje steka ako se ne radi o main kernel niti, posto ona automatski ima stek
  45:src/syscall_c.cpp **** 	uint64* stack = nullptr;
 168              		.loc 1 45 2
 169              	.LVL9:
  46:src/syscall_c.cpp **** 	if (start_routine != nullptr) {
 170              		.loc 1 46 2
 171 0098 63880504 		beqz	a1,.L8
  47:src/syscall_c.cpp **** 		stack = (uint64*)mem_alloc(DEFAULT_STACK_SIZE);
 172              		.loc 1 47 3
 173              		.loc 1 47 29 is_stmt 0
 174 009c 37150000 		li	a0,4096
 175              	.LVL10:
 176 00a0 97000000 		call	_Z9mem_allocm
 176      E7800000 
 177              	.LVL11:
 178 00a8 13030500 		mv	t1,a0
 179              	.LVL12:
 180              	.L7:
  48:src/syscall_c.cpp **** 	}
GAS LISTING /tmp/cczf8nSa.s 			page 5


  49:src/syscall_c.cpp **** 	//uint64* stack = (start_routine != nullptr ? (uint64*)MemoryAllocator::kmalloc(DEFAULT_STACK_SIZE
  50:src/syscall_c.cpp **** 	//stavljanje argumenata za sistemski poziv
  51:src/syscall_c.cpp **** 	__asm__ volatile("mv a4, %[sp]": :[sp] "r"(stack):"a5", "a0", "a1", "a2", "a3", "a4", "a6", "a7");
 181              		.loc 1 51 2 is_stmt 1
 182              		.loc 1 51 99 is_stmt 0
 183              	#APP
 184              	# 51 "src/syscall_c.cpp" 1
  52              		__asm__ volatile("mv a3, %[arg]": :[arg] "r"(arg):"a5", "a0", "a1", "a2", "a3", "a4", "a6", "a7");
 185              		mv a4, t1
 186              	# 0 "" 2
 187              		.loc 1 52 2 is_stmt 1
 188              		.loc 1 52 99 is_stmt 0
 189              	# 52 "src/syscall_c.cpp" 1
  53              		__asm__ volatile("mv a2, %[function]": :[function] "r"(
 190              		mv a3, s3
 191              	# 0 "" 2
 192              		.loc 1 53 2 is_stmt 1
  54:src/syscall_c.cpp **** 			start_routine):"a5", "a0", "a1", "a2", "a3", "a4", "a6", "a7");
 193              		.loc 1 54 66 is_stmt 0
 194              	# 54 "src/syscall_c.cpp" 1
  55              		__asm__ volatile("mv a1, %[handle]": :[handle] "r"(handle):"a5", "a0", "a1", "a2", "a3", "a4", "a6
 195              		mv a2, s1
 196              	# 0 "" 2
 197              		.loc 1 55 2 is_stmt 1
 198              		.loc 1 55 108 is_stmt 0
 199              	# 55 "src/syscall_c.cpp" 1
  56              		__asm__ volatile("li a0, 0x11");
 200              		mv a1, s2
 201              	# 0 "" 2
 202              		.loc 1 56 2 is_stmt 1
 203              		.loc 1 56 33 is_stmt 0
 204              	# 56 "src/syscall_c.cpp" 1
  57              		//a0 = 0x11
  58:src/syscall_c.cpp **** 	//a1 = adresa pokazivaca na rucku niti
  59:src/syscall_c.cpp **** 	//a2 = prva adresa funkcije koju nit izvrsava
  60:src/syscall_c.cpp **** 	//a3 = pokazivac na argumente funkcije
  61:src/syscall_c.cpp **** 	//a4 = pokazivac na najnizu adresu steka (stek raste ka nizim adresama, pokazuje na poslednju zauz
  62:src/syscall_c.cpp **** 
  63:src/syscall_c.cpp **** 	scall();
 205              		li a0, 0x11
 206              	# 0 "" 2
 207              		.loc 1 63 2 is_stmt 1
 208              	#NO_APP
 209              	.LBB20:
 210              	.LBB21:
   7:src/syscall_c.cpp **** }
 211              		.loc 1 7 2
   7:src/syscall_c.cpp **** }
 212              		.loc 1 7 27 is_stmt 0
 213              	#APP
 214              	# 7 "src/syscall_c.cpp" 1
 215              		ecall
 216              	# 0 "" 2
 217              	#NO_APP
 218              	.LBE21:
 219              	.LBE20:
  64:src/syscall_c.cpp **** 
GAS LISTING /tmp/cczf8nSa.s 			page 6


  65:src/syscall_c.cpp **** 	int status;
 220              		.loc 1 65 2 is_stmt 1
  66:src/syscall_c.cpp **** 	__asm__ volatile("mv %[status], a0":[status] "=r"(status));
 221              		.loc 1 66 2
 222              		.loc 1 66 60 is_stmt 0
 223              	#APP
 224              	# 66 "src/syscall_c.cpp" 1
  67              		return status;
 225              		mv a0, a0
 226              	# 0 "" 2
 227              	.LVL13:
 228              		.loc 1 67 2 is_stmt 1
  68:src/syscall_c.cpp **** }
 229              		.loc 1 68 1 is_stmt 0
 230              	#NO_APP
 231 00c8 1B050500 		sext.w	a0,a0
 232 00cc 83308102 		ld	ra,40(sp)
 233              		.cfi_remember_state
 234              		.cfi_restore 1
 235 00d0 03340102 		ld	s0,32(sp)
 236              		.cfi_restore 8
 237              		.cfi_def_cfa 2, 48
 238 00d4 83348101 		ld	s1,24(sp)
 239              		.cfi_restore 9
 240              	.LVL14:
 241 00d8 03390101 		ld	s2,16(sp)
 242              		.cfi_restore 18
 243              	.LVL15:
 244 00dc 83398100 		ld	s3,8(sp)
 245              		.cfi_restore 19
 246              	.LVL16:
 247 00e0 13010103 		addi	sp,sp,48
 248              		.cfi_def_cfa_offset 0
 249 00e4 67800000 		jr	ra
 250              	.LVL17:
 251              	.L8:
 252              		.cfi_restore_state
  45:src/syscall_c.cpp **** 	if (start_routine != nullptr) {
 253              		.loc 1 45 10
 254 00e8 13030000 		li	t1,0
 255 00ec 6FF01FFC 		j	.L7
 256              		.cfi_endproc
 257              	.LFE21:
 259              		.align	2
 260              		.globl	_Z11thread_exitv
 262              	_Z11thread_exitv:
 263              	.LFB22:
  69:src/syscall_c.cpp **** 
  70:src/syscall_c.cpp **** int thread_exit() {
 264              		.loc 1 70 19 is_stmt 1
 265              		.cfi_startproc
 266 00f0 130101FF 		addi	sp,sp,-16
 267              		.cfi_def_cfa_offset 16
 268 00f4 23348100 		sd	s0,8(sp)
 269              		.cfi_offset 8, -8
 270 00f8 13040101 		addi	s0,sp,16
 271              		.cfi_def_cfa 8, 0
GAS LISTING /tmp/cczf8nSa.s 			page 7


  71:src/syscall_c.cpp **** 	//nema argumenata, samo kod sistemskog poziva
  72:src/syscall_c.cpp **** 	__asm__ volatile("li a0, 0x12");
 272              		.loc 1 72 2
 273              		.loc 1 72 33 is_stmt 0
 274              	#APP
 275              	# 72 "src/syscall_c.cpp" 1
  73              	
  74:src/syscall_c.cpp **** 	scall();
 276              		li a0, 0x12
 277              	# 0 "" 2
 278              		.loc 1 74 2 is_stmt 1
 279              	#NO_APP
 280              	.LBB22:
 281              	.LBB23:
   7:src/syscall_c.cpp **** }
 282              		.loc 1 7 2
   7:src/syscall_c.cpp **** }
 283              		.loc 1 7 27 is_stmt 0
 284              	#APP
 285              	# 7 "src/syscall_c.cpp" 1
 286              		ecall
 287              	# 0 "" 2
 288              	#NO_APP
 289              	.LBE23:
 290              	.LBE22:
  75:src/syscall_c.cpp **** 
  76:src/syscall_c.cpp **** 	int status;
 291              		.loc 1 76 2 is_stmt 1
  77:src/syscall_c.cpp **** 	__asm__ volatile("mv %[status], a0":[status] "=r"(status));
 292              		.loc 1 77 2
 293              		.loc 1 77 60 is_stmt 0
 294              	#APP
 295              	# 77 "src/syscall_c.cpp" 1
  78              		return status;
 296              		mv a0, a0
 297              	# 0 "" 2
 298              	.LVL18:
 299              		.loc 1 78 2 is_stmt 1
  79:src/syscall_c.cpp **** }
 300              		.loc 1 79 1 is_stmt 0
 301              	#NO_APP
 302 0108 1B050500 		sext.w	a0,a0
 303 010c 03348100 		ld	s0,8(sp)
 304              		.cfi_restore 8
 305              		.cfi_def_cfa 2, 16
 306 0110 13010101 		addi	sp,sp,16
 307              		.cfi_def_cfa_offset 0
 308 0114 67800000 		jr	ra
 309              		.cfi_endproc
 310              	.LFE22:
 312              		.align	2
 313              		.globl	_Z15thread_dispatchv
 315              	_Z15thread_dispatchv:
 316              	.LFB23:
  80:src/syscall_c.cpp **** 
  81:src/syscall_c.cpp **** void thread_dispatch() {
 317              		.loc 1 81 24 is_stmt 1
GAS LISTING /tmp/cczf8nSa.s 			page 8


 318              		.cfi_startproc
 319 0118 130101FF 		addi	sp,sp,-16
 320              		.cfi_def_cfa_offset 16
 321 011c 23348100 		sd	s0,8(sp)
 322              		.cfi_offset 8, -8
 323 0120 13040101 		addi	s0,sp,16
 324              		.cfi_def_cfa 8, 0
  82:src/syscall_c.cpp **** 	//nema argumenata, samo kod sistemskog poziva
  83:src/syscall_c.cpp **** 	__asm__ volatile("li a0, 0x13");
 325              		.loc 1 83 2
 326              		.loc 1 83 33 is_stmt 0
 327              	#APP
 328              	# 83 "src/syscall_c.cpp" 1
  84              	
  85:src/syscall_c.cpp **** 	scall();
 329              		li a0, 0x13
 330              	# 0 "" 2
 331              		.loc 1 85 2 is_stmt 1
 332              	#NO_APP
 333              	.LBB24:
 334              	.LBB25:
   7:src/syscall_c.cpp **** }
 335              		.loc 1 7 2
   7:src/syscall_c.cpp **** }
 336              		.loc 1 7 27 is_stmt 0
 337              	#APP
 338              	# 7 "src/syscall_c.cpp" 1
 339              		ecall
 340              	# 0 "" 2
 341              	#NO_APP
 342              	.LBE25:
 343              	.LBE24:
  86:src/syscall_c.cpp **** 	//nema povratne vrednosti
  87:src/syscall_c.cpp **** }
 344              		.loc 1 87 1
 345 012c 03348100 		ld	s0,8(sp)
 346              		.cfi_restore 8
 347              		.cfi_def_cfa 2, 16
 348 0130 13010101 		addi	sp,sp,16
 349              		.cfi_def_cfa_offset 0
 350 0134 67800000 		jr	ra
 351              		.cfi_endproc
 352              	.LFE23:
 354              		.align	2
 355              		.globl	_Z11thread_joinP3TCB
 357              	_Z11thread_joinP3TCB:
 358              	.LFB24:
  88:src/syscall_c.cpp **** 
  89:src/syscall_c.cpp **** void thread_join(thread_t handle) {
 359              		.loc 1 89 35 is_stmt 1
 360              		.cfi_startproc
 361              	.LVL19:
 362 0138 130101FF 		addi	sp,sp,-16
 363              		.cfi_def_cfa_offset 16
 364 013c 23348100 		sd	s0,8(sp)
 365              		.cfi_offset 8, -8
 366 0140 13040101 		addi	s0,sp,16
GAS LISTING /tmp/cczf8nSa.s 			page 9


 367              		.cfi_def_cfa 8, 0
 368 0144 13030500 		mv	t1,a0
  90:src/syscall_c.cpp **** //stavljanje argumenata za sistemski poziv
  91:src/syscall_c.cpp **** 	__asm__ volatile("mv a1, %[handle]": :[handle] "r"(handle):"a5", "a0", "a1", "a2", "a3", "a4", "a6
 369              		.loc 1 91 2
 370              		.loc 1 91 108 is_stmt 0
 371              	#APP
 372              	# 91 "src/syscall_c.cpp" 1
  92              		__asm__ volatile("li a0, 0x14");
 373              		mv a1, t1
 374              	# 0 "" 2
 375              	.LVL20:
 376              		.loc 1 92 2 is_stmt 1
 377              		.loc 1 92 33 is_stmt 0
 378              	# 92 "src/syscall_c.cpp" 1
  93              		//a0 = 0x14
  94:src/syscall_c.cpp **** 	//a1 = rucka niti na koju se ceka
  95:src/syscall_c.cpp **** 
  96:src/syscall_c.cpp **** 	scall();
 379              		li a0, 0x14
 380              	# 0 "" 2
 381              		.loc 1 96 2 is_stmt 1
 382              	#NO_APP
 383              	.LBB26:
 384              	.LBB27:
   7:src/syscall_c.cpp **** }
 385              		.loc 1 7 2
   7:src/syscall_c.cpp **** }
 386              		.loc 1 7 27 is_stmt 0
 387              	#APP
 388              	# 7 "src/syscall_c.cpp" 1
 389              		ecall
 390              	# 0 "" 2
 391              	#NO_APP
 392              	.LBE27:
 393              	.LBE26:
  97:src/syscall_c.cpp **** }
 394              		.loc 1 97 1
 395 0154 03348100 		ld	s0,8(sp)
 396              		.cfi_restore 8
 397              		.cfi_def_cfa 2, 16
 398 0158 13010101 		addi	sp,sp,16
 399              		.cfi_def_cfa_offset 0
 400 015c 67800000 		jr	ra
 401              		.cfi_endproc
 402              	.LFE24:
 404              		.align	2
 405              		.globl	_Z10time_sleepm
 407              	_Z10time_sleepm:
 408              	.LFB25:
  98:src/syscall_c.cpp **** 
  99:src/syscall_c.cpp **** int time_sleep(time_t timerPeriods) {
 409              		.loc 1 99 37 is_stmt 1
 410              		.cfi_startproc
 411              	.LVL21:
 412 0160 130101FF 		addi	sp,sp,-16
 413              		.cfi_def_cfa_offset 16
GAS LISTING /tmp/cczf8nSa.s 			page 10


 414 0164 23348100 		sd	s0,8(sp)
 415              		.cfi_offset 8, -8
 416 0168 13040101 		addi	s0,sp,16
 417              		.cfi_def_cfa 8, 0
 418 016c 13030500 		mv	t1,a0
 100:src/syscall_c.cpp **** 	//stavljanje argumenata za sistemski poziv
 101:src/syscall_c.cpp **** 	__asm__ volatile("mv a1, %[time]": :[time] "r"(timerPeriods):"a5", "a0", "a1", "a2", "a3", "a4", "
 419              		.loc 1 101 2
 420              		.loc 1 101 110 is_stmt 0
 421              	#APP
 422              	# 101 "src/syscall_c.cpp" 1
 102              		__asm__ volatile("li a0, 0x31");
 423              		mv a1, t1
 424              	# 0 "" 2
 425              	.LVL22:
 426              		.loc 1 102 2 is_stmt 1
 427              		.loc 1 102 33 is_stmt 0
 428              	# 102 "src/syscall_c.cpp" 1
 103              		//a0 = 0x31
 104:src/syscall_c.cpp **** 	//a1 = broj perioda tajmera na koji se uspavljuje nit
 105:src/syscall_c.cpp **** 
 106:src/syscall_c.cpp **** 	scall();
 429              		li a0, 0x31
 430              	# 0 "" 2
 431              		.loc 1 106 2 is_stmt 1
 432              	#NO_APP
 433              	.LBB28:
 434              	.LBB29:
   7:src/syscall_c.cpp **** }
 435              		.loc 1 7 2
   7:src/syscall_c.cpp **** }
 436              		.loc 1 7 27 is_stmt 0
 437              	#APP
 438              	# 7 "src/syscall_c.cpp" 1
 439              		ecall
 440              	# 0 "" 2
 441              	#NO_APP
 442              	.LBE29:
 443              	.LBE28:
 107:src/syscall_c.cpp **** 
 108:src/syscall_c.cpp **** 	int status;
 444              		.loc 1 108 2 is_stmt 1
 109:src/syscall_c.cpp **** 	__asm__ volatile("mv %[status], a0":[status] "=r"(status));
 445              		.loc 1 109 2
 446              		.loc 1 109 60 is_stmt 0
 447              	#APP
 448              	# 109 "src/syscall_c.cpp" 1
 110              		return status;
 449              		mv a0, a0
 450              	# 0 "" 2
 451              	.LVL23:
 452              		.loc 1 110 2 is_stmt 1
 111:src/syscall_c.cpp **** }
 453              		.loc 1 111 1 is_stmt 0
 454              	#NO_APP
 455 0180 1B050500 		sext.w	a0,a0
 456 0184 03348100 		ld	s0,8(sp)
GAS LISTING /tmp/cczf8nSa.s 			page 11


 457              		.cfi_restore 8
 458              		.cfi_def_cfa 2, 16
 459 0188 13010101 		addi	sp,sp,16
 460              		.cfi_def_cfa_offset 0
 461 018c 67800000 		jr	ra
 462              		.cfi_endproc
 463              	.LFE25:
 465              		.align	2
 466              		.globl	_Z8sem_openPP4_semj
 468              	_Z8sem_openPP4_semj:
 469              	.LFB26:
 112:src/syscall_c.cpp **** 
 113:src/syscall_c.cpp **** int sem_open(sem_t* handle, unsigned int init) {
 470              		.loc 1 113 48 is_stmt 1
 471              		.cfi_startproc
 472              	.LVL24:
 473 0190 130101FF 		addi	sp,sp,-16
 474              		.cfi_def_cfa_offset 16
 475 0194 23348100 		sd	s0,8(sp)
 476              		.cfi_offset 8, -8
 477 0198 13040101 		addi	s0,sp,16
 478              		.cfi_def_cfa 8, 0
 114:src/syscall_c.cpp **** 	return 0;
 479              		.loc 1 114 2
 115:src/syscall_c.cpp **** }
 480              		.loc 1 115 1 is_stmt 0
 481 019c 13050000 		li	a0,0
 482              	.LVL25:
 483 01a0 03348100 		ld	s0,8(sp)
 484              		.cfi_restore 8
 485              		.cfi_def_cfa 2, 16
 486 01a4 13010101 		addi	sp,sp,16
 487              		.cfi_def_cfa_offset 0
 488 01a8 67800000 		jr	ra
 489              		.cfi_endproc
 490              	.LFE26:
 492              		.align	2
 493              		.globl	_Z9sem_closeP4_sem
 495              	_Z9sem_closeP4_sem:
 496              	.LFB27:
 116:src/syscall_c.cpp **** 
 117:src/syscall_c.cpp **** int sem_close(sem_t handle) {
 497              		.loc 1 117 29 is_stmt 1
 498              		.cfi_startproc
 499              	.LVL26:
 500 01ac 130101FF 		addi	sp,sp,-16
 501              		.cfi_def_cfa_offset 16
 502 01b0 23348100 		sd	s0,8(sp)
 503              		.cfi_offset 8, -8
 504 01b4 13040101 		addi	s0,sp,16
 505              		.cfi_def_cfa 8, 0
 118:src/syscall_c.cpp **** 	return 0;
 506              		.loc 1 118 2
 119:src/syscall_c.cpp **** }
 507              		.loc 1 119 1 is_stmt 0
 508 01b8 13050000 		li	a0,0
 509              	.LVL27:
GAS LISTING /tmp/cczf8nSa.s 			page 12


 510 01bc 03348100 		ld	s0,8(sp)
 511              		.cfi_restore 8
 512              		.cfi_def_cfa 2, 16
 513 01c0 13010101 		addi	sp,sp,16
 514              		.cfi_def_cfa_offset 0
 515 01c4 67800000 		jr	ra
 516              		.cfi_endproc
 517              	.LFE27:
 519              		.align	2
 520              		.globl	_Z8sem_waitP4_sem
 522              	_Z8sem_waitP4_sem:
 523              	.LFB28:
 120:src/syscall_c.cpp **** 
 121:src/syscall_c.cpp **** int sem_wait(sem_t id) {
 524              		.loc 1 121 24 is_stmt 1
 525              		.cfi_startproc
 526              	.LVL28:
 527 01c8 130101FF 		addi	sp,sp,-16
 528              		.cfi_def_cfa_offset 16
 529 01cc 23348100 		sd	s0,8(sp)
 530              		.cfi_offset 8, -8
 531 01d0 13040101 		addi	s0,sp,16
 532              		.cfi_def_cfa 8, 0
 122:src/syscall_c.cpp **** 	return 0;
 533              		.loc 1 122 2
 123:src/syscall_c.cpp **** }
 534              		.loc 1 123 1 is_stmt 0
 535 01d4 13050000 		li	a0,0
 536              	.LVL29:
 537 01d8 03348100 		ld	s0,8(sp)
 538              		.cfi_restore 8
 539              		.cfi_def_cfa 2, 16
 540 01dc 13010101 		addi	sp,sp,16
 541              		.cfi_def_cfa_offset 0
 542 01e0 67800000 		jr	ra
 543              		.cfi_endproc
 544              	.LFE28:
 546              		.align	2
 547              		.globl	_Z10sem_signalP4_sem
 549              	_Z10sem_signalP4_sem:
 550              	.LFB29:
 124:src/syscall_c.cpp **** 
 125:src/syscall_c.cpp **** int sem_signal(sem_t id) {
 551              		.loc 1 125 26 is_stmt 1
 552              		.cfi_startproc
 553              	.LVL30:
 554 01e4 130101FF 		addi	sp,sp,-16
 555              		.cfi_def_cfa_offset 16
 556 01e8 23348100 		sd	s0,8(sp)
 557              		.cfi_offset 8, -8
 558 01ec 13040101 		addi	s0,sp,16
 559              		.cfi_def_cfa 8, 0
 126:src/syscall_c.cpp **** 	return 0;
 560              		.loc 1 126 2
 127:src/syscall_c.cpp **** }
 561              		.loc 1 127 1 is_stmt 0
 562 01f0 13050000 		li	a0,0
GAS LISTING /tmp/cczf8nSa.s 			page 13


 563              	.LVL31:
 564 01f4 03348100 		ld	s0,8(sp)
 565              		.cfi_restore 8
 566              		.cfi_def_cfa 2, 16
 567 01f8 13010101 		addi	sp,sp,16
 568              		.cfi_def_cfa_offset 0
 569 01fc 67800000 		jr	ra
 570              		.cfi_endproc
 571              	.LFE29:
 573              		.align	2
 574              		.globl	_Z4getcv
 576              	_Z4getcv:
 577              	.LFB30:
 128:src/syscall_c.cpp **** 
 129:src/syscall_c.cpp **** char getc() {
 578              		.loc 1 129 13 is_stmt 1
 579              		.cfi_startproc
 580 0200 130101FF 		addi	sp,sp,-16
 581              		.cfi_def_cfa_offset 16
 582 0204 23341100 		sd	ra,8(sp)
 583 0208 23308100 		sd	s0,0(sp)
 584              		.cfi_offset 1, -8
 585              		.cfi_offset 8, -16
 586 020c 13040101 		addi	s0,sp,16
 587              		.cfi_def_cfa 8, 0
 130:src/syscall_c.cpp **** 	return __getc();
 588              		.loc 1 130 2
 589              		.loc 1 130 15 is_stmt 0
 590 0210 97000000 		call	__getc@plt
 590      E7800000 
 591              	.LVL32:
 131:src/syscall_c.cpp **** }
 592              		.loc 1 131 1
 593 0218 83308100 		ld	ra,8(sp)
 594              		.cfi_restore 1
 595 021c 03340100 		ld	s0,0(sp)
 596              		.cfi_restore 8
 597              		.cfi_def_cfa 2, 16
 598 0220 13010101 		addi	sp,sp,16
 599              		.cfi_def_cfa_offset 0
 600 0224 67800000 		jr	ra
 601              		.cfi_endproc
 602              	.LFE30:
 604              		.align	2
 605              		.globl	_Z4putcc
 607              	_Z4putcc:
 608              	.LFB31:
 132:src/syscall_c.cpp **** 
 133:src/syscall_c.cpp **** void putc(char c) {
 609              		.loc 1 133 19 is_stmt 1
 610              		.cfi_startproc
 611              	.LVL33:
 612 0228 130101FF 		addi	sp,sp,-16
 613              		.cfi_def_cfa_offset 16
 614 022c 23341100 		sd	ra,8(sp)
 615 0230 23308100 		sd	s0,0(sp)
 616              		.cfi_offset 1, -8
GAS LISTING /tmp/cczf8nSa.s 			page 14


 617              		.cfi_offset 8, -16
 618 0234 13040101 		addi	s0,sp,16
 619              		.cfi_def_cfa 8, 0
 134:src/syscall_c.cpp **** 	__putc(c);
 620              		.loc 1 134 2
 621              		.loc 1 134 8 is_stmt 0
 622 0238 97000000 		call	__putc@plt
 622      E7800000 
 623              	.LVL34:
 135:src/syscall_c.cpp **** }
 624              		.loc 1 135 1
 625 0240 83308100 		ld	ra,8(sp)
 626              		.cfi_restore 1
 627 0244 03340100 		ld	s0,0(sp)
 628              		.cfi_restore 8
 629              		.cfi_def_cfa 2, 16
 630 0248 13010101 		addi	sp,sp,16
 631              		.cfi_def_cfa_offset 0
 632 024c 67800000 		jr	ra
 633              		.cfi_endproc
 634              	.LFE31:
 636              	.Letext0:
 637              		.file 2 "src/../h/../lib/hw.h"
 638              		.file 3 "src/../h/syscall_c.hpp"
 639              		.file 4 "src/../lib/console.h"
GAS LISTING /tmp/cczf8nSa.s 			page 15

