GAS LISTING /tmp/ccsGSfA2.s 			page 1


   1              		.file	"syscall_cpp.cpp"
   2              		.option pic
   3              		.option norelax
   4              		.text
   5              	.Ltext0:
   6              		.section	.text._ZN6Thread3runEv,"axG",@progbits,_ZN6Thread3runEv,comdat
   7              		.align	2
   8              		.weak	_ZN6Thread3runEv
  10              	_ZN6Thread3runEv:
  11              	.LFB0:
  12              		.file 1 "src/../h/syscall_cpp.hpp"
   1:src/../h/syscall_cpp.hpp **** #ifndef _syscall_cpp
   2:src/../h/syscall_cpp.hpp **** #define _syscall_cpp
   3:src/../h/syscall_cpp.hpp **** 
   4:src/../h/syscall_cpp.hpp **** #include "../lib/hw.h"
   5:src/../h/syscall_cpp.hpp **** 
   6:src/../h/syscall_cpp.hpp **** void* operator new(size_t);
   7:src/../h/syscall_cpp.hpp **** 
   8:src/../h/syscall_cpp.hpp **** void* operator new[](size_t);
   9:src/../h/syscall_cpp.hpp **** 
  10:src/../h/syscall_cpp.hpp **** void operator delete(void*)
  11:src/../h/syscall_cpp.hpp **** 
  12:src/../h/syscall_cpp.hpp **** noexcept;
  13:src/../h/syscall_cpp.hpp **** 
  14:src/../h/syscall_cpp.hpp **** void operator delete[](void*)
  15:src/../h/syscall_cpp.hpp **** 
  16:src/../h/syscall_cpp.hpp **** noexcept;
  17:src/../h/syscall_cpp.hpp **** 
  18:src/../h/syscall_cpp.hpp **** class TCB;
  19:src/../h/syscall_cpp.hpp **** 
  20:src/../h/syscall_cpp.hpp **** typedef TCB* thread_t;
  21:src/../h/syscall_cpp.hpp **** 
  22:src/../h/syscall_cpp.hpp **** class KSem;
  23:src/../h/syscall_cpp.hpp **** 
  24:src/../h/syscall_cpp.hpp **** typedef KSem* sem_t;
  25:src/../h/syscall_cpp.hpp **** 
  26:src/../h/syscall_cpp.hpp **** class Thread {
  27:src/../h/syscall_cpp.hpp **** public:
  28:src/../h/syscall_cpp.hpp **** 	Thread(void (* body)(void*), void* arg);
  29:src/../h/syscall_cpp.hpp **** 
  30:src/../h/syscall_cpp.hpp **** 	virtual ~Thread();
  31:src/../h/syscall_cpp.hpp **** 
  32:src/../h/syscall_cpp.hpp **** 	int start();
  33:src/../h/syscall_cpp.hpp **** 
  34:src/../h/syscall_cpp.hpp **** 	void join();
  35:src/../h/syscall_cpp.hpp **** 
  36:src/../h/syscall_cpp.hpp **** 	static void dispatch();
  37:src/../h/syscall_cpp.hpp **** 
  38:src/../h/syscall_cpp.hpp **** 	static int sleep(time_t);
  39:src/../h/syscall_cpp.hpp **** 
  40:src/../h/syscall_cpp.hpp **** protected:
  41:src/../h/syscall_cpp.hpp **** 	Thread();
  42:src/../h/syscall_cpp.hpp **** 
  43:src/../h/syscall_cpp.hpp **** 	virtual void run() {}
  13              		.loc 1 43 15
  14              		.cfi_startproc
  15              	.LVL0:
GAS LISTING /tmp/ccsGSfA2.s 			page 2


  16 0000 130101FF 		addi	sp,sp,-16
  17              		.cfi_def_cfa_offset 16
  18 0004 23348100 		sd	s0,8(sp)
  19              		.cfi_offset 8, -8
  20 0008 13040101 		addi	s0,sp,16
  21              		.cfi_def_cfa 8, 0
  22              		.loc 1 43 22 is_stmt 0
  23 000c 03348100 		ld	s0,8(sp)
  24              		.cfi_restore 8
  25              		.cfi_def_cfa 2, 16
  26 0010 13010101 		addi	sp,sp,16
  27              		.cfi_def_cfa_offset 0
  28 0014 67800000 		jr	ra
  29              		.cfi_endproc
  30              	.LFE0:
  32              		.section	.text._ZN14PeriodicThread18periodicActivationEv,"axG",@progbits,_ZN14PeriodicThread18peri
  33              		.align	2
  34              		.weak	_ZN14PeriodicThread18periodicActivationEv
  36              	_ZN14PeriodicThread18periodicActivationEv:
  37              	.LFB1:
  44:src/../h/syscall_cpp.hpp **** 
  45:src/../h/syscall_cpp.hpp **** private:
  46:src/../h/syscall_cpp.hpp **** 	thread_t myHandle;
  47:src/../h/syscall_cpp.hpp **** 
  48:src/../h/syscall_cpp.hpp **** 	void (* body)(void*);
  49:src/../h/syscall_cpp.hpp **** 
  50:src/../h/syscall_cpp.hpp **** 	void* arg;
  51:src/../h/syscall_cpp.hpp **** 
  52:src/../h/syscall_cpp.hpp **** 	static void wrapper(void* thread);
  53:src/../h/syscall_cpp.hpp **** };
  54:src/../h/syscall_cpp.hpp **** 
  55:src/../h/syscall_cpp.hpp **** 
  56:src/../h/syscall_cpp.hpp **** class Semaphore {
  57:src/../h/syscall_cpp.hpp **** public:
  58:src/../h/syscall_cpp.hpp **** 
  59:src/../h/syscall_cpp.hpp **** 	Semaphore(unsigned init = 1);
  60:src/../h/syscall_cpp.hpp **** 
  61:src/../h/syscall_cpp.hpp **** 	virtual ~Semaphore();
  62:src/../h/syscall_cpp.hpp **** 
  63:src/../h/syscall_cpp.hpp **** 	int wait();
  64:src/../h/syscall_cpp.hpp **** 
  65:src/../h/syscall_cpp.hpp **** 	int signal();
  66:src/../h/syscall_cpp.hpp **** 
  67:src/../h/syscall_cpp.hpp **** private:
  68:src/../h/syscall_cpp.hpp **** 	sem_t myHandle;
  69:src/../h/syscall_cpp.hpp **** 
  70:src/../h/syscall_cpp.hpp **** };
  71:src/../h/syscall_cpp.hpp **** 
  72:src/../h/syscall_cpp.hpp **** 
  73:src/../h/syscall_cpp.hpp **** class PeriodicThread : public Thread {
  74:src/../h/syscall_cpp.hpp **** public:
  75:src/../h/syscall_cpp.hpp **** 	void terminate();
  76:src/../h/syscall_cpp.hpp **** 
  77:src/../h/syscall_cpp.hpp **** protected:
  78:src/../h/syscall_cpp.hpp **** 	PeriodicThread(time_t period);
  79:src/../h/syscall_cpp.hpp **** 
  80:src/../h/syscall_cpp.hpp **** 	virtual void periodicActivation() {}
GAS LISTING /tmp/ccsGSfA2.s 			page 3


  38              		.loc 1 80 15 is_stmt 1
  39              		.cfi_startproc
  40              	.LVL1:
  41 0000 130101FF 		addi	sp,sp,-16
  42              		.cfi_def_cfa_offset 16
  43 0004 23348100 		sd	s0,8(sp)
  44              		.cfi_offset 8, -8
  45 0008 13040101 		addi	s0,sp,16
  46              		.cfi_def_cfa 8, 0
  47              		.loc 1 80 37 is_stmt 0
  48 000c 03348100 		ld	s0,8(sp)
  49              		.cfi_restore 8
  50              		.cfi_def_cfa 2, 16
  51 0010 13010101 		addi	sp,sp,16
  52              		.cfi_def_cfa_offset 0
  53 0014 67800000 		jr	ra
  54              		.cfi_endproc
  55              	.LFE1:
  57              		.text
  58              		.align	2
  59              		.globl	_ZN6Thread7wrapperEPv
  61              	_ZN6Thread7wrapperEPv:
  62              	.LFB55:
  63              		.file 2 "src/syscall_cpp.cpp"
   1:src/syscall_cpp.cpp **** //
   2:src/syscall_cpp.cpp **** // Created by os on 5/29/23.
   3:src/syscall_cpp.cpp **** //
   4:src/syscall_cpp.cpp **** #include "../h/syscall_cpp.hpp"
   5:src/syscall_cpp.cpp **** #include "../h/syscall_c.hpp"
   6:src/syscall_cpp.cpp **** #include "../h/TCB.hpp"
   7:src/syscall_cpp.cpp **** #include "../h/KSem.hpp"
   8:src/syscall_cpp.cpp **** #include "../h/Scheduler.hpp"
   9:src/syscall_cpp.cpp **** 
  10:src/syscall_cpp.cpp **** //override globalnog new
  11:src/syscall_cpp.cpp **** void* operator new(size_t size) {
  12:src/syscall_cpp.cpp **** 	return mem_alloc(size);
  13:src/syscall_cpp.cpp **** }
  14:src/syscall_cpp.cpp **** 
  15:src/syscall_cpp.cpp **** void* operator new[](size_t size) {
  16:src/syscall_cpp.cpp **** 	return mem_alloc(size);
  17:src/syscall_cpp.cpp **** }
  18:src/syscall_cpp.cpp **** 
  19:src/syscall_cpp.cpp **** void operator delete(void* ptr)
  20:src/syscall_cpp.cpp **** 
  21:src/syscall_cpp.cpp **** noexcept {
  22:src/syscall_cpp.cpp **** mem_free(ptr);
  23:src/syscall_cpp.cpp **** }
  24:src/syscall_cpp.cpp **** 
  25:src/syscall_cpp.cpp **** void operator delete[](void* ptr)
  26:src/syscall_cpp.cpp **** 
  27:src/syscall_cpp.cpp **** noexcept {
  28:src/syscall_cpp.cpp **** mem_free(ptr);
  29:src/syscall_cpp.cpp **** }
  30:src/syscall_cpp.cpp **** 
  31:src/syscall_cpp.cpp **** //konstruktor za Thread
  32:src/syscall_cpp.cpp **** Thread::Thread(void (* body)(void*), void* arg) {
  33:src/syscall_cpp.cpp **** 	this->body = body;
GAS LISTING /tmp/ccsGSfA2.s 			page 4


  34:src/syscall_cpp.cpp **** 	this->arg = arg;
  35:src/syscall_cpp.cpp **** 	//stvaranje steka ako se ne radi o main kernel niti, posto ona automatski ima stek
  36:src/syscall_cpp.cpp **** 	uint64* stack = nullptr;
  37:src/syscall_cpp.cpp **** 	if (body != nullptr) {
  38:src/syscall_cpp.cpp **** 		stack = (uint64*)mem_alloc(DEFAULT_STACK_SIZE);
  39:src/syscall_cpp.cpp **** 	}
  40:src/syscall_cpp.cpp **** 	//uint64* stack = (start_routine != nullptr ? (uint64*)MemoryAllocator::kmalloc(DEFAULT_STACK_SIZE
  41:src/syscall_cpp.cpp **** 	//stavljanje argumenata za sistemski poziv
  42:src/syscall_cpp.cpp **** 	__asm__ volatile("mv a4, %[sp]": :[sp] "r"(stack):"a5", "a0", "a1", "a2", "a3", "a4", "a6", "a7");
  43:src/syscall_cpp.cpp **** 	__asm__ volatile("mv a3, %[arg]": :[arg] "r"(arg):"a5", "a0", "a1", "a2", "a3", "a4", "a6", "a7");
  44:src/syscall_cpp.cpp **** 	__asm__ volatile("mv a2, %[function]": :[function] "r"(
  45:src/syscall_cpp.cpp **** 			body):"a5", "a0", "a1", "a2", "a3", "a4", "a6", "a7");
  46:src/syscall_cpp.cpp **** 	__asm__ volatile("mv a1, %[handle]": :[handle] "r"(&myHandle):"a5", "a0", "a1", "a2", "a3", "a4", 
  47:src/syscall_cpp.cpp **** 	__asm__ volatile("li a0, 0x80");
  48:src/syscall_cpp.cpp **** 	//a0 = 0x80
  49:src/syscall_cpp.cpp **** 	//a1 = adresa pokazivaca na rucku niti
  50:src/syscall_cpp.cpp **** 	//a2 = prva adresa funkcije koju nit izvrsava
  51:src/syscall_cpp.cpp **** 	//a3 = pokazivac na argumente funkcije
  52:src/syscall_cpp.cpp **** 	//a4 = pokazivac na najnizu adresu steka (stek raste ka nizim adresama, pokazuje na poslednju zauz
  53:src/syscall_cpp.cpp **** 
  54:src/syscall_cpp.cpp **** 	__asm__ volatile("ecall");
  55:src/syscall_cpp.cpp **** }
  56:src/syscall_cpp.cpp **** 
  57:src/syscall_cpp.cpp **** Thread::~Thread() {
  58:src/syscall_cpp.cpp **** 	//ne treba da se gasi running nit, vec nit na koju pokazuje rucka od this
  59:src/syscall_cpp.cpp **** 	thread_join(this->myHandle);
  60:src/syscall_cpp.cpp **** 	delete myHandle;
  61:src/syscall_cpp.cpp **** 
  62:src/syscall_cpp.cpp **** 	//ovo nije dobro
  63:src/syscall_cpp.cpp **** 	//thread_exit();
  64:src/syscall_cpp.cpp **** }
  65:src/syscall_cpp.cpp **** 
  66:src/syscall_cpp.cpp **** int Thread::start() {
  67:src/syscall_cpp.cpp **** 	if (myHandle == nullptr) return -1;
  68:src/syscall_cpp.cpp **** 	__asm__ volatile("mv a1, %[handle]": :[handle] "r"(myHandle):"a5", "a0", "a1", "a2", "a3", "a4", "
  69:src/syscall_cpp.cpp **** 	__asm__ volatile("li a0, 0x81");
  70:src/syscall_cpp.cpp **** 
  71:src/syscall_cpp.cpp **** 	__asm__ volatile("ecall");
  72:src/syscall_cpp.cpp **** 
  73:src/syscall_cpp.cpp **** 	return 0;
  74:src/syscall_cpp.cpp **** }
  75:src/syscall_cpp.cpp **** 
  76:src/syscall_cpp.cpp **** void Thread::join() {
  77:src/syscall_cpp.cpp **** 	thread_join(myHandle);
  78:src/syscall_cpp.cpp **** }
  79:src/syscall_cpp.cpp **** 
  80:src/syscall_cpp.cpp **** void Thread::dispatch() {
  81:src/syscall_cpp.cpp **** 	thread_dispatch();
  82:src/syscall_cpp.cpp **** }
  83:src/syscall_cpp.cpp **** 
  84:src/syscall_cpp.cpp **** int Thread::sleep(time_t t) {
  85:src/syscall_cpp.cpp **** 	//Scheduler::putToSleep(TCB::running, t);
  86:src/syscall_cpp.cpp ****     time_sleep(t);
  87:src/syscall_cpp.cpp **** 	return 0;
  88:src/syscall_cpp.cpp **** }
  89:src/syscall_cpp.cpp **** 
  90:src/syscall_cpp.cpp **** Thread::Thread() {
GAS LISTING /tmp/ccsGSfA2.s 			page 5


  91:src/syscall_cpp.cpp **** 	this->body = wrapper;
  92:src/syscall_cpp.cpp **** 	this->arg = this;
  93:src/syscall_cpp.cpp **** 	//stvaranje steka ako se ne radi o main kernel niti, posto ona automatski ima stek
  94:src/syscall_cpp.cpp **** 	uint64* stack = nullptr;
  95:src/syscall_cpp.cpp **** 	if (body != nullptr) {
  96:src/syscall_cpp.cpp **** 		stack = (uint64*)mem_alloc(DEFAULT_STACK_SIZE);
  97:src/syscall_cpp.cpp **** 	}
  98:src/syscall_cpp.cpp **** 	//uint64* stack = (start_routine != nullptr ? (uint64*)MemoryAllocator::kmalloc(DEFAULT_STACK_SIZE
  99:src/syscall_cpp.cpp **** 	//stavljanje argumenata za sistemski poziv
 100:src/syscall_cpp.cpp **** 	__asm__ volatile("mv a4, %[sp]": :[sp] "r"(stack):"a5", "a0", "a1", "a2", "a3", "a4", "a6", "a7");
 101:src/syscall_cpp.cpp **** 	__asm__ volatile("mv a3, %[arg]": :[arg] "r"(arg):"a5", "a0", "a1", "a2", "a3", "a4", "a6", "a7");
 102:src/syscall_cpp.cpp **** 	__asm__ volatile("mv a2, %[function]": :[function] "r"(
 103:src/syscall_cpp.cpp **** 			body):"a5", "a0", "a1", "a2", "a3", "a4", "a6", "a7");
 104:src/syscall_cpp.cpp **** 	__asm__ volatile("mv a1, %[handle]": :[handle] "r"(&myHandle):"a5", "a0", "a1", "a2", "a3", "a4", 
 105:src/syscall_cpp.cpp **** 	__asm__ volatile("li a0, 0x80");
 106:src/syscall_cpp.cpp **** 	//a0 = 0x80
 107:src/syscall_cpp.cpp **** 	//a1 = adresa pokazivaca na rucku niti
 108:src/syscall_cpp.cpp **** 	//a2 = prva adresa funkcije koju nit izvrsava
 109:src/syscall_cpp.cpp **** 	//a3 = pokazivac na argumente funkcije
 110:src/syscall_cpp.cpp **** 	//a4 = pokazivac na najnizu adresu steka (stek raste ka nizim adresama, pokazuje na poslednju zauz
 111:src/syscall_cpp.cpp **** 
 112:src/syscall_cpp.cpp **** 	__asm__ volatile("ecall");
 113:src/syscall_cpp.cpp **** }
 114:src/syscall_cpp.cpp **** 
 115:src/syscall_cpp.cpp **** void Thread::wrapper(void* thread) {
  64              		.loc 2 115 36 is_stmt 1
  65              		.cfi_startproc
  66              	.LVL2:
 116:src/syscall_cpp.cpp **** 	if (thread != nullptr) {
  67              		.loc 2 116 2
  68 0000 63080502 		beqz	a0,.L8
 115:src/syscall_cpp.cpp **** 	if (thread != nullptr) {
  69              		.loc 2 115 36 is_stmt 0
  70 0004 130101FF 		addi	sp,sp,-16
  71              		.cfi_def_cfa_offset 16
  72 0008 23341100 		sd	ra,8(sp)
  73 000c 23308100 		sd	s0,0(sp)
  74              		.cfi_offset 1, -8
  75              		.cfi_offset 8, -16
  76 0010 13040101 		addi	s0,sp,16
  77              		.cfi_def_cfa 8, 0
 117:src/syscall_cpp.cpp **** 		((Thread*)thread)->run();
  78              		.loc 2 117 3 is_stmt 1
  79              		.loc 2 117 26 is_stmt 0
  80 0014 83370500 		ld	a5,0(a0)
  81 0018 83B70701 		ld	a5,16(a5)
  82              		.loc 2 117 25
  83 001c E7800700 		jalr	a5
  84              	.LVL3:
 118:src/syscall_cpp.cpp **** 	}
 119:src/syscall_cpp.cpp **** }
  85              		.loc 2 119 1
  86 0020 83308100 		ld	ra,8(sp)
  87              		.cfi_restore 1
  88 0024 03340100 		ld	s0,0(sp)
  89              		.cfi_restore 8
  90              		.cfi_def_cfa 2, 16
GAS LISTING /tmp/ccsGSfA2.s 			page 6


  91 0028 13010101 		addi	sp,sp,16
  92              		.cfi_def_cfa_offset 0
  93 002c 67800000 		jr	ra
  94              	.LVL4:
  95              	.L8:
  96 0030 67800000 		ret
  97              		.cfi_endproc
  98              	.LFE55:
 100              		.align	2
 101              		.globl	_ZN6ThreadD2Ev
 103              	_ZN6ThreadD2Ev:
 104              	.LFB45:
  57:src/syscall_cpp.cpp **** 	//ne treba da se gasi running nit, vec nit na koju pokazuje rucka od this
 105              		.loc 2 57 1 is_stmt 1
 106              		.cfi_startproc
 107              		.cfi_personality 0x9b,DW.ref.__gxx_personality_v0
 108              		.cfi_lsda 0x1b,.LLSDA45
 109              	.LVL5:
 110 0034 130101FE 		addi	sp,sp,-32
 111              		.cfi_def_cfa_offset 32
 112 0038 233C1100 		sd	ra,24(sp)
 113 003c 23388100 		sd	s0,16(sp)
 114 0040 23349100 		sd	s1,8(sp)
 115              		.cfi_offset 1, -8
 116              		.cfi_offset 8, -16
 117              		.cfi_offset 9, -24
 118 0044 13040102 		addi	s0,sp,32
 119              		.cfi_def_cfa 8, 0
 120 0048 93040500 		mv	s1,a0
 121              	.LBB54:
  57:src/syscall_cpp.cpp **** 	//ne treba da se gasi running nit, vec nit na koju pokazuje rucka od this
 122              		.loc 2 57 17 is_stmt 0
 123 004c 97070000 		lla	a5,_ZTV6Thread+16
 123      93870700 
 124 0054 2330F500 		sd	a5,0(a0)
  59:src/syscall_cpp.cpp **** 	delete myHandle;
 125              		.loc 2 59 2 is_stmt 1
  59:src/syscall_cpp.cpp **** 	delete myHandle;
 126              		.loc 2 59 13 is_stmt 0
 127 0058 03358500 		ld	a0,8(a0)
 128              	.LVL6:
 129 005c 97000000 		call	_Z11thread_joinP3TCB@plt
 129      E7800000 
 130              	.LVL7:
  60:src/syscall_cpp.cpp **** 
 131              		.loc 2 60 2 is_stmt 1
  60:src/syscall_cpp.cpp **** 
 132              		.loc 2 60 9 is_stmt 0
 133 0064 83B48400 		ld	s1,8(s1)
 134              	.LVL8:
  60:src/syscall_cpp.cpp **** 
 135              		.loc 2 60 17
 136 0068 63880402 		beqz	s1,.L11
 137              	.L14:
 138              	.LBB55:
 139              	.LBB56:
 140              	.LBB57:
GAS LISTING /tmp/ccsGSfA2.s 			page 7


 141              		.file 3 "src/../h/../h/ThreadQueue.hpp"
   1:src/../h/../h/ThreadQueue.hpp **** //
   2:src/../h/../h/ThreadQueue.hpp **** // Created by os on 6/4/23.
   3:src/../h/../h/ThreadQueue.hpp **** //
   4:src/../h/../h/ThreadQueue.hpp **** 
   5:src/../h/../h/ThreadQueue.hpp **** #ifndef PROJEKAT2023_THREADQUEUE_HPP
   6:src/../h/../h/ThreadQueue.hpp **** #define PROJEKAT2023_THREADQUEUE_HPP
   7:src/../h/../h/ThreadQueue.hpp **** 
   8:src/../h/../h/ThreadQueue.hpp **** #include "../h/MemoryAllocator.hpp"
   9:src/../h/../h/ThreadQueue.hpp **** #include "../h/syscall_c.hpp"
  10:src/../h/../h/ThreadQueue.hpp **** 
  11:src/../h/../h/ThreadQueue.hpp **** class TCB;
  12:src/../h/../h/ThreadQueue.hpp **** 
  13:src/../h/../h/ThreadQueue.hpp **** class ThreadQueue {
  14:src/../h/../h/ThreadQueue.hpp **** private:
  15:src/../h/../h/ThreadQueue.hpp ****     struct Node {
  16:src/../h/../h/ThreadQueue.hpp ****         TCB *data;
  17:src/../h/../h/ThreadQueue.hpp ****         Node *next;
  18:src/../h/../h/ThreadQueue.hpp **** 
  19:src/../h/../h/ThreadQueue.hpp ****         Node(TCB *d) : data(d), next(nullptr) {}
  20:src/../h/../h/ThreadQueue.hpp **** 
  21:src/../h/../h/ThreadQueue.hpp ****         static void *operator new(size_t size) {
  22:src/../h/../h/ThreadQueue.hpp ****             return mem_alloc(size);
  23:src/../h/../h/ThreadQueue.hpp ****         }
  24:src/../h/../h/ThreadQueue.hpp **** 
  25:src/../h/../h/ThreadQueue.hpp ****         static void operator delete(void *ptr) {
  26:src/../h/../h/ThreadQueue.hpp ****             mem_free(ptr);
  27:src/../h/../h/ThreadQueue.hpp ****         }
  28:src/../h/../h/ThreadQueue.hpp ****     };
  29:src/../h/../h/ThreadQueue.hpp **** 
  30:src/../h/../h/ThreadQueue.hpp ****     Node *front;
  31:src/../h/../h/ThreadQueue.hpp ****     Node *back;
  32:src/../h/../h/ThreadQueue.hpp **** 
  33:src/../h/../h/ThreadQueue.hpp **** public:
  34:src/../h/../h/ThreadQueue.hpp ****     ThreadQueue() : front(nullptr), back(nullptr) {}
  35:src/../h/../h/ThreadQueue.hpp **** 
  36:src/../h/../h/ThreadQueue.hpp ****     ThreadQueue(const ThreadQueue &) = delete;
  37:src/../h/../h/ThreadQueue.hpp **** 
  38:src/../h/../h/ThreadQueue.hpp ****     ThreadQueue &operator=(const ThreadQueue &) = delete;
  39:src/../h/../h/ThreadQueue.hpp **** 
  40:src/../h/../h/ThreadQueue.hpp ****     ~ThreadQueue() {
  41:src/../h/../h/ThreadQueue.hpp ****         while (!isEmpty()) {
 142              		.loc 3 41 9 is_stmt 1
 143              		.loc 3 41 16
 144              	.LVL9:
 145              	.LBB58:
 146              	.LBB59:
  42:src/../h/../h/ThreadQueue.hpp ****             Node *node = front;
  43:src/../h/../h/ThreadQueue.hpp ****             front = front->next;
  44:src/../h/../h/ThreadQueue.hpp ****             delete node;
  45:src/../h/../h/ThreadQueue.hpp ****         }
  46:src/../h/../h/ThreadQueue.hpp ****     }
  47:src/../h/../h/ThreadQueue.hpp **** 
  48:src/../h/../h/ThreadQueue.hpp ****     bool isEmpty() const {
  49:src/../h/../h/ThreadQueue.hpp ****         bool ret = front == nullptr;
 147              		.loc 3 49 9
 148              		.loc 3 49 20 is_stmt 0
GAS LISTING /tmp/ccsGSfA2.s 			page 8


 149 006c 03B58404 		ld	a0,72(s1)
 150              	.LVL10:
  50:src/../h/../h/ThreadQueue.hpp ****         return ret;
 151              		.loc 3 50 9 is_stmt 1
 152              	.LBE59:
 153              	.LBE58:
  41:src/../h/../h/ThreadQueue.hpp ****             Node *node = front;
 154              		.loc 3 41 16 is_stmt 0
 155 0070 630E0500 		beqz	a0,.L13
 156              	.LBB60:
  42:src/../h/../h/ThreadQueue.hpp ****             Node *node = front;
 157              		.loc 3 42 13 is_stmt 1
 158              	.LVL11:
  43:src/../h/../h/ThreadQueue.hpp ****             delete node;
 159              		.loc 3 43 13
  43:src/../h/../h/ThreadQueue.hpp ****             delete node;
 160              		.loc 3 43 28 is_stmt 0
 161 0074 83378500 		ld	a5,8(a0)
  43:src/../h/../h/ThreadQueue.hpp ****             delete node;
 162              		.loc 3 43 19
 163 0078 23B4F404 		sd	a5,72(s1)
  44:src/../h/../h/ThreadQueue.hpp ****         }
 164              		.loc 3 44 13 is_stmt 1
  44:src/../h/../h/ThreadQueue.hpp ****         }
 165              		.loc 3 44 24 is_stmt 0
 166 007c E30805FE 		beqz	a0,.L14
 167              	.LVL12:
 168              	.LBB61:
 169              	.LBB62:
  26:src/../h/../h/ThreadQueue.hpp ****         }
 170              		.loc 3 26 13 is_stmt 1
  26:src/../h/../h/ThreadQueue.hpp ****         }
 171              		.loc 3 26 21 is_stmt 0
 172 0080 97000000 		call	_Z8mem_freePv@plt
 172      E7800000 
 173              	.LVL13:
  27:src/../h/../h/ThreadQueue.hpp ****     };
 174              		.loc 3 27 9
 175 0088 6FF05FFE 		j	.L14
 176              	.L13:
 177              	.LBE62:
 178              	.LBE61:
 179              	.LBE60:
 180              	.LBE57:
 181              	.LBE56:
 182              	.LBE55:
  60:src/syscall_cpp.cpp **** 
 183              		.loc 2 60 9
 184 008c 13850400 		mv	a0,s1
 185 0090 97000000 		call	_ZN3TCBdlEPv@plt
 185      E7800000 
 186              	.LVL14:
 187              	.L11:
 188              	.LBE54:
  64:src/syscall_cpp.cpp **** 
 189              		.loc 2 64 1
 190 0098 83308101 		ld	ra,24(sp)
GAS LISTING /tmp/ccsGSfA2.s 			page 9


 191              		.cfi_restore 1
 192 009c 03340101 		ld	s0,16(sp)
 193              		.cfi_restore 8
 194              		.cfi_def_cfa 2, 32
 195 00a0 83348100 		ld	s1,8(sp)
 196              		.cfi_restore 9
 197 00a4 13010102 		addi	sp,sp,32
 198              		.cfi_def_cfa_offset 0
 199 00a8 67800000 		jr	ra
 200              		.cfi_endproc
 201              	.LFE45:
 202              		.globl	__gxx_personality_v0
 203              		.section	.gcc_except_table,"a",@progbits
 204              	.LLSDA45:
 205 0000 FF       		.byte	0xff
 206 0001 FF       		.byte	0xff
 207 0002 03       		.byte	0x3
 208 0003 00       		.byte	0
 209              		.text
 211              		.globl	_ZN6ThreadD1Ev
 212              		.set	_ZN6ThreadD1Ev,_ZN6ThreadD2Ev
 213              		.section	.text._ZN14PeriodicThreadD2Ev,"axG",@progbits,_ZN14PeriodicThreadD5Ev,comdat
 214              		.align	2
 215              		.weak	_ZN14PeriodicThreadD2Ev
 217              	_ZN14PeriodicThreadD2Ev:
 218              	.LFB76:
  73:src/../h/syscall_cpp.hpp **** public:
 219              		.loc 1 73 7 is_stmt 1
 220              		.cfi_startproc
 221              	.LVL15:
 222 0000 130101FF 		addi	sp,sp,-16
 223              		.cfi_def_cfa_offset 16
 224 0004 23341100 		sd	ra,8(sp)
 225 0008 23308100 		sd	s0,0(sp)
 226              		.cfi_offset 1, -8
 227              		.cfi_offset 8, -16
 228 000c 13040101 		addi	s0,sp,16
 229              		.cfi_def_cfa 8, 0
 230              	.LBB63:
  73:src/../h/syscall_cpp.hpp **** public:
 231              		.loc 1 73 7 is_stmt 0
 232 0010 97070000 		lla	a5,_ZTV14PeriodicThread+16
 232      93870700 
 233 0018 2330F500 		sd	a5,0(a0)
 234 001c 97000000 		call	_ZN6ThreadD2Ev
 234      E7800000 
 235              	.LVL16:
 236              	.LBE63:
 237 0024 83308100 		ld	ra,8(sp)
 238              		.cfi_restore 1
 239 0028 03340100 		ld	s0,0(sp)
 240              		.cfi_restore 8
 241              		.cfi_def_cfa 2, 16
 242 002c 13010101 		addi	sp,sp,16
 243              		.cfi_def_cfa_offset 0
 244 0030 67800000 		jr	ra
 245              		.cfi_endproc
GAS LISTING /tmp/ccsGSfA2.s 			page 10


 246              	.LFE76:
 248              		.weak	_ZN14PeriodicThreadD1Ev
 249              		.set	_ZN14PeriodicThreadD1Ev,_ZN14PeriodicThreadD2Ev
 250              		.text
 251              		.align	2
 252              		.globl	_ZN9SemaphoreD2Ev
 254              	_ZN9SemaphoreD2Ev:
 255              	.LFB63:
 120:src/syscall_cpp.cpp **** 
 121:src/syscall_cpp.cpp **** Semaphore::Semaphore(unsigned int init) {
 122:src/syscall_cpp.cpp **** 	sem_open(&myHandle, init);
 123:src/syscall_cpp.cpp **** }
 124:src/syscall_cpp.cpp **** 
 125:src/syscall_cpp.cpp **** Semaphore::~Semaphore() {
 256              		.loc 2 125 1 is_stmt 1
 257              		.cfi_startproc
 258              		.cfi_personality 0x9b,DW.ref.__gxx_personality_v0
 259              		.cfi_lsda 0x1b,.LLSDA63
 260              	.LVL17:
 261 00ac 130101FE 		addi	sp,sp,-32
 262              		.cfi_def_cfa_offset 32
 263 00b0 233C1100 		sd	ra,24(sp)
 264 00b4 23388100 		sd	s0,16(sp)
 265 00b8 23349100 		sd	s1,8(sp)
 266              		.cfi_offset 1, -8
 267              		.cfi_offset 8, -16
 268              		.cfi_offset 9, -24
 269 00bc 13040102 		addi	s0,sp,32
 270              		.cfi_def_cfa 8, 0
 271 00c0 93040500 		mv	s1,a0
 272              	.LBB64:
 273              		.loc 2 125 23 is_stmt 0
 274 00c4 97070000 		lla	a5,_ZTV9Semaphore+16
 274      93870700 
 275 00cc 2330F500 		sd	a5,0(a0)
 126:src/syscall_cpp.cpp **** 	sem_close(myHandle);
 276              		.loc 2 126 2 is_stmt 1
 277              		.loc 2 126 11 is_stmt 0
 278 00d0 03358500 		ld	a0,8(a0)
 279              	.LVL18:
 280 00d4 97000000 		call	_Z9sem_closeP4KSem@plt
 280      E7800000 
 281              	.LVL19:
 127:src/syscall_cpp.cpp **** 	delete myHandle;
 282              		.loc 2 127 2 is_stmt 1
 283              		.loc 2 127 9 is_stmt 0
 284 00dc 83B48400 		ld	s1,8(s1)
 285              	.LVL20:
 286              		.loc 2 127 17
 287 00e0 63880402 		beqz	s1,.L19
 288              	.L22:
 289              	.LBB65:
 290              	.LBB66:
 291              	.LBB67:
  41:src/../h/../h/ThreadQueue.hpp ****             Node *node = front;
 292              		.loc 3 41 9 is_stmt 1
  41:src/../h/../h/ThreadQueue.hpp ****             Node *node = front;
GAS LISTING /tmp/ccsGSfA2.s 			page 11


 293              		.loc 3 41 16
 294              	.LVL21:
 295              	.LBB68:
 296              	.LBB69:
  49:src/../h/../h/ThreadQueue.hpp ****         return ret;
 297              		.loc 3 49 9
  49:src/../h/../h/ThreadQueue.hpp ****         return ret;
 298              		.loc 3 49 20 is_stmt 0
 299 00e4 03B58400 		ld	a0,8(s1)
 300              	.LVL22:
 301              		.loc 3 50 9 is_stmt 1
 302              	.LBE69:
 303              	.LBE68:
  41:src/../h/../h/ThreadQueue.hpp ****             Node *node = front;
 304              		.loc 3 41 16 is_stmt 0
 305 00e8 630E0500 		beqz	a0,.L21
 306              	.LBB70:
  42:src/../h/../h/ThreadQueue.hpp ****             front = front->next;
 307              		.loc 3 42 13 is_stmt 1
 308              	.LVL23:
  43:src/../h/../h/ThreadQueue.hpp ****             delete node;
 309              		.loc 3 43 13
  43:src/../h/../h/ThreadQueue.hpp ****             delete node;
 310              		.loc 3 43 28 is_stmt 0
 311 00ec 83378500 		ld	a5,8(a0)
  43:src/../h/../h/ThreadQueue.hpp ****             delete node;
 312              		.loc 3 43 19
 313 00f0 23B4F400 		sd	a5,8(s1)
  44:src/../h/../h/ThreadQueue.hpp ****         }
 314              		.loc 3 44 13 is_stmt 1
  44:src/../h/../h/ThreadQueue.hpp ****         }
 315              		.loc 3 44 24 is_stmt 0
 316 00f4 E30805FE 		beqz	a0,.L22
 317              	.LVL24:
 318              	.LBB71:
 319              	.LBB72:
  26:src/../h/../h/ThreadQueue.hpp ****         }
 320              		.loc 3 26 13 is_stmt 1
  26:src/../h/../h/ThreadQueue.hpp ****         }
 321              		.loc 3 26 21 is_stmt 0
 322 00f8 97000000 		call	_Z8mem_freePv@plt
 322      E7800000 
 323              	.LVL25:
  27:src/../h/../h/ThreadQueue.hpp ****     };
 324              		.loc 3 27 9
 325 0100 6FF05FFE 		j	.L22
 326              	.L21:
 327              	.LBE72:
 328              	.LBE71:
 329              	.LBE70:
 330              	.LBE67:
 331              	.LBE66:
 332              	.LBE65:
 333              		.loc 2 127 9
 334 0104 13850400 		mv	a0,s1
 335 0108 97000000 		call	_ZN4KSemdlEPv@plt
 335      E7800000 
GAS LISTING /tmp/ccsGSfA2.s 			page 12


 336              	.LVL26:
 337              	.L19:
 338              	.LBE64:
 128:src/syscall_cpp.cpp **** }
 339              		.loc 2 128 1
 340 0110 83308101 		ld	ra,24(sp)
 341              		.cfi_restore 1
 342 0114 03340101 		ld	s0,16(sp)
 343              		.cfi_restore 8
 344              		.cfi_def_cfa 2, 32
 345 0118 83348100 		ld	s1,8(sp)
 346              		.cfi_restore 9
 347 011c 13010102 		addi	sp,sp,32
 348              		.cfi_def_cfa_offset 0
 349 0120 67800000 		jr	ra
 350              		.cfi_endproc
 351              	.LFE63:
 352              		.section	.gcc_except_table
 353              	.LLSDA63:
 354 0004 FF       		.byte	0xff
 355 0005 FF       		.byte	0xff
 356 0006 03       		.byte	0x3
 357 0007 00       		.byte	0
 358              		.text
 360              		.globl	_ZN9SemaphoreD1Ev
 361              		.set	_ZN9SemaphoreD1Ev,_ZN9SemaphoreD2Ev
 362              		.align	2
 363              		.globl	_Znwm
 365              	_Znwm:
 366              	.LFB34:
  11:src/syscall_cpp.cpp **** 	return mem_alloc(size);
 367              		.loc 2 11 33 is_stmt 1
 368              		.cfi_startproc
 369              	.LVL27:
 370 0124 130101FF 		addi	sp,sp,-16
 371              		.cfi_def_cfa_offset 16
 372 0128 23341100 		sd	ra,8(sp)
 373 012c 23308100 		sd	s0,0(sp)
 374              		.cfi_offset 1, -8
 375              		.cfi_offset 8, -16
 376 0130 13040101 		addi	s0,sp,16
 377              		.cfi_def_cfa 8, 0
  12:src/syscall_cpp.cpp **** }
 378              		.loc 2 12 2
  12:src/syscall_cpp.cpp **** }
 379              		.loc 2 12 18 is_stmt 0
 380 0134 97000000 		call	_Z9mem_allocm@plt
 380      E7800000 
 381              	.LVL28:
  13:src/syscall_cpp.cpp **** 
 382              		.loc 2 13 1
 383 013c 83308100 		ld	ra,8(sp)
 384              		.cfi_restore 1
 385 0140 03340100 		ld	s0,0(sp)
 386              		.cfi_restore 8
 387              		.cfi_def_cfa 2, 16
 388 0144 13010101 		addi	sp,sp,16
GAS LISTING /tmp/ccsGSfA2.s 			page 13


 389              		.cfi_def_cfa_offset 0
 390 0148 67800000 		jr	ra
 391              		.cfi_endproc
 392              	.LFE34:
 394              		.align	2
 395              		.globl	_Znam
 397              	_Znam:
 398              	.LFB35:
  15:src/syscall_cpp.cpp **** 	return mem_alloc(size);
 399              		.loc 2 15 35 is_stmt 1
 400              		.cfi_startproc
 401              	.LVL29:
 402 014c 130101FF 		addi	sp,sp,-16
 403              		.cfi_def_cfa_offset 16
 404 0150 23341100 		sd	ra,8(sp)
 405 0154 23308100 		sd	s0,0(sp)
 406              		.cfi_offset 1, -8
 407              		.cfi_offset 8, -16
 408 0158 13040101 		addi	s0,sp,16
 409              		.cfi_def_cfa 8, 0
  16:src/syscall_cpp.cpp **** }
 410              		.loc 2 16 2
  16:src/syscall_cpp.cpp **** }
 411              		.loc 2 16 18 is_stmt 0
 412 015c 97000000 		call	_Z9mem_allocm@plt
 412      E7800000 
 413              	.LVL30:
  17:src/syscall_cpp.cpp **** 
 414              		.loc 2 17 1
 415 0164 83308100 		ld	ra,8(sp)
 416              		.cfi_restore 1
 417 0168 03340100 		ld	s0,0(sp)
 418              		.cfi_restore 8
 419              		.cfi_def_cfa 2, 16
 420 016c 13010101 		addi	sp,sp,16
 421              		.cfi_def_cfa_offset 0
 422 0170 67800000 		jr	ra
 423              		.cfi_endproc
 424              	.LFE35:
 426              		.align	2
 427              		.globl	_ZdlPv
 429              	_ZdlPv:
 430              	.LFB36:
  21:src/syscall_cpp.cpp **** mem_free(ptr);
 431              		.loc 2 21 10 is_stmt 1
 432              		.cfi_startproc
 433              		.cfi_personality 0x9b,DW.ref.__gxx_personality_v0
 434              		.cfi_lsda 0x1b,.LLSDA36
 435              	.LVL31:
 436 0174 130101FF 		addi	sp,sp,-16
 437              		.cfi_def_cfa_offset 16
 438 0178 23341100 		sd	ra,8(sp)
 439 017c 23308100 		sd	s0,0(sp)
 440              		.cfi_offset 1, -8
 441              		.cfi_offset 8, -16
 442 0180 13040101 		addi	s0,sp,16
 443              		.cfi_def_cfa 8, 0
GAS LISTING /tmp/ccsGSfA2.s 			page 14


  22:src/syscall_cpp.cpp **** }
 444              		.loc 2 22 1
  22:src/syscall_cpp.cpp **** }
 445              		.loc 2 22 9 is_stmt 0
 446 0184 97000000 		call	_Z8mem_freePv@plt
 446      E7800000 
 447              	.LVL32:
  23:src/syscall_cpp.cpp **** 
 448              		.loc 2 23 1
 449 018c 83308100 		ld	ra,8(sp)
 450              		.cfi_restore 1
 451 0190 03340100 		ld	s0,0(sp)
 452              		.cfi_restore 8
 453              		.cfi_def_cfa 2, 16
 454 0194 13010101 		addi	sp,sp,16
 455              		.cfi_def_cfa_offset 0
 456 0198 67800000 		jr	ra
 457              		.cfi_endproc
 458              	.LFE36:
 459              		.section	.gcc_except_table
 460              	.LLSDA36:
 461 0008 FF       		.byte	0xff
 462 0009 FF       		.byte	0xff
 463 000a 03       		.byte	0x3
 464 000b 00       		.byte	0
 465              		.text
 467              		.align	2
 468              		.globl	_ZN6ThreadD0Ev
 470              	_ZN6ThreadD0Ev:
 471              	.LFB47:
  57:src/syscall_cpp.cpp **** 	//ne treba da se gasi running nit, vec nit na koju pokazuje rucka od this
 472              		.loc 2 57 1 is_stmt 1
 473              		.cfi_startproc
 474              	.LVL33:
 475 019c 130101FE 		addi	sp,sp,-32
 476              		.cfi_def_cfa_offset 32
 477 01a0 233C1100 		sd	ra,24(sp)
 478 01a4 23388100 		sd	s0,16(sp)
 479 01a8 23349100 		sd	s1,8(sp)
 480              		.cfi_offset 1, -8
 481              		.cfi_offset 8, -16
 482              		.cfi_offset 9, -24
 483 01ac 13040102 		addi	s0,sp,32
 484              		.cfi_def_cfa 8, 0
 485 01b0 93040500 		mv	s1,a0
  64:src/syscall_cpp.cpp **** 
 486              		.loc 2 64 1 is_stmt 0
 487 01b4 97000000 		call	_ZN6ThreadD1Ev
 487      E7800000 
 488              	.LVL34:
 489 01bc 13850400 		mv	a0,s1
 490 01c0 97000000 		call	_ZdlPv
 490      E7800000 
 491              	.LVL35:
 492 01c8 83308101 		ld	ra,24(sp)
 493              		.cfi_restore 1
 494 01cc 03340101 		ld	s0,16(sp)
GAS LISTING /tmp/ccsGSfA2.s 			page 15


 495              		.cfi_restore 8
 496              		.cfi_def_cfa 2, 32
 497 01d0 83348100 		ld	s1,8(sp)
 498              		.cfi_restore 9
 499              	.LVL36:
 500 01d4 13010102 		addi	sp,sp,32
 501              		.cfi_def_cfa_offset 0
 502 01d8 67800000 		jr	ra
 503              		.cfi_endproc
 504              	.LFE47:
 506              		.section	.text._ZN14PeriodicThreadD0Ev,"axG",@progbits,_ZN14PeriodicThreadD5Ev,comdat
 507              		.align	2
 508              		.weak	_ZN14PeriodicThreadD0Ev
 510              	_ZN14PeriodicThreadD0Ev:
 511              	.LFB78:
  73:src/../h/syscall_cpp.hpp **** public:
 512              		.loc 1 73 7 is_stmt 1
 513              		.cfi_startproc
 514              	.LVL37:
 515 0000 130101FE 		addi	sp,sp,-32
 516              		.cfi_def_cfa_offset 32
 517 0004 233C1100 		sd	ra,24(sp)
 518 0008 23388100 		sd	s0,16(sp)
 519 000c 23349100 		sd	s1,8(sp)
 520              		.cfi_offset 1, -8
 521              		.cfi_offset 8, -16
 522              		.cfi_offset 9, -24
 523 0010 13040102 		addi	s0,sp,32
 524              		.cfi_def_cfa 8, 0
 525 0014 93040500 		mv	s1,a0
 526              	.LVL38:
 527              	.LBB73:
 528              	.LBB74:
  73:src/../h/syscall_cpp.hpp **** public:
 529              		.loc 1 73 7 is_stmt 0
 530 0018 97070000 		lla	a5,_ZTV14PeriodicThread+16
 530      93870700 
 531 0020 2330F500 		sd	a5,0(a0)
 532 0024 97000000 		call	_ZN6ThreadD2Ev
 532      E7800000 
 533              	.LVL39:
 534              	.LBE74:
 535              	.LBE73:
 536 002c 13850400 		mv	a0,s1
 537 0030 97000000 		call	_ZdlPv
 537      E7800000 
 538              	.LVL40:
 539 0038 83308101 		ld	ra,24(sp)
 540              		.cfi_restore 1
 541 003c 03340101 		ld	s0,16(sp)
 542              		.cfi_restore 8
 543              		.cfi_def_cfa 2, 32
 544 0040 83348100 		ld	s1,8(sp)
 545              		.cfi_restore 9
 546              	.LVL41:
 547 0044 13010102 		addi	sp,sp,32
 548              		.cfi_def_cfa_offset 0
GAS LISTING /tmp/ccsGSfA2.s 			page 16


 549 0048 67800000 		jr	ra
 550              		.cfi_endproc
 551              	.LFE78:
 553              		.text
 554              		.align	2
 555              		.globl	_ZN9SemaphoreD0Ev
 557              	_ZN9SemaphoreD0Ev:
 558              	.LFB65:
 125:src/syscall_cpp.cpp **** 	sem_close(myHandle);
 559              		.loc 2 125 1 is_stmt 1
 560              		.cfi_startproc
 561              	.LVL42:
 562 01dc 130101FE 		addi	sp,sp,-32
 563              		.cfi_def_cfa_offset 32
 564 01e0 233C1100 		sd	ra,24(sp)
 565 01e4 23388100 		sd	s0,16(sp)
 566 01e8 23349100 		sd	s1,8(sp)
 567              		.cfi_offset 1, -8
 568              		.cfi_offset 8, -16
 569              		.cfi_offset 9, -24
 570 01ec 13040102 		addi	s0,sp,32
 571              		.cfi_def_cfa 8, 0
 572 01f0 93040500 		mv	s1,a0
 573              		.loc 2 128 1 is_stmt 0
 574 01f4 97000000 		call	_ZN9SemaphoreD1Ev
 574      E7800000 
 575              	.LVL43:
 576 01fc 13850400 		mv	a0,s1
 577 0200 97000000 		call	_ZdlPv
 577      E7800000 
 578              	.LVL44:
 579 0208 83308101 		ld	ra,24(sp)
 580              		.cfi_restore 1
 581 020c 03340101 		ld	s0,16(sp)
 582              		.cfi_restore 8
 583              		.cfi_def_cfa 2, 32
 584 0210 83348100 		ld	s1,8(sp)
 585              		.cfi_restore 9
 586              	.LVL45:
 587 0214 13010102 		addi	sp,sp,32
 588              		.cfi_def_cfa_offset 0
 589 0218 67800000 		jr	ra
 590              		.cfi_endproc
 591              	.LFE65:
 593              		.align	2
 594              		.globl	_ZdaPv
 596              	_ZdaPv:
 597              	.LFB37:
  27:src/syscall_cpp.cpp **** mem_free(ptr);
 598              		.loc 2 27 10 is_stmt 1
 599              		.cfi_startproc
 600              		.cfi_personality 0x9b,DW.ref.__gxx_personality_v0
 601              		.cfi_lsda 0x1b,.LLSDA37
 602              	.LVL46:
 603 021c 130101FF 		addi	sp,sp,-16
 604              		.cfi_def_cfa_offset 16
 605 0220 23341100 		sd	ra,8(sp)
GAS LISTING /tmp/ccsGSfA2.s 			page 17


 606 0224 23308100 		sd	s0,0(sp)
 607              		.cfi_offset 1, -8
 608              		.cfi_offset 8, -16
 609 0228 13040101 		addi	s0,sp,16
 610              		.cfi_def_cfa 8, 0
  28:src/syscall_cpp.cpp **** }
 611              		.loc 2 28 1
  28:src/syscall_cpp.cpp **** }
 612              		.loc 2 28 9 is_stmt 0
 613 022c 97000000 		call	_Z8mem_freePv@plt
 613      E7800000 
 614              	.LVL47:
  29:src/syscall_cpp.cpp **** 
 615              		.loc 2 29 1
 616 0234 83308100 		ld	ra,8(sp)
 617              		.cfi_restore 1
 618 0238 03340100 		ld	s0,0(sp)
 619              		.cfi_restore 8
 620              		.cfi_def_cfa 2, 16
 621 023c 13010101 		addi	sp,sp,16
 622              		.cfi_def_cfa_offset 0
 623 0240 67800000 		jr	ra
 624              		.cfi_endproc
 625              	.LFE37:
 626              		.section	.gcc_except_table
 627              	.LLSDA37:
 628 000c FF       		.byte	0xff
 629 000d FF       		.byte	0xff
 630 000e 03       		.byte	0x3
 631 000f 00       		.byte	0
 632              		.text
 634              		.align	2
 635              		.globl	_ZN6ThreadC2EPFvPvES0_
 637              	_ZN6ThreadC2EPFvPvES0_:
 638              	.LFB39:
  32:src/syscall_cpp.cpp **** 	this->body = body;
 639              		.loc 2 32 1 is_stmt 1
 640              		.cfi_startproc
 641              	.LVL48:
 642 0244 130101FD 		addi	sp,sp,-48
 643              		.cfi_def_cfa_offset 48
 644 0248 23341102 		sd	ra,40(sp)
 645 024c 23308102 		sd	s0,32(sp)
 646 0250 233C9100 		sd	s1,24(sp)
 647 0254 23382101 		sd	s2,16(sp)
 648 0258 23343101 		sd	s3,8(sp)
 649              		.cfi_offset 1, -8
 650              		.cfi_offset 8, -16
 651              		.cfi_offset 9, -24
 652              		.cfi_offset 18, -32
 653              		.cfi_offset 19, -40
 654 025c 13040103 		addi	s0,sp,48
 655              		.cfi_def_cfa 8, 0
 656 0260 93040500 		mv	s1,a0
 657 0264 13890500 		mv	s2,a1
 658 0268 93090600 		mv	s3,a2
 659              	.LBB75:
GAS LISTING /tmp/ccsGSfA2.s 			page 18


  32:src/syscall_cpp.cpp **** 	this->body = body;
 660              		.loc 2 32 47 is_stmt 0
 661 026c 97070000 		lla	a5,_ZTV6Thread+16
 661      93870700 
 662 0274 2330F500 		sd	a5,0(a0)
 663              	.LBB76:
  33:src/syscall_cpp.cpp **** 	this->arg = arg;
 664              		.loc 2 33 2 is_stmt 1
  33:src/syscall_cpp.cpp **** 	this->arg = arg;
 665              		.loc 2 33 13 is_stmt 0
 666 0278 2338B500 		sd	a1,16(a0)
  34:src/syscall_cpp.cpp **** 	//stvaranje steka ako se ne radi o main kernel niti, posto ona automatski ima stek
 667              		.loc 2 34 2 is_stmt 1
  34:src/syscall_cpp.cpp **** 	//stvaranje steka ako se ne radi o main kernel niti, posto ona automatski ima stek
 668              		.loc 2 34 12 is_stmt 0
 669 027c 233CC500 		sd	a2,24(a0)
  36:src/syscall_cpp.cpp **** 	if (body != nullptr) {
 670              		.loc 2 36 2 is_stmt 1
 671              	.LVL49:
  37:src/syscall_cpp.cpp **** 		stack = (uint64*)mem_alloc(DEFAULT_STACK_SIZE);
 672              		.loc 2 37 2
 673 0280 63860504 		beqz	a1,.L41
  38:src/syscall_cpp.cpp **** 	}
 674              		.loc 2 38 3
  38:src/syscall_cpp.cpp **** 	}
 675              		.loc 2 38 29 is_stmt 0
 676 0284 37150000 		li	a0,4096
 677              	.LVL50:
 678 0288 97000000 		call	_Z9mem_allocm@plt
 678      E7800000 
 679              	.LVL51:
 680 0290 13030500 		mv	t1,a0
 681              	.LVL52:
 682              	.L40:
  42:src/syscall_cpp.cpp **** 	__asm__ volatile("mv a3, %[arg]": :[arg] "r"(arg):"a5", "a0", "a1", "a2", "a3", "a4", "a6", "a7");
 683              		.loc 2 42 2 is_stmt 1
  42:src/syscall_cpp.cpp **** 	__asm__ volatile("mv a3, %[arg]": :[arg] "r"(arg):"a5", "a0", "a1", "a2", "a3", "a4", "a6", "a7");
 684              		.loc 2 42 99 is_stmt 0
 685              	#APP
 686              	# 42 "src/syscall_cpp.cpp" 1
  43:src/syscall_cpp.cpp **** 	__asm__ volatile("mv a2, %[function]": :[function] "r"(
 687              		mv a4, t1
 688              	# 0 "" 2
 689              		.loc 2 43 2 is_stmt 1
  43:src/syscall_cpp.cpp **** 	__asm__ volatile("mv a2, %[function]": :[function] "r"(
 690              		.loc 2 43 99 is_stmt 0
 691              	# 43 "src/syscall_cpp.cpp" 1
  44:src/syscall_cpp.cpp **** 			body):"a5", "a0", "a1", "a2", "a3", "a4", "a6", "a7");
 692              		mv a3, s3
 693              	# 0 "" 2
 694              		.loc 2 44 2 is_stmt 1
  45:src/syscall_cpp.cpp **** 	__asm__ volatile("mv a1, %[handle]": :[handle] "r"(&myHandle):"a5", "a0", "a1", "a2", "a3", "a4", 
 695              		.loc 2 45 57 is_stmt 0
 696              	# 45 "src/syscall_cpp.cpp" 1
  46:src/syscall_cpp.cpp **** 	__asm__ volatile("li a0, 0x80");
 697              		mv a2, s2
 698              	# 0 "" 2
GAS LISTING /tmp/ccsGSfA2.s 			page 19


 699              		.loc 2 46 2 is_stmt 1
  46:src/syscall_cpp.cpp **** 	__asm__ volatile("li a0, 0x80");
 700              		.loc 2 46 53 is_stmt 0
 701              	#NO_APP
 702 02a0 93848400 		addi	s1,s1,8
 703              	.LVL53:
  46:src/syscall_cpp.cpp **** 	__asm__ volatile("li a0, 0x80");
 704              		.loc 2 46 111
 705              	#APP
 706              	# 46 "src/syscall_cpp.cpp" 1
  47:src/syscall_cpp.cpp **** 	//a0 = 0x80
 707              		mv a1, s1
 708              	# 0 "" 2
 709              		.loc 2 47 2 is_stmt 1
  47:src/syscall_cpp.cpp **** 	//a0 = 0x80
 710              		.loc 2 47 33 is_stmt 0
 711              	# 47 "src/syscall_cpp.cpp" 1
  54:src/syscall_cpp.cpp **** }
 712              		li a0, 0x80
 713              	# 0 "" 2
 714              		.loc 2 54 2 is_stmt 1
  54:src/syscall_cpp.cpp **** }
 715              		.loc 2 54 27 is_stmt 0
 716              	# 54 "src/syscall_cpp.cpp" 1
 717              		ecall
 718              	# 0 "" 2
 719              	#NO_APP
 720              	.LBE76:
 721              	.LBE75:
  55:src/syscall_cpp.cpp **** 
 722              		.loc 2 55 1
 723 02b0 83308102 		ld	ra,40(sp)
 724              		.cfi_remember_state
 725              		.cfi_restore 1
 726 02b4 03340102 		ld	s0,32(sp)
 727              		.cfi_restore 8
 728              		.cfi_def_cfa 2, 48
 729 02b8 83348101 		ld	s1,24(sp)
 730              		.cfi_restore 9
 731              	.LVL54:
 732 02bc 03390101 		ld	s2,16(sp)
 733              		.cfi_restore 18
 734              	.LVL55:
 735 02c0 83398100 		ld	s3,8(sp)
 736              		.cfi_restore 19
 737              	.LVL56:
 738 02c4 13010103 		addi	sp,sp,48
 739              		.cfi_def_cfa_offset 0
 740 02c8 67800000 		jr	ra
 741              	.LVL57:
 742              	.L41:
 743              		.cfi_restore_state
 744              	.LBB78:
 745              	.LBB77:
  36:src/syscall_cpp.cpp **** 	if (body != nullptr) {
 746              		.loc 2 36 10
 747 02cc 13030000 		li	t1,0
GAS LISTING /tmp/ccsGSfA2.s 			page 20


 748 02d0 6FF05FFC 		j	.L40
 749              	.LBE77:
 750              	.LBE78:
 751              		.cfi_endproc
 752              	.LFE39:
 754              		.globl	_ZN6ThreadC1EPFvPvES0_
 755              		.set	_ZN6ThreadC1EPFvPvES0_,_ZN6ThreadC2EPFvPvES0_
 756              		.align	2
 757              		.globl	_ZN6Thread5startEv
 759              	_ZN6Thread5startEv:
 760              	.LFB48:
  66:src/syscall_cpp.cpp **** 	if (myHandle == nullptr) return -1;
 761              		.loc 2 66 21 is_stmt 1
 762              		.cfi_startproc
 763              	.LVL58:
 764 02d4 130101FF 		addi	sp,sp,-16
 765              		.cfi_def_cfa_offset 16
 766 02d8 23348100 		sd	s0,8(sp)
 767              		.cfi_offset 8, -8
 768 02dc 13040101 		addi	s0,sp,16
 769              		.cfi_def_cfa 8, 0
  67:src/syscall_cpp.cpp **** 	__asm__ volatile("mv a1, %[handle]": :[handle] "r"(myHandle):"a5", "a0", "a1", "a2", "a3", "a4", "
 770              		.loc 2 67 2
  67:src/syscall_cpp.cpp **** 	__asm__ volatile("mv a1, %[handle]": :[handle] "r"(myHandle):"a5", "a0", "a1", "a2", "a3", "a4", "
 771              		.loc 2 67 6 is_stmt 0
 772 02e0 03338500 		ld	t1,8(a0)
  67:src/syscall_cpp.cpp **** 	__asm__ volatile("mv a1, %[handle]": :[handle] "r"(myHandle):"a5", "a0", "a1", "a2", "a3", "a4", "
 773              		.loc 2 67 2
 774 02e4 63000302 		beqz	t1,.L45
  68:src/syscall_cpp.cpp **** 	__asm__ volatile("li a0, 0x81");
 775              		.loc 2 68 2 is_stmt 1
  68:src/syscall_cpp.cpp **** 	__asm__ volatile("li a0, 0x81");
 776              		.loc 2 68 110 is_stmt 0
 777              	#APP
 778              	# 68 "src/syscall_cpp.cpp" 1
 779              		mv a1, t1
 780              	# 0 "" 2
 781              	.LVL59:
  69:src/syscall_cpp.cpp **** 
 782              		.loc 2 69 2 is_stmt 1
  69:src/syscall_cpp.cpp **** 
 783              		.loc 2 69 33 is_stmt 0
 784              	# 69 "src/syscall_cpp.cpp" 1
  71:src/syscall_cpp.cpp **** 
 785              		li a0, 0x81
 786              	# 0 "" 2
 787              		.loc 2 71 2 is_stmt 1
  71:src/syscall_cpp.cpp **** 
 788              		.loc 2 71 27 is_stmt 0
 789              	# 71 "src/syscall_cpp.cpp" 1
  73:src/syscall_cpp.cpp **** }
 790              		ecall
 791              	# 0 "" 2
 792              		.loc 2 73 2 is_stmt 1
  73:src/syscall_cpp.cpp **** }
 793              		.loc 2 73 9 is_stmt 0
 794              	#NO_APP
GAS LISTING /tmp/ccsGSfA2.s 			page 21


 795 02f4 13050000 		li	a0,0
 796              	.L44:
  74:src/syscall_cpp.cpp **** 
 797              		.loc 2 74 1
 798 02f8 03348100 		ld	s0,8(sp)
 799              		.cfi_remember_state
 800              		.cfi_restore 8
 801              		.cfi_def_cfa 2, 16
 802 02fc 13010101 		addi	sp,sp,16
 803              		.cfi_def_cfa_offset 0
 804 0300 67800000 		jr	ra
 805              	.LVL60:
 806              	.L45:
 807              		.cfi_restore_state
  67:src/syscall_cpp.cpp **** 	__asm__ volatile("mv a1, %[handle]": :[handle] "r"(myHandle):"a5", "a0", "a1", "a2", "a3", "a4", "
 808              		.loc 2 67 35
 809 0304 1305F0FF 		li	a0,-1
 810              	.LVL61:
 811 0308 6FF01FFF 		j	.L44
 812              		.cfi_endproc
 813              	.LFE48:
 815              		.align	2
 816              		.globl	_ZN6Thread4joinEv
 818              	_ZN6Thread4joinEv:
 819              	.LFB49:
  76:src/syscall_cpp.cpp **** 	thread_join(myHandle);
 820              		.loc 2 76 21 is_stmt 1
 821              		.cfi_startproc
 822              	.LVL62:
 823 030c 130101FF 		addi	sp,sp,-16
 824              		.cfi_def_cfa_offset 16
 825 0310 23341100 		sd	ra,8(sp)
 826 0314 23308100 		sd	s0,0(sp)
 827              		.cfi_offset 1, -8
 828              		.cfi_offset 8, -16
 829 0318 13040101 		addi	s0,sp,16
 830              		.cfi_def_cfa 8, 0
  77:src/syscall_cpp.cpp **** }
 831              		.loc 2 77 2
  77:src/syscall_cpp.cpp **** }
 832              		.loc 2 77 13 is_stmt 0
 833 031c 03358500 		ld	a0,8(a0)
 834              	.LVL63:
 835 0320 97000000 		call	_Z11thread_joinP3TCB@plt
 835      E7800000 
 836              	.LVL64:
  78:src/syscall_cpp.cpp **** 
 837              		.loc 2 78 1
 838 0328 83308100 		ld	ra,8(sp)
 839              		.cfi_restore 1
 840 032c 03340100 		ld	s0,0(sp)
 841              		.cfi_restore 8
 842              		.cfi_def_cfa 2, 16
 843 0330 13010101 		addi	sp,sp,16
 844              		.cfi_def_cfa_offset 0
 845 0334 67800000 		jr	ra
 846              		.cfi_endproc
GAS LISTING /tmp/ccsGSfA2.s 			page 22


 847              	.LFE49:
 849              		.align	2
 850              		.globl	_ZN6Thread8dispatchEv
 852              	_ZN6Thread8dispatchEv:
 853              	.LFB50:
  80:src/syscall_cpp.cpp **** 	thread_dispatch();
 854              		.loc 2 80 25 is_stmt 1
 855              		.cfi_startproc
 856 0338 130101FF 		addi	sp,sp,-16
 857              		.cfi_def_cfa_offset 16
 858 033c 23341100 		sd	ra,8(sp)
 859 0340 23308100 		sd	s0,0(sp)
 860              		.cfi_offset 1, -8
 861              		.cfi_offset 8, -16
 862 0344 13040101 		addi	s0,sp,16
 863              		.cfi_def_cfa 8, 0
  81:src/syscall_cpp.cpp **** }
 864              		.loc 2 81 2
  81:src/syscall_cpp.cpp **** }
 865              		.loc 2 81 17 is_stmt 0
 866 0348 97000000 		call	_Z15thread_dispatchv@plt
 866      E7800000 
 867              	.LVL65:
  82:src/syscall_cpp.cpp **** 
 868              		.loc 2 82 1
 869 0350 83308100 		ld	ra,8(sp)
 870              		.cfi_restore 1
 871 0354 03340100 		ld	s0,0(sp)
 872              		.cfi_restore 8
 873              		.cfi_def_cfa 2, 16
 874 0358 13010101 		addi	sp,sp,16
 875              		.cfi_def_cfa_offset 0
 876 035c 67800000 		jr	ra
 877              		.cfi_endproc
 878              	.LFE50:
 880              		.align	2
 881              		.globl	_ZN6Thread5sleepEm
 883              	_ZN6Thread5sleepEm:
 884              	.LFB51:
  84:src/syscall_cpp.cpp **** 	//Scheduler::putToSleep(TCB::running, t);
 885              		.loc 2 84 29 is_stmt 1
 886              		.cfi_startproc
 887              	.LVL66:
 888 0360 130101FF 		addi	sp,sp,-16
 889              		.cfi_def_cfa_offset 16
 890 0364 23341100 		sd	ra,8(sp)
 891 0368 23308100 		sd	s0,0(sp)
 892              		.cfi_offset 1, -8
 893              		.cfi_offset 8, -16
 894 036c 13040101 		addi	s0,sp,16
 895              		.cfi_def_cfa 8, 0
  86:src/syscall_cpp.cpp **** 	return 0;
 896              		.loc 2 86 5
  86:src/syscall_cpp.cpp **** 	return 0;
 897              		.loc 2 86 15 is_stmt 0
 898 0370 97000000 		call	_Z10time_sleepm@plt
 898      E7800000 
GAS LISTING /tmp/ccsGSfA2.s 			page 23


 899              	.LVL67:
  87:src/syscall_cpp.cpp **** }
 900              		.loc 2 87 2 is_stmt 1
  88:src/syscall_cpp.cpp **** 
 901              		.loc 2 88 1 is_stmt 0
 902 0378 13050000 		li	a0,0
 903 037c 83308100 		ld	ra,8(sp)
 904              		.cfi_restore 1
 905 0380 03340100 		ld	s0,0(sp)
 906              		.cfi_restore 8
 907              		.cfi_def_cfa 2, 16
 908 0384 13010101 		addi	sp,sp,16
 909              		.cfi_def_cfa_offset 0
 910 0388 67800000 		jr	ra
 911              		.cfi_endproc
 912              	.LFE51:
 914              		.align	2
 915              		.globl	_ZN14PeriodicThread15periodicWrapperEPv
 917              	_ZN14PeriodicThread15periodicWrapperEPv:
 918              	.LFB72:
 129:src/syscall_cpp.cpp **** 
 130:src/syscall_cpp.cpp **** int Semaphore::wait() {
 131:src/syscall_cpp.cpp **** 	return sem_wait(myHandle);
 132:src/syscall_cpp.cpp **** }
 133:src/syscall_cpp.cpp **** 
 134:src/syscall_cpp.cpp **** int Semaphore::signal() {
 135:src/syscall_cpp.cpp **** 	return sem_signal(myHandle);
 136:src/syscall_cpp.cpp **** }
 137:src/syscall_cpp.cpp **** 
 138:src/syscall_cpp.cpp **** void PeriodicThread::terminate() {
 139:src/syscall_cpp.cpp **** }
 140:src/syscall_cpp.cpp **** 
 141:src/syscall_cpp.cpp **** PeriodicThread::PeriodicThread(time_t period) : Thread(periodicWrapper, this), period(period) {
 142:src/syscall_cpp.cpp **** }
 143:src/syscall_cpp.cpp **** 
 144:src/syscall_cpp.cpp **** void PeriodicThread::periodicWrapper(void* pThread) {
 919              		.loc 2 144 53 is_stmt 1
 920              		.cfi_startproc
 921              	.LVL68:
 922 038c 130101FE 		addi	sp,sp,-32
 923              		.cfi_def_cfa_offset 32
 924 0390 233C1100 		sd	ra,24(sp)
 925 0394 23388100 		sd	s0,16(sp)
 926 0398 23349100 		sd	s1,8(sp)
 927              		.cfi_offset 1, -8
 928              		.cfi_offset 8, -16
 929              		.cfi_offset 9, -24
 930 039c 13040102 		addi	s0,sp,32
 931              		.cfi_def_cfa 8, 0
 932 03a0 93040500 		mv	s1,a0
 145:src/syscall_cpp.cpp **** 	if (pThread != nullptr) {
 933              		.loc 2 145 2
 934              	.LBB79:
 935 03a4 63020502 		beqz	a0,.L53
 936              	.LVL69:
 937              	.L55:
 938              	.LBB80:
GAS LISTING /tmp/ccsGSfA2.s 			page 24


 146:src/syscall_cpp.cpp **** 		PeriodicThread* ptr = (PeriodicThread*)pThread;
 147:src/syscall_cpp.cpp **** 		while (1) {
 939              		.loc 2 147 3 discriminator 1
 148:src/syscall_cpp.cpp **** 			ptr->periodicActivation();
 940              		.loc 2 148 4 discriminator 1
 941              		.loc 2 148 28 is_stmt 0 discriminator 1
 942 03a8 83B70400 		ld	a5,0(s1)
 943 03ac 83B78701 		ld	a5,24(a5)
 944              		.loc 2 148 27 discriminator 1
 945 03b0 13850400 		mv	a0,s1
 946 03b4 E7800700 		jalr	a5
 947              	.LVL70:
 149:src/syscall_cpp.cpp **** 			Thread::sleep(ptr->period);
 948              		.loc 2 149 4 is_stmt 1 discriminator 1
 949              		.loc 2 149 17 is_stmt 0 discriminator 1
 950 03b8 03B50402 		ld	a0,32(s1)
 951 03bc 97000000 		call	_ZN6Thread5sleepEm
 951      E7800000 
 952              	.LVL71:
 147:src/syscall_cpp.cpp **** 			ptr->periodicActivation();
 953              		.loc 2 147 3 is_stmt 1 discriminator 1
 954 03c4 6FF05FFE 		j	.L55
 955              	.L53:
 956              	.LBE80:
 957              	.LBE79:
 150:src/syscall_cpp.cpp **** 		}
 151:src/syscall_cpp.cpp **** 	}
 152:src/syscall_cpp.cpp **** }
 958              		.loc 2 152 1 is_stmt 0
 959 03c8 83308101 		ld	ra,24(sp)
 960              		.cfi_restore 1
 961 03cc 03340101 		ld	s0,16(sp)
 962              		.cfi_restore 8
 963              		.cfi_def_cfa 2, 32
 964 03d0 83348100 		ld	s1,8(sp)
 965              		.cfi_restore 9
 966              	.LVL72:
 967 03d4 13010102 		addi	sp,sp,32
 968              		.cfi_def_cfa_offset 0
 969 03d8 67800000 		jr	ra
 970              		.cfi_endproc
 971              	.LFE72:
 973              		.align	2
 974              		.globl	_ZN6ThreadC2Ev
 976              	_ZN6ThreadC2Ev:
 977              	.LFB53:
  90:src/syscall_cpp.cpp **** 	this->body = wrapper;
 978              		.loc 2 90 1 is_stmt 1
 979              		.cfi_startproc
 980              	.LVL73:
 981 03dc 130101FE 		addi	sp,sp,-32
 982              		.cfi_def_cfa_offset 32
 983 03e0 233C1100 		sd	ra,24(sp)
 984 03e4 23388100 		sd	s0,16(sp)
 985 03e8 23349100 		sd	s1,8(sp)
 986              		.cfi_offset 1, -8
 987              		.cfi_offset 8, -16
GAS LISTING /tmp/ccsGSfA2.s 			page 25


 988              		.cfi_offset 9, -24
 989 03ec 13040102 		addi	s0,sp,32
 990              		.cfi_def_cfa 8, 0
 991 03f0 93040500 		mv	s1,a0
 992              	.LBB81:
  90:src/syscall_cpp.cpp **** 	this->body = wrapper;
 993              		.loc 2 90 16 is_stmt 0
 994 03f4 97070000 		lla	a5,_ZTV6Thread+16
 994      93870700 
 995 03fc 2330F500 		sd	a5,0(a0)
 996              	.LBB82:
  91:src/syscall_cpp.cpp **** 	this->arg = this;
 997              		.loc 2 91 2 is_stmt 1
  91:src/syscall_cpp.cpp **** 	this->arg = this;
 998              		.loc 2 91 13 is_stmt 0
 999 0400 97070000 		lla	a5,_ZN6Thread7wrapperEPv
 999      93870700 
 1000 0408 2338F500 		sd	a5,16(a0)
  92:src/syscall_cpp.cpp **** 	//stvaranje steka ako se ne radi o main kernel niti, posto ona automatski ima stek
 1001              		.loc 2 92 2 is_stmt 1
  92:src/syscall_cpp.cpp **** 	//stvaranje steka ako se ne radi o main kernel niti, posto ona automatski ima stek
 1002              		.loc 2 92 12 is_stmt 0
 1003 040c 233CA500 		sd	a0,24(a0)
  94:src/syscall_cpp.cpp **** 	if (body != nullptr) {
 1004              		.loc 2 94 2 is_stmt 1
 1005              	.LVL74:
  95:src/syscall_cpp.cpp **** 		stack = (uint64*)mem_alloc(DEFAULT_STACK_SIZE);
 1006              		.loc 2 95 2
  96:src/syscall_cpp.cpp **** 	}
 1007              		.loc 2 96 3
  96:src/syscall_cpp.cpp **** 	}
 1008              		.loc 2 96 29 is_stmt 0
 1009 0410 37150000 		li	a0,4096
 1010              	.LVL75:
 1011 0414 97000000 		call	_Z9mem_allocm@plt
 1011      E7800000 
 1012              	.LVL76:
 1013 041c 13030500 		mv	t1,a0
 1014              	.LVL77:
 100:src/syscall_cpp.cpp **** 	__asm__ volatile("mv a3, %[arg]": :[arg] "r"(arg):"a5", "a0", "a1", "a2", "a3", "a4", "a6", "a7");
 1015              		.loc 2 100 2 is_stmt 1
 100:src/syscall_cpp.cpp **** 	__asm__ volatile("mv a3, %[arg]": :[arg] "r"(arg):"a5", "a0", "a1", "a2", "a3", "a4", "a6", "a7");
 1016              		.loc 2 100 99 is_stmt 0
 1017              	#APP
 1018              	# 100 "src/syscall_cpp.cpp" 1
 101:src/syscall_cpp.cpp **** 	__asm__ volatile("mv a2, %[function]": :[function] "r"(
 1019              		mv a4, t1
 1020              	# 0 "" 2
 1021              		.loc 2 101 2 is_stmt 1
 101:src/syscall_cpp.cpp **** 	__asm__ volatile("mv a2, %[function]": :[function] "r"(
 1022              		.loc 2 101 47 is_stmt 0
 1023              	#NO_APP
 1024 0424 03B38401 		ld	t1,24(s1)
 1025              	.LVL78:
 101:src/syscall_cpp.cpp **** 	__asm__ volatile("mv a2, %[function]": :[function] "r"(
 1026              		.loc 2 101 99
 1027              	#APP
GAS LISTING /tmp/ccsGSfA2.s 			page 26


 1028              	# 101 "src/syscall_cpp.cpp" 1
 102:src/syscall_cpp.cpp **** 			body):"a5", "a0", "a1", "a2", "a3", "a4", "a6", "a7");
 1029              		mv a3, t1
 1030              	# 0 "" 2
 1031              		.loc 2 102 2 is_stmt 1
 103:src/syscall_cpp.cpp **** 	__asm__ volatile("mv a1, %[handle]": :[handle] "r"(&myHandle):"a5", "a0", "a1", "a2", "a3", "a4", 
 1032              		.loc 2 103 4 is_stmt 0
 1033              	#NO_APP
 1034 042c 03B30401 		ld	t1,16(s1)
 103:src/syscall_cpp.cpp **** 	__asm__ volatile("mv a1, %[handle]": :[handle] "r"(&myHandle):"a5", "a0", "a1", "a2", "a3", "a4", 
 1035              		.loc 2 103 57
 1036              	#APP
 1037              	# 103 "src/syscall_cpp.cpp" 1
 104:src/syscall_cpp.cpp **** 	__asm__ volatile("li a0, 0x80");
 1038              		mv a2, t1
 1039              	# 0 "" 2
 1040              		.loc 2 104 2 is_stmt 1
 104:src/syscall_cpp.cpp **** 	__asm__ volatile("li a0, 0x80");
 1041              		.loc 2 104 53 is_stmt 0
 1042              	#NO_APP
 1043 0434 93848400 		addi	s1,s1,8
 1044              	.LVL79:
 104:src/syscall_cpp.cpp **** 	__asm__ volatile("li a0, 0x80");
 1045              		.loc 2 104 111
 1046              	#APP
 1047              	# 104 "src/syscall_cpp.cpp" 1
 105:src/syscall_cpp.cpp **** 	//a0 = 0x80
 1048              		mv a1, s1
 1049              	# 0 "" 2
 1050              		.loc 2 105 2 is_stmt 1
 105:src/syscall_cpp.cpp **** 	//a0 = 0x80
 1051              		.loc 2 105 33 is_stmt 0
 1052              	# 105 "src/syscall_cpp.cpp" 1
 112:src/syscall_cpp.cpp **** }
 1053              		li a0, 0x80
 1054              	# 0 "" 2
 1055              		.loc 2 112 2 is_stmt 1
 112:src/syscall_cpp.cpp **** }
 1056              		.loc 2 112 27 is_stmt 0
 1057              	# 112 "src/syscall_cpp.cpp" 1
 1058              		ecall
 1059              	# 0 "" 2
 1060              	#NO_APP
 1061              	.LBE82:
 1062              	.LBE81:
 113:src/syscall_cpp.cpp **** 
 1063              		.loc 2 113 1
 1064 0444 83308101 		ld	ra,24(sp)
 1065              		.cfi_restore 1
 1066 0448 03340101 		ld	s0,16(sp)
 1067              		.cfi_restore 8
 1068              		.cfi_def_cfa 2, 32
 1069 044c 83348100 		ld	s1,8(sp)
 1070              		.cfi_restore 9
 1071              	.LVL80:
 1072 0450 13010102 		addi	sp,sp,32
 1073              		.cfi_def_cfa_offset 0
GAS LISTING /tmp/ccsGSfA2.s 			page 27


 1074 0454 67800000 		jr	ra
 1075              		.cfi_endproc
 1076              	.LFE53:
 1078              		.globl	_ZN6ThreadC1Ev
 1079              		.set	_ZN6ThreadC1Ev,_ZN6ThreadC2Ev
 1080              		.align	2
 1081              		.globl	_ZN9SemaphoreC2Ej
 1083              	_ZN9SemaphoreC2Ej:
 1084              	.LFB57:
 121:src/syscall_cpp.cpp **** 	sem_open(&myHandle, init);
 1085              		.loc 2 121 1 is_stmt 1
 1086              		.cfi_startproc
 1087              	.LVL81:
 1088 0458 130101FF 		addi	sp,sp,-16
 1089              		.cfi_def_cfa_offset 16
 1090 045c 23341100 		sd	ra,8(sp)
 1091 0460 23308100 		sd	s0,0(sp)
 1092              		.cfi_offset 1, -8
 1093              		.cfi_offset 8, -16
 1094 0464 13040101 		addi	s0,sp,16
 1095              		.cfi_def_cfa 8, 0
 1096              	.LBB83:
 121:src/syscall_cpp.cpp **** 	sem_open(&myHandle, init);
 1097              		.loc 2 121 39 is_stmt 0
 1098 0468 97070000 		lla	a5,_ZTV9Semaphore+16
 1098      93870700 
 1099 0470 2330F500 		sd	a5,0(a0)
 122:src/syscall_cpp.cpp **** }
 1100              		.loc 2 122 2 is_stmt 1
 122:src/syscall_cpp.cpp **** }
 1101              		.loc 2 122 10 is_stmt 0
 1102 0474 13058500 		addi	a0,a0,8
 1103              	.LVL82:
 1104 0478 97000000 		call	_Z8sem_openPP4KSemj@plt
 1104      E7800000 
 1105              	.LVL83:
 1106              	.LBE83:
 123:src/syscall_cpp.cpp **** 
 1107              		.loc 2 123 1
 1108 0480 83308100 		ld	ra,8(sp)
 1109              		.cfi_restore 1
 1110 0484 03340100 		ld	s0,0(sp)
 1111              		.cfi_restore 8
 1112              		.cfi_def_cfa 2, 16
 1113 0488 13010101 		addi	sp,sp,16
 1114              		.cfi_def_cfa_offset 0
 1115 048c 67800000 		jr	ra
 1116              		.cfi_endproc
 1117              	.LFE57:
 1119              		.globl	_ZN9SemaphoreC1Ej
 1120              		.set	_ZN9SemaphoreC1Ej,_ZN9SemaphoreC2Ej
 1121              		.align	2
 1122              		.globl	_ZN9Semaphore4waitEv
 1124              	_ZN9Semaphore4waitEv:
 1125              	.LFB66:
 130:src/syscall_cpp.cpp **** 	return sem_wait(myHandle);
 1126              		.loc 2 130 23 is_stmt 1
GAS LISTING /tmp/ccsGSfA2.s 			page 28


 1127              		.cfi_startproc
 1128              	.LVL84:
 1129 0490 130101FF 		addi	sp,sp,-16
 1130              		.cfi_def_cfa_offset 16
 1131 0494 23341100 		sd	ra,8(sp)
 1132 0498 23308100 		sd	s0,0(sp)
 1133              		.cfi_offset 1, -8
 1134              		.cfi_offset 8, -16
 1135 049c 13040101 		addi	s0,sp,16
 1136              		.cfi_def_cfa 8, 0
 131:src/syscall_cpp.cpp **** }
 1137              		.loc 2 131 2
 131:src/syscall_cpp.cpp **** }
 1138              		.loc 2 131 17 is_stmt 0
 1139 04a0 03358500 		ld	a0,8(a0)
 1140              	.LVL85:
 1141 04a4 97000000 		call	_Z8sem_waitP4KSem@plt
 1141      E7800000 
 1142              	.LVL86:
 132:src/syscall_cpp.cpp **** 
 1143              		.loc 2 132 1
 1144 04ac 83308100 		ld	ra,8(sp)
 1145              		.cfi_restore 1
 1146 04b0 03340100 		ld	s0,0(sp)
 1147              		.cfi_restore 8
 1148              		.cfi_def_cfa 2, 16
 1149 04b4 13010101 		addi	sp,sp,16
 1150              		.cfi_def_cfa_offset 0
 1151 04b8 67800000 		jr	ra
 1152              		.cfi_endproc
 1153              	.LFE66:
 1155              		.align	2
 1156              		.globl	_ZN9Semaphore6signalEv
 1158              	_ZN9Semaphore6signalEv:
 1159              	.LFB67:
 134:src/syscall_cpp.cpp **** 	return sem_signal(myHandle);
 1160              		.loc 2 134 25 is_stmt 1
 1161              		.cfi_startproc
 1162              	.LVL87:
 1163 04bc 130101FF 		addi	sp,sp,-16
 1164              		.cfi_def_cfa_offset 16
 1165 04c0 23341100 		sd	ra,8(sp)
 1166 04c4 23308100 		sd	s0,0(sp)
 1167              		.cfi_offset 1, -8
 1168              		.cfi_offset 8, -16
 1169 04c8 13040101 		addi	s0,sp,16
 1170              		.cfi_def_cfa 8, 0
 135:src/syscall_cpp.cpp **** }
 1171              		.loc 2 135 2
 135:src/syscall_cpp.cpp **** }
 1172              		.loc 2 135 19 is_stmt 0
 1173 04cc 03358500 		ld	a0,8(a0)
 1174              	.LVL88:
 1175 04d0 97000000 		call	_Z10sem_signalP4KSem@plt
 1175      E7800000 
 1176              	.LVL89:
 136:src/syscall_cpp.cpp **** 
GAS LISTING /tmp/ccsGSfA2.s 			page 29


 1177              		.loc 2 136 1
 1178 04d8 83308100 		ld	ra,8(sp)
 1179              		.cfi_restore 1
 1180 04dc 03340100 		ld	s0,0(sp)
 1181              		.cfi_restore 8
 1182              		.cfi_def_cfa 2, 16
 1183 04e0 13010101 		addi	sp,sp,16
 1184              		.cfi_def_cfa_offset 0
 1185 04e4 67800000 		jr	ra
 1186              		.cfi_endproc
 1187              	.LFE67:
 1189              		.align	2
 1190              		.globl	_ZN14PeriodicThread9terminateEv
 1192              	_ZN14PeriodicThread9terminateEv:
 1193              	.LFB68:
 138:src/syscall_cpp.cpp **** }
 1194              		.loc 2 138 34 is_stmt 1
 1195              		.cfi_startproc
 1196              	.LVL90:
 1197 04e8 130101FF 		addi	sp,sp,-16
 1198              		.cfi_def_cfa_offset 16
 1199 04ec 23348100 		sd	s0,8(sp)
 1200              		.cfi_offset 8, -8
 1201 04f0 13040101 		addi	s0,sp,16
 1202              		.cfi_def_cfa 8, 0
 139:src/syscall_cpp.cpp **** 
 1203              		.loc 2 139 1 is_stmt 0
 1204 04f4 03348100 		ld	s0,8(sp)
 1205              		.cfi_restore 8
 1206              		.cfi_def_cfa 2, 16
 1207 04f8 13010101 		addi	sp,sp,16
 1208              		.cfi_def_cfa_offset 0
 1209 04fc 67800000 		jr	ra
 1210              		.cfi_endproc
 1211              	.LFE68:
 1213              		.align	2
 1214              		.globl	_ZN14PeriodicThreadC2Em
 1216              	_ZN14PeriodicThreadC2Em:
 1217              	.LFB70:
 141:src/syscall_cpp.cpp **** }
 1218              		.loc 2 141 1 is_stmt 1
 1219              		.cfi_startproc
 1220              	.LVL91:
 1221 0500 130101FE 		addi	sp,sp,-32
 1222              		.cfi_def_cfa_offset 32
 1223 0504 233C1100 		sd	ra,24(sp)
 1224 0508 23388100 		sd	s0,16(sp)
 1225 050c 23349100 		sd	s1,8(sp)
 1226 0510 23302101 		sd	s2,0(sp)
 1227              		.cfi_offset 1, -8
 1228              		.cfi_offset 8, -16
 1229              		.cfi_offset 9, -24
 1230              		.cfi_offset 18, -32
 1231 0514 13040102 		addi	s0,sp,32
 1232              		.cfi_def_cfa 8, 0
 1233 0518 93040500 		mv	s1,a0
 1234 051c 13890500 		mv	s2,a1
GAS LISTING /tmp/ccsGSfA2.s 			page 30


 1235              	.LBB84:
 141:src/syscall_cpp.cpp **** }
 1236              		.loc 2 141 93 is_stmt 0
 1237 0520 13060500 		mv	a2,a0
 1238 0524 97050000 		lla	a1,_ZN14PeriodicThread15periodicWrapperEPv
 1238      93850500 
 1239              	.LVL92:
 1240 052c 97000000 		call	_ZN6ThreadC2EPFvPvES0_
 1240      E7800000 
 1241              	.LVL93:
 1242 0534 97070000 		lla	a5,_ZTV14PeriodicThread+16
 1242      93870700 
 1243 053c 23B0F400 		sd	a5,0(s1)
 1244 0540 23B02403 		sd	s2,32(s1)
 1245              	.LBE84:
 142:src/syscall_cpp.cpp **** 
 1246              		.loc 2 142 1
 1247 0544 83308101 		ld	ra,24(sp)
 1248              		.cfi_restore 1
 1249 0548 03340101 		ld	s0,16(sp)
 1250              		.cfi_restore 8
 1251              		.cfi_def_cfa 2, 32
 1252 054c 83348100 		ld	s1,8(sp)
 1253              		.cfi_restore 9
 1254              	.LVL94:
 1255 0550 03390100 		ld	s2,0(sp)
 1256              		.cfi_restore 18
 1257              	.LVL95:
 1258 0554 13010102 		addi	sp,sp,32
 1259              		.cfi_def_cfa_offset 0
 1260 0558 67800000 		jr	ra
 1261              		.cfi_endproc
 1262              	.LFE70:
 1264              		.globl	_ZN14PeriodicThreadC1Em
 1265              		.set	_ZN14PeriodicThreadC1Em,_ZN14PeriodicThreadC2Em
 1266              		.align	2
 1267              		.globl	_ZN7Console4getcEv
 1269              	_ZN7Console4getcEv:
 1270              	.LFB73:
 153:src/syscall_cpp.cpp **** 
 154:src/syscall_cpp.cpp **** char Console::getc() {
 1271              		.loc 2 154 22 is_stmt 1
 1272              		.cfi_startproc
 1273 055c 130101FF 		addi	sp,sp,-16
 1274              		.cfi_def_cfa_offset 16
 1275 0560 23341100 		sd	ra,8(sp)
 1276 0564 23308100 		sd	s0,0(sp)
 1277              		.cfi_offset 1, -8
 1278              		.cfi_offset 8, -16
 1279 0568 13040101 		addi	s0,sp,16
 1280              		.cfi_def_cfa 8, 0
 155:src/syscall_cpp.cpp **** 	return ::getc();
 1281              		.loc 2 155 2
 1282              		.loc 2 155 15 is_stmt 0
 1283 056c 97000000 		call	_Z4getcv@plt
 1283      E7800000 
 1284              	.LVL96:
GAS LISTING /tmp/ccsGSfA2.s 			page 31


 156:src/syscall_cpp.cpp **** }
 1285              		.loc 2 156 1
 1286 0574 83308100 		ld	ra,8(sp)
 1287              		.cfi_restore 1
 1288 0578 03340100 		ld	s0,0(sp)
 1289              		.cfi_restore 8
 1290              		.cfi_def_cfa 2, 16
 1291 057c 13010101 		addi	sp,sp,16
 1292              		.cfi_def_cfa_offset 0
 1293 0580 67800000 		jr	ra
 1294              		.cfi_endproc
 1295              	.LFE73:
 1297              		.align	2
 1298              		.globl	_ZN7Console4putcEc
 1300              	_ZN7Console4putcEc:
 1301              	.LFB74:
 157:src/syscall_cpp.cpp **** 
 158:src/syscall_cpp.cpp **** void Console::putc(char c) {
 1302              		.loc 2 158 28 is_stmt 1
 1303              		.cfi_startproc
 1304              	.LVL97:
 1305 0584 130101FF 		addi	sp,sp,-16
 1306              		.cfi_def_cfa_offset 16
 1307 0588 23341100 		sd	ra,8(sp)
 1308 058c 23308100 		sd	s0,0(sp)
 1309              		.cfi_offset 1, -8
 1310              		.cfi_offset 8, -16
 1311 0590 13040101 		addi	s0,sp,16
 1312              		.cfi_def_cfa 8, 0
 159:src/syscall_cpp.cpp **** 	::putc(c);
 1313              		.loc 2 159 2
 1314              		.loc 2 159 8 is_stmt 0
 1315 0594 97000000 		call	_Z4putcc@plt
 1315      E7800000 
 1316              	.LVL98:
 160:src/syscall_cpp.cpp **** }
 1317              		.loc 2 160 1
 1318 059c 83308100 		ld	ra,8(sp)
 1319              		.cfi_restore 1
 1320 05a0 03340100 		ld	s0,0(sp)
 1321              		.cfi_restore 8
 1322              		.cfi_def_cfa 2, 16
 1323 05a4 13010101 		addi	sp,sp,16
 1324              		.cfi_def_cfa_offset 0
 1325 05a8 67800000 		jr	ra
 1326              		.cfi_endproc
 1327              	.LFE74:
 1329              		.weak	_ZTV14PeriodicThread
 1330              		.section	.data.rel.ro.local._ZTV14PeriodicThread,"awG",@progbits,_ZTV14PeriodicThread,comdat
 1331              		.align	3
 1334              	_ZTV14PeriodicThread:
 1335 0000 00000000 		.dword	0
 1335      00000000 
 1336 0008 00000000 		.dword	0
 1336      00000000 
 1337 0010 00000000 		.dword	_ZN14PeriodicThreadD1Ev
 1337      00000000 
GAS LISTING /tmp/ccsGSfA2.s 			page 32


 1338 0018 00000000 		.dword	_ZN14PeriodicThreadD0Ev
 1338      00000000 
 1339 0020 00000000 		.dword	_ZN6Thread3runEv
 1339      00000000 
 1340 0028 00000000 		.dword	_ZN14PeriodicThread18periodicActivationEv
 1340      00000000 
 1341              		.weak	_ZTV6Thread
 1342              		.section	.data.rel.ro.local._ZTV6Thread,"awG",@progbits,_ZTV6Thread,comdat
 1343              		.align	3
 1346              	_ZTV6Thread:
 1347 0000 00000000 		.dword	0
 1347      00000000 
 1348 0008 00000000 		.dword	0
 1348      00000000 
 1349 0010 00000000 		.dword	_ZN6ThreadD1Ev
 1349      00000000 
 1350 0018 00000000 		.dword	_ZN6ThreadD0Ev
 1350      00000000 
 1351 0020 00000000 		.dword	_ZN6Thread3runEv
 1351      00000000 
 1352              		.weak	_ZTV9Semaphore
 1353              		.section	.data.rel.ro.local._ZTV9Semaphore,"awG",@progbits,_ZTV9Semaphore,comdat
 1354              		.align	3
 1357              	_ZTV9Semaphore:
 1358 0000 00000000 		.dword	0
 1358      00000000 
 1359 0008 00000000 		.dword	0
 1359      00000000 
 1360 0010 00000000 		.dword	_ZN9SemaphoreD1Ev
 1360      00000000 
 1361 0018 00000000 		.dword	_ZN9SemaphoreD0Ev
 1361      00000000 
 1362              		.text
 1363              	.Letext0:
 1364              		.file 4 "src/../h/../lib/hw.h"
 1365              		.file 5 "src/../h/TCB.hpp"
 1366              		.file 6 "src/../h/KSem.hpp"
 1367              		.file 7 "src/../h/syscall_c.hpp"
 6286              		.align	3
 6289              	DW.ref.__gxx_personality_v0:
 6290 0000 00000000 		.dword	__gxx_personality_v0
 6290      00000000 
 6291              		.ident	"GCC: (Ubuntu 9.4.0-1ubuntu1~20.04) 9.4.0"
 6292              		.section	.note.GNU-stack,"",@progbits
GAS LISTING /tmp/ccsGSfA2.s 			page 33


DEFINED SYMBOLS
                            *ABS*:0000000000000000 syscall_cpp.cpp
     /tmp/ccsGSfA2.s:10     .text._ZN6Thread3runEv:0000000000000000 _ZN6Thread3runEv
     /tmp/ccsGSfA2.s:14     .text._ZN6Thread3runEv:0000000000000000 .L0 
     /tmp/ccsGSfA2.s:16     .text._ZN6Thread3runEv:0000000000000000 .L0 
     /tmp/ccsGSfA2.s:17     .text._ZN6Thread3runEv:0000000000000004 .L0 
     /tmp/ccsGSfA2.s:19     .text._ZN6Thread3runEv:0000000000000008 .L0 
     /tmp/ccsGSfA2.s:21     .text._ZN6Thread3runEv:000000000000000c .L0 
     /tmp/ccsGSfA2.s:23     .text._ZN6Thread3runEv:000000000000000c .L0 
     /tmp/ccsGSfA2.s:24     .text._ZN6Thread3runEv:0000000000000010 .L0 
     /tmp/ccsGSfA2.s:25     .text._ZN6Thread3runEv:0000000000000010 .L0 
     /tmp/ccsGSfA2.s:27     .text._ZN6Thread3runEv:0000000000000014 .L0 
     /tmp/ccsGSfA2.s:29     .text._ZN6Thread3runEv:0000000000000018 .L0 
     /tmp/ccsGSfA2.s:36     .text._ZN14PeriodicThread18periodicActivationEv:0000000000000000 _ZN14PeriodicThread18periodicActivationEv
     /tmp/ccsGSfA2.s:39     .text._ZN14PeriodicThread18periodicActivationEv:0000000000000000 .L0 
     /tmp/ccsGSfA2.s:41     .text._ZN14PeriodicThread18periodicActivationEv:0000000000000000 .L0 
     /tmp/ccsGSfA2.s:42     .text._ZN14PeriodicThread18periodicActivationEv:0000000000000004 .L0 
     /tmp/ccsGSfA2.s:44     .text._ZN14PeriodicThread18periodicActivationEv:0000000000000008 .L0 
     /tmp/ccsGSfA2.s:46     .text._ZN14PeriodicThread18periodicActivationEv:000000000000000c .L0 
     /tmp/ccsGSfA2.s:48     .text._ZN14PeriodicThread18periodicActivationEv:000000000000000c .L0 
     /tmp/ccsGSfA2.s:49     .text._ZN14PeriodicThread18periodicActivationEv:0000000000000010 .L0 
     /tmp/ccsGSfA2.s:50     .text._ZN14PeriodicThread18periodicActivationEv:0000000000000010 .L0 
     /tmp/ccsGSfA2.s:52     .text._ZN14PeriodicThread18periodicActivationEv:0000000000000014 .L0 
     /tmp/ccsGSfA2.s:54     .text._ZN14PeriodicThread18periodicActivationEv:0000000000000018 .L0 
     /tmp/ccsGSfA2.s:61     .text:0000000000000000 _ZN6Thread7wrapperEPv
     /tmp/ccsGSfA2.s:65     .text:0000000000000000 .L0 
     /tmp/ccsGSfA2.s:67     .text:0000000000000000 .L0 
     /tmp/ccsGSfA2.s:68     .text:0000000000000000 .L0 
     /tmp/ccsGSfA2.s:70     .text:0000000000000004 .L0 
     /tmp/ccsGSfA2.s:71     .text:0000000000000008 .L0 
     /tmp/ccsGSfA2.s:74     .text:0000000000000010 .L0 
     /tmp/ccsGSfA2.s:75     .text:0000000000000010 .L0 
     /tmp/ccsGSfA2.s:77     .text:0000000000000014 .L0 
     /tmp/ccsGSfA2.s:79     .text:0000000000000014 .L0 
     /tmp/ccsGSfA2.s:80     .text:0000000000000014 .L0 
     /tmp/ccsGSfA2.s:83     .text:000000000000001c .L0 
     /tmp/ccsGSfA2.s:86     .text:0000000000000020 .L0 
     /tmp/ccsGSfA2.s:87     .text:0000000000000024 .L0 
     /tmp/ccsGSfA2.s:89     .text:0000000000000028 .L0 
     /tmp/ccsGSfA2.s:90     .text:0000000000000028 .L0 
     /tmp/ccsGSfA2.s:92     .text:000000000000002c .L0 
     /tmp/ccsGSfA2.s:97     .text:0000000000000034 .L0 
     /tmp/ccsGSfA2.s:103    .text:0000000000000034 _ZN6ThreadD2Ev
     /tmp/ccsGSfA2.s:106    .text:0000000000000034 .L0 
     /tmp/ccsGSfA2.s:6289   .data.rel.local.DW.ref.__gxx_personality_v0:0000000000000000 DW.ref.__gxx_personality_v0
     /tmp/ccsGSfA2.s:110    .text:0000000000000034 .L0 
     /tmp/ccsGSfA2.s:111    .text:0000000000000038 .L0 
     /tmp/ccsGSfA2.s:115    .text:0000000000000044 .L0 
     /tmp/ccsGSfA2.s:116    .text:0000000000000044 .L0 
     /tmp/ccsGSfA2.s:117    .text:0000000000000044 .L0 
     /tmp/ccsGSfA2.s:119    .text:0000000000000048 .L0 
     /tmp/ccsGSfA2.s:1346   .data.rel.ro.local._ZTV6Thread:0000000000000000 _ZTV6Thread
     /tmp/ccsGSfA2.s:123    .text:000000000000004c .L0 
     /tmp/ccsGSfA2.s:126    .text:0000000000000058 .L0 
     /tmp/ccsGSfA2.s:127    .text:0000000000000058 .L0 
     /tmp/ccsGSfA2.s:132    .text:0000000000000064 .L0 
     /tmp/ccsGSfA2.s:133    .text:0000000000000064 .L0 
GAS LISTING /tmp/ccsGSfA2.s 			page 34


     /tmp/ccsGSfA2.s:136    .text:0000000000000068 .L0 
     /tmp/ccsGSfA2.s:143    .text:000000000000006c .L0 
     /tmp/ccsGSfA2.s:147    .text:000000000000006c .L0 
     /tmp/ccsGSfA2.s:148    .text:000000000000006c .L0 
     /tmp/ccsGSfA2.s:149    .text:000000000000006c .L0 
     /tmp/ccsGSfA2.s:154    .text:0000000000000070 .L0 
     /tmp/ccsGSfA2.s:155    .text:0000000000000070 .L0 
     /tmp/ccsGSfA2.s:159    .text:0000000000000074 .L0 
     /tmp/ccsGSfA2.s:160    .text:0000000000000074 .L0 
     /tmp/ccsGSfA2.s:161    .text:0000000000000074 .L0 
     /tmp/ccsGSfA2.s:163    .text:0000000000000078 .L0 
     /tmp/ccsGSfA2.s:165    .text:000000000000007c .L0 
     /tmp/ccsGSfA2.s:166    .text:000000000000007c .L0 
     /tmp/ccsGSfA2.s:171    .text:0000000000000080 .L0 
     /tmp/ccsGSfA2.s:172    .text:0000000000000080 .L0 
     /tmp/ccsGSfA2.s:175    .text:0000000000000088 .L0 
     /tmp/ccsGSfA2.s:184    .text:000000000000008c .L0 
     /tmp/ccsGSfA2.s:190    .text:0000000000000098 .L0 
     /tmp/ccsGSfA2.s:191    .text:000000000000009c .L0 
     /tmp/ccsGSfA2.s:193    .text:00000000000000a0 .L0 
     /tmp/ccsGSfA2.s:194    .text:00000000000000a0 .L0 
     /tmp/ccsGSfA2.s:196    .text:00000000000000a4 .L0 
     /tmp/ccsGSfA2.s:198    .text:00000000000000a8 .L0 
     /tmp/ccsGSfA2.s:200    .text:00000000000000ac .L0 
     /tmp/ccsGSfA2.s:103    .text:0000000000000034 _ZN6ThreadD1Ev
     /tmp/ccsGSfA2.s:217    .text._ZN14PeriodicThreadD2Ev:0000000000000000 _ZN14PeriodicThreadD2Ev
     /tmp/ccsGSfA2.s:220    .text._ZN14PeriodicThreadD2Ev:0000000000000000 .L0 
     /tmp/ccsGSfA2.s:222    .text._ZN14PeriodicThreadD2Ev:0000000000000000 .L0 
     /tmp/ccsGSfA2.s:223    .text._ZN14PeriodicThreadD2Ev:0000000000000004 .L0 
     /tmp/ccsGSfA2.s:226    .text._ZN14PeriodicThreadD2Ev:000000000000000c .L0 
     /tmp/ccsGSfA2.s:227    .text._ZN14PeriodicThreadD2Ev:000000000000000c .L0 
     /tmp/ccsGSfA2.s:229    .text._ZN14PeriodicThreadD2Ev:0000000000000010 .L0 
     /tmp/ccsGSfA2.s:1334   .data.rel.ro.local._ZTV14PeriodicThread:0000000000000000 _ZTV14PeriodicThread
     /tmp/ccsGSfA2.s:232    .text._ZN14PeriodicThreadD2Ev:0000000000000010 .L0 
     /tmp/ccsGSfA2.s:238    .text._ZN14PeriodicThreadD2Ev:0000000000000028 .L0 
     /tmp/ccsGSfA2.s:240    .text._ZN14PeriodicThreadD2Ev:000000000000002c .L0 
     /tmp/ccsGSfA2.s:241    .text._ZN14PeriodicThreadD2Ev:000000000000002c .L0 
     /tmp/ccsGSfA2.s:243    .text._ZN14PeriodicThreadD2Ev:0000000000000030 .L0 
     /tmp/ccsGSfA2.s:245    .text._ZN14PeriodicThreadD2Ev:0000000000000034 .L0 
     /tmp/ccsGSfA2.s:217    .text._ZN14PeriodicThreadD2Ev:0000000000000000 _ZN14PeriodicThreadD1Ev
     /tmp/ccsGSfA2.s:254    .text:00000000000000ac _ZN9SemaphoreD2Ev
     /tmp/ccsGSfA2.s:257    .text:00000000000000ac .L0 
     /tmp/ccsGSfA2.s:261    .text:00000000000000ac .L0 
     /tmp/ccsGSfA2.s:262    .text:00000000000000b0 .L0 
     /tmp/ccsGSfA2.s:266    .text:00000000000000bc .L0 
     /tmp/ccsGSfA2.s:267    .text:00000000000000bc .L0 
     /tmp/ccsGSfA2.s:268    .text:00000000000000bc .L0 
     /tmp/ccsGSfA2.s:270    .text:00000000000000c0 .L0 
     /tmp/ccsGSfA2.s:1357   .data.rel.ro.local._ZTV9Semaphore:0000000000000000 _ZTV9Semaphore
     /tmp/ccsGSfA2.s:274    .text:00000000000000c4 .L0 
     /tmp/ccsGSfA2.s:277    .text:00000000000000d0 .L0 
     /tmp/ccsGSfA2.s:278    .text:00000000000000d0 .L0 
     /tmp/ccsGSfA2.s:283    .text:00000000000000dc .L0 
     /tmp/ccsGSfA2.s:284    .text:00000000000000dc .L0 
     /tmp/ccsGSfA2.s:287    .text:00000000000000e0 .L0 
     /tmp/ccsGSfA2.s:293    .text:00000000000000e4 .L0 
     /tmp/ccsGSfA2.s:297    .text:00000000000000e4 .L0 
GAS LISTING /tmp/ccsGSfA2.s 			page 35


     /tmp/ccsGSfA2.s:298    .text:00000000000000e4 .L0 
     /tmp/ccsGSfA2.s:299    .text:00000000000000e4 .L0 
     /tmp/ccsGSfA2.s:304    .text:00000000000000e8 .L0 
     /tmp/ccsGSfA2.s:305    .text:00000000000000e8 .L0 
     /tmp/ccsGSfA2.s:309    .text:00000000000000ec .L0 
     /tmp/ccsGSfA2.s:310    .text:00000000000000ec .L0 
     /tmp/ccsGSfA2.s:311    .text:00000000000000ec .L0 
     /tmp/ccsGSfA2.s:313    .text:00000000000000f0 .L0 
     /tmp/ccsGSfA2.s:315    .text:00000000000000f4 .L0 
     /tmp/ccsGSfA2.s:316    .text:00000000000000f4 .L0 
     /tmp/ccsGSfA2.s:321    .text:00000000000000f8 .L0 
     /tmp/ccsGSfA2.s:322    .text:00000000000000f8 .L0 
     /tmp/ccsGSfA2.s:325    .text:0000000000000100 .L0 
     /tmp/ccsGSfA2.s:334    .text:0000000000000104 .L0 
     /tmp/ccsGSfA2.s:340    .text:0000000000000110 .L0 
     /tmp/ccsGSfA2.s:341    .text:0000000000000114 .L0 
     /tmp/ccsGSfA2.s:343    .text:0000000000000118 .L0 
     /tmp/ccsGSfA2.s:344    .text:0000000000000118 .L0 
     /tmp/ccsGSfA2.s:346    .text:000000000000011c .L0 
     /tmp/ccsGSfA2.s:348    .text:0000000000000120 .L0 
     /tmp/ccsGSfA2.s:350    .text:0000000000000124 .L0 
     /tmp/ccsGSfA2.s:254    .text:00000000000000ac _ZN9SemaphoreD1Ev
     /tmp/ccsGSfA2.s:365    .text:0000000000000124 _Znwm
     /tmp/ccsGSfA2.s:368    .text:0000000000000124 .L0 
     /tmp/ccsGSfA2.s:370    .text:0000000000000124 .L0 
     /tmp/ccsGSfA2.s:371    .text:0000000000000128 .L0 
     /tmp/ccsGSfA2.s:374    .text:0000000000000130 .L0 
     /tmp/ccsGSfA2.s:375    .text:0000000000000130 .L0 
     /tmp/ccsGSfA2.s:377    .text:0000000000000134 .L0 
     /tmp/ccsGSfA2.s:379    .text:0000000000000134 .L0 
     /tmp/ccsGSfA2.s:380    .text:0000000000000134 .L0 
     /tmp/ccsGSfA2.s:383    .text:000000000000013c .L0 
     /tmp/ccsGSfA2.s:384    .text:0000000000000140 .L0 
     /tmp/ccsGSfA2.s:386    .text:0000000000000144 .L0 
     /tmp/ccsGSfA2.s:387    .text:0000000000000144 .L0 
     /tmp/ccsGSfA2.s:389    .text:0000000000000148 .L0 
     /tmp/ccsGSfA2.s:391    .text:000000000000014c .L0 
     /tmp/ccsGSfA2.s:397    .text:000000000000014c _Znam
     /tmp/ccsGSfA2.s:400    .text:000000000000014c .L0 
     /tmp/ccsGSfA2.s:402    .text:000000000000014c .L0 
     /tmp/ccsGSfA2.s:403    .text:0000000000000150 .L0 
     /tmp/ccsGSfA2.s:406    .text:0000000000000158 .L0 
     /tmp/ccsGSfA2.s:407    .text:0000000000000158 .L0 
     /tmp/ccsGSfA2.s:409    .text:000000000000015c .L0 
     /tmp/ccsGSfA2.s:411    .text:000000000000015c .L0 
     /tmp/ccsGSfA2.s:412    .text:000000000000015c .L0 
     /tmp/ccsGSfA2.s:415    .text:0000000000000164 .L0 
     /tmp/ccsGSfA2.s:416    .text:0000000000000168 .L0 
     /tmp/ccsGSfA2.s:418    .text:000000000000016c .L0 
     /tmp/ccsGSfA2.s:419    .text:000000000000016c .L0 
     /tmp/ccsGSfA2.s:421    .text:0000000000000170 .L0 
     /tmp/ccsGSfA2.s:423    .text:0000000000000174 .L0 
     /tmp/ccsGSfA2.s:429    .text:0000000000000174 _ZdlPv
     /tmp/ccsGSfA2.s:432    .text:0000000000000174 .L0 
     /tmp/ccsGSfA2.s:436    .text:0000000000000174 .L0 
     /tmp/ccsGSfA2.s:437    .text:0000000000000178 .L0 
     /tmp/ccsGSfA2.s:440    .text:0000000000000180 .L0 
GAS LISTING /tmp/ccsGSfA2.s 			page 36


     /tmp/ccsGSfA2.s:441    .text:0000000000000180 .L0 
     /tmp/ccsGSfA2.s:443    .text:0000000000000184 .L0 
     /tmp/ccsGSfA2.s:445    .text:0000000000000184 .L0 
     /tmp/ccsGSfA2.s:446    .text:0000000000000184 .L0 
     /tmp/ccsGSfA2.s:449    .text:000000000000018c .L0 
     /tmp/ccsGSfA2.s:450    .text:0000000000000190 .L0 
     /tmp/ccsGSfA2.s:452    .text:0000000000000194 .L0 
     /tmp/ccsGSfA2.s:453    .text:0000000000000194 .L0 
     /tmp/ccsGSfA2.s:455    .text:0000000000000198 .L0 
     /tmp/ccsGSfA2.s:457    .text:000000000000019c .L0 
     /tmp/ccsGSfA2.s:470    .text:000000000000019c _ZN6ThreadD0Ev
     /tmp/ccsGSfA2.s:473    .text:000000000000019c .L0 
     /tmp/ccsGSfA2.s:475    .text:000000000000019c .L0 
     /tmp/ccsGSfA2.s:476    .text:00000000000001a0 .L0 
     /tmp/ccsGSfA2.s:480    .text:00000000000001ac .L0 
     /tmp/ccsGSfA2.s:481    .text:00000000000001ac .L0 
     /tmp/ccsGSfA2.s:482    .text:00000000000001ac .L0 
     /tmp/ccsGSfA2.s:484    .text:00000000000001b0 .L0 
     /tmp/ccsGSfA2.s:487    .text:00000000000001b4 .L0 
     /tmp/ccsGSfA2.s:493    .text:00000000000001cc .L0 
     /tmp/ccsGSfA2.s:495    .text:00000000000001d0 .L0 
     /tmp/ccsGSfA2.s:496    .text:00000000000001d0 .L0 
     /tmp/ccsGSfA2.s:498    .text:00000000000001d4 .L0 
     /tmp/ccsGSfA2.s:501    .text:00000000000001d8 .L0 
     /tmp/ccsGSfA2.s:503    .text:00000000000001dc .L0 
     /tmp/ccsGSfA2.s:510    .text._ZN14PeriodicThreadD0Ev:0000000000000000 _ZN14PeriodicThreadD0Ev
     /tmp/ccsGSfA2.s:513    .text._ZN14PeriodicThreadD0Ev:0000000000000000 .L0 
     /tmp/ccsGSfA2.s:515    .text._ZN14PeriodicThreadD0Ev:0000000000000000 .L0 
     /tmp/ccsGSfA2.s:516    .text._ZN14PeriodicThreadD0Ev:0000000000000004 .L0 
     /tmp/ccsGSfA2.s:520    .text._ZN14PeriodicThreadD0Ev:0000000000000010 .L0 
     /tmp/ccsGSfA2.s:521    .text._ZN14PeriodicThreadD0Ev:0000000000000010 .L0 
     /tmp/ccsGSfA2.s:522    .text._ZN14PeriodicThreadD0Ev:0000000000000010 .L0 
     /tmp/ccsGSfA2.s:524    .text._ZN14PeriodicThreadD0Ev:0000000000000014 .L0 
     /tmp/ccsGSfA2.s:530    .text._ZN14PeriodicThreadD0Ev:0000000000000018 .L0 
     /tmp/ccsGSfA2.s:540    .text._ZN14PeriodicThreadD0Ev:000000000000003c .L0 
     /tmp/ccsGSfA2.s:542    .text._ZN14PeriodicThreadD0Ev:0000000000000040 .L0 
     /tmp/ccsGSfA2.s:543    .text._ZN14PeriodicThreadD0Ev:0000000000000040 .L0 
     /tmp/ccsGSfA2.s:545    .text._ZN14PeriodicThreadD0Ev:0000000000000044 .L0 
     /tmp/ccsGSfA2.s:548    .text._ZN14PeriodicThreadD0Ev:0000000000000048 .L0 
     /tmp/ccsGSfA2.s:550    .text._ZN14PeriodicThreadD0Ev:000000000000004c .L0 
     /tmp/ccsGSfA2.s:557    .text:00000000000001dc _ZN9SemaphoreD0Ev
     /tmp/ccsGSfA2.s:560    .text:00000000000001dc .L0 
     /tmp/ccsGSfA2.s:562    .text:00000000000001dc .L0 
     /tmp/ccsGSfA2.s:563    .text:00000000000001e0 .L0 
     /tmp/ccsGSfA2.s:567    .text:00000000000001ec .L0 
     /tmp/ccsGSfA2.s:568    .text:00000000000001ec .L0 
     /tmp/ccsGSfA2.s:569    .text:00000000000001ec .L0 
     /tmp/ccsGSfA2.s:571    .text:00000000000001f0 .L0 
     /tmp/ccsGSfA2.s:574    .text:00000000000001f4 .L0 
     /tmp/ccsGSfA2.s:580    .text:000000000000020c .L0 
     /tmp/ccsGSfA2.s:582    .text:0000000000000210 .L0 
     /tmp/ccsGSfA2.s:583    .text:0000000000000210 .L0 
     /tmp/ccsGSfA2.s:585    .text:0000000000000214 .L0 
     /tmp/ccsGSfA2.s:588    .text:0000000000000218 .L0 
     /tmp/ccsGSfA2.s:590    .text:000000000000021c .L0 
     /tmp/ccsGSfA2.s:596    .text:000000000000021c _ZdaPv
     /tmp/ccsGSfA2.s:599    .text:000000000000021c .L0 
GAS LISTING /tmp/ccsGSfA2.s 			page 37


     /tmp/ccsGSfA2.s:603    .text:000000000000021c .L0 
     /tmp/ccsGSfA2.s:604    .text:0000000000000220 .L0 
     /tmp/ccsGSfA2.s:607    .text:0000000000000228 .L0 
     /tmp/ccsGSfA2.s:608    .text:0000000000000228 .L0 
     /tmp/ccsGSfA2.s:610    .text:000000000000022c .L0 
     /tmp/ccsGSfA2.s:612    .text:000000000000022c .L0 
     /tmp/ccsGSfA2.s:613    .text:000000000000022c .L0 
     /tmp/ccsGSfA2.s:616    .text:0000000000000234 .L0 
     /tmp/ccsGSfA2.s:617    .text:0000000000000238 .L0 
     /tmp/ccsGSfA2.s:619    .text:000000000000023c .L0 
     /tmp/ccsGSfA2.s:620    .text:000000000000023c .L0 
     /tmp/ccsGSfA2.s:622    .text:0000000000000240 .L0 
     /tmp/ccsGSfA2.s:624    .text:0000000000000244 .L0 
     /tmp/ccsGSfA2.s:637    .text:0000000000000244 _ZN6ThreadC2EPFvPvES0_
     /tmp/ccsGSfA2.s:640    .text:0000000000000244 .L0 
     /tmp/ccsGSfA2.s:642    .text:0000000000000244 .L0 
     /tmp/ccsGSfA2.s:643    .text:0000000000000248 .L0 
     /tmp/ccsGSfA2.s:649    .text:000000000000025c .L0 
     /tmp/ccsGSfA2.s:650    .text:000000000000025c .L0 
     /tmp/ccsGSfA2.s:651    .text:000000000000025c .L0 
     /tmp/ccsGSfA2.s:652    .text:000000000000025c .L0 
     /tmp/ccsGSfA2.s:653    .text:000000000000025c .L0 
     /tmp/ccsGSfA2.s:655    .text:0000000000000260 .L0 
     /tmp/ccsGSfA2.s:661    .text:000000000000026c .L0 
     /tmp/ccsGSfA2.s:665    .text:0000000000000278 .L0 
     /tmp/ccsGSfA2.s:666    .text:0000000000000278 .L0 
     /tmp/ccsGSfA2.s:668    .text:000000000000027c .L0 
     /tmp/ccsGSfA2.s:669    .text:000000000000027c .L0 
     /tmp/ccsGSfA2.s:672    .text:0000000000000280 .L0 
     /tmp/ccsGSfA2.s:673    .text:0000000000000280 .L0 
     /tmp/ccsGSfA2.s:675    .text:0000000000000284 .L0 
     /tmp/ccsGSfA2.s:676    .text:0000000000000284 .L0 
     /tmp/ccsGSfA2.s:684    .text:0000000000000294 .L0 
 src/syscall_cpp.cpp:42     .text:0000000000000294 .L0 
     /tmp/ccsGSfA2.s:690    .text:0000000000000298 .L0 
 src/syscall_cpp.cpp:43     .text:0000000000000298 .L0 
     /tmp/ccsGSfA2.s:695    .text:000000000000029c .L0 
 src/syscall_cpp.cpp:45     .text:000000000000029c .L0 
     /tmp/ccsGSfA2.s:700    .text:00000000000002a0 .L0 
     /tmp/ccsGSfA2.s:702    .text:00000000000002a0 .L0 
 src/syscall_cpp.cpp:46     .text:00000000000002a4 .L0 
     /tmp/ccsGSfA2.s:710    .text:00000000000002a8 .L0 
 src/syscall_cpp.cpp:47     .text:00000000000002a8 .L0 
     /tmp/ccsGSfA2.s:715    .text:00000000000002ac .L0 
 src/syscall_cpp.cpp:54     .text:00000000000002ac .L0 
     /tmp/ccsGSfA2.s:723    .text:00000000000002b0 .L0 
     /tmp/ccsGSfA2.s:724    .text:00000000000002b4 .L0 
     /tmp/ccsGSfA2.s:725    .text:00000000000002b4 .L0 
     /tmp/ccsGSfA2.s:727    .text:00000000000002b8 .L0 
     /tmp/ccsGSfA2.s:728    .text:00000000000002b8 .L0 
     /tmp/ccsGSfA2.s:730    .text:00000000000002bc .L0 
     /tmp/ccsGSfA2.s:733    .text:00000000000002c0 .L0 
     /tmp/ccsGSfA2.s:736    .text:00000000000002c4 .L0 
     /tmp/ccsGSfA2.s:739    .text:00000000000002c8 .L0 
     /tmp/ccsGSfA2.s:743    .text:00000000000002cc .L0 
     /tmp/ccsGSfA2.s:747    .text:00000000000002cc .L0 
     /tmp/ccsGSfA2.s:751    .text:00000000000002d4 .L0 
GAS LISTING /tmp/ccsGSfA2.s 			page 38


     /tmp/ccsGSfA2.s:637    .text:0000000000000244 _ZN6ThreadC1EPFvPvES0_
     /tmp/ccsGSfA2.s:759    .text:00000000000002d4 _ZN6Thread5startEv
     /tmp/ccsGSfA2.s:762    .text:00000000000002d4 .L0 
     /tmp/ccsGSfA2.s:764    .text:00000000000002d4 .L0 
     /tmp/ccsGSfA2.s:765    .text:00000000000002d8 .L0 
     /tmp/ccsGSfA2.s:767    .text:00000000000002dc .L0 
     /tmp/ccsGSfA2.s:769    .text:00000000000002e0 .L0 
     /tmp/ccsGSfA2.s:771    .text:00000000000002e0 .L0 
     /tmp/ccsGSfA2.s:772    .text:00000000000002e0 .L0 
     /tmp/ccsGSfA2.s:774    .text:00000000000002e4 .L0 
     /tmp/ccsGSfA2.s:776    .text:00000000000002e8 .L0 
 src/syscall_cpp.cpp:68     .text:00000000000002e8 .L0 
     /tmp/ccsGSfA2.s:783    .text:00000000000002ec .L0 
 src/syscall_cpp.cpp:69     .text:00000000000002ec .L0 
     /tmp/ccsGSfA2.s:788    .text:00000000000002f0 .L0 
 src/syscall_cpp.cpp:71     .text:00000000000002f0 .L0 
     /tmp/ccsGSfA2.s:793    .text:00000000000002f4 .L0 
     /tmp/ccsGSfA2.s:795    .text:00000000000002f4 .L0 
     /tmp/ccsGSfA2.s:798    .text:00000000000002f8 .L0 
     /tmp/ccsGSfA2.s:799    .text:00000000000002fc .L0 
     /tmp/ccsGSfA2.s:800    .text:00000000000002fc .L0 
     /tmp/ccsGSfA2.s:801    .text:00000000000002fc .L0 
     /tmp/ccsGSfA2.s:803    .text:0000000000000300 .L0 
     /tmp/ccsGSfA2.s:807    .text:0000000000000304 .L0 
     /tmp/ccsGSfA2.s:809    .text:0000000000000304 .L0 
     /tmp/ccsGSfA2.s:812    .text:000000000000030c .L0 
     /tmp/ccsGSfA2.s:818    .text:000000000000030c _ZN6Thread4joinEv
     /tmp/ccsGSfA2.s:821    .text:000000000000030c .L0 
     /tmp/ccsGSfA2.s:823    .text:000000000000030c .L0 
     /tmp/ccsGSfA2.s:824    .text:0000000000000310 .L0 
     /tmp/ccsGSfA2.s:827    .text:0000000000000318 .L0 
     /tmp/ccsGSfA2.s:828    .text:0000000000000318 .L0 
     /tmp/ccsGSfA2.s:830    .text:000000000000031c .L0 
     /tmp/ccsGSfA2.s:832    .text:000000000000031c .L0 
     /tmp/ccsGSfA2.s:833    .text:000000000000031c .L0 
     /tmp/ccsGSfA2.s:838    .text:0000000000000328 .L0 
     /tmp/ccsGSfA2.s:839    .text:000000000000032c .L0 
     /tmp/ccsGSfA2.s:841    .text:0000000000000330 .L0 
     /tmp/ccsGSfA2.s:842    .text:0000000000000330 .L0 
     /tmp/ccsGSfA2.s:844    .text:0000000000000334 .L0 
     /tmp/ccsGSfA2.s:846    .text:0000000000000338 .L0 
     /tmp/ccsGSfA2.s:852    .text:0000000000000338 _ZN6Thread8dispatchEv
     /tmp/ccsGSfA2.s:855    .text:0000000000000338 .L0 
     /tmp/ccsGSfA2.s:856    .text:0000000000000338 .L0 
     /tmp/ccsGSfA2.s:857    .text:000000000000033c .L0 
     /tmp/ccsGSfA2.s:860    .text:0000000000000344 .L0 
     /tmp/ccsGSfA2.s:861    .text:0000000000000344 .L0 
     /tmp/ccsGSfA2.s:863    .text:0000000000000348 .L0 
     /tmp/ccsGSfA2.s:865    .text:0000000000000348 .L0 
     /tmp/ccsGSfA2.s:866    .text:0000000000000348 .L0 
     /tmp/ccsGSfA2.s:869    .text:0000000000000350 .L0 
     /tmp/ccsGSfA2.s:870    .text:0000000000000354 .L0 
     /tmp/ccsGSfA2.s:872    .text:0000000000000358 .L0 
     /tmp/ccsGSfA2.s:873    .text:0000000000000358 .L0 
     /tmp/ccsGSfA2.s:875    .text:000000000000035c .L0 
     /tmp/ccsGSfA2.s:877    .text:0000000000000360 .L0 
     /tmp/ccsGSfA2.s:883    .text:0000000000000360 _ZN6Thread5sleepEm
GAS LISTING /tmp/ccsGSfA2.s 			page 39


     /tmp/ccsGSfA2.s:886    .text:0000000000000360 .L0 
     /tmp/ccsGSfA2.s:888    .text:0000000000000360 .L0 
     /tmp/ccsGSfA2.s:889    .text:0000000000000364 .L0 
     /tmp/ccsGSfA2.s:892    .text:000000000000036c .L0 
     /tmp/ccsGSfA2.s:893    .text:000000000000036c .L0 
     /tmp/ccsGSfA2.s:895    .text:0000000000000370 .L0 
     /tmp/ccsGSfA2.s:897    .text:0000000000000370 .L0 
     /tmp/ccsGSfA2.s:898    .text:0000000000000370 .L0 
     /tmp/ccsGSfA2.s:901    .text:0000000000000378 .L0 
     /tmp/ccsGSfA2.s:902    .text:0000000000000378 .L0 
     /tmp/ccsGSfA2.s:904    .text:0000000000000380 .L0 
     /tmp/ccsGSfA2.s:906    .text:0000000000000384 .L0 
     /tmp/ccsGSfA2.s:907    .text:0000000000000384 .L0 
     /tmp/ccsGSfA2.s:909    .text:0000000000000388 .L0 
     /tmp/ccsGSfA2.s:911    .text:000000000000038c .L0 
     /tmp/ccsGSfA2.s:917    .text:000000000000038c _ZN14PeriodicThread15periodicWrapperEPv
     /tmp/ccsGSfA2.s:920    .text:000000000000038c .L0 
     /tmp/ccsGSfA2.s:922    .text:000000000000038c .L0 
     /tmp/ccsGSfA2.s:923    .text:0000000000000390 .L0 
     /tmp/ccsGSfA2.s:927    .text:000000000000039c .L0 
     /tmp/ccsGSfA2.s:928    .text:000000000000039c .L0 
     /tmp/ccsGSfA2.s:929    .text:000000000000039c .L0 
     /tmp/ccsGSfA2.s:931    .text:00000000000003a0 .L0 
     /tmp/ccsGSfA2.s:935    .text:00000000000003a4 .L0 
     /tmp/ccsGSfA2.s:940    .text:00000000000003a8 .L0 
     /tmp/ccsGSfA2.s:941    .text:00000000000003a8 .L0 
     /tmp/ccsGSfA2.s:942    .text:00000000000003a8 .L0 
     /tmp/ccsGSfA2.s:945    .text:00000000000003b0 .L0 
     /tmp/ccsGSfA2.s:949    .text:00000000000003b8 .L0 
     /tmp/ccsGSfA2.s:950    .text:00000000000003b8 .L0 
     /tmp/ccsGSfA2.s:954    .text:00000000000003c4 .L0 
     /tmp/ccsGSfA2.s:959    .text:00000000000003c8 .L0 
     /tmp/ccsGSfA2.s:960    .text:00000000000003cc .L0 
     /tmp/ccsGSfA2.s:962    .text:00000000000003d0 .L0 
     /tmp/ccsGSfA2.s:963    .text:00000000000003d0 .L0 
     /tmp/ccsGSfA2.s:965    .text:00000000000003d4 .L0 
     /tmp/ccsGSfA2.s:968    .text:00000000000003d8 .L0 
     /tmp/ccsGSfA2.s:970    .text:00000000000003dc .L0 
     /tmp/ccsGSfA2.s:976    .text:00000000000003dc _ZN6ThreadC2Ev
     /tmp/ccsGSfA2.s:979    .text:00000000000003dc .L0 
     /tmp/ccsGSfA2.s:981    .text:00000000000003dc .L0 
     /tmp/ccsGSfA2.s:982    .text:00000000000003e0 .L0 
     /tmp/ccsGSfA2.s:986    .text:00000000000003ec .L0 
     /tmp/ccsGSfA2.s:987    .text:00000000000003ec .L0 
     /tmp/ccsGSfA2.s:988    .text:00000000000003ec .L0 
     /tmp/ccsGSfA2.s:990    .text:00000000000003f0 .L0 
     /tmp/ccsGSfA2.s:994    .text:00000000000003f4 .L0 
     /tmp/ccsGSfA2.s:998    .text:0000000000000400 .L0 
     /tmp/ccsGSfA2.s:999    .text:0000000000000400 .L0 
     /tmp/ccsGSfA2.s:1002   .text:000000000000040c .L0 
     /tmp/ccsGSfA2.s:1003   .text:000000000000040c .L0 
     /tmp/ccsGSfA2.s:1006   .text:0000000000000410 .L0 
     /tmp/ccsGSfA2.s:1007   .text:0000000000000410 .L0 
     /tmp/ccsGSfA2.s:1008   .text:0000000000000410 .L0 
     /tmp/ccsGSfA2.s:1009   .text:0000000000000410 .L0 
     /tmp/ccsGSfA2.s:1016   .text:0000000000000420 .L0 
 src/syscall_cpp.cpp:100    .text:0000000000000420 .L0 
GAS LISTING /tmp/ccsGSfA2.s 			page 40


     /tmp/ccsGSfA2.s:1022   .text:0000000000000424 .L0 
     /tmp/ccsGSfA2.s:1024   .text:0000000000000424 .L0 
 src/syscall_cpp.cpp:101    .text:0000000000000428 .L0 
     /tmp/ccsGSfA2.s:1032   .text:000000000000042c .L0 
     /tmp/ccsGSfA2.s:1034   .text:000000000000042c .L0 
 src/syscall_cpp.cpp:103    .text:0000000000000430 .L0 
     /tmp/ccsGSfA2.s:1041   .text:0000000000000434 .L0 
     /tmp/ccsGSfA2.s:1043   .text:0000000000000434 .L0 
 src/syscall_cpp.cpp:104    .text:0000000000000438 .L0 
     /tmp/ccsGSfA2.s:1051   .text:000000000000043c .L0 
 src/syscall_cpp.cpp:105    .text:000000000000043c .L0 
     /tmp/ccsGSfA2.s:1056   .text:0000000000000440 .L0 
 src/syscall_cpp.cpp:112    .text:0000000000000440 .L0 
     /tmp/ccsGSfA2.s:1064   .text:0000000000000444 .L0 
     /tmp/ccsGSfA2.s:1065   .text:0000000000000448 .L0 
     /tmp/ccsGSfA2.s:1067   .text:000000000000044c .L0 
     /tmp/ccsGSfA2.s:1068   .text:000000000000044c .L0 
     /tmp/ccsGSfA2.s:1070   .text:0000000000000450 .L0 
     /tmp/ccsGSfA2.s:1073   .text:0000000000000454 .L0 
     /tmp/ccsGSfA2.s:1075   .text:0000000000000458 .L0 
     /tmp/ccsGSfA2.s:976    .text:00000000000003dc _ZN6ThreadC1Ev
     /tmp/ccsGSfA2.s:1083   .text:0000000000000458 _ZN9SemaphoreC2Ej
     /tmp/ccsGSfA2.s:1086   .text:0000000000000458 .L0 
     /tmp/ccsGSfA2.s:1088   .text:0000000000000458 .L0 
     /tmp/ccsGSfA2.s:1089   .text:000000000000045c .L0 
     /tmp/ccsGSfA2.s:1092   .text:0000000000000464 .L0 
     /tmp/ccsGSfA2.s:1093   .text:0000000000000464 .L0 
     /tmp/ccsGSfA2.s:1095   .text:0000000000000468 .L0 
     /tmp/ccsGSfA2.s:1098   .text:0000000000000468 .L0 
     /tmp/ccsGSfA2.s:1101   .text:0000000000000474 .L0 
     /tmp/ccsGSfA2.s:1102   .text:0000000000000474 .L0 
     /tmp/ccsGSfA2.s:1108   .text:0000000000000480 .L0 
     /tmp/ccsGSfA2.s:1109   .text:0000000000000484 .L0 
     /tmp/ccsGSfA2.s:1111   .text:0000000000000488 .L0 
     /tmp/ccsGSfA2.s:1112   .text:0000000000000488 .L0 
     /tmp/ccsGSfA2.s:1114   .text:000000000000048c .L0 
     /tmp/ccsGSfA2.s:1116   .text:0000000000000490 .L0 
     /tmp/ccsGSfA2.s:1083   .text:0000000000000458 _ZN9SemaphoreC1Ej
     /tmp/ccsGSfA2.s:1124   .text:0000000000000490 _ZN9Semaphore4waitEv
     /tmp/ccsGSfA2.s:1127   .text:0000000000000490 .L0 
     /tmp/ccsGSfA2.s:1129   .text:0000000000000490 .L0 
     /tmp/ccsGSfA2.s:1130   .text:0000000000000494 .L0 
     /tmp/ccsGSfA2.s:1133   .text:000000000000049c .L0 
     /tmp/ccsGSfA2.s:1134   .text:000000000000049c .L0 
     /tmp/ccsGSfA2.s:1136   .text:00000000000004a0 .L0 
     /tmp/ccsGSfA2.s:1138   .text:00000000000004a0 .L0 
     /tmp/ccsGSfA2.s:1139   .text:00000000000004a0 .L0 
     /tmp/ccsGSfA2.s:1144   .text:00000000000004ac .L0 
     /tmp/ccsGSfA2.s:1145   .text:00000000000004b0 .L0 
     /tmp/ccsGSfA2.s:1147   .text:00000000000004b4 .L0 
     /tmp/ccsGSfA2.s:1148   .text:00000000000004b4 .L0 
     /tmp/ccsGSfA2.s:1150   .text:00000000000004b8 .L0 
     /tmp/ccsGSfA2.s:1152   .text:00000000000004bc .L0 
     /tmp/ccsGSfA2.s:1158   .text:00000000000004bc _ZN9Semaphore6signalEv
     /tmp/ccsGSfA2.s:1161   .text:00000000000004bc .L0 
     /tmp/ccsGSfA2.s:1163   .text:00000000000004bc .L0 
     /tmp/ccsGSfA2.s:1164   .text:00000000000004c0 .L0 
GAS LISTING /tmp/ccsGSfA2.s 			page 41


     /tmp/ccsGSfA2.s:1167   .text:00000000000004c8 .L0 
     /tmp/ccsGSfA2.s:1168   .text:00000000000004c8 .L0 
     /tmp/ccsGSfA2.s:1170   .text:00000000000004cc .L0 
     /tmp/ccsGSfA2.s:1172   .text:00000000000004cc .L0 
     /tmp/ccsGSfA2.s:1173   .text:00000000000004cc .L0 
     /tmp/ccsGSfA2.s:1178   .text:00000000000004d8 .L0 
     /tmp/ccsGSfA2.s:1179   .text:00000000000004dc .L0 
     /tmp/ccsGSfA2.s:1181   .text:00000000000004e0 .L0 
     /tmp/ccsGSfA2.s:1182   .text:00000000000004e0 .L0 
     /tmp/ccsGSfA2.s:1184   .text:00000000000004e4 .L0 
     /tmp/ccsGSfA2.s:1186   .text:00000000000004e8 .L0 
     /tmp/ccsGSfA2.s:1192   .text:00000000000004e8 _ZN14PeriodicThread9terminateEv
     /tmp/ccsGSfA2.s:1195   .text:00000000000004e8 .L0 
     /tmp/ccsGSfA2.s:1197   .text:00000000000004e8 .L0 
     /tmp/ccsGSfA2.s:1198   .text:00000000000004ec .L0 
     /tmp/ccsGSfA2.s:1200   .text:00000000000004f0 .L0 
     /tmp/ccsGSfA2.s:1202   .text:00000000000004f4 .L0 
     /tmp/ccsGSfA2.s:1204   .text:00000000000004f4 .L0 
     /tmp/ccsGSfA2.s:1205   .text:00000000000004f8 .L0 
     /tmp/ccsGSfA2.s:1206   .text:00000000000004f8 .L0 
     /tmp/ccsGSfA2.s:1208   .text:00000000000004fc .L0 
     /tmp/ccsGSfA2.s:1210   .text:0000000000000500 .L0 
     /tmp/ccsGSfA2.s:1216   .text:0000000000000500 _ZN14PeriodicThreadC2Em
     /tmp/ccsGSfA2.s:1219   .text:0000000000000500 .L0 
     /tmp/ccsGSfA2.s:1221   .text:0000000000000500 .L0 
     /tmp/ccsGSfA2.s:1222   .text:0000000000000504 .L0 
     /tmp/ccsGSfA2.s:1227   .text:0000000000000514 .L0 
     /tmp/ccsGSfA2.s:1228   .text:0000000000000514 .L0 
     /tmp/ccsGSfA2.s:1229   .text:0000000000000514 .L0 
     /tmp/ccsGSfA2.s:1230   .text:0000000000000514 .L0 
     /tmp/ccsGSfA2.s:1232   .text:0000000000000518 .L0 
     /tmp/ccsGSfA2.s:1237   .text:0000000000000520 .L0 
     /tmp/ccsGSfA2.s:1247   .text:0000000000000544 .L0 
     /tmp/ccsGSfA2.s:1248   .text:0000000000000548 .L0 
     /tmp/ccsGSfA2.s:1250   .text:000000000000054c .L0 
     /tmp/ccsGSfA2.s:1251   .text:000000000000054c .L0 
     /tmp/ccsGSfA2.s:1253   .text:0000000000000550 .L0 
     /tmp/ccsGSfA2.s:1256   .text:0000000000000554 .L0 
     /tmp/ccsGSfA2.s:1259   .text:0000000000000558 .L0 
     /tmp/ccsGSfA2.s:1261   .text:000000000000055c .L0 
     /tmp/ccsGSfA2.s:1216   .text:0000000000000500 _ZN14PeriodicThreadC1Em
     /tmp/ccsGSfA2.s:1269   .text:000000000000055c _ZN7Console4getcEv
     /tmp/ccsGSfA2.s:1272   .text:000000000000055c .L0 
     /tmp/ccsGSfA2.s:1273   .text:000000000000055c .L0 
     /tmp/ccsGSfA2.s:1274   .text:0000000000000560 .L0 
     /tmp/ccsGSfA2.s:1277   .text:0000000000000568 .L0 
     /tmp/ccsGSfA2.s:1278   .text:0000000000000568 .L0 
     /tmp/ccsGSfA2.s:1280   .text:000000000000056c .L0 
     /tmp/ccsGSfA2.s:1282   .text:000000000000056c .L0 
     /tmp/ccsGSfA2.s:1283   .text:000000000000056c .L0 
     /tmp/ccsGSfA2.s:1286   .text:0000000000000574 .L0 
     /tmp/ccsGSfA2.s:1287   .text:0000000000000578 .L0 
     /tmp/ccsGSfA2.s:1289   .text:000000000000057c .L0 
     /tmp/ccsGSfA2.s:1290   .text:000000000000057c .L0 
     /tmp/ccsGSfA2.s:1292   .text:0000000000000580 .L0 
     /tmp/ccsGSfA2.s:1294   .text:0000000000000584 .L0 
     /tmp/ccsGSfA2.s:1300   .text:0000000000000584 _ZN7Console4putcEc
GAS LISTING /tmp/ccsGSfA2.s 			page 42


     /tmp/ccsGSfA2.s:1303   .text:0000000000000584 .L0 
     /tmp/ccsGSfA2.s:1305   .text:0000000000000584 .L0 
     /tmp/ccsGSfA2.s:1306   .text:0000000000000588 .L0 
     /tmp/ccsGSfA2.s:1309   .text:0000000000000590 .L0 
     /tmp/ccsGSfA2.s:1310   .text:0000000000000590 .L0 
     /tmp/ccsGSfA2.s:1312   .text:0000000000000594 .L0 
     /tmp/ccsGSfA2.s:1314   .text:0000000000000594 .L0 
     /tmp/ccsGSfA2.s:1315   .text:0000000000000594 .L0 
     /tmp/ccsGSfA2.s:1318   .text:000000000000059c .L0 
     /tmp/ccsGSfA2.s:1319   .text:00000000000005a0 .L0 
     /tmp/ccsGSfA2.s:1321   .text:00000000000005a4 .L0 
     /tmp/ccsGSfA2.s:1322   .text:00000000000005a4 .L0 
     /tmp/ccsGSfA2.s:1324   .text:00000000000005a8 .L0 
     /tmp/ccsGSfA2.s:1326   .text:00000000000005ac .L0 
     /tmp/ccsGSfA2.s:32     .text._ZN6Thread3runEv:0000000000000018 .L0 
     /tmp/ccsGSfA2.s:57     .text._ZN14PeriodicThread18periodicActivationEv:0000000000000018 .L0 
     /tmp/ccsGSfA2.s:1368   .text:00000000000005ac .L0 
     /tmp/ccsGSfA2.s:250    .text._ZN14PeriodicThreadD2Ev:0000000000000034 .L0 
     /tmp/ccsGSfA2.s:553    .text._ZN14PeriodicThreadD0Ev:000000000000004c .L0 
     /tmp/ccsGSfA2.s:123    .text:000000000000004c .L0 
     /tmp/ccsGSfA2.s:274    .text:00000000000000c4 .L0 
     /tmp/ccsGSfA2.s:661    .text:000000000000026c .L0 
     /tmp/ccsGSfA2.s:994    .text:00000000000003f4 .L0 
     /tmp/ccsGSfA2.s:999    .text:0000000000000400 .L0 
     /tmp/ccsGSfA2.s:1098   .text:0000000000000468 .L0 
     /tmp/ccsGSfA2.s:1238   .text:0000000000000524 .L0 
     /tmp/ccsGSfA2.s:1242   .text:0000000000000534 .L0 
     /tmp/ccsGSfA2.s:95     .text:0000000000000030 .L8
     /tmp/ccsGSfA2.s:187    .text:0000000000000098 .L11
     /tmp/ccsGSfA2.s:176    .text:000000000000008c .L13
     /tmp/ccsGSfA2.s:137    .text:000000000000006c .L14
     /tmp/ccsGSfA2.s:337    .text:0000000000000110 .L19
     /tmp/ccsGSfA2.s:326    .text:0000000000000104 .L21
     /tmp/ccsGSfA2.s:288    .text:00000000000000e4 .L22
     /tmp/ccsGSfA2.s:742    .text:00000000000002cc .L41
     /tmp/ccsGSfA2.s:682    .text:0000000000000294 .L40
     /tmp/ccsGSfA2.s:806    .text:0000000000000304 .L45
     /tmp/ccsGSfA2.s:796    .text:00000000000002f8 .L44
     /tmp/ccsGSfA2.s:955    .text:00000000000003c8 .L53
     /tmp/ccsGSfA2.s:937    .text:00000000000003a8 .L55
     /tmp/ccsGSfA2.s:232    .text._ZN14PeriodicThreadD2Ev:0000000000000010 .L0 
     /tmp/ccsGSfA2.s:530    .text._ZN14PeriodicThreadD0Ev:0000000000000018 .L0 
     /tmp/ccsGSfA2.s:3824   .debug_abbrev:0000000000000000 .Ldebug_abbrev0
     /tmp/ccsGSfA2.s:6193   .debug_str:00000000000009c7 .LASF204
     /tmp/ccsGSfA2.s:6015   .debug_str:00000000000004be .LASF205
     /tmp/ccsGSfA2.s:6143   .debug_str:0000000000000871 .LASF206
     /tmp/ccsGSfA2.s:5831   .debug_ranges:0000000000000000 .Ldebug_ranges0
     /tmp/ccsGSfA2.s:5851   .debug_line:0000000000000000 .Ldebug_line0
     /tmp/ccsGSfA2.s:6115   .debug_str:00000000000007c8 .LASF3
     /tmp/ccsGSfA2.s:6007   .debug_str:0000000000000490 .LASF0
     /tmp/ccsGSfA2.s:6031   .debug_str:000000000000053e .LASF1
     /tmp/ccsGSfA2.s:6127   .debug_str:0000000000000813 .LASF2
     /tmp/ccsGSfA2.s:6139   .debug_str:0000000000000865 .LASF4
     /tmp/ccsGSfA2.s:6017   .debug_str:00000000000004d2 .LASF5
     /tmp/ccsGSfA2.s:5871   .debug_str:00000000000000aa .LASF6
     /tmp/ccsGSfA2.s:6095   .debug_str:0000000000000733 .LASF7
     /tmp/ccsGSfA2.s:6089   .debug_str:00000000000006f8 .LASF8
GAS LISTING /tmp/ccsGSfA2.s 			page 43


     /tmp/ccsGSfA2.s:6023   .debug_str:000000000000050e .LASF9
     /tmp/ccsGSfA2.s:5977   .debug_str:0000000000000391 .LASF10
     /tmp/ccsGSfA2.s:5989   .debug_str:000000000000040d .LASF11
     /tmp/ccsGSfA2.s:5913   .debug_str:00000000000001c7 .LASF12
     /tmp/ccsGSfA2.s:5971   .debug_str:0000000000000365 .LASF13
     /tmp/ccsGSfA2.s:5929   .debug_str:0000000000000234 .LASF14
     /tmp/ccsGSfA2.s:5911   .debug_str:00000000000001b7 .LASF15
     /tmp/ccsGSfA2.s:6165   .debug_str:000000000000092b .LASF16
     /tmp/ccsGSfA2.s:5961   .debug_str:0000000000000300 .LASF17
     /tmp/ccsGSfA2.s:6157   .debug_str:00000000000008eb .LASF18
     /tmp/ccsGSfA2.s:6239   .debug_str:0000000000000bae .LASF19
     /tmp/ccsGSfA2.s:6149   .debug_str:00000000000008ac .LASF207
     /tmp/ccsGSfA2.s:6099   .debug_str:000000000000074c .LASF20
     /tmp/ccsGSfA2.s:5943   .debug_str:00000000000002ae .LASF21
     /tmp/ccsGSfA2.s:6047   .debug_str:00000000000005b4 .LASF22
     /tmp/ccsGSfA2.s:5873   .debug_str:00000000000000b1 .LASF23
     /tmp/ccsGSfA2.s:5921   .debug_str:00000000000001f7 .LASF24
     /tmp/ccsGSfA2.s:5901   .debug_str:0000000000000171 .LASF25
     /tmp/ccsGSfA2.s:6171   .debug_str:0000000000000947 .LASF100
     /tmp/ccsGSfA2.s:5917   .debug_str:00000000000001db .LASF26
     /tmp/ccsGSfA2.s:5991   .debug_str:000000000000041b .LASF28
     /tmp/ccsGSfA2.s:6009   .debug_str:000000000000049d .LASF30
     /tmp/ccsGSfA2.s:6045   .debug_str:00000000000005a0 .LASF32
     /tmp/ccsGSfA2.s:6163   .debug_str:000000000000091e .LASF27
     /tmp/ccsGSfA2.s:6249   .debug_str:0000000000000bfd .LASF29
     /tmp/ccsGSfA2.s:6081   .debug_str:00000000000006a9 .LASF208
     /tmp/ccsGSfA2.s:6265   .debug_str:0000000000000c79 .LASF38
     /tmp/ccsGSfA2.s:6019   .debug_str:00000000000004e4 .LASF40
     /tmp/ccsGSfA2.s:6039   .debug_str:0000000000000572 .LASF31
     /tmp/ccsGSfA2.s:6111   .debug_str:00000000000007a0 .LASF33
     /tmp/ccsGSfA2.s:5947   .debug_str:00000000000002ba .LASF34
     /tmp/ccsGSfA2.s:6135   .debug_str:000000000000083f .LASF35
     /tmp/ccsGSfA2.s:6103   .debug_str:000000000000076f .LASF36
     /tmp/ccsGSfA2.s:6049   .debug_str:00000000000005bc .LASF37
     /tmp/ccsGSfA2.s:6217   .debug_str:0000000000000b3f .LASF39
     /tmp/ccsGSfA2.s:5973   .debug_str:0000000000000374 .LASF41
     /tmp/ccsGSfA2.s:6241   .debug_str:0000000000000bb7 .LASF42
     /tmp/ccsGSfA2.s:5969   .debug_str:000000000000034c .LASF44
     /tmp/ccsGSfA2.s:6035   .debug_str:0000000000000559 .LASF43
     /tmp/ccsGSfA2.s:6197   .debug_str:0000000000000a9e .LASF45
     /tmp/ccsGSfA2.s:5949   .debug_str:00000000000002c7 .LASF46
     /tmp/ccsGSfA2.s:5925   .debug_str:000000000000020f .LASF47
     /tmp/ccsGSfA2.s:6233   .debug_str:0000000000000b96 .LASF48
     /tmp/ccsGSfA2.s:5879   .debug_str:00000000000000e8 .LASF49
     /tmp/ccsGSfA2.s:6189   .debug_str:00000000000009af .LASF50
     /tmp/ccsGSfA2.s:5905   .debug_str:000000000000018a .LASF51
     /tmp/ccsGSfA2.s:6275   .debug_str:0000000000000cba .LASF52
     /tmp/ccsGSfA2.s:5985   .debug_str:00000000000003ee .LASF53
     /tmp/ccsGSfA2.s:5859   .debug_str:000000000000003c .LASF54
     /tmp/ccsGSfA2.s:6075   .debug_str:000000000000068d .LASF55
     /tmp/ccsGSfA2.s:6211   .debug_str:0000000000000b0d .LASF56
     /tmp/ccsGSfA2.s:5909   .debug_str:00000000000001a8 .LASF57
     /tmp/ccsGSfA2.s:6267   .debug_str:0000000000000c7f .LASF58
     /tmp/ccsGSfA2.s:6227   .debug_str:0000000000000b7f .LASF59
     /tmp/ccsGSfA2.s:6201   .debug_str:0000000000000ac5 .LASF60
     /tmp/ccsGSfA2.s:6191   .debug_str:00000000000009b7 .LASF61
     /tmp/ccsGSfA2.s:6085   .debug_str:00000000000006c4 .LASF62
GAS LISTING /tmp/ccsGSfA2.s 			page 44


     /tmp/ccsGSfA2.s:5855   .debug_str:000000000000002a .LASF63
     /tmp/ccsGSfA2.s:6137   .debug_str:0000000000000857 .LASF64
     /tmp/ccsGSfA2.s:6237   .debug_str:0000000000000ba7 .LASF65
     /tmp/ccsGSfA2.s:6261   .debug_str:0000000000000c55 .LASF209
     /tmp/ccsGSfA2.s:5937   .debug_str:0000000000000273 .LASF93
     /tmp/ccsGSfA2.s:5865   .debug_str:000000000000006c .LASF95
     /tmp/ccsGSfA2.s:6141   .debug_str:000000000000086c .LASF88
     /tmp/ccsGSfA2.s:5867   .debug_str:0000000000000094 .LASF90
     /tmp/ccsGSfA2.s:6259   .debug_str:0000000000000c4f .LASF66
     /tmp/ccsGSfA2.s:6159   .debug_str:0000000000000901 .LASF67
     /tmp/ccsGSfA2.s:6029   .debug_str:0000000000000536 .LASF68
     /tmp/ccsGSfA2.s:6073   .debug_str:000000000000067a .LASF69
     /tmp/ccsGSfA2.s:5951   .debug_str:00000000000002d0 .LASF70
     /tmp/ccsGSfA2.s:5955   .debug_str:00000000000002db .LASF71
     /tmp/ccsGSfA2.s:6169   .debug_str:0000000000000940 .LASF72
     /tmp/ccsGSfA2.s:5891   .debug_str:0000000000000143 .LASF73
     /tmp/ccsGSfA2.s:6251   .debug_str:0000000000000c1f .LASF74
     /tmp/ccsGSfA2.s:6065   .debug_str:000000000000063c .LASF75
     /tmp/ccsGSfA2.s:5957   .debug_str:00000000000002eb .LASF76
     /tmp/ccsGSfA2.s:6223   .debug_str:0000000000000b6b .LASF77
     /tmp/ccsGSfA2.s:6005   .debug_str:000000000000048a .LASF78
     /tmp/ccsGSfA2.s:6185   .debug_str:0000000000000988 .LASF79
     /tmp/ccsGSfA2.s:5861   .debug_str:000000000000004c .LASF80
     /tmp/ccsGSfA2.s:5875   .debug_str:00000000000000b9 .LASF81
     /tmp/ccsGSfA2.s:6247   .debug_str:0000000000000bf0 .LASF82
     /tmp/ccsGSfA2.s:6215   .debug_str:0000000000000b2f .LASF83
     /tmp/ccsGSfA2.s:6131   .debug_str:0000000000000830 .LASF84
     /tmp/ccsGSfA2.s:6025   .debug_str:0000000000000521 .LASF85
     /tmp/ccsGSfA2.s:6077   .debug_str:000000000000069a .LASF86
     /tmp/ccsGSfA2.s:6231   .debug_str:0000000000000b8e .LASF87
     /tmp/ccsGSfA2.s:5953   .debug_str:00000000000002d5 .LASF89
     /tmp/ccsGSfA2.s:6209   .debug_str:0000000000000b00 .LASF91
     /tmp/ccsGSfA2.s:6051   .debug_str:00000000000005ce .LASF92
     /tmp/ccsGSfA2.s:6257   .debug_str:0000000000000c4a .LASF185
     /tmp/ccsGSfA2.s:5941   .debug_str:000000000000029b .LASF210
     /tmp/ccsGSfA2.s:6053   .debug_str:00000000000005d6 .LASF94
     /tmp/ccsGSfA2.s:6255   .debug_str:0000000000000c37 .LASF96
     /tmp/ccsGSfA2.s:6177   .debug_str:0000000000000962 .LASF97
     /tmp/ccsGSfA2.s:6117   .debug_str:00000000000007cd .LASF98
     /tmp/ccsGSfA2.s:6067   .debug_str:0000000000000652 .LASF99
     /tmp/ccsGSfA2.s:5945   .debug_str:00000000000002b5 .LASF101
     /tmp/ccsGSfA2.s:6207   .debug_str:0000000000000afb .LASF102
     /tmp/ccsGSfA2.s:5915   .debug_str:00000000000001d6 .LASF103
     /tmp/ccsGSfA2.s:5965   .debug_str:000000000000031f .LASF104
     /tmp/ccsGSfA2.s:5939   .debug_str:0000000000000281 .LASF105
     /tmp/ccsGSfA2.s:6101   .debug_str:0000000000000754 .LASF144
     /tmp/ccsGSfA2.s:6221   .debug_str:0000000000000b65 .LASF106
     /tmp/ccsGSfA2.s:6027   .debug_str:0000000000000531 .LASF107
     /tmp/ccsGSfA2.s:5885   .debug_str:0000000000000115 .LASF108
     /tmp/ccsGSfA2.s:5983   .debug_str:00000000000003d6 .LASF109
     /tmp/ccsGSfA2.s:6091   .debug_str:000000000000070b .LASF123
     /tmp/ccsGSfA2.s:6173   .debug_str:000000000000094f .LASF110
     /tmp/ccsGSfA2.s:5933   .debug_str:0000000000000259 .LASF111
     /tmp/ccsGSfA2.s:6011   .debug_str:00000000000004a7 .LASF112
     /tmp/ccsGSfA2.s:5877   .debug_str:00000000000000cc .LASF113
     /tmp/ccsGSfA2.s:6033   .debug_str:0000000000000551 .LASF114
     /tmp/ccsGSfA2.s:6063   .debug_str:000000000000061d .LASF115
GAS LISTING /tmp/ccsGSfA2.s 			page 45


     /tmp/ccsGSfA2.s:5899   .debug_str:0000000000000168 .LASF116
     /tmp/ccsGSfA2.s:6061   .debug_str:0000000000000601 .LASF117
     /tmp/ccsGSfA2.s:5931   .debug_str:0000000000000244 .LASF118
     /tmp/ccsGSfA2.s:6243   .debug_str:0000000000000bc5 .LASF119
     /tmp/ccsGSfA2.s:6229   .debug_str:0000000000000b84 .LASF120
     /tmp/ccsGSfA2.s:6153   .debug_str:00000000000008ce .LASF129
     /tmp/ccsGSfA2.s:6269   .debug_str:0000000000000c85 .LASF131
     /tmp/ccsGSfA2.s:6181   .debug_str:0000000000000971 .LASF121
     /tmp/ccsGSfA2.s:6107   .debug_str:000000000000078b .LASF122
     /tmp/ccsGSfA2.s:6145   .debug_str:000000000000088f .LASF124
     /tmp/ccsGSfA2.s:6203   .debug_str:0000000000000acf .LASF125
     /tmp/ccsGSfA2.s:6205   .debug_str:0000000000000ae4 .LASF126
     /tmp/ccsGSfA2.s:5963   .debug_str:0000000000000316 .LASF127
     /tmp/ccsGSfA2.s:6003   .debug_str:000000000000047a .LASF211
     /tmp/ccsGSfA2.s:5997   .debug_str:0000000000000459 .LASF128
     /tmp/ccsGSfA2.s:5927   .debug_str:0000000000000222 .LASF130
     /tmp/ccsGSfA2.s:6121   .debug_str:00000000000007e7 .LASF132
     /tmp/ccsGSfA2.s:6279   .debug_str:0000000000000cd0 .LASF133
     /tmp/ccsGSfA2.s:6155   .debug_str:00000000000008e3 .LASF134
     /tmp/ccsGSfA2.s:5967   .debug_str:000000000000033d .LASF135
     /tmp/ccsGSfA2.s:6037   .debug_str:000000000000055f .LASF136
     /tmp/ccsGSfA2.s:6183   .debug_str:0000000000000983 .LASF137
     /tmp/ccsGSfA2.s:6097   .debug_str:000000000000073a .LASF138
     /tmp/ccsGSfA2.s:6083   .debug_str:00000000000006ae .LASF139
     /tmp/ccsGSfA2.s:5887   .debug_str:000000000000012a .LASF140
     /tmp/ccsGSfA2.s:6195   .debug_str:0000000000000a8b .LASF141
     /tmp/ccsGSfA2.s:6013   .debug_str:00000000000004af .LASF142
     /tmp/ccsGSfA2.s:6001   .debug_str:0000000000000469 .LASF212
     /tmp/ccsGSfA2.s:5857   .debug_str:0000000000000037 .LASF143
     /tmp/ccsGSfA2.s:6187   .debug_str:0000000000000999 .LASF145
     /tmp/ccsGSfA2.s:5923   .debug_str:0000000000000200 .LASF146
     /tmp/ccsGSfA2.s:6213   .debug_str:0000000000000b15 .LASF147
     /tmp/ccsGSfA2.s:6219   .debug_str:0000000000000b4a .LASF148
     /tmp/ccsGSfA2.s:6179   .debug_str:0000000000000967 .LASF149
     /tmp/ccsGSfA2.s:5981   .debug_str:00000000000003b6 .LASF150
     /tmp/ccsGSfA2.s:6021   .debug_str:00000000000004f6 .LASF151
     /tmp/ccsGSfA2.s:5987   .debug_str:00000000000003fa .LASF152
     /tmp/ccsGSfA2.s:5853   .debug_str:0000000000000000 .LASF213
     /tmp/ccsGSfA2.s:5895   .debug_str:000000000000015a .LASF153
     /tmp/ccsGSfA2.s:6055   .debug_str:00000000000005db .LASF154
     /tmp/ccsGSfA2.s:6087   .debug_str:00000000000006d0 .LASF155
     /tmp/ccsGSfA2.s:6071   .debug_str:000000000000066a .LASF156
     /tmp/ccsGSfA2.s:5863   .debug_str:0000000000000054 .LASF214
     /tmp/ccsGSfA2.s:5975   .debug_str:000000000000038c .LASF157
     /tmp/ccsGSfA2.s:5869   .debug_str:00000000000000a0 .LASF158
     /tmp/ccsGSfA2.s:6281   .debug_str:0000000000000ce7 .LASF159
     /tmp/ccsGSfA2.s:511    .text._ZN14PeriodicThreadD0Ev:0000000000000000 .LFB78
     /tmp/ccsGSfA2.s:551    .text._ZN14PeriodicThreadD0Ev:000000000000004c .LFE78
     /tmp/ccsGSfA2.s:5287   .debug_loc:0000000000000000 .LLST12
     /tmp/ccsGSfA2.s:527    .text._ZN14PeriodicThreadD0Ev:0000000000000018 .LBB73
     /tmp/ccsGSfA2.s:535    .text._ZN14PeriodicThreadD0Ev:000000000000002c .LBE73
     /tmp/ccsGSfA2.s:5305   .debug_loc:000000000000004c .LLST13
     /tmp/ccsGSfA2.s:533    .text._ZN14PeriodicThreadD0Ev:000000000000002c .LVL39
     /tmp/ccsGSfA2.s:538    .text._ZN14PeriodicThreadD0Ev:0000000000000038 .LVL40
     /tmp/ccsGSfA2.s:6125   .debug_str:00000000000007fb .LASF160
     /tmp/ccsGSfA2.s:218    .text._ZN14PeriodicThreadD2Ev:0000000000000000 .LFB76
     /tmp/ccsGSfA2.s:246    .text._ZN14PeriodicThreadD2Ev:0000000000000034 .LFE76
GAS LISTING /tmp/ccsGSfA2.s 			page 46


     /tmp/ccsGSfA2.s:5316   .debug_loc:0000000000000082 .LLST4
     /tmp/ccsGSfA2.s:235    .text._ZN14PeriodicThreadD2Ev:0000000000000024 .LVL16
     /tmp/ccsGSfA2.s:1301   .text:0000000000000584 .LFB74
     /tmp/ccsGSfA2.s:1327   .text:00000000000005ac .LFE74
     /tmp/ccsGSfA2.s:5330   .debug_loc:00000000000000bb .LLST32
     /tmp/ccsGSfA2.s:1316   .text:000000000000059c .LVL98
     /tmp/ccsGSfA2.s:1270   .text:000000000000055c .LFB73
     /tmp/ccsGSfA2.s:1295   .text:0000000000000584 .LFE73
     /tmp/ccsGSfA2.s:1284   .text:0000000000000574 .LVL96
     /tmp/ccsGSfA2.s:918    .text:000000000000038c .LFB72
     /tmp/ccsGSfA2.s:971    .text:00000000000003dc .LFE72
     /tmp/ccsGSfA2.s:5959   .debug_str:00000000000002f8 .LASF161
     /tmp/ccsGSfA2.s:5344   .debug_loc:00000000000000f4 .LLST23
     /tmp/ccsGSfA2.s:938    .text:00000000000003a8 .LBB80
     /tmp/ccsGSfA2.s:956    .text:00000000000003c8 .LBE80
     /tmp/ccsGSfA2.s:947    .text:00000000000003b8 .LVL70
     /tmp/ccsGSfA2.s:952    .text:00000000000003c4 .LVL71
     /tmp/ccsGSfA2.s:6161   .debug_str:0000000000000906 .LASF162
     /tmp/ccsGSfA2.s:1217   .text:0000000000000500 .LFB70
     /tmp/ccsGSfA2.s:1262   .text:000000000000055c .LFE70
     /tmp/ccsGSfA2.s:5359   .debug_loc:000000000000013d .LLST30
     /tmp/ccsGSfA2.s:5377   .debug_loc:0000000000000189 .LLST31
     /tmp/ccsGSfA2.s:1241   .text:0000000000000534 .LVL93
     /tmp/ccsGSfA2.s:1193   .text:00000000000004e8 .LFB68
     /tmp/ccsGSfA2.s:1211   .text:0000000000000500 .LFE68
     /tmp/ccsGSfA2.s:1159   .text:00000000000004bc .LFB67
     /tmp/ccsGSfA2.s:1187   .text:00000000000004e8 .LFE67
     /tmp/ccsGSfA2.s:5396   .debug_loc:00000000000001d6 .LLST29
     /tmp/ccsGSfA2.s:1176   .text:00000000000004d8 .LVL89
     /tmp/ccsGSfA2.s:1125   .text:0000000000000490 .LFB66
     /tmp/ccsGSfA2.s:1153   .text:00000000000004bc .LFE66
     /tmp/ccsGSfA2.s:5410   .debug_loc:000000000000020f .LLST28
     /tmp/ccsGSfA2.s:1142   .text:00000000000004ac .LVL86
     /tmp/ccsGSfA2.s:6041   .debug_str:000000000000057f .LASF163
     /tmp/ccsGSfA2.s:558    .text:00000000000001dc .LFB65
     /tmp/ccsGSfA2.s:591    .text:000000000000021c .LFE65
     /tmp/ccsGSfA2.s:5424   .debug_loc:0000000000000248 .LLST14
     /tmp/ccsGSfA2.s:575    .text:00000000000001fc .LVL43
     /tmp/ccsGSfA2.s:578    .text:0000000000000208 .LVL44
     /tmp/ccsGSfA2.s:5881   .debug_str:00000000000000fa .LASF164
     /tmp/ccsGSfA2.s:255    .text:00000000000000ac .LFB63
     /tmp/ccsGSfA2.s:351    .text:0000000000000124 .LFE63
     /tmp/ccsGSfA2.s:5442   .debug_loc:0000000000000294 .LLST5
     /tmp/ccsGSfA2.s:289    .text:00000000000000e4 .LBB65
     /tmp/ccsGSfA2.s:332    .text:0000000000000104 .LBE65
     /tmp/ccsGSfA2.s:290    .text:00000000000000e4 .LBB66
     /tmp/ccsGSfA2.s:331    .text:0000000000000104 .LBE66
     /tmp/ccsGSfA2.s:295    .text:00000000000000e4 .LBB68
     /tmp/ccsGSfA2.s:303    .text:00000000000000e8 .LBE68
     /tmp/ccsGSfA2.s:306    .text:00000000000000ec .LBB70
     /tmp/ccsGSfA2.s:329    .text:0000000000000104 .LBE70
     /tmp/ccsGSfA2.s:5460   .debug_loc:00000000000002e0 .LLST6
     /tmp/ccsGSfA2.s:318    .text:00000000000000f8 .LBB71
     /tmp/ccsGSfA2.s:328    .text:0000000000000104 .LBE71
     /tmp/ccsGSfA2.s:5467   .debug_loc:0000000000000303 .LLST7
     /tmp/ccsGSfA2.s:323    .text:0000000000000100 .LVL25
     /tmp/ccsGSfA2.s:281    .text:00000000000000dc .LVL19
GAS LISTING /tmp/ccsGSfA2.s 			page 47


     /tmp/ccsGSfA2.s:336    .text:0000000000000110 .LVL26
     /tmp/ccsGSfA2.s:5907   .debug_str:000000000000019b .LASF171
     /tmp/ccsGSfA2.s:5893   .debug_str:0000000000000155 .LASF165
     /tmp/ccsGSfA2.s:5919   .debug_str:00000000000001e5 .LASF166
     /tmp/ccsGSfA2.s:1084   .text:0000000000000458 .LFB57
     /tmp/ccsGSfA2.s:1117   .text:0000000000000490 .LFE57
     /tmp/ccsGSfA2.s:5474   .debug_loc:0000000000000326 .LLST26
     /tmp/ccsGSfA2.s:5494   .debug_loc:0000000000000374 .LLST27
     /tmp/ccsGSfA2.s:1105   .text:0000000000000480 .LVL83
     /tmp/ccsGSfA2.s:62     .text:0000000000000000 .LFB55
     /tmp/ccsGSfA2.s:98     .text:0000000000000034 .LFE55
     /tmp/ccsGSfA2.s:6123   .debug_str:00000000000007f4 .LASF167
     /tmp/ccsGSfA2.s:5508   .debug_loc:00000000000003ad .LLST0
     /tmp/ccsGSfA2.s:84     .text:0000000000000020 .LVL3
     /tmp/ccsGSfA2.s:6129   .debug_str:0000000000000821 .LASF168
     /tmp/ccsGSfA2.s:977    .text:00000000000003dc .LFB53
     /tmp/ccsGSfA2.s:1076   .text:0000000000000458 .LFE53
     /tmp/ccsGSfA2.s:5526   .debug_loc:00000000000003f9 .LLST24
     /tmp/ccsGSfA2.s:1012   .text:000000000000041c .LVL76
     /tmp/ccsGSfA2.s:996    .text:0000000000000400 .LBB82
     /tmp/ccsGSfA2.s:1061   .text:0000000000000444 .LBE82
     /tmp/ccsGSfA2.s:5550   .debug_loc:000000000000045a .LLST25
     /tmp/ccsGSfA2.s:884    .text:0000000000000360 .LFB51
     /tmp/ccsGSfA2.s:912    .text:000000000000038c .LFE51
     /tmp/ccsGSfA2.s:5562   .debug_loc:0000000000000491 .LLST22
     /tmp/ccsGSfA2.s:899    .text:0000000000000378 .LVL67
     /tmp/ccsGSfA2.s:853    .text:0000000000000338 .LFB50
     /tmp/ccsGSfA2.s:878    .text:0000000000000360 .LFE50
     /tmp/ccsGSfA2.s:867    .text:0000000000000350 .LVL65
     /tmp/ccsGSfA2.s:819    .text:000000000000030c .LFB49
     /tmp/ccsGSfA2.s:847    .text:0000000000000338 .LFE49
     /tmp/ccsGSfA2.s:5576   .debug_loc:00000000000004ca .LLST21
     /tmp/ccsGSfA2.s:836    .text:0000000000000328 .LVL64
     /tmp/ccsGSfA2.s:760    .text:00000000000002d4 .LFB48
     /tmp/ccsGSfA2.s:813    .text:000000000000030c .LFE48
     /tmp/ccsGSfA2.s:5590   .debug_loc:0000000000000503 .LLST20
     /tmp/ccsGSfA2.s:6043   .debug_str:0000000000000591 .LASF169
     /tmp/ccsGSfA2.s:471    .text:000000000000019c .LFB47
     /tmp/ccsGSfA2.s:504    .text:00000000000001dc .LFE47
     /tmp/ccsGSfA2.s:5615   .debug_loc:0000000000000565 .LLST11
     /tmp/ccsGSfA2.s:488    .text:00000000000001bc .LVL34
     /tmp/ccsGSfA2.s:491    .text:00000000000001c8 .LVL35
     /tmp/ccsGSfA2.s:6253   .debug_str:0000000000000c28 .LASF170
     /tmp/ccsGSfA2.s:104    .text:0000000000000034 .LFB45
     /tmp/ccsGSfA2.s:201    .text:00000000000000ac .LFE45
     /tmp/ccsGSfA2.s:5633   .debug_loc:00000000000005b1 .LLST1
     /tmp/ccsGSfA2.s:138    .text:000000000000006c .LBB55
     /tmp/ccsGSfA2.s:182    .text:000000000000008c .LBE55
     /tmp/ccsGSfA2.s:139    .text:000000000000006c .LBB56
     /tmp/ccsGSfA2.s:181    .text:000000000000008c .LBE56
     /tmp/ccsGSfA2.s:145    .text:000000000000006c .LBB58
     /tmp/ccsGSfA2.s:153    .text:0000000000000070 .LBE58
     /tmp/ccsGSfA2.s:156    .text:0000000000000074 .LBB60
     /tmp/ccsGSfA2.s:179    .text:000000000000008c .LBE60
     /tmp/ccsGSfA2.s:5651   .debug_loc:00000000000005fd .LLST2
     /tmp/ccsGSfA2.s:168    .text:0000000000000080 .LBB61
     /tmp/ccsGSfA2.s:178    .text:000000000000008c .LBE61
GAS LISTING /tmp/ccsGSfA2.s 			page 48


     /tmp/ccsGSfA2.s:5658   .debug_loc:0000000000000620 .LLST3
     /tmp/ccsGSfA2.s:173    .text:0000000000000088 .LVL13
     /tmp/ccsGSfA2.s:130    .text:0000000000000064 .LVL7
     /tmp/ccsGSfA2.s:186    .text:0000000000000098 .LVL14
     /tmp/ccsGSfA2.s:6059   .debug_str:00000000000005f5 .LASF172
     /tmp/ccsGSfA2.s:6199   .debug_str:0000000000000aae .LASF173
     /tmp/ccsGSfA2.s:638    .text:0000000000000244 .LFB39
     /tmp/ccsGSfA2.s:752    .text:00000000000002d4 .LFE39
     /tmp/ccsGSfA2.s:5665   .debug_loc:0000000000000643 .LLST16
     /tmp/ccsGSfA2.s:5693   .debug_loc:00000000000006b7 .LLST17
     /tmp/ccsGSfA2.s:5715   .debug_loc:0000000000000716 .LLST18
     /tmp/ccsGSfA2.s:679    .text:0000000000000290 .LVL51
     /tmp/ccsGSfA2.s:5737   .debug_loc:0000000000000775 .LLST19
     /tmp/ccsGSfA2.s:6271   .debug_str:0000000000000c95 .LASF174
     /tmp/ccsGSfA2.s:5897   .debug_str:0000000000000161 .LASF175
     /tmp/ccsGSfA2.s:597    .text:000000000000021c .LFB37
     /tmp/ccsGSfA2.s:625    .text:0000000000000244 .LFE37
     /tmp/ccsGSfA2.s:5754   .debug_loc:00000000000007c0 .LLST15
     /tmp/ccsGSfA2.s:614    .text:0000000000000234 .LVL47
     /tmp/ccsGSfA2.s:6079   .debug_str:00000000000006a2 .LASF176
     /tmp/ccsGSfA2.s:430    .text:0000000000000174 .LFB36
     /tmp/ccsGSfA2.s:458    .text:000000000000019c .LFE36
     /tmp/ccsGSfA2.s:5768   .debug_loc:00000000000007f9 .LLST10
     /tmp/ccsGSfA2.s:447    .text:000000000000018c .LVL32
     /tmp/ccsGSfA2.s:5903   .debug_str:000000000000017a .LASF177
     /tmp/ccsGSfA2.s:6175   .debug_str:000000000000095c .LASF178
     /tmp/ccsGSfA2.s:398    .text:000000000000014c .LFB35
     /tmp/ccsGSfA2.s:424    .text:0000000000000174 .LFE35
     /tmp/ccsGSfA2.s:5935   .debug_str:000000000000026e .LASF179
     /tmp/ccsGSfA2.s:5782   .debug_loc:0000000000000832 .LLST9
     /tmp/ccsGSfA2.s:413    .text:0000000000000164 .LVL30
     /tmp/ccsGSfA2.s:6225   .debug_str:0000000000000b79 .LASF180
     /tmp/ccsGSfA2.s:366    .text:0000000000000124 .LFB34
     /tmp/ccsGSfA2.s:392    .text:000000000000014c .LFE34
     /tmp/ccsGSfA2.s:5796   .debug_loc:000000000000086b .LLST8
     /tmp/ccsGSfA2.s:381    .text:000000000000013c .LVL28
     /tmp/ccsGSfA2.s:6133   .debug_str:000000000000083a .LASF181
     /tmp/ccsGSfA2.s:5979   .debug_str:00000000000003a1 .LASF182
     /tmp/ccsGSfA2.s:37     .text._ZN14PeriodicThread18periodicActivationEv:0000000000000000 .LFB1
     /tmp/ccsGSfA2.s:55     .text._ZN14PeriodicThread18periodicActivationEv:0000000000000018 .LFE1
     /tmp/ccsGSfA2.s:11     .text._ZN6Thread3runEv:0000000000000000 .LFB0
     /tmp/ccsGSfA2.s:30     .text._ZN6Thread3runEv:0000000000000018 .LFE0
     /tmp/ccsGSfA2.s:6167   .debug_str:0000000000000937 .LASF183
     /tmp/ccsGSfA2.s:6235   .debug_str:0000000000000b9e .LASF184
     /tmp/ccsGSfA2.s:6119   .debug_str:00000000000007d2 .LASF186
     /tmp/ccsGSfA2.s:5995   .debug_str:000000000000044e .LASF187
     /tmp/ccsGSfA2.s:6273   .debug_str:0000000000000ca8 .LASF188
     /tmp/ccsGSfA2.s:6277   .debug_str:0000000000000cc7 .LASF189
     /tmp/ccsGSfA2.s:6263   .debug_str:0000000000000c6b .LASF190
     /tmp/ccsGSfA2.s:5999   .debug_str:0000000000000460 .LASF191
     /tmp/ccsGSfA2.s:5889   .debug_str:0000000000000130 .LASF192
     /tmp/ccsGSfA2.s:6109   .debug_str:0000000000000796 .LASF193
     /tmp/ccsGSfA2.s:6105   .debug_str:0000000000000777 .LASF194
     /tmp/ccsGSfA2.s:5883   .debug_str:000000000000010c .LASF195
     /tmp/ccsGSfA2.s:5993   .debug_str:0000000000000440 .LASF196
     /tmp/ccsGSfA2.s:6057   .debug_str:00000000000005eb .LASF197
     /tmp/ccsGSfA2.s:6093   .debug_str:0000000000000723 .LASF198
GAS LISTING /tmp/ccsGSfA2.s 			page 49


     /tmp/ccsGSfA2.s:6147   .debug_str:00000000000008a1 .LASF199
     /tmp/ccsGSfA2.s:6245   .debug_str:0000000000000bdb .LASF200
     /tmp/ccsGSfA2.s:6113   .debug_str:00000000000007b8 .LASF201
     /tmp/ccsGSfA2.s:6151   .debug_str:00000000000008b9 .LASF202
     /tmp/ccsGSfA2.s:6069   .debug_str:000000000000065e .LASF203
     /tmp/ccsGSfA2.s:514    .text._ZN14PeriodicThreadD0Ev:0000000000000000 .LVL37
     /tmp/ccsGSfA2.s:546    .text._ZN14PeriodicThreadD0Ev:0000000000000044 .LVL41
     /tmp/ccsGSfA2.s:526    .text._ZN14PeriodicThreadD0Ev:0000000000000018 .LVL38
     /tmp/ccsGSfA2.s:221    .text._ZN14PeriodicThreadD2Ev:0000000000000000 .LVL15
     /tmp/ccsGSfA2.s:1304   .text:0000000000000584 .LVL97
     /tmp/ccsGSfA2.s:921    .text:000000000000038c .LVL68
     /tmp/ccsGSfA2.s:936    .text:00000000000003a8 .LVL69
     /tmp/ccsGSfA2.s:966    .text:00000000000003d4 .LVL72
     /tmp/ccsGSfA2.s:1220   .text:0000000000000500 .LVL91
     /tmp/ccsGSfA2.s:1254   .text:0000000000000550 .LVL94
     /tmp/ccsGSfA2.s:1239   .text:000000000000052c .LVL92
     /tmp/ccsGSfA2.s:1257   .text:0000000000000554 .LVL95
     /tmp/ccsGSfA2.s:1162   .text:00000000000004bc .LVL87
     /tmp/ccsGSfA2.s:1174   .text:00000000000004d0 .LVL88
     /tmp/ccsGSfA2.s:1128   .text:0000000000000490 .LVL84
     /tmp/ccsGSfA2.s:1140   .text:00000000000004a4 .LVL85
     /tmp/ccsGSfA2.s:561    .text:00000000000001dc .LVL42
     /tmp/ccsGSfA2.s:586    .text:0000000000000214 .LVL45
     /tmp/ccsGSfA2.s:260    .text:00000000000000ac .LVL17
     /tmp/ccsGSfA2.s:279    .text:00000000000000d4 .LVL18
     /tmp/ccsGSfA2.s:285    .text:00000000000000e0 .LVL20
     /tmp/ccsGSfA2.s:308    .text:00000000000000ec .LVL23
     /tmp/ccsGSfA2.s:317    .text:00000000000000f8 .LVL24
     /tmp/ccsGSfA2.s:1087   .text:0000000000000458 .LVL81
     /tmp/ccsGSfA2.s:1103   .text:0000000000000478 .LVL82
     /tmp/ccsGSfA2.s:66     .text:0000000000000000 .LVL2
     /tmp/ccsGSfA2.s:94     .text:0000000000000030 .LVL4
     /tmp/ccsGSfA2.s:980    .text:00000000000003dc .LVL73
     /tmp/ccsGSfA2.s:1010   .text:0000000000000414 .LVL75
     /tmp/ccsGSfA2.s:1044   .text:0000000000000438 .LVL79
     /tmp/ccsGSfA2.s:1071   .text:0000000000000450 .LVL80
     /tmp/ccsGSfA2.s:1005   .text:0000000000000410 .LVL74
     /tmp/ccsGSfA2.s:1014   .text:0000000000000420 .LVL77
     /tmp/ccsGSfA2.s:1025   .text:0000000000000428 .LVL78
     /tmp/ccsGSfA2.s:887    .text:0000000000000360 .LVL66
     /tmp/ccsGSfA2.s:822    .text:000000000000030c .LVL62
     /tmp/ccsGSfA2.s:834    .text:0000000000000320 .LVL63
     /tmp/ccsGSfA2.s:763    .text:00000000000002d4 .LVL58
     /tmp/ccsGSfA2.s:781    .text:00000000000002ec .LVL59
     /tmp/ccsGSfA2.s:805    .text:0000000000000304 .LVL60
     /tmp/ccsGSfA2.s:810    .text:0000000000000308 .LVL61
     /tmp/ccsGSfA2.s:474    .text:000000000000019c .LVL33
     /tmp/ccsGSfA2.s:499    .text:00000000000001d4 .LVL36
     /tmp/ccsGSfA2.s:109    .text:0000000000000034 .LVL5
     /tmp/ccsGSfA2.s:128    .text:000000000000005c .LVL6
     /tmp/ccsGSfA2.s:134    .text:0000000000000068 .LVL8
     /tmp/ccsGSfA2.s:158    .text:0000000000000074 .LVL11
     /tmp/ccsGSfA2.s:167    .text:0000000000000080 .LVL12
     /tmp/ccsGSfA2.s:641    .text:0000000000000244 .LVL48
     /tmp/ccsGSfA2.s:677    .text:0000000000000288 .LVL50
     /tmp/ccsGSfA2.s:703    .text:00000000000002a4 .LVL53
     /tmp/ccsGSfA2.s:731    .text:00000000000002bc .LVL54
GAS LISTING /tmp/ccsGSfA2.s 			page 50


     /tmp/ccsGSfA2.s:741    .text:00000000000002cc .LVL57
     /tmp/ccsGSfA2.s:734    .text:00000000000002c0 .LVL55
     /tmp/ccsGSfA2.s:737    .text:00000000000002c4 .LVL56
     /tmp/ccsGSfA2.s:671    .text:0000000000000280 .LVL49
     /tmp/ccsGSfA2.s:681    .text:0000000000000294 .LVL52
     /tmp/ccsGSfA2.s:602    .text:000000000000021c .LVL46
     /tmp/ccsGSfA2.s:435    .text:0000000000000174 .LVL31
     /tmp/ccsGSfA2.s:401    .text:000000000000014c .LVL29
     /tmp/ccsGSfA2.s:369    .text:0000000000000124 .LVL27
     /tmp/ccsGSfA2.s:1369   .debug_info:0000000000000000 .Ldebug_info0
     /tmp/ccsGSfA2.s:5      .text:0000000000000000 .Ltext0
     /tmp/ccsGSfA2.s:1363   .text:00000000000005ac .Letext0
     /tmp/ccsGSfA2.s:663    .text:0000000000000278 .LBB76
     /tmp/ccsGSfA2.s:720    .text:00000000000002b0 .LBE76
     /tmp/ccsGSfA2.s:745    .text:00000000000002cc .LBB77
     /tmp/ccsGSfA2.s:749    .text:00000000000002d4 .LBE77
     /tmp/ccsGSfA2.s:204    .gcc_except_table:0000000000000000 .LLSDA45
     /tmp/ccsGSfA2.s:353    .gcc_except_table:0000000000000004 .LLSDA63
     /tmp/ccsGSfA2.s:460    .gcc_except_table:0000000000000008 .LLSDA36
     /tmp/ccsGSfA2.s:627    .gcc_except_table:000000000000000c .LLSDA37
                           .group:0000000000000000 _ZN14PeriodicThreadD5Ev

UNDEFINED SYMBOLS
_Z11thread_joinP3TCB
_Z8mem_freePv
_ZN3TCBdlEPv
__gxx_personality_v0
_Z9sem_closeP4KSem
_ZN4KSemdlEPv
_Z9mem_allocm
_Z15thread_dispatchv
_Z10time_sleepm
_Z8sem_openPP4KSemj
_Z8sem_waitP4KSem
_Z10sem_signalP4KSem
_Z4getcv
_Z4putcc
