GAS LISTING /tmp/ccplzS8I.s 			page 1


   1              		.file	"syscall_c.cpp"
   2              		.option pic
   3              		.option norelax
   4              		.text
   5              	.Ltext0:
   6              		.align	2
   7              		.globl	_Z9mem_allocm
   9              	_Z9mem_allocm:
  10              	.LFB42:
  11              		.file 1 "src/syscall_c.cpp"
   1:src/syscall_c.cpp **** #include "../h/syscall_c.hpp"
   2:src/syscall_c.cpp **** #include "../h/Riscv.hpp"
   3:src/syscall_c.cpp **** #include "../h/MemoryAllocator.hpp"
   4:src/syscall_c.cpp **** #include "../lib/console.h"
   5:src/syscall_c.cpp **** #include "../h/TCB.hpp"
   6:src/syscall_c.cpp **** 
   7:src/syscall_c.cpp **** inline void scall() {
   8:src/syscall_c.cpp **** 	__asm__ volatile("ecall");
   9:src/syscall_c.cpp **** }
  10:src/syscall_c.cpp **** 
  11:src/syscall_c.cpp **** void* mem_alloc(size_t size) {
  12              		.loc 1 11 30
  13              		.cfi_startproc
  14              	.LVL0:
  15 0000 130101FF 		addi	sp,sp,-16
  16              		.cfi_def_cfa_offset 16
  17 0004 23348100 		sd	s0,8(sp)
  18              		.cfi_offset 8, -8
  19 0008 13040101 		addi	s0,sp,16
  20              		.cfi_def_cfa 8, 0
  12:src/syscall_c.cpp **** 	//na size moramo dodati zaglavlje segmenta
  13:src/syscall_c.cpp **** 	size += sizeof(MemoryAllocator::UsedMemSegment);
  21              		.loc 1 13 2
  22              		.loc 1 13 7 is_stmt 0
  23 000c 13058501 		addi	a0,a0,24
  24              	.LVL1:
  14:src/syscall_c.cpp **** 	//size je u bajtovima, pretvara se u blokove
  15:src/syscall_c.cpp **** 	size = size / MEM_BLOCK_SIZE + (size % MEM_BLOCK_SIZE ? 1 : 0);
  25              		.loc 1 15 2 is_stmt 1
  26              		.loc 1 15 14 is_stmt 0
  27 0010 13536500 		srli	t1,a0,6
  28              		.loc 1 15 39
  29 0014 1375F503 		andi	a0,a0,63
  30              	.LVL2:
  31              		.loc 1 15 56
  32 0018 63040500 		beqz	a0,.L2
  33 001c 13051000 		li	a0,1
  34              	.L2:
  35              		.loc 1 15 7 discriminator 4
  36 0020 3303A300 		add	t1,t1,a0
  37              	.LVL3:
  16:src/syscall_c.cpp **** 
  17:src/syscall_c.cpp **** 	//stavljanje argumenata za sistemski poziv
  18:src/syscall_c.cpp **** 	__asm__ volatile("mv a1, %[size]": :[size] "r"(size):"a5", "a0", "a1", "a2", "a3", "a4", "a6", "a7
  38              		.loc 1 18 2 is_stmt 1 discriminator 4
  39              		.loc 1 18 102 is_stmt 0 discriminator 4
  40              	#APP
GAS LISTING /tmp/ccplzS8I.s 			page 2


  41              	# 18 "src/syscall_c.cpp" 1
  19              		__asm__ volatile("li a0, 0x01");
  42              		mv a1, t1
  43              	# 0 "" 2
  44              		.loc 1 19 2 is_stmt 1 discriminator 4
  45              		.loc 1 19 33 is_stmt 0 discriminator 4
  46              	# 19 "src/syscall_c.cpp" 1
  20              		//a0 = 0x01
  21:src/syscall_c.cpp **** 	//a1 = broj blokova velicine MEM_BLOCK_SIZE za alokaciju
  22:src/syscall_c.cpp **** 
  23:src/syscall_c.cpp **** 	scall();
  47              		li a0, 0x01
  48              	# 0 "" 2
  49              		.loc 1 23 2 is_stmt 1 discriminator 4
  50              	#NO_APP
  51              	.LBB32:
  52              	.LBB33:
   8:src/syscall_c.cpp **** }
  53              		.loc 1 8 2 discriminator 4
   8:src/syscall_c.cpp **** }
  54              		.loc 1 8 27 is_stmt 0 discriminator 4
  55              	#APP
  56              	# 8 "src/syscall_c.cpp" 1
  57              		ecall
  58              	# 0 "" 2
  59              	#NO_APP
  60              	.LBE33:
  61              	.LBE32:
  24:src/syscall_c.cpp **** 
  25:src/syscall_c.cpp **** 	void* ret;
  62              		.loc 1 25 2 is_stmt 1 discriminator 4
  26:src/syscall_c.cpp **** 	__asm__ volatile("mv %[ptr], a0":[ptr] "=r"(ret));
  63              		.loc 1 26 2 discriminator 4
  64              		.loc 1 26 51 is_stmt 0 discriminator 4
  65              	#APP
  66              	# 26 "src/syscall_c.cpp" 1
  27              		return ret;
  67              		mv a0, a0
  68              	# 0 "" 2
  69              	.LVL4:
  70              		.loc 1 27 2 is_stmt 1 discriminator 4
  28:src/syscall_c.cpp **** }
  71              		.loc 1 28 1 is_stmt 0 discriminator 4
  72              	#NO_APP
  73 0034 03348100 		ld	s0,8(sp)
  74              		.cfi_restore 8
  75              		.cfi_def_cfa 2, 16
  76 0038 13010101 		addi	sp,sp,16
  77              		.cfi_def_cfa_offset 0
  78 003c 67800000 		jr	ra
  79              		.cfi_endproc
  80              	.LFE42:
  82              		.align	2
  83              		.globl	_Z8mem_freePv
  85              	_Z8mem_freePv:
  86              	.LFB43:
  29:src/syscall_c.cpp **** 
GAS LISTING /tmp/ccplzS8I.s 			page 3


  30:src/syscall_c.cpp **** int mem_free(void* ptr) {
  87              		.loc 1 30 25 is_stmt 1
  88              		.cfi_startproc
  89              	.LVL5:
  90 0040 130101FF 		addi	sp,sp,-16
  91              		.cfi_def_cfa_offset 16
  92 0044 23348100 		sd	s0,8(sp)
  93              		.cfi_offset 8, -8
  94 0048 13040101 		addi	s0,sp,16
  95              		.cfi_def_cfa 8, 0
  96 004c 13030500 		mv	t1,a0
  31:src/syscall_c.cpp **** 	//stavljanje argumenata za sistemski poziv
  32:src/syscall_c.cpp **** 	__asm__ volatile("mv a1, %[ptr]": :[ptr] "r"(ptr):"a5", "a0", "a1", "a2", "a3", "a4", "a6", "a7");
  97              		.loc 1 32 2
  98              		.loc 1 32 99 is_stmt 0
  99              	#APP
 100              	# 32 "src/syscall_c.cpp" 1
  33              		__asm__ volatile("li a0, 0x02");
 101              		mv a1, t1
 102              	# 0 "" 2
 103              	.LVL6:
 104              		.loc 1 33 2 is_stmt 1
 105              		.loc 1 33 33 is_stmt 0
 106              	# 33 "src/syscall_c.cpp" 1
  34              		//a0 = 0x02
  35:src/syscall_c.cpp **** 	//a1 = pokazivac na memoriju koju treba dealocirati
  36:src/syscall_c.cpp **** 
  37:src/syscall_c.cpp **** 	scall();
 107              		li a0, 0x02
 108              	# 0 "" 2
 109              		.loc 1 37 2 is_stmt 1
 110              	#NO_APP
 111              	.LBB34:
 112              	.LBB35:
   8:src/syscall_c.cpp **** }
 113              		.loc 1 8 2
   8:src/syscall_c.cpp **** }
 114              		.loc 1 8 27 is_stmt 0
 115              	#APP
 116              	# 8 "src/syscall_c.cpp" 1
 117              		ecall
 118              	# 0 "" 2
 119              	#NO_APP
 120              	.LBE35:
 121              	.LBE34:
  38:src/syscall_c.cpp **** 
  39:src/syscall_c.cpp **** 	int status;
 122              		.loc 1 39 2 is_stmt 1
  40:src/syscall_c.cpp **** 	__asm__ volatile("mv %[status], a0":[status] "=r"(status));
 123              		.loc 1 40 2
 124              		.loc 1 40 60 is_stmt 0
 125              	#APP
 126              	# 40 "src/syscall_c.cpp" 1
  41              		return status;
 127              		mv a0, a0
 128              	# 0 "" 2
 129              	.LVL7:
GAS LISTING /tmp/ccplzS8I.s 			page 4


 130              		.loc 1 41 2 is_stmt 1
  42:src/syscall_c.cpp **** }
 131              		.loc 1 42 1 is_stmt 0
 132              	#NO_APP
 133 0060 1B050500 		sext.w	a0,a0
 134 0064 03348100 		ld	s0,8(sp)
 135              		.cfi_restore 8
 136              		.cfi_def_cfa 2, 16
 137 0068 13010101 		addi	sp,sp,16
 138              		.cfi_def_cfa_offset 0
 139 006c 67800000 		jr	ra
 140              		.cfi_endproc
 141              	.LFE43:
 143              		.align	2
 144              		.globl	_Z13thread_createPP3TCBPFvPvES2_
 146              	_Z13thread_createPP3TCBPFvPvES2_:
 147              	.LFB44:
  43:src/syscall_c.cpp **** 
  44:src/syscall_c.cpp **** int thread_create(thread_t* handle, void (* start_routine)(void*), void* arg) {
 148              		.loc 1 44 79 is_stmt 1
 149              		.cfi_startproc
 150              	.LVL8:
 151 0070 130101FD 		addi	sp,sp,-48
 152              		.cfi_def_cfa_offset 48
 153 0074 23341102 		sd	ra,40(sp)
 154 0078 23308102 		sd	s0,32(sp)
 155 007c 233C9100 		sd	s1,24(sp)
 156 0080 23382101 		sd	s2,16(sp)
 157 0084 23343101 		sd	s3,8(sp)
 158              		.cfi_offset 1, -8
 159              		.cfi_offset 8, -16
 160              		.cfi_offset 9, -24
 161              		.cfi_offset 18, -32
 162              		.cfi_offset 19, -40
 163 0088 13040103 		addi	s0,sp,48
 164              		.cfi_def_cfa 8, 0
 165 008c 13090500 		mv	s2,a0
 166 0090 93840500 		mv	s1,a1
 167 0094 93090600 		mv	s3,a2
  45:src/syscall_c.cpp **** 	//stvaranje steka ako se ne radi o main kernel niti, posto ona automatski ima stek
  46:src/syscall_c.cpp **** 	uint64* stack = nullptr;
 168              		.loc 1 46 2
 169              	.LVL9:
  47:src/syscall_c.cpp **** 	if (start_routine != nullptr) {
 170              		.loc 1 47 2
 171 0098 63880504 		beqz	a1,.L8
  48:src/syscall_c.cpp **** 		stack = (uint64*)mem_alloc(DEFAULT_STACK_SIZE);
 172              		.loc 1 48 3
 173              		.loc 1 48 29 is_stmt 0
 174 009c 37150000 		li	a0,4096
 175              	.LVL10:
 176 00a0 97000000 		call	_Z9mem_allocm
 176      E7800000 
 177              	.LVL11:
 178 00a8 13030500 		mv	t1,a0
 179              	.LVL12:
 180              	.L7:
GAS LISTING /tmp/ccplzS8I.s 			page 5


  49:src/syscall_c.cpp **** 	}
  50:src/syscall_c.cpp **** 	//uint64* stack = (start_routine != nullptr ? (uint64*)MemoryAllocator::kmalloc(DEFAULT_STACK_SIZE
  51:src/syscall_c.cpp **** 	//stavljanje argumenata za sistemski poziv
  52:src/syscall_c.cpp **** 	__asm__ volatile("mv a4, %[sp]": :[sp] "r"(stack):"a5", "a0", "a1", "a2", "a3", "a4", "a6", "a7");
 181              		.loc 1 52 2 is_stmt 1
 182              		.loc 1 52 99 is_stmt 0
 183              	#APP
 184              	# 52 "src/syscall_c.cpp" 1
  53              		__asm__ volatile("mv a3, %[arg]": :[arg] "r"(arg):"a5", "a0", "a1", "a2", "a3", "a4", "a6", "a7");
 185              		mv a4, t1
 186              	# 0 "" 2
 187              		.loc 1 53 2 is_stmt 1
 188              		.loc 1 53 99 is_stmt 0
 189              	# 53 "src/syscall_c.cpp" 1
  54              		__asm__ volatile("mv a2, %[function]": :[function] "r"(
 190              		mv a3, s3
 191              	# 0 "" 2
 192              		.loc 1 54 2 is_stmt 1
  55:src/syscall_c.cpp **** 			start_routine):"a5", "a0", "a1", "a2", "a3", "a4", "a6", "a7");
 193              		.loc 1 55 66 is_stmt 0
 194              	# 55 "src/syscall_c.cpp" 1
  56              		__asm__ volatile("mv a1, %[handle]": :[handle] "r"(handle):"a5", "a0", "a1", "a2", "a3", "a4", "a6
 195              		mv a2, s1
 196              	# 0 "" 2
 197              		.loc 1 56 2 is_stmt 1
 198              		.loc 1 56 108 is_stmt 0
 199              	# 56 "src/syscall_c.cpp" 1
  57              		__asm__ volatile("li a0, 0x11");
 200              		mv a1, s2
 201              	# 0 "" 2
 202              		.loc 1 57 2 is_stmt 1
 203              		.loc 1 57 33 is_stmt 0
 204              	# 57 "src/syscall_c.cpp" 1
  58              		//a0 = 0x11
  59:src/syscall_c.cpp **** 	//a1 = adresa pokazivaca na rucku niti
  60:src/syscall_c.cpp **** 	//a2 = prva adresa funkcije koju nit izvrsava
  61:src/syscall_c.cpp **** 	//a3 = pokazivac na argumente funkcije
  62:src/syscall_c.cpp **** 	//a4 = pokazivac na najnizu adresu steka (stek raste ka nizim adresama, pokazuje na poslednju zauz
  63:src/syscall_c.cpp **** 
  64:src/syscall_c.cpp **** 	scall();
 205              		li a0, 0x11
 206              	# 0 "" 2
 207              		.loc 1 64 2 is_stmt 1
 208              	#NO_APP
 209              	.LBB36:
 210              	.LBB37:
   8:src/syscall_c.cpp **** }
 211              		.loc 1 8 2
   8:src/syscall_c.cpp **** }
 212              		.loc 1 8 27 is_stmt 0
 213              	#APP
 214              	# 8 "src/syscall_c.cpp" 1
 215              		ecall
 216              	# 0 "" 2
 217              	#NO_APP
 218              	.LBE37:
 219              	.LBE36:
GAS LISTING /tmp/ccplzS8I.s 			page 6


  65:src/syscall_c.cpp **** 
  66:src/syscall_c.cpp **** 	int status;
 220              		.loc 1 66 2 is_stmt 1
  67:src/syscall_c.cpp **** 	__asm__ volatile("mv %[status], a0":[status] "=r"(status));
 221              		.loc 1 67 2
 222              		.loc 1 67 60 is_stmt 0
 223              	#APP
 224              	# 67 "src/syscall_c.cpp" 1
  68              		return status;
 225              		mv a0, a0
 226              	# 0 "" 2
 227              	.LVL13:
 228              		.loc 1 68 2 is_stmt 1
  69:src/syscall_c.cpp **** }
 229              		.loc 1 69 1 is_stmt 0
 230              	#NO_APP
 231 00c8 1B050500 		sext.w	a0,a0
 232 00cc 83308102 		ld	ra,40(sp)
 233              		.cfi_remember_state
 234              		.cfi_restore 1
 235 00d0 03340102 		ld	s0,32(sp)
 236              		.cfi_restore 8
 237              		.cfi_def_cfa 2, 48
 238 00d4 83348101 		ld	s1,24(sp)
 239              		.cfi_restore 9
 240              	.LVL14:
 241 00d8 03390101 		ld	s2,16(sp)
 242              		.cfi_restore 18
 243              	.LVL15:
 244 00dc 83398100 		ld	s3,8(sp)
 245              		.cfi_restore 19
 246              	.LVL16:
 247 00e0 13010103 		addi	sp,sp,48
 248              		.cfi_def_cfa_offset 0
 249 00e4 67800000 		jr	ra
 250              	.LVL17:
 251              	.L8:
 252              		.cfi_restore_state
  46:src/syscall_c.cpp **** 	if (start_routine != nullptr) {
 253              		.loc 1 46 10
 254 00e8 13030000 		li	t1,0
 255 00ec 6FF01FFC 		j	.L7
 256              		.cfi_endproc
 257              	.LFE44:
 259              		.align	2
 260              		.globl	_Z11thread_exitv
 262              	_Z11thread_exitv:
 263              	.LFB45:
  70:src/syscall_c.cpp **** 
  71:src/syscall_c.cpp **** int thread_exit() {
 264              		.loc 1 71 19 is_stmt 1
 265              		.cfi_startproc
 266 00f0 130101FF 		addi	sp,sp,-16
 267              		.cfi_def_cfa_offset 16
 268 00f4 23348100 		sd	s0,8(sp)
 269              		.cfi_offset 8, -8
 270 00f8 13040101 		addi	s0,sp,16
GAS LISTING /tmp/ccplzS8I.s 			page 7


 271              		.cfi_def_cfa 8, 0
  72:src/syscall_c.cpp **** 	//nema argumenata, samo kod sistemskog poziva
  73:src/syscall_c.cpp **** 	__asm__ volatile("li a0, 0x12");
 272              		.loc 1 73 2
 273              		.loc 1 73 33 is_stmt 0
 274              	#APP
 275              	# 73 "src/syscall_c.cpp" 1
  74              	
  75:src/syscall_c.cpp **** 	scall();
 276              		li a0, 0x12
 277              	# 0 "" 2
 278              		.loc 1 75 2 is_stmt 1
 279              	#NO_APP
 280              	.LBB38:
 281              	.LBB39:
   8:src/syscall_c.cpp **** }
 282              		.loc 1 8 2
   8:src/syscall_c.cpp **** }
 283              		.loc 1 8 27 is_stmt 0
 284              	#APP
 285              	# 8 "src/syscall_c.cpp" 1
 286              		ecall
 287              	# 0 "" 2
 288              	#NO_APP
 289              	.LBE39:
 290              	.LBE38:
  76:src/syscall_c.cpp **** 
  77:src/syscall_c.cpp **** 	int status;
 291              		.loc 1 77 2 is_stmt 1
  78:src/syscall_c.cpp **** 	__asm__ volatile("mv %[status], a0":[status] "=r"(status));
 292              		.loc 1 78 2
 293              		.loc 1 78 60 is_stmt 0
 294              	#APP
 295              	# 78 "src/syscall_c.cpp" 1
  79              		return status;
 296              		mv a0, a0
 297              	# 0 "" 2
 298              	.LVL18:
 299              		.loc 1 79 2 is_stmt 1
  80:src/syscall_c.cpp **** }
 300              		.loc 1 80 1 is_stmt 0
 301              	#NO_APP
 302 0108 1B050500 		sext.w	a0,a0
 303 010c 03348100 		ld	s0,8(sp)
 304              		.cfi_restore 8
 305              		.cfi_def_cfa 2, 16
 306 0110 13010101 		addi	sp,sp,16
 307              		.cfi_def_cfa_offset 0
 308 0114 67800000 		jr	ra
 309              		.cfi_endproc
 310              	.LFE45:
 312              		.align	2
 313              		.globl	_Z15thread_dispatchv
 315              	_Z15thread_dispatchv:
 316              	.LFB46:
  81:src/syscall_c.cpp **** 
  82:src/syscall_c.cpp **** void thread_dispatch() {
GAS LISTING /tmp/ccplzS8I.s 			page 8


 317              		.loc 1 82 24 is_stmt 1
 318              		.cfi_startproc
 319 0118 130101FF 		addi	sp,sp,-16
 320              		.cfi_def_cfa_offset 16
 321 011c 23348100 		sd	s0,8(sp)
 322              		.cfi_offset 8, -8
 323 0120 13040101 		addi	s0,sp,16
 324              		.cfi_def_cfa 8, 0
  83:src/syscall_c.cpp **** 	//nema argumenata, samo kod sistemskog poziva
  84:src/syscall_c.cpp **** 	__asm__ volatile("li a0, 0x13");
 325              		.loc 1 84 2
 326              		.loc 1 84 33 is_stmt 0
 327              	#APP
 328              	# 84 "src/syscall_c.cpp" 1
  85              	
  86:src/syscall_c.cpp **** 	scall();
 329              		li a0, 0x13
 330              	# 0 "" 2
 331              		.loc 1 86 2 is_stmt 1
 332              	#NO_APP
 333              	.LBB40:
 334              	.LBB41:
   8:src/syscall_c.cpp **** }
 335              		.loc 1 8 2
   8:src/syscall_c.cpp **** }
 336              		.loc 1 8 27 is_stmt 0
 337              	#APP
 338              	# 8 "src/syscall_c.cpp" 1
 339              		ecall
 340              	# 0 "" 2
 341              	#NO_APP
 342              	.LBE41:
 343              	.LBE40:
  87:src/syscall_c.cpp **** 	//nema povratne vrednosti
  88:src/syscall_c.cpp **** }
 344              		.loc 1 88 1
 345 012c 03348100 		ld	s0,8(sp)
 346              		.cfi_restore 8
 347              		.cfi_def_cfa 2, 16
 348 0130 13010101 		addi	sp,sp,16
 349              		.cfi_def_cfa_offset 0
 350 0134 67800000 		jr	ra
 351              		.cfi_endproc
 352              	.LFE46:
 354              		.align	2
 355              		.globl	_Z11thread_joinP3TCB
 357              	_Z11thread_joinP3TCB:
 358              	.LFB47:
  89:src/syscall_c.cpp **** 
  90:src/syscall_c.cpp **** void thread_join(thread_t handle) {
 359              		.loc 1 90 35 is_stmt 1
 360              		.cfi_startproc
 361              	.LVL19:
 362 0138 130101FF 		addi	sp,sp,-16
 363              		.cfi_def_cfa_offset 16
 364 013c 23348100 		sd	s0,8(sp)
 365              		.cfi_offset 8, -8
GAS LISTING /tmp/ccplzS8I.s 			page 9


 366 0140 13040101 		addi	s0,sp,16
 367              		.cfi_def_cfa 8, 0
 368 0144 13030500 		mv	t1,a0
  91:src/syscall_c.cpp **** //stavljanje argumenata za sistemski poziv
  92:src/syscall_c.cpp **** 	__asm__ volatile("mv a1, %[handle]": :[handle] "r"(handle):"a5", "a0", "a1", "a2", "a3", "a4", "a6
 369              		.loc 1 92 2
 370              		.loc 1 92 108 is_stmt 0
 371              	#APP
 372              	# 92 "src/syscall_c.cpp" 1
  93              		__asm__ volatile("li a0, 0x14");
 373              		mv a1, t1
 374              	# 0 "" 2
 375              	.LVL20:
 376              		.loc 1 93 2 is_stmt 1
 377              		.loc 1 93 33 is_stmt 0
 378              	# 93 "src/syscall_c.cpp" 1
  94              		//a0 = 0x14
  95:src/syscall_c.cpp **** 	//a1 = rucka niti na koju se ceka
  96:src/syscall_c.cpp **** 
  97:src/syscall_c.cpp **** 	scall();
 379              		li a0, 0x14
 380              	# 0 "" 2
 381              		.loc 1 97 2 is_stmt 1
 382              	#NO_APP
 383              	.LBB42:
 384              	.LBB43:
   8:src/syscall_c.cpp **** }
 385              		.loc 1 8 2
   8:src/syscall_c.cpp **** }
 386              		.loc 1 8 27 is_stmt 0
 387              	#APP
 388              	# 8 "src/syscall_c.cpp" 1
 389              		ecall
 390              	# 0 "" 2
 391              	#NO_APP
 392              	.LBE43:
 393              	.LBE42:
  98:src/syscall_c.cpp **** }
 394              		.loc 1 98 1
 395 0154 03348100 		ld	s0,8(sp)
 396              		.cfi_restore 8
 397              		.cfi_def_cfa 2, 16
 398 0158 13010101 		addi	sp,sp,16
 399              		.cfi_def_cfa_offset 0
 400 015c 67800000 		jr	ra
 401              		.cfi_endproc
 402              	.LFE47:
 404              		.align	2
 405              		.globl	_Z10time_sleepm
 407              	_Z10time_sleepm:
 408              	.LFB48:
  99:src/syscall_c.cpp **** 
 100:src/syscall_c.cpp **** int time_sleep(time_t timerPeriods) {
 409              		.loc 1 100 37 is_stmt 1
 410              		.cfi_startproc
 411              	.LVL21:
 412 0160 130101FF 		addi	sp,sp,-16
GAS LISTING /tmp/ccplzS8I.s 			page 10


 413              		.cfi_def_cfa_offset 16
 414 0164 23348100 		sd	s0,8(sp)
 415              		.cfi_offset 8, -8
 416 0168 13040101 		addi	s0,sp,16
 417              		.cfi_def_cfa 8, 0
 418 016c 13030500 		mv	t1,a0
 101:src/syscall_c.cpp **** 	//stavljanje argumenata za sistemski poziv
 102:src/syscall_c.cpp **** 	__asm__ volatile("mv a1, %[time]": :[time] "r"(timerPeriods):"a5", "a0", "a1", "a2", "a3", "a4", "
 419              		.loc 1 102 2
 420              		.loc 1 102 110 is_stmt 0
 421              	#APP
 422              	# 102 "src/syscall_c.cpp" 1
 103              		__asm__ volatile("li a0, 0x31");
 423              		mv a1, t1
 424              	# 0 "" 2
 425              	.LVL22:
 426              		.loc 1 103 2 is_stmt 1
 427              		.loc 1 103 33 is_stmt 0
 428              	# 103 "src/syscall_c.cpp" 1
 104              		//a0 = 0x31
 105:src/syscall_c.cpp **** 	//a1 = broj perioda tajmera na koji se uspavljuje nit
 106:src/syscall_c.cpp **** 
 107:src/syscall_c.cpp **** 	scall();
 429              		li a0, 0x31
 430              	# 0 "" 2
 431              		.loc 1 107 2 is_stmt 1
 432              	#NO_APP
 433              	.LBB44:
 434              	.LBB45:
   8:src/syscall_c.cpp **** }
 435              		.loc 1 8 2
   8:src/syscall_c.cpp **** }
 436              		.loc 1 8 27 is_stmt 0
 437              	#APP
 438              	# 8 "src/syscall_c.cpp" 1
 439              		ecall
 440              	# 0 "" 2
 441              	#NO_APP
 442              	.LBE45:
 443              	.LBE44:
 108:src/syscall_c.cpp **** 
 109:src/syscall_c.cpp **** 	int status;
 444              		.loc 1 109 2 is_stmt 1
 110:src/syscall_c.cpp **** 	__asm__ volatile("mv %[status], a0":[status] "=r"(status));
 445              		.loc 1 110 2
 446              		.loc 1 110 60 is_stmt 0
 447              	#APP
 448              	# 110 "src/syscall_c.cpp" 1
 111              		return status;
 449              		mv a0, a0
 450              	# 0 "" 2
 451              	.LVL23:
 452              		.loc 1 111 2 is_stmt 1
 112:src/syscall_c.cpp **** }
 453              		.loc 1 112 1 is_stmt 0
 454              	#NO_APP
 455 0180 1B050500 		sext.w	a0,a0
GAS LISTING /tmp/ccplzS8I.s 			page 11


 456 0184 03348100 		ld	s0,8(sp)
 457              		.cfi_restore 8
 458              		.cfi_def_cfa 2, 16
 459 0188 13010101 		addi	sp,sp,16
 460              		.cfi_def_cfa_offset 0
 461 018c 67800000 		jr	ra
 462              		.cfi_endproc
 463              	.LFE48:
 465              		.align	2
 466              		.globl	_Z8sem_openPP4KSemj
 468              	_Z8sem_openPP4KSemj:
 469              	.LFB49:
 113:src/syscall_c.cpp **** 
 114:src/syscall_c.cpp **** int sem_open(sem_t* handle, unsigned int init) {
 470              		.loc 1 114 48 is_stmt 1
 471              		.cfi_startproc
 472              	.LVL24:
 473 0190 130101FF 		addi	sp,sp,-16
 474              		.cfi_def_cfa_offset 16
 475 0194 23348100 		sd	s0,8(sp)
 476              		.cfi_offset 8, -8
 477 0198 13040101 		addi	s0,sp,16
 478              		.cfi_def_cfa 8, 0
 479 019c 13030500 		mv	t1,a0
 480 01a0 138E0500 		mv	t3,a1
 115:src/syscall_c.cpp **** 	//stavljanje argumenata za sistemski poziv
 116:src/syscall_c.cpp **** 	__asm__ volatile("mv a2, %[val]": :[val] "r"(init):"a5", "a0", "a1", "a2", "a3", "a4", "a6", "a7")
 481              		.loc 1 116 2
 482              		.loc 1 116 100 is_stmt 0
 483              	#APP
 484              	# 116 "src/syscall_c.cpp" 1
 117              		__asm__ volatile("mv a1, %[handle]": :[handle] "r"(handle):"a5", "a0", "a1", "a2", "a3", "a4", "a6
 485              		mv a2, t3
 486              	# 0 "" 2
 487              	.LVL25:
 488              		.loc 1 117 2 is_stmt 1
 489              		.loc 1 117 108 is_stmt 0
 490              	# 117 "src/syscall_c.cpp" 1
 118              		__asm__ volatile("li a0, 0x21");
 491              		mv a1, t1
 492              	# 0 "" 2
 493              		.loc 1 118 2 is_stmt 1
 494              		.loc 1 118 33 is_stmt 0
 495              	# 118 "src/syscall_c.cpp" 1
 119              		//a0 = 0x21
 120:src/syscall_c.cpp **** 	//a1 = pokazivac na rucku semafora
 121:src/syscall_c.cpp **** 	//a2 = pocetna vrednost semafora
 122:src/syscall_c.cpp **** 
 123:src/syscall_c.cpp **** 	scall();
 496              		li a0, 0x21
 497              	# 0 "" 2
 498              		.loc 1 123 2 is_stmt 1
 499              	#NO_APP
 500              	.LBB46:
 501              	.LBB47:
   8:src/syscall_c.cpp **** }
 502              		.loc 1 8 2
GAS LISTING /tmp/ccplzS8I.s 			page 12


   8:src/syscall_c.cpp **** }
 503              		.loc 1 8 27 is_stmt 0
 504              	#APP
 505              	# 8 "src/syscall_c.cpp" 1
 506              		ecall
 507              	# 0 "" 2
 508              	#NO_APP
 509              	.LBE47:
 510              	.LBE46:
 124:src/syscall_c.cpp **** 
 125:src/syscall_c.cpp **** 	//status == 0 ako je uspesno kreiran semafor; status == -1 ako nije
 126:src/syscall_c.cpp **** 	int status;
 511              		.loc 1 126 2 is_stmt 1
 127:src/syscall_c.cpp **** 	__asm__ volatile("mv %[status], a0":[status] "=r"(status));
 512              		.loc 1 127 2
 513              		.loc 1 127 60 is_stmt 0
 514              	#APP
 515              	# 127 "src/syscall_c.cpp" 1
 128              		return status;
 516              		mv a0, a0
 517              	# 0 "" 2
 518              	.LVL26:
 519              		.loc 1 128 2 is_stmt 1
 129:src/syscall_c.cpp **** }
 520              		.loc 1 129 1 is_stmt 0
 521              	#NO_APP
 522 01b8 1B050500 		sext.w	a0,a0
 523 01bc 03348100 		ld	s0,8(sp)
 524              		.cfi_restore 8
 525              		.cfi_def_cfa 2, 16
 526 01c0 13010101 		addi	sp,sp,16
 527              		.cfi_def_cfa_offset 0
 528 01c4 67800000 		jr	ra
 529              		.cfi_endproc
 530              	.LFE49:
 532              		.align	2
 533              		.globl	_Z9sem_closeP4KSem
 535              	_Z9sem_closeP4KSem:
 536              	.LFB50:
 130:src/syscall_c.cpp **** 
 131:src/syscall_c.cpp **** int sem_close(sem_t handle) {
 537              		.loc 1 131 29 is_stmt 1
 538              		.cfi_startproc
 539              	.LVL27:
 540 01c8 130101FF 		addi	sp,sp,-16
 541              		.cfi_def_cfa_offset 16
 542 01cc 23348100 		sd	s0,8(sp)
 543              		.cfi_offset 8, -8
 544 01d0 13040101 		addi	s0,sp,16
 545              		.cfi_def_cfa 8, 0
 546 01d4 13030500 		mv	t1,a0
 132:src/syscall_c.cpp **** 	//stavljanje argumenata za sistemski poziv
 133:src/syscall_c.cpp **** 	__asm__ volatile("mv a1, %[handle]": :[handle] "r"(handle):"a5", "a0", "a1", "a2", "a3", "a4", "a6
 547              		.loc 1 133 2
 548              		.loc 1 133 108 is_stmt 0
 549              	#APP
 550              	# 133 "src/syscall_c.cpp" 1
GAS LISTING /tmp/ccplzS8I.s 			page 13


 134              		__asm__ volatile("li a0, 0x22");
 551              		mv a1, t1
 552              	# 0 "" 2
 553              	.LVL28:
 554              		.loc 1 134 2 is_stmt 1
 555              		.loc 1 134 33 is_stmt 0
 556              	# 134 "src/syscall_c.cpp" 1
 135              		//a0 = 0x22
 136:src/syscall_c.cpp **** 	//a1 = rucka semafora (pokazivac na semafor u kernelu)
 137:src/syscall_c.cpp **** 
 138:src/syscall_c.cpp **** 	scall();
 557              		li a0, 0x22
 558              	# 0 "" 2
 559              		.loc 1 138 2 is_stmt 1
 560              	#NO_APP
 561              	.LBB48:
 562              	.LBB49:
   8:src/syscall_c.cpp **** }
 563              		.loc 1 8 2
   8:src/syscall_c.cpp **** }
 564              		.loc 1 8 27 is_stmt 0
 565              	#APP
 566              	# 8 "src/syscall_c.cpp" 1
 567              		ecall
 568              	# 0 "" 2
 569              	#NO_APP
 570              	.LBE49:
 571              	.LBE48:
 139:src/syscall_c.cpp **** 
 140:src/syscall_c.cpp **** 	int status;
 572              		.loc 1 140 2 is_stmt 1
 141:src/syscall_c.cpp **** 	__asm__ volatile("mv %[status], a0":[status] "=r"(status));
 573              		.loc 1 141 2
 574              		.loc 1 141 60 is_stmt 0
 575              	#APP
 576              	# 141 "src/syscall_c.cpp" 1
 142              		return status;
 577              		mv a0, a0
 578              	# 0 "" 2
 579              	.LVL29:
 580              		.loc 1 142 2 is_stmt 1
 143:src/syscall_c.cpp **** }
 581              		.loc 1 143 1 is_stmt 0
 582              	#NO_APP
 583 01e8 1B050500 		sext.w	a0,a0
 584 01ec 03348100 		ld	s0,8(sp)
 585              		.cfi_restore 8
 586              		.cfi_def_cfa 2, 16
 587 01f0 13010101 		addi	sp,sp,16
 588              		.cfi_def_cfa_offset 0
 589 01f4 67800000 		jr	ra
 590              		.cfi_endproc
 591              	.LFE50:
 593              		.align	2
 594              		.globl	_Z8sem_waitP4KSem
 596              	_Z8sem_waitP4KSem:
 597              	.LFB51:
GAS LISTING /tmp/ccplzS8I.s 			page 14


 144:src/syscall_c.cpp **** 
 145:src/syscall_c.cpp **** int sem_wait(sem_t id) {
 598              		.loc 1 145 24 is_stmt 1
 599              		.cfi_startproc
 600              	.LVL30:
 601 01f8 130101FF 		addi	sp,sp,-16
 602              		.cfi_def_cfa_offset 16
 603 01fc 23348100 		sd	s0,8(sp)
 604              		.cfi_offset 8, -8
 605 0200 13040101 		addi	s0,sp,16
 606              		.cfi_def_cfa 8, 0
 607 0204 13030500 		mv	t1,a0
 146:src/syscall_c.cpp **** 	//stavljanje argumenata za sistemski poziv
 147:src/syscall_c.cpp **** 	__asm__ volatile("mv a1, %[handle]": :[handle] "r"(id):"a5", "a0", "a1", "a2", "a3", "a4", "a6", "
 608              		.loc 1 147 2
 609              		.loc 1 147 104 is_stmt 0
 610              	#APP
 611              	# 147 "src/syscall_c.cpp" 1
 148              		__asm__ volatile("li a0, 0x23");
 612              		mv a1, t1
 613              	# 0 "" 2
 614              	.LVL31:
 615              		.loc 1 148 2 is_stmt 1
 616              		.loc 1 148 33 is_stmt 0
 617              	# 148 "src/syscall_c.cpp" 1
 149              		//a0 = 0x23
 150:src/syscall_c.cpp **** 	//a1 = rucka semafora (pokazivac na semafor u kernelu)
 151:src/syscall_c.cpp **** 
 152:src/syscall_c.cpp **** 	scall();
 618              		li a0, 0x23
 619              	# 0 "" 2
 620              		.loc 1 152 2 is_stmt 1
 621              	#NO_APP
 622              	.LBB50:
 623              	.LBB51:
   8:src/syscall_c.cpp **** }
 624              		.loc 1 8 2
   8:src/syscall_c.cpp **** }
 625              		.loc 1 8 27 is_stmt 0
 626              	#APP
 627              	# 8 "src/syscall_c.cpp" 1
 628              		ecall
 629              	# 0 "" 2
 630              	#NO_APP
 631              	.LBE51:
 632              	.LBE50:
 153:src/syscall_c.cpp **** 
 154:src/syscall_c.cpp **** 	int status;
 633              		.loc 1 154 2 is_stmt 1
 155:src/syscall_c.cpp **** 	__asm__ volatile("mv %[status], a0":[status] "=r"(status));
 634              		.loc 1 155 2
 635              		.loc 1 155 60 is_stmt 0
 636              	#APP
 637              	# 155 "src/syscall_c.cpp" 1
 156              		return status;
 638              		mv a0, a0
 639              	# 0 "" 2
GAS LISTING /tmp/ccplzS8I.s 			page 15


 640              	.LVL32:
 641              		.loc 1 156 2 is_stmt 1
 157:src/syscall_c.cpp **** }
 642              		.loc 1 157 1 is_stmt 0
 643              	#NO_APP
 644 0218 1B050500 		sext.w	a0,a0
 645 021c 03348100 		ld	s0,8(sp)
 646              		.cfi_restore 8
 647              		.cfi_def_cfa 2, 16
 648 0220 13010101 		addi	sp,sp,16
 649              		.cfi_def_cfa_offset 0
 650 0224 67800000 		jr	ra
 651              		.cfi_endproc
 652              	.LFE51:
 654              		.align	2
 655              		.globl	_Z10sem_signalP4KSem
 657              	_Z10sem_signalP4KSem:
 658              	.LFB52:
 158:src/syscall_c.cpp **** 
 159:src/syscall_c.cpp **** int sem_signal(sem_t id) {
 659              		.loc 1 159 26 is_stmt 1
 660              		.cfi_startproc
 661              	.LVL33:
 662 0228 130101FF 		addi	sp,sp,-16
 663              		.cfi_def_cfa_offset 16
 664 022c 23348100 		sd	s0,8(sp)
 665              		.cfi_offset 8, -8
 666 0230 13040101 		addi	s0,sp,16
 667              		.cfi_def_cfa 8, 0
 668 0234 13030500 		mv	t1,a0
 160:src/syscall_c.cpp **** 	//stavljanje argumenata za sistemski poziv
 161:src/syscall_c.cpp **** 	__asm__ volatile("mv a1, %[handle]": :[handle] "r"(id):"a5", "a0", "a1", "a2", "a3", "a4", "a6", "
 669              		.loc 1 161 2
 670              		.loc 1 161 104 is_stmt 0
 671              	#APP
 672              	# 161 "src/syscall_c.cpp" 1
 162              		__asm__ volatile("li a0, 0x24");
 673              		mv a1, t1
 674              	# 0 "" 2
 675              	.LVL34:
 676              		.loc 1 162 2 is_stmt 1
 677              		.loc 1 162 33 is_stmt 0
 678              	# 162 "src/syscall_c.cpp" 1
 163              		//a0 = 0x24
 164:src/syscall_c.cpp **** 	//a1 = rucka semafora (pokazivac na semafor u kernelu)
 165:src/syscall_c.cpp **** 
 166:src/syscall_c.cpp **** 	scall();
 679              		li a0, 0x24
 680              	# 0 "" 2
 681              		.loc 1 166 2 is_stmt 1
 682              	#NO_APP
 683              	.LBB52:
 684              	.LBB53:
   8:src/syscall_c.cpp **** }
 685              		.loc 1 8 2
   8:src/syscall_c.cpp **** }
 686              		.loc 1 8 27 is_stmt 0
GAS LISTING /tmp/ccplzS8I.s 			page 16


 687              	#APP
 688              	# 8 "src/syscall_c.cpp" 1
 689              		ecall
 690              	# 0 "" 2
 691              	#NO_APP
 692              	.LBE53:
 693              	.LBE52:
 167:src/syscall_c.cpp **** 
 168:src/syscall_c.cpp **** 	int status;
 694              		.loc 1 168 2 is_stmt 1
 169:src/syscall_c.cpp **** 	__asm__ volatile("mv %[status], a0":[status] "=r"(status));
 695              		.loc 1 169 2
 696              		.loc 1 169 60 is_stmt 0
 697              	#APP
 698              	# 169 "src/syscall_c.cpp" 1
 170              		return status;
 699              		mv a0, a0
 700              	# 0 "" 2
 701              	.LVL35:
 702              		.loc 1 170 2 is_stmt 1
 171:src/syscall_c.cpp **** }
 703              		.loc 1 171 1 is_stmt 0
 704              	#NO_APP
 705 0248 1B050500 		sext.w	a0,a0
 706 024c 03348100 		ld	s0,8(sp)
 707              		.cfi_restore 8
 708              		.cfi_def_cfa 2, 16
 709 0250 13010101 		addi	sp,sp,16
 710              		.cfi_def_cfa_offset 0
 711 0254 67800000 		jr	ra
 712              		.cfi_endproc
 713              	.LFE52:
 715              		.align	2
 716              		.globl	_Z4getcv
 718              	_Z4getcv:
 719              	.LFB53:
 172:src/syscall_c.cpp **** 
 173:src/syscall_c.cpp **** char getc() {
 720              		.loc 1 173 13 is_stmt 1
 721              		.cfi_startproc
 722 0258 130101FF 		addi	sp,sp,-16
 723              		.cfi_def_cfa_offset 16
 724 025c 23348100 		sd	s0,8(sp)
 725              		.cfi_offset 8, -8
 726 0260 13040101 		addi	s0,sp,16
 727              		.cfi_def_cfa 8, 0
 174:src/syscall_c.cpp **** 	//nema argumenata
 175:src/syscall_c.cpp **** 	__asm__ volatile("li a0, 0x41");
 728              		.loc 1 175 2
 729              		.loc 1 175 33 is_stmt 0
 730              	#APP
 731              	# 175 "src/syscall_c.cpp" 1
 176              	
 177:src/syscall_c.cpp **** 	scall();
 732              		li a0, 0x41
 733              	# 0 "" 2
 734              		.loc 1 177 2 is_stmt 1
GAS LISTING /tmp/ccplzS8I.s 			page 17


 735              	#NO_APP
 736              	.LBB54:
 737              	.LBB55:
   8:src/syscall_c.cpp **** }
 738              		.loc 1 8 2
   8:src/syscall_c.cpp **** }
 739              		.loc 1 8 27 is_stmt 0
 740              	#APP
 741              	# 8 "src/syscall_c.cpp" 1
 742              		ecall
 743              	# 0 "" 2
 744              	#NO_APP
 745              	.LBE55:
 746              	.LBE54:
 178:src/syscall_c.cpp **** 
 179:src/syscall_c.cpp **** 	char character;
 747              		.loc 1 179 2 is_stmt 1
 180:src/syscall_c.cpp **** 	__asm__ volatile("mv %[status], a0":[status] "=r"(character));
 748              		.loc 1 180 2
 749              		.loc 1 180 63 is_stmt 0
 750              	#APP
 751              	# 180 "src/syscall_c.cpp" 1
 181              		return character;
 752              		mv a0, a0
 753              	# 0 "" 2
 754              	.LVL36:
 755              		.loc 1 181 2 is_stmt 1
 182:src/syscall_c.cpp **** }
 756              		.loc 1 182 1 is_stmt 0
 757              	#NO_APP
 758 0270 1375F50F 		andi	a0,a0,0xff
 759 0274 03348100 		ld	s0,8(sp)
 760              		.cfi_restore 8
 761              		.cfi_def_cfa 2, 16
 762 0278 13010101 		addi	sp,sp,16
 763              		.cfi_def_cfa_offset 0
 764 027c 67800000 		jr	ra
 765              		.cfi_endproc
 766              	.LFE53:
 768              		.align	2
 769              		.globl	_Z4putcc
 771              	_Z4putcc:
 772              	.LFB54:
 183:src/syscall_c.cpp **** 
 184:src/syscall_c.cpp **** void putc(char c) {
 773              		.loc 1 184 19 is_stmt 1
 774              		.cfi_startproc
 775              	.LVL37:
 776 0280 130101FF 		addi	sp,sp,-16
 777              		.cfi_def_cfa_offset 16
 778 0284 23348100 		sd	s0,8(sp)
 779              		.cfi_offset 8, -8
 780 0288 13040101 		addi	s0,sp,16
 781              		.cfi_def_cfa 8, 0
 782 028c 13030500 		mv	t1,a0
 185:src/syscall_c.cpp **** 	//stavljanje argumenata
 186:src/syscall_c.cpp **** 	__asm__ volatile("mv a1, %[c]": :[c] "r"(c):"a5", "a0", "a1", "a2", "a3", "a4", "a6", "a7");
GAS LISTING /tmp/ccplzS8I.s 			page 18


 783              		.loc 1 186 2
 784              		.loc 1 186 93 is_stmt 0
 785              	#APP
 786              	# 186 "src/syscall_c.cpp" 1
 187              		__asm__ volatile("li a0, 0x42");
 787              		mv a1, t1
 788              	# 0 "" 2
 789              	.LVL38:
 790              		.loc 1 187 2 is_stmt 1
 791              		.loc 1 187 33 is_stmt 0
 792              	# 187 "src/syscall_c.cpp" 1
 188              	
 189:src/syscall_c.cpp **** 	scall();
 793              		li a0, 0x42
 794              	# 0 "" 2
 795              		.loc 1 189 2 is_stmt 1
 796              	#NO_APP
 797              	.LBB56:
 798              	.LBB57:
   8:src/syscall_c.cpp **** }
 799              		.loc 1 8 2
   8:src/syscall_c.cpp **** }
 800              		.loc 1 8 27 is_stmt 0
 801              	#APP
 802              	# 8 "src/syscall_c.cpp" 1
 803              		ecall
 804              	# 0 "" 2
 805              	#NO_APP
 806              	.LBE57:
 807              	.LBE56:
 190:src/syscall_c.cpp **** 	//nema povratne vrednosti
 191:src/syscall_c.cpp **** }
 808              		.loc 1 191 1
 809 029c 03348100 		ld	s0,8(sp)
 810              		.cfi_restore 8
 811              		.cfi_def_cfa 2, 16
 812 02a0 13010101 		addi	sp,sp,16
 813              		.cfi_def_cfa_offset 0
 814 02a4 67800000 		jr	ra
 815              		.cfi_endproc
 816              	.LFE54:
 818              		.align	2
 819              		.globl	_Z12thread_allocPP3TCBPFvPvES2_
 821              	_Z12thread_allocPP3TCBPFvPvES2_:
 822              	.LFB55:
 192:src/syscall_c.cpp **** 
 193:src/syscall_c.cpp **** int thread_alloc(thread_t* handle, TCB::Body function, void* arg){
 823              		.loc 1 193 66 is_stmt 1
 824              		.cfi_startproc
 825              	.LVL39:
 826 02a8 130101FD 		addi	sp,sp,-48
 827              		.cfi_def_cfa_offset 48
 828 02ac 23341102 		sd	ra,40(sp)
 829 02b0 23308102 		sd	s0,32(sp)
 830 02b4 233C9100 		sd	s1,24(sp)
 831 02b8 23382101 		sd	s2,16(sp)
 832 02bc 23343101 		sd	s3,8(sp)
GAS LISTING /tmp/ccplzS8I.s 			page 19


 833              		.cfi_offset 1, -8
 834              		.cfi_offset 8, -16
 835              		.cfi_offset 9, -24
 836              		.cfi_offset 18, -32
 837              		.cfi_offset 19, -40
 838 02c0 13040103 		addi	s0,sp,48
 839              		.cfi_def_cfa 8, 0
 840 02c4 13090500 		mv	s2,a0
 841 02c8 93840500 		mv	s1,a1
 842 02cc 93090600 		mv	s3,a2
 194:src/syscall_c.cpp **** 	//stvaranje steka ako se ne radi o main kernel niti, posto ona automatski ima stek
 195:src/syscall_c.cpp **** 	uint64* stack = nullptr;
 843              		.loc 1 195 2
 844              	.LVL40:
 196:src/syscall_c.cpp **** 	if (function != nullptr) {
 845              		.loc 1 196 2
 846 02d0 63880504 		beqz	a1,.L32
 197:src/syscall_c.cpp **** 		stack = (uint64*)mem_alloc(DEFAULT_STACK_SIZE);
 847              		.loc 1 197 3
 848              		.loc 1 197 29 is_stmt 0
 849 02d4 37150000 		li	a0,4096
 850              	.LVL41:
 851 02d8 97000000 		call	_Z9mem_allocm
 851      E7800000 
 852              	.LVL42:
 853 02e0 13030500 		mv	t1,a0
 854              	.LVL43:
 855              	.L31:
 198:src/syscall_c.cpp **** 	}
 199:src/syscall_c.cpp **** 	//uint64* stack = (start_routine != nullptr ? (uint64*)MemoryAllocator::kmalloc(DEFAULT_STACK_SIZE
 200:src/syscall_c.cpp **** 	//stavljanje argumenata za sistemski poziv
 201:src/syscall_c.cpp **** 	__asm__ volatile("mv a4, %[sp]": :[sp] "r"(stack):"a5", "a0", "a1", "a2", "a3", "a4", "a6", "a7");
 856              		.loc 1 201 2 is_stmt 1
 857              		.loc 1 201 99 is_stmt 0
 858              	#APP
 859              	# 201 "src/syscall_c.cpp" 1
 202              		__asm__ volatile("mv a3, %[arg]": :[arg] "r"(arg):"a5", "a0", "a1", "a2", "a3", "a4", "a6", "a7");
 860              		mv a4, t1
 861              	# 0 "" 2
 862              		.loc 1 202 2 is_stmt 1
 863              		.loc 1 202 99 is_stmt 0
 864              	# 202 "src/syscall_c.cpp" 1
 203              		__asm__ volatile("mv a2, %[function]": :[function] "r"(
 865              		mv a3, s3
 866              	# 0 "" 2
 867              		.loc 1 203 2 is_stmt 1
 204:src/syscall_c.cpp **** 			function):"a5", "a0", "a1", "a2", "a3", "a4", "a6", "a7");
 868              		.loc 1 204 61 is_stmt 0
 869              	# 204 "src/syscall_c.cpp" 1
 205              		__asm__ volatile("mv a1, %[handle]": :[handle] "r"(handle):"a5", "a0", "a1", "a2", "a3", "a4", "a6
 870              		mv a2, s1
 871              	# 0 "" 2
 872              		.loc 1 205 2 is_stmt 1
 873              		.loc 1 205 108 is_stmt 0
 874              	# 205 "src/syscall_c.cpp" 1
 206              		__asm__ volatile("li a0, 0x80");
 875              		mv a1, s2
GAS LISTING /tmp/ccplzS8I.s 			page 20


 876              	# 0 "" 2
 877              		.loc 1 206 2 is_stmt 1
 878              		.loc 1 206 33 is_stmt 0
 879              	# 206 "src/syscall_c.cpp" 1
 207              		//a0 = 0x80
 208:src/syscall_c.cpp **** 	//a1 = adresa pokazivaca na rucku niti
 209:src/syscall_c.cpp **** 	//a2 = prva adresa funkcije koju nit izvrsava
 210:src/syscall_c.cpp **** 	//a3 = pokazivac na argumente funkcije
 211:src/syscall_c.cpp **** 	//a4 = pokazivac na najnizu adresu steka (stek raste ka nizim adresama, pokazuje na poslednju zauz
 212:src/syscall_c.cpp **** 
 213:src/syscall_c.cpp **** 	scall();
 880              		li a0, 0x80
 881              	# 0 "" 2
 882              		.loc 1 213 2 is_stmt 1
 883              	#NO_APP
 884              	.LBB58:
 885              	.LBB59:
   8:src/syscall_c.cpp **** }
 886              		.loc 1 8 2
   8:src/syscall_c.cpp **** }
 887              		.loc 1 8 27 is_stmt 0
 888              	#APP
 889              	# 8 "src/syscall_c.cpp" 1
 890              		ecall
 891              	# 0 "" 2
 892              	#NO_APP
 893              	.LBE59:
 894              	.LBE58:
 214:src/syscall_c.cpp **** 
 215:src/syscall_c.cpp **** 	int status;
 895              		.loc 1 215 2 is_stmt 1
 216:src/syscall_c.cpp **** 	__asm__ volatile("mv %[status], a0":[status] "=r"(status));
 896              		.loc 1 216 2
 897              		.loc 1 216 60 is_stmt 0
 898              	#APP
 899              	# 216 "src/syscall_c.cpp" 1
 217              		return status;
 900              		mv a0, a0
 901              	# 0 "" 2
 902              	.LVL44:
 903              		.loc 1 217 2 is_stmt 1
 218:src/syscall_c.cpp **** }
 904              		.loc 1 218 1 is_stmt 0
 905              	#NO_APP
 906 0300 1B050500 		sext.w	a0,a0
 907 0304 83308102 		ld	ra,40(sp)
 908              		.cfi_remember_state
 909              		.cfi_restore 1
 910 0308 03340102 		ld	s0,32(sp)
 911              		.cfi_restore 8
 912              		.cfi_def_cfa 2, 48
 913 030c 83348101 		ld	s1,24(sp)
 914              		.cfi_restore 9
 915              	.LVL45:
 916 0310 03390101 		ld	s2,16(sp)
 917              		.cfi_restore 18
 918              	.LVL46:
GAS LISTING /tmp/ccplzS8I.s 			page 21


 919 0314 83398100 		ld	s3,8(sp)
 920              		.cfi_restore 19
 921              	.LVL47:
 922 0318 13010103 		addi	sp,sp,48
 923              		.cfi_def_cfa_offset 0
 924 031c 67800000 		jr	ra
 925              	.LVL48:
 926              	.L32:
 927              		.cfi_restore_state
 195:src/syscall_c.cpp **** 	if (function != nullptr) {
 928              		.loc 1 195 10
 929 0320 13030000 		li	t1,0
 930 0324 6FF01FFC 		j	.L31
 931              		.cfi_endproc
 932              	.LFE55:
 934              		.align	2
 935              		.globl	_Z12thread_startP3TCB
 937              	_Z12thread_startP3TCB:
 938              	.LFB56:
 219:src/syscall_c.cpp **** 
 220:src/syscall_c.cpp **** void thread_start(thread_t handle){
 939              		.loc 1 220 35 is_stmt 1
 940              		.cfi_startproc
 941              	.LVL49:
 942 0328 130101FF 		addi	sp,sp,-16
 943              		.cfi_def_cfa_offset 16
 944 032c 23348100 		sd	s0,8(sp)
 945              		.cfi_offset 8, -8
 946 0330 13040101 		addi	s0,sp,16
 947              		.cfi_def_cfa 8, 0
 948 0334 13030500 		mv	t1,a0
 221:src/syscall_c.cpp **** 	__asm__ volatile("mv a1, %[handle]": :[handle] "r"(handle):"a5", "a0", "a1", "a2", "a3", "a4", "a6
 949              		.loc 1 221 2
 950              		.loc 1 221 108 is_stmt 0
 951              	#APP
 952              	# 221 "src/syscall_c.cpp" 1
 222              		__asm__ volatile("li a0, 0x81");
 953              		mv a1, t1
 954              	# 0 "" 2
 955              	.LVL50:
 956              		.loc 1 222 2 is_stmt 1
 957              		.loc 1 222 33 is_stmt 0
 958              	# 222 "src/syscall_c.cpp" 1
 223              	
 224:src/syscall_c.cpp **** 	scall();
 959              		li a0, 0x81
 960              	# 0 "" 2
 961              		.loc 1 224 2 is_stmt 1
 962              	#NO_APP
 963              	.LBB60:
 964              	.LBB61:
   8:src/syscall_c.cpp **** }
 965              		.loc 1 8 2
   8:src/syscall_c.cpp **** }
 966              		.loc 1 8 27 is_stmt 0
 967              	#APP
 968              	# 8 "src/syscall_c.cpp" 1
GAS LISTING /tmp/ccplzS8I.s 			page 22


 969              		ecall
 970              	# 0 "" 2
 971              	#NO_APP
 972              	.LBE61:
 973              	.LBE60:
 225:src/syscall_c.cpp **** }
 974              		.loc 1 225 1
 975 0344 03348100 		ld	s0,8(sp)
 976              		.cfi_restore 8
 977              		.cfi_def_cfa 2, 16
 978 0348 13010101 		addi	sp,sp,16
 979              		.cfi_def_cfa_offset 0
 980 034c 67800000 		jr	ra
 981              		.cfi_endproc
 982              	.LFE56:
 984              	.Letext0:
 985              		.file 2 "src/../h/../lib/hw.h"
 986              		.file 3 "src/../h/syscall_c.hpp"
 987              		.file 4 "src/../h/TCB.hpp"
 988              		.file 5 "src/../h/../h/ThreadQueue.hpp"
GAS LISTING /tmp/ccplzS8I.s 			page 23


DEFINED SYMBOLS
                            *ABS*:0000000000000000 syscall_c.cpp
     /tmp/ccplzS8I.s:9      .text:0000000000000000 _Z9mem_allocm
     /tmp/ccplzS8I.s:13     .text:0000000000000000 .L0 
     /tmp/ccplzS8I.s:15     .text:0000000000000000 .L0 
     /tmp/ccplzS8I.s:16     .text:0000000000000004 .L0 
     /tmp/ccplzS8I.s:18     .text:0000000000000008 .L0 
     /tmp/ccplzS8I.s:20     .text:000000000000000c .L0 
     /tmp/ccplzS8I.s:22     .text:000000000000000c .L0 
     /tmp/ccplzS8I.s:23     .text:000000000000000c .L0 
     /tmp/ccplzS8I.s:26     .text:0000000000000010 .L0 
     /tmp/ccplzS8I.s:27     .text:0000000000000010 .L0 
     /tmp/ccplzS8I.s:29     .text:0000000000000014 .L0 
     /tmp/ccplzS8I.s:32     .text:0000000000000018 .L0 
     /tmp/ccplzS8I.s:36     .text:0000000000000020 .L0 
     /tmp/ccplzS8I.s:39     .text:0000000000000024 .L0 
   src/syscall_c.cpp:18     .text:0000000000000024 .L0 
     /tmp/ccplzS8I.s:45     .text:0000000000000028 .L0 
   src/syscall_c.cpp:19     .text:0000000000000028 .L0 
     /tmp/ccplzS8I.s:53     .text:000000000000002c .L0 
     /tmp/ccplzS8I.s:54     .text:000000000000002c .L0 
   src/syscall_c.cpp:8      .text:000000000000002c .L0 
     /tmp/ccplzS8I.s:63     .text:0000000000000030 .L0 
     /tmp/ccplzS8I.s:64     .text:0000000000000030 .L0 
   src/syscall_c.cpp:26     .text:0000000000000030 .L0 
     /tmp/ccplzS8I.s:71     .text:0000000000000034 .L0 
     /tmp/ccplzS8I.s:73     .text:0000000000000034 .L0 
     /tmp/ccplzS8I.s:74     .text:0000000000000038 .L0 
     /tmp/ccplzS8I.s:75     .text:0000000000000038 .L0 
     /tmp/ccplzS8I.s:77     .text:000000000000003c .L0 
     /tmp/ccplzS8I.s:79     .text:0000000000000040 .L0 
     /tmp/ccplzS8I.s:85     .text:0000000000000040 _Z8mem_freePv
     /tmp/ccplzS8I.s:88     .text:0000000000000040 .L0 
     /tmp/ccplzS8I.s:90     .text:0000000000000040 .L0 
     /tmp/ccplzS8I.s:91     .text:0000000000000044 .L0 
     /tmp/ccplzS8I.s:93     .text:0000000000000048 .L0 
     /tmp/ccplzS8I.s:95     .text:000000000000004c .L0 
     /tmp/ccplzS8I.s:98     .text:0000000000000050 .L0 
   src/syscall_c.cpp:32     .text:0000000000000050 .L0 
     /tmp/ccplzS8I.s:105    .text:0000000000000054 .L0 
   src/syscall_c.cpp:33     .text:0000000000000054 .L0 
     /tmp/ccplzS8I.s:113    .text:0000000000000058 .L0 
     /tmp/ccplzS8I.s:114    .text:0000000000000058 .L0 
   src/syscall_c.cpp:8      .text:0000000000000058 .L0 
     /tmp/ccplzS8I.s:123    .text:000000000000005c .L0 
     /tmp/ccplzS8I.s:124    .text:000000000000005c .L0 
   src/syscall_c.cpp:40     .text:000000000000005c .L0 
     /tmp/ccplzS8I.s:131    .text:0000000000000060 .L0 
     /tmp/ccplzS8I.s:133    .text:0000000000000060 .L0 
     /tmp/ccplzS8I.s:135    .text:0000000000000068 .L0 
     /tmp/ccplzS8I.s:136    .text:0000000000000068 .L0 
     /tmp/ccplzS8I.s:138    .text:000000000000006c .L0 
     /tmp/ccplzS8I.s:140    .text:0000000000000070 .L0 
     /tmp/ccplzS8I.s:146    .text:0000000000000070 _Z13thread_createPP3TCBPFvPvES2_
     /tmp/ccplzS8I.s:149    .text:0000000000000070 .L0 
     /tmp/ccplzS8I.s:151    .text:0000000000000070 .L0 
     /tmp/ccplzS8I.s:152    .text:0000000000000074 .L0 
GAS LISTING /tmp/ccplzS8I.s 			page 24


     /tmp/ccplzS8I.s:158    .text:0000000000000088 .L0 
     /tmp/ccplzS8I.s:159    .text:0000000000000088 .L0 
     /tmp/ccplzS8I.s:160    .text:0000000000000088 .L0 
     /tmp/ccplzS8I.s:161    .text:0000000000000088 .L0 
     /tmp/ccplzS8I.s:162    .text:0000000000000088 .L0 
     /tmp/ccplzS8I.s:164    .text:000000000000008c .L0 
     /tmp/ccplzS8I.s:170    .text:0000000000000098 .L0 
     /tmp/ccplzS8I.s:171    .text:0000000000000098 .L0 
     /tmp/ccplzS8I.s:173    .text:000000000000009c .L0 
     /tmp/ccplzS8I.s:174    .text:000000000000009c .L0 
     /tmp/ccplzS8I.s:182    .text:00000000000000ac .L0 
   src/syscall_c.cpp:52     .text:00000000000000ac .L0 
     /tmp/ccplzS8I.s:188    .text:00000000000000b0 .L0 
   src/syscall_c.cpp:53     .text:00000000000000b0 .L0 
     /tmp/ccplzS8I.s:193    .text:00000000000000b4 .L0 
   src/syscall_c.cpp:55     .text:00000000000000b4 .L0 
     /tmp/ccplzS8I.s:198    .text:00000000000000b8 .L0 
   src/syscall_c.cpp:56     .text:00000000000000b8 .L0 
     /tmp/ccplzS8I.s:203    .text:00000000000000bc .L0 
   src/syscall_c.cpp:57     .text:00000000000000bc .L0 
     /tmp/ccplzS8I.s:211    .text:00000000000000c0 .L0 
     /tmp/ccplzS8I.s:212    .text:00000000000000c0 .L0 
   src/syscall_c.cpp:8      .text:00000000000000c0 .L0 
     /tmp/ccplzS8I.s:221    .text:00000000000000c4 .L0 
     /tmp/ccplzS8I.s:222    .text:00000000000000c4 .L0 
   src/syscall_c.cpp:67     .text:00000000000000c4 .L0 
     /tmp/ccplzS8I.s:229    .text:00000000000000c8 .L0 
     /tmp/ccplzS8I.s:231    .text:00000000000000c8 .L0 
     /tmp/ccplzS8I.s:233    .text:00000000000000d0 .L0 
     /tmp/ccplzS8I.s:234    .text:00000000000000d0 .L0 
     /tmp/ccplzS8I.s:236    .text:00000000000000d4 .L0 
     /tmp/ccplzS8I.s:237    .text:00000000000000d4 .L0 
     /tmp/ccplzS8I.s:239    .text:00000000000000d8 .L0 
     /tmp/ccplzS8I.s:242    .text:00000000000000dc .L0 
     /tmp/ccplzS8I.s:245    .text:00000000000000e0 .L0 
     /tmp/ccplzS8I.s:248    .text:00000000000000e4 .L0 
     /tmp/ccplzS8I.s:252    .text:00000000000000e8 .L0 
     /tmp/ccplzS8I.s:254    .text:00000000000000e8 .L0 
     /tmp/ccplzS8I.s:256    .text:00000000000000f0 .L0 
     /tmp/ccplzS8I.s:262    .text:00000000000000f0 _Z11thread_exitv
     /tmp/ccplzS8I.s:265    .text:00000000000000f0 .L0 
     /tmp/ccplzS8I.s:266    .text:00000000000000f0 .L0 
     /tmp/ccplzS8I.s:267    .text:00000000000000f4 .L0 
     /tmp/ccplzS8I.s:269    .text:00000000000000f8 .L0 
     /tmp/ccplzS8I.s:271    .text:00000000000000fc .L0 
     /tmp/ccplzS8I.s:273    .text:00000000000000fc .L0 
   src/syscall_c.cpp:73     .text:00000000000000fc .L0 
     /tmp/ccplzS8I.s:282    .text:0000000000000100 .L0 
     /tmp/ccplzS8I.s:283    .text:0000000000000100 .L0 
   src/syscall_c.cpp:8      .text:0000000000000100 .L0 
     /tmp/ccplzS8I.s:292    .text:0000000000000104 .L0 
     /tmp/ccplzS8I.s:293    .text:0000000000000104 .L0 
   src/syscall_c.cpp:78     .text:0000000000000104 .L0 
     /tmp/ccplzS8I.s:300    .text:0000000000000108 .L0 
     /tmp/ccplzS8I.s:302    .text:0000000000000108 .L0 
     /tmp/ccplzS8I.s:304    .text:0000000000000110 .L0 
     /tmp/ccplzS8I.s:305    .text:0000000000000110 .L0 
GAS LISTING /tmp/ccplzS8I.s 			page 25


     /tmp/ccplzS8I.s:307    .text:0000000000000114 .L0 
     /tmp/ccplzS8I.s:309    .text:0000000000000118 .L0 
     /tmp/ccplzS8I.s:315    .text:0000000000000118 _Z15thread_dispatchv
     /tmp/ccplzS8I.s:318    .text:0000000000000118 .L0 
     /tmp/ccplzS8I.s:319    .text:0000000000000118 .L0 
     /tmp/ccplzS8I.s:320    .text:000000000000011c .L0 
     /tmp/ccplzS8I.s:322    .text:0000000000000120 .L0 
     /tmp/ccplzS8I.s:324    .text:0000000000000124 .L0 
     /tmp/ccplzS8I.s:326    .text:0000000000000124 .L0 
   src/syscall_c.cpp:84     .text:0000000000000124 .L0 
     /tmp/ccplzS8I.s:335    .text:0000000000000128 .L0 
     /tmp/ccplzS8I.s:336    .text:0000000000000128 .L0 
   src/syscall_c.cpp:8      .text:0000000000000128 .L0 
     /tmp/ccplzS8I.s:345    .text:000000000000012c .L0 
     /tmp/ccplzS8I.s:346    .text:0000000000000130 .L0 
     /tmp/ccplzS8I.s:347    .text:0000000000000130 .L0 
     /tmp/ccplzS8I.s:349    .text:0000000000000134 .L0 
     /tmp/ccplzS8I.s:351    .text:0000000000000138 .L0 
     /tmp/ccplzS8I.s:357    .text:0000000000000138 _Z11thread_joinP3TCB
     /tmp/ccplzS8I.s:360    .text:0000000000000138 .L0 
     /tmp/ccplzS8I.s:362    .text:0000000000000138 .L0 
     /tmp/ccplzS8I.s:363    .text:000000000000013c .L0 
     /tmp/ccplzS8I.s:365    .text:0000000000000140 .L0 
     /tmp/ccplzS8I.s:367    .text:0000000000000144 .L0 
     /tmp/ccplzS8I.s:370    .text:0000000000000148 .L0 
   src/syscall_c.cpp:92     .text:0000000000000148 .L0 
     /tmp/ccplzS8I.s:377    .text:000000000000014c .L0 
   src/syscall_c.cpp:93     .text:000000000000014c .L0 
     /tmp/ccplzS8I.s:385    .text:0000000000000150 .L0 
     /tmp/ccplzS8I.s:386    .text:0000000000000150 .L0 
   src/syscall_c.cpp:8      .text:0000000000000150 .L0 
     /tmp/ccplzS8I.s:395    .text:0000000000000154 .L0 
     /tmp/ccplzS8I.s:396    .text:0000000000000158 .L0 
     /tmp/ccplzS8I.s:397    .text:0000000000000158 .L0 
     /tmp/ccplzS8I.s:399    .text:000000000000015c .L0 
     /tmp/ccplzS8I.s:401    .text:0000000000000160 .L0 
     /tmp/ccplzS8I.s:407    .text:0000000000000160 _Z10time_sleepm
     /tmp/ccplzS8I.s:410    .text:0000000000000160 .L0 
     /tmp/ccplzS8I.s:412    .text:0000000000000160 .L0 
     /tmp/ccplzS8I.s:413    .text:0000000000000164 .L0 
     /tmp/ccplzS8I.s:415    .text:0000000000000168 .L0 
     /tmp/ccplzS8I.s:417    .text:000000000000016c .L0 
     /tmp/ccplzS8I.s:420    .text:0000000000000170 .L0 
   src/syscall_c.cpp:102    .text:0000000000000170 .L0 
     /tmp/ccplzS8I.s:427    .text:0000000000000174 .L0 
   src/syscall_c.cpp:103    .text:0000000000000174 .L0 
     /tmp/ccplzS8I.s:435    .text:0000000000000178 .L0 
     /tmp/ccplzS8I.s:436    .text:0000000000000178 .L0 
   src/syscall_c.cpp:8      .text:0000000000000178 .L0 
     /tmp/ccplzS8I.s:445    .text:000000000000017c .L0 
     /tmp/ccplzS8I.s:446    .text:000000000000017c .L0 
   src/syscall_c.cpp:110    .text:000000000000017c .L0 
     /tmp/ccplzS8I.s:453    .text:0000000000000180 .L0 
     /tmp/ccplzS8I.s:455    .text:0000000000000180 .L0 
     /tmp/ccplzS8I.s:457    .text:0000000000000188 .L0 
     /tmp/ccplzS8I.s:458    .text:0000000000000188 .L0 
     /tmp/ccplzS8I.s:460    .text:000000000000018c .L0 
GAS LISTING /tmp/ccplzS8I.s 			page 26


     /tmp/ccplzS8I.s:462    .text:0000000000000190 .L0 
     /tmp/ccplzS8I.s:468    .text:0000000000000190 _Z8sem_openPP4KSemj
     /tmp/ccplzS8I.s:471    .text:0000000000000190 .L0 
     /tmp/ccplzS8I.s:473    .text:0000000000000190 .L0 
     /tmp/ccplzS8I.s:474    .text:0000000000000194 .L0 
     /tmp/ccplzS8I.s:476    .text:0000000000000198 .L0 
     /tmp/ccplzS8I.s:478    .text:000000000000019c .L0 
     /tmp/ccplzS8I.s:482    .text:00000000000001a4 .L0 
   src/syscall_c.cpp:116    .text:00000000000001a4 .L0 
     /tmp/ccplzS8I.s:489    .text:00000000000001a8 .L0 
   src/syscall_c.cpp:117    .text:00000000000001a8 .L0 
     /tmp/ccplzS8I.s:494    .text:00000000000001ac .L0 
   src/syscall_c.cpp:118    .text:00000000000001ac .L0 
     /tmp/ccplzS8I.s:502    .text:00000000000001b0 .L0 
     /tmp/ccplzS8I.s:503    .text:00000000000001b0 .L0 
   src/syscall_c.cpp:8      .text:00000000000001b0 .L0 
     /tmp/ccplzS8I.s:512    .text:00000000000001b4 .L0 
     /tmp/ccplzS8I.s:513    .text:00000000000001b4 .L0 
   src/syscall_c.cpp:127    .text:00000000000001b4 .L0 
     /tmp/ccplzS8I.s:520    .text:00000000000001b8 .L0 
     /tmp/ccplzS8I.s:522    .text:00000000000001b8 .L0 
     /tmp/ccplzS8I.s:524    .text:00000000000001c0 .L0 
     /tmp/ccplzS8I.s:525    .text:00000000000001c0 .L0 
     /tmp/ccplzS8I.s:527    .text:00000000000001c4 .L0 
     /tmp/ccplzS8I.s:529    .text:00000000000001c8 .L0 
     /tmp/ccplzS8I.s:535    .text:00000000000001c8 _Z9sem_closeP4KSem
     /tmp/ccplzS8I.s:538    .text:00000000000001c8 .L0 
     /tmp/ccplzS8I.s:540    .text:00000000000001c8 .L0 
     /tmp/ccplzS8I.s:541    .text:00000000000001cc .L0 
     /tmp/ccplzS8I.s:543    .text:00000000000001d0 .L0 
     /tmp/ccplzS8I.s:545    .text:00000000000001d4 .L0 
     /tmp/ccplzS8I.s:548    .text:00000000000001d8 .L0 
   src/syscall_c.cpp:133    .text:00000000000001d8 .L0 
     /tmp/ccplzS8I.s:555    .text:00000000000001dc .L0 
   src/syscall_c.cpp:134    .text:00000000000001dc .L0 
     /tmp/ccplzS8I.s:563    .text:00000000000001e0 .L0 
     /tmp/ccplzS8I.s:564    .text:00000000000001e0 .L0 
   src/syscall_c.cpp:8      .text:00000000000001e0 .L0 
     /tmp/ccplzS8I.s:573    .text:00000000000001e4 .L0 
     /tmp/ccplzS8I.s:574    .text:00000000000001e4 .L0 
   src/syscall_c.cpp:141    .text:00000000000001e4 .L0 
     /tmp/ccplzS8I.s:581    .text:00000000000001e8 .L0 
     /tmp/ccplzS8I.s:583    .text:00000000000001e8 .L0 
     /tmp/ccplzS8I.s:585    .text:00000000000001f0 .L0 
     /tmp/ccplzS8I.s:586    .text:00000000000001f0 .L0 
     /tmp/ccplzS8I.s:588    .text:00000000000001f4 .L0 
     /tmp/ccplzS8I.s:590    .text:00000000000001f8 .L0 
     /tmp/ccplzS8I.s:596    .text:00000000000001f8 _Z8sem_waitP4KSem
     /tmp/ccplzS8I.s:599    .text:00000000000001f8 .L0 
     /tmp/ccplzS8I.s:601    .text:00000000000001f8 .L0 
     /tmp/ccplzS8I.s:602    .text:00000000000001fc .L0 
     /tmp/ccplzS8I.s:604    .text:0000000000000200 .L0 
     /tmp/ccplzS8I.s:606    .text:0000000000000204 .L0 
     /tmp/ccplzS8I.s:609    .text:0000000000000208 .L0 
   src/syscall_c.cpp:147    .text:0000000000000208 .L0 
     /tmp/ccplzS8I.s:616    .text:000000000000020c .L0 
   src/syscall_c.cpp:148    .text:000000000000020c .L0 
GAS LISTING /tmp/ccplzS8I.s 			page 27


     /tmp/ccplzS8I.s:624    .text:0000000000000210 .L0 
     /tmp/ccplzS8I.s:625    .text:0000000000000210 .L0 
   src/syscall_c.cpp:8      .text:0000000000000210 .L0 
     /tmp/ccplzS8I.s:634    .text:0000000000000214 .L0 
     /tmp/ccplzS8I.s:635    .text:0000000000000214 .L0 
   src/syscall_c.cpp:155    .text:0000000000000214 .L0 
     /tmp/ccplzS8I.s:642    .text:0000000000000218 .L0 
     /tmp/ccplzS8I.s:644    .text:0000000000000218 .L0 
     /tmp/ccplzS8I.s:646    .text:0000000000000220 .L0 
     /tmp/ccplzS8I.s:647    .text:0000000000000220 .L0 
     /tmp/ccplzS8I.s:649    .text:0000000000000224 .L0 
     /tmp/ccplzS8I.s:651    .text:0000000000000228 .L0 
     /tmp/ccplzS8I.s:657    .text:0000000000000228 _Z10sem_signalP4KSem
     /tmp/ccplzS8I.s:660    .text:0000000000000228 .L0 
     /tmp/ccplzS8I.s:662    .text:0000000000000228 .L0 
     /tmp/ccplzS8I.s:663    .text:000000000000022c .L0 
     /tmp/ccplzS8I.s:665    .text:0000000000000230 .L0 
     /tmp/ccplzS8I.s:667    .text:0000000000000234 .L0 
     /tmp/ccplzS8I.s:670    .text:0000000000000238 .L0 
   src/syscall_c.cpp:161    .text:0000000000000238 .L0 
     /tmp/ccplzS8I.s:677    .text:000000000000023c .L0 
   src/syscall_c.cpp:162    .text:000000000000023c .L0 
     /tmp/ccplzS8I.s:685    .text:0000000000000240 .L0 
     /tmp/ccplzS8I.s:686    .text:0000000000000240 .L0 
   src/syscall_c.cpp:8      .text:0000000000000240 .L0 
     /tmp/ccplzS8I.s:695    .text:0000000000000244 .L0 
     /tmp/ccplzS8I.s:696    .text:0000000000000244 .L0 
   src/syscall_c.cpp:169    .text:0000000000000244 .L0 
     /tmp/ccplzS8I.s:703    .text:0000000000000248 .L0 
     /tmp/ccplzS8I.s:705    .text:0000000000000248 .L0 
     /tmp/ccplzS8I.s:707    .text:0000000000000250 .L0 
     /tmp/ccplzS8I.s:708    .text:0000000000000250 .L0 
     /tmp/ccplzS8I.s:710    .text:0000000000000254 .L0 
     /tmp/ccplzS8I.s:712    .text:0000000000000258 .L0 
     /tmp/ccplzS8I.s:718    .text:0000000000000258 _Z4getcv
     /tmp/ccplzS8I.s:721    .text:0000000000000258 .L0 
     /tmp/ccplzS8I.s:722    .text:0000000000000258 .L0 
     /tmp/ccplzS8I.s:723    .text:000000000000025c .L0 
     /tmp/ccplzS8I.s:725    .text:0000000000000260 .L0 
     /tmp/ccplzS8I.s:727    .text:0000000000000264 .L0 
     /tmp/ccplzS8I.s:729    .text:0000000000000264 .L0 
   src/syscall_c.cpp:175    .text:0000000000000264 .L0 
     /tmp/ccplzS8I.s:738    .text:0000000000000268 .L0 
     /tmp/ccplzS8I.s:739    .text:0000000000000268 .L0 
   src/syscall_c.cpp:8      .text:0000000000000268 .L0 
     /tmp/ccplzS8I.s:748    .text:000000000000026c .L0 
     /tmp/ccplzS8I.s:749    .text:000000000000026c .L0 
   src/syscall_c.cpp:180    .text:000000000000026c .L0 
     /tmp/ccplzS8I.s:756    .text:0000000000000270 .L0 
     /tmp/ccplzS8I.s:758    .text:0000000000000270 .L0 
     /tmp/ccplzS8I.s:760    .text:0000000000000278 .L0 
     /tmp/ccplzS8I.s:761    .text:0000000000000278 .L0 
     /tmp/ccplzS8I.s:763    .text:000000000000027c .L0 
     /tmp/ccplzS8I.s:765    .text:0000000000000280 .L0 
     /tmp/ccplzS8I.s:771    .text:0000000000000280 _Z4putcc
     /tmp/ccplzS8I.s:774    .text:0000000000000280 .L0 
     /tmp/ccplzS8I.s:776    .text:0000000000000280 .L0 
GAS LISTING /tmp/ccplzS8I.s 			page 28


     /tmp/ccplzS8I.s:777    .text:0000000000000284 .L0 
     /tmp/ccplzS8I.s:779    .text:0000000000000288 .L0 
     /tmp/ccplzS8I.s:781    .text:000000000000028c .L0 
     /tmp/ccplzS8I.s:784    .text:0000000000000290 .L0 
   src/syscall_c.cpp:186    .text:0000000000000290 .L0 
     /tmp/ccplzS8I.s:791    .text:0000000000000294 .L0 
   src/syscall_c.cpp:187    .text:0000000000000294 .L0 
     /tmp/ccplzS8I.s:799    .text:0000000000000298 .L0 
     /tmp/ccplzS8I.s:800    .text:0000000000000298 .L0 
   src/syscall_c.cpp:8      .text:0000000000000298 .L0 
     /tmp/ccplzS8I.s:809    .text:000000000000029c .L0 
     /tmp/ccplzS8I.s:810    .text:00000000000002a0 .L0 
     /tmp/ccplzS8I.s:811    .text:00000000000002a0 .L0 
     /tmp/ccplzS8I.s:813    .text:00000000000002a4 .L0 
     /tmp/ccplzS8I.s:815    .text:00000000000002a8 .L0 
     /tmp/ccplzS8I.s:821    .text:00000000000002a8 _Z12thread_allocPP3TCBPFvPvES2_
     /tmp/ccplzS8I.s:824    .text:00000000000002a8 .L0 
     /tmp/ccplzS8I.s:826    .text:00000000000002a8 .L0 
     /tmp/ccplzS8I.s:827    .text:00000000000002ac .L0 
     /tmp/ccplzS8I.s:833    .text:00000000000002c0 .L0 
     /tmp/ccplzS8I.s:834    .text:00000000000002c0 .L0 
     /tmp/ccplzS8I.s:835    .text:00000000000002c0 .L0 
     /tmp/ccplzS8I.s:836    .text:00000000000002c0 .L0 
     /tmp/ccplzS8I.s:837    .text:00000000000002c0 .L0 
     /tmp/ccplzS8I.s:839    .text:00000000000002c4 .L0 
     /tmp/ccplzS8I.s:845    .text:00000000000002d0 .L0 
     /tmp/ccplzS8I.s:846    .text:00000000000002d0 .L0 
     /tmp/ccplzS8I.s:848    .text:00000000000002d4 .L0 
     /tmp/ccplzS8I.s:849    .text:00000000000002d4 .L0 
     /tmp/ccplzS8I.s:857    .text:00000000000002e4 .L0 
   src/syscall_c.cpp:201    .text:00000000000002e4 .L0 
     /tmp/ccplzS8I.s:863    .text:00000000000002e8 .L0 
   src/syscall_c.cpp:202    .text:00000000000002e8 .L0 
     /tmp/ccplzS8I.s:868    .text:00000000000002ec .L0 
   src/syscall_c.cpp:204    .text:00000000000002ec .L0 
     /tmp/ccplzS8I.s:873    .text:00000000000002f0 .L0 
   src/syscall_c.cpp:205    .text:00000000000002f0 .L0 
     /tmp/ccplzS8I.s:878    .text:00000000000002f4 .L0 
   src/syscall_c.cpp:206    .text:00000000000002f4 .L0 
     /tmp/ccplzS8I.s:886    .text:00000000000002f8 .L0 
     /tmp/ccplzS8I.s:887    .text:00000000000002f8 .L0 
   src/syscall_c.cpp:8      .text:00000000000002f8 .L0 
     /tmp/ccplzS8I.s:896    .text:00000000000002fc .L0 
     /tmp/ccplzS8I.s:897    .text:00000000000002fc .L0 
   src/syscall_c.cpp:216    .text:00000000000002fc .L0 
     /tmp/ccplzS8I.s:904    .text:0000000000000300 .L0 
     /tmp/ccplzS8I.s:906    .text:0000000000000300 .L0 
     /tmp/ccplzS8I.s:908    .text:0000000000000308 .L0 
     /tmp/ccplzS8I.s:909    .text:0000000000000308 .L0 
     /tmp/ccplzS8I.s:911    .text:000000000000030c .L0 
     /tmp/ccplzS8I.s:912    .text:000000000000030c .L0 
     /tmp/ccplzS8I.s:914    .text:0000000000000310 .L0 
     /tmp/ccplzS8I.s:917    .text:0000000000000314 .L0 
     /tmp/ccplzS8I.s:920    .text:0000000000000318 .L0 
     /tmp/ccplzS8I.s:923    .text:000000000000031c .L0 
     /tmp/ccplzS8I.s:927    .text:0000000000000320 .L0 
     /tmp/ccplzS8I.s:929    .text:0000000000000320 .L0 
GAS LISTING /tmp/ccplzS8I.s 			page 29


     /tmp/ccplzS8I.s:931    .text:0000000000000328 .L0 
     /tmp/ccplzS8I.s:937    .text:0000000000000328 _Z12thread_startP3TCB
     /tmp/ccplzS8I.s:940    .text:0000000000000328 .L0 
     /tmp/ccplzS8I.s:942    .text:0000000000000328 .L0 
     /tmp/ccplzS8I.s:943    .text:000000000000032c .L0 
     /tmp/ccplzS8I.s:945    .text:0000000000000330 .L0 
     /tmp/ccplzS8I.s:947    .text:0000000000000334 .L0 
     /tmp/ccplzS8I.s:950    .text:0000000000000338 .L0 
   src/syscall_c.cpp:221    .text:0000000000000338 .L0 
     /tmp/ccplzS8I.s:957    .text:000000000000033c .L0 
   src/syscall_c.cpp:222    .text:000000000000033c .L0 
     /tmp/ccplzS8I.s:965    .text:0000000000000340 .L0 
     /tmp/ccplzS8I.s:966    .text:0000000000000340 .L0 
   src/syscall_c.cpp:8      .text:0000000000000340 .L0 
     /tmp/ccplzS8I.s:975    .text:0000000000000344 .L0 
     /tmp/ccplzS8I.s:976    .text:0000000000000348 .L0 
     /tmp/ccplzS8I.s:977    .text:0000000000000348 .L0 
     /tmp/ccplzS8I.s:979    .text:000000000000034c .L0 
     /tmp/ccplzS8I.s:981    .text:0000000000000350 .L0 
     /tmp/ccplzS8I.s:989    .text:0000000000000350 .L0 
     /tmp/ccplzS8I.s:34     .text:0000000000000020 .L2
     /tmp/ccplzS8I.s:251    .text:00000000000000e8 .L8
     /tmp/ccplzS8I.s:180    .text:00000000000000ac .L7
     /tmp/ccplzS8I.s:926    .text:0000000000000320 .L32
     /tmp/ccplzS8I.s:855    .text:00000000000002e4 .L31
     /tmp/ccplzS8I.s:2266   .debug_abbrev:0000000000000000 .Ldebug_abbrev0
     /tmp/ccplzS8I.s:3643   .debug_str:000000000000065d .LASF130
     /tmp/ccplzS8I.s:3549   .debug_str:0000000000000397 .LASF131
     /tmp/ccplzS8I.s:3607   .debug_str:000000000000055a .LASF132
     /tmp/ccplzS8I.s:5      .text:0000000000000000 .Ltext0
     /tmp/ccplzS8I.s:984    .text:0000000000000350 .Letext0
     /tmp/ccplzS8I.s:3423   .debug_line:0000000000000000 .Ldebug_line0
     /tmp/ccplzS8I.s:3513   .debug_str:00000000000002bc .LASF0
     /tmp/ccplzS8I.s:3533   .debug_str:0000000000000335 .LASF1
     /tmp/ccplzS8I.s:3599   .debug_str:0000000000000523 .LASF2
     /tmp/ccplzS8I.s:3605   .debug_str:0000000000000553 .LASF4
     /tmp/ccplzS8I.s:3521   .debug_str:00000000000002ef .LASF3
     /tmp/ccplzS8I.s:3431   .debug_str:0000000000000043 .LASF5
     /tmp/ccplzS8I.s:3579   .debug_str:0000000000000488 .LASF6
     /tmp/ccplzS8I.s:3573   .debug_str:0000000000000458 .LASF7
     /tmp/ccplzS8I.s:3525   .debug_str:0000000000000313 .LASF8
     /tmp/ccplzS8I.s:3497   .debug_str:000000000000024d .LASF9
     /tmp/ccplzS8I.s:3503   .debug_str:0000000000000281 .LASF10
     /tmp/ccplzS8I.s:3455   .debug_str:0000000000000106 .LASF11
     /tmp/ccplzS8I.s:3493   .debug_str:0000000000000226 .LASF12
     /tmp/ccplzS8I.s:3461   .debug_str:000000000000012d .LASF13
     /tmp/ccplzS8I.s:3453   .debug_str:00000000000000f6 .LASF14
     /tmp/ccplzS8I.s:3621   .debug_str:00000000000005d6 .LASF15
     /tmp/ccplzS8I.s:3485   .debug_str:00000000000001c3 .LASF16
     /tmp/ccplzS8I.s:3615   .debug_str:00000000000005ae .LASF17
     /tmp/ccplzS8I.s:3671   .debug_str:00000000000007b7 .LASF18
     /tmp/ccplzS8I.s:3629   .debug_str:0000000000000615 .LASF64
     /tmp/ccplzS8I.s:3619   .debug_str:00000000000005c9 .LASF19
     /tmp/ccplzS8I.s:3679   .debug_str:00000000000007f9 .LASF21
     /tmp/ccplzS8I.s:3569   .debug_str:0000000000000447 .LASF133
     /tmp/ccplzS8I.s:3691   .debug_str:0000000000000856 .LASF33
     /tmp/ccplzS8I.s:3523   .debug_str:0000000000000301 .LASF35
GAS LISTING /tmp/ccplzS8I.s 			page 30


     /tmp/ccplzS8I.s:3631   .debug_str:000000000000061d .LASF23
     /tmp/ccplzS8I.s:3627   .debug_str:00000000000005ff .LASF25
     /tmp/ccplzS8I.s:3443   .debug_str:00000000000000a5 .LASF20
     /tmp/ccplzS8I.s:3653   .debug_str:000000000000075b .LASF22
     /tmp/ccplzS8I.s:3601   .debug_str:0000000000000531 .LASF24
     /tmp/ccplzS8I.s:3625   .debug_str:00000000000005eb .LASF26
     /tmp/ccplzS8I.s:3635   .debug_str:0000000000000635 .LASF27
     /tmp/ccplzS8I.s:3489   .debug_str:00000000000001f7 .LASF28
     /tmp/ccplzS8I.s:3539   .debug_str:0000000000000356 .LASF29
     /tmp/ccplzS8I.s:3589   .debug_str:00000000000004d6 .LASF30
     /tmp/ccplzS8I.s:3475   .debug_str:0000000000000192 .LASF31
     /tmp/ccplzS8I.s:3603   .debug_str:000000000000053b .LASF32
     /tmp/ccplzS8I.s:3657   .debug_str:000000000000077b .LASF34
     /tmp/ccplzS8I.s:3495   .debug_str:0000000000000235 .LASF36
     /tmp/ccplzS8I.s:3673   .debug_str:00000000000007c0 .LASF37
     /tmp/ccplzS8I.s:3491   .debug_str:000000000000020d .LASF39
     /tmp/ccplzS8I.s:3537   .debug_str:0000000000000350 .LASF38
     /tmp/ccplzS8I.s:3645   .debug_str:0000000000000721 .LASF40
     /tmp/ccplzS8I.s:3477   .debug_str:000000000000019f .LASF41
     /tmp/ccplzS8I.s:3459   .debug_str:000000000000011a .LASF42
     /tmp/ccplzS8I.s:3665   .debug_str:000000000000079f .LASF43
     /tmp/ccplzS8I.s:3435   .debug_str:0000000000000066 .LASF44
     /tmp/ccplzS8I.s:3639   .debug_str:0000000000000645 .LASF45
     /tmp/ccplzS8I.s:3449   .debug_str:00000000000000d6 .LASF46
     /tmp/ccplzS8I.s:3651   .debug_str:0000000000000753 .LASF47
     /tmp/ccplzS8I.s:3451   .debug_str:00000000000000e7 .LASF48
     /tmp/ccplzS8I.s:3693   .debug_str:000000000000085c .LASF49
     /tmp/ccplzS8I.s:3661   .debug_str:000000000000078c .LASF50
     /tmp/ccplzS8I.s:3647   .debug_str:0000000000000731 .LASF51
     /tmp/ccplzS8I.s:3613   .debug_str:00000000000005a5 .LASF52
     /tmp/ccplzS8I.s:3565   .debug_str:000000000000041e .LASF53
     /tmp/ccplzS8I.s:3509   .debug_str:00000000000002a8 .LASF54
     /tmp/ccplzS8I.s:3641   .debug_str:000000000000064d .LASF55
     /tmp/ccplzS8I.s:3571   .debug_str:000000000000044c .LASF56
     /tmp/ccplzS8I.s:3425   .debug_str:0000000000000000 .LASF57
     /tmp/ccplzS8I.s:3427   .debug_str:000000000000000d .LASF58
     /tmp/ccplzS8I.s:3687   .debug_str:0000000000000832 .LASF134
     /tmp/ccplzS8I.s:3467   .debug_str:000000000000015b .LASF86
     /tmp/ccplzS8I.s:3429   .debug_str:000000000000001b .LASF87
     /tmp/ccplzS8I.s:3697   .debug_str:0000000000000874 .LASF59
     /tmp/ccplzS8I.s:3501   .debug_str:0000000000000275 .LASF60
     /tmp/ccplzS8I.s:3515   .debug_str:00000000000002c9 .LASF70
     /tmp/ccplzS8I.s:3543   .debug_str:0000000000000379 .LASF71
     /tmp/ccplzS8I.s:3685   .debug_str:000000000000082c .LASF61
     /tmp/ccplzS8I.s:3617   .debug_str:00000000000005c4 .LASF135
     /tmp/ccplzS8I.s:3593   .debug_str:00000000000004fe .LASF62
     /tmp/ccplzS8I.s:3559   .debug_str:00000000000003f1 .LASF63
     /tmp/ccplzS8I.s:3473   .debug_str:000000000000018d .LASF65
     /tmp/ccplzS8I.s:3527   .debug_str:0000000000000326 .LASF66
     /tmp/ccplzS8I.s:3457   .debug_str:0000000000000115 .LASF67
     /tmp/ccplzS8I.s:3487   .debug_str:00000000000001d9 .LASF68
     /tmp/ccplzS8I.s:3469   .debug_str:0000000000000169 .LASF69
     /tmp/ccplzS8I.s:3583   .debug_str:000000000000049d .LASF72
     /tmp/ccplzS8I.s:3659   .debug_str:0000000000000786 .LASF73
     /tmp/ccplzS8I.s:3529   .debug_str:000000000000032b .LASF74
     /tmp/ccplzS8I.s:3437   .debug_str:0000000000000078 .LASF75
     /tmp/ccplzS8I.s:3499   .debug_str:000000000000025d .LASF76
GAS LISTING /tmp/ccplzS8I.s 			page 31


     /tmp/ccplzS8I.s:3471   .debug_str:0000000000000183 .LASF91
     /tmp/ccplzS8I.s:3649   .debug_str:000000000000073b .LASF93
     /tmp/ccplzS8I.s:3633   .debug_str:0000000000000628 .LASF77
     /tmp/ccplzS8I.s:3677   .debug_str:00000000000007e4 .LASF78
     /tmp/ccplzS8I.s:3481   .debug_str:00000000000001b5 .LASF79
     /tmp/ccplzS8I.s:3433   .debug_str:000000000000004a .LASF80
     /tmp/ccplzS8I.s:3535   .debug_str:0000000000000348 .LASF81
     /tmp/ccplzS8I.s:3555   .debug_str:00000000000003c8 .LASF82
     /tmp/ccplzS8I.s:3445   .debug_str:00000000000000b1 .LASF83
     /tmp/ccplzS8I.s:3447   .debug_str:00000000000000ba .LASF84
     /tmp/ccplzS8I.s:3463   .debug_str:000000000000013d .LASF85
     /tmp/ccplzS8I.s:3675   .debug_str:00000000000007ce .LASF88
     /tmp/ccplzS8I.s:3575   .debug_str:000000000000046b .LASF89
     /tmp/ccplzS8I.s:3541   .debug_str:0000000000000363 .LASF90
     /tmp/ccplzS8I.s:938    .text:0000000000000328 .LFB56
     /tmp/ccplzS8I.s:982    .text:0000000000000350 .LFE56
     /tmp/ccplzS8I.s:3683   .debug_str:0000000000000825 .LASF95
     /tmp/ccplzS8I.s:3090   .debug_loc:0000000000000000 .LLST20
     /tmp/ccplzS8I.s:963    .text:0000000000000340 .LBB60
     /tmp/ccplzS8I.s:973    .text:0000000000000344 .LBE60
     /tmp/ccplzS8I.s:3611   .debug_str:0000000000000598 .LASF92
     /tmp/ccplzS8I.s:3609   .debug_str:0000000000000578 .LASF94
     /tmp/ccplzS8I.s:822    .text:00000000000002a8 .LFB55
     /tmp/ccplzS8I.s:932    .text:0000000000000328 .LFE55
     /tmp/ccplzS8I.s:3101   .debug_loc:0000000000000036 .LLST15
     /tmp/ccplzS8I.s:3465   .debug_str:0000000000000152 .LASF96
     /tmp/ccplzS8I.s:3123   .debug_loc:0000000000000095 .LLST16
     /tmp/ccplzS8I.s:3145   .debug_loc:00000000000000f4 .LLST17
     /tmp/ccplzS8I.s:3167   .debug_loc:0000000000000153 .LLST18
     /tmp/ccplzS8I.s:3669   .debug_str:00000000000007b0 .LASF97
     /tmp/ccplzS8I.s:3184   .debug_loc:000000000000019e .LLST19
     /tmp/ccplzS8I.s:884    .text:00000000000002f8 .LBB58
     /tmp/ccplzS8I.s:894    .text:00000000000002fc .LBE58
     /tmp/ccplzS8I.s:852    .text:00000000000002e0 .LVL42
     /tmp/ccplzS8I.s:3547   .debug_str:0000000000000392 .LASF98
     /tmp/ccplzS8I.s:3623   .debug_str:00000000000005e2 .LASF99
     /tmp/ccplzS8I.s:772    .text:0000000000000280 .LFB54
     /tmp/ccplzS8I.s:816    .text:00000000000002a8 .LFE54
     /tmp/ccplzS8I.s:3191   .debug_loc:00000000000001c1 .LLST14
     /tmp/ccplzS8I.s:797    .text:0000000000000298 .LBB56
     /tmp/ccplzS8I.s:807    .text:000000000000029c .LBE56
     /tmp/ccplzS8I.s:3637   .debug_str:0000000000000640 .LASF100
     /tmp/ccplzS8I.s:3517   .debug_str:00000000000002d9 .LASF101
     /tmp/ccplzS8I.s:3667   .debug_str:00000000000007a7 .LASF102
     /tmp/ccplzS8I.s:719    .text:0000000000000258 .LFB53
     /tmp/ccplzS8I.s:766    .text:0000000000000280 .LFE53
     /tmp/ccplzS8I.s:3557   .debug_str:00000000000003e7 .LASF103
     /tmp/ccplzS8I.s:736    .text:0000000000000268 .LBB54
     /tmp/ccplzS8I.s:746    .text:000000000000026c .LBE54
     /tmp/ccplzS8I.s:3507   .debug_str:000000000000029d .LASF104
     /tmp/ccplzS8I.s:3595   .debug_str:0000000000000503 .LASF105
     /tmp/ccplzS8I.s:658    .text:0000000000000228 .LFB52
     /tmp/ccplzS8I.s:713    .text:0000000000000258 .LFE52
     /tmp/ccplzS8I.s:3205   .debug_loc:00000000000001fa .LLST13
     /tmp/ccplzS8I.s:683    .text:0000000000000240 .LBB52
     /tmp/ccplzS8I.s:693    .text:0000000000000244 .LBE52
     /tmp/ccplzS8I.s:3699   .debug_str:0000000000000881 .LASF106
GAS LISTING /tmp/ccplzS8I.s 			page 32


     /tmp/ccplzS8I.s:3695   .debug_str:0000000000000862 .LASF107
     /tmp/ccplzS8I.s:597    .text:00000000000001f8 .LFB51
     /tmp/ccplzS8I.s:652    .text:0000000000000228 .LFE51
     /tmp/ccplzS8I.s:3216   .debug_loc:0000000000000230 .LLST12
     /tmp/ccplzS8I.s:622    .text:0000000000000210 .LBB50
     /tmp/ccplzS8I.s:632    .text:0000000000000214 .LBE50
     /tmp/ccplzS8I.s:3587   .debug_str:00000000000004cc .LASF108
     /tmp/ccplzS8I.s:3439   .debug_str:000000000000008d .LASF109
     /tmp/ccplzS8I.s:536    .text:00000000000001c8 .LFB50
     /tmp/ccplzS8I.s:591    .text:00000000000001f8 .LFE50
     /tmp/ccplzS8I.s:3227   .debug_loc:0000000000000266 .LLST11
     /tmp/ccplzS8I.s:561    .text:00000000000001e0 .LBB48
     /tmp/ccplzS8I.s:571    .text:00000000000001e4 .LBE48
     /tmp/ccplzS8I.s:3655   .debug_str:0000000000000772 .LASF110
     /tmp/ccplzS8I.s:3585   .debug_str:00000000000004b8 .LASF111
     /tmp/ccplzS8I.s:469    .text:0000000000000190 .LFB49
     /tmp/ccplzS8I.s:530    .text:00000000000001c8 .LFE49
     /tmp/ccplzS8I.s:3238   .debug_loc:000000000000029c .LLST9
     /tmp/ccplzS8I.s:3441   .debug_str:00000000000000a0 .LASF112
     /tmp/ccplzS8I.s:3249   .debug_loc:00000000000002d2 .LLST10
     /tmp/ccplzS8I.s:500    .text:00000000000001b0 .LBB46
     /tmp/ccplzS8I.s:510    .text:00000000000001b4 .LBE46
     /tmp/ccplzS8I.s:3597   .debug_str:0000000000000518 .LASF113
     /tmp/ccplzS8I.s:3577   .debug_str:0000000000000478 .LASF114
     /tmp/ccplzS8I.s:408    .text:0000000000000160 .LFB48
     /tmp/ccplzS8I.s:463    .text:0000000000000190 .LFE48
     /tmp/ccplzS8I.s:3479   .debug_str:00000000000001a8 .LASF115
     /tmp/ccplzS8I.s:3263   .debug_loc:000000000000030b .LLST8
     /tmp/ccplzS8I.s:433    .text:0000000000000178 .LBB44
     /tmp/ccplzS8I.s:443    .text:000000000000017c .LBE44
     /tmp/ccplzS8I.s:3561   .debug_str:00000000000003fd .LASF116
     /tmp/ccplzS8I.s:3563   .debug_str:0000000000000409 .LASF117
     /tmp/ccplzS8I.s:358    .text:0000000000000138 .LFB47
     /tmp/ccplzS8I.s:402    .text:0000000000000160 .LFE47
     /tmp/ccplzS8I.s:3274   .debug_loc:0000000000000341 .LLST7
     /tmp/ccplzS8I.s:383    .text:0000000000000150 .LBB42
     /tmp/ccplzS8I.s:393    .text:0000000000000154 .LBE42
     /tmp/ccplzS8I.s:3591   .debug_str:00000000000004ee .LASF118
     /tmp/ccplzS8I.s:3553   .debug_str:00000000000003b3 .LASF119
     /tmp/ccplzS8I.s:316    .text:0000000000000118 .LFB46
     /tmp/ccplzS8I.s:352    .text:0000000000000138 .LFE46
     /tmp/ccplzS8I.s:333    .text:0000000000000128 .LBB40
     /tmp/ccplzS8I.s:343    .text:000000000000012c .LBE40
     /tmp/ccplzS8I.s:3545   .debug_str:0000000000000386 .LASF120
     /tmp/ccplzS8I.s:3519   .debug_str:00000000000002de .LASF121
     /tmp/ccplzS8I.s:263    .text:00000000000000f0 .LFB45
     /tmp/ccplzS8I.s:310    .text:0000000000000118 .LFE45
     /tmp/ccplzS8I.s:280    .text:0000000000000100 .LBB38
     /tmp/ccplzS8I.s:290    .text:0000000000000104 .LBE38
     /tmp/ccplzS8I.s:3663   .debug_str:0000000000000791 .LASF122
     /tmp/ccplzS8I.s:3567   .debug_str:0000000000000426 .LASF123
     /tmp/ccplzS8I.s:147    .text:0000000000000070 .LFB44
     /tmp/ccplzS8I.s:257    .text:00000000000000f0 .LFE44
     /tmp/ccplzS8I.s:3285   .debug_loc:0000000000000377 .LLST2
     /tmp/ccplzS8I.s:3581   .debug_str:000000000000048f .LASF124
     /tmp/ccplzS8I.s:3307   .debug_loc:00000000000003d6 .LLST3
     /tmp/ccplzS8I.s:3329   .debug_loc:0000000000000435 .LLST4
GAS LISTING /tmp/ccplzS8I.s 			page 33


     /tmp/ccplzS8I.s:3351   .debug_loc:0000000000000494 .LLST5
     /tmp/ccplzS8I.s:3368   .debug_loc:00000000000004df .LLST6
     /tmp/ccplzS8I.s:209    .text:00000000000000c0 .LBB36
     /tmp/ccplzS8I.s:219    .text:00000000000000c4 .LBE36
     /tmp/ccplzS8I.s:177    .text:00000000000000a8 .LVL11
     /tmp/ccplzS8I.s:3511   .debug_str:00000000000002b3 .LASF125
     /tmp/ccplzS8I.s:3689   .debug_str:0000000000000848 .LASF126
     /tmp/ccplzS8I.s:86     .text:0000000000000040 .LFB43
     /tmp/ccplzS8I.s:141    .text:0000000000000070 .LFE43
     /tmp/ccplzS8I.s:3375   .debug_loc:0000000000000502 .LLST1
     /tmp/ccplzS8I.s:111    .text:0000000000000058 .LBB34
     /tmp/ccplzS8I.s:121    .text:000000000000005c .LBE34
     /tmp/ccplzS8I.s:3551   .debug_str:00000000000003a9 .LASF127
     /tmp/ccplzS8I.s:3505   .debug_str:000000000000028f .LASF128
     /tmp/ccplzS8I.s:10     .text:0000000000000000 .LFB42
     /tmp/ccplzS8I.s:80     .text:0000000000000040 .LFE42
     /tmp/ccplzS8I.s:3531   .debug_str:0000000000000330 .LASF129
     /tmp/ccplzS8I.s:3386   .debug_loc:0000000000000538 .LLST0
     /tmp/ccplzS8I.s:51     .text:000000000000002c .LBB32
     /tmp/ccplzS8I.s:61     .text:0000000000000030 .LBE32
     /tmp/ccplzS8I.s:3483   .debug_str:00000000000001bd .LASF136
     /tmp/ccplzS8I.s:3681   .debug_str:000000000000081b .LASF137
     /tmp/ccplzS8I.s:941    .text:0000000000000328 .LVL49
     /tmp/ccplzS8I.s:955    .text:000000000000033c .LVL50
     /tmp/ccplzS8I.s:825    .text:00000000000002a8 .LVL39
     /tmp/ccplzS8I.s:850    .text:00000000000002d8 .LVL41
     /tmp/ccplzS8I.s:918    .text:0000000000000314 .LVL46
     /tmp/ccplzS8I.s:925    .text:0000000000000320 .LVL48
     /tmp/ccplzS8I.s:915    .text:0000000000000310 .LVL45
     /tmp/ccplzS8I.s:921    .text:0000000000000318 .LVL47
     /tmp/ccplzS8I.s:844    .text:00000000000002d0 .LVL40
     /tmp/ccplzS8I.s:854    .text:00000000000002e4 .LVL43
     /tmp/ccplzS8I.s:902    .text:0000000000000300 .LVL44
     /tmp/ccplzS8I.s:775    .text:0000000000000280 .LVL37
     /tmp/ccplzS8I.s:789    .text:0000000000000294 .LVL38
     /tmp/ccplzS8I.s:661    .text:0000000000000228 .LVL33
     /tmp/ccplzS8I.s:675    .text:000000000000023c .LVL34
     /tmp/ccplzS8I.s:600    .text:00000000000001f8 .LVL30
     /tmp/ccplzS8I.s:614    .text:000000000000020c .LVL31
     /tmp/ccplzS8I.s:539    .text:00000000000001c8 .LVL27
     /tmp/ccplzS8I.s:553    .text:00000000000001dc .LVL28
     /tmp/ccplzS8I.s:472    .text:0000000000000190 .LVL24
     /tmp/ccplzS8I.s:487    .text:00000000000001a8 .LVL25
     /tmp/ccplzS8I.s:411    .text:0000000000000160 .LVL21
     /tmp/ccplzS8I.s:425    .text:0000000000000174 .LVL22
     /tmp/ccplzS8I.s:361    .text:0000000000000138 .LVL19
     /tmp/ccplzS8I.s:375    .text:000000000000014c .LVL20
     /tmp/ccplzS8I.s:150    .text:0000000000000070 .LVL8
     /tmp/ccplzS8I.s:175    .text:00000000000000a0 .LVL10
     /tmp/ccplzS8I.s:243    .text:00000000000000dc .LVL15
     /tmp/ccplzS8I.s:250    .text:00000000000000e8 .LVL17
     /tmp/ccplzS8I.s:240    .text:00000000000000d8 .LVL14
     /tmp/ccplzS8I.s:246    .text:00000000000000e0 .LVL16
     /tmp/ccplzS8I.s:169    .text:0000000000000098 .LVL9
     /tmp/ccplzS8I.s:179    .text:00000000000000ac .LVL12
     /tmp/ccplzS8I.s:227    .text:00000000000000c8 .LVL13
     /tmp/ccplzS8I.s:89     .text:0000000000000040 .LVL5
GAS LISTING /tmp/ccplzS8I.s 			page 34


     /tmp/ccplzS8I.s:103    .text:0000000000000054 .LVL6
     /tmp/ccplzS8I.s:14     .text:0000000000000000 .LVL0
     /tmp/ccplzS8I.s:24     .text:0000000000000010 .LVL1
     /tmp/ccplzS8I.s:30     .text:0000000000000018 .LVL2
     /tmp/ccplzS8I.s:37     .text:0000000000000024 .LVL3
     /tmp/ccplzS8I.s:990    .debug_info:0000000000000000 .Ldebug_info0

NO UNDEFINED SYMBOLS
