GAS LISTING /tmp/ccnbO7OO.s 			page 1


   1              		.file	"TCB.cpp"
   2              		.option pic
   3              		.option norelax
   4              		.text
   5              	.Ltext0:
   6              		.align	2
   7              		.globl	_ZN3TCB12createThreadEPFvPvES0_Pm
   9              	_ZN3TCB12createThreadEPFvPvES0_Pm:
  10              	.LFB27:
  11              		.file 1 "src/TCB.cpp"
   1:src/TCB.cpp   **** //
   2:src/TCB.cpp   **** // Created by os on 5/23/23.
   3:src/TCB.cpp   **** //
   4:src/TCB.cpp   **** 
   5:src/TCB.cpp   **** #include "../h/TCB.hpp"
   6:src/TCB.cpp   **** #include "../h/Riscv.hpp"
   7:src/TCB.cpp   **** #include "../h/Scheduler.hpp"
   8:src/TCB.cpp   **** 
   9:src/TCB.cpp   **** TCB* TCB::running = nullptr;
  10:src/TCB.cpp   **** uint64 TCB::runningTimeSlice = 0;
  11:src/TCB.cpp   **** 
  12:src/TCB.cpp   **** TCB* TCB::createThread(TCB::Body function, void* args, uint64* stack) {
  12              		.loc 1 12 71
  13              		.cfi_startproc
  14              	.LVL0:
  15 0000 130101FD 		addi	sp,sp,-48
  16              		.cfi_def_cfa_offset 48
  17 0004 23341102 		sd	ra,40(sp)
  18 0008 23308102 		sd	s0,32(sp)
  19 000c 233C9100 		sd	s1,24(sp)
  20 0010 23382101 		sd	s2,16(sp)
  21 0014 23343101 		sd	s3,8(sp)
  22 0018 23304101 		sd	s4,0(sp)
  23              		.cfi_offset 1, -8
  24              		.cfi_offset 8, -16
  25              		.cfi_offset 9, -24
  26              		.cfi_offset 18, -32
  27              		.cfi_offset 19, -40
  28              		.cfi_offset 20, -48
  29 001c 13040103 		addi	s0,sp,48
  30              		.cfi_def_cfa 8, 0
  31 0020 93090500 		mv	s3,a0
  32 0024 138A0500 		mv	s4,a1
  33 0028 13090600 		mv	s2,a2
  13:src/TCB.cpp   **** 	TCB* newThread = new TCB(function, args, stack);
  34              		.loc 1 13 2
  35              		.loc 1 13 48 is_stmt 0
  36 002c 13050004 		li	a0,64
  37              	.LVL1:
  38 0030 97000000 		call	_Znwm@plt
  38      E7800000 
  39              	.LVL2:
  40 0038 93040500 		mv	s1,a0
  41              	.LVL3:
  42              	.LBB10:
  43              	.LBB11:
  44              		.file 2 "src/../h/TCB.hpp"
GAS LISTING /tmp/ccnbO7OO.s 			page 2


   1:src/../h/TCB.hpp **** //
   2:src/../h/TCB.hpp **** // Created by os on 5/23/23.
   3:src/../h/TCB.hpp **** //
   4:src/../h/TCB.hpp **** 
   5:src/../h/TCB.hpp **** #ifndef PROJEKAT2023_TCB_HPP
   6:src/../h/TCB.hpp **** #define PROJEKAT2023_TCB_HPP
   7:src/../h/TCB.hpp **** 
   8:src/../h/TCB.hpp **** #include "../lib/hw.h"
   9:src/../h/TCB.hpp **** 
  10:src/../h/TCB.hpp **** class TCB {
  11:src/../h/TCB.hpp **** public:
  12:src/../h/TCB.hpp **** 	friend class Scheduler;
  13:src/../h/TCB.hpp **** 	using Body = void (*)(void*);
  14:src/../h/TCB.hpp **** 
  15:src/../h/TCB.hpp **** 	static TCB* createThread(Body function, void* args, uint64* stack);
  16:src/../h/TCB.hpp **** 
  17:src/../h/TCB.hpp **** 	bool isFinished() { return finished; }
  18:src/../h/TCB.hpp **** 
  19:src/../h/TCB.hpp **** 	void setFinished(bool finish) { this->finished = finish; }
  20:src/../h/TCB.hpp **** 
  21:src/../h/TCB.hpp **** 	bool isBlocked() { return blocked; }
  22:src/../h/TCB.hpp **** 
  23:src/../h/TCB.hpp **** 	void setBlocked(bool block) { this->blocked = block; }
  24:src/../h/TCB.hpp **** 
  25:src/../h/TCB.hpp **** 	uint64 getTimeSlice() { return timeSlice; }
  26:src/../h/TCB.hpp **** 
  27:src/../h/TCB.hpp **** 	void setTimeSlice(uint64 value) { timeSlice = value; }
  28:src/../h/TCB.hpp **** 
  29:src/../h/TCB.hpp **** 	static void threadSleep(time_t sleepTime);
  30:src/../h/TCB.hpp **** 
  31:src/../h/TCB.hpp **** 	static void threadJoin(TCB* handle);
  32:src/../h/TCB.hpp **** 
  33:src/../h/TCB.hpp **** 	static void yield();
  34:src/../h/TCB.hpp **** 
  35:src/../h/TCB.hpp **** 	static void dispatch();
  36:src/../h/TCB.hpp **** 
  37:src/../h/TCB.hpp **** 	static void wrapper();
  38:src/../h/TCB.hpp **** 
  39:src/../h/TCB.hpp **** 	static TCB* running;
  40:src/../h/TCB.hpp **** 	static uint64 runningTimeSlice;
  41:src/../h/TCB.hpp **** 
  42:src/../h/TCB.hpp **** //	TCB* getNextInScheduler(){
  43:src/../h/TCB.hpp **** //		return nextInScheduler;
  44:src/../h/TCB.hpp **** //	}
  45:src/../h/TCB.hpp **** //	void setNextInScheduler(TCB* tcb){
  46:src/../h/TCB.hpp **** //		nextInScheduler = tcb;
  47:src/../h/TCB.hpp **** //	}
  48:src/../h/TCB.hpp **** 
  49:src/../h/TCB.hpp **** private:
  50:src/../h/TCB.hpp **** 	//kontekst procesora za datu nit
  51:src/../h/TCB.hpp **** 	struct Context {
  52:src/../h/TCB.hpp **** 		uint64 ra;
  53:src/../h/TCB.hpp **** 		uint64 sp;
  54:src/../h/TCB.hpp **** 	} context;
  55:src/../h/TCB.hpp **** 	Body threadFunction;    //funkcija koja se izvrsava
  56:src/../h/TCB.hpp **** 	uint64* stack;            //najniza adresa steka; stek raste ka nizim adresama, pokazuje na posled
  57:src/../h/TCB.hpp **** 	void* args;                //argumenti poziva funkcije
GAS LISTING /tmp/ccnbO7OO.s 			page 3


  58:src/../h/TCB.hpp **** 	uint64 timeSlice;        //vremenski odsecak dodeljen datoj niti
  59:src/../h/TCB.hpp **** 	bool finished;            //da li je nit zavrsila izvrsavanje funkcije
  60:src/../h/TCB.hpp **** 	bool blocked;            //da li je nit blokirana
  61:src/../h/TCB.hpp **** 	TCB* nextInScheduler;    // pokazivac na sledecu nit u Scheduler-u
  62:src/../h/TCB.hpp **** 
  63:src/../h/TCB.hpp **** 	TCB(Body function, void* args, uint64* stack) : threadFunction(function), stack(stack), args(args)
  64:src/../h/TCB.hpp **** 													timeSlice(DEFAULT_TIME_SLICE), finished(false), blocked(false),
  65:src/../h/TCB.hpp **** 													nextInScheduler(nullptr) {
  45              		.loc 2 65 37
  46 003c 23383501 		sd	s3,16(a0)
  47 0040 233C2501 		sd	s2,24(a0)
  48 0044 23304503 		sd	s4,32(a0)
  49 0048 93072000 		li	a5,2
  50 004c 2334F502 		sd	a5,40(a0)
  51 0050 23080502 		sb	zero,48(a0)
  52 0054 A3080502 		sb	zero,49(a0)
  53 0058 233C0502 		sd	zero,56(a0)
  54              	.LBB12:
  66:src/../h/TCB.hpp **** 		//formiranje pocetnog konteksta; specijalni uslovi za main funkciju kojoj se pocetni kontekst aut
  67:src/../h/TCB.hpp **** 		uint64 startRa = threadFunction != nullptr ? (uint64)&wrapper : 0;
  55              		.loc 2 67 3 is_stmt 1
  56              		.loc 2 67 46 is_stmt 0
  57 005c 638A0904 		beqz	s3,.L5
  58 0060 97070000 		lla	a5,_ZN3TCB7wrapperEv
  58      93870700 
  59              	.L2:
  60              	.LVL4:
  68:src/../h/TCB.hpp **** 		uint64 startSp = stack != nullptr ? (uint64)&stack[DEFAULT_STACK_SIZE] : 0;
  61              		.loc 2 68 3 is_stmt 1
  62              		.loc 2 68 37 is_stmt 0
  63 0068 63080904 		beqz	s2,.L6
  64              		.loc 2 68 47
  65 006c 37860000 		li	a2,32768
  66 0070 3309C900 		add	s2,s2,a2
  67              	.LVL5:
  68              	.L3:
  69:src/../h/TCB.hpp **** 		this->context.ra = startRa;
  69              		.loc 2 69 3 is_stmt 1
  70              		.loc 2 69 20 is_stmt 0
  71 0074 23B0F400 		sd	a5,0(s1)
  70:src/../h/TCB.hpp **** 		this->context.sp = startSp;
  72              		.loc 2 70 3 is_stmt 1
  73              		.loc 2 70 20 is_stmt 0
  74 0078 23B42401 		sd	s2,8(s1)
  75              	.LVL6:
  76              	.LBE12:
  77              	.LBE11:
  78              	.LBE10:
  14:src/TCB.cpp   **** 	if (function != nullptr) Scheduler::put(newThread);
  79              		.loc 1 14 2 is_stmt 1
  80 007c 63880900 		beqz	s3,.L1
  81              		.loc 1 14 27 discriminator 1
  82              		.loc 1 14 41 is_stmt 0 discriminator 1
  83 0080 13850400 		mv	a0,s1
  84 0084 97000000 		call	_ZN9Scheduler3putEP3TCB@plt
  84      E7800000 
  85              	.LVL7:
GAS LISTING /tmp/ccnbO7OO.s 			page 4


  15:src/TCB.cpp   **** 	return newThread;
  86              		.loc 1 15 2 is_stmt 1 discriminator 1
  87              	.L1:
  16:src/TCB.cpp   **** }
  88              		.loc 1 16 1 is_stmt 0
  89 008c 13850400 		mv	a0,s1
  90 0090 83308102 		ld	ra,40(sp)
  91              		.cfi_remember_state
  92              		.cfi_restore 1
  93 0094 03340102 		ld	s0,32(sp)
  94              		.cfi_restore 8
  95              		.cfi_def_cfa 2, 48
  96 0098 83348101 		ld	s1,24(sp)
  97              		.cfi_restore 9
  98              	.LVL8:
  99 009c 03390101 		ld	s2,16(sp)
 100              		.cfi_restore 18
 101              	.LVL9:
 102 00a0 83398100 		ld	s3,8(sp)
 103              		.cfi_restore 19
 104              	.LVL10:
 105 00a4 033A0100 		ld	s4,0(sp)
 106              		.cfi_restore 20
 107              	.LVL11:
 108 00a8 13010103 		addi	sp,sp,48
 109              		.cfi_def_cfa_offset 0
 110 00ac 67800000 		jr	ra
 111              	.LVL12:
 112              	.L5:
 113              		.cfi_restore_state
 114              	.LBB15:
 115              	.LBB14:
 116              	.LBB13:
  67:src/../h/TCB.hpp **** 		uint64 startSp = stack != nullptr ? (uint64)&stack[DEFAULT_STACK_SIZE] : 0;
 117              		.loc 2 67 46
 118 00b0 93070000 		li	a5,0
 119 00b4 6FF05FFB 		j	.L2
 120              	.LVL13:
 121              	.L6:
  68:src/../h/TCB.hpp **** 		this->context.ra = startRa;
 122              		.loc 2 68 37
 123 00b8 13090000 		li	s2,0
 124              	.LVL14:
 125 00bc 6FF09FFB 		j	.L3
 126              	.LBE13:
 127              	.LBE14:
 128              	.LBE15:
 129              		.cfi_endproc
 130              	.LFE27:
 132              		.align	2
 133              		.globl	_ZN3TCB8dispatchEv
 135              	_ZN3TCB8dispatchEv:
 136              	.LFB28:
  17:src/TCB.cpp   **** 
  18:src/TCB.cpp   **** void TCB::dispatch() {
 137              		.loc 1 18 22 is_stmt 1
 138              		.cfi_startproc
GAS LISTING /tmp/ccnbO7OO.s 			page 5


 139 00c0 130101FE 		addi	sp,sp,-32
 140              		.cfi_def_cfa_offset 32
 141 00c4 233C1100 		sd	ra,24(sp)
 142 00c8 23388100 		sd	s0,16(sp)
 143 00cc 23349100 		sd	s1,8(sp)
 144              		.cfi_offset 1, -8
 145              		.cfi_offset 8, -16
 146              		.cfi_offset 9, -24
 147 00d0 13040102 		addi	s0,sp,32
 148              		.cfi_def_cfa 8, 0
  19:src/TCB.cpp   **** 	TCB* old = TCB::running;
 149              		.loc 1 19 2
 150              		.loc 1 19 7 is_stmt 0
 151 00d4 97040000 		ld	s1,.LANCHOR0
 151      83B40400 
 152              	.LVL15:
  20:src/TCB.cpp   **** 	if (!old->isFinished() && !old->isBlocked()) {
 153              		.loc 1 20 2 is_stmt 1
 154              	.LBB16:
 155              	.LBB17:
  17:src/../h/TCB.hpp **** 
 156              		.loc 2 17 22
  17:src/../h/TCB.hpp **** 
 157              		.loc 2 17 29 is_stmt 0
 158 00dc 83C70403 		lbu	a5,48(s1)
 159              	.LVL16:
 160              	.LBE17:
 161              	.LBE16:
 162              		.loc 1 20 25
 163 00e0 63960700 		bnez	a5,.L9
 164              	.LVL17:
 165              	.LBB18:
 166              	.LBB19:
  21:src/../h/TCB.hpp **** 
 167              		.loc 2 21 21 is_stmt 1
  21:src/../h/TCB.hpp **** 
 168              		.loc 2 21 28 is_stmt 0
 169 00e4 83C71403 		lbu	a5,49(s1)
 170              	.LVL18:
 171              	.LBE19:
 172              	.LBE18:
 173              		.loc 1 20 25
 174 00e8 638C0702 		beqz	a5,.L11
 175              	.L9:
  21:src/TCB.cpp   **** 		Scheduler::put(old);
  22:src/TCB.cpp   **** 	}
  23:src/TCB.cpp   **** 	TCB::running = Scheduler::get();
 176              		.loc 1 23 2 is_stmt 1
 177              		.loc 1 23 31 is_stmt 0
 178 00ec 97000000 		call	_ZN9Scheduler3getEv@plt
 178      E7800000 
 179              	.LVL19:
 180 00f4 93050500 		mv	a1,a0
 181              		.loc 1 23 15
 182 00f8 97070000 		sd	a0,.LANCHOR0,a5
 182      23B0A700 
  24:src/TCB.cpp   **** 	TCB::contextSwitch(&old->context, &running->context);
GAS LISTING /tmp/ccnbO7OO.s 			page 6


 183              		.loc 1 24 2 is_stmt 1
 184              		.loc 1 24 20 is_stmt 0
 185 0100 13850400 		mv	a0,s1
 186 0104 97000000 		call	_ZN3TCB13contextSwitchEPNS_7ContextES1_@plt
 186      E7800000 
 187              	.LVL20:
  25:src/TCB.cpp   **** }
 188              		.loc 1 25 1
 189 010c 83308101 		ld	ra,24(sp)
 190              		.cfi_remember_state
 191              		.cfi_restore 1
 192 0110 03340101 		ld	s0,16(sp)
 193              		.cfi_restore 8
 194              		.cfi_def_cfa 2, 32
 195 0114 83348100 		ld	s1,8(sp)
 196              		.cfi_restore 9
 197              	.LVL21:
 198 0118 13010102 		addi	sp,sp,32
 199              		.cfi_def_cfa_offset 0
 200 011c 67800000 		jr	ra
 201              	.LVL22:
 202              	.L11:
 203              		.cfi_restore_state
  21:src/TCB.cpp   **** 		Scheduler::put(old);
 204              		.loc 1 21 3 is_stmt 1
  21:src/TCB.cpp   **** 		Scheduler::put(old);
 205              		.loc 1 21 17 is_stmt 0
 206 0120 13850400 		mv	a0,s1
 207 0124 97000000 		call	_ZN9Scheduler3putEP3TCB@plt
 207      E7800000 
 208              	.LVL23:
 209 012c 6FF01FFC 		j	.L9
 210              		.cfi_endproc
 211              	.LFE28:
 213              		.align	2
 214              		.globl	_ZN3TCB5yieldEv
 216              	_ZN3TCB5yieldEv:
 217              	.LFB29:
  26:src/TCB.cpp   **** 
  27:src/TCB.cpp   **** void TCB::yield() {
 218              		.loc 1 27 19 is_stmt 1
 219              		.cfi_startproc
 220 0130 130101FF 		addi	sp,sp,-16
 221              		.cfi_def_cfa_offset 16
 222 0134 23341100 		sd	ra,8(sp)
 223 0138 23308100 		sd	s0,0(sp)
 224              		.cfi_offset 1, -8
 225              		.cfi_offset 8, -16
 226 013c 13040101 		addi	s0,sp,16
 227              		.cfi_def_cfa 8, 0
  28:src/TCB.cpp   **** 	Riscv::pushRegisters();
 228              		.loc 1 28 2
 229              		.loc 1 28 22 is_stmt 0
 230 0140 97000000 		call	_ZN5Riscv13pushRegistersEv@plt
 230      E7800000 
 231              	.LVL24:
  29:src/TCB.cpp   **** 	TCB::dispatch();
GAS LISTING /tmp/ccnbO7OO.s 			page 7


 232              		.loc 1 29 2 is_stmt 1
 233              		.loc 1 29 15 is_stmt 0
 234 0148 97000000 		call	_ZN3TCB8dispatchEv
 234      E7800000 
 235              	.LVL25:
  30:src/TCB.cpp   **** 	Riscv::popRegisters();
 236              		.loc 1 30 2 is_stmt 1
 237              		.loc 1 30 21 is_stmt 0
 238 0150 97000000 		call	_ZN5Riscv12popRegistersEv@plt
 238      E7800000 
 239              	.LVL26:
  31:src/TCB.cpp   **** }
 240              		.loc 1 31 1
 241 0158 83308100 		ld	ra,8(sp)
 242              		.cfi_restore 1
 243 015c 03340100 		ld	s0,0(sp)
 244              		.cfi_restore 8
 245              		.cfi_def_cfa 2, 16
 246 0160 13010101 		addi	sp,sp,16
 247              		.cfi_def_cfa_offset 0
 248 0164 67800000 		jr	ra
 249              		.cfi_endproc
 250              	.LFE29:
 252              		.align	2
 253              		.globl	_ZN3TCB7wrapperEv
 255              	_ZN3TCB7wrapperEv:
 256              	.LFB30:
  32:src/TCB.cpp   **** 
  33:src/TCB.cpp   **** void TCB::wrapper() {
 257              		.loc 1 33 21 is_stmt 1
 258              		.cfi_startproc
 259 0168 130101FE 		addi	sp,sp,-32
 260              		.cfi_def_cfa_offset 32
 261 016c 233C1100 		sd	ra,24(sp)
 262 0170 23388100 		sd	s0,16(sp)
 263 0174 23349100 		sd	s1,8(sp)
 264              		.cfi_offset 1, -8
 265              		.cfi_offset 8, -16
 266              		.cfi_offset 9, -24
 267 0178 13040102 		addi	s0,sp,32
 268              		.cfi_def_cfa 8, 0
  34:src/TCB.cpp   **** 	running->threadFunction(running->args);
 269              		.loc 1 34 2
 270              		.loc 1 34 11 is_stmt 0
 271 017c 97040000 		lla	s1,.LANCHOR0
 271      93840400 
 272 0184 83B70400 		ld	a5,0(s1)
 273 0188 03B70701 		ld	a4,16(a5)
 274              		.loc 1 34 25
 275 018c 03B50702 		ld	a0,32(a5)
 276 0190 E7000700 		jalr	a4
 277              	.LVL27:
  35:src/TCB.cpp   **** 	running->finished = true;
 278              		.loc 1 35 2 is_stmt 1
 279              		.loc 1 35 11 is_stmt 0
 280 0194 83B70400 		ld	a5,0(s1)
 281              		.loc 1 35 20
GAS LISTING /tmp/ccnbO7OO.s 			page 8


 282 0198 13071000 		li	a4,1
 283 019c 2388E702 		sb	a4,48(a5)
  36:src/TCB.cpp   **** 	TCB::yield();
 284              		.loc 1 36 2 is_stmt 1
 285              		.loc 1 36 12 is_stmt 0
 286 01a0 97000000 		call	_ZN3TCB5yieldEv
 286      E7800000 
 287              	.LVL28:
  37:src/TCB.cpp   **** }
 288              		.loc 1 37 1
 289 01a8 83308101 		ld	ra,24(sp)
 290              		.cfi_restore 1
 291 01ac 03340101 		ld	s0,16(sp)
 292              		.cfi_restore 8
 293              		.cfi_def_cfa 2, 32
 294 01b0 83348100 		ld	s1,8(sp)
 295              		.cfi_restore 9
 296 01b4 13010102 		addi	sp,sp,32
 297              		.cfi_def_cfa_offset 0
 298 01b8 67800000 		jr	ra
 299              		.cfi_endproc
 300              	.LFE30:
 302              		.globl	_ZN3TCB16runningTimeSliceE
 303              		.globl	_ZN3TCB7runningE
 304              		.bss
 305              		.align	3
 306              		.set	.LANCHOR0,. + 0
 309              	_ZN3TCB7runningE:
 310 0000 00000000 		.zero	8
 310      00000000 
 313              	_ZN3TCB16runningTimeSliceE:
 314 0008 00000000 		.zero	8
 314      00000000 
 315              		.text
 316              	.Letext0:
 317              		.file 3 "src/../h/../lib/hw.h"
 318              		.file 4 "src/../h/Riscv.hpp"
 319              		.file 5 "src/../h/Scheduler.hpp"
GAS LISTING /tmp/ccnbO7OO.s 			page 9


DEFINED SYMBOLS
                            *ABS*:0000000000000000 TCB.cpp
     /tmp/ccnbO7OO.s:9      .text:0000000000000000 _ZN3TCB12createThreadEPFvPvES0_Pm
     /tmp/ccnbO7OO.s:13     .text:0000000000000000 .L0 
     /tmp/ccnbO7OO.s:15     .text:0000000000000000 .L0 
     /tmp/ccnbO7OO.s:16     .text:0000000000000004 .L0 
     /tmp/ccnbO7OO.s:23     .text:000000000000001c .L0 
     /tmp/ccnbO7OO.s:24     .text:000000000000001c .L0 
     /tmp/ccnbO7OO.s:25     .text:000000000000001c .L0 
     /tmp/ccnbO7OO.s:26     .text:000000000000001c .L0 
     /tmp/ccnbO7OO.s:27     .text:000000000000001c .L0 
     /tmp/ccnbO7OO.s:28     .text:000000000000001c .L0 
     /tmp/ccnbO7OO.s:30     .text:0000000000000020 .L0 
     /tmp/ccnbO7OO.s:35     .text:000000000000002c .L0 
     /tmp/ccnbO7OO.s:36     .text:000000000000002c .L0 
     /tmp/ccnbO7OO.s:46     .text:000000000000003c .L0 
     /tmp/ccnbO7OO.s:56     .text:000000000000005c .L0 
     /tmp/ccnbO7OO.s:57     .text:000000000000005c .L0 
     /tmp/ccnbO7OO.s:255    .text:0000000000000168 _ZN3TCB7wrapperEv
     /tmp/ccnbO7OO.s:62     .text:0000000000000068 .L0 
     /tmp/ccnbO7OO.s:63     .text:0000000000000068 .L0 
     /tmp/ccnbO7OO.s:65     .text:000000000000006c .L0 
     /tmp/ccnbO7OO.s:70     .text:0000000000000074 .L0 
     /tmp/ccnbO7OO.s:71     .text:0000000000000074 .L0 
     /tmp/ccnbO7OO.s:73     .text:0000000000000078 .L0 
     /tmp/ccnbO7OO.s:74     .text:0000000000000078 .L0 
     /tmp/ccnbO7OO.s:80     .text:000000000000007c .L0 
     /tmp/ccnbO7OO.s:82     .text:0000000000000080 .L0 
     /tmp/ccnbO7OO.s:83     .text:0000000000000080 .L0 
     /tmp/ccnbO7OO.s:88     .text:000000000000008c .L0 
     /tmp/ccnbO7OO.s:89     .text:000000000000008c .L0 
     /tmp/ccnbO7OO.s:91     .text:0000000000000094 .L0 
     /tmp/ccnbO7OO.s:92     .text:0000000000000094 .L0 
     /tmp/ccnbO7OO.s:94     .text:0000000000000098 .L0 
     /tmp/ccnbO7OO.s:95     .text:0000000000000098 .L0 
     /tmp/ccnbO7OO.s:97     .text:000000000000009c .L0 
     /tmp/ccnbO7OO.s:100    .text:00000000000000a0 .L0 
     /tmp/ccnbO7OO.s:103    .text:00000000000000a4 .L0 
     /tmp/ccnbO7OO.s:106    .text:00000000000000a8 .L0 
     /tmp/ccnbO7OO.s:109    .text:00000000000000ac .L0 
     /tmp/ccnbO7OO.s:113    .text:00000000000000b0 .L0 
     /tmp/ccnbO7OO.s:118    .text:00000000000000b0 .L0 
     /tmp/ccnbO7OO.s:123    .text:00000000000000b8 .L0 
     /tmp/ccnbO7OO.s:129    .text:00000000000000c0 .L0 
     /tmp/ccnbO7OO.s:135    .text:00000000000000c0 _ZN3TCB8dispatchEv
     /tmp/ccnbO7OO.s:138    .text:00000000000000c0 .L0 
     /tmp/ccnbO7OO.s:139    .text:00000000000000c0 .L0 
     /tmp/ccnbO7OO.s:140    .text:00000000000000c4 .L0 
     /tmp/ccnbO7OO.s:144    .text:00000000000000d0 .L0 
     /tmp/ccnbO7OO.s:145    .text:00000000000000d0 .L0 
     /tmp/ccnbO7OO.s:146    .text:00000000000000d0 .L0 
     /tmp/ccnbO7OO.s:148    .text:00000000000000d4 .L0 
     /tmp/ccnbO7OO.s:150    .text:00000000000000d4 .L0 
     /tmp/ccnbO7OO.s:151    .text:00000000000000d4 .L0 
     /tmp/ccnbO7OO.s:156    .text:00000000000000dc .L0 
     /tmp/ccnbO7OO.s:157    .text:00000000000000dc .L0 
     /tmp/ccnbO7OO.s:158    .text:00000000000000dc .L0 
GAS LISTING /tmp/ccnbO7OO.s 			page 10


     /tmp/ccnbO7OO.s:163    .text:00000000000000e0 .L0 
     /tmp/ccnbO7OO.s:168    .text:00000000000000e4 .L0 
     /tmp/ccnbO7OO.s:169    .text:00000000000000e4 .L0 
     /tmp/ccnbO7OO.s:174    .text:00000000000000e8 .L0 
     /tmp/ccnbO7OO.s:177    .text:00000000000000ec .L0 
     /tmp/ccnbO7OO.s:178    .text:00000000000000ec .L0 
     /tmp/ccnbO7OO.s:182    .text:00000000000000f8 .L0 
     /tmp/ccnbO7OO.s:184    .text:0000000000000100 .L0 
     /tmp/ccnbO7OO.s:185    .text:0000000000000100 .L0 
     /tmp/ccnbO7OO.s:189    .text:000000000000010c .L0 
     /tmp/ccnbO7OO.s:190    .text:0000000000000110 .L0 
     /tmp/ccnbO7OO.s:191    .text:0000000000000110 .L0 
     /tmp/ccnbO7OO.s:193    .text:0000000000000114 .L0 
     /tmp/ccnbO7OO.s:194    .text:0000000000000114 .L0 
     /tmp/ccnbO7OO.s:196    .text:0000000000000118 .L0 
     /tmp/ccnbO7OO.s:199    .text:000000000000011c .L0 
     /tmp/ccnbO7OO.s:203    .text:0000000000000120 .L0 
     /tmp/ccnbO7OO.s:205    .text:0000000000000120 .L0 
     /tmp/ccnbO7OO.s:206    .text:0000000000000120 .L0 
     /tmp/ccnbO7OO.s:210    .text:0000000000000130 .L0 
     /tmp/ccnbO7OO.s:216    .text:0000000000000130 _ZN3TCB5yieldEv
     /tmp/ccnbO7OO.s:219    .text:0000000000000130 .L0 
     /tmp/ccnbO7OO.s:220    .text:0000000000000130 .L0 
     /tmp/ccnbO7OO.s:221    .text:0000000000000134 .L0 
     /tmp/ccnbO7OO.s:224    .text:000000000000013c .L0 
     /tmp/ccnbO7OO.s:225    .text:000000000000013c .L0 
     /tmp/ccnbO7OO.s:227    .text:0000000000000140 .L0 
     /tmp/ccnbO7OO.s:229    .text:0000000000000140 .L0 
     /tmp/ccnbO7OO.s:230    .text:0000000000000140 .L0 
     /tmp/ccnbO7OO.s:233    .text:0000000000000148 .L0 
     /tmp/ccnbO7OO.s:234    .text:0000000000000148 .L0 
     /tmp/ccnbO7OO.s:237    .text:0000000000000150 .L0 
     /tmp/ccnbO7OO.s:238    .text:0000000000000150 .L0 
     /tmp/ccnbO7OO.s:241    .text:0000000000000158 .L0 
     /tmp/ccnbO7OO.s:242    .text:000000000000015c .L0 
     /tmp/ccnbO7OO.s:244    .text:0000000000000160 .L0 
     /tmp/ccnbO7OO.s:245    .text:0000000000000160 .L0 
     /tmp/ccnbO7OO.s:247    .text:0000000000000164 .L0 
     /tmp/ccnbO7OO.s:249    .text:0000000000000168 .L0 
     /tmp/ccnbO7OO.s:258    .text:0000000000000168 .L0 
     /tmp/ccnbO7OO.s:259    .text:0000000000000168 .L0 
     /tmp/ccnbO7OO.s:260    .text:000000000000016c .L0 
     /tmp/ccnbO7OO.s:264    .text:0000000000000178 .L0 
     /tmp/ccnbO7OO.s:265    .text:0000000000000178 .L0 
     /tmp/ccnbO7OO.s:266    .text:0000000000000178 .L0 
     /tmp/ccnbO7OO.s:268    .text:000000000000017c .L0 
     /tmp/ccnbO7OO.s:270    .text:000000000000017c .L0 
     /tmp/ccnbO7OO.s:271    .text:000000000000017c .L0 
     /tmp/ccnbO7OO.s:275    .text:000000000000018c .L0 
     /tmp/ccnbO7OO.s:279    .text:0000000000000194 .L0 
     /tmp/ccnbO7OO.s:280    .text:0000000000000194 .L0 
     /tmp/ccnbO7OO.s:282    .text:0000000000000198 .L0 
     /tmp/ccnbO7OO.s:285    .text:00000000000001a0 .L0 
     /tmp/ccnbO7OO.s:286    .text:00000000000001a0 .L0 
     /tmp/ccnbO7OO.s:289    .text:00000000000001a8 .L0 
     /tmp/ccnbO7OO.s:290    .text:00000000000001ac .L0 
     /tmp/ccnbO7OO.s:292    .text:00000000000001b0 .L0 
GAS LISTING /tmp/ccnbO7OO.s 			page 11


     /tmp/ccnbO7OO.s:293    .text:00000000000001b0 .L0 
     /tmp/ccnbO7OO.s:295    .text:00000000000001b4 .L0 
     /tmp/ccnbO7OO.s:297    .text:00000000000001b8 .L0 
     /tmp/ccnbO7OO.s:299    .text:00000000000001bc .L0 
     /tmp/ccnbO7OO.s:313    .bss:0000000000000008 _ZN3TCB16runningTimeSliceE
     /tmp/ccnbO7OO.s:309    .bss:0000000000000000 _ZN3TCB7runningE
     /tmp/ccnbO7OO.s:306    .bss:0000000000000000 .LANCHOR0
     /tmp/ccnbO7OO.s:320    .text:00000000000001bc .L0 
     /tmp/ccnbO7OO.s:58     .text:0000000000000060 .L0 
     /tmp/ccnbO7OO.s:151    .text:00000000000000d4 .L0 
     /tmp/ccnbO7OO.s:182    .text:00000000000000f8 .L0 
     /tmp/ccnbO7OO.s:271    .text:000000000000017c .L0 
     /tmp/ccnbO7OO.s:112    .text:00000000000000b0 .L5
     /tmp/ccnbO7OO.s:121    .text:00000000000000b8 .L6
     /tmp/ccnbO7OO.s:87     .text:000000000000008c .L1
     /tmp/ccnbO7OO.s:59     .text:0000000000000068 .L2
     /tmp/ccnbO7OO.s:68     .text:0000000000000074 .L3
     /tmp/ccnbO7OO.s:175    .text:00000000000000ec .L9
     /tmp/ccnbO7OO.s:202    .text:0000000000000120 .L11
     /tmp/ccnbO7OO.s:1266   .debug_abbrev:0000000000000000 .Ldebug_abbrev0
     /tmp/ccnbO7OO.s:2565   .debug_str:0000000000000557 .LASF99
     /tmp/ccnbO7OO.s:2401   .debug_str:0000000000000099 .LASF100
     /tmp/ccnbO7OO.s:2451   .debug_str:0000000000000200 .LASF101
     /tmp/ccnbO7OO.s:5      .text:0000000000000000 .Ltext0
     /tmp/ccnbO7OO.s:316    .text:00000000000001bc .Letext0
     /tmp/ccnbO7OO.s:2371   .debug_line:0000000000000000 .Ldebug_line0
     /tmp/ccnbO7OO.s:2503   .debug_str:00000000000003a4 .LASF0
     /tmp/ccnbO7OO.s:2517   .debug_str:00000000000003dc .LASF1
     /tmp/ccnbO7OO.s:2491   .debug_str:0000000000000358 .LASF2
     /tmp/ccnbO7OO.s:2465   .debug_str:00000000000002a8 .LASF4
     /tmp/ccnbO7OO.s:2549   .debug_str:00000000000004d5 .LASF3
     /tmp/ccnbO7OO.s:2399   .debug_str:0000000000000092 .LASF5
     /tmp/ccnbO7OO.s:2423   .debug_str:0000000000000142 .LASF6
     /tmp/ccnbO7OO.s:2519   .debug_str:00000000000003ef .LASF7
     /tmp/ccnbO7OO.s:2501   .debug_str:0000000000000391 .LASF8
     /tmp/ccnbO7OO.s:2575   .debug_str:0000000000000655 .LASF9
     /tmp/ccnbO7OO.s:2449   .debug_str:00000000000001f2 .LASF10
     /tmp/ccnbO7OO.s:2533   .debug_str:0000000000000462 .LASF11
     /tmp/ccnbO7OO.s:2567   .debug_str:000000000000061b .LASF12
     /tmp/ccnbO7OO.s:2479   .debug_str:00000000000002f9 .LASF13
     /tmp/ccnbO7OO.s:2379   .debug_str:000000000000002a .LASF14
     /tmp/ccnbO7OO.s:2407   .debug_str:00000000000000c7 .LASF15
     /tmp/ccnbO7OO.s:2543   .debug_str:00000000000004a1 .LASF16
     /tmp/ccnbO7OO.s:2417   .debug_str:0000000000000113 .LASF17
     /tmp/ccnbO7OO.s:2387   .debug_str:0000000000000053 .LASF102
     /tmp/ccnbO7OO.s:2475   .debug_str:00000000000002d6 .LASF18
     /tmp/ccnbO7OO.s:2585   .debug_str:00000000000006ab .LASF20
     /tmp/ccnbO7OO.s:2539   .debug_str:0000000000000495 .LASF103
     /tmp/ccnbO7OO.s:2521   .debug_str:0000000000000402 .LASF22
     /tmp/ccnbO7OO.s:2483   .debug_str:0000000000000321 .LASF24
     /tmp/ccnbO7OO.s:2493   .debug_str:0000000000000366 .LASF19
     /tmp/ccnbO7OO.s:2459   .debug_str:000000000000025f .LASF21
     /tmp/ccnbO7OO.s:2385   .debug_str:0000000000000049 .LASF23
     /tmp/ccnbO7OO.s:2525   .debug_str:0000000000000416 .LASF25
     /tmp/ccnbO7OO.s:2467   .debug_str:00000000000002af .LASF26
     /tmp/ccnbO7OO.s:2571   .debug_str:0000000000000632 .LASF27
     /tmp/ccnbO7OO.s:2485   .debug_str:0000000000000337 .LASF28
GAS LISTING /tmp/ccnbO7OO.s 			page 12


     /tmp/ccnbO7OO.s:2531   .debug_str:000000000000044a .LASF29
     /tmp/ccnbO7OO.s:2573   .debug_str:0000000000000648 .LASF30
     /tmp/ccnbO7OO.s:2577   .debug_str:0000000000000665 .LASF31
     /tmp/ccnbO7OO.s:2555   .debug_str:0000000000000509 .LASF32
     /tmp/ccnbO7OO.s:2457   .debug_str:0000000000000248 .LASF34
     /tmp/ccnbO7OO.s:2427   .debug_str:000000000000015d .LASF33
     /tmp/ccnbO7OO.s:2445   .debug_str:00000000000001d4 .LASF35
     /tmp/ccnbO7OO.s:2545   .debug_str:00000000000004b7 .LASF36
     /tmp/ccnbO7OO.s:2497   .debug_str:0000000000000379 .LASF38
     /tmp/ccnbO7OO.s:2507   .debug_str:00000000000003b8 .LASF37
     /tmp/ccnbO7OO.s:2435   .debug_str:0000000000000194 .LASF39
     /tmp/ccnbO7OO.s:2559   .debug_str:000000000000052a .LASF40
     /tmp/ccnbO7OO.s:2553   .debug_str:00000000000004f7 .LASF41
     /tmp/ccnbO7OO.s:2433   .debug_str:000000000000018c .LASF42
     /tmp/ccnbO7OO.s:2537   .debug_str:0000000000000484 .LASF43
     /tmp/ccnbO7OO.s:2473   .debug_str:00000000000002ce .LASF44
     /tmp/ccnbO7OO.s:2489   .debug_str:0000000000000349 .LASF45
     /tmp/ccnbO7OO.s:2509   .debug_str:00000000000003c1 .LASF46
     /tmp/ccnbO7OO.s:2511   .debug_str:00000000000003c7 .LASF47
     /tmp/ccnbO7OO.s:2513   .debug_str:00000000000003cc .LASF48
     /tmp/ccnbO7OO.s:2469   .debug_str:00000000000002ba .LASF49
     /tmp/ccnbO7OO.s:2373   .debug_str:0000000000000000 .LASF50
     /tmp/ccnbO7OO.s:2551   .debug_str:00000000000004e7 .LASF51
     /tmp/ccnbO7OO.s:2587   .debug_str:00000000000006cd .LASF90
     /tmp/ccnbO7OO.s:2579   .debug_str:000000000000067d .LASF104
     /tmp/ccnbO7OO.s:2461   .debug_str:0000000000000276 .LASF105
     /tmp/ccnbO7OO.s:2437   .debug_str:00000000000001a7 .LASF52
     /tmp/ccnbO7OO.s:2515   .debug_str:00000000000003d6 .LASF53
     /tmp/ccnbO7OO.s:2397   .debug_str:0000000000000084 .LASF54
     /tmp/ccnbO7OO.s:2431   .debug_str:0000000000000171 .LASF55
     /tmp/ccnbO7OO.s:2439   .debug_str:00000000000001ac .LASF56
     /tmp/ccnbO7OO.s:2377   .debug_str:0000000000000010 .LASF57
     /tmp/ccnbO7OO.s:2381   .debug_str:000000000000003a .LASF60
     /tmp/ccnbO7OO.s:2557   .debug_str:0000000000000515 .LASF62
     /tmp/ccnbO7OO.s:2429   .debug_str:0000000000000168 .LASF58
     /tmp/ccnbO7OO.s:2411   .debug_str:00000000000000de .LASF59
     /tmp/ccnbO7OO.s:2495   .debug_str:0000000000000372 .LASF61
     /tmp/ccnbO7OO.s:2535   .debug_str:0000000000000471 .LASF63
     /tmp/ccnbO7OO.s:2541   .debug_str:000000000000049a .LASF64
     /tmp/ccnbO7OO.s:2561   .debug_str:0000000000000532 .LASF65
     /tmp/ccnbO7OO.s:2443   .debug_str:00000000000001cc .LASF66
     /tmp/ccnbO7OO.s:2419   .debug_str:0000000000000129 .LASF67
     /tmp/ccnbO7OO.s:2375   .debug_str:0000000000000008 .LASF68
     /tmp/ccnbO7OO.s:2455   .debug_str:0000000000000234 .LASF69
     /tmp/ccnbO7OO.s:2505   .debug_str:00000000000003b1 .LASF70
     /tmp/ccnbO7OO.s:2583   .debug_str:0000000000000698 .LASF71
     /tmp/ccnbO7OO.s:2395   .debug_str:000000000000007d .LASF72
     /tmp/ccnbO7OO.s:2441   .debug_str:00000000000001b9 .LASF73
     /tmp/ccnbO7OO.s:2447   .debug_str:00000000000001ec .LASF74
     /tmp/ccnbO7OO.s:2563   .debug_str:0000000000000545 .LASF75
     /tmp/ccnbO7OO.s:2393   .debug_str:0000000000000077 .LASF76
     /tmp/ccnbO7OO.s:2595   .debug_str:0000000000000717 .LASF77
     /tmp/ccnbO7OO.s:2589   .debug_str:00000000000006e3 .LASF78
     /tmp/ccnbO7OO.s:2547   .debug_str:00000000000004bd .LASF79
     /tmp/ccnbO7OO.s:2471   .debug_str:00000000000002c3 .LASF80
     /tmp/ccnbO7OO.s:2481   .debug_str:0000000000000309 .LASF81
     /tmp/ccnbO7OO.s:2405   .debug_str:00000000000000bd .LASF82
GAS LISTING /tmp/ccnbO7OO.s 			page 13


     /tmp/ccnbO7OO.s:2527   .debug_str:000000000000042a .LASF83
     /tmp/ccnbO7OO.s:2391   .debug_str:000000000000006d .LASF84
     /tmp/ccnbO7OO.s:2453   .debug_str:000000000000021e .LASF85
     /tmp/ccnbO7OO.s:2409   .debug_str:00000000000000d3 .LASF106
     /tmp/ccnbO7OO.s:2591   .debug_str:00000000000006ee .LASF107
     /tmp/ccnbO7OO.s:2529   .debug_str:0000000000000440 .LASF86
     /tmp/ccnbO7OO.s:2421   .debug_str:000000000000013d .LASF87
     /tmp/ccnbO7OO.s:2487   .debug_str:0000000000000344 .LASF88
     /tmp/ccnbO7OO.s:2389   .debug_str:000000000000005b .LASF89
     /tmp/ccnbO7OO.s:2403   .debug_str:00000000000000a5 .LASF91
     /tmp/ccnbO7OO.s:2425   .debug_str:0000000000000149 .LASF108
     /tmp/ccnbO7OO.s:2593   .debug_str:0000000000000706 .LASF92
     /tmp/ccnbO7OO.s:2413   .debug_str:00000000000000f3 .LASF93
     /tmp/ccnbO7OO.s:256    .text:0000000000000168 .LFB30
     /tmp/ccnbO7OO.s:300    .text:00000000000001bc .LFE30
     /tmp/ccnbO7OO.s:287    .text:00000000000001a8 .LVL28
     /tmp/ccnbO7OO.s:217    .text:0000000000000130 .LFB29
     /tmp/ccnbO7OO.s:250    .text:0000000000000168 .LFE29
     /tmp/ccnbO7OO.s:231    .text:0000000000000148 .LVL24
     /tmp/ccnbO7OO.s:235    .text:0000000000000150 .LVL25
     /tmp/ccnbO7OO.s:239    .text:0000000000000158 .LVL26
     /tmp/ccnbO7OO.s:136    .text:00000000000000c0 .LFB28
     /tmp/ccnbO7OO.s:211    .text:0000000000000130 .LFE28
     /tmp/ccnbO7OO.s:2160   .debug_loc:0000000000000000 .LLST10
     /tmp/ccnbO7OO.s:154    .text:00000000000000dc .LBB16
     /tmp/ccnbO7OO.s:161    .text:00000000000000e0 .LBE16
     /tmp/ccnbO7OO.s:2171   .debug_loc:0000000000000036 .LLST11
     /tmp/ccnbO7OO.s:165    .text:00000000000000e4 .LBB18
     /tmp/ccnbO7OO.s:172    .text:00000000000000e8 .LBE18
     /tmp/ccnbO7OO.s:2178   .debug_loc:0000000000000059 .LLST12
     /tmp/ccnbO7OO.s:179    .text:00000000000000f4 .LVL19
     /tmp/ccnbO7OO.s:187    .text:000000000000010c .LVL20
     /tmp/ccnbO7OO.s:208    .text:000000000000012c .LVL23
     /tmp/ccnbO7OO.s:10     .text:0000000000000000 .LFB27
     /tmp/ccnbO7OO.s:130    .text:00000000000000c0 .LFE27
     /tmp/ccnbO7OO.s:2523   .debug_str:000000000000040d .LASF94
     /tmp/ccnbO7OO.s:2185   .debug_loc:000000000000007c .LLST0
     /tmp/ccnbO7OO.s:2207   .debug_loc:00000000000000db .LLST1
     /tmp/ccnbO7OO.s:2229   .debug_loc:000000000000013a .LLST2
     /tmp/ccnbO7OO.s:2463   .debug_str:000000000000029e .LASF95
     /tmp/ccnbO7OO.s:2261   .debug_loc:00000000000001c1 .LLST3
     /tmp/ccnbO7OO.s:42     .text:000000000000003c .LBB10
     /tmp/ccnbO7OO.s:2357   .debug_ranges:0000000000000000 .Ldebug_ranges0
     /tmp/ccnbO7OO.s:2272   .debug_loc:00000000000001f7 .LLST4
     /tmp/ccnbO7OO.s:2293   .debug_loc:0000000000000255 .LLST5
     /tmp/ccnbO7OO.s:2304   .debug_loc:000000000000028b .LLST6
     /tmp/ccnbO7OO.s:2315   .debug_loc:00000000000002c1 .LLST7
     /tmp/ccnbO7OO.s:2326   .debug_loc:00000000000002f7 .LLST8
     /tmp/ccnbO7OO.s:2337   .debug_loc:000000000000032d .LLST9
     /tmp/ccnbO7OO.s:39     .text:0000000000000038 .LVL2
     /tmp/ccnbO7OO.s:85     .text:000000000000008c .LVL7
     /tmp/ccnbO7OO.s:2415   .debug_str:000000000000010e .LASF98
     /tmp/ccnbO7OO.s:2499   .debug_str:0000000000000389 .LASF96
     /tmp/ccnbO7OO.s:2569   .debug_str:000000000000062a .LASF97
     /tmp/ccnbO7OO.s:2477   .debug_str:00000000000002e3 .LASF109
     /tmp/ccnbO7OO.s:2383   .debug_str:0000000000000043 .LASF110
     /tmp/ccnbO7OO.s:2581   .debug_str:000000000000068b .LASF111
GAS LISTING /tmp/ccnbO7OO.s 			page 14


     /tmp/ccnbO7OO.s:152    .text:00000000000000dc .LVL15
     /tmp/ccnbO7OO.s:197    .text:0000000000000118 .LVL21
     /tmp/ccnbO7OO.s:201    .text:0000000000000120 .LVL22
     /tmp/ccnbO7OO.s:159    .text:00000000000000e0 .LVL16
     /tmp/ccnbO7OO.s:164    .text:00000000000000e4 .LVL17
     /tmp/ccnbO7OO.s:170    .text:00000000000000e8 .LVL18
     /tmp/ccnbO7OO.s:14     .text:0000000000000000 .LVL0
     /tmp/ccnbO7OO.s:37     .text:0000000000000030 .LVL1
     /tmp/ccnbO7OO.s:104    .text:00000000000000a4 .LVL10
     /tmp/ccnbO7OO.s:111    .text:00000000000000b0 .LVL12
     /tmp/ccnbO7OO.s:107    .text:00000000000000a8 .LVL11
     /tmp/ccnbO7OO.s:67     .text:0000000000000074 .LVL5
     /tmp/ccnbO7OO.s:124    .text:00000000000000bc .LVL14
     /tmp/ccnbO7OO.s:75     .text:000000000000007c .LVL6
     /tmp/ccnbO7OO.s:98     .text:000000000000009c .LVL8
     /tmp/ccnbO7OO.s:41     .text:000000000000003c .LVL3
     /tmp/ccnbO7OO.s:60     .text:0000000000000068 .LVL4
     /tmp/ccnbO7OO.s:120    .text:00000000000000b8 .LVL13
     /tmp/ccnbO7OO.s:101    .text:00000000000000a0 .LVL9
     /tmp/ccnbO7OO.s:321    .debug_info:0000000000000000 .Ldebug_info0
     /tmp/ccnbO7OO.s:78     .text:000000000000007c .LBE10
     /tmp/ccnbO7OO.s:114    .text:00000000000000b0 .LBB15
     /tmp/ccnbO7OO.s:128    .text:00000000000000c0 .LBE15
     /tmp/ccnbO7OO.s:54     .text:000000000000005c .LBB12
     /tmp/ccnbO7OO.s:76     .text:000000000000007c .LBE12
     /tmp/ccnbO7OO.s:116    .text:00000000000000b0 .LBB13
     /tmp/ccnbO7OO.s:126    .text:00000000000000c0 .LBE13

UNDEFINED SYMBOLS
_Znwm
_ZN9Scheduler3putEP3TCB
_ZN9Scheduler3getEv
_ZN3TCB13contextSwitchEPNS_7ContextES1_
_ZN5Riscv13pushRegistersEv
_ZN5Riscv12popRegistersEv
