GAS LISTING /tmp/ccccUFD7.s 			page 1


   1              		.file	"TCB.cpp"
   2              		.option pic
   3              		.option norelax
   4              		.text
   5              	.Ltext0:
   6              		.align	2
   7              		.globl	_ZN3TCB7wrapperEv
   9              	_ZN3TCB7wrapperEv:
  10              	.LFB48:
  11              		.file 1 "src/TCB.cpp"
   1:src/TCB.cpp   **** //
   2:src/TCB.cpp   **** // Created by os on 5/23/23.
   3:src/TCB.cpp   **** //
   4:src/TCB.cpp   **** 
   5:src/TCB.cpp   **** #include "../h/TCB.hpp"
   6:src/TCB.cpp   **** #include "../h/Riscv.hpp"
   7:src/TCB.cpp   **** #include "../h/Scheduler.hpp"
   8:src/TCB.cpp   **** #include "../h/MemoryAllocator.hpp"
   9:src/TCB.cpp   **** #include "../h/syscall_c.hpp"
  10:src/TCB.cpp   **** 
  11:src/TCB.cpp   **** TCB* TCB::running = nullptr;
  12:src/TCB.cpp   **** uint64 TCB::runningTimeSlice = 0;
  13:src/TCB.cpp   **** 
  14:src/TCB.cpp   **** TCB* TCB::createThread(TCB::Body function, void* args, uint64* stack) {
  15:src/TCB.cpp   **** 	//pravljenje niti
  16:src/TCB.cpp   **** 	TCB* newThread = new TCB(function, args, stack);
  17:src/TCB.cpp   **** 
  18:src/TCB.cpp   **** 	//startovanje niti(stavljanje u Scheduler); main nit je vec aktivna, ne stavlja se u Scheduler
  19:src/TCB.cpp   **** 	//if (functionToRun != nullptr) Scheduler::put(newThread);
  20:src/TCB.cpp   **** 	return newThread;
  21:src/TCB.cpp   **** }
  22:src/TCB.cpp   **** 
  23:src/TCB.cpp   **** void kernelConsumerFunction(void*);
  24:src/TCB.cpp   **** 
  25:src/TCB.cpp   **** void idle(void*);
  26:src/TCB.cpp   **** void userMain();
  27:src/TCB.cpp   **** 
  28:src/TCB.cpp   **** void TCB::dispatch() {
  29:src/TCB.cpp   **** 	TCB* old = TCB::running;
  30:src/TCB.cpp   **** 	if (!old->finished && !old->blocked && old->timeToSleep == 0 && !old->needToJoin) {
  31:src/TCB.cpp   **** 		Scheduler::put(old);
  32:src/TCB.cpp   **** 	}
  33:src/TCB.cpp   **** 	TCB::running = Scheduler::get();
  34:src/TCB.cpp   **** 	TCB::runningTimeSlice = 0;
  35:src/TCB.cpp   **** 
  36:src/TCB.cpp   **** 	//sada biramo u kom rezimu ce se izvrsavati nit, upisom bita SSTATUS_SPP
  37:src/TCB.cpp   **** 	//ako treba da se izvrsava main kernel nit, povratak je u sistemski rezim, inace u korisnicki
  38:src/TCB.cpp   **** 	if (TCB::running->threadFunction == nullptr || TCB::running->threadFunction == kernelConsumerFunct
  39:src/TCB.cpp   **** 		TCB::running->threadFunction == idle) {
  40:src/TCB.cpp   **** 		Riscv::ms_sstatus(Riscv::SSTATUS_SPP);
  41:src/TCB.cpp   **** 	} else {
  42:src/TCB.cpp   **** 		Riscv::mc_sstatus(Riscv::SSTATUS_SPP);
  43:src/TCB.cpp   **** 	}
  44:src/TCB.cpp   **** 
  45:src/TCB.cpp   **** 	if (old != TCB::running) TCB::contextSwitch(&old->context, &running->context);
  46:src/TCB.cpp   **** }
  47:src/TCB.cpp   **** 
GAS LISTING /tmp/ccccUFD7.s 			page 2


  48:src/TCB.cpp   **** void TCB::yield() {
  49:src/TCB.cpp   **** 	Riscv::pushRegisters();
  50:src/TCB.cpp   **** 	TCB::dispatch();
  51:src/TCB.cpp   **** 	Riscv::popRegisters();
  52:src/TCB.cpp   **** }
  53:src/TCB.cpp   **** 
  54:src/TCB.cpp   **** void TCB::wrapper() {
  12              		.loc 1 54 21
  13              		.cfi_startproc
  14 0000 130101FF 		addi	sp,sp,-16
  15              		.cfi_def_cfa_offset 16
  16 0004 23341100 		sd	ra,8(sp)
  17 0008 23308100 		sd	s0,0(sp)
  18              		.cfi_offset 1, -8
  19              		.cfi_offset 8, -16
  20 000c 13040101 		addi	s0,sp,16
  21              		.cfi_def_cfa 8, 0
  55:src/TCB.cpp   **** 	//pocetak wrappera se izvrsava u supervisor modu,
  56:src/TCB.cpp   **** 	//jer nismo izasli iz prekidne rutine prilikom promene konteksta (dispatch/yield)
  57:src/TCB.cpp   **** 	Riscv::popSppSpie();
  22              		.loc 1 57 2
  23              		.loc 1 57 19 is_stmt 0
  24 0010 97000000 		call	_ZN5Riscv10popSppSpieEv@plt
  24      E7800000 
  25              	.LVL0:
  58:src/TCB.cpp   **** 	//na dalje se izvrsavamo u user modu
  59:src/TCB.cpp   **** 	running->threadFunction(running->args);
  26              		.loc 1 59 2 is_stmt 1
  27              		.loc 1 59 11 is_stmt 0
  28 0018 97070000 		ld	a5,.LANCHOR0
  28      83B70700 
  29 0020 03B70701 		ld	a4,16(a5)
  30              		.loc 1 59 25
  31 0024 03B50702 		ld	a0,32(a5)
  32 0028 E7000700 		jalr	a4
  33              	.LVL1:
  60:src/TCB.cpp   **** 	//running->finished = true;
  61:src/TCB.cpp   **** 	//i dalje smo u user modu, moramo promenu niti vrsiti sistemskim pozivom
  62:src/TCB.cpp   **** 	thread_exit();
  34              		.loc 1 62 2 is_stmt 1
  35              		.loc 1 62 13 is_stmt 0
  36 002c 97000000 		call	_Z11thread_exitv@plt
  36      E7800000 
  37              	.LVL2:
  63:src/TCB.cpp   **** }
  38              		.loc 1 63 1
  39 0034 83308100 		ld	ra,8(sp)
  40              		.cfi_restore 1
  41 0038 03340100 		ld	s0,0(sp)
  42              		.cfi_restore 8
  43              		.cfi_def_cfa 2, 16
  44 003c 13010101 		addi	sp,sp,16
  45              		.cfi_def_cfa_offset 0
  46 0040 67800000 		jr	ra
  47              		.cfi_endproc
  48              	.LFE48:
  50              		.align	2
GAS LISTING /tmp/ccccUFD7.s 			page 3


  51              		.globl	_ZN3TCB8dispatchEv
  53              	_ZN3TCB8dispatchEv:
  54              	.LFB46:
  28:src/TCB.cpp   **** 	TCB* old = TCB::running;
  55              		.loc 1 28 22 is_stmt 1
  56              		.cfi_startproc
  57 0044 130101FE 		addi	sp,sp,-32
  58              		.cfi_def_cfa_offset 32
  59 0048 233C1100 		sd	ra,24(sp)
  60 004c 23388100 		sd	s0,16(sp)
  61 0050 23349100 		sd	s1,8(sp)
  62              		.cfi_offset 1, -8
  63              		.cfi_offset 8, -16
  64              		.cfi_offset 9, -24
  65 0054 13040102 		addi	s0,sp,32
  66              		.cfi_def_cfa 8, 0
  29:src/TCB.cpp   **** 	if (!old->finished && !old->blocked && old->timeToSleep == 0 && !old->needToJoin) {
  67              		.loc 1 29 2
  29:src/TCB.cpp   **** 	if (!old->finished && !old->blocked && old->timeToSleep == 0 && !old->needToJoin) {
  68              		.loc 1 29 7 is_stmt 0
  69 0058 97040000 		ld	s1,.LANCHOR0
  69      83B40400 
  70              	.LVL3:
  30:src/TCB.cpp   **** 		Scheduler::put(old);
  71              		.loc 1 30 2 is_stmt 1
  30:src/TCB.cpp   **** 		Scheduler::put(old);
  72              		.loc 1 30 12 is_stmt 0
  73 0060 83C70403 		lbu	a5,48(s1)
  30:src/TCB.cpp   **** 		Scheduler::put(old);
  74              		.loc 1 30 2
  75 0064 639E0700 		bnez	a5,.L4
  30:src/TCB.cpp   **** 		Scheduler::put(old);
  76              		.loc 1 30 30 discriminator 1
  77 0068 83C71403 		lbu	a5,49(s1)
  30:src/TCB.cpp   **** 		Scheduler::put(old);
  78              		.loc 1 30 21 discriminator 1
  79 006c 639A0700 		bnez	a5,.L4
  30:src/TCB.cpp   **** 		Scheduler::put(old);
  80              		.loc 1 30 46 discriminator 2
  81 0070 83B70404 		ld	a5,64(s1)
  30:src/TCB.cpp   **** 		Scheduler::put(old);
  82              		.loc 1 30 38 discriminator 2
  83 0074 63960700 		bnez	a5,.L4
  30:src/TCB.cpp   **** 		Scheduler::put(old);
  84              		.loc 1 30 72 discriminator 3
  85 0078 83C72403 		lbu	a5,50(s1)
  30:src/TCB.cpp   **** 		Scheduler::put(old);
  86              		.loc 1 30 63 discriminator 3
  87 007c 63860704 		beqz	a5,.L10
  88              	.L4:
  33:src/TCB.cpp   **** 	TCB::runningTimeSlice = 0;
  89              		.loc 1 33 2 is_stmt 1
  33:src/TCB.cpp   **** 	TCB::runningTimeSlice = 0;
  90              		.loc 1 33 31 is_stmt 0
  91 0080 97000000 		call	_ZN9Scheduler3getEv@plt
  91      E7800000 
  92              	.LVL4:
GAS LISTING /tmp/ccccUFD7.s 			page 4


  93 0088 93050500 		mv	a1,a0
  33:src/TCB.cpp   **** 	TCB::runningTimeSlice = 0;
  94              		.loc 1 33 15
  95 008c 97070000 		lla	a5,.LANCHOR0
  95      93870700 
  96 0094 23B0A700 		sd	a0,0(a5)
  34:src/TCB.cpp   **** 
  97              		.loc 1 34 2 is_stmt 1
  34:src/TCB.cpp   **** 
  98              		.loc 1 34 24 is_stmt 0
  99 0098 23B40700 		sd	zero,8(a5)
  38:src/TCB.cpp   **** 		TCB::running->threadFunction == idle) {
 100              		.loc 1 38 2 is_stmt 1
  38:src/TCB.cpp   **** 		TCB::running->threadFunction == idle) {
 101              		.loc 1 38 20 is_stmt 0
 102 009c 83370501 		ld	a5,16(a0)
  38:src/TCB.cpp   **** 		TCB::running->threadFunction == idle) {
 103              		.loc 1 38 2
 104 00a0 638C0702 		beqz	a5,.L5
  38:src/TCB.cpp   **** 		TCB::running->threadFunction == idle) {
 105              		.loc 1 38 46 discriminator 1
 106 00a4 17070000 		la	a4,_Z22kernelConsumerFunctionPv
 106      03370700 
 107 00ac 6386E702 		beq	a5,a4,.L5
  38:src/TCB.cpp   **** 		TCB::running->threadFunction == idle) {
 108              		.loc 1 38 104 discriminator 2
 109 00b0 17070000 		la	a4,_Z4idlePv
 109      03370700 
 110 00b8 6380E702 		beq	a5,a4,.L5
  42:src/TCB.cpp   **** 	}
 111              		.loc 1 42 3 is_stmt 1
 112              	.LVL5:
 113              	.LBB21:
 114              	.LBB22:
 115              		.file 2 "src/../h/Riscv.hpp"
   1:src/../h/Riscv.hpp **** //
   2:src/../h/Riscv.hpp **** // Created by os on 5/17/23.
   3:src/../h/Riscv.hpp **** //
   4:src/../h/Riscv.hpp **** 
   5:src/../h/Riscv.hpp **** #ifndef PROJEKAT2023_RISCV_HPP
   6:src/../h/Riscv.hpp **** #define PROJEKAT2023_RISCV_HPP
   7:src/../h/Riscv.hpp **** 
   8:src/../h/Riscv.hpp **** #include "../lib/hw.h"
   9:src/../h/Riscv.hpp **** 
  10:src/../h/Riscv.hpp **** class Riscv {
  11:src/../h/Riscv.hpp **** public:
  12:src/../h/Riscv.hpp **** 
  13:src/../h/Riscv.hpp **** 	static void popSppSpie();
  14:src/../h/Riscv.hpp **** 
  15:src/../h/Riscv.hpp **** 	//stavljanje registara x3-x31 na stek
  16:src/../h/Riscv.hpp **** 	static void pushRegisters();    //implementacija u asm
  17:src/../h/Riscv.hpp **** 
  18:src/../h/Riscv.hpp **** 	//skidanje registara x3-x31 sa steka
  19:src/../h/Riscv.hpp **** 	static void popRegisters();     //implementacija u asm
  20:src/../h/Riscv.hpp **** 
  21:src/../h/Riscv.hpp **** 	//read scause
  22:src/../h/Riscv.hpp **** 	static uint64 r_scause();
GAS LISTING /tmp/ccccUFD7.s 			page 5


  23:src/../h/Riscv.hpp **** 
  24:src/../h/Riscv.hpp **** 	//write scause
  25:src/../h/Riscv.hpp **** 	static void w_scause(uint64 scause);
  26:src/../h/Riscv.hpp **** 
  27:src/../h/Riscv.hpp **** 	//read sepc
  28:src/../h/Riscv.hpp **** 	static uint64 r_sepc();
  29:src/../h/Riscv.hpp **** 
  30:src/../h/Riscv.hpp **** 	//write sepc
  31:src/../h/Riscv.hpp **** 	static void w_sepc(uint64 sepc);
  32:src/../h/Riscv.hpp **** 
  33:src/../h/Riscv.hpp **** 	//read stvec
  34:src/../h/Riscv.hpp **** 	static uint64 r_stvec();
  35:src/../h/Riscv.hpp **** 
  36:src/../h/Riscv.hpp **** 	//write stvec
  37:src/../h/Riscv.hpp **** 	static void w_stvec(uint64 stvec);
  38:src/../h/Riscv.hpp **** 
  39:src/../h/Riscv.hpp **** 	enum BitMaskSip {
  40:src/../h/Riscv.hpp **** 		//postoji zahtev za softverski prekid
  41:src/../h/Riscv.hpp **** 		SIP_SSIP = (1 << 1),
  42:src/../h/Riscv.hpp **** 		//postoji prekid od tajmera
  43:src/../h/Riscv.hpp **** 		SIP_STIP = (1 << 5),
  44:src/../h/Riscv.hpp **** 		//postoji zahtev za spoljasnji hardverski prekid
  45:src/../h/Riscv.hpp **** 		SIP_SEIP = (1 << 9)
  46:src/../h/Riscv.hpp **** 	};
  47:src/../h/Riscv.hpp **** 
  48:src/../h/Riscv.hpp **** 	//mask set sip
  49:src/../h/Riscv.hpp **** 	static void ms_sip(uint64 mask);
  50:src/../h/Riscv.hpp **** 
  51:src/../h/Riscv.hpp **** 	//mask clear sip
  52:src/../h/Riscv.hpp **** 	static void mc_sip(uint64 mask);
  53:src/../h/Riscv.hpp **** 
  54:src/../h/Riscv.hpp **** 	//read sip
  55:src/../h/Riscv.hpp **** 	static uint64 r_sip();
  56:src/../h/Riscv.hpp **** 
  57:src/../h/Riscv.hpp **** 	//write sip
  58:src/../h/Riscv.hpp **** 	static void w_sip(uint64 sip);
  59:src/../h/Riscv.hpp **** 
  60:src/../h/Riscv.hpp **** 	//kada se pozove sret, SIE dobija vrednost SPIE, SPIE se postavlja na 1,
  61:src/../h/Riscv.hpp **** 	//rezim se postavlja na osnovu SPP bita, SPP se postavlja na 0
  62:src/../h/Riscv.hpp **** 	enum BitMaskSstatus {
  63:src/../h/Riscv.hpp **** 		//1 - dozvoljeni prekidi; 0- nedozvoljeni prekidi; igonrise se u korisnickom rezimu
  64:src/../h/Riscv.hpp **** 		SSTATUS_SIE = (1 << 1),
  65:src/../h/Riscv.hpp **** 		//prethodna vrednost bita SIE
  66:src/../h/Riscv.hpp **** 		SSTATUS_SPIE = (1 << 5),
  67:src/../h/Riscv.hpp **** 		//iz kog rezima se desio skok; 0 - iz korisnickog; 1 - iz sistemskog
  68:src/../h/Riscv.hpp **** 		SSTATUS_SPP = (1 << 8)
  69:src/../h/Riscv.hpp **** 	};
  70:src/../h/Riscv.hpp **** 
  71:src/../h/Riscv.hpp **** 	//mask set sstatus
  72:src/../h/Riscv.hpp **** 	static void ms_sstatus(uint64 mask);
  73:src/../h/Riscv.hpp **** 
  74:src/../h/Riscv.hpp **** 	//mask clear sstatus
  75:src/../h/Riscv.hpp **** 	static void mc_sstatus(uint64 mask);
  76:src/../h/Riscv.hpp **** 
  77:src/../h/Riscv.hpp **** 	//read sstatus
  78:src/../h/Riscv.hpp **** 	static uint64 r_sstatus();
  79:src/../h/Riscv.hpp **** 
GAS LISTING /tmp/ccccUFD7.s 			page 6


  80:src/../h/Riscv.hpp **** 	//write sstatus
  81:src/../h/Riscv.hpp **** 	static void w_sstatus(uint64 sstatus);
  82:src/../h/Riscv.hpp **** 
  83:src/../h/Riscv.hpp **** 	//upisuje kod sistemskog poziva u registar a0
  84:src/../h/Riscv.hpp **** 	static void loadOpCode(uint64 opCode);
  85:src/../h/Riscv.hpp **** 
  86:src/../h/Riscv.hpp **** };
  87:src/../h/Riscv.hpp **** 
  88:src/../h/Riscv.hpp **** inline uint64 Riscv::r_scause() {
  89:src/../h/Riscv.hpp **** 	uint64 volatile scause;
  90:src/../h/Riscv.hpp **** 	__asm__ volatile("csrr %[scause], scause": [scause] "=r"(scause));
  91:src/../h/Riscv.hpp **** 	return scause;
  92:src/../h/Riscv.hpp **** }
  93:src/../h/Riscv.hpp **** 
  94:src/../h/Riscv.hpp **** inline void Riscv::w_scause(uint64 scause) {
  95:src/../h/Riscv.hpp **** 	__asm__ volatile("csrw scause, %[scause]": :[scause] "r"(scause));
  96:src/../h/Riscv.hpp **** }
  97:src/../h/Riscv.hpp **** 
  98:src/../h/Riscv.hpp **** inline uint64 Riscv::r_sepc() {
  99:src/../h/Riscv.hpp **** 	uint64 volatile sepc;
 100:src/../h/Riscv.hpp **** 	__asm__ volatile("csrr %[sepc], sepc": [sepc] "=r"(sepc));
 101:src/../h/Riscv.hpp **** 	return sepc;
 102:src/../h/Riscv.hpp **** }
 103:src/../h/Riscv.hpp **** 
 104:src/../h/Riscv.hpp **** inline void Riscv::w_sepc(uint64 sepc) {
 105:src/../h/Riscv.hpp **** 	__asm__ volatile("csrw sepc, %[sepc]": :[sepc] "r"(sepc));
 106:src/../h/Riscv.hpp **** }
 107:src/../h/Riscv.hpp **** 
 108:src/../h/Riscv.hpp **** inline uint64 Riscv::r_stvec() {
 109:src/../h/Riscv.hpp **** 	uint64 volatile stvec;
 110:src/../h/Riscv.hpp **** 	__asm__ volatile("csrr %[stvec], stvec": [stvec] "=r"(stvec));
 111:src/../h/Riscv.hpp **** 	return stvec;
 112:src/../h/Riscv.hpp **** }
 113:src/../h/Riscv.hpp **** 
 114:src/../h/Riscv.hpp **** inline void Riscv::w_stvec(uint64 stvec) {
 115:src/../h/Riscv.hpp **** 	__asm__ volatile("csrw stvec, %[stvec]": :[stvec] "r"(stvec));
 116:src/../h/Riscv.hpp **** }
 117:src/../h/Riscv.hpp **** 
 118:src/../h/Riscv.hpp **** inline void Riscv::ms_sip(uint64 mask) {
 119:src/../h/Riscv.hpp **** 	__asm__ volatile("csrs sip, %[mask]": :[mask] "r"(mask));
 120:src/../h/Riscv.hpp **** }
 121:src/../h/Riscv.hpp **** 
 122:src/../h/Riscv.hpp **** inline void Riscv::mc_sip(uint64 mask) {
 123:src/../h/Riscv.hpp **** 	__asm__ volatile("csrc sip, %[mask]": :[mask] "r"(mask));
 124:src/../h/Riscv.hpp **** }
 125:src/../h/Riscv.hpp **** 
 126:src/../h/Riscv.hpp **** inline uint64 Riscv::r_sip() {
 127:src/../h/Riscv.hpp **** 	uint64 volatile sip;
 128:src/../h/Riscv.hpp **** 	__asm__ volatile("csrr %[sip], sip": [sip] "=r"(sip));
 129:src/../h/Riscv.hpp **** 	return sip;
 130:src/../h/Riscv.hpp **** }
 131:src/../h/Riscv.hpp **** 
 132:src/../h/Riscv.hpp **** inline void Riscv::w_sip(uint64 sip) {
 133:src/../h/Riscv.hpp **** 	__asm__ volatile("csrw sip, %[sip]": :[sip] "r"(sip));
 134:src/../h/Riscv.hpp **** }
 135:src/../h/Riscv.hpp **** 
 136:src/../h/Riscv.hpp **** inline void Riscv::ms_sstatus(uint64 mask) {
GAS LISTING /tmp/ccccUFD7.s 			page 7


 137:src/../h/Riscv.hpp **** 	__asm__ volatile("csrs sstatus, %[mask]": :[mask] "r"(mask));
 138:src/../h/Riscv.hpp **** }
 139:src/../h/Riscv.hpp **** 
 140:src/../h/Riscv.hpp **** inline void Riscv::mc_sstatus(uint64 mask) {
 141:src/../h/Riscv.hpp **** 	__asm__ volatile("csrc sstatus, %[mask]": :[mask] "r"(mask));
 116              		.loc 2 141 2
 117              		.loc 2 141 62 is_stmt 0
 118 00bc 93070010 		li	a5,256
 119              	#APP
 120              	# 141 "src/../h/Riscv.hpp" 1
 142              	}
 121              		csrc sstatus, a5
 122              	# 0 "" 2
 123              		.loc 2 142 1
 124              	#NO_APP
 125 00c4 6F00C001 		j	.L7
 126              	.LVL6:
 127              	.L10:
 128              	.LBE22:
 129              	.LBE21:
  31:src/TCB.cpp   **** 	}
 130              		.loc 1 31 3 is_stmt 1
  31:src/TCB.cpp   **** 	}
 131              		.loc 1 31 17 is_stmt 0
 132 00c8 13850400 		mv	a0,s1
 133 00cc 97000000 		call	_ZN9Scheduler3putEP3TCB@plt
 133      E7800000 
 134              	.LVL7:
 135 00d4 6FF0DFFA 		j	.L4
 136              	.L5:
  40:src/TCB.cpp   **** 	} else {
 137              		.loc 1 40 3 is_stmt 1
 138              	.LVL8:
 139              	.LBB23:
 140              	.LBB24:
 137:src/../h/Riscv.hpp **** }
 141              		.loc 2 137 2
 137:src/../h/Riscv.hpp **** }
 142              		.loc 2 137 62 is_stmt 0
 143 00d8 93070010 		li	a5,256
 144              	#APP
 145              	# 137 "src/../h/Riscv.hpp" 1
 146              		csrs sstatus, a5
 147              	# 0 "" 2
 148              	.LVL9:
 149              	#NO_APP
 150              	.L7:
 151              	.LBE24:
 152              	.LBE23:
  45:src/TCB.cpp   **** }
 153              		.loc 1 45 2 is_stmt 1
 154 00e0 6388B400 		beq	s1,a1,.L3
  45:src/TCB.cpp   **** }
 155              		.loc 1 45 27 discriminator 1
  45:src/TCB.cpp   **** }
 156              		.loc 1 45 45 is_stmt 0 discriminator 1
 157 00e4 13850400 		mv	a0,s1
GAS LISTING /tmp/ccccUFD7.s 			page 8


 158 00e8 97000000 		call	_ZN3TCB13contextSwitchEPNS_7ContextES1_@plt
 158      E7800000 
 159              	.LVL10:
 160              	.L3:
  46:src/TCB.cpp   **** 
 161              		.loc 1 46 1
 162 00f0 83308101 		ld	ra,24(sp)
 163              		.cfi_restore 1
 164 00f4 03340101 		ld	s0,16(sp)
 165              		.cfi_restore 8
 166              		.cfi_def_cfa 2, 32
 167 00f8 83348100 		ld	s1,8(sp)
 168              		.cfi_restore 9
 169              	.LVL11:
 170 00fc 13010102 		addi	sp,sp,32
 171              		.cfi_def_cfa_offset 0
 172 0100 67800000 		jr	ra
 173              		.cfi_endproc
 174              	.LFE46:
 176              		.align	2
 177              		.globl	_ZN3TCB5yieldEv
 179              	_ZN3TCB5yieldEv:
 180              	.LFB47:
  48:src/TCB.cpp   **** 	Riscv::pushRegisters();
 181              		.loc 1 48 19 is_stmt 1
 182              		.cfi_startproc
 183 0104 130101FF 		addi	sp,sp,-16
 184              		.cfi_def_cfa_offset 16
 185 0108 23341100 		sd	ra,8(sp)
 186 010c 23308100 		sd	s0,0(sp)
 187              		.cfi_offset 1, -8
 188              		.cfi_offset 8, -16
 189 0110 13040101 		addi	s0,sp,16
 190              		.cfi_def_cfa 8, 0
  49:src/TCB.cpp   **** 	TCB::dispatch();
 191              		.loc 1 49 2
  49:src/TCB.cpp   **** 	TCB::dispatch();
 192              		.loc 1 49 22 is_stmt 0
 193 0114 97000000 		call	_ZN5Riscv13pushRegistersEv@plt
 193      E7800000 
 194              	.LVL12:
  50:src/TCB.cpp   **** 	Riscv::popRegisters();
 195              		.loc 1 50 2 is_stmt 1
  50:src/TCB.cpp   **** 	Riscv::popRegisters();
 196              		.loc 1 50 15 is_stmt 0
 197 011c 97000000 		call	_ZN3TCB8dispatchEv
 197      E7800000 
 198              	.LVL13:
  51:src/TCB.cpp   **** }
 199              		.loc 1 51 2 is_stmt 1
  51:src/TCB.cpp   **** }
 200              		.loc 1 51 21 is_stmt 0
 201 0124 97000000 		call	_ZN5Riscv12popRegistersEv@plt
 201      E7800000 
 202              	.LVL14:
  52:src/TCB.cpp   **** 
 203              		.loc 1 52 1
GAS LISTING /tmp/ccccUFD7.s 			page 9


 204 012c 83308100 		ld	ra,8(sp)
 205              		.cfi_restore 1
 206 0130 03340100 		ld	s0,0(sp)
 207              		.cfi_restore 8
 208              		.cfi_def_cfa 2, 16
 209 0134 13010101 		addi	sp,sp,16
 210              		.cfi_def_cfa_offset 0
 211 0138 67800000 		jr	ra
 212              		.cfi_endproc
 213              	.LFE47:
 215              		.align	2
 216              		.globl	_ZN3TCBnwEm
 218              	_ZN3TCBnwEm:
 219              	.LFB49:
  64:src/TCB.cpp   **** 
  65:src/TCB.cpp   **** void* TCB::operator new(size_t size) {
 220              		.loc 1 65 38 is_stmt 1
 221              		.cfi_startproc
 222              	.LVL15:
 223 013c 130101FF 		addi	sp,sp,-16
 224              		.cfi_def_cfa_offset 16
 225 0140 23341100 		sd	ra,8(sp)
 226 0144 23308100 		sd	s0,0(sp)
 227              		.cfi_offset 1, -8
 228              		.cfi_offset 8, -16
 229 0148 13040101 		addi	s0,sp,16
 230              		.cfi_def_cfa 8, 0
  66:src/TCB.cpp   ****     return mem_alloc(size);
 231              		.loc 1 66 5
 232              		.loc 1 66 21 is_stmt 0
 233 014c 97000000 		call	_Z9mem_allocm@plt
 233      E7800000 
 234              	.LVL16:
  67:src/TCB.cpp   **** 	//return MemoryAllocator::kmalloc(size + sizeof(MemoryAllocator::UsedMemSegment), MemoryAllocator:
  68:src/TCB.cpp   **** }
 235              		.loc 1 68 1
 236 0154 83308100 		ld	ra,8(sp)
 237              		.cfi_restore 1
 238 0158 03340100 		ld	s0,0(sp)
 239              		.cfi_restore 8
 240              		.cfi_def_cfa 2, 16
 241 015c 13010101 		addi	sp,sp,16
 242              		.cfi_def_cfa_offset 0
 243 0160 67800000 		jr	ra
 244              		.cfi_endproc
 245              	.LFE49:
 247              		.align	2
 248              		.globl	_ZN3TCB12createThreadEPFvPvES0_Pm
 250              	_ZN3TCB12createThreadEPFvPvES0_Pm:
 251              	.LFB45:
  14:src/TCB.cpp   **** 	//pravljenje niti
 252              		.loc 1 14 71 is_stmt 1
 253              		.cfi_startproc
 254              	.LVL17:
 255 0164 130101FD 		addi	sp,sp,-48
 256              		.cfi_def_cfa_offset 48
 257 0168 23341102 		sd	ra,40(sp)
GAS LISTING /tmp/ccccUFD7.s 			page 10


 258 016c 23308102 		sd	s0,32(sp)
 259 0170 233C9100 		sd	s1,24(sp)
 260 0174 23382101 		sd	s2,16(sp)
 261 0178 23343101 		sd	s3,8(sp)
 262              		.cfi_offset 1, -8
 263              		.cfi_offset 8, -16
 264              		.cfi_offset 9, -24
 265              		.cfi_offset 18, -32
 266              		.cfi_offset 19, -40
 267 017c 13040103 		addi	s0,sp,48
 268              		.cfi_def_cfa 8, 0
 269 0180 13090500 		mv	s2,a0
 270 0184 93890500 		mv	s3,a1
 271 0188 93040600 		mv	s1,a2
  16:src/TCB.cpp   **** 
 272              		.loc 1 16 2
  16:src/TCB.cpp   **** 
 273              		.loc 1 16 48 is_stmt 0
 274 018c 13050006 		li	a0,96
 275              	.LVL18:
 276 0190 97000000 		call	_ZN3TCBnwEm
 276      E7800000 
 277              	.LVL19:
 278              	.LBB25:
 279              	.LBB26:
 280              		.file 3 "src/../h/TCB.hpp"
   1:src/../h/TCB.hpp **** //
   2:src/../h/TCB.hpp **** // Created by os on 5/23/23.
   3:src/../h/TCB.hpp **** //
   4:src/../h/TCB.hpp **** 
   5:src/../h/TCB.hpp **** #ifndef PROJEKAT2023_TCB_HPP
   6:src/../h/TCB.hpp **** #define PROJEKAT2023_TCB_HPP
   7:src/../h/TCB.hpp **** 
   8:src/../h/TCB.hpp **** #include "../lib/hw.h"
   9:src/../h/TCB.hpp **** #include "../h/ThreadQueue.hpp"
  10:src/../h/TCB.hpp **** 
  11:src/../h/TCB.hpp **** class TCB {
  12:src/../h/TCB.hpp **** public:
  13:src/../h/TCB.hpp **** 	friend class Scheduler;
  14:src/../h/TCB.hpp **** 
  15:src/../h/TCB.hpp **** 	using Body = void (*)(void*);
  16:src/../h/TCB.hpp **** 
  17:src/../h/TCB.hpp **** 	static TCB* createThread(Body function, void* args, uint64* stack);
  18:src/../h/TCB.hpp **** 	static void start(TCB* newTcb);
  19:src/../h/TCB.hpp **** 
  20:src/../h/TCB.hpp **** 	bool isFinished() { return finished; }
  21:src/../h/TCB.hpp **** 
  22:src/../h/TCB.hpp **** 	void setFinished(bool finish) { this->finished = finish; }
  23:src/../h/TCB.hpp **** 
  24:src/../h/TCB.hpp **** 	bool isBlocked() { return blocked; }
  25:src/../h/TCB.hpp **** 
  26:src/../h/TCB.hpp **** 	void setBlocked(bool block) { this->blocked = block; }
  27:src/../h/TCB.hpp **** 
  28:src/../h/TCB.hpp **** 	uint64 getTimeSlice() { return timeSlice; }
  29:src/../h/TCB.hpp **** 
  30:src/../h/TCB.hpp **** 	void setTimeSlice(uint64 value) { timeSlice = value; }
  31:src/../h/TCB.hpp **** 
GAS LISTING /tmp/ccccUFD7.s 			page 11


  32:src/../h/TCB.hpp **** 	//static void threadSleep(time_t sleepTime);
  33:src/../h/TCB.hpp **** 
  34:src/../h/TCB.hpp **** 	static void threadJoin(TCB* handle);
  35:src/../h/TCB.hpp **** 
  36:src/../h/TCB.hpp **** 	static void releaseJoined();
  37:src/../h/TCB.hpp **** 
  38:src/../h/TCB.hpp **** 	static void yield();
  39:src/../h/TCB.hpp **** 
  40:src/../h/TCB.hpp **** 	static void dispatch();
  41:src/../h/TCB.hpp **** 
  42:src/../h/TCB.hpp **** 	static void wrapper();
  43:src/../h/TCB.hpp **** 
  44:src/../h/TCB.hpp **** 	static TCB* running;
  45:src/../h/TCB.hpp **** 	static uint64 runningTimeSlice;
  46:src/../h/TCB.hpp **** 
  47:src/../h/TCB.hpp **** 	static void* operator new(size_t size);
  48:src/../h/TCB.hpp **** 
  49:src/../h/TCB.hpp **** 	static void operator delete(void* ptr);
  50:src/../h/TCB.hpp **** private:
  51:src/../h/TCB.hpp **** 	//kontekst procesora za datu nit
  52:src/../h/TCB.hpp **** 	struct Context {
  53:src/../h/TCB.hpp **** 		uint64 ra;
  54:src/../h/TCB.hpp **** 		uint64 sp;
  55:src/../h/TCB.hpp **** 	} context;
  56:src/../h/TCB.hpp **** 	Body threadFunction;    //funkcija koja se izvrsava
  57:src/../h/TCB.hpp **** 	uint64* stack;            //najniza adresa steka; stek raste ka nizim adresama, pokazuje na posled
  58:src/../h/TCB.hpp **** 	void* args;                //argumenti poziva funkcije
  59:src/../h/TCB.hpp **** 	uint64 timeSlice;        //vremenski odsecak dodeljen datoj niti
  60:src/../h/TCB.hpp **** 	bool finished;            //da li je nit zavrsila izvrsavanje funkcije
  61:src/../h/TCB.hpp **** 	bool blocked;            //da li je nit blokirana
  62:src/../h/TCB.hpp **** 	bool needToJoin;        //da li je nit pozvala join i ceka da se neka druga zavrsi
  63:src/../h/TCB.hpp **** 	TCB* nextInScheduler;    // pokazivac na sledecu nit u Scheduler-u
  64:src/../h/TCB.hpp **** 	time_t timeToSleep;        //vreme na koje je uspavana nit
  65:src/../h/TCB.hpp **** 	TCB* nextSleeping;        //sledeca nit u listi za spavanje u Scheduler-u
  66:src/../h/TCB.hpp **** 	ThreadQueue waitingToJoin;    //red niti koje su pozvale join nad ovom niti
  67:src/../h/TCB.hpp **** 
  68:src/../h/TCB.hpp **** 
  69:src/../h/TCB.hpp **** 	TCB(Body function, void* args, uint64* stack) : threadFunction(function), stack(stack), args(args)
  70:src/../h/TCB.hpp **** 													timeSlice(DEFAULT_TIME_SLICE), finished(false), blocked(false),
  71:src/../h/TCB.hpp **** 													needToJoin(false),
  72:src/../h/TCB.hpp **** 													nextInScheduler(nullptr), timeToSleep(0), nextSleeping(nullptr) {
 281              		.loc 3 72 76
 282 0198 23382501 		sd	s2,16(a0)
 283 019c 233C9500 		sd	s1,24(a0)
 284 01a0 23303503 		sd	s3,32(a0)
 285 01a4 93072000 		li	a5,2
 286 01a8 2334F502 		sd	a5,40(a0)
 287 01ac 23080502 		sb	zero,48(a0)
 288 01b0 A3080502 		sb	zero,49(a0)
 289 01b4 23090502 		sb	zero,50(a0)
 290 01b8 233C0502 		sd	zero,56(a0)
 291 01bc 23300504 		sd	zero,64(a0)
 292 01c0 23340504 		sd	zero,72(a0)
 293              	.LVL20:
 294              	.LBB27:
 295              	.LBB28:
 296              		.file 4 "src/../h/../h/ThreadQueue.hpp"
GAS LISTING /tmp/ccccUFD7.s 			page 12


   1:src/../h/../h/ThreadQueue.hpp **** //
   2:src/../h/../h/ThreadQueue.hpp **** // Created by os on 6/4/23.
   3:src/../h/../h/ThreadQueue.hpp **** //
   4:src/../h/../h/ThreadQueue.hpp **** 
   5:src/../h/../h/ThreadQueue.hpp **** #ifndef PROJEKAT2023_THREADQUEUE_HPP
   6:src/../h/../h/ThreadQueue.hpp **** #define PROJEKAT2023_THREADQUEUE_HPP
   7:src/../h/../h/ThreadQueue.hpp **** 
   8:src/../h/../h/ThreadQueue.hpp **** #include "../h/MemoryAllocator.hpp"
   9:src/../h/../h/ThreadQueue.hpp **** #include "../h/syscall_c.hpp"
  10:src/../h/../h/ThreadQueue.hpp **** 
  11:src/../h/../h/ThreadQueue.hpp **** class TCB;
  12:src/../h/../h/ThreadQueue.hpp **** 
  13:src/../h/../h/ThreadQueue.hpp **** class ThreadQueue {
  14:src/../h/../h/ThreadQueue.hpp **** private:
  15:src/../h/../h/ThreadQueue.hpp ****     struct Node {
  16:src/../h/../h/ThreadQueue.hpp ****         TCB *data;
  17:src/../h/../h/ThreadQueue.hpp ****         Node *next;
  18:src/../h/../h/ThreadQueue.hpp **** 
  19:src/../h/../h/ThreadQueue.hpp ****         Node(TCB *d) : data(d), next(nullptr) {}
  20:src/../h/../h/ThreadQueue.hpp **** 
  21:src/../h/../h/ThreadQueue.hpp ****         static void *operator new(size_t size) {
  22:src/../h/../h/ThreadQueue.hpp ****             return mem_alloc(size);
  23:src/../h/../h/ThreadQueue.hpp ****         }
  24:src/../h/../h/ThreadQueue.hpp **** 
  25:src/../h/../h/ThreadQueue.hpp ****         static void operator delete(void *ptr) {
  26:src/../h/../h/ThreadQueue.hpp ****             mem_free(ptr);
  27:src/../h/../h/ThreadQueue.hpp ****         }
  28:src/../h/../h/ThreadQueue.hpp ****     };
  29:src/../h/../h/ThreadQueue.hpp **** 
  30:src/../h/../h/ThreadQueue.hpp ****     Node *front;
  31:src/../h/../h/ThreadQueue.hpp ****     Node *back;
  32:src/../h/../h/ThreadQueue.hpp **** 
  33:src/../h/../h/ThreadQueue.hpp **** public:
  34:src/../h/../h/ThreadQueue.hpp ****     ThreadQueue() : front(nullptr), back(nullptr) {}
 297              		.loc 4 34 49
 298 01c4 23380504 		sd	zero,80(a0)
 299 01c8 233C0504 		sd	zero,88(a0)
 300              	.LVL21:
 301              	.LBE28:
 302              	.LBE27:
 303              	.LBB29:
  73:src/../h/TCB.hpp **** 		//formiranje pocetnog konteksta; specijalni uslovi za main funkciju kojoj se pocetni kontekst aut
  74:src/../h/TCB.hpp **** 		uint64 startRa = threadFunction != nullptr ? (uint64)&wrapper : 0;
 304              		.loc 3 74 3 is_stmt 1
 305              		.loc 3 74 46 is_stmt 0
 306 01cc 630E0902 		beqz	s2,.L18
 307 01d0 97070000 		lla	a5,_ZN3TCB7wrapperEv
 307      93870700 
 308              	.L16:
 309              	.LVL22:
  75:src/../h/TCB.hpp **** 		uint64 startSp = stack != nullptr ? (uint64)&stack[DEFAULT_STACK_SIZE] : 0;
 310              		.loc 3 75 3 is_stmt 1
 311              		.loc 3 75 37 is_stmt 0
 312 01d8 638C0402 		beqz	s1,.L19
 313              		.loc 3 75 47
 314 01dc 37860000 		li	a2,32768
 315 01e0 B384C400 		add	s1,s1,a2
GAS LISTING /tmp/ccccUFD7.s 			page 13


 316              	.LVL23:
 317              	.L17:
  76:src/../h/TCB.hpp **** 		this->context.ra = startRa;
 318              		.loc 3 76 3 is_stmt 1
 319              		.loc 3 76 20 is_stmt 0
 320 01e4 2330F500 		sd	a5,0(a0)
  77:src/../h/TCB.hpp **** 		this->context.sp = startSp;
 321              		.loc 3 77 3 is_stmt 1
 322              		.loc 3 77 20 is_stmt 0
 323 01e8 23349500 		sd	s1,8(a0)
 324              	.LVL24:
 325              	.LBE29:
 326              	.LBE26:
 327              	.LBE25:
  20:src/TCB.cpp   **** }
 328              		.loc 1 20 2 is_stmt 1
  21:src/TCB.cpp   **** 
 329              		.loc 1 21 1 is_stmt 0
 330 01ec 83308102 		ld	ra,40(sp)
 331              		.cfi_remember_state
 332              		.cfi_restore 1
 333 01f0 03340102 		ld	s0,32(sp)
 334              		.cfi_restore 8
 335              		.cfi_def_cfa 2, 48
 336 01f4 83348101 		ld	s1,24(sp)
 337              		.cfi_restore 9
 338              	.LVL25:
 339 01f8 03390101 		ld	s2,16(sp)
 340              		.cfi_restore 18
 341              	.LVL26:
 342 01fc 83398100 		ld	s3,8(sp)
 343              		.cfi_restore 19
 344              	.LVL27:
 345 0200 13010103 		addi	sp,sp,48
 346              		.cfi_def_cfa_offset 0
 347 0204 67800000 		jr	ra
 348              	.LVL28:
 349              	.L18:
 350              		.cfi_restore_state
 351              	.LBB32:
 352              	.LBB31:
 353              	.LBB30:
  74:src/../h/TCB.hpp **** 		uint64 startSp = stack != nullptr ? (uint64)&stack[DEFAULT_STACK_SIZE] : 0;
 354              		.loc 3 74 46
 355 0208 93070000 		li	a5,0
 356 020c 6FF0DFFC 		j	.L16
 357              	.LVL29:
 358              	.L19:
  75:src/../h/TCB.hpp **** 		this->context.ra = startRa;
 359              		.loc 3 75 37
 360 0210 93040000 		li	s1,0
 361              	.LVL30:
 362 0214 6FF01FFD 		j	.L17
 363              	.LBE30:
 364              	.LBE31:
 365              	.LBE32:
 366              		.cfi_endproc
GAS LISTING /tmp/ccccUFD7.s 			page 14


 367              	.LFE45:
 369              		.align	2
 370              		.globl	_ZN3TCBdlEPv
 372              	_ZN3TCBdlEPv:
 373              	.LFB50:
  69:src/TCB.cpp   **** 
  70:src/TCB.cpp   **** void TCB::operator delete(void* ptr) {
 374              		.loc 1 70 38 is_stmt 1
 375              		.cfi_startproc
 376              	.LVL31:
 377 0218 130101FF 		addi	sp,sp,-16
 378              		.cfi_def_cfa_offset 16
 379 021c 23341100 		sd	ra,8(sp)
 380 0220 23308100 		sd	s0,0(sp)
 381              		.cfi_offset 1, -8
 382              		.cfi_offset 8, -16
 383 0224 13040101 		addi	s0,sp,16
 384              		.cfi_def_cfa 8, 0
  71:src/TCB.cpp   ****     mem_free(ptr);
 385              		.loc 1 71 5
 386              		.loc 1 71 13 is_stmt 0
 387 0228 97000000 		call	_Z8mem_freePv@plt
 387      E7800000 
 388              	.LVL32:
  72:src/TCB.cpp   **** 	//MemoryAllocator::kfree(ptr);
  73:src/TCB.cpp   **** }
 389              		.loc 1 73 1
 390 0230 83308100 		ld	ra,8(sp)
 391              		.cfi_restore 1
 392 0234 03340100 		ld	s0,0(sp)
 393              		.cfi_restore 8
 394              		.cfi_def_cfa 2, 16
 395 0238 13010101 		addi	sp,sp,16
 396              		.cfi_def_cfa_offset 0
 397 023c 67800000 		jr	ra
 398              		.cfi_endproc
 399              	.LFE50:
 401              		.align	2
 402              		.globl	_ZN3TCB10threadJoinEPS_
 404              	_ZN3TCB10threadJoinEPS_:
 405              	.LFB51:
  74:src/TCB.cpp   **** 
  75:src/TCB.cpp   **** void TCB::threadJoin(TCB* handle) {
 406              		.loc 1 75 35 is_stmt 1
 407              		.cfi_startproc
 408              	.LVL33:
  76:src/TCB.cpp   **** 	if (handle->finished) return;
 409              		.loc 1 76 2
 410              		.loc 1 76 14 is_stmt 0
 411 0240 83470503 		lbu	a5,48(a0)
 412              		.loc 1 76 2
 413 0244 63840700 		beqz	a5,.L29
 414 0248 67800000 		ret
 415              	.L29:
  75:src/TCB.cpp   **** 	if (handle->finished) return;
 416              		.loc 1 75 35
 417 024c 130101FF 		addi	sp,sp,-16
GAS LISTING /tmp/ccccUFD7.s 			page 15


 418              		.cfi_def_cfa_offset 16
 419 0250 23341100 		sd	ra,8(sp)
 420 0254 23308100 		sd	s0,0(sp)
 421              		.cfi_offset 1, -8
 422              		.cfi_offset 8, -16
 423 0258 13040101 		addi	s0,sp,16
 424              		.cfi_def_cfa 8, 0
  77:src/TCB.cpp   **** 	TCB::running->needToJoin = true;
 425              		.loc 1 77 2 is_stmt 1
 426              		.loc 1 77 16 is_stmt 0
 427 025c 97050000 		ld	a1,.LANCHOR0
 427      83B50500 
 428              		.loc 1 77 27
 429 0264 93071000 		li	a5,1
 430 0268 2389F502 		sb	a5,50(a1)
  78:src/TCB.cpp   **** 	handle->waitingToJoin.putLast(TCB::running);
 431              		.loc 1 78 2 is_stmt 1
 432              		.loc 1 78 31 is_stmt 0
 433 026c 13050505 		addi	a0,a0,80
 434              	.LVL34:
 435 0270 97000000 		call	_ZN11ThreadQueue7putLastEP3TCB@plt
 435      E7800000 
 436              	.LVL35:
  79:src/TCB.cpp   **** }
 437              		.loc 1 79 1
 438 0278 83308100 		ld	ra,8(sp)
 439              		.cfi_restore 1
 440 027c 03340100 		ld	s0,0(sp)
 441              		.cfi_restore 8
 442              		.cfi_def_cfa 2, 16
 443 0280 13010101 		addi	sp,sp,16
 444              		.cfi_def_cfa_offset 0
 445 0284 67800000 		jr	ra
 446              		.cfi_endproc
 447              	.LFE51:
 449              		.align	2
 450              		.globl	_ZN3TCB13releaseJoinedEv
 452              	_ZN3TCB13releaseJoinedEv:
 453              	.LFB52:
  80:src/TCB.cpp   **** 
  81:src/TCB.cpp   **** void TCB::releaseJoined() {
 454              		.loc 1 81 27 is_stmt 1
 455              		.cfi_startproc
  82:src/TCB.cpp   **** 	while (!TCB::running->waitingToJoin.isEmpty()) {
 456              		.loc 1 82 2
 457              		.loc 1 82 9
 458              		.loc 1 82 24 is_stmt 0
 459 0288 17050000 		ld	a0,.LANCHOR0
 459      03350500 
 460              	.LVL36:
 461              	.LBB33:
 462              	.LBB34:
  35:src/../h/../h/ThreadQueue.hpp **** 
  36:src/../h/../h/ThreadQueue.hpp ****     ThreadQueue(const ThreadQueue &) = delete;
  37:src/../h/../h/ThreadQueue.hpp **** 
  38:src/../h/../h/ThreadQueue.hpp ****     ThreadQueue &operator=(const ThreadQueue &) = delete;
  39:src/../h/../h/ThreadQueue.hpp **** 
GAS LISTING /tmp/ccccUFD7.s 			page 16


  40:src/../h/../h/ThreadQueue.hpp ****     ~ThreadQueue() {
  41:src/../h/../h/ThreadQueue.hpp ****         while (!isEmpty()) {
  42:src/../h/../h/ThreadQueue.hpp ****             Node *node = front;
  43:src/../h/../h/ThreadQueue.hpp ****             front = front->next;
  44:src/../h/../h/ThreadQueue.hpp ****             delete node;
  45:src/../h/../h/ThreadQueue.hpp ****         }
  46:src/../h/../h/ThreadQueue.hpp ****     }
  47:src/../h/../h/ThreadQueue.hpp **** 
  48:src/../h/../h/ThreadQueue.hpp ****     bool isEmpty() const {
  49:src/../h/../h/ThreadQueue.hpp ****         bool ret = front == nullptr;
 463              		.loc 4 49 9 is_stmt 1
 464              		.loc 4 49 20 is_stmt 0
 465 0290 83370505 		ld	a5,80(a0)
 466              	.LVL37:
  50:src/../h/../h/ThreadQueue.hpp ****         return ret;
 467              		.loc 4 50 9 is_stmt 1
 468              	.LBE34:
 469              	.LBE33:
 470              		.loc 1 82 9 is_stmt 0
 471 0294 63860704 		beqz	a5,.L38
  81:src/TCB.cpp   **** 	while (!TCB::running->waitingToJoin.isEmpty()) {
 472              		.loc 1 81 27
 473 0298 130101FF 		addi	sp,sp,-16
 474              		.cfi_def_cfa_offset 16
 475 029c 23341100 		sd	ra,8(sp)
 476 02a0 23308100 		sd	s0,0(sp)
 477              		.cfi_offset 1, -8
 478              		.cfi_offset 8, -16
 479 02a4 13040101 		addi	s0,sp,16
 480              		.cfi_def_cfa 8, 0
 481              	.L34:
 482              	.LBB36:
  83:src/TCB.cpp   **** 		TCB* tcb = TCB::running->waitingToJoin.getFirst();
 483              		.loc 1 83 3 is_stmt 1
 484              		.loc 1 83 50 is_stmt 0
 485 02a8 13050505 		addi	a0,a0,80
 486 02ac 97000000 		call	_ZN11ThreadQueue8getFirstEv@plt
 486      E7800000 
 487              	.LVL38:
  84:src/TCB.cpp   **** 		tcb->needToJoin = false;
 488              		.loc 1 84 3 is_stmt 1
 489              		.loc 1 84 19 is_stmt 0
 490 02b4 23090502 		sb	zero,50(a0)
  85:src/TCB.cpp   **** 		Scheduler::put(tcb);
 491              		.loc 1 85 3 is_stmt 1
 492              		.loc 1 85 17 is_stmt 0
 493 02b8 97000000 		call	_ZN9Scheduler3putEP3TCB@plt
 493      E7800000 
 494              	.LVL39:
 495              	.LBE36:
  82:src/TCB.cpp   **** 		TCB* tcb = TCB::running->waitingToJoin.getFirst();
 496              		.loc 1 82 2 is_stmt 1
  82:src/TCB.cpp   **** 		TCB* tcb = TCB::running->waitingToJoin.getFirst();
 497              		.loc 1 82 9
  82:src/TCB.cpp   **** 		TCB* tcb = TCB::running->waitingToJoin.getFirst();
 498              		.loc 1 82 24 is_stmt 0
 499 02c0 17050000 		ld	a0,.LANCHOR0
GAS LISTING /tmp/ccccUFD7.s 			page 17


 499      03350500 
 500              	.LVL40:
 501              	.LBB37:
 502              	.LBB35:
  49:src/../h/../h/ThreadQueue.hpp ****         return ret;
 503              		.loc 4 49 9 is_stmt 1
  49:src/../h/../h/ThreadQueue.hpp ****         return ret;
 504              		.loc 4 49 20 is_stmt 0
 505 02c8 83370505 		ld	a5,80(a0)
 506              	.LVL41:
 507              		.loc 4 50 9 is_stmt 1
 508              	.LBE35:
 509              	.LBE37:
  82:src/TCB.cpp   **** 		TCB* tcb = TCB::running->waitingToJoin.getFirst();
 510              		.loc 1 82 9 is_stmt 0
 511 02cc E39E07FC 		bnez	a5,.L34
  86:src/TCB.cpp   **** 	}
  87:src/TCB.cpp   **** }
 512              		.loc 1 87 1
 513 02d0 83308100 		ld	ra,8(sp)
 514              		.cfi_restore 1
 515 02d4 03340100 		ld	s0,0(sp)
 516              		.cfi_restore 8
 517              		.cfi_def_cfa 2, 16
 518 02d8 13010101 		addi	sp,sp,16
 519              		.cfi_def_cfa_offset 0
 520 02dc 67800000 		jr	ra
 521              	.L38:
 522 02e0 67800000 		ret
 523              		.cfi_endproc
 524              	.LFE52:
 526              		.align	2
 527              		.globl	_ZN3TCB5startEPS_
 529              	_ZN3TCB5startEPS_:
 530              	.LFB53:
  88:src/TCB.cpp   **** 
  89:src/TCB.cpp   **** void TCB::start(TCB* newTcb) {
 531              		.loc 1 89 30 is_stmt 1
 532              		.cfi_startproc
 533              	.LVL42:
  90:src/TCB.cpp   **** 	//startovanje niti(stavljanje u Scheduler); main nit je vec aktivna, ne stavlja se u Scheduler
  91:src/TCB.cpp   **** 	if (newTcb->threadFunction != nullptr) Scheduler::put(newTcb);
 534              		.loc 1 91 2
 535              		.loc 1 91 14 is_stmt 0
 536 02e4 83370501 		ld	a5,16(a0)
 537              		.loc 1 91 2
 538 02e8 63860702 		beqz	a5,.L42
  89:src/TCB.cpp   **** 	//startovanje niti(stavljanje u Scheduler); main nit je vec aktivna, ne stavlja se u Scheduler
 539              		.loc 1 89 30 discriminator 1
 540 02ec 130101FF 		addi	sp,sp,-16
 541              		.cfi_def_cfa_offset 16
 542 02f0 23341100 		sd	ra,8(sp)
 543 02f4 23308100 		sd	s0,0(sp)
 544              		.cfi_offset 1, -8
 545              		.cfi_offset 8, -16
 546 02f8 13040101 		addi	s0,sp,16
 547              		.cfi_def_cfa 8, 0
GAS LISTING /tmp/ccccUFD7.s 			page 18


 548              		.loc 1 91 41 is_stmt 1 discriminator 1
 549              		.loc 1 91 55 is_stmt 0 discriminator 1
 550 02fc 97000000 		call	_ZN9Scheduler3putEP3TCB@plt
 550      E7800000 
 551              	.LVL43:
  92:src/TCB.cpp   **** }
 552              		.loc 1 92 1 discriminator 1
 553 0304 83308100 		ld	ra,8(sp)
 554              		.cfi_restore 1
 555 0308 03340100 		ld	s0,0(sp)
 556              		.cfi_restore 8
 557              		.cfi_def_cfa 2, 16
 558 030c 13010101 		addi	sp,sp,16
 559              		.cfi_def_cfa_offset 0
 560 0310 67800000 		jr	ra
 561              	.LVL44:
 562              	.L42:
 563 0314 67800000 		ret
 564              		.cfi_endproc
 565              	.LFE53:
 567              		.globl	_ZN3TCB16runningTimeSliceE
 568              		.globl	_ZN3TCB7runningE
 569              		.bss
 570              		.align	3
 571              		.set	.LANCHOR0,. + 0
 574              	_ZN3TCB7runningE:
 575 0000 00000000 		.zero	8
 575      00000000 
 578              	_ZN3TCB16runningTimeSliceE:
 579 0008 00000000 		.zero	8
 579      00000000 
 580              		.text
 581              	.Letext0:
 582              		.file 5 "src/../h/../lib/hw.h"
 583              		.file 6 "src/../h/Scheduler.hpp"
 584              		.file 7 "src/../h/../h/../h/syscall_c.hpp"
GAS LISTING /tmp/ccccUFD7.s 			page 19


DEFINED SYMBOLS
                            *ABS*:0000000000000000 TCB.cpp
     /tmp/ccccUFD7.s:9      .text:0000000000000000 _ZN3TCB7wrapperEv
     /tmp/ccccUFD7.s:13     .text:0000000000000000 .L0 
     /tmp/ccccUFD7.s:14     .text:0000000000000000 .L0 
     /tmp/ccccUFD7.s:15     .text:0000000000000004 .L0 
     /tmp/ccccUFD7.s:18     .text:000000000000000c .L0 
     /tmp/ccccUFD7.s:19     .text:000000000000000c .L0 
     /tmp/ccccUFD7.s:21     .text:0000000000000010 .L0 
     /tmp/ccccUFD7.s:23     .text:0000000000000010 .L0 
     /tmp/ccccUFD7.s:24     .text:0000000000000010 .L0 
     /tmp/ccccUFD7.s:27     .text:0000000000000018 .L0 
     /tmp/ccccUFD7.s:28     .text:0000000000000018 .L0 
     /tmp/ccccUFD7.s:31     .text:0000000000000024 .L0 
     /tmp/ccccUFD7.s:35     .text:000000000000002c .L0 
     /tmp/ccccUFD7.s:36     .text:000000000000002c .L0 
     /tmp/ccccUFD7.s:39     .text:0000000000000034 .L0 
     /tmp/ccccUFD7.s:40     .text:0000000000000038 .L0 
     /tmp/ccccUFD7.s:42     .text:000000000000003c .L0 
     /tmp/ccccUFD7.s:43     .text:000000000000003c .L0 
     /tmp/ccccUFD7.s:45     .text:0000000000000040 .L0 
     /tmp/ccccUFD7.s:47     .text:0000000000000044 .L0 
     /tmp/ccccUFD7.s:53     .text:0000000000000044 _ZN3TCB8dispatchEv
     /tmp/ccccUFD7.s:56     .text:0000000000000044 .L0 
     /tmp/ccccUFD7.s:57     .text:0000000000000044 .L0 
     /tmp/ccccUFD7.s:58     .text:0000000000000048 .L0 
     /tmp/ccccUFD7.s:62     .text:0000000000000054 .L0 
     /tmp/ccccUFD7.s:63     .text:0000000000000054 .L0 
     /tmp/ccccUFD7.s:64     .text:0000000000000054 .L0 
     /tmp/ccccUFD7.s:66     .text:0000000000000058 .L0 
     /tmp/ccccUFD7.s:68     .text:0000000000000058 .L0 
     /tmp/ccccUFD7.s:69     .text:0000000000000058 .L0 
     /tmp/ccccUFD7.s:72     .text:0000000000000060 .L0 
     /tmp/ccccUFD7.s:73     .text:0000000000000060 .L0 
     /tmp/ccccUFD7.s:75     .text:0000000000000064 .L0 
     /tmp/ccccUFD7.s:77     .text:0000000000000068 .L0 
     /tmp/ccccUFD7.s:79     .text:000000000000006c .L0 
     /tmp/ccccUFD7.s:81     .text:0000000000000070 .L0 
     /tmp/ccccUFD7.s:83     .text:0000000000000074 .L0 
     /tmp/ccccUFD7.s:85     .text:0000000000000078 .L0 
     /tmp/ccccUFD7.s:87     .text:000000000000007c .L0 
     /tmp/ccccUFD7.s:90     .text:0000000000000080 .L0 
     /tmp/ccccUFD7.s:91     .text:0000000000000080 .L0 
     /tmp/ccccUFD7.s:95     .text:000000000000008c .L0 
     /tmp/ccccUFD7.s:98     .text:0000000000000098 .L0 
     /tmp/ccccUFD7.s:99     .text:0000000000000098 .L0 
     /tmp/ccccUFD7.s:101    .text:000000000000009c .L0 
     /tmp/ccccUFD7.s:102    .text:000000000000009c .L0 
     /tmp/ccccUFD7.s:104    .text:00000000000000a0 .L0 
     /tmp/ccccUFD7.s:106    .text:00000000000000a4 .L0 
     /tmp/ccccUFD7.s:109    .text:00000000000000b0 .L0 
     /tmp/ccccUFD7.s:116    .text:00000000000000bc .L0 
     /tmp/ccccUFD7.s:117    .text:00000000000000bc .L0 
     /tmp/ccccUFD7.s:118    .text:00000000000000bc .L0 
     /tmp/ccccUFD7.s:125    .text:00000000000000c4 .L0 
     /tmp/ccccUFD7.s:131    .text:00000000000000c8 .L0 
     /tmp/ccccUFD7.s:132    .text:00000000000000c8 .L0 
GAS LISTING /tmp/ccccUFD7.s 			page 20


     /tmp/ccccUFD7.s:141    .text:00000000000000d8 .L0 
     /tmp/ccccUFD7.s:142    .text:00000000000000d8 .L0 
     /tmp/ccccUFD7.s:143    .text:00000000000000d8 .L0 
     /tmp/ccccUFD7.s:154    .text:00000000000000e0 .L0 
     /tmp/ccccUFD7.s:156    .text:00000000000000e4 .L0 
     /tmp/ccccUFD7.s:157    .text:00000000000000e4 .L0 
     /tmp/ccccUFD7.s:162    .text:00000000000000f0 .L0 
     /tmp/ccccUFD7.s:163    .text:00000000000000f4 .L0 
     /tmp/ccccUFD7.s:165    .text:00000000000000f8 .L0 
     /tmp/ccccUFD7.s:166    .text:00000000000000f8 .L0 
     /tmp/ccccUFD7.s:168    .text:00000000000000fc .L0 
     /tmp/ccccUFD7.s:171    .text:0000000000000100 .L0 
     /tmp/ccccUFD7.s:173    .text:0000000000000104 .L0 
     /tmp/ccccUFD7.s:179    .text:0000000000000104 _ZN3TCB5yieldEv
     /tmp/ccccUFD7.s:182    .text:0000000000000104 .L0 
     /tmp/ccccUFD7.s:183    .text:0000000000000104 .L0 
     /tmp/ccccUFD7.s:184    .text:0000000000000108 .L0 
     /tmp/ccccUFD7.s:187    .text:0000000000000110 .L0 
     /tmp/ccccUFD7.s:188    .text:0000000000000110 .L0 
     /tmp/ccccUFD7.s:190    .text:0000000000000114 .L0 
     /tmp/ccccUFD7.s:192    .text:0000000000000114 .L0 
     /tmp/ccccUFD7.s:193    .text:0000000000000114 .L0 
     /tmp/ccccUFD7.s:196    .text:000000000000011c .L0 
     /tmp/ccccUFD7.s:197    .text:000000000000011c .L0 
     /tmp/ccccUFD7.s:200    .text:0000000000000124 .L0 
     /tmp/ccccUFD7.s:201    .text:0000000000000124 .L0 
     /tmp/ccccUFD7.s:204    .text:000000000000012c .L0 
     /tmp/ccccUFD7.s:205    .text:0000000000000130 .L0 
     /tmp/ccccUFD7.s:207    .text:0000000000000134 .L0 
     /tmp/ccccUFD7.s:208    .text:0000000000000134 .L0 
     /tmp/ccccUFD7.s:210    .text:0000000000000138 .L0 
     /tmp/ccccUFD7.s:212    .text:000000000000013c .L0 
     /tmp/ccccUFD7.s:218    .text:000000000000013c _ZN3TCBnwEm
     /tmp/ccccUFD7.s:221    .text:000000000000013c .L0 
     /tmp/ccccUFD7.s:223    .text:000000000000013c .L0 
     /tmp/ccccUFD7.s:224    .text:0000000000000140 .L0 
     /tmp/ccccUFD7.s:227    .text:0000000000000148 .L0 
     /tmp/ccccUFD7.s:228    .text:0000000000000148 .L0 
     /tmp/ccccUFD7.s:230    .text:000000000000014c .L0 
     /tmp/ccccUFD7.s:232    .text:000000000000014c .L0 
     /tmp/ccccUFD7.s:233    .text:000000000000014c .L0 
     /tmp/ccccUFD7.s:236    .text:0000000000000154 .L0 
     /tmp/ccccUFD7.s:237    .text:0000000000000158 .L0 
     /tmp/ccccUFD7.s:239    .text:000000000000015c .L0 
     /tmp/ccccUFD7.s:240    .text:000000000000015c .L0 
     /tmp/ccccUFD7.s:242    .text:0000000000000160 .L0 
     /tmp/ccccUFD7.s:244    .text:0000000000000164 .L0 
     /tmp/ccccUFD7.s:250    .text:0000000000000164 _ZN3TCB12createThreadEPFvPvES0_Pm
     /tmp/ccccUFD7.s:253    .text:0000000000000164 .L0 
     /tmp/ccccUFD7.s:255    .text:0000000000000164 .L0 
     /tmp/ccccUFD7.s:256    .text:0000000000000168 .L0 
     /tmp/ccccUFD7.s:262    .text:000000000000017c .L0 
     /tmp/ccccUFD7.s:263    .text:000000000000017c .L0 
     /tmp/ccccUFD7.s:264    .text:000000000000017c .L0 
     /tmp/ccccUFD7.s:265    .text:000000000000017c .L0 
     /tmp/ccccUFD7.s:266    .text:000000000000017c .L0 
     /tmp/ccccUFD7.s:268    .text:0000000000000180 .L0 
GAS LISTING /tmp/ccccUFD7.s 			page 21


     /tmp/ccccUFD7.s:273    .text:000000000000018c .L0 
     /tmp/ccccUFD7.s:274    .text:000000000000018c .L0 
     /tmp/ccccUFD7.s:282    .text:0000000000000198 .L0 
     /tmp/ccccUFD7.s:298    .text:00000000000001c4 .L0 
     /tmp/ccccUFD7.s:305    .text:00000000000001cc .L0 
     /tmp/ccccUFD7.s:306    .text:00000000000001cc .L0 
     /tmp/ccccUFD7.s:311    .text:00000000000001d8 .L0 
     /tmp/ccccUFD7.s:312    .text:00000000000001d8 .L0 
     /tmp/ccccUFD7.s:314    .text:00000000000001dc .L0 
     /tmp/ccccUFD7.s:319    .text:00000000000001e4 .L0 
     /tmp/ccccUFD7.s:320    .text:00000000000001e4 .L0 
     /tmp/ccccUFD7.s:322    .text:00000000000001e8 .L0 
     /tmp/ccccUFD7.s:323    .text:00000000000001e8 .L0 
     /tmp/ccccUFD7.s:329    .text:00000000000001ec .L0 
     /tmp/ccccUFD7.s:330    .text:00000000000001ec .L0 
     /tmp/ccccUFD7.s:331    .text:00000000000001f0 .L0 
     /tmp/ccccUFD7.s:332    .text:00000000000001f0 .L0 
     /tmp/ccccUFD7.s:334    .text:00000000000001f4 .L0 
     /tmp/ccccUFD7.s:335    .text:00000000000001f4 .L0 
     /tmp/ccccUFD7.s:337    .text:00000000000001f8 .L0 
     /tmp/ccccUFD7.s:340    .text:00000000000001fc .L0 
     /tmp/ccccUFD7.s:343    .text:0000000000000200 .L0 
     /tmp/ccccUFD7.s:346    .text:0000000000000204 .L0 
     /tmp/ccccUFD7.s:350    .text:0000000000000208 .L0 
     /tmp/ccccUFD7.s:355    .text:0000000000000208 .L0 
     /tmp/ccccUFD7.s:360    .text:0000000000000210 .L0 
     /tmp/ccccUFD7.s:366    .text:0000000000000218 .L0 
     /tmp/ccccUFD7.s:372    .text:0000000000000218 _ZN3TCBdlEPv
     /tmp/ccccUFD7.s:375    .text:0000000000000218 .L0 
     /tmp/ccccUFD7.s:377    .text:0000000000000218 .L0 
     /tmp/ccccUFD7.s:378    .text:000000000000021c .L0 
     /tmp/ccccUFD7.s:381    .text:0000000000000224 .L0 
     /tmp/ccccUFD7.s:382    .text:0000000000000224 .L0 
     /tmp/ccccUFD7.s:384    .text:0000000000000228 .L0 
     /tmp/ccccUFD7.s:386    .text:0000000000000228 .L0 
     /tmp/ccccUFD7.s:387    .text:0000000000000228 .L0 
     /tmp/ccccUFD7.s:390    .text:0000000000000230 .L0 
     /tmp/ccccUFD7.s:391    .text:0000000000000234 .L0 
     /tmp/ccccUFD7.s:393    .text:0000000000000238 .L0 
     /tmp/ccccUFD7.s:394    .text:0000000000000238 .L0 
     /tmp/ccccUFD7.s:396    .text:000000000000023c .L0 
     /tmp/ccccUFD7.s:398    .text:0000000000000240 .L0 
     /tmp/ccccUFD7.s:404    .text:0000000000000240 _ZN3TCB10threadJoinEPS_
     /tmp/ccccUFD7.s:407    .text:0000000000000240 .L0 
     /tmp/ccccUFD7.s:409    .text:0000000000000240 .L0 
     /tmp/ccccUFD7.s:410    .text:0000000000000240 .L0 
     /tmp/ccccUFD7.s:411    .text:0000000000000240 .L0 
     /tmp/ccccUFD7.s:413    .text:0000000000000244 .L0 
     /tmp/ccccUFD7.s:417    .text:000000000000024c .L0 
     /tmp/ccccUFD7.s:418    .text:0000000000000250 .L0 
     /tmp/ccccUFD7.s:421    .text:0000000000000258 .L0 
     /tmp/ccccUFD7.s:422    .text:0000000000000258 .L0 
     /tmp/ccccUFD7.s:424    .text:000000000000025c .L0 
     /tmp/ccccUFD7.s:426    .text:000000000000025c .L0 
     /tmp/ccccUFD7.s:427    .text:000000000000025c .L0 
     /tmp/ccccUFD7.s:429    .text:0000000000000264 .L0 
     /tmp/ccccUFD7.s:432    .text:000000000000026c .L0 
GAS LISTING /tmp/ccccUFD7.s 			page 22


     /tmp/ccccUFD7.s:433    .text:000000000000026c .L0 
     /tmp/ccccUFD7.s:438    .text:0000000000000278 .L0 
     /tmp/ccccUFD7.s:439    .text:000000000000027c .L0 
     /tmp/ccccUFD7.s:441    .text:0000000000000280 .L0 
     /tmp/ccccUFD7.s:442    .text:0000000000000280 .L0 
     /tmp/ccccUFD7.s:444    .text:0000000000000284 .L0 
     /tmp/ccccUFD7.s:446    .text:0000000000000288 .L0 
     /tmp/ccccUFD7.s:452    .text:0000000000000288 _ZN3TCB13releaseJoinedEv
     /tmp/ccccUFD7.s:455    .text:0000000000000288 .L0 
     /tmp/ccccUFD7.s:456    .text:0000000000000288 .L0 
     /tmp/ccccUFD7.s:457    .text:0000000000000288 .L0 
     /tmp/ccccUFD7.s:458    .text:0000000000000288 .L0 
     /tmp/ccccUFD7.s:459    .text:0000000000000288 .L0 
     /tmp/ccccUFD7.s:464    .text:0000000000000290 .L0 
     /tmp/ccccUFD7.s:465    .text:0000000000000290 .L0 
     /tmp/ccccUFD7.s:470    .text:0000000000000294 .L0 
     /tmp/ccccUFD7.s:471    .text:0000000000000294 .L0 
     /tmp/ccccUFD7.s:473    .text:0000000000000298 .L0 
     /tmp/ccccUFD7.s:474    .text:000000000000029c .L0 
     /tmp/ccccUFD7.s:477    .text:00000000000002a4 .L0 
     /tmp/ccccUFD7.s:478    .text:00000000000002a4 .L0 
     /tmp/ccccUFD7.s:480    .text:00000000000002a8 .L0 
     /tmp/ccccUFD7.s:484    .text:00000000000002a8 .L0 
     /tmp/ccccUFD7.s:485    .text:00000000000002a8 .L0 
     /tmp/ccccUFD7.s:489    .text:00000000000002b4 .L0 
     /tmp/ccccUFD7.s:490    .text:00000000000002b4 .L0 
     /tmp/ccccUFD7.s:492    .text:00000000000002b8 .L0 
     /tmp/ccccUFD7.s:493    .text:00000000000002b8 .L0 
     /tmp/ccccUFD7.s:497    .text:00000000000002c0 .L0 
     /tmp/ccccUFD7.s:498    .text:00000000000002c0 .L0 
     /tmp/ccccUFD7.s:499    .text:00000000000002c0 .L0 
     /tmp/ccccUFD7.s:504    .text:00000000000002c8 .L0 
     /tmp/ccccUFD7.s:505    .text:00000000000002c8 .L0 
     /tmp/ccccUFD7.s:510    .text:00000000000002cc .L0 
     /tmp/ccccUFD7.s:511    .text:00000000000002cc .L0 
     /tmp/ccccUFD7.s:513    .text:00000000000002d0 .L0 
     /tmp/ccccUFD7.s:514    .text:00000000000002d4 .L0 
     /tmp/ccccUFD7.s:516    .text:00000000000002d8 .L0 
     /tmp/ccccUFD7.s:517    .text:00000000000002d8 .L0 
     /tmp/ccccUFD7.s:519    .text:00000000000002dc .L0 
     /tmp/ccccUFD7.s:523    .text:00000000000002e4 .L0 
     /tmp/ccccUFD7.s:529    .text:00000000000002e4 _ZN3TCB5startEPS_
     /tmp/ccccUFD7.s:532    .text:00000000000002e4 .L0 
     /tmp/ccccUFD7.s:534    .text:00000000000002e4 .L0 
     /tmp/ccccUFD7.s:535    .text:00000000000002e4 .L0 
     /tmp/ccccUFD7.s:536    .text:00000000000002e4 .L0 
     /tmp/ccccUFD7.s:538    .text:00000000000002e8 .L0 
     /tmp/ccccUFD7.s:540    .text:00000000000002ec .L0 
     /tmp/ccccUFD7.s:541    .text:00000000000002f0 .L0 
     /tmp/ccccUFD7.s:544    .text:00000000000002f8 .L0 
     /tmp/ccccUFD7.s:545    .text:00000000000002f8 .L0 
     /tmp/ccccUFD7.s:547    .text:00000000000002fc .L0 
     /tmp/ccccUFD7.s:549    .text:00000000000002fc .L0 
     /tmp/ccccUFD7.s:550    .text:00000000000002fc .L0 
     /tmp/ccccUFD7.s:553    .text:0000000000000304 .L0 
     /tmp/ccccUFD7.s:554    .text:0000000000000308 .L0 
     /tmp/ccccUFD7.s:556    .text:000000000000030c .L0 
GAS LISTING /tmp/ccccUFD7.s 			page 23


     /tmp/ccccUFD7.s:557    .text:000000000000030c .L0 
     /tmp/ccccUFD7.s:559    .text:0000000000000310 .L0 
     /tmp/ccccUFD7.s:564    .text:0000000000000318 .L0 
     /tmp/ccccUFD7.s:578    .bss:0000000000000008 _ZN3TCB16runningTimeSliceE
     /tmp/ccccUFD7.s:574    .bss:0000000000000000 _ZN3TCB7runningE
     /tmp/ccccUFD7.s:571    .bss:0000000000000000 .LANCHOR0
     /tmp/ccccUFD7.s:585    .text:0000000000000318 .L0 
     /tmp/ccccUFD7.s:28     .text:0000000000000018 .L0 
     /tmp/ccccUFD7.s:69     .text:0000000000000058 .L0 
     /tmp/ccccUFD7.s:95     .text:000000000000008c .L0 
     /tmp/ccccUFD7.s:106    .text:00000000000000a4 .L0 
     /tmp/ccccUFD7.s:109    .text:00000000000000b0 .L0 
     /tmp/ccccUFD7.s:307    .text:00000000000001d0 .L0 
     /tmp/ccccUFD7.s:427    .text:000000000000025c .L0 
     /tmp/ccccUFD7.s:459    .text:0000000000000288 .L0 
     /tmp/ccccUFD7.s:499    .text:00000000000002c0 .L0 
     /tmp/ccccUFD7.s:88     .text:0000000000000080 .L4
     /tmp/ccccUFD7.s:127    .text:00000000000000c8 .L10
     /tmp/ccccUFD7.s:136    .text:00000000000000d8 .L5
     /tmp/ccccUFD7.s:150    .text:00000000000000e0 .L7
     /tmp/ccccUFD7.s:160    .text:00000000000000f0 .L3
     /tmp/ccccUFD7.s:349    .text:0000000000000208 .L18
     /tmp/ccccUFD7.s:358    .text:0000000000000210 .L19
     /tmp/ccccUFD7.s:308    .text:00000000000001d8 .L16
     /tmp/ccccUFD7.s:317    .text:00000000000001e4 .L17
     /tmp/ccccUFD7.s:415    .text:000000000000024c .L29
     /tmp/ccccUFD7.s:521    .text:00000000000002e0 .L38
     /tmp/ccccUFD7.s:481    .text:00000000000002a8 .L34
     /tmp/ccccUFD7.s:562    .text:0000000000000314 .L42
     /tmp/ccccUFD7.s:2101   .debug_abbrev:0000000000000000 .Ldebug_abbrev0
     /tmp/ccccUFD7.s:3833   .debug_str:00000000000007c4 .LASF159
     /tmp/ccccUFD7.s:3637   .debug_str:0000000000000225 .LASF160
     /tmp/ccccUFD7.s:3791   .debug_str:0000000000000681 .LASF161
     /tmp/ccccUFD7.s:5      .text:0000000000000000 .Ltext0
     /tmp/ccccUFD7.s:581    .text:0000000000000318 .Letext0
     /tmp/ccccUFD7.s:3569   .debug_line:0000000000000000 .Ldebug_line0
     /tmp/ccccUFD7.s:3685   .debug_str:00000000000003c1 .LASF0
     /tmp/ccccUFD7.s:3707   .debug_str:0000000000000447 .LASF1
     /tmp/ccccUFD7.s:3771   .debug_str:00000000000005f6 .LASF2
     /tmp/ccccUFD7.s:3781   .debug_str:000000000000064c .LASF4
     /tmp/ccccUFD7.s:3691   .debug_str:00000000000003e1 .LASF3
     /tmp/ccccUFD7.s:3577   .debug_str:0000000000000045 .LASF5
     /tmp/ccccUFD7.s:3755   .debug_str:0000000000000566 .LASF6
     /tmp/ccccUFD7.s:3751   .debug_str:000000000000054b .LASF7
     /tmp/ccccUFD7.s:3695   .debug_str:0000000000000405 .LASF8
     /tmp/ccccUFD7.s:3661   .debug_str:00000000000002fe .LASF9
     /tmp/ccccUFD7.s:3667   .debug_str:0000000000000332 .LASF10
     /tmp/ccccUFD7.s:3603   .debug_str:000000000000012d .LASF11
     /tmp/ccccUFD7.s:3651   .debug_str:00000000000002b4 .LASF12
     /tmp/ccccUFD7.s:3615   .debug_str:0000000000000187 .LASF13
     /tmp/ccccUFD7.s:3601   .debug_str:000000000000011d .LASF14
     /tmp/ccccUFD7.s:3813   .debug_str:0000000000000736 .LASF15
     /tmp/ccccUFD7.s:3817   .debug_str:0000000000000756 .LASF16
     /tmp/ccccUFD7.s:3801   .debug_str:00000000000006e2 .LASF17
     /tmp/ccccUFD7.s:3717   .debug_str:000000000000047a .LASF18
     /tmp/ccccUFD7.s:3821   .debug_str:0000000000000781 .LASF64
     /tmp/ccccUFD7.s:3811   .debug_str:0000000000000729 .LASF19
GAS LISTING /tmp/ccccUFD7.s 			page 24


     /tmp/ccccUFD7.s:3877   .debug_str:000000000000099d .LASF21
     /tmp/ccccUFD7.s:3745   .debug_str:0000000000000531 .LASF162
     /tmp/ccccUFD7.s:3891   .debug_str:0000000000000a19 .LASF33
     /tmp/ccccUFD7.s:3693   .debug_str:00000000000003f3 .LASF35
     /tmp/ccccUFD7.s:3823   .debug_str:0000000000000789 .LASF23
     /tmp/ccccUFD7.s:3855   .debug_str:000000000000091a .LASF25
     /tmp/ccccUFD7.s:3591   .debug_str:00000000000000cc .LASF20
     /tmp/ccccUFD7.s:3849   .debug_str:00000000000008f2 .LASF22
     /tmp/ccccUFD7.s:3773   .debug_str:0000000000000604 .LASF24
     /tmp/ccccUFD7.s:3815   .debug_str:0000000000000742 .LASF26
     /tmp/ccccUFD7.s:3827   .debug_str:00000000000007a1 .LASF27
     /tmp/ccccUFD7.s:3647   .debug_str:0000000000000285 .LASF28
     /tmp/ccccUFD7.s:3713   .debug_str:0000000000000468 .LASF29
     /tmp/ccccUFD7.s:3761   .debug_str:000000000000059b .LASF30
     /tmp/ccccUFD7.s:3631   .debug_str:0000000000000207 .LASF31
     /tmp/ccccUFD7.s:3777   .debug_str:0000000000000626 .LASF32
     /tmp/ccccUFD7.s:3851   .debug_str:0000000000000909 .LASF34
     /tmp/ccccUFD7.s:3653   .debug_str:00000000000002c3 .LASF36
     /tmp/ccccUFD7.s:3867   .debug_str:0000000000000954 .LASF37
     /tmp/ccccUFD7.s:3649   .debug_str:000000000000029b .LASF39
     /tmp/ccccUFD7.s:3711   .debug_str:0000000000000462 .LASF38
     /tmp/ccccUFD7.s:3835   .debug_str:0000000000000888 .LASF40
     /tmp/ccccUFD7.s:3633   .debug_str:0000000000000214 .LASF41
     /tmp/ccccUFD7.s:3611   .debug_str:000000000000015e .LASF42
     /tmp/ccccUFD7.s:3859   .debug_str:0000000000000935 .LASF43
     /tmp/ccccUFD7.s:3583   .debug_str:0000000000000073 .LASF44
     /tmp/ccccUFD7.s:3829   .debug_str:00000000000007ac .LASF45
     /tmp/ccccUFD7.s:3597   .debug_str:00000000000000fd .LASF46
     /tmp/ccccUFD7.s:3901   .debug_str:0000000000000a5e .LASF47
     /tmp/ccccUFD7.s:3665   .debug_str:0000000000000326 .LASF48
     /tmp/ccccUFD7.s:3573   .debug_str:000000000000000d .LASF49
     /tmp/ccccUFD7.s:3739   .debug_str:0000000000000507 .LASF50
     /tmp/ccccUFD7.s:3845   .debug_str:00000000000008d5 .LASF51
     /tmp/ccccUFD7.s:3599   .debug_str:000000000000010e .LASF52
     /tmp/ccccUFD7.s:3897   .debug_str:0000000000000a40 .LASF53
     /tmp/ccccUFD7.s:3857   .debug_str:0000000000000930 .LASF54
     /tmp/ccccUFD7.s:3837   .debug_str:0000000000000898 .LASF55
     /tmp/ccccUFD7.s:3799   .debug_str:00000000000006d9 .LASF56
     /tmp/ccccUFD7.s:3741   .debug_str:0000000000000514 .LASF57
     /tmp/ccccUFD7.s:3675   .debug_str:000000000000036b .LASF58
     /tmp/ccccUFD7.s:3831   .debug_str:00000000000007b4 .LASF59
     /tmp/ccccUFD7.s:3749   .debug_str:000000000000053f .LASF60
     /tmp/ccccUFD7.s:3571   .debug_str:0000000000000000 .LASF61
     /tmp/ccccUFD7.s:3779   .debug_str:000000000000063e .LASF62
     /tmp/ccccUFD7.s:3889   .debug_str:0000000000000a03 .LASF132
     /tmp/ccccUFD7.s:3621   .debug_str:00000000000001c4 .LASF70
     /tmp/ccccUFD7.s:3575   .debug_str:000000000000001d .LASF71
     /tmp/ccccUFD7.s:3737   .debug_str:00000000000004fb .LASF63
     /tmp/ccccUFD7.s:3629   .debug_str:0000000000000202 .LASF65
     /tmp/ccccUFD7.s:3701   .debug_str:0000000000000438 .LASF66
     /tmp/ccccUFD7.s:3605   .debug_str:000000000000013c .LASF67
     /tmp/ccccUFD7.s:3639   .debug_str:0000000000000231 .LASF68
     /tmp/ccccUFD7.s:3623   .debug_str:00000000000001d2 .LASF69
     /tmp/ccccUFD7.s:3757   .debug_str:000000000000056d .LASF72
     /tmp/ccccUFD7.s:3853   .debug_str:0000000000000914 .LASF73
     /tmp/ccccUFD7.s:3703   .debug_str:000000000000043d .LASF74
     /tmp/ccccUFD7.s:3585   .debug_str:0000000000000085 .LASF75
GAS LISTING /tmp/ccccUFD7.s 			page 25


     /tmp/ccccUFD7.s:3663   .debug_str:000000000000030e .LASF76
     /tmp/ccccUFD7.s:3625   .debug_str:00000000000001ec .LASF163
     /tmp/ccccUFD7.s:3843   .debug_str:00000000000008bd .LASF164
     /tmp/ccccUFD7.s:3825   .debug_str:0000000000000794 .LASF77
     /tmp/ccccUFD7.s:3875   .debug_str:0000000000000988 .LASF78
     /tmp/ccccUFD7.s:3635   .debug_str:000000000000021d .LASF79
     /tmp/ccccUFD7.s:3581   .debug_str:0000000000000057 .LASF80
     /tmp/ccccUFD7.s:3709   .debug_str:000000000000045a .LASF81
     /tmp/ccccUFD7.s:3727   .debug_str:00000000000004c1 .LASF82
     /tmp/ccccUFD7.s:3593   .debug_str:00000000000000d8 .LASF83
     /tmp/ccccUFD7.s:3595   .debug_str:00000000000000e1 .LASF84
     /tmp/ccccUFD7.s:3617   .debug_str:0000000000000197 .LASF85
     /tmp/ccccUFD7.s:3869   .debug_str:0000000000000962 .LASF125
     /tmp/ccccUFD7.s:3871   .debug_str:0000000000000978 .LASF86
     /tmp/ccccUFD7.s:3641   .debug_str:000000000000024f .LASF165
     /tmp/ccccUFD7.s:3643   .debug_str:000000000000025e .LASF87
     /tmp/ccccUFD7.s:3699   .debug_str:000000000000042b .LASF88
     /tmp/ccccUFD7.s:3627   .debug_str:00000000000001f6 .LASF89
     /tmp/ccccUFD7.s:3673   .debug_str:0000000000000360 .LASF90
     /tmp/ccccUFD7.s:3683   .debug_str:00000000000003a9 .LASF91
     /tmp/ccccUFD7.s:3789   .debug_str:0000000000000673 .LASF92
     /tmp/ccccUFD7.s:3795   .debug_str:00000000000006a9 .LASF93
     /tmp/ccccUFD7.s:3687   .debug_str:00000000000003ce .LASF94
     /tmp/ccccUFD7.s:3879   .debug_str:00000000000009bf .LASF95
     /tmp/ccccUFD7.s:3885   .debug_str:00000000000009e8 .LASF98
     /tmp/ccccUFD7.s:3847   .debug_str:00000000000008dd .LASF100
     /tmp/ccccUFD7.s:3767   .debug_str:00000000000005e2 .LASF96
     /tmp/ccccUFD7.s:3743   .debug_str:000000000000051c .LASF97
     /tmp/ccccUFD7.s:3861   .debug_str:000000000000093d .LASF99
     /tmp/ccccUFD7.s:3759   .debug_str:0000000000000588 .LASF101
     /tmp/ccccUFD7.s:3735   .debug_str:00000000000004f4 .LASF102
     /tmp/ccccUFD7.s:3697   .debug_str:0000000000000418 .LASF103
     /tmp/ccccUFD7.s:3881   .debug_str:00000000000009d9 .LASF104
     /tmp/ccccUFD7.s:3809   .debug_str:0000000000000715 .LASF105
     /tmp/ccccUFD7.s:3729   .debug_str:00000000000004e0 .LASF106
     /tmp/ccccUFD7.s:3655   .debug_str:00000000000002db .LASF107
     /tmp/ccccUFD7.s:3807   .debug_str:000000000000070e .LASF108
     /tmp/ccccUFD7.s:3785   .debug_str:0000000000000659 .LASF109
     /tmp/ccccUFD7.s:3787   .debug_str:000000000000066c .LASF110
     /tmp/ccccUFD7.s:3609   .debug_str:000000000000014b .LASF111
     /tmp/ccccUFD7.s:3783   .debug_str:0000000000000653 .LASF112
     /tmp/ccccUFD7.s:3679   .debug_str:000000000000038e .LASF113
     /tmp/ccccUFD7.s:3689   .debug_str:00000000000003db .LASF114
     /tmp/ccccUFD7.s:3671   .debug_str:000000000000034e .LASF115
     /tmp/ccccUFD7.s:3579   .debug_str:000000000000004c .LASF116
     /tmp/ccccUFD7.s:3775   .debug_str:000000000000060e .LASF117
     /tmp/ccccUFD7.s:3769   .debug_str:00000000000005eb .LASF118
     /tmp/ccccUFD7.s:3899   .debug_str:0000000000000a46 .LASF119
     /tmp/ccccUFD7.s:3873   .debug_str:000000000000097e .LASF120
     /tmp/ccccUFD7.s:3613   .debug_str:0000000000000171 .LASF121
     /tmp/ccccUFD7.s:3607   .debug_str:0000000000000141 .LASF122
     /tmp/ccccUFD7.s:3723   .debug_str:00000000000004a1 .LASF123
     /tmp/ccccUFD7.s:3841   .debug_str:00000000000008b2 .LASF124
     /tmp/ccccUFD7.s:3619   .debug_str:00000000000001ac .LASF126
     /tmp/ccccUFD7.s:3659   .debug_str:00000000000002f4 .LASF127
     /tmp/ccccUFD7.s:3805   .debug_str:0000000000000709 .LASF128
     /tmp/ccccUFD7.s:3731   .debug_str:00000000000004e8 .LASF129
GAS LISTING /tmp/ccccUFD7.s 			page 26


     /tmp/ccccUFD7.s:3895   .debug_str:0000000000000a33 .LASF130
     /tmp/ccccUFD7.s:3887   .debug_str:00000000000009f1 .LASF131
     /tmp/ccccUFD7.s:3677   .debug_str:0000000000000376 .LASF133
     /tmp/ccccUFD7.s:3893   .debug_str:0000000000000a1f .LASF166
     /tmp/ccccUFD7.s:3839   .debug_str:00000000000008a2 .LASF134
     /tmp/ccccUFD7.s:3763   .debug_str:00000000000005b3 .LASF135
     /tmp/ccccUFD7.s:3865   .debug_str:0000000000000949 .LASF136
     /tmp/ccccUFD7.s:3587   .debug_str:000000000000009a .LASF137
     /tmp/ccccUFD7.s:3715   .debug_str:0000000000000475 .LASF138
     /tmp/ccccUFD7.s:3819   .debug_str:000000000000076c .LASF139
     /tmp/ccccUFD7.s:3589   .debug_str:00000000000000bb .LASF140
     /tmp/ccccUFD7.s:3645   .debug_str:000000000000026a .LASF141
     /tmp/ccccUFD7.s:530    .text:00000000000002e4 .LFB53
     /tmp/ccccUFD7.s:565    .text:0000000000000318 .LFE53
     /tmp/ccccUFD7.s:3733   .debug_str:00000000000004ed .LASF142
     /tmp/ccccUFD7.s:3265   .debug_loc:0000000000000000 .LLST19
     /tmp/ccccUFD7.s:551    .text:0000000000000304 .LVL43
     /tmp/ccccUFD7.s:453    .text:0000000000000288 .LFB52
     /tmp/ccccUFD7.s:524    .text:00000000000002e4 .LFE52
     /tmp/ccccUFD7.s:482    .text:00000000000002a8 .LBB36
     /tmp/ccccUFD7.s:495    .text:00000000000002c0 .LBE36
     /tmp/ccccUFD7.s:3283   .debug_loc:000000000000004c .LLST18
     /tmp/ccccUFD7.s:487    .text:00000000000002b4 .LVL38
     /tmp/ccccUFD7.s:494    .text:00000000000002c0 .LVL39
     /tmp/ccccUFD7.s:461    .text:0000000000000290 .LBB33
     /tmp/ccccUFD7.s:3549   .debug_ranges:0000000000000000 .Ldebug_ranges0
     /tmp/ccccUFD7.s:3290   .debug_loc:000000000000006f .LLST17
     /tmp/ccccUFD7.s:405    .text:0000000000000240 .LFB51
     /tmp/ccccUFD7.s:447    .text:0000000000000288 .LFE51
     /tmp/ccccUFD7.s:3883   .debug_str:00000000000009e1 .LASF143
     /tmp/ccccUFD7.s:3305   .debug_loc:00000000000000ab .LLST16
     /tmp/ccccUFD7.s:436    .text:0000000000000278 .LVL35
     /tmp/ccccUFD7.s:373    .text:0000000000000218 .LFB50
     /tmp/ccccUFD7.s:399    .text:0000000000000240 .LFE50
     /tmp/ccccUFD7.s:3325   .debug_loc:00000000000000fa .LLST15
     /tmp/ccccUFD7.s:388    .text:0000000000000230 .LVL32
     /tmp/ccccUFD7.s:219    .text:000000000000013c .LFB49
     /tmp/ccccUFD7.s:245    .text:0000000000000164 .LFE49
     /tmp/ccccUFD7.s:3705   .debug_str:0000000000000442 .LASF144
     /tmp/ccccUFD7.s:3339   .debug_loc:0000000000000133 .LLST3
     /tmp/ccccUFD7.s:234    .text:0000000000000154 .LVL16
     /tmp/ccccUFD7.s:10     .text:0000000000000000 .LFB48
     /tmp/ccccUFD7.s:48     .text:0000000000000044 .LFE48
     /tmp/ccccUFD7.s:25     .text:0000000000000018 .LVL0
     /tmp/ccccUFD7.s:37     .text:0000000000000034 .LVL2
     /tmp/ccccUFD7.s:180    .text:0000000000000104 .LFB47
     /tmp/ccccUFD7.s:213    .text:000000000000013c .LFE47
     /tmp/ccccUFD7.s:194    .text:000000000000011c .LVL12
     /tmp/ccccUFD7.s:198    .text:0000000000000124 .LVL13
     /tmp/ccccUFD7.s:202    .text:000000000000012c .LVL14
     /tmp/ccccUFD7.s:54     .text:0000000000000044 .LFB46
     /tmp/ccccUFD7.s:174    .text:0000000000000104 .LFE46
     /tmp/ccccUFD7.s:3353   .debug_loc:000000000000016c .LLST0
     /tmp/ccccUFD7.s:113    .text:00000000000000bc .LBB21
     /tmp/ccccUFD7.s:129    .text:00000000000000c8 .LBE21
     /tmp/ccccUFD7.s:3360   .debug_loc:000000000000018f .LLST1
     /tmp/ccccUFD7.s:139    .text:00000000000000d8 .LBB23
GAS LISTING /tmp/ccccUFD7.s 			page 27


     /tmp/ccccUFD7.s:152    .text:00000000000000e0 .LBE23
     /tmp/ccccUFD7.s:3369   .debug_loc:00000000000001b5 .LLST2
     /tmp/ccccUFD7.s:92     .text:0000000000000088 .LVL4
     /tmp/ccccUFD7.s:134    .text:00000000000000d4 .LVL7
     /tmp/ccccUFD7.s:159    .text:00000000000000f0 .LVL10
     /tmp/ccccUFD7.s:251    .text:0000000000000164 .LFB45
     /tmp/ccccUFD7.s:367    .text:0000000000000218 .LFE45
     /tmp/ccccUFD7.s:3747   .debug_str:0000000000000536 .LASF145
     /tmp/ccccUFD7.s:3378   .debug_loc:00000000000001db .LLST4
     /tmp/ccccUFD7.s:3398   .debug_loc:0000000000000238 .LLST5
     /tmp/ccccUFD7.s:3418   .debug_loc:0000000000000295 .LLST6
     /tmp/ccccUFD7.s:3793   .debug_str:000000000000069f .LASF146
     /tmp/ccccUFD7.s:3443   .debug_loc:0000000000000306 .LLST7
     /tmp/ccccUFD7.s:278    .text:0000000000000198 .LBB25
     /tmp/ccccUFD7.s:3450   .debug_loc:0000000000000329 .LLST8
     /tmp/ccccUFD7.s:3471   .debug_loc:0000000000000387 .LLST9
     /tmp/ccccUFD7.s:3482   .debug_loc:00000000000003bd .LLST10
     /tmp/ccccUFD7.s:3493   .debug_loc:00000000000003f3 .LLST11
     /tmp/ccccUFD7.s:294    .text:00000000000001c4 .LBB27
     /tmp/ccccUFD7.s:302    .text:00000000000001cc .LBE27
     /tmp/ccccUFD7.s:3504   .debug_loc:0000000000000429 .LLST12
     /tmp/ccccUFD7.s:3513   .debug_loc:000000000000044f .LLST13
     /tmp/ccccUFD7.s:3524   .debug_loc:0000000000000485 .LLST14
     /tmp/ccccUFD7.s:277    .text:0000000000000198 .LVL19
     /tmp/ccccUFD7.s:3863   .debug_str:0000000000000944 .LASF147
     /tmp/ccccUFD7.s:3657   .debug_str:00000000000002ef .LASF150
     /tmp/ccccUFD7.s:3753   .debug_str:000000000000055e .LASF148
     /tmp/ccccUFD7.s:3903   .debug_str:0000000000000a6b .LASF149
     /tmp/ccccUFD7.s:3721   .debug_str:000000000000048b .LASF151
     /tmp/ccccUFD7.s:3797   .debug_str:00000000000006c4 .LASF152
     /tmp/ccccUFD7.s:3765   .debug_str:00000000000005d4 .LASF153
     /tmp/ccccUFD7.s:3681   .debug_str:00000000000003a0 .LASF155
     /tmp/ccccUFD7.s:3669   .debug_str:0000000000000340 .LASF154
     /tmp/ccccUFD7.s:3725   .debug_str:00000000000004b7 .LASF156
     /tmp/ccccUFD7.s:3803   .debug_str:00000000000006f8 .LASF157
     /tmp/ccccUFD7.s:3719   .debug_str:000000000000047f .LASF158
     /tmp/ccccUFD7.s:533    .text:00000000000002e4 .LVL42
     /tmp/ccccUFD7.s:561    .text:0000000000000314 .LVL44
     /tmp/ccccUFD7.s:460    .text:0000000000000290 .LVL36
     /tmp/ccccUFD7.s:466    .text:0000000000000294 .LVL37
     /tmp/ccccUFD7.s:500    .text:00000000000002c8 .LVL40
     /tmp/ccccUFD7.s:506    .text:00000000000002cc .LVL41
     /tmp/ccccUFD7.s:408    .text:0000000000000240 .LVL33
     /tmp/ccccUFD7.s:434    .text:0000000000000270 .LVL34
     /tmp/ccccUFD7.s:376    .text:0000000000000218 .LVL31
     /tmp/ccccUFD7.s:222    .text:000000000000013c .LVL15
     /tmp/ccccUFD7.s:70     .text:0000000000000060 .LVL3
     /tmp/ccccUFD7.s:169    .text:00000000000000fc .LVL11
     /tmp/ccccUFD7.s:112    .text:00000000000000bc .LVL5
     /tmp/ccccUFD7.s:126    .text:00000000000000c8 .LVL6
     /tmp/ccccUFD7.s:138    .text:00000000000000d8 .LVL8
     /tmp/ccccUFD7.s:148    .text:00000000000000e0 .LVL9
     /tmp/ccccUFD7.s:254    .text:0000000000000164 .LVL17
     /tmp/ccccUFD7.s:275    .text:0000000000000190 .LVL18
     /tmp/ccccUFD7.s:341    .text:00000000000001fc .LVL26
     /tmp/ccccUFD7.s:348    .text:0000000000000208 .LVL28
     /tmp/ccccUFD7.s:344    .text:0000000000000200 .LVL27
GAS LISTING /tmp/ccccUFD7.s 			page 28


     /tmp/ccccUFD7.s:316    .text:00000000000001e4 .LVL23
     /tmp/ccccUFD7.s:361    .text:0000000000000214 .LVL30
     /tmp/ccccUFD7.s:324    .text:00000000000001ec .LVL24
     /tmp/ccccUFD7.s:293    .text:00000000000001c4 .LVL20
     /tmp/ccccUFD7.s:300    .text:00000000000001cc .LVL21
     /tmp/ccccUFD7.s:309    .text:00000000000001d8 .LVL22
     /tmp/ccccUFD7.s:357    .text:0000000000000210 .LVL29
     /tmp/ccccUFD7.s:338    .text:00000000000001f8 .LVL25
     /tmp/ccccUFD7.s:586    .debug_info:0000000000000000 .Ldebug_info0
     /tmp/ccccUFD7.s:327    .text:00000000000001ec .LBE25
     /tmp/ccccUFD7.s:351    .text:0000000000000208 .LBB32
     /tmp/ccccUFD7.s:365    .text:0000000000000218 .LBE32
     /tmp/ccccUFD7.s:303    .text:00000000000001cc .LBB29
     /tmp/ccccUFD7.s:325    .text:00000000000001ec .LBE29
     /tmp/ccccUFD7.s:353    .text:0000000000000208 .LBB30
     /tmp/ccccUFD7.s:363    .text:0000000000000218 .LBE30
     /tmp/ccccUFD7.s:469    .text:0000000000000294 .LBE33
     /tmp/ccccUFD7.s:501    .text:00000000000002c8 .LBB37
     /tmp/ccccUFD7.s:509    .text:00000000000002cc .LBE37

UNDEFINED SYMBOLS
_ZN5Riscv10popSppSpieEv
_Z11thread_exitv
_ZN9Scheduler3getEv
_Z22kernelConsumerFunctionPv
_Z4idlePv
_ZN9Scheduler3putEP3TCB
_ZN3TCB13contextSwitchEPNS_7ContextES1_
_ZN5Riscv13pushRegistersEv
_ZN5Riscv12popRegistersEv
_Z9mem_allocm
_Z8mem_freePv
_ZN11ThreadQueue7putLastEP3TCB
_ZN11ThreadQueue8getFirstEv
