GAS LISTING /tmp/cccX030T.s 			page 1


   1              		.file	"TCB.cpp"
   2              		.option pic
   3              		.option norelax
   4              		.text
   5              	.Ltext0:
   6              		.align	2
   7              		.globl	_ZN3TCB12createThreadEPFvPvES0_Pm
   9              	_ZN3TCB12createThreadEPFvPvES0_Pm:
  10              	.LFB43:
  11              		.file 1 "src/TCB.cpp"
   1:src/TCB.cpp   **** //
   2:src/TCB.cpp   **** // Created by os on 5/23/23.
   3:src/TCB.cpp   **** //
   4:src/TCB.cpp   **** 
   5:src/TCB.cpp   **** #include "../h/TCB.hpp"
   6:src/TCB.cpp   **** #include "../h/Riscv.hpp"
   7:src/TCB.cpp   **** 
   8:src/TCB.cpp   **** TCB* TCB::running = nullptr;
   9:src/TCB.cpp   **** uint64 TCB::runningTimeSlice = 0;
  10:src/TCB.cpp   **** 
  11:src/TCB.cpp   **** TCB* TCB::createThread(TCB::Body function, void* args, uint64* stack) {
  12              		.loc 1 11 71
  13              		.cfi_startproc
  14              	.LVL0:
  15 0000 130101FD 		addi	sp,sp,-48
  16              		.cfi_def_cfa_offset 48
  17 0004 23341102 		sd	ra,40(sp)
  18 0008 23308102 		sd	s0,32(sp)
  19 000c 233C9100 		sd	s1,24(sp)
  20 0010 23382101 		sd	s2,16(sp)
  21 0014 23343101 		sd	s3,8(sp)
  22 0018 23304101 		sd	s4,0(sp)
  23              		.cfi_offset 1, -8
  24              		.cfi_offset 8, -16
  25              		.cfi_offset 9, -24
  26              		.cfi_offset 18, -32
  27              		.cfi_offset 19, -40
  28              		.cfi_offset 20, -48
  29 001c 13040103 		addi	s0,sp,48
  30              		.cfi_def_cfa 8, 0
  31 0020 93090500 		mv	s3,a0
  32 0024 138A0500 		mv	s4,a1
  33 0028 13090600 		mv	s2,a2
  12:src/TCB.cpp   **** 	TCB* newThread = new TCB(function, args, stack);
  34              		.loc 1 12 2
  35              		.loc 1 12 48 is_stmt 0
  36 002c 13058003 		li	a0,56
  37              	.LVL1:
  38 0030 97000000 		call	_Znwm@plt
  38      E7800000 
  39              	.LVL2:
  40 0038 93040500 		mv	s1,a0
  41              	.LVL3:
  42              	.LBB10:
  43              	.LBB11:
  44              		.file 2 "src/../h/TCB.hpp"
   1:src/../h/TCB.hpp **** //
GAS LISTING /tmp/cccX030T.s 			page 2


   2:src/../h/TCB.hpp **** // Created by os on 5/23/23.
   3:src/../h/TCB.hpp **** //
   4:src/../h/TCB.hpp **** 
   5:src/../h/TCB.hpp **** #ifndef PROJEKAT2023_TCB_HPP
   6:src/../h/TCB.hpp **** #define PROJEKAT2023_TCB_HPP
   7:src/../h/TCB.hpp **** 
   8:src/../h/TCB.hpp **** #include "../lib/hw.h"
   9:src/../h/TCB.hpp **** #include "../h/Scheduler.hpp"
  10:src/../h/TCB.hpp **** 
  11:src/../h/TCB.hpp **** class TCB {
  12:src/../h/TCB.hpp **** public:
  13:src/../h/TCB.hpp **** 	using Body = void (*)(void*);
  14:src/../h/TCB.hpp **** 
  15:src/../h/TCB.hpp **** 	static TCB* createThread(Body function, void* args, uint64* stack);
  16:src/../h/TCB.hpp **** 
  17:src/../h/TCB.hpp **** 	bool isFinished() { return finished; }
  18:src/../h/TCB.hpp **** 
  19:src/../h/TCB.hpp **** 	void setFinished(bool finish) { this->finished = finish; }
  20:src/../h/TCB.hpp **** 
  21:src/../h/TCB.hpp **** 	bool isBlocked() { return blocked; }
  22:src/../h/TCB.hpp **** 
  23:src/../h/TCB.hpp **** 	void setBlocked(bool block) { this->blocked = block; }
  24:src/../h/TCB.hpp **** 
  25:src/../h/TCB.hpp **** 	uint64 getTimeSlice() { return timeSlice; }
  26:src/../h/TCB.hpp **** 
  27:src/../h/TCB.hpp **** 	void setTimeSlice(uint64 value) { timeSlice = value; }
  28:src/../h/TCB.hpp **** 
  29:src/../h/TCB.hpp **** 	static void threadSleep(time_t sleepTime);
  30:src/../h/TCB.hpp **** 
  31:src/../h/TCB.hpp **** 	static void threadJoin(TCB* handle);
  32:src/../h/TCB.hpp **** 
  33:src/../h/TCB.hpp **** 	static void yield();
  34:src/../h/TCB.hpp **** 
  35:src/../h/TCB.hpp **** 	static void dispatch();
  36:src/../h/TCB.hpp **** 
  37:src/../h/TCB.hpp **** 	static void wrapper();
  38:src/../h/TCB.hpp **** 
  39:src/../h/TCB.hpp **** 	static TCB* running;
  40:src/../h/TCB.hpp **** 	static uint64 runningTimeSlice;
  41:src/../h/TCB.hpp **** 
  42:src/../h/TCB.hpp **** private:
  43:src/../h/TCB.hpp **** 	//kontekst procesora za datu nit
  44:src/../h/TCB.hpp **** 	struct Context {
  45:src/../h/TCB.hpp **** 		uint64 sp;
  46:src/../h/TCB.hpp **** 		uint64 ra;
  47:src/../h/TCB.hpp **** 	} context;
  48:src/../h/TCB.hpp **** 	Body threadFunction;    //funkcija koja se izvrsava
  49:src/../h/TCB.hpp **** 	uint64* stack;            //najniza adresa steka; stek raste ka nizim adresama, pokazuje na posled
  50:src/../h/TCB.hpp **** 	void* args;                //argumenti poziva funkcije
  51:src/../h/TCB.hpp **** 	uint64 timeSlice;        //vremenski odsecak dodeljen datoj niti
  52:src/../h/TCB.hpp **** 	bool finished;            //da li je nit zavrsila izvrsavanje funkcije
  53:src/../h/TCB.hpp **** 	bool blocked;            //da li je nit blokirana
  54:src/../h/TCB.hpp **** 
  55:src/../h/TCB.hpp **** 	TCB(Body function, void* args, uint64* stack) : threadFunction(function), stack(stack), args(args)
  56:src/../h/TCB.hpp **** 													timeSlice(DEFAULT_TIME_SLICE), finished(false), blocked(false) {
  45              		.loc 2 56 75
  46 003c 23383501 		sd	s3,16(a0)
GAS LISTING /tmp/cccX030T.s 			page 3


  47 0040 233C2501 		sd	s2,24(a0)
  48 0044 23304503 		sd	s4,32(a0)
  49 0048 93072000 		li	a5,2
  50 004c 2334F502 		sd	a5,40(a0)
  51 0050 23080502 		sb	zero,48(a0)
  52 0054 A3080502 		sb	zero,49(a0)
  53              	.LBB12:
  57:src/../h/TCB.hpp **** 		//formiranje pocetnog konteksta; specijalni uslovi za main funkciju kojoj se pocetni kontekst aut
  58:src/../h/TCB.hpp **** 		uint64 startRa = threadFunction != nullptr ? (uint64)&wrapper : 0;
  54              		.loc 2 58 3 is_stmt 1
  55              		.loc 2 58 46 is_stmt 0
  56 0058 63880904 		beqz	s3,.L4
  57 005c 97070000 		lla	a5,_ZN3TCB7wrapperEv
  57      93870700 
  58              	.L2:
  59              	.LVL4:
  59:src/../h/TCB.hpp **** 		uint64 startSp = stack != nullptr ? (uint64)&stack[DEFAULT_STACK_SIZE] : 0;
  60              		.loc 2 59 3 is_stmt 1
  61              		.loc 2 59 37 is_stmt 0
  62 0064 63060904 		beqz	s2,.L5
  63              		.loc 2 59 47
  64 0068 37860000 		li	a2,32768
  65 006c 3309C900 		add	s2,s2,a2
  66              	.LVL5:
  67              	.L3:
  60:src/../h/TCB.hpp **** 		this->context.ra = startRa;
  68              		.loc 2 60 3 is_stmt 1
  69              		.loc 2 60 20 is_stmt 0
  70 0070 23B4F400 		sd	a5,8(s1)
  61:src/../h/TCB.hpp **** 		this->context.sp = startSp;
  71              		.loc 2 61 3 is_stmt 1
  72              		.loc 2 61 20 is_stmt 0
  73 0074 23B02401 		sd	s2,0(s1)
  74              	.LVL6:
  75              	.LBE12:
  76              	.LBE11:
  77              	.LBE10:
  13:src/TCB.cpp   **** 	Scheduler::put(newThread);
  78              		.loc 1 13 2 is_stmt 1
  79              		.loc 1 13 16 is_stmt 0
  80 0078 13850400 		mv	a0,s1
  81 007c 97000000 		call	_ZN9Scheduler3putEP3TCB@plt
  81      E7800000 
  82              	.LVL7:
  14:src/TCB.cpp   **** 	return newThread;
  83              		.loc 1 14 2 is_stmt 1
  15:src/TCB.cpp   **** }
  84              		.loc 1 15 1 is_stmt 0
  85 0084 13850400 		mv	a0,s1
  86 0088 83308102 		ld	ra,40(sp)
  87              		.cfi_remember_state
  88              		.cfi_restore 1
  89 008c 03340102 		ld	s0,32(sp)
  90              		.cfi_restore 8
  91              		.cfi_def_cfa 2, 48
  92 0090 83348101 		ld	s1,24(sp)
  93              		.cfi_restore 9
GAS LISTING /tmp/cccX030T.s 			page 4


  94              	.LVL8:
  95 0094 03390101 		ld	s2,16(sp)
  96              		.cfi_restore 18
  97              	.LVL9:
  98 0098 83398100 		ld	s3,8(sp)
  99              		.cfi_restore 19
 100              	.LVL10:
 101 009c 033A0100 		ld	s4,0(sp)
 102              		.cfi_restore 20
 103              	.LVL11:
 104 00a0 13010103 		addi	sp,sp,48
 105              		.cfi_def_cfa_offset 0
 106 00a4 67800000 		jr	ra
 107              	.LVL12:
 108              	.L4:
 109              		.cfi_restore_state
 110              	.LBB15:
 111              	.LBB14:
 112              	.LBB13:
  58:src/../h/TCB.hpp **** 		uint64 startSp = stack != nullptr ? (uint64)&stack[DEFAULT_STACK_SIZE] : 0;
 113              		.loc 2 58 46
 114 00a8 93070000 		li	a5,0
 115 00ac 6FF09FFB 		j	.L2
 116              	.LVL13:
 117              	.L5:
  59:src/../h/TCB.hpp **** 		this->context.ra = startRa;
 118              		.loc 2 59 37
 119 00b0 13090000 		li	s2,0
 120              	.LVL14:
 121 00b4 6FF0DFFB 		j	.L3
 122              	.LBE13:
 123              	.LBE14:
 124              	.LBE15:
 125              		.cfi_endproc
 126              	.LFE43:
 128              		.align	2
 129              		.globl	_ZN3TCB8dispatchEv
 131              	_ZN3TCB8dispatchEv:
 132              	.LFB44:
  16:src/TCB.cpp   **** 
  17:src/TCB.cpp   **** void TCB::dispatch() {
 133              		.loc 1 17 22 is_stmt 1
 134              		.cfi_startproc
 135 00b8 130101FE 		addi	sp,sp,-32
 136              		.cfi_def_cfa_offset 32
 137 00bc 233C1100 		sd	ra,24(sp)
 138 00c0 23388100 		sd	s0,16(sp)
 139 00c4 23349100 		sd	s1,8(sp)
 140              		.cfi_offset 1, -8
 141              		.cfi_offset 8, -16
 142              		.cfi_offset 9, -24
 143 00c8 13040102 		addi	s0,sp,32
 144              		.cfi_def_cfa 8, 0
  18:src/TCB.cpp   **** 	TCB* old = TCB::running;
 145              		.loc 1 18 2
 146              		.loc 1 18 7 is_stmt 0
 147 00cc 97040000 		ld	s1,.LANCHOR0
GAS LISTING /tmp/cccX030T.s 			page 5


 147      83B40400 
 148              	.LVL15:
  19:src/TCB.cpp   **** 	if (!old->isFinished() && !old->isBlocked()) {
 149              		.loc 1 19 2 is_stmt 1
 150              	.LBB16:
 151              	.LBB17:
  17:src/../h/TCB.hpp **** 
 152              		.loc 2 17 22
  17:src/../h/TCB.hpp **** 
 153              		.loc 2 17 29 is_stmt 0
 154 00d4 83C70403 		lbu	a5,48(s1)
 155              	.LVL16:
 156              	.LBE17:
 157              	.LBE16:
 158              		.loc 1 19 25
 159 00d8 63960700 		bnez	a5,.L8
 160              	.LVL17:
 161              	.LBB18:
 162              	.LBB19:
  21:src/../h/TCB.hpp **** 
 163              		.loc 2 21 21 is_stmt 1
  21:src/../h/TCB.hpp **** 
 164              		.loc 2 21 28 is_stmt 0
 165 00dc 83C71403 		lbu	a5,49(s1)
 166              	.LVL18:
 167              	.LBE19:
 168              	.LBE18:
 169              		.loc 1 19 25
 170 00e0 638C0702 		beqz	a5,.L10
 171              	.L8:
  20:src/TCB.cpp   **** 		Scheduler::put(old);
  21:src/TCB.cpp   **** 	}
  22:src/TCB.cpp   **** 	TCB::running = Scheduler::get();
 172              		.loc 1 22 2 is_stmt 1
 173              		.loc 1 22 31 is_stmt 0
 174 00e4 97000000 		call	_ZN9Scheduler3getEv@plt
 174      E7800000 
 175              	.LVL19:
 176 00ec 93050500 		mv	a1,a0
 177              		.loc 1 22 15
 178 00f0 97070000 		sd	a0,.LANCHOR0,a5
 178      23B0A700 
  23:src/TCB.cpp   **** 	TCB::contextSwitch(&old->context, &running->context);
 179              		.loc 1 23 2 is_stmt 1
 180              		.loc 1 23 20 is_stmt 0
 181 00f8 13850400 		mv	a0,s1
 182 00fc 97000000 		call	_ZN3TCB13contextSwitchEPNS_7ContextES1_@plt
 182      E7800000 
 183              	.LVL20:
  24:src/TCB.cpp   **** }
 184              		.loc 1 24 1
 185 0104 83308101 		ld	ra,24(sp)
 186              		.cfi_remember_state
 187              		.cfi_restore 1
 188 0108 03340101 		ld	s0,16(sp)
 189              		.cfi_restore 8
 190              		.cfi_def_cfa 2, 32
GAS LISTING /tmp/cccX030T.s 			page 6


 191 010c 83348100 		ld	s1,8(sp)
 192              		.cfi_restore 9
 193              	.LVL21:
 194 0110 13010102 		addi	sp,sp,32
 195              		.cfi_def_cfa_offset 0
 196 0114 67800000 		jr	ra
 197              	.LVL22:
 198              	.L10:
 199              		.cfi_restore_state
  20:src/TCB.cpp   **** 		Scheduler::put(old);
 200              		.loc 1 20 3 is_stmt 1
  20:src/TCB.cpp   **** 		Scheduler::put(old);
 201              		.loc 1 20 17 is_stmt 0
 202 0118 13850400 		mv	a0,s1
 203 011c 97000000 		call	_ZN9Scheduler3putEP3TCB@plt
 203      E7800000 
 204              	.LVL23:
 205 0124 6FF01FFC 		j	.L8
 206              		.cfi_endproc
 207              	.LFE44:
 209              		.align	2
 210              		.globl	_ZN3TCB5yieldEv
 212              	_ZN3TCB5yieldEv:
 213              	.LFB45:
  25:src/TCB.cpp   **** 
  26:src/TCB.cpp   **** void TCB::yield() {
 214              		.loc 1 26 19 is_stmt 1
 215              		.cfi_startproc
 216 0128 130101FF 		addi	sp,sp,-16
 217              		.cfi_def_cfa_offset 16
 218 012c 23341100 		sd	ra,8(sp)
 219 0130 23308100 		sd	s0,0(sp)
 220              		.cfi_offset 1, -8
 221              		.cfi_offset 8, -16
 222 0134 13040101 		addi	s0,sp,16
 223              		.cfi_def_cfa 8, 0
  27:src/TCB.cpp   **** 	Riscv::pushRegisters();
 224              		.loc 1 27 2
 225              		.loc 1 27 22 is_stmt 0
 226 0138 97000000 		call	_ZN5Riscv13pushRegistersEv@plt
 226      E7800000 
 227              	.LVL24:
  28:src/TCB.cpp   **** 	TCB::dispatch();
 228              		.loc 1 28 2 is_stmt 1
 229              		.loc 1 28 15 is_stmt 0
 230 0140 97000000 		call	_ZN3TCB8dispatchEv
 230      E7800000 
 231              	.LVL25:
  29:src/TCB.cpp   **** 	Riscv::popRegisters();
 232              		.loc 1 29 2 is_stmt 1
 233              		.loc 1 29 21 is_stmt 0
 234 0148 97000000 		call	_ZN5Riscv12popRegistersEv@plt
 234      E7800000 
 235              	.LVL26:
  30:src/TCB.cpp   **** }
 236              		.loc 1 30 1
 237 0150 83308100 		ld	ra,8(sp)
GAS LISTING /tmp/cccX030T.s 			page 7


 238              		.cfi_restore 1
 239 0154 03340100 		ld	s0,0(sp)
 240              		.cfi_restore 8
 241              		.cfi_def_cfa 2, 16
 242 0158 13010101 		addi	sp,sp,16
 243              		.cfi_def_cfa_offset 0
 244 015c 67800000 		jr	ra
 245              		.cfi_endproc
 246              	.LFE45:
 248              		.align	2
 249              		.globl	_ZN3TCB7wrapperEv
 251              	_ZN3TCB7wrapperEv:
 252              	.LFB46:
  31:src/TCB.cpp   **** 
  32:src/TCB.cpp   **** void TCB::wrapper() {
 253              		.loc 1 32 21 is_stmt 1
 254              		.cfi_startproc
 255 0160 130101FE 		addi	sp,sp,-32
 256              		.cfi_def_cfa_offset 32
 257 0164 233C1100 		sd	ra,24(sp)
 258 0168 23388100 		sd	s0,16(sp)
 259 016c 23349100 		sd	s1,8(sp)
 260              		.cfi_offset 1, -8
 261              		.cfi_offset 8, -16
 262              		.cfi_offset 9, -24
 263 0170 13040102 		addi	s0,sp,32
 264              		.cfi_def_cfa 8, 0
  33:src/TCB.cpp   **** 	running->threadFunction(running->args);
 265              		.loc 1 33 2
 266              		.loc 1 33 11 is_stmt 0
 267 0174 97040000 		lla	s1,.LANCHOR0
 267      93840400 
 268 017c 83B70400 		ld	a5,0(s1)
 269 0180 03B70701 		ld	a4,16(a5)
 270              		.loc 1 33 25
 271 0184 03B50702 		ld	a0,32(a5)
 272 0188 E7000700 		jalr	a4
 273              	.LVL27:
  34:src/TCB.cpp   **** 	running->finished = true;
 274              		.loc 1 34 2 is_stmt 1
 275              		.loc 1 34 11 is_stmt 0
 276 018c 83B70400 		ld	a5,0(s1)
 277              		.loc 1 34 20
 278 0190 13071000 		li	a4,1
 279 0194 2388E702 		sb	a4,48(a5)
  35:src/TCB.cpp   **** 	TCB::yield();
 280              		.loc 1 35 2 is_stmt 1
 281              		.loc 1 35 12 is_stmt 0
 282 0198 97000000 		call	_ZN3TCB5yieldEv
 282      E7800000 
 283              	.LVL28:
  36:src/TCB.cpp   **** }
 284              		.loc 1 36 1
 285 01a0 83308101 		ld	ra,24(sp)
 286              		.cfi_restore 1
 287 01a4 03340101 		ld	s0,16(sp)
 288              		.cfi_restore 8
GAS LISTING /tmp/cccX030T.s 			page 8


 289              		.cfi_def_cfa 2, 32
 290 01a8 83348100 		ld	s1,8(sp)
 291              		.cfi_restore 9
 292 01ac 13010102 		addi	sp,sp,32
 293              		.cfi_def_cfa_offset 0
 294 01b0 67800000 		jr	ra
 295              		.cfi_endproc
 296              	.LFE46:
 298              		.globl	_ZN3TCB16runningTimeSliceE
 299              		.globl	_ZN3TCB7runningE
 300              		.bss
 301              		.align	3
 302              		.set	.LANCHOR0,. + 0
 305              	_ZN3TCB7runningE:
 306 0000 00000000 		.zero	8
 306      00000000 
 309              	_ZN3TCB16runningTimeSliceE:
 310 0008 00000000 		.zero	8
 310      00000000 
 311              		.text
 312              	.Letext0:
 313              		.file 3 "src/../h/../lib/hw.h"
 314              		.file 4 "src/../h/../h/Scheduler.hpp"
 315              		.file 5 "src/../h/Riscv.hpp"
GAS LISTING /tmp/cccX030T.s 			page 9


DEFINED SYMBOLS
                            *ABS*:0000000000000000 TCB.cpp
     /tmp/cccX030T.s:9      .text:0000000000000000 _ZN3TCB12createThreadEPFvPvES0_Pm
     /tmp/cccX030T.s:13     .text:0000000000000000 .L0 
     /tmp/cccX030T.s:15     .text:0000000000000000 .L0 
     /tmp/cccX030T.s:16     .text:0000000000000004 .L0 
     /tmp/cccX030T.s:23     .text:000000000000001c .L0 
     /tmp/cccX030T.s:24     .text:000000000000001c .L0 
     /tmp/cccX030T.s:25     .text:000000000000001c .L0 
     /tmp/cccX030T.s:26     .text:000000000000001c .L0 
     /tmp/cccX030T.s:27     .text:000000000000001c .L0 
     /tmp/cccX030T.s:28     .text:000000000000001c .L0 
     /tmp/cccX030T.s:30     .text:0000000000000020 .L0 
     /tmp/cccX030T.s:35     .text:000000000000002c .L0 
     /tmp/cccX030T.s:36     .text:000000000000002c .L0 
     /tmp/cccX030T.s:46     .text:000000000000003c .L0 
     /tmp/cccX030T.s:55     .text:0000000000000058 .L0 
     /tmp/cccX030T.s:56     .text:0000000000000058 .L0 
     /tmp/cccX030T.s:251    .text:0000000000000160 _ZN3TCB7wrapperEv
     /tmp/cccX030T.s:61     .text:0000000000000064 .L0 
     /tmp/cccX030T.s:62     .text:0000000000000064 .L0 
     /tmp/cccX030T.s:64     .text:0000000000000068 .L0 
     /tmp/cccX030T.s:69     .text:0000000000000070 .L0 
     /tmp/cccX030T.s:70     .text:0000000000000070 .L0 
     /tmp/cccX030T.s:72     .text:0000000000000074 .L0 
     /tmp/cccX030T.s:73     .text:0000000000000074 .L0 
     /tmp/cccX030T.s:79     .text:0000000000000078 .L0 
     /tmp/cccX030T.s:80     .text:0000000000000078 .L0 
     /tmp/cccX030T.s:84     .text:0000000000000084 .L0 
     /tmp/cccX030T.s:85     .text:0000000000000084 .L0 
     /tmp/cccX030T.s:87     .text:000000000000008c .L0 
     /tmp/cccX030T.s:88     .text:000000000000008c .L0 
     /tmp/cccX030T.s:90     .text:0000000000000090 .L0 
     /tmp/cccX030T.s:91     .text:0000000000000090 .L0 
     /tmp/cccX030T.s:93     .text:0000000000000094 .L0 
     /tmp/cccX030T.s:96     .text:0000000000000098 .L0 
     /tmp/cccX030T.s:99     .text:000000000000009c .L0 
     /tmp/cccX030T.s:102    .text:00000000000000a0 .L0 
     /tmp/cccX030T.s:105    .text:00000000000000a4 .L0 
     /tmp/cccX030T.s:109    .text:00000000000000a8 .L0 
     /tmp/cccX030T.s:114    .text:00000000000000a8 .L0 
     /tmp/cccX030T.s:119    .text:00000000000000b0 .L0 
     /tmp/cccX030T.s:125    .text:00000000000000b8 .L0 
     /tmp/cccX030T.s:131    .text:00000000000000b8 _ZN3TCB8dispatchEv
     /tmp/cccX030T.s:134    .text:00000000000000b8 .L0 
     /tmp/cccX030T.s:135    .text:00000000000000b8 .L0 
     /tmp/cccX030T.s:136    .text:00000000000000bc .L0 
     /tmp/cccX030T.s:140    .text:00000000000000c8 .L0 
     /tmp/cccX030T.s:141    .text:00000000000000c8 .L0 
     /tmp/cccX030T.s:142    .text:00000000000000c8 .L0 
     /tmp/cccX030T.s:144    .text:00000000000000cc .L0 
     /tmp/cccX030T.s:146    .text:00000000000000cc .L0 
     /tmp/cccX030T.s:147    .text:00000000000000cc .L0 
     /tmp/cccX030T.s:152    .text:00000000000000d4 .L0 
     /tmp/cccX030T.s:153    .text:00000000000000d4 .L0 
     /tmp/cccX030T.s:154    .text:00000000000000d4 .L0 
     /tmp/cccX030T.s:159    .text:00000000000000d8 .L0 
GAS LISTING /tmp/cccX030T.s 			page 10


     /tmp/cccX030T.s:164    .text:00000000000000dc .L0 
     /tmp/cccX030T.s:165    .text:00000000000000dc .L0 
     /tmp/cccX030T.s:170    .text:00000000000000e0 .L0 
     /tmp/cccX030T.s:173    .text:00000000000000e4 .L0 
     /tmp/cccX030T.s:174    .text:00000000000000e4 .L0 
     /tmp/cccX030T.s:178    .text:00000000000000f0 .L0 
     /tmp/cccX030T.s:180    .text:00000000000000f8 .L0 
     /tmp/cccX030T.s:181    .text:00000000000000f8 .L0 
     /tmp/cccX030T.s:185    .text:0000000000000104 .L0 
     /tmp/cccX030T.s:186    .text:0000000000000108 .L0 
     /tmp/cccX030T.s:187    .text:0000000000000108 .L0 
     /tmp/cccX030T.s:189    .text:000000000000010c .L0 
     /tmp/cccX030T.s:190    .text:000000000000010c .L0 
     /tmp/cccX030T.s:192    .text:0000000000000110 .L0 
     /tmp/cccX030T.s:195    .text:0000000000000114 .L0 
     /tmp/cccX030T.s:199    .text:0000000000000118 .L0 
     /tmp/cccX030T.s:201    .text:0000000000000118 .L0 
     /tmp/cccX030T.s:202    .text:0000000000000118 .L0 
     /tmp/cccX030T.s:206    .text:0000000000000128 .L0 
     /tmp/cccX030T.s:212    .text:0000000000000128 _ZN3TCB5yieldEv
     /tmp/cccX030T.s:215    .text:0000000000000128 .L0 
     /tmp/cccX030T.s:216    .text:0000000000000128 .L0 
     /tmp/cccX030T.s:217    .text:000000000000012c .L0 
     /tmp/cccX030T.s:220    .text:0000000000000134 .L0 
     /tmp/cccX030T.s:221    .text:0000000000000134 .L0 
     /tmp/cccX030T.s:223    .text:0000000000000138 .L0 
     /tmp/cccX030T.s:225    .text:0000000000000138 .L0 
     /tmp/cccX030T.s:226    .text:0000000000000138 .L0 
     /tmp/cccX030T.s:229    .text:0000000000000140 .L0 
     /tmp/cccX030T.s:230    .text:0000000000000140 .L0 
     /tmp/cccX030T.s:233    .text:0000000000000148 .L0 
     /tmp/cccX030T.s:234    .text:0000000000000148 .L0 
     /tmp/cccX030T.s:237    .text:0000000000000150 .L0 
     /tmp/cccX030T.s:238    .text:0000000000000154 .L0 
     /tmp/cccX030T.s:240    .text:0000000000000158 .L0 
     /tmp/cccX030T.s:241    .text:0000000000000158 .L0 
     /tmp/cccX030T.s:243    .text:000000000000015c .L0 
     /tmp/cccX030T.s:245    .text:0000000000000160 .L0 
     /tmp/cccX030T.s:254    .text:0000000000000160 .L0 
     /tmp/cccX030T.s:255    .text:0000000000000160 .L0 
     /tmp/cccX030T.s:256    .text:0000000000000164 .L0 
     /tmp/cccX030T.s:260    .text:0000000000000170 .L0 
     /tmp/cccX030T.s:261    .text:0000000000000170 .L0 
     /tmp/cccX030T.s:262    .text:0000000000000170 .L0 
     /tmp/cccX030T.s:264    .text:0000000000000174 .L0 
     /tmp/cccX030T.s:266    .text:0000000000000174 .L0 
     /tmp/cccX030T.s:267    .text:0000000000000174 .L0 
     /tmp/cccX030T.s:271    .text:0000000000000184 .L0 
     /tmp/cccX030T.s:275    .text:000000000000018c .L0 
     /tmp/cccX030T.s:276    .text:000000000000018c .L0 
     /tmp/cccX030T.s:278    .text:0000000000000190 .L0 
     /tmp/cccX030T.s:281    .text:0000000000000198 .L0 
     /tmp/cccX030T.s:282    .text:0000000000000198 .L0 
     /tmp/cccX030T.s:285    .text:00000000000001a0 .L0 
     /tmp/cccX030T.s:286    .text:00000000000001a4 .L0 
     /tmp/cccX030T.s:288    .text:00000000000001a8 .L0 
     /tmp/cccX030T.s:289    .text:00000000000001a8 .L0 
GAS LISTING /tmp/cccX030T.s 			page 11


     /tmp/cccX030T.s:291    .text:00000000000001ac .L0 
     /tmp/cccX030T.s:293    .text:00000000000001b0 .L0 
     /tmp/cccX030T.s:295    .text:00000000000001b4 .L0 
     /tmp/cccX030T.s:309    .bss:0000000000000008 _ZN3TCB16runningTimeSliceE
     /tmp/cccX030T.s:305    .bss:0000000000000000 _ZN3TCB7runningE
     /tmp/cccX030T.s:302    .bss:0000000000000000 .LANCHOR0
     /tmp/cccX030T.s:316    .text:00000000000001b4 .L0 
     /tmp/cccX030T.s:57     .text:000000000000005c .L0 
     /tmp/cccX030T.s:147    .text:00000000000000cc .L0 
     /tmp/cccX030T.s:178    .text:00000000000000f0 .L0 
     /tmp/cccX030T.s:267    .text:0000000000000174 .L0 
     /tmp/cccX030T.s:108    .text:00000000000000a8 .L4
     /tmp/cccX030T.s:117    .text:00000000000000b0 .L5
     /tmp/cccX030T.s:58     .text:0000000000000064 .L2
     /tmp/cccX030T.s:67     .text:0000000000000070 .L3
     /tmp/cccX030T.s:171    .text:00000000000000e4 .L8
     /tmp/cccX030T.s:198    .text:0000000000000118 .L10
     /tmp/cccX030T.s:1254   .debug_abbrev:0000000000000000 .Ldebug_abbrev0
     /tmp/cccX030T.s:2569   .debug_str:0000000000000555 .LASF98
     /tmp/cccX030T.s:2403   .debug_str:0000000000000082 .LASF99
     /tmp/cccX030T.s:2453   .debug_str:00000000000001f2 .LASF100
     /tmp/cccX030T.s:5      .text:0000000000000000 .Ltext0
     /tmp/cccX030T.s:312    .text:00000000000001b4 .Letext0
     /tmp/cccX030T.s:2377   .debug_line:0000000000000000 .Ldebug_line0
     /tmp/cccX030T.s:2507   .debug_str:00000000000003ab .LASF0
     /tmp/cccX030T.s:2521   .debug_str:00000000000003e3 .LASF1
     /tmp/cccX030T.s:2493   .debug_str:0000000000000354 .LASF2
     /tmp/cccX030T.s:2467   .debug_str:0000000000000297 .LASF4
     /tmp/cccX030T.s:2553   .debug_str:00000000000004dc .LASF3
     /tmp/cccX030T.s:2401   .debug_str:000000000000007b .LASF5
     /tmp/cccX030T.s:2423   .debug_str:0000000000000126 .LASF6
     /tmp/cccX030T.s:2523   .debug_str:00000000000003f6 .LASF7
     /tmp/cccX030T.s:2505   .debug_str:0000000000000398 .LASF8
     /tmp/cccX030T.s:2579   .debug_str:0000000000000653 .LASF9
     /tmp/cccX030T.s:2451   .debug_str:00000000000001e4 .LASF10
     /tmp/cccX030T.s:2537   .debug_str:0000000000000469 .LASF11
     /tmp/cccX030T.s:2571   .debug_str:0000000000000619 .LASF12
     /tmp/cccX030T.s:2481   .debug_str:00000000000002e8 .LASF13
     /tmp/cccX030T.s:2385   .debug_str:000000000000002f .LASF14
     /tmp/cccX030T.s:2409   .debug_str:00000000000000b0 .LASF15
     /tmp/cccX030T.s:2547   .debug_str:00000000000004a8 .LASF16
     /tmp/cccX030T.s:2419   .debug_str:00000000000000fc .LASF17
     /tmp/cccX030T.s:2435   .debug_str:0000000000000177 .LASF18
     /tmp/cccX030T.s:2533   .debug_str:0000000000000447 .LASF19
     /tmp/cccX030T.s:2405   .debug_str:000000000000008e .LASF53
     /tmp/cccX030T.s:2461   .debug_str:0000000000000251 .LASF101
     /tmp/cccX030T.s:2379   .debug_str:0000000000000000 .LASF102
     /tmp/cccX030T.s:2489   .debug_str:0000000000000333 .LASF89
     /tmp/cccX030T.s:2393   .debug_str:0000000000000058 .LASF103
     /tmp/cccX030T.s:2477   .debug_str:00000000000002c5 .LASF20
     /tmp/cccX030T.s:2589   .debug_str:00000000000006a9 .LASF22
     /tmp/cccX030T.s:2543   .debug_str:000000000000049c .LASF104
     /tmp/cccX030T.s:2525   .debug_str:0000000000000409 .LASF24
     /tmp/cccX030T.s:2485   .debug_str:0000000000000310 .LASF26
     /tmp/cccX030T.s:2495   .debug_str:0000000000000362 .LASF21
     /tmp/cccX030T.s:2595   .debug_str:00000000000006ec .LASF23
     /tmp/cccX030T.s:2391   .debug_str:000000000000004e .LASF25
GAS LISTING /tmp/cccX030T.s 			page 12


     /tmp/cccX030T.s:2529   .debug_str:000000000000041d .LASF27
     /tmp/cccX030T.s:2469   .debug_str:000000000000029e .LASF28
     /tmp/cccX030T.s:2575   .debug_str:0000000000000630 .LASF29
     /tmp/cccX030T.s:2487   .debug_str:0000000000000326 .LASF30
     /tmp/cccX030T.s:2535   .debug_str:0000000000000451 .LASF31
     /tmp/cccX030T.s:2577   .debug_str:0000000000000646 .LASF32
     /tmp/cccX030T.s:2581   .debug_str:0000000000000663 .LASF33
     /tmp/cccX030T.s:2559   .debug_str:0000000000000507 .LASF34
     /tmp/cccX030T.s:2459   .debug_str:000000000000023a .LASF36
     /tmp/cccX030T.s:2425   .debug_str:000000000000012d .LASF35
     /tmp/cccX030T.s:2447   .debug_str:00000000000001c6 .LASF37
     /tmp/cccX030T.s:2549   .debug_str:00000000000004be .LASF38
     /tmp/cccX030T.s:2499   .debug_str:0000000000000378 .LASF40
     /tmp/cccX030T.s:2511   .debug_str:00000000000003bf .LASF39
     /tmp/cccX030T.s:2433   .debug_str:0000000000000164 .LASF41
     /tmp/cccX030T.s:2563   .debug_str:0000000000000528 .LASF42
     /tmp/cccX030T.s:2557   .debug_str:00000000000004f5 .LASF43
     /tmp/cccX030T.s:2431   .debug_str:000000000000015c .LASF44
     /tmp/cccX030T.s:2541   .debug_str:000000000000048b .LASF45
     /tmp/cccX030T.s:2475   .debug_str:00000000000002bd .LASF46
     /tmp/cccX030T.s:2491   .debug_str:0000000000000345 .LASF47
     /tmp/cccX030T.s:2513   .debug_str:00000000000003c8 .LASF48
     /tmp/cccX030T.s:2515   .debug_str:00000000000003ce .LASF49
     /tmp/cccX030T.s:2517   .debug_str:00000000000003d3 .LASF50
     /tmp/cccX030T.s:2471   .debug_str:00000000000002a9 .LASF51
     /tmp/cccX030T.s:2503   .debug_str:0000000000000390 .LASF52
     /tmp/cccX030T.s:2591   .debug_str:00000000000006cb .LASF54
     /tmp/cccX030T.s:2583   .debug_str:000000000000067b .LASF105
     /tmp/cccX030T.s:2463   .debug_str:0000000000000265 .LASF106
     /tmp/cccX030T.s:2441   .debug_str:00000000000001a1 .LASF107
     /tmp/cccX030T.s:2519   .debug_str:00000000000003dd .LASF55
     /tmp/cccX030T.s:2399   .debug_str:000000000000006d .LASF56
     /tmp/cccX030T.s:2429   .debug_str:0000000000000141 .LASF57
     /tmp/cccX030T.s:2439   .debug_str:0000000000000194 .LASF58
     /tmp/cccX030T.s:2383   .debug_str:0000000000000015 .LASF59
     /tmp/cccX030T.s:2387   .debug_str:000000000000003f .LASF60
     /tmp/cccX030T.s:2561   .debug_str:0000000000000513 .LASF64
     /tmp/cccX030T.s:2427   .debug_str:0000000000000138 .LASF61
     /tmp/cccX030T.s:2413   .debug_str:00000000000000c7 .LASF62
     /tmp/cccX030T.s:2555   .debug_str:00000000000004ee .LASF63
     /tmp/cccX030T.s:2539   .debug_str:0000000000000478 .LASF65
     /tmp/cccX030T.s:2545   .debug_str:00000000000004a1 .LASF66
     /tmp/cccX030T.s:2565   .debug_str:0000000000000530 .LASF67
     /tmp/cccX030T.s:2445   .debug_str:00000000000001be .LASF68
     /tmp/cccX030T.s:2421   .debug_str:0000000000000112 .LASF69
     /tmp/cccX030T.s:2381   .debug_str:000000000000000d .LASF70
     /tmp/cccX030T.s:2457   .debug_str:0000000000000226 .LASF71
     /tmp/cccX030T.s:2509   .debug_str:00000000000003b8 .LASF72
     /tmp/cccX030T.s:2587   .debug_str:0000000000000696 .LASF73
     /tmp/cccX030T.s:2397   .debug_str:0000000000000066 .LASF74
     /tmp/cccX030T.s:2443   .debug_str:00000000000001ab .LASF75
     /tmp/cccX030T.s:2449   .debug_str:00000000000001de .LASF76
     /tmp/cccX030T.s:2567   .debug_str:0000000000000543 .LASF77
     /tmp/cccX030T.s:2395   .debug_str:0000000000000060 .LASF78
     /tmp/cccX030T.s:2599   .debug_str:0000000000000714 .LASF79
     /tmp/cccX030T.s:2593   .debug_str:00000000000006e1 .LASF80
     /tmp/cccX030T.s:2551   .debug_str:00000000000004c4 .LASF81
GAS LISTING /tmp/cccX030T.s 			page 13


     /tmp/cccX030T.s:2473   .debug_str:00000000000002b2 .LASF82
     /tmp/cccX030T.s:2483   .debug_str:00000000000002f8 .LASF83
     /tmp/cccX030T.s:2407   .debug_str:00000000000000a6 .LASF84
     /tmp/cccX030T.s:2531   .debug_str:0000000000000431 .LASF85
     /tmp/cccX030T.s:2497   .debug_str:000000000000036e .LASF86
     /tmp/cccX030T.s:2455   .debug_str:0000000000000210 .LASF87
     /tmp/cccX030T.s:2411   .debug_str:00000000000000bc .LASF88
     /tmp/cccX030T.s:2437   .debug_str:000000000000017c .LASF90
     /tmp/cccX030T.s:2597   .debug_str:0000000000000703 .LASF91
     /tmp/cccX030T.s:2415   .debug_str:00000000000000dc .LASF92
     /tmp/cccX030T.s:252    .text:0000000000000160 .LFB46
     /tmp/cccX030T.s:296    .text:00000000000001b4 .LFE46
     /tmp/cccX030T.s:283    .text:00000000000001a0 .LVL28
     /tmp/cccX030T.s:213    .text:0000000000000128 .LFB45
     /tmp/cccX030T.s:246    .text:0000000000000160 .LFE45
     /tmp/cccX030T.s:227    .text:0000000000000140 .LVL24
     /tmp/cccX030T.s:231    .text:0000000000000148 .LVL25
     /tmp/cccX030T.s:235    .text:0000000000000150 .LVL26
     /tmp/cccX030T.s:132    .text:00000000000000b8 .LFB44
     /tmp/cccX030T.s:207    .text:0000000000000128 .LFE44
     /tmp/cccX030T.s:2166   .debug_loc:0000000000000000 .LLST10
     /tmp/cccX030T.s:150    .text:00000000000000d4 .LBB16
     /tmp/cccX030T.s:157    .text:00000000000000d8 .LBE16
     /tmp/cccX030T.s:2177   .debug_loc:0000000000000036 .LLST11
     /tmp/cccX030T.s:161    .text:00000000000000dc .LBB18
     /tmp/cccX030T.s:168    .text:00000000000000e0 .LBE18
     /tmp/cccX030T.s:2184   .debug_loc:0000000000000059 .LLST12
     /tmp/cccX030T.s:175    .text:00000000000000ec .LVL19
     /tmp/cccX030T.s:183    .text:0000000000000104 .LVL20
     /tmp/cccX030T.s:204    .text:0000000000000124 .LVL23
     /tmp/cccX030T.s:10     .text:0000000000000000 .LFB43
     /tmp/cccX030T.s:126    .text:00000000000000b8 .LFE43
     /tmp/cccX030T.s:2527   .debug_str:0000000000000414 .LASF93
     /tmp/cccX030T.s:2191   .debug_loc:000000000000007c .LLST0
     /tmp/cccX030T.s:2213   .debug_loc:00000000000000db .LLST1
     /tmp/cccX030T.s:2235   .debug_loc:000000000000013a .LLST2
     /tmp/cccX030T.s:2465   .debug_str:000000000000028d .LASF94
     /tmp/cccX030T.s:2267   .debug_loc:00000000000001c1 .LLST3
     /tmp/cccX030T.s:42     .text:000000000000003c .LBB10
     /tmp/cccX030T.s:2363   .debug_ranges:0000000000000000 .Ldebug_ranges0
     /tmp/cccX030T.s:2278   .debug_loc:00000000000001f7 .LLST4
     /tmp/cccX030T.s:2299   .debug_loc:0000000000000255 .LLST5
     /tmp/cccX030T.s:2310   .debug_loc:000000000000028b .LLST6
     /tmp/cccX030T.s:2321   .debug_loc:00000000000002c1 .LLST7
     /tmp/cccX030T.s:2332   .debug_loc:00000000000002f7 .LLST8
     /tmp/cccX030T.s:2343   .debug_loc:000000000000032d .LLST9
     /tmp/cccX030T.s:39     .text:0000000000000038 .LVL2
     /tmp/cccX030T.s:82     .text:0000000000000084 .LVL7
     /tmp/cccX030T.s:2417   .debug_str:00000000000000f7 .LASF97
     /tmp/cccX030T.s:2501   .debug_str:0000000000000388 .LASF95
     /tmp/cccX030T.s:2573   .debug_str:0000000000000628 .LASF96
     /tmp/cccX030T.s:2479   .debug_str:00000000000002d2 .LASF108
     /tmp/cccX030T.s:2389   .debug_str:0000000000000048 .LASF109
     /tmp/cccX030T.s:2585   .debug_str:0000000000000689 .LASF110
     /tmp/cccX030T.s:148    .text:00000000000000d4 .LVL15
     /tmp/cccX030T.s:193    .text:0000000000000110 .LVL21
     /tmp/cccX030T.s:197    .text:0000000000000118 .LVL22
GAS LISTING /tmp/cccX030T.s 			page 14


     /tmp/cccX030T.s:155    .text:00000000000000d8 .LVL16
     /tmp/cccX030T.s:160    .text:00000000000000dc .LVL17
     /tmp/cccX030T.s:166    .text:00000000000000e0 .LVL18
     /tmp/cccX030T.s:14     .text:0000000000000000 .LVL0
     /tmp/cccX030T.s:37     .text:0000000000000030 .LVL1
     /tmp/cccX030T.s:100    .text:000000000000009c .LVL10
     /tmp/cccX030T.s:107    .text:00000000000000a8 .LVL12
     /tmp/cccX030T.s:103    .text:00000000000000a0 .LVL11
     /tmp/cccX030T.s:66     .text:0000000000000070 .LVL5
     /tmp/cccX030T.s:120    .text:00000000000000b4 .LVL14
     /tmp/cccX030T.s:74     .text:0000000000000078 .LVL6
     /tmp/cccX030T.s:94     .text:0000000000000094 .LVL8
     /tmp/cccX030T.s:41     .text:000000000000003c .LVL3
     /tmp/cccX030T.s:59     .text:0000000000000064 .LVL4
     /tmp/cccX030T.s:116    .text:00000000000000b0 .LVL13
     /tmp/cccX030T.s:97     .text:0000000000000098 .LVL9
     /tmp/cccX030T.s:317    .debug_info:0000000000000000 .Ldebug_info0
     /tmp/cccX030T.s:77     .text:0000000000000078 .LBE10
     /tmp/cccX030T.s:110    .text:00000000000000a8 .LBB15
     /tmp/cccX030T.s:124    .text:00000000000000b8 .LBE15
     /tmp/cccX030T.s:53     .text:0000000000000058 .LBB12
     /tmp/cccX030T.s:75     .text:0000000000000078 .LBE12
     /tmp/cccX030T.s:112    .text:00000000000000a8 .LBB13
     /tmp/cccX030T.s:122    .text:00000000000000b8 .LBE13

UNDEFINED SYMBOLS
_Znwm
_ZN9Scheduler3putEP3TCB
_ZN9Scheduler3getEv
_ZN3TCB13contextSwitchEPNS_7ContextES1_
_ZN5Riscv13pushRegistersEv
_ZN5Riscv12popRegistersEv
