GAS LISTING /tmp/ccOR5UrX.s 			page 1


   1              		.file	"TCB.cpp"
   2              		.option pic
   3              		.option norelax
   4              		.text
   5              	.Ltext0:
   6              		.align	2
   7              		.globl	_ZN3TCB7wrapperEv
   9              	_ZN3TCB7wrapperEv:
  10              	.LFB55:
  11              		.file 1 "src/TCB.cpp"
   1:src/TCB.cpp   **** //
   2:src/TCB.cpp   **** // Created by os on 5/23/23.
   3:src/TCB.cpp   **** //
   4:src/TCB.cpp   **** 
   5:src/TCB.cpp   **** #include "../h/TCB.hpp"
   6:src/TCB.cpp   **** #include "../h/Riscv.hpp"
   7:src/TCB.cpp   **** #include "../h/Scheduler.hpp"
   8:src/TCB.cpp   **** #include "../h/KSem.hpp"
   9:src/TCB.cpp   **** 
  10:src/TCB.cpp   **** void kernelConsumerFunction(void*);
  11:src/TCB.cpp   **** 
  12:src/TCB.cpp   **** void idle(void*);
  13:src/TCB.cpp   **** 
  14:src/TCB.cpp   **** void userMain();
  15:src/TCB.cpp   **** 
  16:src/TCB.cpp   **** int main();
  17:src/TCB.cpp   **** 
  18:src/TCB.cpp   **** TCB* TCB::running = nullptr;
  19:src/TCB.cpp   **** uint64 TCB::runningTimeSlice = 0;
  20:src/TCB.cpp   **** 
  21:src/TCB.cpp   **** TCB* TCB::createThread(TCB::Body function, void* args, uint64* stack) {
  22:src/TCB.cpp   ****     TCB* newThread = new TCB(function, args, stack);
  23:src/TCB.cpp   ****     return newThread;
  24:src/TCB.cpp   **** }
  25:src/TCB.cpp   **** 
  26:src/TCB.cpp   **** void TCB::dispatch() {
  27:src/TCB.cpp   ****     TCB* old = TCB::running;
  28:src/TCB.cpp   ****     if (old->status == ACTIVE) {
  29:src/TCB.cpp   ****         Scheduler::put(old);
  30:src/TCB.cpp   ****     } else if (old->status == FINISHED) {
  31:src/TCB.cpp   ****         //brisanje steka niti ako je zavrsena, objekat TCB ostaje zbog moguceg join-a
  32:src/TCB.cpp   ****         delete old->stack;
  33:src/TCB.cpp   ****         old->stack = nullptr;
  34:src/TCB.cpp   ****     }
  35:src/TCB.cpp   ****     TCB::running = Scheduler::get();
  36:src/TCB.cpp   ****     TCB::runningTimeSlice = 0;
  37:src/TCB.cpp   **** 
  38:src/TCB.cpp   ****     //sada biramo u kom rezimu ce se izvrsavati nit, upisom bita SSTATUS_SPP
  39:src/TCB.cpp   ****     //ako treba da se izvrsava kernel nit, povratak je u sistemski rezim, inace u korisnicki
  40:src/TCB.cpp   ****     if (TCB::running->threadFunction == (TCB::Body)main || TCB::running->threadFunction == kernelCo
  41:src/TCB.cpp   ****         TCB::running->threadFunction == idle) {
  42:src/TCB.cpp   ****         Riscv::ms_sstatus(Riscv::SSTATUS_SPP);
  43:src/TCB.cpp   ****     } else {
  44:src/TCB.cpp   ****         Riscv::mc_sstatus(Riscv::SSTATUS_SPP);
  45:src/TCB.cpp   ****     }
  46:src/TCB.cpp   **** 
  47:src/TCB.cpp   ****     if (old != TCB::running) TCB::contextSwitch(&old->context, &running->context);
GAS LISTING /tmp/ccOR5UrX.s 			page 2


  48:src/TCB.cpp   **** }
  49:src/TCB.cpp   **** 
  50:src/TCB.cpp   **** void TCB::wrapper() {
  12              		.loc 1 50 21
  13              		.cfi_startproc
  14 0000 130101FF 		addi	sp,sp,-16
  15              		.cfi_def_cfa_offset 16
  16 0004 23341100 		sd	ra,8(sp)
  17 0008 23308100 		sd	s0,0(sp)
  18              		.cfi_offset 1, -8
  19              		.cfi_offset 8, -16
  20 000c 13040101 		addi	s0,sp,16
  21              		.cfi_def_cfa 8, 0
  51:src/TCB.cpp   ****     //pocetak wrappera se izvrsava u supervisor modu,
  52:src/TCB.cpp   ****     //jer nismo izasli iz prekidne rutine prilikom promene konteksta (dispatch)
  53:src/TCB.cpp   ****     Riscv::returnFromInterrupt();
  22              		.loc 1 53 5
  23              		.loc 1 53 31 is_stmt 0
  24 0010 97000000 		call	_ZN5Riscv19returnFromInterruptEv@plt
  24      E7800000 
  25              	.LVL0:
  54:src/TCB.cpp   ****     //na dalje se izvrsavamo u user modu (osim za kernel funkcije)
  55:src/TCB.cpp   ****     running->threadFunction(running->args);
  26              		.loc 1 55 5 is_stmt 1
  27              		.loc 1 55 14 is_stmt 0
  28 0018 97070000 		ld	a5,.LANCHOR0
  28      83B70700 
  29 0020 03B70701 		ld	a4,16(a5)
  30              		.loc 1 55 28
  31 0024 03B50702 		ld	a0,32(a5)
  32 0028 E7000700 		jalr	a4
  33              	.LVL1:
  56:src/TCB.cpp   ****     //i dalje smo u user modu, moramo promenu niti vrsiti sistemskim pozivom
  57:src/TCB.cpp   ****     thread_exit();
  34              		.loc 1 57 5 is_stmt 1
  35              		.loc 1 57 16 is_stmt 0
  36 002c 97000000 		call	_Z11thread_exitv@plt
  36      E7800000 
  37              	.LVL2:
  58:src/TCB.cpp   **** }
  38              		.loc 1 58 1
  39 0034 83308100 		ld	ra,8(sp)
  40              		.cfi_restore 1
  41 0038 03340100 		ld	s0,0(sp)
  42              		.cfi_restore 8
  43              		.cfi_def_cfa 2, 16
  44 003c 13010101 		addi	sp,sp,16
  45              		.cfi_def_cfa_offset 0
  46 0040 67800000 		jr	ra
  47              		.cfi_endproc
  48              	.LFE55:
  50              		.align	2
  51              		.globl	_ZN3TCB8dispatchEv
  53              	_ZN3TCB8dispatchEv:
  54              	.LFB54:
  26:src/TCB.cpp   ****     TCB* old = TCB::running;
  55              		.loc 1 26 22 is_stmt 1
GAS LISTING /tmp/ccOR5UrX.s 			page 3


  56              		.cfi_startproc
  57 0044 130101FE 		addi	sp,sp,-32
  58              		.cfi_def_cfa_offset 32
  59 0048 233C1100 		sd	ra,24(sp)
  60 004c 23388100 		sd	s0,16(sp)
  61 0050 23349100 		sd	s1,8(sp)
  62              		.cfi_offset 1, -8
  63              		.cfi_offset 8, -16
  64              		.cfi_offset 9, -24
  65 0054 13040102 		addi	s0,sp,32
  66              		.cfi_def_cfa 8, 0
  27:src/TCB.cpp   ****     if (old->status == ACTIVE) {
  67              		.loc 1 27 5
  27:src/TCB.cpp   ****     if (old->status == ACTIVE) {
  68              		.loc 1 27 10 is_stmt 0
  69 0058 97040000 		ld	s1,.LANCHOR0
  69      83B40400 
  70              	.LVL3:
  28:src/TCB.cpp   ****         Scheduler::put(old);
  71              		.loc 1 28 5 is_stmt 1
  28:src/TCB.cpp   ****         Scheduler::put(old);
  72              		.loc 1 28 14 is_stmt 0
  73 0060 83A78405 		lw	a5,88(s1)
  28:src/TCB.cpp   ****         Scheduler::put(old);
  74              		.loc 1 28 5
  75 0064 13071000 		li	a4,1
  76 0068 638EE704 		beq	a5,a4,.L12
  30:src/TCB.cpp   ****         //brisanje steka niti ako je zavrsena, objekat TCB ostaje zbog moguceg join-a
  77              		.loc 1 30 12 is_stmt 1
  78 006c 13075000 		li	a4,5
  79 0070 6382E706 		beq	a5,a4,.L13
  80              	.L5:
  35:src/TCB.cpp   ****     TCB::runningTimeSlice = 0;
  81              		.loc 1 35 5
  35:src/TCB.cpp   ****     TCB::runningTimeSlice = 0;
  82              		.loc 1 35 34 is_stmt 0
  83 0074 97000000 		call	_ZN9Scheduler3getEv@plt
  83      E7800000 
  84              	.LVL4:
  85 007c 93050500 		mv	a1,a0
  35:src/TCB.cpp   ****     TCB::runningTimeSlice = 0;
  86              		.loc 1 35 18
  87 0080 97070000 		lla	a5,.LANCHOR0
  87      93870700 
  88 0088 23B0A700 		sd	a0,0(a5)
  36:src/TCB.cpp   **** 
  89              		.loc 1 36 5 is_stmt 1
  36:src/TCB.cpp   **** 
  90              		.loc 1 36 27 is_stmt 0
  91 008c 23B40700 		sd	zero,8(a5)
  40:src/TCB.cpp   ****         TCB::running->threadFunction == idle) {
  92              		.loc 1 40 5 is_stmt 1
  40:src/TCB.cpp   ****         TCB::running->threadFunction == idle) {
  93              		.loc 1 40 23 is_stmt 0
  94 0090 83370501 		ld	a5,16(a0)
  40:src/TCB.cpp   ****         TCB::running->threadFunction == idle) {
  95              		.loc 1 40 5
GAS LISTING /tmp/ccOR5UrX.s 			page 4


  96 0094 17070000 		la	a4,main
  96      03370700 
  97 009c 6388E704 		beq	a5,a4,.L7
  40:src/TCB.cpp   ****         TCB::running->threadFunction == idle) {
  98              		.loc 1 40 57 discriminator 1
  99 00a0 17070000 		la	a4,_Z22kernelConsumerFunctionPv
  99      03370700 
 100 00a8 6382E704 		beq	a5,a4,.L7
  40:src/TCB.cpp   ****         TCB::running->threadFunction == idle) {
 101              		.loc 1 40 115 discriminator 2
 102 00ac 17070000 		la	a4,_Z4idlePv
 102      03370700 
 103 00b4 638CE702 		beq	a5,a4,.L7
  44:src/TCB.cpp   ****     }
 104              		.loc 1 44 9 is_stmt 1
 105              	.LVL5:
 106              	.LBB39:
 107              	.LBB40:
 108              		.file 2 "src/../h/Riscv.hpp"
   1:src/../h/Riscv.hpp **** //
   2:src/../h/Riscv.hpp **** // Created by os on 5/17/23.
   3:src/../h/Riscv.hpp **** //
   4:src/../h/Riscv.hpp **** 
   5:src/../h/Riscv.hpp **** #ifndef PROJEKAT2023_RISCV_HPP
   6:src/../h/Riscv.hpp **** #define PROJEKAT2023_RISCV_HPP
   7:src/../h/Riscv.hpp **** 
   8:src/../h/Riscv.hpp **** #include "../lib/hw.h"
   9:src/../h/Riscv.hpp **** 
  10:src/../h/Riscv.hpp **** class Riscv {
  11:src/../h/Riscv.hpp **** public:
  12:src/../h/Riscv.hpp **** 
  13:src/../h/Riscv.hpp **** 	static void returnFromInterrupt();
  14:src/../h/Riscv.hpp **** 
  15:src/../h/Riscv.hpp **** 	//read scause
  16:src/../h/Riscv.hpp **** 	static uint64 r_scause();
  17:src/../h/Riscv.hpp **** 
  18:src/../h/Riscv.hpp **** 	//write scause
  19:src/../h/Riscv.hpp **** 	static void w_scause(uint64 scause);
  20:src/../h/Riscv.hpp **** 
  21:src/../h/Riscv.hpp **** 	//read sepc
  22:src/../h/Riscv.hpp **** 	static uint64 r_sepc();
  23:src/../h/Riscv.hpp **** 
  24:src/../h/Riscv.hpp **** 	//write sepc
  25:src/../h/Riscv.hpp **** 	static void w_sepc(uint64 sepc);
  26:src/../h/Riscv.hpp **** 
  27:src/../h/Riscv.hpp **** 	//read stvec
  28:src/../h/Riscv.hpp **** 	static uint64 r_stvec();
  29:src/../h/Riscv.hpp **** 
  30:src/../h/Riscv.hpp **** 	//write stvec
  31:src/../h/Riscv.hpp **** 	static void w_stvec(uint64 stvec);
  32:src/../h/Riscv.hpp **** 
  33:src/../h/Riscv.hpp **** 	enum BitMaskSip {
  34:src/../h/Riscv.hpp **** 		//postoji zahtev za softverski prekid
  35:src/../h/Riscv.hpp **** 		SIP_SSIP = (1 << 1),
  36:src/../h/Riscv.hpp **** 		//postoji prekid od tajmera
  37:src/../h/Riscv.hpp **** 		SIP_STIP = (1 << 5),
  38:src/../h/Riscv.hpp **** 		//postoji zahtev za spoljasnji hardverski prekid
GAS LISTING /tmp/ccOR5UrX.s 			page 5


  39:src/../h/Riscv.hpp **** 		SIP_SEIP = (1 << 9)
  40:src/../h/Riscv.hpp **** 	};
  41:src/../h/Riscv.hpp **** 
  42:src/../h/Riscv.hpp **** 	//mask set sip
  43:src/../h/Riscv.hpp **** 	static void ms_sip(uint64 mask);
  44:src/../h/Riscv.hpp **** 
  45:src/../h/Riscv.hpp **** 	//mask clear sip
  46:src/../h/Riscv.hpp **** 	static void mc_sip(uint64 mask);
  47:src/../h/Riscv.hpp **** 
  48:src/../h/Riscv.hpp **** 	//read sip
  49:src/../h/Riscv.hpp **** 	static uint64 r_sip();
  50:src/../h/Riscv.hpp **** 
  51:src/../h/Riscv.hpp **** 	//write sip
  52:src/../h/Riscv.hpp **** 	static void w_sip(uint64 sip);
  53:src/../h/Riscv.hpp **** 
  54:src/../h/Riscv.hpp **** 	//kada se pozove sret, SIE dobija vrednost SPIE, SPIE se postavlja na 1,
  55:src/../h/Riscv.hpp **** 	//rezim se postavlja na osnovu SPP bita, SPP se postavlja na 0
  56:src/../h/Riscv.hpp **** 	enum BitMaskSstatus {
  57:src/../h/Riscv.hpp **** 		//1 - dozvoljeni prekidi; 0- nedozvoljeni prekidi; igonrise se u korisnickom rezimu
  58:src/../h/Riscv.hpp **** 		SSTATUS_SIE = (1 << 1),
  59:src/../h/Riscv.hpp **** 		//prethodna vrednost bita SIE
  60:src/../h/Riscv.hpp **** 		SSTATUS_SPIE = (1 << 5),
  61:src/../h/Riscv.hpp **** 		//iz kog rezima se desio skok; 0 - iz korisnickog; 1 - iz sistemskog
  62:src/../h/Riscv.hpp **** 		SSTATUS_SPP = (1 << 8)
  63:src/../h/Riscv.hpp **** 	};
  64:src/../h/Riscv.hpp **** 
  65:src/../h/Riscv.hpp **** 	//mask set sstatus
  66:src/../h/Riscv.hpp **** 	static void ms_sstatus(uint64 mask);
  67:src/../h/Riscv.hpp **** 
  68:src/../h/Riscv.hpp **** 	//mask clear sstatus
  69:src/../h/Riscv.hpp **** 	static void mc_sstatus(uint64 mask);
  70:src/../h/Riscv.hpp **** 
  71:src/../h/Riscv.hpp **** 	//read sstatus
  72:src/../h/Riscv.hpp **** 	static uint64 r_sstatus();
  73:src/../h/Riscv.hpp **** 
  74:src/../h/Riscv.hpp **** 	//write sstatus
  75:src/../h/Riscv.hpp **** 	static void w_sstatus(uint64 sstatus);
  76:src/../h/Riscv.hpp **** 
  77:src/../h/Riscv.hpp **** };
  78:src/../h/Riscv.hpp **** 
  79:src/../h/Riscv.hpp **** inline uint64 Riscv::r_scause() {
  80:src/../h/Riscv.hpp **** 	uint64 volatile scause;
  81:src/../h/Riscv.hpp **** 	__asm__ volatile("csrr %[scause], scause": [scause] "=r"(scause));
  82:src/../h/Riscv.hpp **** 	return scause;
  83:src/../h/Riscv.hpp **** }
  84:src/../h/Riscv.hpp **** 
  85:src/../h/Riscv.hpp **** inline void Riscv::w_scause(uint64 scause) {
  86:src/../h/Riscv.hpp **** 	__asm__ volatile("csrw scause, %[scause]": :[scause] "r"(scause));
  87:src/../h/Riscv.hpp **** }
  88:src/../h/Riscv.hpp **** 
  89:src/../h/Riscv.hpp **** inline uint64 Riscv::r_sepc() {
  90:src/../h/Riscv.hpp **** 	uint64 volatile sepc;
  91:src/../h/Riscv.hpp **** 	__asm__ volatile("csrr %[sepc], sepc": [sepc] "=r"(sepc));
  92:src/../h/Riscv.hpp **** 	return sepc;
  93:src/../h/Riscv.hpp **** }
  94:src/../h/Riscv.hpp **** 
  95:src/../h/Riscv.hpp **** inline void Riscv::w_sepc(uint64 sepc) {
GAS LISTING /tmp/ccOR5UrX.s 			page 6


  96:src/../h/Riscv.hpp **** 	__asm__ volatile("csrw sepc, %[sepc]": :[sepc] "r"(sepc));
  97:src/../h/Riscv.hpp **** }
  98:src/../h/Riscv.hpp **** 
  99:src/../h/Riscv.hpp **** inline uint64 Riscv::r_stvec() {
 100:src/../h/Riscv.hpp **** 	uint64 volatile stvec;
 101:src/../h/Riscv.hpp **** 	__asm__ volatile("csrr %[stvec], stvec": [stvec] "=r"(stvec));
 102:src/../h/Riscv.hpp **** 	return stvec;
 103:src/../h/Riscv.hpp **** }
 104:src/../h/Riscv.hpp **** 
 105:src/../h/Riscv.hpp **** inline void Riscv::w_stvec(uint64 stvec) {
 106:src/../h/Riscv.hpp **** 	__asm__ volatile("csrw stvec, %[stvec]": :[stvec] "r"(stvec));
 107:src/../h/Riscv.hpp **** }
 108:src/../h/Riscv.hpp **** 
 109:src/../h/Riscv.hpp **** inline void Riscv::ms_sip(uint64 mask) {
 110:src/../h/Riscv.hpp **** 	__asm__ volatile("csrs sip, %[mask]": :[mask] "r"(mask));
 111:src/../h/Riscv.hpp **** }
 112:src/../h/Riscv.hpp **** 
 113:src/../h/Riscv.hpp **** inline void Riscv::mc_sip(uint64 mask) {
 114:src/../h/Riscv.hpp **** 	__asm__ volatile("csrc sip, %[mask]": :[mask] "r"(mask));
 115:src/../h/Riscv.hpp **** }
 116:src/../h/Riscv.hpp **** 
 117:src/../h/Riscv.hpp **** inline uint64 Riscv::r_sip() {
 118:src/../h/Riscv.hpp **** 	uint64 volatile sip;
 119:src/../h/Riscv.hpp **** 	__asm__ volatile("csrr %[sip], sip": [sip] "=r"(sip));
 120:src/../h/Riscv.hpp **** 	return sip;
 121:src/../h/Riscv.hpp **** }
 122:src/../h/Riscv.hpp **** 
 123:src/../h/Riscv.hpp **** inline void Riscv::w_sip(uint64 sip) {
 124:src/../h/Riscv.hpp **** 	__asm__ volatile("csrw sip, %[sip]": :[sip] "r"(sip));
 125:src/../h/Riscv.hpp **** }
 126:src/../h/Riscv.hpp **** 
 127:src/../h/Riscv.hpp **** inline void Riscv::ms_sstatus(uint64 mask) {
 128:src/../h/Riscv.hpp **** 	__asm__ volatile("csrs sstatus, %[mask]": :[mask] "r"(mask));
 129:src/../h/Riscv.hpp **** }
 130:src/../h/Riscv.hpp **** 
 131:src/../h/Riscv.hpp **** inline void Riscv::mc_sstatus(uint64 mask) {
 132:src/../h/Riscv.hpp **** 	__asm__ volatile("csrc sstatus, %[mask]": :[mask] "r"(mask));
 109              		.loc 2 132 2
 110              		.loc 2 132 62 is_stmt 0
 111 00b8 93070010 		li	a5,256
 112              	#APP
 113              	# 132 "src/../h/Riscv.hpp" 1
 133              	}
 114              		csrc sstatus, a5
 115              	# 0 "" 2
 116              		.loc 2 133 1
 117              	#NO_APP
 118 00c0 6F004003 		j	.L9
 119              	.LVL6:
 120              	.L12:
 121              	.LBE40:
 122              	.LBE39:
  29:src/TCB.cpp   ****     } else if (old->status == FINISHED) {
 123              		.loc 1 29 9 is_stmt 1
  29:src/TCB.cpp   ****     } else if (old->status == FINISHED) {
 124              		.loc 1 29 23 is_stmt 0
 125 00c4 13850400 		mv	a0,s1
GAS LISTING /tmp/ccOR5UrX.s 			page 7


 126 00c8 97000000 		call	_ZN9Scheduler3putEP3TCB@plt
 126      E7800000 
 127              	.LVL7:
 128 00d0 6FF05FFA 		j	.L5
 129              	.L13:
  32:src/TCB.cpp   ****         old->stack = nullptr;
 130              		.loc 1 32 9 is_stmt 1
  32:src/TCB.cpp   ****         old->stack = nullptr;
 131              		.loc 1 32 21 is_stmt 0
 132 00d4 03B58401 		ld	a0,24(s1)
  32:src/TCB.cpp   ****         old->stack = nullptr;
 133              		.loc 1 32 26
 134 00d8 63060500 		beqz	a0,.L6
  32:src/TCB.cpp   ****         old->stack = nullptr;
 135              		.loc 1 32 21 discriminator 1
 136 00dc 97000000 		call	_ZdlPv@plt
 136      E7800000 
 137              	.LVL8:
 138              	.L6:
  33:src/TCB.cpp   ****     }
 139              		.loc 1 33 9 is_stmt 1
  33:src/TCB.cpp   ****     }
 140              		.loc 1 33 20 is_stmt 0
 141 00e4 23BC0400 		sd	zero,24(s1)
 142 00e8 6FF0DFF8 		j	.L5
 143              	.L7:
  42:src/TCB.cpp   ****     } else {
 144              		.loc 1 42 9 is_stmt 1
 145              	.LVL9:
 146              	.LBB41:
 147              	.LBB42:
 128:src/../h/Riscv.hpp **** }
 148              		.loc 2 128 2
 128:src/../h/Riscv.hpp **** }
 149              		.loc 2 128 62 is_stmt 0
 150 00ec 93070010 		li	a5,256
 151              	#APP
 152              	# 128 "src/../h/Riscv.hpp" 1
 153              		csrs sstatus, a5
 154              	# 0 "" 2
 155              	.LVL10:
 156              	#NO_APP
 157              	.L9:
 158              	.LBE42:
 159              	.LBE41:
  47:src/TCB.cpp   **** }
 160              		.loc 1 47 5 is_stmt 1
 161 00f4 6388B400 		beq	s1,a1,.L3
  47:src/TCB.cpp   **** }
 162              		.loc 1 47 30 discriminator 1
  47:src/TCB.cpp   **** }
 163              		.loc 1 47 48 is_stmt 0 discriminator 1
 164 00f8 13850400 		mv	a0,s1
 165 00fc 97000000 		call	_ZN3TCB13contextSwitchEPNS_7ContextES1_@plt
 165      E7800000 
 166              	.LVL11:
 167              	.L3:
GAS LISTING /tmp/ccOR5UrX.s 			page 8


  48:src/TCB.cpp   **** 
 168              		.loc 1 48 1
 169 0104 83308101 		ld	ra,24(sp)
 170              		.cfi_restore 1
 171 0108 03340101 		ld	s0,16(sp)
 172              		.cfi_restore 8
 173              		.cfi_def_cfa 2, 32
 174 010c 83348100 		ld	s1,8(sp)
 175              		.cfi_restore 9
 176              	.LVL12:
 177 0110 13010102 		addi	sp,sp,32
 178              		.cfi_def_cfa_offset 0
 179 0114 67800000 		jr	ra
 180              		.cfi_endproc
 181              	.LFE54:
 183              		.align	2
 184              		.globl	_ZN3TCBnwEm
 186              	_ZN3TCBnwEm:
 187              	.LFB56:
  59:src/TCB.cpp   **** 
  60:src/TCB.cpp   **** void* TCB::operator new(size_t size) {
 188              		.loc 1 60 38 is_stmt 1
 189              		.cfi_startproc
 190              	.LVL13:
 191 0118 130101FF 		addi	sp,sp,-16
 192              		.cfi_def_cfa_offset 16
 193 011c 23341100 		sd	ra,8(sp)
 194 0120 23308100 		sd	s0,0(sp)
 195              		.cfi_offset 1, -8
 196              		.cfi_offset 8, -16
 197 0124 13040101 		addi	s0,sp,16
 198              		.cfi_def_cfa 8, 0
  61:src/TCB.cpp   ****     return mem_alloc(size);
 199              		.loc 1 61 5
 200              		.loc 1 61 21 is_stmt 0
 201 0128 97000000 		call	_Z9mem_allocm@plt
 201      E7800000 
 202              	.LVL14:
  62:src/TCB.cpp   **** }
 203              		.loc 1 62 1
 204 0130 83308100 		ld	ra,8(sp)
 205              		.cfi_restore 1
 206 0134 03340100 		ld	s0,0(sp)
 207              		.cfi_restore 8
 208              		.cfi_def_cfa 2, 16
 209 0138 13010101 		addi	sp,sp,16
 210              		.cfi_def_cfa_offset 0
 211 013c 67800000 		jr	ra
 212              		.cfi_endproc
 213              	.LFE56:
 215              		.align	2
 216              		.globl	_ZN3TCB12createThreadEPFvPvES0_Pm
 218              	_ZN3TCB12createThreadEPFvPvES0_Pm:
 219              	.LFB53:
  21:src/TCB.cpp   ****     TCB* newThread = new TCB(function, args, stack);
 220              		.loc 1 21 71 is_stmt 1
 221              		.cfi_startproc
GAS LISTING /tmp/ccOR5UrX.s 			page 9


 222              	.LVL15:
 223 0140 130101FD 		addi	sp,sp,-48
 224              		.cfi_def_cfa_offset 48
 225 0144 23341102 		sd	ra,40(sp)
 226 0148 23308102 		sd	s0,32(sp)
 227 014c 233C9100 		sd	s1,24(sp)
 228 0150 23382101 		sd	s2,16(sp)
 229 0154 23343101 		sd	s3,8(sp)
 230              		.cfi_offset 1, -8
 231              		.cfi_offset 8, -16
 232              		.cfi_offset 9, -24
 233              		.cfi_offset 18, -32
 234              		.cfi_offset 19, -40
 235 0158 13040103 		addi	s0,sp,48
 236              		.cfi_def_cfa 8, 0
 237 015c 13090500 		mv	s2,a0
 238 0160 93890500 		mv	s3,a1
 239 0164 93040600 		mv	s1,a2
  22:src/TCB.cpp   ****     return newThread;
 240              		.loc 1 22 5
  22:src/TCB.cpp   ****     return newThread;
 241              		.loc 1 22 51 is_stmt 0
 242 0168 13050007 		li	a0,112
 243              	.LVL16:
 244 016c 97000000 		call	_ZN3TCBnwEm
 244      E7800000 
 245              	.LVL17:
 246              	.LBB43:
 247              	.LBB44:
 248              		.file 3 "src/../h/TCB.hpp"
   1:src/../h/TCB.hpp **** //
   2:src/../h/TCB.hpp **** // Created by os on 5/23/23.
   3:src/../h/TCB.hpp **** //
   4:src/../h/TCB.hpp **** 
   5:src/../h/TCB.hpp **** #ifndef PROJEKAT2023_TCB_HPP
   6:src/../h/TCB.hpp **** #define PROJEKAT2023_TCB_HPP
   7:src/../h/TCB.hpp **** 
   8:src/../h/TCB.hpp **** #include "../lib/hw.h"
   9:src/../h/TCB.hpp **** #include "../h/ThreadQueue.hpp"
  10:src/../h/TCB.hpp **** 
  11:src/../h/TCB.hpp **** int main();
  12:src/../h/TCB.hpp **** 
  13:src/../h/TCB.hpp **** class TCB {
  14:src/../h/TCB.hpp **** public:
  15:src/../h/TCB.hpp ****     friend class Scheduler;
  16:src/../h/TCB.hpp **** 
  17:src/../h/TCB.hpp ****     using Body = void (*)(void*);
  18:src/../h/TCB.hpp **** 
  19:src/../h/TCB.hpp ****     enum ThreadStatus {
  20:src/../h/TCB.hpp ****         CREATED, ACTIVE, BLOCKED, JOINING, SLEEPING, FINISHED
  21:src/../h/TCB.hpp ****     };
  22:src/../h/TCB.hpp **** 
  23:src/../h/TCB.hpp ****     static TCB* createThread(Body function, void* args, uint64* stack);
  24:src/../h/TCB.hpp **** 
  25:src/../h/TCB.hpp ****     void setStatus(ThreadStatus stat) { this->status = stat; }
  26:src/../h/TCB.hpp **** 
  27:src/../h/TCB.hpp ****     ThreadStatus getStatus() { return this->status; }
GAS LISTING /tmp/ccOR5UrX.s 			page 10


  28:src/../h/TCB.hpp **** 
  29:src/../h/TCB.hpp ****     uint64 getTimeSlice() { return timeSlice; }
  30:src/../h/TCB.hpp **** 
  31:src/../h/TCB.hpp ****     Body getBody() { return threadFunction; }
  32:src/../h/TCB.hpp **** 
  33:src/../h/TCB.hpp ****     ThreadQueue* getListOfJoiningThreads(){return &waitingToJoin;}
  34:src/../h/TCB.hpp **** 
  35:src/../h/TCB.hpp ****     static TCB* getRunning() { return running; }
  36:src/../h/TCB.hpp **** 
  37:src/../h/TCB.hpp ****     static void setRunning(TCB* newRunning) { running = newRunning; }
  38:src/../h/TCB.hpp **** 
  39:src/../h/TCB.hpp ****     static uint64 &getRunningTimeSlice() { return runningTimeSlice; }
  40:src/../h/TCB.hpp **** 
  41:src/../h/TCB.hpp ****     static void threadJoin(TCB* handle);
  42:src/../h/TCB.hpp **** 
  43:src/../h/TCB.hpp ****     static void releaseJoined(TCB* handle);
  44:src/../h/TCB.hpp **** 
  45:src/../h/TCB.hpp ****     static void dispatch();
  46:src/../h/TCB.hpp **** 
  47:src/../h/TCB.hpp ****     static void wrapper();
  48:src/../h/TCB.hpp **** 
  49:src/../h/TCB.hpp ****     static void quitThread(TCB* handle);
  50:src/../h/TCB.hpp **** 
  51:src/../h/TCB.hpp ****     static void* operator new(size_t size);
  52:src/../h/TCB.hpp **** 
  53:src/../h/TCB.hpp ****     static void operator delete(void* ptr);
  54:src/../h/TCB.hpp **** 
  55:src/../h/TCB.hpp **** private:
  56:src/../h/TCB.hpp ****     TCB(Body function, void* args, uint64* stack) : threadFunction(function), stack(stack), args(ar
  57:src/../h/TCB.hpp ****                                                     timeSlice(DEFAULT_TIME_SLICE), nextInScheduler(
  58:src/../h/TCB.hpp ****                                                     timeToSleep(0),
  59:src/../h/TCB.hpp ****                                                     nextSleeping(nullptr), status(CREATED), mySemap
  60:src/../h/TCB.hpp ****                                                     joiningWithTCB(nullptr) {
 249              		.loc 3 60 75
 250 0174 23382501 		sd	s2,16(a0)
 251 0178 233C9500 		sd	s1,24(a0)
 252 017c 23303503 		sd	s3,32(a0)
 253 0180 93072000 		li	a5,2
 254 0184 2334F502 		sd	a5,40(a0)
 255 0188 23380502 		sd	zero,48(a0)
 256 018c 233C0502 		sd	zero,56(a0)
 257 0190 23300504 		sd	zero,64(a0)
 258              	.LVL18:
 259              	.LBB45:
 260              	.LBB46:
 261              		.file 4 "src/../h/../h/ThreadQueue.hpp"
   1:src/../h/../h/ThreadQueue.hpp **** //
   2:src/../h/../h/ThreadQueue.hpp **** // Created by os on 6/4/23.
   3:src/../h/../h/ThreadQueue.hpp **** //
   4:src/../h/../h/ThreadQueue.hpp **** 
   5:src/../h/../h/ThreadQueue.hpp **** #ifndef PROJEKAT2023_THREADQUEUE_HPP
   6:src/../h/../h/ThreadQueue.hpp **** #define PROJEKAT2023_THREADQUEUE_HPP
   7:src/../h/../h/ThreadQueue.hpp **** 
   8:src/../h/../h/ThreadQueue.hpp **** #include "../h/syscall_c.hpp"
   9:src/../h/../h/ThreadQueue.hpp **** 
  10:src/../h/../h/ThreadQueue.hpp **** class TCB;
  11:src/../h/../h/ThreadQueue.hpp **** 
GAS LISTING /tmp/ccOR5UrX.s 			page 11


  12:src/../h/../h/ThreadQueue.hpp **** class ThreadQueue {
  13:src/../h/../h/ThreadQueue.hpp **** private:
  14:src/../h/../h/ThreadQueue.hpp ****     struct Node {
  15:src/../h/../h/ThreadQueue.hpp ****         TCB* data;
  16:src/../h/../h/ThreadQueue.hpp ****         Node* next;
  17:src/../h/../h/ThreadQueue.hpp **** 
  18:src/../h/../h/ThreadQueue.hpp ****         Node(TCB* d) : data(d), next(nullptr) {}
  19:src/../h/../h/ThreadQueue.hpp **** 
  20:src/../h/../h/ThreadQueue.hpp ****         static void* operator new(size_t size) {
  21:src/../h/../h/ThreadQueue.hpp ****             return mem_alloc(size);
  22:src/../h/../h/ThreadQueue.hpp ****         }
  23:src/../h/../h/ThreadQueue.hpp **** 
  24:src/../h/../h/ThreadQueue.hpp ****         static void operator delete(void* ptr) {
  25:src/../h/../h/ThreadQueue.hpp ****             mem_free(ptr);
  26:src/../h/../h/ThreadQueue.hpp ****         }
  27:src/../h/../h/ThreadQueue.hpp ****     };
  28:src/../h/../h/ThreadQueue.hpp **** 
  29:src/../h/../h/ThreadQueue.hpp ****     Node* front;
  30:src/../h/../h/ThreadQueue.hpp ****     Node* back;
  31:src/../h/../h/ThreadQueue.hpp **** 
  32:src/../h/../h/ThreadQueue.hpp **** public:
  33:src/../h/../h/ThreadQueue.hpp ****     ThreadQueue() : front(nullptr), back(nullptr) {}
 262              		.loc 4 33 49
 263 0194 23340504 		sd	zero,72(a0)
 264 0198 23380504 		sd	zero,80(a0)
 265              	.LVL19:
 266              	.LBE46:
 267              	.LBE45:
 268              		.loc 3 60 75
 269 019c 232C0504 		sw	zero,88(a0)
 270 01a0 23300506 		sd	zero,96(a0)
 271 01a4 23340506 		sd	zero,104(a0)
 272              	.LBB47:
  61:src/../h/TCB.hpp ****         //formiranje pocetnog konteksta;
  62:src/../h/TCB.hpp ****         //specijalni uslovi za main funkciju kojoj se pocetni kontekst automatski formira
  63:src/../h/TCB.hpp ****         uint64 startRa = threadFunction != (TCB::Body)main ? (uint64)&wrapper : 0;
 273              		.loc 3 63 9 is_stmt 1
 274              		.loc 3 63 60 is_stmt 0
 275 01a8 97070000 		la	a5,main
 275      83B70700 
 276 01b0 630EF902 		beq	s2,a5,.L19
 277 01b4 97070000 		lla	a5,_ZN3TCB7wrapperEv
 277      93870700 
 278              	.L17:
 279              	.LVL20:
  64:src/../h/TCB.hpp ****         uint64 startSp = stack != nullptr ? (uint64)((char*)stack + DEFAULT_STACK_SIZE) : 0;
 280              		.loc 3 64 9 is_stmt 1
 281              		.loc 3 64 43 is_stmt 0
 282 01bc 638C0402 		beqz	s1,.L20
 283              		.loc 3 64 67
 284 01c0 37160000 		li	a2,4096
 285 01c4 B384C400 		add	s1,s1,a2
 286              	.LVL21:
 287              	.L18:
  65:src/../h/TCB.hpp ****         this->context.ra = startRa;
 288              		.loc 3 65 9 is_stmt 1
 289              		.loc 3 65 26 is_stmt 0
GAS LISTING /tmp/ccOR5UrX.s 			page 12


 290 01c8 2330F500 		sd	a5,0(a0)
  66:src/../h/TCB.hpp ****         this->context.sp = startSp;
 291              		.loc 3 66 9 is_stmt 1
 292              		.loc 3 66 26 is_stmt 0
 293 01cc 23349500 		sd	s1,8(a0)
 294              	.LVL22:
 295              	.LBE47:
 296              	.LBE44:
 297              	.LBE43:
  23:src/TCB.cpp   **** }
 298              		.loc 1 23 5 is_stmt 1
  24:src/TCB.cpp   **** 
 299              		.loc 1 24 1 is_stmt 0
 300 01d0 83308102 		ld	ra,40(sp)
 301              		.cfi_remember_state
 302              		.cfi_restore 1
 303 01d4 03340102 		ld	s0,32(sp)
 304              		.cfi_restore 8
 305              		.cfi_def_cfa 2, 48
 306 01d8 83348101 		ld	s1,24(sp)
 307              		.cfi_restore 9
 308              	.LVL23:
 309 01dc 03390101 		ld	s2,16(sp)
 310              		.cfi_restore 18
 311              	.LVL24:
 312 01e0 83398100 		ld	s3,8(sp)
 313              		.cfi_restore 19
 314              	.LVL25:
 315 01e4 13010103 		addi	sp,sp,48
 316              		.cfi_def_cfa_offset 0
 317 01e8 67800000 		jr	ra
 318              	.LVL26:
 319              	.L19:
 320              		.cfi_restore_state
 321              	.LBB50:
 322              	.LBB49:
 323              	.LBB48:
  63:src/../h/TCB.hpp ****         uint64 startSp = stack != nullptr ? (uint64)((char*)stack + DEFAULT_STACK_SIZE) : 0;
 324              		.loc 3 63 60
 325 01ec 93070000 		li	a5,0
 326 01f0 6FF0DFFC 		j	.L17
 327              	.LVL27:
 328              	.L20:
  64:src/../h/TCB.hpp ****         this->context.ra = startRa;
 329              		.loc 3 64 43
 330 01f4 93040000 		li	s1,0
 331              	.LVL28:
 332 01f8 6FF01FFD 		j	.L18
 333              	.LBE48:
 334              	.LBE49:
 335              	.LBE50:
 336              		.cfi_endproc
 337              	.LFE53:
 339              		.align	2
 340              		.globl	_ZN3TCBdlEPv
 342              	_ZN3TCBdlEPv:
 343              	.LFB57:
GAS LISTING /tmp/ccOR5UrX.s 			page 13


  63:src/TCB.cpp   **** 
  64:src/TCB.cpp   **** void TCB::operator delete(void* ptr) {
 344              		.loc 1 64 38 is_stmt 1
 345              		.cfi_startproc
 346              	.LVL29:
 347 01fc 130101FF 		addi	sp,sp,-16
 348              		.cfi_def_cfa_offset 16
 349 0200 23341100 		sd	ra,8(sp)
 350 0204 23308100 		sd	s0,0(sp)
 351              		.cfi_offset 1, -8
 352              		.cfi_offset 8, -16
 353 0208 13040101 		addi	s0,sp,16
 354              		.cfi_def_cfa 8, 0
  65:src/TCB.cpp   ****     mem_free(ptr);
 355              		.loc 1 65 5
 356              		.loc 1 65 13 is_stmt 0
 357 020c 97000000 		call	_Z8mem_freePv@plt
 357      E7800000 
 358              	.LVL30:
  66:src/TCB.cpp   **** }
 359              		.loc 1 66 1
 360 0214 83308100 		ld	ra,8(sp)
 361              		.cfi_restore 1
 362 0218 03340100 		ld	s0,0(sp)
 363              		.cfi_restore 8
 364              		.cfi_def_cfa 2, 16
 365 021c 13010101 		addi	sp,sp,16
 366              		.cfi_def_cfa_offset 0
 367 0220 67800000 		jr	ra
 368              		.cfi_endproc
 369              	.LFE57:
 371              		.align	2
 372              		.globl	_ZN3TCB10threadJoinEPS_
 374              	_ZN3TCB10threadJoinEPS_:
 375              	.LFB58:
  67:src/TCB.cpp   **** 
  68:src/TCB.cpp   **** void TCB::threadJoin(TCB* handle) {
 376              		.loc 1 68 35 is_stmt 1
 377              		.cfi_startproc
 378              	.LVL31:
  69:src/TCB.cpp   ****     if (handle->status == FINISHED || TCB::running == handle) return;
 379              		.loc 1 69 5
 380              		.loc 1 69 17 is_stmt 0
 381 0224 03278505 		lw	a4,88(a0)
 382              		.loc 1 69 5
 383 0228 93075000 		li	a5,5
 384 022c 6302F704 		beq	a4,a5,.L27
 385              		.loc 1 69 52 discriminator 2
 386 0230 97050000 		ld	a1,.LANCHOR0
 386      83B50500 
 387              		.loc 1 69 36 discriminator 2
 388 0238 638CA502 		beq	a1,a0,.L27
  68:src/TCB.cpp   ****     if (handle->status == FINISHED || TCB::running == handle) return;
 389              		.loc 1 68 35
 390 023c 130101FF 		addi	sp,sp,-16
 391              		.cfi_def_cfa_offset 16
 392 0240 23341100 		sd	ra,8(sp)
GAS LISTING /tmp/ccOR5UrX.s 			page 14


 393 0244 23308100 		sd	s0,0(sp)
 394              		.cfi_offset 1, -8
 395              		.cfi_offset 8, -16
 396 0248 13040101 		addi	s0,sp,16
 397              		.cfi_def_cfa 8, 0
  70:src/TCB.cpp   ****     TCB::running->status = JOINING;
 398              		.loc 1 70 5 is_stmt 1
 399              		.loc 1 70 26 is_stmt 0
 400 024c 93073000 		li	a5,3
 401 0250 23ACF504 		sw	a5,88(a1)
  71:src/TCB.cpp   ****     handle->waitingToJoin.putLast(TCB::running);
 402              		.loc 1 71 5 is_stmt 1
 403              		.loc 1 71 34 is_stmt 0
 404 0254 13058504 		addi	a0,a0,72
 405              	.LVL32:
 406 0258 97000000 		call	_ZN11ThreadQueue7putLastEP3TCB@plt
 406      E7800000 
 407              	.LVL33:
  72:src/TCB.cpp   **** }
 408              		.loc 1 72 1
 409 0260 83308100 		ld	ra,8(sp)
 410              		.cfi_restore 1
 411 0264 03340100 		ld	s0,0(sp)
 412              		.cfi_restore 8
 413              		.cfi_def_cfa 2, 16
 414 0268 13010101 		addi	sp,sp,16
 415              		.cfi_def_cfa_offset 0
 416 026c 67800000 		jr	ra
 417              	.LVL34:
 418              	.L27:
 419 0270 67800000 		ret
 420              		.cfi_endproc
 421              	.LFE58:
 423              		.align	2
 424              		.globl	_ZN3TCB13releaseJoinedEPS_
 426              	_ZN3TCB13releaseJoinedEPS_:
 427              	.LFB59:
  73:src/TCB.cpp   **** 
  74:src/TCB.cpp   **** void TCB::releaseJoined(TCB* handle) {
 428              		.loc 1 74 38 is_stmt 1
 429              		.cfi_startproc
 430              	.LVL35:
 431 0274 130101FE 		addi	sp,sp,-32
 432              		.cfi_def_cfa_offset 32
 433 0278 233C1100 		sd	ra,24(sp)
 434 027c 23388100 		sd	s0,16(sp)
 435 0280 23349100 		sd	s1,8(sp)
 436              		.cfi_offset 1, -8
 437              		.cfi_offset 8, -16
 438              		.cfi_offset 9, -24
 439 0284 13040102 		addi	s0,sp,32
 440              		.cfi_def_cfa 8, 0
 441 0288 93040500 		mv	s1,a0
 442              	.LVL36:
 443              	.L32:
  75:src/TCB.cpp   ****     while (!handle->waitingToJoin.isEmpty()) {
 444              		.loc 1 75 5
GAS LISTING /tmp/ccOR5UrX.s 			page 15


 445              		.loc 1 75 12
 446              	.LBB51:
 447              	.LBB52:
  34:src/../h/../h/ThreadQueue.hpp **** 
  35:src/../h/../h/ThreadQueue.hpp ****     ThreadQueue(const ThreadQueue &) = delete;
  36:src/../h/../h/ThreadQueue.hpp **** 
  37:src/../h/../h/ThreadQueue.hpp ****     ThreadQueue &operator=(const ThreadQueue &) = delete;
  38:src/../h/../h/ThreadQueue.hpp **** 
  39:src/../h/../h/ThreadQueue.hpp ****     ~ThreadQueue() {
  40:src/../h/../h/ThreadQueue.hpp ****         while (!isEmpty()) {
  41:src/../h/../h/ThreadQueue.hpp ****             Node* node = front;
  42:src/../h/../h/ThreadQueue.hpp ****             front = front->next;
  43:src/../h/../h/ThreadQueue.hpp ****             delete node;
  44:src/../h/../h/ThreadQueue.hpp ****         }
  45:src/../h/../h/ThreadQueue.hpp ****     }
  46:src/../h/../h/ThreadQueue.hpp **** 
  47:src/../h/../h/ThreadQueue.hpp ****     bool isEmpty() const {
  48:src/../h/../h/ThreadQueue.hpp ****         return front == nullptr;
 448              		.loc 4 48 9
 449              		.loc 4 48 16 is_stmt 0
 450 028c 83B78404 		ld	a5,72(s1)
 451              	.LVL37:
 452              	.LBE52:
 453              	.LBE51:
 454              		.loc 1 75 12
 455 0290 638E0700 		beqz	a5,.L30
 456              	.LBB53:
  76:src/TCB.cpp   ****         TCB* tcb = handle->waitingToJoin.getFirst();
 457              		.loc 1 76 9 is_stmt 1
 458              		.loc 1 76 50 is_stmt 0
 459 0294 13858404 		addi	a0,s1,72
 460 0298 97000000 		call	_ZN11ThreadQueue8getFirstEv@plt
 460      E7800000 
 461              	.LVL38:
  77:src/TCB.cpp   ****         Scheduler::put(tcb);
 462              		.loc 1 77 9 is_stmt 1
 463              		.loc 1 77 23 is_stmt 0
 464 02a0 97000000 		call	_ZN9Scheduler3putEP3TCB@plt
 464      E7800000 
 465              	.LVL39:
 466              	.LBE53:
  75:src/TCB.cpp   ****         TCB* tcb = handle->waitingToJoin.getFirst();
 467              		.loc 1 75 5
 468 02a8 6FF05FFE 		j	.L32
 469              	.L30:
  78:src/TCB.cpp   ****     }
  79:src/TCB.cpp   **** }
 470              		.loc 1 79 1
 471 02ac 83308101 		ld	ra,24(sp)
 472              		.cfi_restore 1
 473 02b0 03340101 		ld	s0,16(sp)
 474              		.cfi_restore 8
 475              		.cfi_def_cfa 2, 32
 476 02b4 83348100 		ld	s1,8(sp)
 477              		.cfi_restore 9
 478              	.LVL40:
 479 02b8 13010102 		addi	sp,sp,32
GAS LISTING /tmp/ccOR5UrX.s 			page 16


 480              		.cfi_def_cfa_offset 0
 481 02bc 67800000 		jr	ra
 482              		.cfi_endproc
 483              	.LFE59:
 485              		.align	2
 486              		.globl	_ZN3TCB10quitThreadEPS_
 488              	_ZN3TCB10quitThreadEPS_:
 489              	.LFB60:
  80:src/TCB.cpp   **** 
  81:src/TCB.cpp   **** void TCB::quitThread(TCB* handle) {
 490              		.loc 1 81 35 is_stmt 1
 491              		.cfi_startproc
 492              	.LVL41:
 493 02c0 130101FE 		addi	sp,sp,-32
 494              		.cfi_def_cfa_offset 32
 495 02c4 233C1100 		sd	ra,24(sp)
 496 02c8 23388100 		sd	s0,16(sp)
 497 02cc 23349100 		sd	s1,8(sp)
 498              		.cfi_offset 1, -8
 499              		.cfi_offset 8, -16
 500              		.cfi_offset 9, -24
 501 02d0 13040102 		addi	s0,sp,32
 502              		.cfi_def_cfa 8, 0
 503 02d4 93040500 		mv	s1,a0
  82:src/TCB.cpp   ****     TCB* prev, * curr;
 504              		.loc 1 82 5
  83:src/TCB.cpp   ****     switch (handle->status) {
 505              		.loc 1 83 5
 506              		.loc 1 83 21 is_stmt 0
 507 02d8 83278505 		lw	a5,88(a0)
 508              		.loc 1 83 5
 509 02dc 13073000 		li	a4,3
 510 02e0 6380E710 		beq	a5,a4,.L35
 511 02e4 6362F704 		bgtu	a5,a4,.L36
 512 02e8 13071000 		li	a4,1
 513 02ec 6382E706 		beq	a5,a4,.L37
 514 02f0 13072000 		li	a4,2
 515 02f4 639EE708 		bne	a5,a4,.L39
  84:src/TCB.cpp   ****         case CREATED:
  85:src/TCB.cpp   ****             break;
  86:src/TCB.cpp   ****         case ACTIVE:
  87:src/TCB.cpp   ****             //nit je u Scheduler-u, treba da se izbaci nit i preveze Scheduler
  88:src/TCB.cpp   ****             for (prev = nullptr, curr = Scheduler::getHead();
  89:src/TCB.cpp   ****                  curr != handle; prev = curr, curr = curr->nextInScheduler);
  90:src/TCB.cpp   ****             if (!prev) {
  91:src/TCB.cpp   ****                 Scheduler::setHead(curr->nextInScheduler);
  92:src/TCB.cpp   ****             } else {
  93:src/TCB.cpp   ****                 prev->nextInScheduler = curr->nextInScheduler;
  94:src/TCB.cpp   ****             }
  95:src/TCB.cpp   ****             if (curr == Scheduler::getTail()) {
  96:src/TCB.cpp   ****                 Scheduler::setTail(prev);
  97:src/TCB.cpp   ****             }
  98:src/TCB.cpp   ****             curr->nextInScheduler = nullptr;
  99:src/TCB.cpp   ****             break;
 100:src/TCB.cpp   ****         case BLOCKED:
 516              		.loc 1 100 9 is_stmt 1
 101:src/TCB.cpp   ****             //nit blokirana na semaforu, treba da se izbaci iz reda blokiranih na semaforu
GAS LISTING /tmp/ccOR5UrX.s 			page 17


 102:src/TCB.cpp   ****             if (handle->mySemaphore->getBlocked()->remove(handle) < 0) {
 517              		.loc 1 102 13
 518              		.loc 1 102 25 is_stmt 0
 519 02f8 03350506 		ld	a0,96(a0)
 520              	.LVL42:
 521              	.LBB54:
 522              	.LBB55:
 523              		.file 5 "src/../h/KSem.hpp"
   1:src/../h/KSem.hpp **** //
   2:src/../h/KSem.hpp **** // Created by os on 6/4/23.
   3:src/../h/KSem.hpp **** //
   4:src/../h/KSem.hpp **** 
   5:src/../h/KSem.hpp **** #ifndef PROJEKAT2023_KSEM_HPP
   6:src/../h/KSem.hpp **** #define PROJEKAT2023_KSEM_HPP
   7:src/../h/KSem.hpp **** 
   8:src/../h/KSem.hpp **** #include "../h/ThreadQueue.hpp"
   9:src/../h/KSem.hpp **** 
  10:src/../h/KSem.hpp **** //klasa napravljena po uzoru na semafor u skolskom jezgru
  11:src/../h/KSem.hpp **** class KSem {
  12:src/../h/KSem.hpp **** public:
  13:src/../h/KSem.hpp ****     static KSem* initSem(uint val);
  14:src/../h/KSem.hpp **** 
  15:src/../h/KSem.hpp ****     int wait();
  16:src/../h/KSem.hpp **** 
  17:src/../h/KSem.hpp ****     int signal();
  18:src/../h/KSem.hpp **** 
  19:src/../h/KSem.hpp ****     //deaktiviranje semafora i oslobadjanje svih niti koje cekaju na njemu
  20:src/../h/KSem.hpp ****     static int closeSem(sem_t handle);
  21:src/../h/KSem.hpp **** 
  22:src/../h/KSem.hpp ****     static void* operator new(size_t size);
  23:src/../h/KSem.hpp **** 
  24:src/../h/KSem.hpp ****     static void operator delete(void* ptr);
  25:src/../h/KSem.hpp **** 
  26:src/../h/KSem.hpp ****     ThreadQueue* getBlocked() { return &blocked; }
 524              		.loc 5 26 33 is_stmt 1
 525              	.LBE55:
 526              	.LBE54:
 527              		.loc 1 102 58 is_stmt 0
 528 02fc 93850400 		mv	a1,s1
 529 0300 13058500 		addi	a0,a0,8
 530 0304 97000000 		call	_ZN11ThreadQueue6removeEP3TCB@plt
 530      E7800000 
 531              	.LVL43:
 532              		.loc 1 102 13
 533 030c 63420508 		bltz	a0,.L39
 103:src/TCB.cpp   ****                 //greska
 104:src/TCB.cpp   ****             } else {
 105:src/TCB.cpp   ****                 handle->mySemaphore->increaseVal(1);
 534              		.loc 1 105 17 is_stmt 1
 535              		.loc 1 105 25 is_stmt 0
 536 0310 03B70406 		ld	a4,96(s1)
 537              	.LVL44:
 538              	.LBB56:
 539              	.LBB57:
  27:src/../h/KSem.hpp **** 
  28:src/../h/KSem.hpp ****     void increaseVal(int add) { val += add; }
 540              		.loc 5 28 33 is_stmt 1
GAS LISTING /tmp/ccOR5UrX.s 			page 18


 541              		.loc 5 28 37 is_stmt 0
 542 0314 83270700 		lw	a5,0(a4)
 543 0318 9B871700 		addiw	a5,a5,1
 544 031c 2320F700 		sw	a5,0(a4)
 545              	.LVL45:
 546              	.LBE57:
 547              	.LBE56:
 106:src/TCB.cpp   ****                 handle->mySemaphore = nullptr;
 548              		.loc 1 106 17 is_stmt 1
 549              		.loc 1 106 37 is_stmt 0
 550 0320 23B00406 		sd	zero,96(s1)
 551 0324 6F00C006 		j	.L39
 552              	.L36:
  83:src/TCB.cpp   ****         case CREATED:
 553              		.loc 1 83 5
 554 0328 13074000 		li	a4,4
 555 032c 6392E706 		bne	a5,a4,.L39
 107:src/TCB.cpp   ****             }
 108:src/TCB.cpp   ****             break;
 109:src/TCB.cpp   ****         case JOINING:
 110:src/TCB.cpp   ****             //nit ceka da se neka druga nit zavrsi
 111:src/TCB.cpp   ****             if (handle->joiningWithTCB->getListOfJoiningThreads()->remove(handle) < 0) {
 112:src/TCB.cpp   ****                 //greska
 113:src/TCB.cpp   ****             } else {
 114:src/TCB.cpp   ****                 handle->joiningWithTCB = nullptr;
 115:src/TCB.cpp   ****             }
 116:src/TCB.cpp   ****             break;
 117:src/TCB.cpp   ****         case SLEEPING:
 556              		.loc 1 117 9 is_stmt 1
 118:src/TCB.cpp   ****             //nit je u redu uspavanih, treba da se izbaci
 119:src/TCB.cpp   ****             for (prev = nullptr, curr = Scheduler::getSleepingHead();
 557              		.loc 1 119 13
 558              	.LVL46:
 559              	.LBB58:
 560              	.LBB59:
 561              		.file 6 "src/../h/Scheduler.hpp"
   1:src/../h/Scheduler.hpp **** //
   2:src/../h/Scheduler.hpp **** // Created by os on 5/25/23.
   3:src/../h/Scheduler.hpp **** //
   4:src/../h/Scheduler.hpp **** 
   5:src/../h/Scheduler.hpp **** #ifndef PROJEKAT2023_SCHEDULER_HPP
   6:src/../h/Scheduler.hpp **** #define PROJEKAT2023_SCHEDULER_HPP
   7:src/../h/Scheduler.hpp **** 
   8:src/../h/Scheduler.hpp **** class TCB;
   9:src/../h/Scheduler.hpp **** 
  10:src/../h/Scheduler.hpp **** typedef unsigned long time_t;
  11:src/../h/Scheduler.hpp **** 
  12:src/../h/Scheduler.hpp **** class Scheduler {
  13:src/../h/Scheduler.hpp **** private:
  14:src/../h/Scheduler.hpp ****     static TCB* head, * tail;
  15:src/../h/Scheduler.hpp ****     static TCB* sleepingHead;
  16:src/../h/Scheduler.hpp **** 
  17:src/../h/Scheduler.hpp ****     Scheduler() {}
  18:src/../h/Scheduler.hpp **** 
  19:src/../h/Scheduler.hpp **** public:
  20:src/../h/Scheduler.hpp ****     //stavljanje na kraj reda aktivnih niti
  21:src/../h/Scheduler.hpp ****     static void put(TCB* tcb);
GAS LISTING /tmp/ccOR5UrX.s 			page 19


  22:src/../h/Scheduler.hpp **** 
  23:src/../h/Scheduler.hpp ****     //uzimanje sa pocetka reda aktivnih niti
  24:src/../h/Scheduler.hpp ****     static TCB* get();
  25:src/../h/Scheduler.hpp **** 
  26:src/../h/Scheduler.hpp ****     //stavljanje u red uspavanih niti
  27:src/../h/Scheduler.hpp ****     static void putToSleep(TCB* tcb, time_t sleepTime);
  28:src/../h/Scheduler.hpp **** 
  29:src/../h/Scheduler.hpp ****     //azuriranje vrednosti u redu uspavanih niti, budjenje niti po potrebi
  30:src/../h/Scheduler.hpp ****     static void wake();
  31:src/../h/Scheduler.hpp **** 
  32:src/../h/Scheduler.hpp ****     static TCB* getHead() { return head; }
  33:src/../h/Scheduler.hpp **** 
  34:src/../h/Scheduler.hpp ****     static void setHead(TCB* tcb) { head = tcb; }
  35:src/../h/Scheduler.hpp **** 
  36:src/../h/Scheduler.hpp ****     static TCB* getTail() { return tail; }
  37:src/../h/Scheduler.hpp **** 
  38:src/../h/Scheduler.hpp ****     static void setTail(TCB* tcb) { tail = tcb; }
  39:src/../h/Scheduler.hpp **** 
  40:src/../h/Scheduler.hpp ****     static TCB* getSleepingHead() { return sleepingHead; }
 562              		.loc 6 40 37
 563              		.loc 6 40 44 is_stmt 0
 564 0330 97070000 		la	a5,_ZN9Scheduler12sleepingHeadE
 564      83B70700 
 565 0338 83B70700 		ld	a5,0(a5)
 566              	.LVL47:
 567              	.LBE59:
 568              	.LBE58:
 569              		.loc 1 119 23
 570 033c 13070000 		li	a4,0
 571              	.LVL48:
 572              	.L47:
 120:src/TCB.cpp   ****                  curr != handle; prev = curr, curr = curr->nextSleeping);
 573              		.loc 1 120 23 is_stmt 1 discriminator 2
 574 0340 6380970C 		beq	a5,s1,.L46
 119:src/TCB.cpp   ****                  curr != handle; prev = curr, curr = curr->nextSleeping);
 575              		.loc 1 119 13 discriminator 1
 576              	.LVL49:
 577              		.loc 1 120 39 is_stmt 0 discriminator 1
 578 0344 13870700 		mv	a4,a5
 579              		.loc 1 120 52 discriminator 1
 580 0348 83B70704 		ld	a5,64(a5)
 581              	.LVL50:
 119:src/TCB.cpp   ****                  curr != handle; prev = curr, curr = curr->nextSleeping);
 582              		.loc 1 119 13 discriminator 1
 583 034c 6FF05FFF 		j	.L47
 584              	.LVL51:
 585              	.L37:
  86:src/TCB.cpp   ****             //nit je u Scheduler-u, treba da se izbaci nit i preveze Scheduler
 586              		.loc 1 86 9 is_stmt 1
  88:src/TCB.cpp   ****                  curr != handle; prev = curr, curr = curr->nextInScheduler);
 587              		.loc 1 88 13
 588              	.LBB60:
 589              	.LBB61:
  32:src/../h/Scheduler.hpp **** 
 590              		.loc 6 32 29
  32:src/../h/Scheduler.hpp **** 
 591              		.loc 6 32 36 is_stmt 0
GAS LISTING /tmp/ccOR5UrX.s 			page 20


 592 0350 97070000 		la	a5,_ZN9Scheduler4headE
 592      83B70700 
 593 0358 83B70700 		ld	a5,0(a5)
 594              	.LVL52:
 595              	.LBE61:
 596              	.LBE60:
  88:src/TCB.cpp   ****                  curr != handle; prev = curr, curr = curr->nextInScheduler);
 597              		.loc 1 88 23
 598 035c 13070000 		li	a4,0
 599              	.LVL53:
 600              	.L42:
  89:src/TCB.cpp   ****             if (!prev) {
 601              		.loc 1 89 23 is_stmt 1 discriminator 2
 602 0360 63889700 		beq	a5,s1,.L41
  88:src/TCB.cpp   ****                  curr != handle; prev = curr, curr = curr->nextInScheduler);
 603              		.loc 1 88 13 discriminator 1
 604              	.LVL54:
  89:src/TCB.cpp   ****             if (!prev) {
 605              		.loc 1 89 39 is_stmt 0 discriminator 1
 606 0364 13870700 		mv	a4,a5
  89:src/TCB.cpp   ****             if (!prev) {
 607              		.loc 1 89 52 discriminator 1
 608 0368 83B70703 		ld	a5,48(a5)
 609              	.LVL55:
  88:src/TCB.cpp   ****                  curr != handle; prev = curr, curr = curr->nextInScheduler);
 610              		.loc 1 88 13 discriminator 1
 611 036c 6FF05FFF 		j	.L42
 612              	.L41:
  90:src/TCB.cpp   ****                 Scheduler::setHead(curr->nextInScheduler);
 613              		.loc 1 90 13 is_stmt 1
 614 0370 63060704 		beqz	a4,.L53
  93:src/TCB.cpp   ****             }
 615              		.loc 1 93 17
  93:src/TCB.cpp   ****             }
 616              		.loc 1 93 47 is_stmt 0
 617 0374 83B60703 		ld	a3,48(a5)
  93:src/TCB.cpp   ****             }
 618              		.loc 1 93 39
 619 0378 2338D702 		sd	a3,48(a4)
 620              	.L44:
  95:src/TCB.cpp   ****                 Scheduler::setTail(prev);
 621              		.loc 1 95 13 is_stmt 1
 622              	.LBB62:
 623              	.LBB63:
  36:src/../h/Scheduler.hpp **** 
 624              		.loc 6 36 29
  36:src/../h/Scheduler.hpp **** 
 625              		.loc 6 36 36 is_stmt 0
 626 037c 97060000 		la	a3,_ZN9Scheduler4tailE
 626      83B60600 
 627 0384 83B60600 		ld	a3,0(a3)
 628              	.LBE63:
 629              	.LBE62:
  95:src/TCB.cpp   ****                 Scheduler::setTail(prev);
 630              		.loc 1 95 13
 631 0388 6384D704 		beq	a5,a3,.L54
 632              	.L45:
GAS LISTING /tmp/ccOR5UrX.s 			page 21


  98:src/TCB.cpp   ****             break;
 633              		.loc 1 98 13 is_stmt 1
  98:src/TCB.cpp   ****             break;
 634              		.loc 1 98 35 is_stmt 0
 635 038c 23B80702 		sd	zero,48(a5)
  99:src/TCB.cpp   ****         case BLOCKED:
 636              		.loc 1 99 13 is_stmt 1
 637              	.LVL56:
 638              	.L39:
 121:src/TCB.cpp   ****             if (!prev) {
 122:src/TCB.cpp   ****                 Scheduler::setSleepingHead(curr->nextSleeping);
 123:src/TCB.cpp   ****             } else {
 124:src/TCB.cpp   ****                 prev->nextSleeping = curr->nextSleeping;
 125:src/TCB.cpp   ****             }
 126:src/TCB.cpp   ****             if (curr->nextSleeping) {
 127:src/TCB.cpp   ****                 curr->nextSleeping->timeToSleep += curr->timeToSleep;
 128:src/TCB.cpp   ****             }
 129:src/TCB.cpp   ****             curr->timeToSleep = 0;
 130:src/TCB.cpp   ****             curr->nextSleeping = nullptr;
 131:src/TCB.cpp   ****             break;
 132:src/TCB.cpp   ****         case FINISHED:
 133:src/TCB.cpp   ****             break;
 134:src/TCB.cpp   ****         default:
 135:src/TCB.cpp   ****             break;
 136:src/TCB.cpp   ****     }
 137:src/TCB.cpp   ****     handle->status = FINISHED;
 639              		.loc 1 137 5
 640              		.loc 1 137 20 is_stmt 0
 641 0390 93075000 		li	a5,5
 642 0394 23ACF404 		sw	a5,88(s1)
 138:src/TCB.cpp   ****     delete handle->stack;
 643              		.loc 1 138 5 is_stmt 1
 644              		.loc 1 138 20 is_stmt 0
 645 0398 03B58401 		ld	a0,24(s1)
 646              		.loc 1 138 25
 647 039c 63060500 		beqz	a0,.L34
 648              		.loc 1 138 20 discriminator 1
 649 03a0 97000000 		call	_ZdlPv@plt
 649      E7800000 
 650              	.LVL57:
 651              	.L34:
 139:src/TCB.cpp   **** }
 652              		.loc 1 139 1
 653 03a8 83308101 		ld	ra,24(sp)
 654              		.cfi_remember_state
 655              		.cfi_restore 1
 656 03ac 03340101 		ld	s0,16(sp)
 657              		.cfi_restore 8
 658              		.cfi_def_cfa 2, 32
 659 03b0 83348100 		ld	s1,8(sp)
 660              		.cfi_restore 9
 661              	.LVL58:
 662 03b4 13010102 		addi	sp,sp,32
 663              		.cfi_def_cfa_offset 0
 664 03b8 67800000 		jr	ra
 665              	.LVL59:
 666              	.L53:
GAS LISTING /tmp/ccOR5UrX.s 			page 22


 667              		.cfi_restore_state
  91:src/TCB.cpp   ****             } else {
 668              		.loc 1 91 17 is_stmt 1
  91:src/TCB.cpp   ****             } else {
 669              		.loc 1 91 35 is_stmt 0
 670 03bc 03B60703 		ld	a2,48(a5)
 671              	.LVL60:
 672              	.LBB64:
 673              	.LBB65:
  34:src/../h/Scheduler.hpp **** 
 674              		.loc 6 34 37 is_stmt 1
  34:src/../h/Scheduler.hpp **** 
 675              		.loc 6 34 42 is_stmt 0
 676 03c0 97060000 		la	a3,_ZN9Scheduler4headE
 676      83B60600 
 677 03c8 23B0C600 		sd	a2,0(a3)
  34:src/../h/Scheduler.hpp **** 
 678              		.loc 6 34 49
 679 03cc 6FF01FFB 		j	.L44
 680              	.LVL61:
 681              	.L54:
 682              	.LBE65:
 683              	.LBE64:
  96:src/TCB.cpp   ****             }
 684              		.loc 1 96 17 is_stmt 1
 685              	.LBB66:
 686              	.LBB67:
  38:src/../h/Scheduler.hpp **** 
 687              		.loc 6 38 37
  38:src/../h/Scheduler.hpp **** 
 688              		.loc 6 38 42 is_stmt 0
 689 03d0 97060000 		la	a3,_ZN9Scheduler4tailE
 689      83B60600 
 690 03d8 23B0E600 		sd	a4,0(a3)
  38:src/../h/Scheduler.hpp **** 
 691              		.loc 6 38 49
 692 03dc 6FF01FFB 		j	.L45
 693              	.LVL62:
 694              	.L35:
 695              	.LBE67:
 696              	.LBE66:
 109:src/TCB.cpp   ****             //nit ceka da se neka druga nit zavrsi
 697              		.loc 1 109 9 is_stmt 1
 111:src/TCB.cpp   ****                 //greska
 698              		.loc 1 111 13
 111:src/TCB.cpp   ****                 //greska
 699              		.loc 1 111 25 is_stmt 0
 700 03e0 03358506 		ld	a0,104(a0)
 701              	.LVL63:
 702              	.LBB68:
 703              	.LBB69:
  33:src/../h/TCB.hpp **** 
 704              		.loc 3 33 44 is_stmt 1
 705              	.LBE69:
 706              	.LBE68:
 111:src/TCB.cpp   ****                 //greska
 707              		.loc 1 111 74 is_stmt 0
GAS LISTING /tmp/ccOR5UrX.s 			page 23


 708 03e4 93850400 		mv	a1,s1
 709 03e8 13058504 		addi	a0,a0,72
 710 03ec 97000000 		call	_ZN11ThreadQueue6removeEP3TCB@plt
 710      E7800000 
 711              	.LVL64:
 111:src/TCB.cpp   ****                 //greska
 712              		.loc 1 111 13
 713 03f4 E34E05F8 		bltz	a0,.L39
 114:src/TCB.cpp   ****             }
 714              		.loc 1 114 17 is_stmt 1
 114:src/TCB.cpp   ****             }
 715              		.loc 1 114 40 is_stmt 0
 716 03f8 23B40406 		sd	zero,104(s1)
 717 03fc 6FF05FF9 		j	.L39
 718              	.LVL65:
 719              	.L46:
 121:src/TCB.cpp   ****                 Scheduler::setSleepingHead(curr->nextSleeping);
 720              		.loc 1 121 13 is_stmt 1
 721 0400 63080702 		beqz	a4,.L55
 124:src/TCB.cpp   ****             }
 722              		.loc 1 124 17
 124:src/TCB.cpp   ****             }
 723              		.loc 1 124 44 is_stmt 0
 724 0404 83B60704 		ld	a3,64(a5)
 124:src/TCB.cpp   ****             }
 725              		.loc 1 124 36
 726 0408 2330D704 		sd	a3,64(a4)
 727              	.LVL66:
 728              	.L49:
 126:src/TCB.cpp   ****                 curr->nextSleeping->timeToSleep += curr->timeToSleep;
 729              		.loc 1 126 13 is_stmt 1
 126:src/TCB.cpp   ****                 curr->nextSleeping->timeToSleep += curr->timeToSleep;
 730              		.loc 1 126 23 is_stmt 0
 731 040c 03B70704 		ld	a4,64(a5)
 126:src/TCB.cpp   ****                 curr->nextSleeping->timeToSleep += curr->timeToSleep;
 732              		.loc 1 126 13
 733 0410 630A0700 		beqz	a4,.L50
 127:src/TCB.cpp   ****             }
 734              		.loc 1 127 17 is_stmt 1
 127:src/TCB.cpp   ****             }
 735              		.loc 1 127 58 is_stmt 0
 736 0414 03B68703 		ld	a2,56(a5)
 127:src/TCB.cpp   ****             }
 737              		.loc 1 127 49
 738 0418 83368703 		ld	a3,56(a4)
 739 041c B386C600 		add	a3,a3,a2
 740 0420 233CD702 		sd	a3,56(a4)
 741              	.L50:
 129:src/TCB.cpp   ****             curr->nextSleeping = nullptr;
 742              		.loc 1 129 13 is_stmt 1
 129:src/TCB.cpp   ****             curr->nextSleeping = nullptr;
 743              		.loc 1 129 31 is_stmt 0
 744 0424 23BC0702 		sd	zero,56(a5)
 130:src/TCB.cpp   ****             break;
 745              		.loc 1 130 13 is_stmt 1
 130:src/TCB.cpp   ****             break;
 746              		.loc 1 130 32 is_stmt 0
GAS LISTING /tmp/ccOR5UrX.s 			page 24


 747 0428 23B00704 		sd	zero,64(a5)
 131:src/TCB.cpp   ****         case FINISHED:
 748              		.loc 1 131 13 is_stmt 1
 749 042c 6FF05FF6 		j	.L39
 750              	.LVL67:
 751              	.L55:
 122:src/TCB.cpp   ****             } else {
 752              		.loc 1 122 17
 122:src/TCB.cpp   ****             } else {
 753              		.loc 1 122 43 is_stmt 0
 754 0430 83B60704 		ld	a3,64(a5)
 755              	.LVL68:
 756              	.LBB70:
 757              	.LBB71:
  41:src/../h/Scheduler.hpp **** 
  42:src/../h/Scheduler.hpp ****     static void setSleepingHead(TCB* tcb) { sleepingHead = tcb; }
 758              		.loc 6 42 45 is_stmt 1
 759              		.loc 6 42 58 is_stmt 0
 760 0434 17070000 		la	a4,_ZN9Scheduler12sleepingHeadE
 760      03370700 
 761              	.LVL69:
 762 043c 2330D700 		sd	a3,0(a4)
 763              		.loc 6 42 65
 764 0440 6FF0DFFC 		j	.L49
 765              	.LBE71:
 766              	.LBE70:
 767              		.cfi_endproc
 768              	.LFE60:
 770              		.globl	_ZN3TCB16runningTimeSliceE
 771              		.globl	_ZN3TCB7runningE
 772              		.bss
 773              		.align	3
 774              		.set	.LANCHOR0,. + 0
 777              	_ZN3TCB7runningE:
 778 0000 00000000 		.zero	8
 778      00000000 
 781              	_ZN3TCB16runningTimeSliceE:
 782 0008 00000000 		.zero	8
 782      00000000 
 783              		.text
 784              	.Letext0:
 785              		.file 7 "src/../h/../lib/hw.h"
 786              		.file 8 "src/../h/../h/../h/syscall_c.hpp"
GAS LISTING /tmp/ccOR5UrX.s 			page 25


DEFINED SYMBOLS
                            *ABS*:0000000000000000 TCB.cpp
     /tmp/ccOR5UrX.s:9      .text:0000000000000000 _ZN3TCB7wrapperEv
     /tmp/ccOR5UrX.s:13     .text:0000000000000000 .L0 
     /tmp/ccOR5UrX.s:14     .text:0000000000000000 .L0 
     /tmp/ccOR5UrX.s:15     .text:0000000000000004 .L0 
     /tmp/ccOR5UrX.s:18     .text:000000000000000c .L0 
     /tmp/ccOR5UrX.s:19     .text:000000000000000c .L0 
     /tmp/ccOR5UrX.s:21     .text:0000000000000010 .L0 
     /tmp/ccOR5UrX.s:23     .text:0000000000000010 .L0 
     /tmp/ccOR5UrX.s:24     .text:0000000000000010 .L0 
     /tmp/ccOR5UrX.s:27     .text:0000000000000018 .L0 
     /tmp/ccOR5UrX.s:28     .text:0000000000000018 .L0 
     /tmp/ccOR5UrX.s:31     .text:0000000000000024 .L0 
     /tmp/ccOR5UrX.s:35     .text:000000000000002c .L0 
     /tmp/ccOR5UrX.s:36     .text:000000000000002c .L0 
     /tmp/ccOR5UrX.s:39     .text:0000000000000034 .L0 
     /tmp/ccOR5UrX.s:40     .text:0000000000000038 .L0 
     /tmp/ccOR5UrX.s:42     .text:000000000000003c .L0 
     /tmp/ccOR5UrX.s:43     .text:000000000000003c .L0 
     /tmp/ccOR5UrX.s:45     .text:0000000000000040 .L0 
     /tmp/ccOR5UrX.s:47     .text:0000000000000044 .L0 
     /tmp/ccOR5UrX.s:53     .text:0000000000000044 _ZN3TCB8dispatchEv
     /tmp/ccOR5UrX.s:56     .text:0000000000000044 .L0 
     /tmp/ccOR5UrX.s:57     .text:0000000000000044 .L0 
     /tmp/ccOR5UrX.s:58     .text:0000000000000048 .L0 
     /tmp/ccOR5UrX.s:62     .text:0000000000000054 .L0 
     /tmp/ccOR5UrX.s:63     .text:0000000000000054 .L0 
     /tmp/ccOR5UrX.s:64     .text:0000000000000054 .L0 
     /tmp/ccOR5UrX.s:66     .text:0000000000000058 .L0 
     /tmp/ccOR5UrX.s:68     .text:0000000000000058 .L0 
     /tmp/ccOR5UrX.s:69     .text:0000000000000058 .L0 
     /tmp/ccOR5UrX.s:72     .text:0000000000000060 .L0 
     /tmp/ccOR5UrX.s:73     .text:0000000000000060 .L0 
     /tmp/ccOR5UrX.s:75     .text:0000000000000064 .L0 
     /tmp/ccOR5UrX.s:78     .text:000000000000006c .L0 
     /tmp/ccOR5UrX.s:82     .text:0000000000000074 .L0 
     /tmp/ccOR5UrX.s:83     .text:0000000000000074 .L0 
     /tmp/ccOR5UrX.s:87     .text:0000000000000080 .L0 
     /tmp/ccOR5UrX.s:90     .text:000000000000008c .L0 
     /tmp/ccOR5UrX.s:91     .text:000000000000008c .L0 
     /tmp/ccOR5UrX.s:93     .text:0000000000000090 .L0 
     /tmp/ccOR5UrX.s:94     .text:0000000000000090 .L0 
     /tmp/ccOR5UrX.s:96     .text:0000000000000094 .L0 
     /tmp/ccOR5UrX.s:99     .text:00000000000000a0 .L0 
     /tmp/ccOR5UrX.s:102    .text:00000000000000ac .L0 
     /tmp/ccOR5UrX.s:109    .text:00000000000000b8 .L0 
     /tmp/ccOR5UrX.s:110    .text:00000000000000b8 .L0 
     /tmp/ccOR5UrX.s:111    .text:00000000000000b8 .L0 
     /tmp/ccOR5UrX.s:118    .text:00000000000000c0 .L0 
     /tmp/ccOR5UrX.s:124    .text:00000000000000c4 .L0 
     /tmp/ccOR5UrX.s:125    .text:00000000000000c4 .L0 
     /tmp/ccOR5UrX.s:131    .text:00000000000000d4 .L0 
     /tmp/ccOR5UrX.s:132    .text:00000000000000d4 .L0 
     /tmp/ccOR5UrX.s:134    .text:00000000000000d8 .L0 
     /tmp/ccOR5UrX.s:136    .text:00000000000000dc .L0 
     /tmp/ccOR5UrX.s:140    .text:00000000000000e4 .L0 
GAS LISTING /tmp/ccOR5UrX.s 			page 26


     /tmp/ccOR5UrX.s:141    .text:00000000000000e4 .L0 
     /tmp/ccOR5UrX.s:148    .text:00000000000000ec .L0 
     /tmp/ccOR5UrX.s:149    .text:00000000000000ec .L0 
     /tmp/ccOR5UrX.s:150    .text:00000000000000ec .L0 
     /tmp/ccOR5UrX.s:161    .text:00000000000000f4 .L0 
     /tmp/ccOR5UrX.s:163    .text:00000000000000f8 .L0 
     /tmp/ccOR5UrX.s:164    .text:00000000000000f8 .L0 
     /tmp/ccOR5UrX.s:169    .text:0000000000000104 .L0 
     /tmp/ccOR5UrX.s:170    .text:0000000000000108 .L0 
     /tmp/ccOR5UrX.s:172    .text:000000000000010c .L0 
     /tmp/ccOR5UrX.s:173    .text:000000000000010c .L0 
     /tmp/ccOR5UrX.s:175    .text:0000000000000110 .L0 
     /tmp/ccOR5UrX.s:178    .text:0000000000000114 .L0 
     /tmp/ccOR5UrX.s:180    .text:0000000000000118 .L0 
     /tmp/ccOR5UrX.s:186    .text:0000000000000118 _ZN3TCBnwEm
     /tmp/ccOR5UrX.s:189    .text:0000000000000118 .L0 
     /tmp/ccOR5UrX.s:191    .text:0000000000000118 .L0 
     /tmp/ccOR5UrX.s:192    .text:000000000000011c .L0 
     /tmp/ccOR5UrX.s:195    .text:0000000000000124 .L0 
     /tmp/ccOR5UrX.s:196    .text:0000000000000124 .L0 
     /tmp/ccOR5UrX.s:198    .text:0000000000000128 .L0 
     /tmp/ccOR5UrX.s:200    .text:0000000000000128 .L0 
     /tmp/ccOR5UrX.s:201    .text:0000000000000128 .L0 
     /tmp/ccOR5UrX.s:204    .text:0000000000000130 .L0 
     /tmp/ccOR5UrX.s:205    .text:0000000000000134 .L0 
     /tmp/ccOR5UrX.s:207    .text:0000000000000138 .L0 
     /tmp/ccOR5UrX.s:208    .text:0000000000000138 .L0 
     /tmp/ccOR5UrX.s:210    .text:000000000000013c .L0 
     /tmp/ccOR5UrX.s:212    .text:0000000000000140 .L0 
     /tmp/ccOR5UrX.s:218    .text:0000000000000140 _ZN3TCB12createThreadEPFvPvES0_Pm
     /tmp/ccOR5UrX.s:221    .text:0000000000000140 .L0 
     /tmp/ccOR5UrX.s:223    .text:0000000000000140 .L0 
     /tmp/ccOR5UrX.s:224    .text:0000000000000144 .L0 
     /tmp/ccOR5UrX.s:230    .text:0000000000000158 .L0 
     /tmp/ccOR5UrX.s:231    .text:0000000000000158 .L0 
     /tmp/ccOR5UrX.s:232    .text:0000000000000158 .L0 
     /tmp/ccOR5UrX.s:233    .text:0000000000000158 .L0 
     /tmp/ccOR5UrX.s:234    .text:0000000000000158 .L0 
     /tmp/ccOR5UrX.s:236    .text:000000000000015c .L0 
     /tmp/ccOR5UrX.s:241    .text:0000000000000168 .L0 
     /tmp/ccOR5UrX.s:242    .text:0000000000000168 .L0 
     /tmp/ccOR5UrX.s:250    .text:0000000000000174 .L0 
     /tmp/ccOR5UrX.s:263    .text:0000000000000194 .L0 
     /tmp/ccOR5UrX.s:269    .text:000000000000019c .L0 
     /tmp/ccOR5UrX.s:274    .text:00000000000001a8 .L0 
     /tmp/ccOR5UrX.s:275    .text:00000000000001a8 .L0 
     /tmp/ccOR5UrX.s:281    .text:00000000000001bc .L0 
     /tmp/ccOR5UrX.s:282    .text:00000000000001bc .L0 
     /tmp/ccOR5UrX.s:284    .text:00000000000001c0 .L0 
     /tmp/ccOR5UrX.s:289    .text:00000000000001c8 .L0 
     /tmp/ccOR5UrX.s:290    .text:00000000000001c8 .L0 
     /tmp/ccOR5UrX.s:292    .text:00000000000001cc .L0 
     /tmp/ccOR5UrX.s:293    .text:00000000000001cc .L0 
     /tmp/ccOR5UrX.s:299    .text:00000000000001d0 .L0 
     /tmp/ccOR5UrX.s:300    .text:00000000000001d0 .L0 
     /tmp/ccOR5UrX.s:301    .text:00000000000001d4 .L0 
     /tmp/ccOR5UrX.s:302    .text:00000000000001d4 .L0 
GAS LISTING /tmp/ccOR5UrX.s 			page 27


     /tmp/ccOR5UrX.s:304    .text:00000000000001d8 .L0 
     /tmp/ccOR5UrX.s:305    .text:00000000000001d8 .L0 
     /tmp/ccOR5UrX.s:307    .text:00000000000001dc .L0 
     /tmp/ccOR5UrX.s:310    .text:00000000000001e0 .L0 
     /tmp/ccOR5UrX.s:313    .text:00000000000001e4 .L0 
     /tmp/ccOR5UrX.s:316    .text:00000000000001e8 .L0 
     /tmp/ccOR5UrX.s:320    .text:00000000000001ec .L0 
     /tmp/ccOR5UrX.s:325    .text:00000000000001ec .L0 
     /tmp/ccOR5UrX.s:330    .text:00000000000001f4 .L0 
     /tmp/ccOR5UrX.s:336    .text:00000000000001fc .L0 
     /tmp/ccOR5UrX.s:342    .text:00000000000001fc _ZN3TCBdlEPv
     /tmp/ccOR5UrX.s:345    .text:00000000000001fc .L0 
     /tmp/ccOR5UrX.s:347    .text:00000000000001fc .L0 
     /tmp/ccOR5UrX.s:348    .text:0000000000000200 .L0 
     /tmp/ccOR5UrX.s:351    .text:0000000000000208 .L0 
     /tmp/ccOR5UrX.s:352    .text:0000000000000208 .L0 
     /tmp/ccOR5UrX.s:354    .text:000000000000020c .L0 
     /tmp/ccOR5UrX.s:356    .text:000000000000020c .L0 
     /tmp/ccOR5UrX.s:357    .text:000000000000020c .L0 
     /tmp/ccOR5UrX.s:360    .text:0000000000000214 .L0 
     /tmp/ccOR5UrX.s:361    .text:0000000000000218 .L0 
     /tmp/ccOR5UrX.s:363    .text:000000000000021c .L0 
     /tmp/ccOR5UrX.s:364    .text:000000000000021c .L0 
     /tmp/ccOR5UrX.s:366    .text:0000000000000220 .L0 
     /tmp/ccOR5UrX.s:368    .text:0000000000000224 .L0 
     /tmp/ccOR5UrX.s:374    .text:0000000000000224 _ZN3TCB10threadJoinEPS_
     /tmp/ccOR5UrX.s:377    .text:0000000000000224 .L0 
     /tmp/ccOR5UrX.s:379    .text:0000000000000224 .L0 
     /tmp/ccOR5UrX.s:380    .text:0000000000000224 .L0 
     /tmp/ccOR5UrX.s:381    .text:0000000000000224 .L0 
     /tmp/ccOR5UrX.s:383    .text:0000000000000228 .L0 
     /tmp/ccOR5UrX.s:386    .text:0000000000000230 .L0 
     /tmp/ccOR5UrX.s:388    .text:0000000000000238 .L0 
     /tmp/ccOR5UrX.s:390    .text:000000000000023c .L0 
     /tmp/ccOR5UrX.s:391    .text:0000000000000240 .L0 
     /tmp/ccOR5UrX.s:394    .text:0000000000000248 .L0 
     /tmp/ccOR5UrX.s:395    .text:0000000000000248 .L0 
     /tmp/ccOR5UrX.s:397    .text:000000000000024c .L0 
     /tmp/ccOR5UrX.s:399    .text:000000000000024c .L0 
     /tmp/ccOR5UrX.s:400    .text:000000000000024c .L0 
     /tmp/ccOR5UrX.s:403    .text:0000000000000254 .L0 
     /tmp/ccOR5UrX.s:404    .text:0000000000000254 .L0 
     /tmp/ccOR5UrX.s:409    .text:0000000000000260 .L0 
     /tmp/ccOR5UrX.s:410    .text:0000000000000264 .L0 
     /tmp/ccOR5UrX.s:412    .text:0000000000000268 .L0 
     /tmp/ccOR5UrX.s:413    .text:0000000000000268 .L0 
     /tmp/ccOR5UrX.s:415    .text:000000000000026c .L0 
     /tmp/ccOR5UrX.s:420    .text:0000000000000274 .L0 
     /tmp/ccOR5UrX.s:426    .text:0000000000000274 _ZN3TCB13releaseJoinedEPS_
     /tmp/ccOR5UrX.s:429    .text:0000000000000274 .L0 
     /tmp/ccOR5UrX.s:431    .text:0000000000000274 .L0 
     /tmp/ccOR5UrX.s:432    .text:0000000000000278 .L0 
     /tmp/ccOR5UrX.s:436    .text:0000000000000284 .L0 
     /tmp/ccOR5UrX.s:437    .text:0000000000000284 .L0 
     /tmp/ccOR5UrX.s:438    .text:0000000000000284 .L0 
     /tmp/ccOR5UrX.s:440    .text:0000000000000288 .L0 
     /tmp/ccOR5UrX.s:445    .text:000000000000028c .L0 
GAS LISTING /tmp/ccOR5UrX.s 			page 28


     /tmp/ccOR5UrX.s:448    .text:000000000000028c .L0 
     /tmp/ccOR5UrX.s:449    .text:000000000000028c .L0 
     /tmp/ccOR5UrX.s:450    .text:000000000000028c .L0 
     /tmp/ccOR5UrX.s:455    .text:0000000000000290 .L0 
     /tmp/ccOR5UrX.s:458    .text:0000000000000294 .L0 
     /tmp/ccOR5UrX.s:459    .text:0000000000000294 .L0 
     /tmp/ccOR5UrX.s:463    .text:00000000000002a0 .L0 
     /tmp/ccOR5UrX.s:464    .text:00000000000002a0 .L0 
     /tmp/ccOR5UrX.s:468    .text:00000000000002a8 .L0 
     /tmp/ccOR5UrX.s:471    .text:00000000000002ac .L0 
     /tmp/ccOR5UrX.s:472    .text:00000000000002b0 .L0 
     /tmp/ccOR5UrX.s:474    .text:00000000000002b4 .L0 
     /tmp/ccOR5UrX.s:475    .text:00000000000002b4 .L0 
     /tmp/ccOR5UrX.s:477    .text:00000000000002b8 .L0 
     /tmp/ccOR5UrX.s:480    .text:00000000000002bc .L0 
     /tmp/ccOR5UrX.s:482    .text:00000000000002c0 .L0 
     /tmp/ccOR5UrX.s:488    .text:00000000000002c0 _ZN3TCB10quitThreadEPS_
     /tmp/ccOR5UrX.s:491    .text:00000000000002c0 .L0 
     /tmp/ccOR5UrX.s:493    .text:00000000000002c0 .L0 
     /tmp/ccOR5UrX.s:494    .text:00000000000002c4 .L0 
     /tmp/ccOR5UrX.s:498    .text:00000000000002d0 .L0 
     /tmp/ccOR5UrX.s:499    .text:00000000000002d0 .L0 
     /tmp/ccOR5UrX.s:500    .text:00000000000002d0 .L0 
     /tmp/ccOR5UrX.s:502    .text:00000000000002d4 .L0 
     /tmp/ccOR5UrX.s:505    .text:00000000000002d8 .L0 
     /tmp/ccOR5UrX.s:506    .text:00000000000002d8 .L0 
     /tmp/ccOR5UrX.s:507    .text:00000000000002d8 .L0 
     /tmp/ccOR5UrX.s:509    .text:00000000000002dc .L0 
     /tmp/ccOR5UrX.s:517    .text:00000000000002f8 .L0 
     /tmp/ccOR5UrX.s:518    .text:00000000000002f8 .L0 
     /tmp/ccOR5UrX.s:519    .text:00000000000002f8 .L0 
     /tmp/ccOR5UrX.s:527    .text:00000000000002fc .L0 
     /tmp/ccOR5UrX.s:528    .text:00000000000002fc .L0 
     /tmp/ccOR5UrX.s:533    .text:000000000000030c .L0 
     /tmp/ccOR5UrX.s:535    .text:0000000000000310 .L0 
     /tmp/ccOR5UrX.s:536    .text:0000000000000310 .L0 
     /tmp/ccOR5UrX.s:541    .text:0000000000000314 .L0 
     /tmp/ccOR5UrX.s:542    .text:0000000000000314 .L0 
     /tmp/ccOR5UrX.s:549    .text:0000000000000320 .L0 
     /tmp/ccOR5UrX.s:550    .text:0000000000000320 .L0 
     /tmp/ccOR5UrX.s:554    .text:0000000000000328 .L0 
     /tmp/ccOR5UrX.s:557    .text:0000000000000330 .L0 
     /tmp/ccOR5UrX.s:562    .text:0000000000000330 .L0 
     /tmp/ccOR5UrX.s:563    .text:0000000000000330 .L0 
     /tmp/ccOR5UrX.s:564    .text:0000000000000330 .L0 
     /tmp/ccOR5UrX.s:570    .text:000000000000033c .L0 
     /tmp/ccOR5UrX.s:574    .text:0000000000000340 .L0 
     /tmp/ccOR5UrX.s:577    .text:0000000000000344 .L0 
     /tmp/ccOR5UrX.s:578    .text:0000000000000344 .L0 
     /tmp/ccOR5UrX.s:580    .text:0000000000000348 .L0 
     /tmp/ccOR5UrX.s:583    .text:000000000000034c .L0 
     /tmp/ccOR5UrX.s:587    .text:0000000000000350 .L0 
     /tmp/ccOR5UrX.s:590    .text:0000000000000350 .L0 
     /tmp/ccOR5UrX.s:591    .text:0000000000000350 .L0 
     /tmp/ccOR5UrX.s:592    .text:0000000000000350 .L0 
     /tmp/ccOR5UrX.s:598    .text:000000000000035c .L0 
     /tmp/ccOR5UrX.s:602    .text:0000000000000360 .L0 
GAS LISTING /tmp/ccOR5UrX.s 			page 29


     /tmp/ccOR5UrX.s:605    .text:0000000000000364 .L0 
     /tmp/ccOR5UrX.s:606    .text:0000000000000364 .L0 
     /tmp/ccOR5UrX.s:608    .text:0000000000000368 .L0 
     /tmp/ccOR5UrX.s:611    .text:000000000000036c .L0 
     /tmp/ccOR5UrX.s:614    .text:0000000000000370 .L0 
     /tmp/ccOR5UrX.s:616    .text:0000000000000374 .L0 
     /tmp/ccOR5UrX.s:617    .text:0000000000000374 .L0 
     /tmp/ccOR5UrX.s:619    .text:0000000000000378 .L0 
     /tmp/ccOR5UrX.s:624    .text:000000000000037c .L0 
     /tmp/ccOR5UrX.s:625    .text:000000000000037c .L0 
     /tmp/ccOR5UrX.s:626    .text:000000000000037c .L0 
     /tmp/ccOR5UrX.s:631    .text:0000000000000388 .L0 
     /tmp/ccOR5UrX.s:634    .text:000000000000038c .L0 
     /tmp/ccOR5UrX.s:635    .text:000000000000038c .L0 
     /tmp/ccOR5UrX.s:639    .text:0000000000000390 .L0 
     /tmp/ccOR5UrX.s:640    .text:0000000000000390 .L0 
     /tmp/ccOR5UrX.s:641    .text:0000000000000390 .L0 
     /tmp/ccOR5UrX.s:644    .text:0000000000000398 .L0 
     /tmp/ccOR5UrX.s:645    .text:0000000000000398 .L0 
     /tmp/ccOR5UrX.s:647    .text:000000000000039c .L0 
     /tmp/ccOR5UrX.s:649    .text:00000000000003a0 .L0 
     /tmp/ccOR5UrX.s:653    .text:00000000000003a8 .L0 
     /tmp/ccOR5UrX.s:654    .text:00000000000003ac .L0 
     /tmp/ccOR5UrX.s:655    .text:00000000000003ac .L0 
     /tmp/ccOR5UrX.s:657    .text:00000000000003b0 .L0 
     /tmp/ccOR5UrX.s:658    .text:00000000000003b0 .L0 
     /tmp/ccOR5UrX.s:660    .text:00000000000003b4 .L0 
     /tmp/ccOR5UrX.s:663    .text:00000000000003b8 .L0 
     /tmp/ccOR5UrX.s:667    .text:00000000000003bc .L0 
     /tmp/ccOR5UrX.s:669    .text:00000000000003bc .L0 
     /tmp/ccOR5UrX.s:670    .text:00000000000003bc .L0 
     /tmp/ccOR5UrX.s:675    .text:00000000000003c0 .L0 
     /tmp/ccOR5UrX.s:676    .text:00000000000003c0 .L0 
     /tmp/ccOR5UrX.s:679    .text:00000000000003cc .L0 
     /tmp/ccOR5UrX.s:687    .text:00000000000003d0 .L0 
     /tmp/ccOR5UrX.s:688    .text:00000000000003d0 .L0 
     /tmp/ccOR5UrX.s:689    .text:00000000000003d0 .L0 
     /tmp/ccOR5UrX.s:692    .text:00000000000003dc .L0 
     /tmp/ccOR5UrX.s:698    .text:00000000000003e0 .L0 
     /tmp/ccOR5UrX.s:699    .text:00000000000003e0 .L0 
     /tmp/ccOR5UrX.s:700    .text:00000000000003e0 .L0 
     /tmp/ccOR5UrX.s:707    .text:00000000000003e4 .L0 
     /tmp/ccOR5UrX.s:708    .text:00000000000003e4 .L0 
     /tmp/ccOR5UrX.s:713    .text:00000000000003f4 .L0 
     /tmp/ccOR5UrX.s:715    .text:00000000000003f8 .L0 
     /tmp/ccOR5UrX.s:716    .text:00000000000003f8 .L0 
     /tmp/ccOR5UrX.s:721    .text:0000000000000400 .L0 
     /tmp/ccOR5UrX.s:723    .text:0000000000000404 .L0 
     /tmp/ccOR5UrX.s:724    .text:0000000000000404 .L0 
     /tmp/ccOR5UrX.s:726    .text:0000000000000408 .L0 
     /tmp/ccOR5UrX.s:730    .text:000000000000040c .L0 
     /tmp/ccOR5UrX.s:731    .text:000000000000040c .L0 
     /tmp/ccOR5UrX.s:733    .text:0000000000000410 .L0 
     /tmp/ccOR5UrX.s:735    .text:0000000000000414 .L0 
     /tmp/ccOR5UrX.s:736    .text:0000000000000414 .L0 
     /tmp/ccOR5UrX.s:738    .text:0000000000000418 .L0 
     /tmp/ccOR5UrX.s:743    .text:0000000000000424 .L0 
GAS LISTING /tmp/ccOR5UrX.s 			page 30


     /tmp/ccOR5UrX.s:744    .text:0000000000000424 .L0 
     /tmp/ccOR5UrX.s:746    .text:0000000000000428 .L0 
     /tmp/ccOR5UrX.s:747    .text:0000000000000428 .L0 
     /tmp/ccOR5UrX.s:749    .text:000000000000042c .L0 
     /tmp/ccOR5UrX.s:753    .text:0000000000000430 .L0 
     /tmp/ccOR5UrX.s:754    .text:0000000000000430 .L0 
     /tmp/ccOR5UrX.s:759    .text:0000000000000434 .L0 
     /tmp/ccOR5UrX.s:760    .text:0000000000000434 .L0 
     /tmp/ccOR5UrX.s:764    .text:0000000000000440 .L0 
     /tmp/ccOR5UrX.s:767    .text:0000000000000444 .L0 
     /tmp/ccOR5UrX.s:781    .bss:0000000000000008 _ZN3TCB16runningTimeSliceE
     /tmp/ccOR5UrX.s:777    .bss:0000000000000000 _ZN3TCB7runningE
     /tmp/ccOR5UrX.s:774    .bss:0000000000000000 .LANCHOR0
     /tmp/ccOR5UrX.s:787    .text:0000000000000444 .L0 
     /tmp/ccOR5UrX.s:28     .text:0000000000000018 .L0 
     /tmp/ccOR5UrX.s:69     .text:0000000000000058 .L0 
     /tmp/ccOR5UrX.s:87     .text:0000000000000080 .L0 
     /tmp/ccOR5UrX.s:96     .text:0000000000000094 .L0 
     /tmp/ccOR5UrX.s:99     .text:00000000000000a0 .L0 
     /tmp/ccOR5UrX.s:102    .text:00000000000000ac .L0 
     /tmp/ccOR5UrX.s:275    .text:00000000000001a8 .L0 
     /tmp/ccOR5UrX.s:277    .text:00000000000001b4 .L0 
     /tmp/ccOR5UrX.s:386    .text:0000000000000230 .L0 
     /tmp/ccOR5UrX.s:564    .text:0000000000000330 .L0 
     /tmp/ccOR5UrX.s:592    .text:0000000000000350 .L0 
     /tmp/ccOR5UrX.s:626    .text:000000000000037c .L0 
     /tmp/ccOR5UrX.s:676    .text:00000000000003c0 .L0 
     /tmp/ccOR5UrX.s:689    .text:00000000000003d0 .L0 
     /tmp/ccOR5UrX.s:760    .text:0000000000000434 .L0 
     /tmp/ccOR5UrX.s:120    .text:00000000000000c4 .L12
     /tmp/ccOR5UrX.s:129    .text:00000000000000d4 .L13
     /tmp/ccOR5UrX.s:143    .text:00000000000000ec .L7
     /tmp/ccOR5UrX.s:157    .text:00000000000000f4 .L9
     /tmp/ccOR5UrX.s:80     .text:0000000000000074 .L5
     /tmp/ccOR5UrX.s:138    .text:00000000000000e4 .L6
     /tmp/ccOR5UrX.s:167    .text:0000000000000104 .L3
     /tmp/ccOR5UrX.s:319    .text:00000000000001ec .L19
     /tmp/ccOR5UrX.s:328    .text:00000000000001f4 .L20
     /tmp/ccOR5UrX.s:278    .text:00000000000001bc .L17
     /tmp/ccOR5UrX.s:287    .text:00000000000001c8 .L18
     /tmp/ccOR5UrX.s:418    .text:0000000000000270 .L27
     /tmp/ccOR5UrX.s:469    .text:00000000000002ac .L30
     /tmp/ccOR5UrX.s:443    .text:000000000000028c .L32
     /tmp/ccOR5UrX.s:694    .text:00000000000003e0 .L35
     /tmp/ccOR5UrX.s:552    .text:0000000000000328 .L36
     /tmp/ccOR5UrX.s:585    .text:0000000000000350 .L37
     /tmp/ccOR5UrX.s:638    .text:0000000000000390 .L39
     /tmp/ccOR5UrX.s:719    .text:0000000000000400 .L46
     /tmp/ccOR5UrX.s:572    .text:0000000000000340 .L47
     /tmp/ccOR5UrX.s:612    .text:0000000000000370 .L41
     /tmp/ccOR5UrX.s:600    .text:0000000000000360 .L42
     /tmp/ccOR5UrX.s:666    .text:00000000000003bc .L53
     /tmp/ccOR5UrX.s:681    .text:00000000000003d0 .L54
     /tmp/ccOR5UrX.s:651    .text:00000000000003a8 .L34
     /tmp/ccOR5UrX.s:620    .text:000000000000037c .L44
     /tmp/ccOR5UrX.s:632    .text:000000000000038c .L45
     /tmp/ccOR5UrX.s:751    .text:0000000000000430 .L55
GAS LISTING /tmp/ccOR5UrX.s 			page 31


     /tmp/ccOR5UrX.s:741    .text:0000000000000424 .L50
     /tmp/ccOR5UrX.s:728    .text:000000000000040c .L49
     /tmp/ccOR5UrX.s:2778   .debug_abbrev:0000000000000000 .Ldebug_abbrev0
     /tmp/ccOR5UrX.s:4796   .debug_str:00000000000009cf .LASF202
     /tmp/ccOR5UrX.s:4566   .debug_str:0000000000000307 .LASF203
     /tmp/ccOR5UrX.s:4756   .debug_str:000000000000089c .LASF204
     /tmp/ccOR5UrX.s:5      .text:0000000000000000 .Ltext0
     /tmp/ccOR5UrX.s:784    .text:0000000000000444 .Letext0
     /tmp/ccOR5UrX.s:4458   .debug_line:0000000000000000 .Ldebug_line0
     /tmp/ccOR5UrX.s:4728   .debug_str:00000000000007c3 .LASF3
     /tmp/ccOR5UrX.s:4616   .debug_str:000000000000046b .LASF0
     /tmp/ccOR5UrX.s:4640   .debug_str:00000000000004ff .LASF1
     /tmp/ccOR5UrX.s:4740   .debug_str:0000000000000823 .LASF2
     /tmp/ccOR5UrX.s:4748   .debug_str:0000000000000861 .LASF4
     /tmp/ccOR5UrX.s:4624   .debug_str:0000000000000490 .LASF5
     /tmp/ccOR5UrX.s:4478   .debug_str:0000000000000090 .LASF6
     /tmp/ccOR5UrX.s:4716   .debug_str:0000000000000766 .LASF7
     /tmp/ccOR5UrX.s:4712   .debug_str:000000000000074b .LASF8
     /tmp/ccOR5UrX.s:4628   .debug_str:00000000000004af .LASF9
     /tmp/ccOR5UrX.s:4588   .debug_str:00000000000003a8 .LASF10
     /tmp/ccOR5UrX.s:4598   .debug_str:00000000000003e2 .LASF11
     /tmp/ccOR5UrX.s:4516   .debug_str:00000000000001b0 .LASF12
     /tmp/ccOR5UrX.s:4576   .debug_str:0000000000000359 .LASF13
     /tmp/ccOR5UrX.s:4532   .debug_str:0000000000000214 .LASF14
     /tmp/ccOR5UrX.s:4514   .debug_str:00000000000001a0 .LASF15
     /tmp/ccOR5UrX.s:4776   .debug_str:0000000000000930 .LASF16
     /tmp/ccOR5UrX.s:4782   .debug_str:000000000000095b .LASF17
     /tmp/ccOR5UrX.s:4766   .debug_str:00000000000008fc .LASF18
     /tmp/ccOR5UrX.s:4760   .debug_str:00000000000008c4 .LASF123
     /tmp/ccOR5UrX.s:4718   .debug_str:000000000000076d .LASF19
     /tmp/ccOR5UrX.s:4548   .debug_str:00000000000002a3 .LASF20
     /tmp/ccOR5UrX.s:4658   .debug_str:0000000000000588 .LASF21
     /tmp/ccOR5UrX.s:4480   .debug_str:0000000000000097 .LASF22
     /tmp/ccOR5UrX.s:4524   .debug_str:00000000000001d8 .LASF23
     /tmp/ccOR5UrX.s:4508   .debug_str:0000000000000177 .LASF24
     /tmp/ccOR5UrX.s:4786   .debug_str:0000000000000986 .LASF97
     /tmp/ccOR5UrX.s:4774   .debug_str:0000000000000923 .LASF25
     /tmp/ccOR5UrX.s:4850   .debug_str:0000000000000bf8 .LASF27
     /tmp/ccOR5UrX.s:4704   .debug_str:0000000000000726 .LASF205
     /tmp/ccOR5UrX.s:4520   .debug_str:00000000000001c4 .LASF26
     /tmp/ccOR5UrX.s:4600   .debug_str:00000000000003f0 .LASF28
     /tmp/ccOR5UrX.s:4618   .debug_str:0000000000000478 .LASF29
     /tmp/ccOR5UrX.s:4656   .debug_str:0000000000000574 .LASF31
     /tmp/ccOR5UrX.s:4646   .debug_str:0000000000000522 .LASF30
     /tmp/ccOR5UrX.s:4726   .debug_str:00000000000007ab .LASF32
     /tmp/ccOR5UrX.s:4722   .debug_str:0000000000000790 .LASF33
     /tmp/ccOR5UrX.s:4660   .debug_str:0000000000000590 .LASF34
     /tmp/ccOR5UrX.s:4848   .debug_str:0000000000000be0 .LASF35
     /tmp/ccOR5UrX.s:4852   .debug_str:0000000000000c1a .LASF36
     /tmp/ccOR5UrX.s:4592   .debug_str:00000000000003c0 .LASF37
     /tmp/ccOR5UrX.s:4764   .debug_str:00000000000008e6 .LASF39
     /tmp/ccOR5UrX.s:4462   .debug_str:000000000000000b .LASF41
     /tmp/ccOR5UrX.s:4788   .debug_str:000000000000098e .LASF43
     /tmp/ccOR5UrX.s:4820   .debug_str:0000000000000b39 .LASF38
     /tmp/ccOR5UrX.s:4700   .debug_str:0000000000000700 .LASF40
     /tmp/ccOR5UrX.s:4818   .debug_str:0000000000000b2e .LASF42
     /tmp/ccOR5UrX.s:4578   .debug_str:0000000000000368 .LASF44
GAS LISTING /tmp/ccOR5UrX.s 			page 32


     /tmp/ccOR5UrX.s:4838   .debug_str:0000000000000b9f .LASF45
     /tmp/ccOR5UrX.s:4754   .debug_str:0000000000000881 .LASF46
     /tmp/ccOR5UrX.s:4554   .debug_str:00000000000002b8 .LASF47
     /tmp/ccOR5UrX.s:4526   .debug_str:00000000000001e1 .LASF49
     /tmp/ccOR5UrX.s:4828   .debug_str:0000000000000b79 .LASF48
     /tmp/ccOR5UrX.s:4486   .debug_str:00000000000000ce .LASF50
     /tmp/ccOR5UrX.s:4594   .debug_str:00000000000003cb .LASF51
     /tmp/ccOR5UrX.s:4732   .debug_str:00000000000007e9 .LASF52
     /tmp/ccOR5UrX.s:4870   .debug_str:0000000000000cb1 .LASF53
     /tmp/ccOR5UrX.s:4596   .debug_str:00000000000003d6 .LASF54
     /tmp/ccOR5UrX.s:4466   .debug_str:000000000000001d .LASF55
     /tmp/ccOR5UrX.s:4694   .debug_str:00000000000006d6 .LASF56
     /tmp/ccOR5UrX.s:4860   .debug_str:0000000000000c5c .LASF164
     /tmp/ccOR5UrX.s:4812   .debug_str:0000000000000b01 .LASF57
     /tmp/ccOR5UrX.s:4512   .debug_str:0000000000000191 .LASF58
     /tmp/ccOR5UrX.s:4866   .debug_str:0000000000000c93 .LASF59
     /tmp/ccOR5UrX.s:4826   .debug_str:0000000000000b74 .LASF60
     /tmp/ccOR5UrX.s:4800   .debug_str:0000000000000aa7 .LASF61
     /tmp/ccOR5UrX.s:4794   .debug_str:00000000000009bf .LASF62
     /tmp/ccOR5UrX.s:4710   .debug_str:000000000000073f .LASF63
     /tmp/ccOR5UrX.s:4574   .debug_str:000000000000034c .LASF64
     /tmp/ccOR5UrX.s:4746   .debug_str:0000000000000853 .LASF65
     /tmp/ccOR5UrX.s:4834   .debug_str:0000000000000b8d .LASF66
     /tmp/ccOR5UrX.s:4678   .debug_str:0000000000000669 .LASF67
     /tmp/ccOR5UrX.s:4874   .debug_str:0000000000000cd6 .LASF68
     /tmp/ccOR5UrX.s:4792   .debug_str:00000000000009b7 .LASF69
     /tmp/ccOR5UrX.s:4510   .debug_str:0000000000000180 .LASF70
     /tmp/ccOR5UrX.s:4540   .debug_str:0000000000000253 .LASF103
     /tmp/ccOR5UrX.s:4472   .debug_str:0000000000000051 .LASF104
     /tmp/ccOR5UrX.s:4856   .debug_str:0000000000000c44 .LASF71
     /tmp/ccOR5UrX.s:4768   .debug_str:0000000000000912 .LASF72
     /tmp/ccOR5UrX.s:4638   .debug_str:00000000000004f7 .LASF73
     /tmp/ccOR5UrX.s:4692   .debug_str:00000000000006c3 .LASF74
     /tmp/ccOR5UrX.s:4556   .debug_str:00000000000002c1 .LASF75
     /tmp/ccOR5UrX.s:4558   .debug_str:00000000000002c6 .LASF76
     /tmp/ccOR5UrX.s:4780   .debug_str:0000000000000954 .LASF77
     /tmp/ccOR5UrX.s:4498   .debug_str:000000000000012e .LASF78
     /tmp/ccOR5UrX.s:4552   .debug_str:00000000000002af .LASF79
     /tmp/ccOR5UrX.s:4684   .debug_str:0000000000000682 .LASF80
     /tmp/ccOR5UrX.s:4560   .debug_str:00000000000002d6 .LASF81
     /tmp/ccOR5UrX.s:4474   .debug_str:0000000000000079 .LASF82
     /tmp/ccOR5UrX.s:4706   .debug_str:000000000000072b .LASF83
     /tmp/ccOR5UrX.s:4808   .debug_str:0000000000000ad2 .LASF84
     /tmp/ccOR5UrX.s:4804   .debug_str:0000000000000ac1 .LASF85
     /tmp/ccOR5UrX.s:4488   .debug_str:00000000000000e0 .LASF86
     /tmp/ccOR5UrX.s:4614   .debug_str:0000000000000465 .LASF87
     /tmp/ccOR5UrX.s:4790   .debug_str:00000000000009a6 .LASF88
     /tmp/ccOR5UrX.s:4468   .debug_str:000000000000002d .LASF89
     /tmp/ccOR5UrX.s:4482   .debug_str:000000000000009f .LASF90
     /tmp/ccOR5UrX.s:4846   .debug_str:0000000000000bd3 .LASF91
     /tmp/ccOR5UrX.s:4816   .debug_str:0000000000000b1e .LASF92
     /tmp/ccOR5UrX.s:4742   .debug_str:0000000000000831 .LASF93
     /tmp/ccOR5UrX.s:4634   .debug_str:00000000000004e2 .LASF94
     /tmp/ccOR5UrX.s:4696   .debug_str:00000000000006e3 .LASF95
     /tmp/ccOR5UrX.s:4690   .debug_str:00000000000006b7 .LASF96
     /tmp/ccOR5UrX.s:4550   .debug_str:00000000000002aa .LASF98
     /tmp/ccOR5UrX.s:4584   .debug_str:0000000000000399 .LASF99
GAS LISTING /tmp/ccOR5UrX.s 			page 33


     /tmp/ccOR5UrX.s:4518   .debug_str:00000000000001bf .LASF100
     /tmp/ccOR5UrX.s:4568   .debug_str:0000000000000313 .LASF101
     /tmp/ccOR5UrX.s:4542   .debug_str:0000000000000261 .LASF102
     /tmp/ccOR5UrX.s:4720   .debug_str:0000000000000775 .LASF105
     /tmp/ccOR5UrX.s:4822   .debug_str:0000000000000b4d .LASF106
     /tmp/ccOR5UrX.s:4636   .debug_str:00000000000004f2 .LASF107
     /tmp/ccOR5UrX.s:4504   .debug_str:0000000000000159 .LASF108
     /tmp/ccOR5UrX.s:4778   .debug_str:000000000000093c .LASF109
     /tmp/ccOR5UrX.s:4810   .debug_str:0000000000000ae9 .LASF206
     /tmp/ccOR5UrX.s:4626   .debug_str:00000000000004a2 .LASF110
     /tmp/ccOR5UrX.s:4536   .debug_str:0000000000000239 .LASF111
     /tmp/ccOR5UrX.s:4622   .debug_str:0000000000000488 .LASF112
     /tmp/ccOR5UrX.s:4484   .debug_str:00000000000000b2 .LASF113
     /tmp/ccOR5UrX.s:4642   .debug_str:0000000000000512 .LASF114
     /tmp/ccOR5UrX.s:4676   .debug_str:000000000000064a .LASF115
     /tmp/ccOR5UrX.s:4506   .debug_str:000000000000016e .LASF116
     /tmp/ccOR5UrX.s:4672   .debug_str:0000000000000609 .LASF117
     /tmp/ccOR5UrX.s:4464   .debug_str:0000000000000016 .LASF118
     /tmp/ccOR5UrX.s:4648   .debug_str:000000000000052f .LASF119
     /tmp/ccOR5UrX.s:4534   .debug_str:0000000000000224 .LASF120
     /tmp/ccOR5UrX.s:4840   .debug_str:0000000000000bad .LASF157
     /tmp/ccOR5UrX.s:4806   .debug_str:0000000000000acd .LASF121
     /tmp/ccOR5UrX.s:4842   .debug_str:0000000000000bc3 .LASF122
     /tmp/ccOR5UrX.s:4570   .debug_str:0000000000000331 .LASF124
     /tmp/ccOR5UrX.s:4572   .debug_str:0000000000000340 .LASF125
     /tmp/ccOR5UrX.s:4632   .debug_str:00000000000004d5 .LASF126
     /tmp/ccOR5UrX.s:4546   .debug_str:0000000000000297 .LASF127
     /tmp/ccOR5UrX.s:4670   .debug_str:00000000000005f5 .LASF128
     /tmp/ccOR5UrX.s:4824   .debug_str:0000000000000b53 .LASF129
     /tmp/ccOR5UrX.s:4476   .debug_str:0000000000000087 .LASF130
     /tmp/ccOR5UrX.s:4814   .debug_str:0000000000000b09 .LASF131
     /tmp/ccOR5UrX.s:4736   .debug_str:000000000000080f .LASF132
     /tmp/ccOR5UrX.s:4698   .debug_str:00000000000006eb .LASF133
     /tmp/ccOR5UrX.s:4830   .debug_str:0000000000000b81 .LASF134
     /tmp/ccOR5UrX.s:4724   .debug_str:0000000000000798 .LASF135
     /tmp/ccOR5UrX.s:4688   .debug_str:00000000000006b0 .LASF136
     /tmp/ccOR5UrX.s:4630   .debug_str:00000000000004c2 .LASF137
     /tmp/ccOR5UrX.s:4496   .debug_str:0000000000000126 .LASF138
     /tmp/ccOR5UrX.s:4798   .debug_str:0000000000000a93 .LASF139
     /tmp/ccOR5UrX.s:4680   .debug_str:0000000000000675 .LASF140
     /tmp/ccOR5UrX.s:4580   .debug_str:0000000000000380 .LASF141
     /tmp/ccOR5UrX.s:4772   .debug_str:000000000000091c .LASF142
     /tmp/ccOR5UrX.s:4752   .debug_str:000000000000086e .LASF143
     /tmp/ccOR5UrX.s:4604   .debug_str:0000000000000423 .LASF144
     /tmp/ccOR5UrX.s:4562   .debug_str:00000000000002e3 .LASF145
     /tmp/ccOR5UrX.s:4750   .debug_str:0000000000000868 .LASF146
     /tmp/ccOR5UrX.s:4610   .debug_str:000000000000044a .LASF147
     /tmp/ccOR5UrX.s:4620   .debug_str:0000000000000482 .LASF148
     /tmp/ccOR5UrX.s:4652   .debug_str:0000000000000552 .LASF149
     /tmp/ccOR5UrX.s:4460   .debug_str:0000000000000000 .LASF150
     /tmp/ccOR5UrX.s:4744   .debug_str:000000000000083b .LASF151
     /tmp/ccOR5UrX.s:4738   .debug_str:0000000000000818 .LASF152
     /tmp/ccOR5UrX.s:4868   .debug_str:0000000000000c99 .LASF153
     /tmp/ccOR5UrX.s:4844   .debug_str:0000000000000bc9 .LASF154
     /tmp/ccOR5UrX.s:4530   .debug_str:00000000000001fe .LASF155
     /tmp/ccOR5UrX.s:4522   .debug_str:00000000000001ce .LASF156
     /tmp/ccOR5UrX.s:4668   .debug_str:00000000000005df .LASF158
GAS LISTING /tmp/ccOR5UrX.s 			page 34


     /tmp/ccOR5UrX.s:4586   .debug_str:000000000000039e .LASF159
     /tmp/ccOR5UrX.s:4770   .debug_str:0000000000000917 .LASF160
     /tmp/ccOR5UrX.s:4682   .debug_str:000000000000067d .LASF161
     /tmp/ccOR5UrX.s:4864   .debug_str:0000000000000c86 .LASF162
     /tmp/ccOR5UrX.s:4858   .debug_str:0000000000000c4a .LASF163
     /tmp/ccOR5UrX.s:4608   .debug_str:0000000000000432 .LASF165
     /tmp/ccOR5UrX.s:4862   .debug_str:0000000000000c72 .LASF207
     /tmp/ccOR5UrX.s:4836   .debug_str:0000000000000b94 .LASF166
     /tmp/ccOR5UrX.s:4492   .debug_str:0000000000000100 .LASF167
     /tmp/ccOR5UrX.s:4650   .debug_str:000000000000054d .LASF168
     /tmp/ccOR5UrX.s:4784   .debug_str:0000000000000971 .LASF169
     /tmp/ccOR5UrX.s:4606   .debug_str:000000000000042a .LASF170
     /tmp/ccOR5UrX.s:4686   .debug_str:0000000000000698 .LASF171
     /tmp/ccOR5UrX.s:4644   .debug_str:000000000000051a .LASF172
     /tmp/ccOR5UrX.s:4470   .debug_str:0000000000000035 .LASF173
     /tmp/ccOR5UrX.s:4490   .debug_str:00000000000000f8 .LASF174
     /tmp/ccOR5UrX.s:4872   .debug_str:0000000000000cbe .LASF175
     /tmp/ccOR5UrX.s:4590   .debug_str:00000000000003b8 .LASF176
     /tmp/ccOR5UrX.s:4544   .debug_str:000000000000027b .LASF177
     /tmp/ccOR5UrX.s:4802   .debug_str:0000000000000ab1 .LASF178
     /tmp/ccOR5UrX.s:4730   .debug_str:00000000000007c8 .LASF179
     /tmp/ccOR5UrX.s:4654   .debug_str:0000000000000564 .LASF180
     /tmp/ccOR5UrX.s:4674   .debug_str:0000000000000625 .LASF181
     /tmp/ccOR5UrX.s:4500   .debug_str:0000000000000140 .LASF182
     /tmp/ccOR5UrX.s:4666   .debug_str:00000000000005c4 .LASF183
     /tmp/ccOR5UrX.s:489    .text:00000000000002c0 .LFB60
     /tmp/ccOR5UrX.s:768    .text:0000000000000444 .LFE60
     /tmp/ccOR5UrX.s:4854   .debug_str:0000000000000c3d .LASF186
     /tmp/ccOR5UrX.s:4025   .debug_loc:0000000000000000 .LLST20
     /tmp/ccOR5UrX.s:4494   .debug_str:0000000000000121 .LASF184
     /tmp/ccOR5UrX.s:4047   .debug_loc:000000000000005f .LLST21
     /tmp/ccOR5UrX.s:4876   .debug_str:0000000000000ce5 .LASF185
     /tmp/ccOR5UrX.s:4096   .debug_loc:0000000000000142 .LLST22
     /tmp/ccOR5UrX.s:521    .text:00000000000002fc .LBB54
     /tmp/ccOR5UrX.s:526    .text:00000000000002fc .LBE54
     /tmp/ccOR5UrX.s:538    .text:0000000000000314 .LBB56
     /tmp/ccOR5UrX.s:547    .text:0000000000000320 .LBE56
     /tmp/ccOR5UrX.s:4133   .debug_loc:00000000000001ed .LLST23
     /tmp/ccOR5UrX.s:4141   .debug_loc:0000000000000211 .LLST24
     /tmp/ccOR5UrX.s:559    .text:0000000000000330 .LBB58
     /tmp/ccOR5UrX.s:568    .text:000000000000033c .LBE58
     /tmp/ccOR5UrX.s:588    .text:0000000000000350 .LBB60
     /tmp/ccOR5UrX.s:596    .text:000000000000035c .LBE60
     /tmp/ccOR5UrX.s:622    .text:000000000000037c .LBB62
     /tmp/ccOR5UrX.s:629    .text:0000000000000388 .LBE62
     /tmp/ccOR5UrX.s:672    .text:00000000000003c0 .LBB64
     /tmp/ccOR5UrX.s:683    .text:00000000000003d0 .LBE64
     /tmp/ccOR5UrX.s:4148   .debug_loc:0000000000000234 .LLST25
     /tmp/ccOR5UrX.s:685    .text:00000000000003d0 .LBB66
     /tmp/ccOR5UrX.s:696    .text:00000000000003e0 .LBE66
     /tmp/ccOR5UrX.s:4155   .debug_loc:0000000000000257 .LLST26
     /tmp/ccOR5UrX.s:702    .text:00000000000003e4 .LBB68
     /tmp/ccOR5UrX.s:706    .text:00000000000003e4 .LBE68
     /tmp/ccOR5UrX.s:756    .text:0000000000000434 .LBB70
     /tmp/ccOR5UrX.s:766    .text:0000000000000444 .LBE70
     /tmp/ccOR5UrX.s:531    .text:000000000000030c .LVL43
     /tmp/ccOR5UrX.s:650    .text:00000000000003a8 .LVL57
GAS LISTING /tmp/ccOR5UrX.s 			page 35


     /tmp/ccOR5UrX.s:711    .text:00000000000003f4 .LVL64
     /tmp/ccOR5UrX.s:427    .text:0000000000000274 .LFB59
     /tmp/ccOR5UrX.s:483    .text:00000000000002c0 .LFE59
     /tmp/ccOR5UrX.s:4162   .debug_loc:000000000000027a .LLST17
     /tmp/ccOR5UrX.s:456    .text:0000000000000294 .LBB53
     /tmp/ccOR5UrX.s:466    .text:00000000000002a8 .LBE53
     /tmp/ccOR5UrX.s:4180   .debug_loc:00000000000002c6 .LLST19
     /tmp/ccOR5UrX.s:461    .text:00000000000002a0 .LVL38
     /tmp/ccOR5UrX.s:465    .text:00000000000002a8 .LVL39
     /tmp/ccOR5UrX.s:446    .text:000000000000028c .LBB51
     /tmp/ccOR5UrX.s:453    .text:0000000000000290 .LBE51
     /tmp/ccOR5UrX.s:4187   .debug_loc:00000000000002e9 .LLST18
     /tmp/ccOR5UrX.s:375    .text:0000000000000224 .LFB58
     /tmp/ccOR5UrX.s:421    .text:0000000000000274 .LFE58
     /tmp/ccOR5UrX.s:4196   .debug_loc:000000000000030f .LLST16
     /tmp/ccOR5UrX.s:407    .text:0000000000000260 .LVL33
     /tmp/ccOR5UrX.s:343    .text:00000000000001fc .LFB57
     /tmp/ccOR5UrX.s:369    .text:0000000000000224 .LFE57
     /tmp/ccOR5UrX.s:4220   .debug_loc:0000000000000371 .LLST15
     /tmp/ccOR5UrX.s:358    .text:0000000000000214 .LVL30
     /tmp/ccOR5UrX.s:187    .text:0000000000000118 .LFB56
     /tmp/ccOR5UrX.s:213    .text:0000000000000140 .LFE56
     /tmp/ccOR5UrX.s:4538   .debug_str:000000000000024e .LASF187
     /tmp/ccOR5UrX.s:4234   .debug_loc:00000000000003aa .LLST3
     /tmp/ccOR5UrX.s:202    .text:0000000000000130 .LVL14
     /tmp/ccOR5UrX.s:10     .text:0000000000000000 .LFB55
     /tmp/ccOR5UrX.s:48     .text:0000000000000044 .LFE55
     /tmp/ccOR5UrX.s:25     .text:0000000000000018 .LVL0
     /tmp/ccOR5UrX.s:37     .text:0000000000000034 .LVL2
     /tmp/ccOR5UrX.s:54     .text:0000000000000044 .LFB54
     /tmp/ccOR5UrX.s:181    .text:0000000000000118 .LFE54
     /tmp/ccOR5UrX.s:4248   .debug_loc:00000000000003e3 .LLST0
     /tmp/ccOR5UrX.s:106    .text:00000000000000b8 .LBB39
     /tmp/ccOR5UrX.s:122    .text:00000000000000c4 .LBE39
     /tmp/ccOR5UrX.s:4255   .debug_loc:0000000000000406 .LLST1
     /tmp/ccOR5UrX.s:146    .text:00000000000000ec .LBB41
     /tmp/ccOR5UrX.s:159    .text:00000000000000f4 .LBE41
     /tmp/ccOR5UrX.s:4264   .debug_loc:000000000000042c .LLST2
     /tmp/ccOR5UrX.s:84     .text:000000000000007c .LVL4
     /tmp/ccOR5UrX.s:127    .text:00000000000000d0 .LVL7
     /tmp/ccOR5UrX.s:137    .text:00000000000000e4 .LVL8
     /tmp/ccOR5UrX.s:166    .text:0000000000000104 .LVL11
     /tmp/ccOR5UrX.s:219    .text:0000000000000140 .LFB53
     /tmp/ccOR5UrX.s:337    .text:00000000000001fc .LFE53
     /tmp/ccOR5UrX.s:4708   .debug_str:0000000000000736 .LASF188
     /tmp/ccOR5UrX.s:4273   .debug_loc:0000000000000452 .LLST4
     /tmp/ccOR5UrX.s:4293   .debug_loc:00000000000004af .LLST5
     /tmp/ccOR5UrX.s:4313   .debug_loc:000000000000050c .LLST6
     /tmp/ccOR5UrX.s:4758   .debug_str:00000000000008ba .LASF189
     /tmp/ccOR5UrX.s:4338   .debug_loc:000000000000057d .LLST7
     /tmp/ccOR5UrX.s:246    .text:0000000000000174 .LBB43
     /tmp/ccOR5UrX.s:4444   .debug_ranges:0000000000000000 .Ldebug_ranges0
     /tmp/ccOR5UrX.s:4345   .debug_loc:00000000000005a0 .LLST8
     /tmp/ccOR5UrX.s:4366   .debug_loc:00000000000005fe .LLST9
     /tmp/ccOR5UrX.s:4377   .debug_loc:0000000000000634 .LLST10
     /tmp/ccOR5UrX.s:4388   .debug_loc:000000000000066a .LLST11
     /tmp/ccOR5UrX.s:259    .text:0000000000000194 .LBB45
GAS LISTING /tmp/ccOR5UrX.s 			page 36


     /tmp/ccOR5UrX.s:267    .text:000000000000019c .LBE45
     /tmp/ccOR5UrX.s:4399   .debug_loc:00000000000006a0 .LLST12
     /tmp/ccOR5UrX.s:4408   .debug_loc:00000000000006c6 .LLST13
     /tmp/ccOR5UrX.s:4419   .debug_loc:00000000000006fc .LLST14
     /tmp/ccOR5UrX.s:245    .text:0000000000000174 .LVL17
     /tmp/ccOR5UrX.s:4582   .debug_str:0000000000000394 .LASF190
     /tmp/ccOR5UrX.s:4832   .debug_str:0000000000000b88 .LASF191
     /tmp/ccOR5UrX.s:4714   .debug_str:000000000000075e .LASF192
     /tmp/ccOR5UrX.s:4502   .debug_str:0000000000000151 .LASF193
     /tmp/ccOR5UrX.s:4664   .debug_str:00000000000005ae .LASF194
     /tmp/ccOR5UrX.s:4762   .debug_str:00000000000008d1 .LASF195
     /tmp/ccOR5UrX.s:4702   .debug_str:000000000000071f .LASF208
     /tmp/ccOR5UrX.s:4734   .debug_str:0000000000000801 .LASF196
     /tmp/ccOR5UrX.s:4612   .debug_str:000000000000045c .LASF198
     /tmp/ccOR5UrX.s:4602   .debug_str:0000000000000415 .LASF197
     /tmp/ccOR5UrX.s:4528   .debug_str:00000000000001f4 .LASF199
     /tmp/ccOR5UrX.s:4564   .debug_str:00000000000002f6 .LASF200
     /tmp/ccOR5UrX.s:4662   .debug_str:00000000000005a2 .LASF201
     /tmp/ccOR5UrX.s:492    .text:00000000000002c0 .LVL41
     /tmp/ccOR5UrX.s:520    .text:00000000000002fc .LVL42
     /tmp/ccOR5UrX.s:661    .text:00000000000003b4 .LVL58
     /tmp/ccOR5UrX.s:665    .text:00000000000003bc .LVL59
     /tmp/ccOR5UrX.s:558    .text:0000000000000330 .LVL46
     /tmp/ccOR5UrX.s:571    .text:0000000000000340 .LVL48
     /tmp/ccOR5UrX.s:576    .text:0000000000000344 .LVL49
     /tmp/ccOR5UrX.s:581    .text:000000000000034c .LVL50
     /tmp/ccOR5UrX.s:584    .text:0000000000000350 .LVL51
     /tmp/ccOR5UrX.s:599    .text:0000000000000360 .LVL53
     /tmp/ccOR5UrX.s:604    .text:0000000000000364 .LVL54
     /tmp/ccOR5UrX.s:609    .text:000000000000036c .LVL55
     /tmp/ccOR5UrX.s:637    .text:0000000000000390 .LVL56
     /tmp/ccOR5UrX.s:693    .text:00000000000003e0 .LVL62
     /tmp/ccOR5UrX.s:718    .text:0000000000000400 .LVL65
     /tmp/ccOR5UrX.s:727    .text:000000000000040c .LVL66
     /tmp/ccOR5UrX.s:750    .text:0000000000000430 .LVL67
     /tmp/ccOR5UrX.s:761    .text:000000000000043c .LVL69
     /tmp/ccOR5UrX.s:566    .text:000000000000033c .LVL47
     /tmp/ccOR5UrX.s:594    .text:000000000000035c .LVL52
     /tmp/ccOR5UrX.s:537    .text:0000000000000314 .LVL44
     /tmp/ccOR5UrX.s:545    .text:0000000000000320 .LVL45
     /tmp/ccOR5UrX.s:671    .text:00000000000003c0 .LVL60
     /tmp/ccOR5UrX.s:680    .text:00000000000003d0 .LVL61
     /tmp/ccOR5UrX.s:430    .text:0000000000000274 .LVL35
     /tmp/ccOR5UrX.s:442    .text:000000000000028c .LVL36
     /tmp/ccOR5UrX.s:478    .text:00000000000002b8 .LVL40
     /tmp/ccOR5UrX.s:451    .text:0000000000000290 .LVL37
     /tmp/ccOR5UrX.s:378    .text:0000000000000224 .LVL31
     /tmp/ccOR5UrX.s:405    .text:0000000000000258 .LVL32
     /tmp/ccOR5UrX.s:417    .text:0000000000000270 .LVL34
     /tmp/ccOR5UrX.s:346    .text:00000000000001fc .LVL29
     /tmp/ccOR5UrX.s:190    .text:0000000000000118 .LVL13
     /tmp/ccOR5UrX.s:70     .text:0000000000000060 .LVL3
     /tmp/ccOR5UrX.s:176    .text:0000000000000110 .LVL12
     /tmp/ccOR5UrX.s:105    .text:00000000000000b8 .LVL5
     /tmp/ccOR5UrX.s:119    .text:00000000000000c4 .LVL6
     /tmp/ccOR5UrX.s:145    .text:00000000000000ec .LVL9
     /tmp/ccOR5UrX.s:155    .text:00000000000000f4 .LVL10
GAS LISTING /tmp/ccOR5UrX.s 			page 37


     /tmp/ccOR5UrX.s:222    .text:0000000000000140 .LVL15
     /tmp/ccOR5UrX.s:243    .text:000000000000016c .LVL16
     /tmp/ccOR5UrX.s:311    .text:00000000000001e0 .LVL24
     /tmp/ccOR5UrX.s:318    .text:00000000000001ec .LVL26
     /tmp/ccOR5UrX.s:314    .text:00000000000001e4 .LVL25
     /tmp/ccOR5UrX.s:286    .text:00000000000001c8 .LVL21
     /tmp/ccOR5UrX.s:331    .text:00000000000001f8 .LVL28
     /tmp/ccOR5UrX.s:294    .text:00000000000001d0 .LVL22
     /tmp/ccOR5UrX.s:258    .text:0000000000000194 .LVL18
     /tmp/ccOR5UrX.s:265    .text:000000000000019c .LVL19
     /tmp/ccOR5UrX.s:279    .text:00000000000001bc .LVL20
     /tmp/ccOR5UrX.s:327    .text:00000000000001f4 .LVL27
     /tmp/ccOR5UrX.s:308    .text:00000000000001dc .LVL23
     /tmp/ccOR5UrX.s:788    .debug_info:0000000000000000 .Ldebug_info0
     /tmp/ccOR5UrX.s:297    .text:00000000000001d0 .LBE43
     /tmp/ccOR5UrX.s:321    .text:00000000000001ec .LBB50
     /tmp/ccOR5UrX.s:335    .text:00000000000001fc .LBE50
     /tmp/ccOR5UrX.s:272    .text:00000000000001a8 .LBB47
     /tmp/ccOR5UrX.s:295    .text:00000000000001d0 .LBE47
     /tmp/ccOR5UrX.s:323    .text:00000000000001ec .LBB48
     /tmp/ccOR5UrX.s:333    .text:00000000000001fc .LBE48

UNDEFINED SYMBOLS
_ZN5Riscv19returnFromInterruptEv
_Z11thread_exitv
_ZN9Scheduler3getEv
main
_Z22kernelConsumerFunctionPv
_Z4idlePv
_ZN9Scheduler3putEP3TCB
_ZdlPv
_ZN3TCB13contextSwitchEPNS_7ContextES1_
_Z9mem_allocm
_Z8mem_freePv
_ZN11ThreadQueue7putLastEP3TCB
_ZN11ThreadQueue8getFirstEv
_ZN11ThreadQueue6removeEP3TCB
_ZN9Scheduler12sleepingHeadE
_ZN9Scheduler4headE
_ZN9Scheduler4tailE
