GAS LISTING /tmp/cc13MdvJ.s 			page 1


   1              		.file	"TCB.cpp"
   2              		.option pic
   3              		.option norelax
   4              		.text
   5              	.Ltext0:
   6              		.align	2
   7              		.globl	_ZN3TCB12createThreadEPFvPvES0_Pm
   9              	_ZN3TCB12createThreadEPFvPvES0_Pm:
  10              	.LFB27:
  11              		.file 1 "src/TCB.cpp"
   1:src/TCB.cpp   **** //
   2:src/TCB.cpp   **** // Created by os on 5/23/23.
   3:src/TCB.cpp   **** //
   4:src/TCB.cpp   **** 
   5:src/TCB.cpp   **** #include "../h/TCB.hpp"
   6:src/TCB.cpp   **** #include "../h/Riscv.hpp"
   7:src/TCB.cpp   **** #include "../h/Scheduler.hpp"
   8:src/TCB.cpp   **** 
   9:src/TCB.cpp   **** TCB* TCB::running = nullptr;
  10:src/TCB.cpp   **** uint64 TCB::runningTimeSlice = 0;
  11:src/TCB.cpp   **** 
  12:src/TCB.cpp   **** TCB* TCB::createThread(TCB::Body function, void* args, uint64* stack) {
  12              		.loc 1 12 71
  13              		.cfi_startproc
  14              	.LVL0:
  15 0000 130101FD 		addi	sp,sp,-48
  16              		.cfi_def_cfa_offset 48
  17 0004 23341102 		sd	ra,40(sp)
  18 0008 23308102 		sd	s0,32(sp)
  19 000c 233C9100 		sd	s1,24(sp)
  20 0010 23382101 		sd	s2,16(sp)
  21 0014 23343101 		sd	s3,8(sp)
  22              		.cfi_offset 1, -8
  23              		.cfi_offset 8, -16
  24              		.cfi_offset 9, -24
  25              		.cfi_offset 18, -32
  26              		.cfi_offset 19, -40
  27 0018 13040103 		addi	s0,sp,48
  28              		.cfi_def_cfa 8, 0
  29 001c 13090500 		mv	s2,a0
  30 0020 93890500 		mv	s3,a1
  31 0024 93040600 		mv	s1,a2
  13:src/TCB.cpp   **** 	TCB* newThread = new TCB(function, args, stack);
  32              		.loc 1 13 2
  33              		.loc 1 13 48 is_stmt 0
  34 0028 13050004 		li	a0,64
  35              	.LVL1:
  36 002c 97000000 		call	_Znwm@plt
  36      E7800000 
  37              	.LVL2:
  38              	.LBB10:
  39              	.LBB11:
  40              		.file 2 "src/../h/TCB.hpp"
   1:src/../h/TCB.hpp **** //
   2:src/../h/TCB.hpp **** // Created by os on 5/23/23.
   3:src/../h/TCB.hpp **** //
   4:src/../h/TCB.hpp **** 
GAS LISTING /tmp/cc13MdvJ.s 			page 2


   5:src/../h/TCB.hpp **** #ifndef PROJEKAT2023_TCB_HPP
   6:src/../h/TCB.hpp **** #define PROJEKAT2023_TCB_HPP
   7:src/../h/TCB.hpp **** 
   8:src/../h/TCB.hpp **** #include "../lib/hw.h"
   9:src/../h/TCB.hpp **** 
  10:src/../h/TCB.hpp **** class TCB {
  11:src/../h/TCB.hpp **** public:
  12:src/../h/TCB.hpp **** 	friend class Scheduler;
  13:src/../h/TCB.hpp **** 	using Body = void (*)(void*);
  14:src/../h/TCB.hpp **** 
  15:src/../h/TCB.hpp **** 	static TCB* createThread(Body function, void* args, uint64* stack);
  16:src/../h/TCB.hpp **** 
  17:src/../h/TCB.hpp **** 	bool isFinished() { return finished; }
  18:src/../h/TCB.hpp **** 
  19:src/../h/TCB.hpp **** 	void setFinished(bool finish) { this->finished = finish; }
  20:src/../h/TCB.hpp **** 
  21:src/../h/TCB.hpp **** 	bool isBlocked() { return blocked; }
  22:src/../h/TCB.hpp **** 
  23:src/../h/TCB.hpp **** 	void setBlocked(bool block) { this->blocked = block; }
  24:src/../h/TCB.hpp **** 
  25:src/../h/TCB.hpp **** 	uint64 getTimeSlice() { return timeSlice; }
  26:src/../h/TCB.hpp **** 
  27:src/../h/TCB.hpp **** 	void setTimeSlice(uint64 value) { timeSlice = value; }
  28:src/../h/TCB.hpp **** 
  29:src/../h/TCB.hpp **** 	static void threadSleep(time_t sleepTime);
  30:src/../h/TCB.hpp **** 
  31:src/../h/TCB.hpp **** 	static void threadJoin(TCB* handle);
  32:src/../h/TCB.hpp **** 
  33:src/../h/TCB.hpp **** 	static void yield();
  34:src/../h/TCB.hpp **** 
  35:src/../h/TCB.hpp **** 	static void dispatch();
  36:src/../h/TCB.hpp **** 
  37:src/../h/TCB.hpp **** 	static void wrapper();
  38:src/../h/TCB.hpp **** 
  39:src/../h/TCB.hpp **** 	static TCB* running;
  40:src/../h/TCB.hpp **** 	static uint64 runningTimeSlice;
  41:src/../h/TCB.hpp **** 
  42:src/../h/TCB.hpp **** //	TCB* getNextInScheduler(){
  43:src/../h/TCB.hpp **** //		return nextInScheduler;
  44:src/../h/TCB.hpp **** //	}
  45:src/../h/TCB.hpp **** //	void setNextInScheduler(TCB* tcb){
  46:src/../h/TCB.hpp **** //		nextInScheduler = tcb;
  47:src/../h/TCB.hpp **** //	}
  48:src/../h/TCB.hpp **** 
  49:src/../h/TCB.hpp **** private:
  50:src/../h/TCB.hpp **** 	//kontekst procesora za datu nit
  51:src/../h/TCB.hpp **** 	struct Context {
  52:src/../h/TCB.hpp **** 		uint64 sp;
  53:src/../h/TCB.hpp **** 		uint64 ra;
  54:src/../h/TCB.hpp **** 	} context;
  55:src/../h/TCB.hpp **** 	Body threadFunction;    //funkcija koja se izvrsava
  56:src/../h/TCB.hpp **** 	uint64* stack;            //najniza adresa steka; stek raste ka nizim adresama, pokazuje na posled
  57:src/../h/TCB.hpp **** 	void* args;                //argumenti poziva funkcije
  58:src/../h/TCB.hpp **** 	uint64 timeSlice;        //vremenski odsecak dodeljen datoj niti
  59:src/../h/TCB.hpp **** 	bool finished;            //da li je nit zavrsila izvrsavanje funkcije
  60:src/../h/TCB.hpp **** 	bool blocked;            //da li je nit blokirana
  61:src/../h/TCB.hpp **** 	TCB* nextInScheduler;    // pokazivac na sledecu nit u Scheduler-u
GAS LISTING /tmp/cc13MdvJ.s 			page 3


  62:src/../h/TCB.hpp **** 
  63:src/../h/TCB.hpp **** 	TCB(Body function, void* args, uint64* stack) : threadFunction(function), stack(stack), args(args)
  64:src/../h/TCB.hpp **** 													timeSlice(DEFAULT_TIME_SLICE), finished(false), blocked(false),
  65:src/../h/TCB.hpp **** 													nextInScheduler(nullptr) {
  41              		.loc 2 65 37
  42 0034 23382501 		sd	s2,16(a0)
  43 0038 233C9500 		sd	s1,24(a0)
  44 003c 23303503 		sd	s3,32(a0)
  45 0040 93072000 		li	a5,2
  46 0044 2334F502 		sd	a5,40(a0)
  47 0048 23080502 		sb	zero,48(a0)
  48 004c A3080502 		sb	zero,49(a0)
  49 0050 233C0502 		sd	zero,56(a0)
  50              	.LBB12:
  66:src/../h/TCB.hpp **** 		//formiranje pocetnog konteksta; specijalni uslovi za main funkciju kojoj se pocetni kontekst aut
  67:src/../h/TCB.hpp **** 		uint64 startRa = threadFunction != nullptr ? (uint64)&wrapper : 0;
  51              		.loc 2 67 3 is_stmt 1
  52              		.loc 2 67 46 is_stmt 0
  53 0054 630E0902 		beqz	s2,.L4
  54 0058 97070000 		lla	a5,_ZN3TCB7wrapperEv
  54      93870700 
  55              	.L2:
  56              	.LVL3:
  68:src/../h/TCB.hpp **** 		uint64 startSp = stack != nullptr ? (uint64)&stack[DEFAULT_STACK_SIZE] : 0;
  57              		.loc 2 68 3 is_stmt 1
  58              		.loc 2 68 37 is_stmt 0
  59 0060 638C0402 		beqz	s1,.L5
  60              		.loc 2 68 47
  61 0064 37860000 		li	a2,32768
  62 0068 B384C400 		add	s1,s1,a2
  63              	.LVL4:
  64              	.L3:
  69:src/../h/TCB.hpp **** 		this->context.ra = startRa;
  65              		.loc 2 69 3 is_stmt 1
  66              		.loc 2 69 20 is_stmt 0
  67 006c 2334F500 		sd	a5,8(a0)
  70:src/../h/TCB.hpp **** 		this->context.sp = startSp;
  68              		.loc 2 70 3 is_stmt 1
  69              		.loc 2 70 20 is_stmt 0
  70 0070 23309500 		sd	s1,0(a0)
  71              	.LVL5:
  72              	.LBE12:
  73              	.LBE11:
  74              	.LBE10:
  14:src/TCB.cpp   **** 	//Scheduler::getInstance().put(newThread);
  15:src/TCB.cpp   **** 	return newThread;
  75              		.loc 1 15 2 is_stmt 1
  16:src/TCB.cpp   **** }
  76              		.loc 1 16 1 is_stmt 0
  77 0074 83308102 		ld	ra,40(sp)
  78              		.cfi_remember_state
  79              		.cfi_restore 1
  80 0078 03340102 		ld	s0,32(sp)
  81              		.cfi_restore 8
  82              		.cfi_def_cfa 2, 48
  83 007c 83348101 		ld	s1,24(sp)
  84              		.cfi_restore 9
GAS LISTING /tmp/cc13MdvJ.s 			page 4


  85              	.LVL6:
  86 0080 03390101 		ld	s2,16(sp)
  87              		.cfi_restore 18
  88              	.LVL7:
  89 0084 83398100 		ld	s3,8(sp)
  90              		.cfi_restore 19
  91              	.LVL8:
  92 0088 13010103 		addi	sp,sp,48
  93              		.cfi_def_cfa_offset 0
  94 008c 67800000 		jr	ra
  95              	.LVL9:
  96              	.L4:
  97              		.cfi_restore_state
  98              	.LBB15:
  99              	.LBB14:
 100              	.LBB13:
  67:src/../h/TCB.hpp **** 		uint64 startSp = stack != nullptr ? (uint64)&stack[DEFAULT_STACK_SIZE] : 0;
 101              		.loc 2 67 46
 102 0090 93070000 		li	a5,0
 103 0094 6FF0DFFC 		j	.L2
 104              	.LVL10:
 105              	.L5:
  68:src/../h/TCB.hpp **** 		this->context.ra = startRa;
 106              		.loc 2 68 37
 107 0098 93040000 		li	s1,0
 108              	.LVL11:
 109 009c 6FF01FFD 		j	.L3
 110              	.LBE13:
 111              	.LBE14:
 112              	.LBE15:
 113              		.cfi_endproc
 114              	.LFE27:
 116              		.align	2
 117              		.globl	_ZN3TCB8dispatchEv
 119              	_ZN3TCB8dispatchEv:
 120              	.LFB28:
  17:src/TCB.cpp   **** 
  18:src/TCB.cpp   **** void TCB::dispatch() {
 121              		.loc 1 18 22 is_stmt 1
 122              		.cfi_startproc
 123 00a0 130101FF 		addi	sp,sp,-16
 124              		.cfi_def_cfa_offset 16
 125 00a4 23341100 		sd	ra,8(sp)
 126 00a8 23308100 		sd	s0,0(sp)
 127              		.cfi_offset 1, -8
 128              		.cfi_offset 8, -16
 129 00ac 13040101 		addi	s0,sp,16
 130              		.cfi_def_cfa 8, 0
  19:src/TCB.cpp   **** 	TCB* old = TCB::running;
 131              		.loc 1 19 2
 132              		.loc 1 19 7 is_stmt 0
 133 00b0 17050000 		ld	a0,.LANCHOR0
 133      03350500 
 134              	.LVL12:
  20:src/TCB.cpp   **** 	if (!old->isFinished() && !old->isBlocked()) {
 135              		.loc 1 20 2 is_stmt 1
 136              	.LBB16:
GAS LISTING /tmp/cc13MdvJ.s 			page 5


 137              	.LBB17:
  17:src/../h/TCB.hpp **** 
 138              		.loc 2 17 22
 139              	.LBE17:
 140              	.LBE16:
  21:src/TCB.cpp   **** 		//Scheduler::getInstance().put(old);
  22:src/TCB.cpp   **** 	}
  23:src/TCB.cpp   **** 	//TCB::running = Scheduler::getInstance().get();
  24:src/TCB.cpp   **** 	TCB::contextSwitch(&old->context, &running->context);
 141              		.loc 1 24 2
 142              		.loc 1 24 20 is_stmt 0
 143 00b8 93050500 		mv	a1,a0
 144 00bc 97000000 		call	_ZN3TCB13contextSwitchEPNS_7ContextES1_@plt
 144      E7800000 
 145              	.LVL13:
  25:src/TCB.cpp   **** }
 146              		.loc 1 25 1
 147 00c4 83308100 		ld	ra,8(sp)
 148              		.cfi_restore 1
 149 00c8 03340100 		ld	s0,0(sp)
 150              		.cfi_restore 8
 151              		.cfi_def_cfa 2, 16
 152 00cc 13010101 		addi	sp,sp,16
 153              		.cfi_def_cfa_offset 0
 154 00d0 67800000 		jr	ra
 155              		.cfi_endproc
 156              	.LFE28:
 158              		.align	2
 159              		.globl	_ZN3TCB5yieldEv
 161              	_ZN3TCB5yieldEv:
 162              	.LFB29:
  26:src/TCB.cpp   **** 
  27:src/TCB.cpp   **** void TCB::yield() {
 163              		.loc 1 27 19 is_stmt 1
 164              		.cfi_startproc
 165 00d4 130101FF 		addi	sp,sp,-16
 166              		.cfi_def_cfa_offset 16
 167 00d8 23341100 		sd	ra,8(sp)
 168 00dc 23308100 		sd	s0,0(sp)
 169              		.cfi_offset 1, -8
 170              		.cfi_offset 8, -16
 171 00e0 13040101 		addi	s0,sp,16
 172              		.cfi_def_cfa 8, 0
  28:src/TCB.cpp   **** 	Riscv::pushRegisters();
 173              		.loc 1 28 2
 174              		.loc 1 28 22 is_stmt 0
 175 00e4 97000000 		call	_ZN5Riscv13pushRegistersEv@plt
 175      E7800000 
 176              	.LVL14:
  29:src/TCB.cpp   **** 	TCB::dispatch();
 177              		.loc 1 29 2 is_stmt 1
 178              		.loc 1 29 15 is_stmt 0
 179 00ec 97000000 		call	_ZN3TCB8dispatchEv
 179      E7800000 
 180              	.LVL15:
  30:src/TCB.cpp   **** 	Riscv::popRegisters();
 181              		.loc 1 30 2 is_stmt 1
GAS LISTING /tmp/cc13MdvJ.s 			page 6


 182              		.loc 1 30 21 is_stmt 0
 183 00f4 97000000 		call	_ZN5Riscv12popRegistersEv@plt
 183      E7800000 
 184              	.LVL16:
  31:src/TCB.cpp   **** }
 185              		.loc 1 31 1
 186 00fc 83308100 		ld	ra,8(sp)
 187              		.cfi_restore 1
 188 0100 03340100 		ld	s0,0(sp)
 189              		.cfi_restore 8
 190              		.cfi_def_cfa 2, 16
 191 0104 13010101 		addi	sp,sp,16
 192              		.cfi_def_cfa_offset 0
 193 0108 67800000 		jr	ra
 194              		.cfi_endproc
 195              	.LFE29:
 197              		.align	2
 198              		.globl	_ZN3TCB7wrapperEv
 200              	_ZN3TCB7wrapperEv:
 201              	.LFB30:
  32:src/TCB.cpp   **** 
  33:src/TCB.cpp   **** void TCB::wrapper() {
 202              		.loc 1 33 21 is_stmt 1
 203              		.cfi_startproc
 204 010c 130101FE 		addi	sp,sp,-32
 205              		.cfi_def_cfa_offset 32
 206 0110 233C1100 		sd	ra,24(sp)
 207 0114 23388100 		sd	s0,16(sp)
 208 0118 23349100 		sd	s1,8(sp)
 209              		.cfi_offset 1, -8
 210              		.cfi_offset 8, -16
 211              		.cfi_offset 9, -24
 212 011c 13040102 		addi	s0,sp,32
 213              		.cfi_def_cfa 8, 0
  34:src/TCB.cpp   **** 	running->threadFunction(running->args);
 214              		.loc 1 34 2
 215              		.loc 1 34 11 is_stmt 0
 216 0120 97040000 		lla	s1,.LANCHOR0
 216      93840400 
 217 0128 83B70400 		ld	a5,0(s1)
 218 012c 03B70701 		ld	a4,16(a5)
 219              		.loc 1 34 25
 220 0130 03B50702 		ld	a0,32(a5)
 221 0134 E7000700 		jalr	a4
 222              	.LVL17:
  35:src/TCB.cpp   **** 	running->finished = true;
 223              		.loc 1 35 2 is_stmt 1
 224              		.loc 1 35 11 is_stmt 0
 225 0138 83B70400 		ld	a5,0(s1)
 226              		.loc 1 35 20
 227 013c 13071000 		li	a4,1
 228 0140 2388E702 		sb	a4,48(a5)
  36:src/TCB.cpp   **** 	TCB::yield();
 229              		.loc 1 36 2 is_stmt 1
 230              		.loc 1 36 12 is_stmt 0
 231 0144 97000000 		call	_ZN3TCB5yieldEv
 231      E7800000 
GAS LISTING /tmp/cc13MdvJ.s 			page 7


 232              	.LVL18:
  37:src/TCB.cpp   **** }
 233              		.loc 1 37 1
 234 014c 83308101 		ld	ra,24(sp)
 235              		.cfi_restore 1
 236 0150 03340101 		ld	s0,16(sp)
 237              		.cfi_restore 8
 238              		.cfi_def_cfa 2, 32
 239 0154 83348100 		ld	s1,8(sp)
 240              		.cfi_restore 9
 241 0158 13010102 		addi	sp,sp,32
 242              		.cfi_def_cfa_offset 0
 243 015c 67800000 		jr	ra
 244              		.cfi_endproc
 245              	.LFE30:
 247              		.globl	_ZN3TCB16runningTimeSliceE
 248              		.globl	_ZN3TCB7runningE
 249              		.bss
 250              		.align	3
 251              		.set	.LANCHOR0,. + 0
 254              	_ZN3TCB7runningE:
 255 0000 00000000 		.zero	8
 255      00000000 
 258              	_ZN3TCB16runningTimeSliceE:
 259 0008 00000000 		.zero	8
 259      00000000 
 260              		.text
 261              	.Letext0:
 262              		.file 3 "src/../h/../lib/hw.h"
 263              		.file 4 "src/../h/Riscv.hpp"
GAS LISTING /tmp/cc13MdvJ.s 			page 8


DEFINED SYMBOLS
                            *ABS*:0000000000000000 TCB.cpp
     /tmp/cc13MdvJ.s:9      .text:0000000000000000 _ZN3TCB12createThreadEPFvPvES0_Pm
     /tmp/cc13MdvJ.s:13     .text:0000000000000000 .L0 
     /tmp/cc13MdvJ.s:15     .text:0000000000000000 .L0 
     /tmp/cc13MdvJ.s:16     .text:0000000000000004 .L0 
     /tmp/cc13MdvJ.s:22     .text:0000000000000018 .L0 
     /tmp/cc13MdvJ.s:23     .text:0000000000000018 .L0 
     /tmp/cc13MdvJ.s:24     .text:0000000000000018 .L0 
     /tmp/cc13MdvJ.s:25     .text:0000000000000018 .L0 
     /tmp/cc13MdvJ.s:26     .text:0000000000000018 .L0 
     /tmp/cc13MdvJ.s:28     .text:000000000000001c .L0 
     /tmp/cc13MdvJ.s:33     .text:0000000000000028 .L0 
     /tmp/cc13MdvJ.s:34     .text:0000000000000028 .L0 
     /tmp/cc13MdvJ.s:42     .text:0000000000000034 .L0 
     /tmp/cc13MdvJ.s:52     .text:0000000000000054 .L0 
     /tmp/cc13MdvJ.s:53     .text:0000000000000054 .L0 
     /tmp/cc13MdvJ.s:200    .text:000000000000010c _ZN3TCB7wrapperEv
     /tmp/cc13MdvJ.s:58     .text:0000000000000060 .L0 
     /tmp/cc13MdvJ.s:59     .text:0000000000000060 .L0 
     /tmp/cc13MdvJ.s:61     .text:0000000000000064 .L0 
     /tmp/cc13MdvJ.s:66     .text:000000000000006c .L0 
     /tmp/cc13MdvJ.s:67     .text:000000000000006c .L0 
     /tmp/cc13MdvJ.s:69     .text:0000000000000070 .L0 
     /tmp/cc13MdvJ.s:70     .text:0000000000000070 .L0 
     /tmp/cc13MdvJ.s:76     .text:0000000000000074 .L0 
     /tmp/cc13MdvJ.s:77     .text:0000000000000074 .L0 
     /tmp/cc13MdvJ.s:78     .text:0000000000000078 .L0 
     /tmp/cc13MdvJ.s:79     .text:0000000000000078 .L0 
     /tmp/cc13MdvJ.s:81     .text:000000000000007c .L0 
     /tmp/cc13MdvJ.s:82     .text:000000000000007c .L0 
     /tmp/cc13MdvJ.s:84     .text:0000000000000080 .L0 
     /tmp/cc13MdvJ.s:87     .text:0000000000000084 .L0 
     /tmp/cc13MdvJ.s:90     .text:0000000000000088 .L0 
     /tmp/cc13MdvJ.s:93     .text:000000000000008c .L0 
     /tmp/cc13MdvJ.s:97     .text:0000000000000090 .L0 
     /tmp/cc13MdvJ.s:102    .text:0000000000000090 .L0 
     /tmp/cc13MdvJ.s:107    .text:0000000000000098 .L0 
     /tmp/cc13MdvJ.s:113    .text:00000000000000a0 .L0 
     /tmp/cc13MdvJ.s:119    .text:00000000000000a0 _ZN3TCB8dispatchEv
     /tmp/cc13MdvJ.s:122    .text:00000000000000a0 .L0 
     /tmp/cc13MdvJ.s:123    .text:00000000000000a0 .L0 
     /tmp/cc13MdvJ.s:124    .text:00000000000000a4 .L0 
     /tmp/cc13MdvJ.s:127    .text:00000000000000ac .L0 
     /tmp/cc13MdvJ.s:128    .text:00000000000000ac .L0 
     /tmp/cc13MdvJ.s:130    .text:00000000000000b0 .L0 
     /tmp/cc13MdvJ.s:132    .text:00000000000000b0 .L0 
     /tmp/cc13MdvJ.s:133    .text:00000000000000b0 .L0 
     /tmp/cc13MdvJ.s:138    .text:00000000000000b8 .L0 
     /tmp/cc13MdvJ.s:141    .text:00000000000000b8 .L0 
     /tmp/cc13MdvJ.s:142    .text:00000000000000b8 .L0 
     /tmp/cc13MdvJ.s:143    .text:00000000000000b8 .L0 
     /tmp/cc13MdvJ.s:147    .text:00000000000000c4 .L0 
     /tmp/cc13MdvJ.s:148    .text:00000000000000c8 .L0 
     /tmp/cc13MdvJ.s:150    .text:00000000000000cc .L0 
     /tmp/cc13MdvJ.s:151    .text:00000000000000cc .L0 
     /tmp/cc13MdvJ.s:153    .text:00000000000000d0 .L0 
GAS LISTING /tmp/cc13MdvJ.s 			page 9


     /tmp/cc13MdvJ.s:155    .text:00000000000000d4 .L0 
     /tmp/cc13MdvJ.s:161    .text:00000000000000d4 _ZN3TCB5yieldEv
     /tmp/cc13MdvJ.s:164    .text:00000000000000d4 .L0 
     /tmp/cc13MdvJ.s:165    .text:00000000000000d4 .L0 
     /tmp/cc13MdvJ.s:166    .text:00000000000000d8 .L0 
     /tmp/cc13MdvJ.s:169    .text:00000000000000e0 .L0 
     /tmp/cc13MdvJ.s:170    .text:00000000000000e0 .L0 
     /tmp/cc13MdvJ.s:172    .text:00000000000000e4 .L0 
     /tmp/cc13MdvJ.s:174    .text:00000000000000e4 .L0 
     /tmp/cc13MdvJ.s:175    .text:00000000000000e4 .L0 
     /tmp/cc13MdvJ.s:178    .text:00000000000000ec .L0 
     /tmp/cc13MdvJ.s:179    .text:00000000000000ec .L0 
     /tmp/cc13MdvJ.s:182    .text:00000000000000f4 .L0 
     /tmp/cc13MdvJ.s:183    .text:00000000000000f4 .L0 
     /tmp/cc13MdvJ.s:186    .text:00000000000000fc .L0 
     /tmp/cc13MdvJ.s:187    .text:0000000000000100 .L0 
     /tmp/cc13MdvJ.s:189    .text:0000000000000104 .L0 
     /tmp/cc13MdvJ.s:190    .text:0000000000000104 .L0 
     /tmp/cc13MdvJ.s:192    .text:0000000000000108 .L0 
     /tmp/cc13MdvJ.s:194    .text:000000000000010c .L0 
     /tmp/cc13MdvJ.s:203    .text:000000000000010c .L0 
     /tmp/cc13MdvJ.s:204    .text:000000000000010c .L0 
     /tmp/cc13MdvJ.s:205    .text:0000000000000110 .L0 
     /tmp/cc13MdvJ.s:209    .text:000000000000011c .L0 
     /tmp/cc13MdvJ.s:210    .text:000000000000011c .L0 
     /tmp/cc13MdvJ.s:211    .text:000000000000011c .L0 
     /tmp/cc13MdvJ.s:213    .text:0000000000000120 .L0 
     /tmp/cc13MdvJ.s:215    .text:0000000000000120 .L0 
     /tmp/cc13MdvJ.s:216    .text:0000000000000120 .L0 
     /tmp/cc13MdvJ.s:220    .text:0000000000000130 .L0 
     /tmp/cc13MdvJ.s:224    .text:0000000000000138 .L0 
     /tmp/cc13MdvJ.s:225    .text:0000000000000138 .L0 
     /tmp/cc13MdvJ.s:227    .text:000000000000013c .L0 
     /tmp/cc13MdvJ.s:230    .text:0000000000000144 .L0 
     /tmp/cc13MdvJ.s:231    .text:0000000000000144 .L0 
     /tmp/cc13MdvJ.s:234    .text:000000000000014c .L0 
     /tmp/cc13MdvJ.s:235    .text:0000000000000150 .L0 
     /tmp/cc13MdvJ.s:237    .text:0000000000000154 .L0 
     /tmp/cc13MdvJ.s:238    .text:0000000000000154 .L0 
     /tmp/cc13MdvJ.s:240    .text:0000000000000158 .L0 
     /tmp/cc13MdvJ.s:242    .text:000000000000015c .L0 
     /tmp/cc13MdvJ.s:244    .text:0000000000000160 .L0 
     /tmp/cc13MdvJ.s:258    .bss:0000000000000008 _ZN3TCB16runningTimeSliceE
     /tmp/cc13MdvJ.s:254    .bss:0000000000000000 _ZN3TCB7runningE
     /tmp/cc13MdvJ.s:251    .bss:0000000000000000 .LANCHOR0
     /tmp/cc13MdvJ.s:264    .text:0000000000000160 .L0 
     /tmp/cc13MdvJ.s:54     .text:0000000000000058 .L0 
     /tmp/cc13MdvJ.s:133    .text:00000000000000b0 .L0 
     /tmp/cc13MdvJ.s:216    .text:0000000000000120 .L0 
     /tmp/cc13MdvJ.s:96     .text:0000000000000090 .L4
     /tmp/cc13MdvJ.s:105    .text:0000000000000098 .L5
     /tmp/cc13MdvJ.s:55     .text:0000000000000060 .L2
     /tmp/cc13MdvJ.s:64     .text:000000000000006c .L3
     /tmp/cc13MdvJ.s:1112   .debug_abbrev:0000000000000000 .Ldebug_abbrev0
     /tmp/cc13MdvJ.s:2272   .debug_str:0000000000000505 .LASF93
     /tmp/cc13MdvJ.s:2118   .debug_str:0000000000000087 .LASF94
     /tmp/cc13MdvJ.s:2162   .debug_str:00000000000001bd .LASF95
GAS LISTING /tmp/cc13MdvJ.s 			page 10


     /tmp/cc13MdvJ.s:5      .text:0000000000000000 .Ltext0
     /tmp/cc13MdvJ.s:261    .text:0000000000000160 .Letext0
     /tmp/cc13MdvJ.s:2090   .debug_line:0000000000000000 .Ldebug_line0
     /tmp/cc13MdvJ.s:2212   .debug_str:000000000000035c .LASF0
     /tmp/cc13MdvJ.s:2226   .debug_str:0000000000000394 .LASF1
     /tmp/cc13MdvJ.s:2200   .debug_str:0000000000000310 .LASF2
     /tmp/cc13MdvJ.s:2176   .debug_str:0000000000000265 .LASF4
     /tmp/cc13MdvJ.s:2256   .debug_str:0000000000000483 .LASF3
     /tmp/cc13MdvJ.s:2116   .debug_str:0000000000000080 .LASF5
     /tmp/cc13MdvJ.s:2136   .debug_str:0000000000000113 .LASF6
     /tmp/cc13MdvJ.s:2228   .debug_str:00000000000003a7 .LASF7
     /tmp/cc13MdvJ.s:2210   .debug_str:0000000000000349 .LASF8
     /tmp/cc13MdvJ.s:2282   .debug_str:0000000000000603 .LASF9
     /tmp/cc13MdvJ.s:2160   .debug_str:00000000000001af .LASF10
     /tmp/cc13MdvJ.s:2240   .debug_str:0000000000000410 .LASF11
     /tmp/cc13MdvJ.s:2274   .debug_str:00000000000005c9 .LASF12
     /tmp/cc13MdvJ.s:2190   .debug_str:00000000000002b6 .LASF13
     /tmp/cc13MdvJ.s:2098   .debug_str:000000000000002a .LASF14
     /tmp/cc13MdvJ.s:2122   .debug_str:000000000000009d .LASF15
     /tmp/cc13MdvJ.s:2250   .debug_str:000000000000044f .LASF16
     /tmp/cc13MdvJ.s:2132   .debug_str:00000000000000e9 .LASF17
     /tmp/cc13MdvJ.s:2106   .debug_str:0000000000000053 .LASF96
     /tmp/cc13MdvJ.s:2186   .debug_str:0000000000000293 .LASF18
     /tmp/cc13MdvJ.s:2292   .debug_str:0000000000000659 .LASF20
     /tmp/cc13MdvJ.s:2246   .debug_str:0000000000000443 .LASF97
     /tmp/cc13MdvJ.s:2230   .debug_str:00000000000003ba .LASF22
     /tmp/cc13MdvJ.s:2194   .debug_str:00000000000002de .LASF24
     /tmp/cc13MdvJ.s:2202   .debug_str:000000000000031e .LASF19
     /tmp/cc13MdvJ.s:2170   .debug_str:000000000000021c .LASF21
     /tmp/cc13MdvJ.s:2104   .debug_str:0000000000000049 .LASF23
     /tmp/cc13MdvJ.s:2234   .debug_str:00000000000003ce .LASF25
     /tmp/cc13MdvJ.s:2178   .debug_str:000000000000026c .LASF26
     /tmp/cc13MdvJ.s:2278   .debug_str:00000000000005e0 .LASF27
     /tmp/cc13MdvJ.s:2196   .debug_str:00000000000002f4 .LASF28
     /tmp/cc13MdvJ.s:2238   .debug_str:00000000000003f8 .LASF29
     /tmp/cc13MdvJ.s:2280   .debug_str:00000000000005f6 .LASF30
     /tmp/cc13MdvJ.s:2284   .debug_str:0000000000000613 .LASF31
     /tmp/cc13MdvJ.s:2262   .debug_str:00000000000004b7 .LASF32
     /tmp/cc13MdvJ.s:2168   .debug_str:0000000000000205 .LASF34
     /tmp/cc13MdvJ.s:2138   .debug_str:000000000000011a .LASF33
     /tmp/cc13MdvJ.s:2156   .debug_str:0000000000000191 .LASF35
     /tmp/cc13MdvJ.s:2252   .debug_str:0000000000000465 .LASF36
     /tmp/cc13MdvJ.s:2206   .debug_str:0000000000000331 .LASF38
     /tmp/cc13MdvJ.s:2216   .debug_str:0000000000000370 .LASF37
     /tmp/cc13MdvJ.s:2146   .debug_str:0000000000000151 .LASF39
     /tmp/cc13MdvJ.s:2266   .debug_str:00000000000004d8 .LASF40
     /tmp/cc13MdvJ.s:2260   .debug_str:00000000000004a5 .LASF41
     /tmp/cc13MdvJ.s:2144   .debug_str:0000000000000149 .LASF42
     /tmp/cc13MdvJ.s:2244   .debug_str:0000000000000432 .LASF43
     /tmp/cc13MdvJ.s:2184   .debug_str:000000000000028b .LASF44
     /tmp/cc13MdvJ.s:2198   .debug_str:0000000000000301 .LASF45
     /tmp/cc13MdvJ.s:2218   .debug_str:0000000000000379 .LASF46
     /tmp/cc13MdvJ.s:2220   .debug_str:000000000000037f .LASF47
     /tmp/cc13MdvJ.s:2222   .debug_str:0000000000000384 .LASF48
     /tmp/cc13MdvJ.s:2180   .debug_str:0000000000000277 .LASF49
     /tmp/cc13MdvJ.s:2092   .debug_str:0000000000000000 .LASF50
     /tmp/cc13MdvJ.s:2258   .debug_str:0000000000000495 .LASF51
GAS LISTING /tmp/cc13MdvJ.s 			page 11


     /tmp/cc13MdvJ.s:2294   .debug_str:000000000000067b .LASF98
     /tmp/cc13MdvJ.s:2286   .debug_str:000000000000062b .LASF99
     /tmp/cc13MdvJ.s:2172   .debug_str:0000000000000233 .LASF100
     /tmp/cc13MdvJ.s:2148   .debug_str:0000000000000164 .LASF52
     /tmp/cc13MdvJ.s:2224   .debug_str:000000000000038e .LASF53
     /tmp/cc13MdvJ.s:2114   .debug_str:0000000000000072 .LASF54
     /tmp/cc13MdvJ.s:2142   .debug_str:000000000000012e .LASF55
     /tmp/cc13MdvJ.s:2150   .debug_str:0000000000000169 .LASF56
     /tmp/cc13MdvJ.s:2096   .debug_str:0000000000000010 .LASF57
     /tmp/cc13MdvJ.s:2100   .debug_str:000000000000003a .LASF60
     /tmp/cc13MdvJ.s:2264   .debug_str:00000000000004c3 .LASF62
     /tmp/cc13MdvJ.s:2140   .debug_str:0000000000000125 .LASF58
     /tmp/cc13MdvJ.s:2126   .debug_str:00000000000000b4 .LASF59
     /tmp/cc13MdvJ.s:2204   .debug_str:000000000000032a .LASF61
     /tmp/cc13MdvJ.s:2242   .debug_str:000000000000041f .LASF63
     /tmp/cc13MdvJ.s:2248   .debug_str:0000000000000448 .LASF64
     /tmp/cc13MdvJ.s:2268   .debug_str:00000000000004e0 .LASF65
     /tmp/cc13MdvJ.s:2154   .debug_str:0000000000000189 .LASF66
     /tmp/cc13MdvJ.s:2134   .debug_str:00000000000000ff .LASF67
     /tmp/cc13MdvJ.s:2094   .debug_str:0000000000000008 .LASF68
     /tmp/cc13MdvJ.s:2166   .debug_str:00000000000001f1 .LASF69
     /tmp/cc13MdvJ.s:2214   .debug_str:0000000000000369 .LASF70
     /tmp/cc13MdvJ.s:2290   .debug_str:0000000000000646 .LASF71
     /tmp/cc13MdvJ.s:2112   .debug_str:000000000000006b .LASF72
     /tmp/cc13MdvJ.s:2152   .debug_str:0000000000000176 .LASF73
     /tmp/cc13MdvJ.s:2158   .debug_str:00000000000001a9 .LASF74
     /tmp/cc13MdvJ.s:2270   .debug_str:00000000000004f3 .LASF75
     /tmp/cc13MdvJ.s:2110   .debug_str:0000000000000065 .LASF76
     /tmp/cc13MdvJ.s:2302   .debug_str:00000000000006c5 .LASF77
     /tmp/cc13MdvJ.s:2296   .debug_str:0000000000000691 .LASF78
     /tmp/cc13MdvJ.s:2254   .debug_str:000000000000046b .LASF79
     /tmp/cc13MdvJ.s:2182   .debug_str:0000000000000280 .LASF80
     /tmp/cc13MdvJ.s:2192   .debug_str:00000000000002c6 .LASF81
     /tmp/cc13MdvJ.s:2120   .debug_str:0000000000000093 .LASF82
     /tmp/cc13MdvJ.s:2236   .debug_str:00000000000003e2 .LASF83
     /tmp/cc13MdvJ.s:2108   .debug_str:000000000000005b .LASF84
     /tmp/cc13MdvJ.s:2164   .debug_str:00000000000001db .LASF85
     /tmp/cc13MdvJ.s:2124   .debug_str:00000000000000a9 .LASF101
     /tmp/cc13MdvJ.s:2298   .debug_str:000000000000069c .LASF102
     /tmp/cc13MdvJ.s:2300   .debug_str:00000000000006b4 .LASF86
     /tmp/cc13MdvJ.s:2128   .debug_str:00000000000000c9 .LASF87
     /tmp/cc13MdvJ.s:201    .text:000000000000010c .LFB30
     /tmp/cc13MdvJ.s:245    .text:0000000000000160 .LFE30
     /tmp/cc13MdvJ.s:232    .text:000000000000014c .LVL18
     /tmp/cc13MdvJ.s:162    .text:00000000000000d4 .LFB29
     /tmp/cc13MdvJ.s:195    .text:000000000000010c .LFE29
     /tmp/cc13MdvJ.s:176    .text:00000000000000ec .LVL14
     /tmp/cc13MdvJ.s:180    .text:00000000000000f4 .LVL15
     /tmp/cc13MdvJ.s:184    .text:00000000000000fc .LVL16
     /tmp/cc13MdvJ.s:120    .text:00000000000000a0 .LFB28
     /tmp/cc13MdvJ.s:156    .text:00000000000000d4 .LFE28
     /tmp/cc13MdvJ.s:1907   .debug_loc:0000000000000000 .LLST10
     /tmp/cc13MdvJ.s:136    .text:00000000000000b8 .LBB16
     /tmp/cc13MdvJ.s:140    .text:00000000000000b8 .LBE16
     /tmp/cc13MdvJ.s:145    .text:00000000000000c4 .LVL13
     /tmp/cc13MdvJ.s:10     .text:0000000000000000 .LFB27
     /tmp/cc13MdvJ.s:114    .text:00000000000000a0 .LFE27
GAS LISTING /tmp/cc13MdvJ.s 			page 12


     /tmp/cc13MdvJ.s:2232   .debug_str:00000000000003c5 .LASF88
     /tmp/cc13MdvJ.s:1914   .debug_loc:0000000000000023 .LLST0
     /tmp/cc13MdvJ.s:1934   .debug_loc:0000000000000080 .LLST1
     /tmp/cc13MdvJ.s:1954   .debug_loc:00000000000000dd .LLST2
     /tmp/cc13MdvJ.s:2174   .debug_str:000000000000025b .LASF89
     /tmp/cc13MdvJ.s:1979   .debug_loc:000000000000014e .LLST3
     /tmp/cc13MdvJ.s:38     .text:0000000000000034 .LBB10
     /tmp/cc13MdvJ.s:2076   .debug_ranges:0000000000000000 .Ldebug_ranges0
     /tmp/cc13MdvJ.s:1986   .debug_loc:0000000000000171 .LLST4
     /tmp/cc13MdvJ.s:2007   .debug_loc:00000000000001cf .LLST5
     /tmp/cc13MdvJ.s:2018   .debug_loc:0000000000000205 .LLST6
     /tmp/cc13MdvJ.s:2029   .debug_loc:000000000000023b .LLST7
     /tmp/cc13MdvJ.s:2040   .debug_loc:0000000000000271 .LLST8
     /tmp/cc13MdvJ.s:2051   .debug_loc:00000000000002a7 .LLST9
     /tmp/cc13MdvJ.s:37     .text:0000000000000034 .LVL2
     /tmp/cc13MdvJ.s:2130   .debug_str:00000000000000e4 .LASF92
     /tmp/cc13MdvJ.s:2208   .debug_str:0000000000000341 .LASF90
     /tmp/cc13MdvJ.s:2276   .debug_str:00000000000005d8 .LASF91
     /tmp/cc13MdvJ.s:2188   .debug_str:00000000000002a0 .LASF103
     /tmp/cc13MdvJ.s:2102   .debug_str:0000000000000043 .LASF104
     /tmp/cc13MdvJ.s:2288   .debug_str:0000000000000639 .LASF105
     /tmp/cc13MdvJ.s:134    .text:00000000000000b8 .LVL12
     /tmp/cc13MdvJ.s:14     .text:0000000000000000 .LVL0
     /tmp/cc13MdvJ.s:35     .text:000000000000002c .LVL1
     /tmp/cc13MdvJ.s:88     .text:0000000000000084 .LVL7
     /tmp/cc13MdvJ.s:95     .text:0000000000000090 .LVL9
     /tmp/cc13MdvJ.s:91     .text:0000000000000088 .LVL8
     /tmp/cc13MdvJ.s:63     .text:000000000000006c .LVL4
     /tmp/cc13MdvJ.s:108    .text:000000000000009c .LVL11
     /tmp/cc13MdvJ.s:71     .text:0000000000000074 .LVL5
     /tmp/cc13MdvJ.s:56     .text:0000000000000060 .LVL3
     /tmp/cc13MdvJ.s:104    .text:0000000000000098 .LVL10
     /tmp/cc13MdvJ.s:85     .text:0000000000000080 .LVL6
     /tmp/cc13MdvJ.s:265    .debug_info:0000000000000000 .Ldebug_info0
     /tmp/cc13MdvJ.s:74     .text:0000000000000074 .LBE10
     /tmp/cc13MdvJ.s:98     .text:0000000000000090 .LBB15
     /tmp/cc13MdvJ.s:112    .text:00000000000000a0 .LBE15
     /tmp/cc13MdvJ.s:50     .text:0000000000000054 .LBB12
     /tmp/cc13MdvJ.s:72     .text:0000000000000074 .LBE12
     /tmp/cc13MdvJ.s:100    .text:0000000000000090 .LBB13
     /tmp/cc13MdvJ.s:110    .text:00000000000000a0 .LBE13

UNDEFINED SYMBOLS
_Znwm
_ZN3TCB13contextSwitchEPNS_7ContextES1_
_ZN5Riscv13pushRegistersEv
_ZN5Riscv12popRegistersEv
