GAS LISTING /tmp/cc05hGc4.s 			page 1


   1              		.file	"TCB.cpp"
   2              		.option pic
   3              		.option norelax
   4              		.text
   5              	.Ltext0:
   6              		.align	2
   7              		.globl	_ZN3TCB8dispatchEv
   9              	_ZN3TCB8dispatchEv:
  10              	.LFB31:
  11              		.file 1 "src/TCB.cpp"
   1:src/TCB.cpp   **** //
   2:src/TCB.cpp   **** // Created by os on 5/23/23.
   3:src/TCB.cpp   **** //
   4:src/TCB.cpp   **** 
   5:src/TCB.cpp   **** #include "../h/TCB.hpp"
   6:src/TCB.cpp   **** #include "../h/Riscv.hpp"
   7:src/TCB.cpp   **** #include "../h/Scheduler.hpp"
   8:src/TCB.cpp   **** #include "../h/MemoryAllocator.hpp"
   9:src/TCB.cpp   **** 
  10:src/TCB.cpp   **** TCB* TCB::running = nullptr;
  11:src/TCB.cpp   **** uint64 TCB::runningTimeSlice = 0;
  12:src/TCB.cpp   **** 
  13:src/TCB.cpp   **** TCB* TCB::createThread(TCB::Body function, void* args, uint64* stack) {
  14:src/TCB.cpp   **** 	TCB* newThread = new TCB(function, args, stack);
  15:src/TCB.cpp   **** 	if (function != nullptr) Scheduler::put(newThread);
  16:src/TCB.cpp   **** 	return newThread;
  17:src/TCB.cpp   **** }
  18:src/TCB.cpp   **** 
  19:src/TCB.cpp   **** void TCB::dispatch() {
  12              		.loc 1 19 22
  13              		.cfi_startproc
  14 0000 130101FE 		addi	sp,sp,-32
  15              		.cfi_def_cfa_offset 32
  16 0004 233C1100 		sd	ra,24(sp)
  17 0008 23388100 		sd	s0,16(sp)
  18 000c 23349100 		sd	s1,8(sp)
  19              		.cfi_offset 1, -8
  20              		.cfi_offset 8, -16
  21              		.cfi_offset 9, -24
  22 0010 13040102 		addi	s0,sp,32
  23              		.cfi_def_cfa 8, 0
  20:src/TCB.cpp   **** 	TCB* old = TCB::running;
  24              		.loc 1 20 2
  25              		.loc 1 20 7 is_stmt 0
  26 0014 97040000 		ld	s1,.LANCHOR0
  26      83B40400 
  27              	.LVL0:
  21:src/TCB.cpp   **** 	if (!old->isFinished() && !old->isBlocked()) {
  28              		.loc 1 21 2 is_stmt 1
  29              	.LBB10:
  30              	.LBB11:
  31              		.file 2 "src/../h/TCB.hpp"
   1:src/../h/TCB.hpp **** //
   2:src/../h/TCB.hpp **** // Created by os on 5/23/23.
   3:src/../h/TCB.hpp **** //
   4:src/../h/TCB.hpp **** 
   5:src/../h/TCB.hpp **** #ifndef PROJEKAT2023_TCB_HPP
GAS LISTING /tmp/cc05hGc4.s 			page 2


   6:src/../h/TCB.hpp **** #define PROJEKAT2023_TCB_HPP
   7:src/../h/TCB.hpp **** 
   8:src/../h/TCB.hpp **** #include "../lib/hw.h"
   9:src/../h/TCB.hpp **** 
  10:src/../h/TCB.hpp **** class TCB {
  11:src/../h/TCB.hpp **** public:
  12:src/../h/TCB.hpp **** 	friend class Scheduler;
  13:src/../h/TCB.hpp **** 	using Body = void (*)(void*);
  14:src/../h/TCB.hpp **** 
  15:src/../h/TCB.hpp **** 	static TCB* createThread(Body function, void* args, uint64* stack);
  16:src/../h/TCB.hpp **** 
  17:src/../h/TCB.hpp **** 	bool isFinished() { return finished; }
  32              		.loc 2 17 22
  33              		.loc 2 17 29 is_stmt 0
  34 001c 83C70403 		lbu	a5,48(s1)
  35              	.LVL1:
  36              	.LBE11:
  37              	.LBE10:
  38              		.loc 1 21 25
  39 0020 63960700 		bnez	a5,.L2
  40              	.LVL2:
  41              	.LBB12:
  42              	.LBB13:
  18:src/../h/TCB.hpp **** 
  19:src/../h/TCB.hpp **** 	void setFinished(bool finish) { this->finished = finish; }
  20:src/../h/TCB.hpp **** 
  21:src/../h/TCB.hpp **** 	bool isBlocked() { return blocked; }
  43              		.loc 2 21 21 is_stmt 1
  44              		.loc 2 21 28 is_stmt 0
  45 0024 83C71403 		lbu	a5,49(s1)
  46              	.LVL3:
  47              	.LBE13:
  48              	.LBE12:
  49              		.loc 1 21 25
  50 0028 638C0702 		beqz	a5,.L4
  51              	.L2:
  22:src/TCB.cpp   **** 		Scheduler::put(old);
  23:src/TCB.cpp   **** 	}
  24:src/TCB.cpp   **** 	TCB::running = Scheduler::get();
  52              		.loc 1 24 2 is_stmt 1
  53              		.loc 1 24 31 is_stmt 0
  54 002c 97000000 		call	_ZN9Scheduler3getEv@plt
  54      E7800000 
  55              	.LVL4:
  56 0034 93050500 		mv	a1,a0
  57              		.loc 1 24 15
  58 0038 97070000 		sd	a0,.LANCHOR0,a5
  58      23B0A700 
  25:src/TCB.cpp   **** 	TCB::contextSwitch(&old->context, &running->context);
  59              		.loc 1 25 2 is_stmt 1
  60              		.loc 1 25 20 is_stmt 0
  61 0040 13850400 		mv	a0,s1
  62 0044 97000000 		call	_ZN3TCB13contextSwitchEPNS_7ContextES1_@plt
  62      E7800000 
  63              	.LVL5:
  26:src/TCB.cpp   **** }
  64              		.loc 1 26 1
GAS LISTING /tmp/cc05hGc4.s 			page 3


  65 004c 83308101 		ld	ra,24(sp)
  66              		.cfi_remember_state
  67              		.cfi_restore 1
  68 0050 03340101 		ld	s0,16(sp)
  69              		.cfi_restore 8
  70              		.cfi_def_cfa 2, 32
  71 0054 83348100 		ld	s1,8(sp)
  72              		.cfi_restore 9
  73              	.LVL6:
  74 0058 13010102 		addi	sp,sp,32
  75              		.cfi_def_cfa_offset 0
  76 005c 67800000 		jr	ra
  77              	.LVL7:
  78              	.L4:
  79              		.cfi_restore_state
  22:src/TCB.cpp   **** 		Scheduler::put(old);
  80              		.loc 1 22 3 is_stmt 1
  22:src/TCB.cpp   **** 		Scheduler::put(old);
  81              		.loc 1 22 17 is_stmt 0
  82 0060 13850400 		mv	a0,s1
  83 0064 97000000 		call	_ZN9Scheduler3putEP3TCB@plt
  83      E7800000 
  84              	.LVL8:
  85 006c 6FF01FFC 		j	.L2
  86              		.cfi_endproc
  87              	.LFE31:
  89              		.align	2
  90              		.globl	_ZN3TCB5yieldEv
  92              	_ZN3TCB5yieldEv:
  93              	.LFB32:
  27:src/TCB.cpp   **** 
  28:src/TCB.cpp   **** void TCB::yield() {
  94              		.loc 1 28 19 is_stmt 1
  95              		.cfi_startproc
  96 0070 130101FF 		addi	sp,sp,-16
  97              		.cfi_def_cfa_offset 16
  98 0074 23341100 		sd	ra,8(sp)
  99 0078 23308100 		sd	s0,0(sp)
 100              		.cfi_offset 1, -8
 101              		.cfi_offset 8, -16
 102 007c 13040101 		addi	s0,sp,16
 103              		.cfi_def_cfa 8, 0
  29:src/TCB.cpp   **** 	Riscv::pushRegisters();
 104              		.loc 1 29 2
 105              		.loc 1 29 22 is_stmt 0
 106 0080 97000000 		call	_ZN5Riscv13pushRegistersEv@plt
 106      E7800000 
 107              	.LVL9:
  30:src/TCB.cpp   **** 	TCB::dispatch();
 108              		.loc 1 30 2 is_stmt 1
 109              		.loc 1 30 15 is_stmt 0
 110 0088 97000000 		call	_ZN3TCB8dispatchEv
 110      E7800000 
 111              	.LVL10:
  31:src/TCB.cpp   **** 	Riscv::popRegisters();
 112              		.loc 1 31 2 is_stmt 1
 113              		.loc 1 31 21 is_stmt 0
GAS LISTING /tmp/cc05hGc4.s 			page 4


 114 0090 97000000 		call	_ZN5Riscv12popRegistersEv@plt
 114      E7800000 
 115              	.LVL11:
  32:src/TCB.cpp   **** }
 116              		.loc 1 32 1
 117 0098 83308100 		ld	ra,8(sp)
 118              		.cfi_restore 1
 119 009c 03340100 		ld	s0,0(sp)
 120              		.cfi_restore 8
 121              		.cfi_def_cfa 2, 16
 122 00a0 13010101 		addi	sp,sp,16
 123              		.cfi_def_cfa_offset 0
 124 00a4 67800000 		jr	ra
 125              		.cfi_endproc
 126              	.LFE32:
 128              		.align	2
 129              		.globl	_ZN3TCB7wrapperEv
 131              	_ZN3TCB7wrapperEv:
 132              	.LFB33:
  33:src/TCB.cpp   **** 
  34:src/TCB.cpp   **** void TCB::wrapper() {
 133              		.loc 1 34 21 is_stmt 1
 134              		.cfi_startproc
 135 00a8 130101FE 		addi	sp,sp,-32
 136              		.cfi_def_cfa_offset 32
 137 00ac 233C1100 		sd	ra,24(sp)
 138 00b0 23388100 		sd	s0,16(sp)
 139 00b4 23349100 		sd	s1,8(sp)
 140              		.cfi_offset 1, -8
 141              		.cfi_offset 8, -16
 142              		.cfi_offset 9, -24
 143 00b8 13040102 		addi	s0,sp,32
 144              		.cfi_def_cfa 8, 0
  35:src/TCB.cpp   **** 	running->threadFunction(running->args);
 145              		.loc 1 35 2
 146              		.loc 1 35 11 is_stmt 0
 147 00bc 97040000 		lla	s1,.LANCHOR0
 147      93840400 
 148 00c4 83B70400 		ld	a5,0(s1)
 149 00c8 03B70701 		ld	a4,16(a5)
 150              		.loc 1 35 25
 151 00cc 03B50702 		ld	a0,32(a5)
 152 00d0 E7000700 		jalr	a4
 153              	.LVL12:
  36:src/TCB.cpp   **** 	running->finished = true;
 154              		.loc 1 36 2 is_stmt 1
 155              		.loc 1 36 11 is_stmt 0
 156 00d4 83B70400 		ld	a5,0(s1)
 157              		.loc 1 36 20
 158 00d8 13071000 		li	a4,1
 159 00dc 2388E702 		sb	a4,48(a5)
  37:src/TCB.cpp   **** 	TCB::yield();
 160              		.loc 1 37 2 is_stmt 1
 161              		.loc 1 37 12 is_stmt 0
 162 00e0 97000000 		call	_ZN3TCB5yieldEv
 162      E7800000 
 163              	.LVL13:
GAS LISTING /tmp/cc05hGc4.s 			page 5


  38:src/TCB.cpp   **** }
 164              		.loc 1 38 1
 165 00e8 83308101 		ld	ra,24(sp)
 166              		.cfi_restore 1
 167 00ec 03340101 		ld	s0,16(sp)
 168              		.cfi_restore 8
 169              		.cfi_def_cfa 2, 32
 170 00f0 83348100 		ld	s1,8(sp)
 171              		.cfi_restore 9
 172 00f4 13010102 		addi	sp,sp,32
 173              		.cfi_def_cfa_offset 0
 174 00f8 67800000 		jr	ra
 175              		.cfi_endproc
 176              	.LFE33:
 178              		.align	2
 179              		.globl	_ZN3TCBnwEm
 181              	_ZN3TCBnwEm:
 182              	.LFB34:
  39:src/TCB.cpp   **** 
  40:src/TCB.cpp   **** void* TCB::operator new(size_t size) {
 183              		.loc 1 40 38 is_stmt 1
 184              		.cfi_startproc
 185              	.LVL14:
 186 00fc 130101FF 		addi	sp,sp,-16
 187              		.cfi_def_cfa_offset 16
 188 0100 23341100 		sd	ra,8(sp)
 189 0104 23308100 		sd	s0,0(sp)
 190              		.cfi_offset 1, -8
 191              		.cfi_offset 8, -16
 192 0108 13040101 		addi	s0,sp,16
 193              		.cfi_def_cfa 8, 0
  41:src/TCB.cpp   **** 	return MemoryAllocator::kmalloc(size+sizeof(MemoryAllocator::UsedMemSegment));
 194              		.loc 1 41 2
 195              		.loc 1 41 33 is_stmt 0
 196 010c 13050501 		addi	a0,a0,16
 197              	.LVL15:
 198 0110 97000000 		call	_ZN15MemoryAllocator7kmallocEm@plt
 198      E7800000 
 199              	.LVL16:
  42:src/TCB.cpp   **** }
 200              		.loc 1 42 1
 201 0118 83308100 		ld	ra,8(sp)
 202              		.cfi_restore 1
 203 011c 03340100 		ld	s0,0(sp)
 204              		.cfi_restore 8
 205              		.cfi_def_cfa 2, 16
 206 0120 13010101 		addi	sp,sp,16
 207              		.cfi_def_cfa_offset 0
 208 0124 67800000 		jr	ra
 209              		.cfi_endproc
 210              	.LFE34:
 212              		.align	2
 213              		.globl	_ZN3TCB12createThreadEPFvPvES0_Pm
 215              	_ZN3TCB12createThreadEPFvPvES0_Pm:
 216              	.LFB30:
  13:src/TCB.cpp   **** 	TCB* newThread = new TCB(function, args, stack);
 217              		.loc 1 13 71 is_stmt 1
GAS LISTING /tmp/cc05hGc4.s 			page 6


 218              		.cfi_startproc
 219              	.LVL17:
 220 0128 130101FD 		addi	sp,sp,-48
 221              		.cfi_def_cfa_offset 48
 222 012c 23341102 		sd	ra,40(sp)
 223 0130 23308102 		sd	s0,32(sp)
 224 0134 233C9100 		sd	s1,24(sp)
 225 0138 23382101 		sd	s2,16(sp)
 226 013c 23343101 		sd	s3,8(sp)
 227 0140 23304101 		sd	s4,0(sp)
 228              		.cfi_offset 1, -8
 229              		.cfi_offset 8, -16
 230              		.cfi_offset 9, -24
 231              		.cfi_offset 18, -32
 232              		.cfi_offset 19, -40
 233              		.cfi_offset 20, -48
 234 0144 13040103 		addi	s0,sp,48
 235              		.cfi_def_cfa 8, 0
 236 0148 93090500 		mv	s3,a0
 237 014c 138A0500 		mv	s4,a1
 238 0150 13090600 		mv	s2,a2
  14:src/TCB.cpp   **** 	if (function != nullptr) Scheduler::put(newThread);
 239              		.loc 1 14 2
  14:src/TCB.cpp   **** 	if (function != nullptr) Scheduler::put(newThread);
 240              		.loc 1 14 48 is_stmt 0
 241 0154 13050004 		li	a0,64
 242              	.LVL18:
 243 0158 97000000 		call	_ZN3TCBnwEm
 243      E7800000 
 244              	.LVL19:
 245 0160 93040500 		mv	s1,a0
 246              	.LVL20:
 247              	.LBB14:
 248              	.LBB15:
  22:src/../h/TCB.hpp **** 
  23:src/../h/TCB.hpp **** 	void setBlocked(bool block) { this->blocked = block; }
  24:src/../h/TCB.hpp **** 
  25:src/../h/TCB.hpp **** 	uint64 getTimeSlice() { return timeSlice; }
  26:src/../h/TCB.hpp **** 
  27:src/../h/TCB.hpp **** 	void setTimeSlice(uint64 value) { timeSlice = value; }
  28:src/../h/TCB.hpp **** 
  29:src/../h/TCB.hpp **** 	static void threadSleep(time_t sleepTime);
  30:src/../h/TCB.hpp **** 
  31:src/../h/TCB.hpp **** 	static void threadJoin(TCB* handle);
  32:src/../h/TCB.hpp **** 
  33:src/../h/TCB.hpp **** 	static void yield();
  34:src/../h/TCB.hpp **** 
  35:src/../h/TCB.hpp **** 	static void dispatch();
  36:src/../h/TCB.hpp **** 
  37:src/../h/TCB.hpp **** 	static void wrapper();
  38:src/../h/TCB.hpp **** 
  39:src/../h/TCB.hpp **** 	static TCB* running;
  40:src/../h/TCB.hpp **** 	static uint64 runningTimeSlice;
  41:src/../h/TCB.hpp **** 
  42:src/../h/TCB.hpp **** //	TCB* getNextInScheduler(){
  43:src/../h/TCB.hpp **** //		return nextInScheduler;
  44:src/../h/TCB.hpp **** //	}
GAS LISTING /tmp/cc05hGc4.s 			page 7


  45:src/../h/TCB.hpp **** //	void setNextInScheduler(TCB* tcb){
  46:src/../h/TCB.hpp **** //		nextInScheduler = tcb;
  47:src/../h/TCB.hpp **** //	}
  48:src/../h/TCB.hpp **** 
  49:src/../h/TCB.hpp **** private:
  50:src/../h/TCB.hpp **** 	//kontekst procesora za datu nit
  51:src/../h/TCB.hpp **** 	struct Context {
  52:src/../h/TCB.hpp **** 		uint64 ra;
  53:src/../h/TCB.hpp **** 		uint64 sp;
  54:src/../h/TCB.hpp **** 	} context;
  55:src/../h/TCB.hpp **** 	Body threadFunction;    //funkcija koja se izvrsava
  56:src/../h/TCB.hpp **** 	uint64* stack;            //najniza adresa steka; stek raste ka nizim adresama, pokazuje na posled
  57:src/../h/TCB.hpp **** 	void* args;                //argumenti poziva funkcije
  58:src/../h/TCB.hpp **** 	uint64 timeSlice;        //vremenski odsecak dodeljen datoj niti
  59:src/../h/TCB.hpp **** 	bool finished;            //da li je nit zavrsila izvrsavanje funkcije
  60:src/../h/TCB.hpp **** 	bool blocked;            //da li je nit blokirana
  61:src/../h/TCB.hpp **** 	TCB* nextInScheduler;    // pokazivac na sledecu nit u Scheduler-u
  62:src/../h/TCB.hpp **** 
  63:src/../h/TCB.hpp **** 	TCB(Body function, void* args, uint64* stack) : threadFunction(function), stack(stack), args(args)
  64:src/../h/TCB.hpp **** 													timeSlice(DEFAULT_TIME_SLICE), finished(false), blocked(false),
  65:src/../h/TCB.hpp **** 													nextInScheduler(nullptr) {
 249              		.loc 2 65 37
 250 0164 23383501 		sd	s3,16(a0)
 251 0168 233C2501 		sd	s2,24(a0)
 252 016c 23304503 		sd	s4,32(a0)
 253 0170 93072000 		li	a5,2
 254 0174 2334F502 		sd	a5,40(a0)
 255 0178 23080502 		sb	zero,48(a0)
 256 017c A3080502 		sb	zero,49(a0)
 257 0180 233C0502 		sd	zero,56(a0)
 258              	.LBB16:
  66:src/../h/TCB.hpp **** 		//formiranje pocetnog konteksta; specijalni uslovi za main funkciju kojoj se pocetni kontekst aut
  67:src/../h/TCB.hpp **** 		uint64 startRa = threadFunction != nullptr ? (uint64)&wrapper : 0;
 259              		.loc 2 67 3 is_stmt 1
 260              		.loc 2 67 46 is_stmt 0
 261 0184 638A0904 		beqz	s3,.L15
 262 0188 97070000 		lla	a5,_ZN3TCB7wrapperEv
 262      93870700 
 263              	.L12:
 264              	.LVL21:
  68:src/../h/TCB.hpp **** 		uint64 startSp = stack != nullptr ? (uint64)&stack[DEFAULT_STACK_SIZE] : 0;
 265              		.loc 2 68 3 is_stmt 1
 266              		.loc 2 68 37 is_stmt 0
 267 0190 63080904 		beqz	s2,.L16
 268              		.loc 2 68 47
 269 0194 37860000 		li	a2,32768
 270 0198 3309C900 		add	s2,s2,a2
 271              	.LVL22:
 272              	.L13:
  69:src/../h/TCB.hpp **** 		this->context.ra = startRa;
 273              		.loc 2 69 3 is_stmt 1
 274              		.loc 2 69 20 is_stmt 0
 275 019c 23B0F400 		sd	a5,0(s1)
  70:src/../h/TCB.hpp **** 		this->context.sp = startSp;
 276              		.loc 2 70 3 is_stmt 1
 277              		.loc 2 70 20 is_stmt 0
 278 01a0 23B42401 		sd	s2,8(s1)
GAS LISTING /tmp/cc05hGc4.s 			page 8


 279              	.LVL23:
 280              	.LBE16:
 281              	.LBE15:
 282              	.LBE14:
  15:src/TCB.cpp   **** 	return newThread;
 283              		.loc 1 15 2 is_stmt 1
 284 01a4 63880900 		beqz	s3,.L11
  15:src/TCB.cpp   **** 	return newThread;
 285              		.loc 1 15 27 discriminator 1
  15:src/TCB.cpp   **** 	return newThread;
 286              		.loc 1 15 41 is_stmt 0 discriminator 1
 287 01a8 13850400 		mv	a0,s1
 288 01ac 97000000 		call	_ZN9Scheduler3putEP3TCB@plt
 288      E7800000 
 289              	.LVL24:
  16:src/TCB.cpp   **** }
 290              		.loc 1 16 2 is_stmt 1 discriminator 1
 291              	.L11:
  17:src/TCB.cpp   **** 
 292              		.loc 1 17 1 is_stmt 0
 293 01b4 13850400 		mv	a0,s1
 294 01b8 83308102 		ld	ra,40(sp)
 295              		.cfi_remember_state
 296              		.cfi_restore 1
 297 01bc 03340102 		ld	s0,32(sp)
 298              		.cfi_restore 8
 299              		.cfi_def_cfa 2, 48
 300 01c0 83348101 		ld	s1,24(sp)
 301              		.cfi_restore 9
 302              	.LVL25:
 303 01c4 03390101 		ld	s2,16(sp)
 304              		.cfi_restore 18
 305              	.LVL26:
 306 01c8 83398100 		ld	s3,8(sp)
 307              		.cfi_restore 19
 308              	.LVL27:
 309 01cc 033A0100 		ld	s4,0(sp)
 310              		.cfi_restore 20
 311              	.LVL28:
 312 01d0 13010103 		addi	sp,sp,48
 313              		.cfi_def_cfa_offset 0
 314 01d4 67800000 		jr	ra
 315              	.LVL29:
 316              	.L15:
 317              		.cfi_restore_state
 318              	.LBB19:
 319              	.LBB18:
 320              	.LBB17:
  67:src/../h/TCB.hpp **** 		uint64 startSp = stack != nullptr ? (uint64)&stack[DEFAULT_STACK_SIZE] : 0;
 321              		.loc 2 67 46
 322 01d8 93070000 		li	a5,0
 323 01dc 6FF05FFB 		j	.L12
 324              	.LVL30:
 325              	.L16:
  68:src/../h/TCB.hpp **** 		this->context.ra = startRa;
 326              		.loc 2 68 37
 327 01e0 13090000 		li	s2,0
GAS LISTING /tmp/cc05hGc4.s 			page 9


 328              	.LVL31:
 329 01e4 6FF09FFB 		j	.L13
 330              	.LBE17:
 331              	.LBE18:
 332              	.LBE19:
 333              		.cfi_endproc
 334              	.LFE30:
 336              		.align	2
 337              		.globl	_ZN3TCBdlEPv
 339              	_ZN3TCBdlEPv:
 340              	.LFB35:
  43:src/TCB.cpp   **** 
  44:src/TCB.cpp   **** void TCB::operator delete(void* ptr) {
 341              		.loc 1 44 38 is_stmt 1
 342              		.cfi_startproc
 343              	.LVL32:
 344 01e8 130101FF 		addi	sp,sp,-16
 345              		.cfi_def_cfa_offset 16
 346 01ec 23341100 		sd	ra,8(sp)
 347 01f0 23308100 		sd	s0,0(sp)
 348              		.cfi_offset 1, -8
 349              		.cfi_offset 8, -16
 350 01f4 13040101 		addi	s0,sp,16
 351              		.cfi_def_cfa 8, 0
  45:src/TCB.cpp   **** 	MemoryAllocator::kfree(ptr);
 352              		.loc 1 45 2
 353              		.loc 1 45 24 is_stmt 0
 354 01f8 97000000 		call	_ZN15MemoryAllocator5kfreeEPv@plt
 354      E7800000 
 355              	.LVL33:
  46:src/TCB.cpp   **** }
 356              		.loc 1 46 1
 357 0200 83308100 		ld	ra,8(sp)
 358              		.cfi_restore 1
 359 0204 03340100 		ld	s0,0(sp)
 360              		.cfi_restore 8
 361              		.cfi_def_cfa 2, 16
 362 0208 13010101 		addi	sp,sp,16
 363              		.cfi_def_cfa_offset 0
 364 020c 67800000 		jr	ra
 365              		.cfi_endproc
 366              	.LFE35:
 368              		.globl	_ZN3TCB16runningTimeSliceE
 369              		.globl	_ZN3TCB7runningE
 370              		.bss
 371              		.align	3
 372              		.set	.LANCHOR0,. + 0
 375              	_ZN3TCB7runningE:
 376 0000 00000000 		.zero	8
 376      00000000 
 379              	_ZN3TCB16runningTimeSliceE:
 380 0008 00000000 		.zero	8
 380      00000000 
 381              		.text
 382              	.Letext0:
 383              		.file 3 "src/../h/../lib/hw.h"
 384              		.file 4 "src/../h/Riscv.hpp"
GAS LISTING /tmp/cc05hGc4.s 			page 10


 385              		.file 5 "src/../h/Scheduler.hpp"
 386              		.file 6 "src/../h/MemoryAllocator.hpp"
GAS LISTING /tmp/cc05hGc4.s 			page 11


DEFINED SYMBOLS
                            *ABS*:0000000000000000 TCB.cpp
     /tmp/cc05hGc4.s:9      .text:0000000000000000 _ZN3TCB8dispatchEv
     /tmp/cc05hGc4.s:13     .text:0000000000000000 .L0 
     /tmp/cc05hGc4.s:14     .text:0000000000000000 .L0 
     /tmp/cc05hGc4.s:15     .text:0000000000000004 .L0 
     /tmp/cc05hGc4.s:19     .text:0000000000000010 .L0 
     /tmp/cc05hGc4.s:20     .text:0000000000000010 .L0 
     /tmp/cc05hGc4.s:21     .text:0000000000000010 .L0 
     /tmp/cc05hGc4.s:23     .text:0000000000000014 .L0 
     /tmp/cc05hGc4.s:25     .text:0000000000000014 .L0 
     /tmp/cc05hGc4.s:26     .text:0000000000000014 .L0 
     /tmp/cc05hGc4.s:32     .text:000000000000001c .L0 
     /tmp/cc05hGc4.s:33     .text:000000000000001c .L0 
     /tmp/cc05hGc4.s:34     .text:000000000000001c .L0 
     /tmp/cc05hGc4.s:39     .text:0000000000000020 .L0 
     /tmp/cc05hGc4.s:44     .text:0000000000000024 .L0 
     /tmp/cc05hGc4.s:45     .text:0000000000000024 .L0 
     /tmp/cc05hGc4.s:50     .text:0000000000000028 .L0 
     /tmp/cc05hGc4.s:53     .text:000000000000002c .L0 
     /tmp/cc05hGc4.s:54     .text:000000000000002c .L0 
     /tmp/cc05hGc4.s:58     .text:0000000000000038 .L0 
     /tmp/cc05hGc4.s:60     .text:0000000000000040 .L0 
     /tmp/cc05hGc4.s:61     .text:0000000000000040 .L0 
     /tmp/cc05hGc4.s:65     .text:000000000000004c .L0 
     /tmp/cc05hGc4.s:66     .text:0000000000000050 .L0 
     /tmp/cc05hGc4.s:67     .text:0000000000000050 .L0 
     /tmp/cc05hGc4.s:69     .text:0000000000000054 .L0 
     /tmp/cc05hGc4.s:70     .text:0000000000000054 .L0 
     /tmp/cc05hGc4.s:72     .text:0000000000000058 .L0 
     /tmp/cc05hGc4.s:75     .text:000000000000005c .L0 
     /tmp/cc05hGc4.s:79     .text:0000000000000060 .L0 
     /tmp/cc05hGc4.s:81     .text:0000000000000060 .L0 
     /tmp/cc05hGc4.s:82     .text:0000000000000060 .L0 
     /tmp/cc05hGc4.s:86     .text:0000000000000070 .L0 
     /tmp/cc05hGc4.s:92     .text:0000000000000070 _ZN3TCB5yieldEv
     /tmp/cc05hGc4.s:95     .text:0000000000000070 .L0 
     /tmp/cc05hGc4.s:96     .text:0000000000000070 .L0 
     /tmp/cc05hGc4.s:97     .text:0000000000000074 .L0 
     /tmp/cc05hGc4.s:100    .text:000000000000007c .L0 
     /tmp/cc05hGc4.s:101    .text:000000000000007c .L0 
     /tmp/cc05hGc4.s:103    .text:0000000000000080 .L0 
     /tmp/cc05hGc4.s:105    .text:0000000000000080 .L0 
     /tmp/cc05hGc4.s:106    .text:0000000000000080 .L0 
     /tmp/cc05hGc4.s:109    .text:0000000000000088 .L0 
     /tmp/cc05hGc4.s:110    .text:0000000000000088 .L0 
     /tmp/cc05hGc4.s:113    .text:0000000000000090 .L0 
     /tmp/cc05hGc4.s:114    .text:0000000000000090 .L0 
     /tmp/cc05hGc4.s:117    .text:0000000000000098 .L0 
     /tmp/cc05hGc4.s:118    .text:000000000000009c .L0 
     /tmp/cc05hGc4.s:120    .text:00000000000000a0 .L0 
     /tmp/cc05hGc4.s:121    .text:00000000000000a0 .L0 
     /tmp/cc05hGc4.s:123    .text:00000000000000a4 .L0 
     /tmp/cc05hGc4.s:125    .text:00000000000000a8 .L0 
     /tmp/cc05hGc4.s:131    .text:00000000000000a8 _ZN3TCB7wrapperEv
     /tmp/cc05hGc4.s:134    .text:00000000000000a8 .L0 
     /tmp/cc05hGc4.s:135    .text:00000000000000a8 .L0 
GAS LISTING /tmp/cc05hGc4.s 			page 12


     /tmp/cc05hGc4.s:136    .text:00000000000000ac .L0 
     /tmp/cc05hGc4.s:140    .text:00000000000000b8 .L0 
     /tmp/cc05hGc4.s:141    .text:00000000000000b8 .L0 
     /tmp/cc05hGc4.s:142    .text:00000000000000b8 .L0 
     /tmp/cc05hGc4.s:144    .text:00000000000000bc .L0 
     /tmp/cc05hGc4.s:146    .text:00000000000000bc .L0 
     /tmp/cc05hGc4.s:147    .text:00000000000000bc .L0 
     /tmp/cc05hGc4.s:151    .text:00000000000000cc .L0 
     /tmp/cc05hGc4.s:155    .text:00000000000000d4 .L0 
     /tmp/cc05hGc4.s:156    .text:00000000000000d4 .L0 
     /tmp/cc05hGc4.s:158    .text:00000000000000d8 .L0 
     /tmp/cc05hGc4.s:161    .text:00000000000000e0 .L0 
     /tmp/cc05hGc4.s:162    .text:00000000000000e0 .L0 
     /tmp/cc05hGc4.s:165    .text:00000000000000e8 .L0 
     /tmp/cc05hGc4.s:166    .text:00000000000000ec .L0 
     /tmp/cc05hGc4.s:168    .text:00000000000000f0 .L0 
     /tmp/cc05hGc4.s:169    .text:00000000000000f0 .L0 
     /tmp/cc05hGc4.s:171    .text:00000000000000f4 .L0 
     /tmp/cc05hGc4.s:173    .text:00000000000000f8 .L0 
     /tmp/cc05hGc4.s:175    .text:00000000000000fc .L0 
     /tmp/cc05hGc4.s:181    .text:00000000000000fc _ZN3TCBnwEm
     /tmp/cc05hGc4.s:184    .text:00000000000000fc .L0 
     /tmp/cc05hGc4.s:186    .text:00000000000000fc .L0 
     /tmp/cc05hGc4.s:187    .text:0000000000000100 .L0 
     /tmp/cc05hGc4.s:190    .text:0000000000000108 .L0 
     /tmp/cc05hGc4.s:191    .text:0000000000000108 .L0 
     /tmp/cc05hGc4.s:193    .text:000000000000010c .L0 
     /tmp/cc05hGc4.s:195    .text:000000000000010c .L0 
     /tmp/cc05hGc4.s:196    .text:000000000000010c .L0 
     /tmp/cc05hGc4.s:201    .text:0000000000000118 .L0 
     /tmp/cc05hGc4.s:202    .text:000000000000011c .L0 
     /tmp/cc05hGc4.s:204    .text:0000000000000120 .L0 
     /tmp/cc05hGc4.s:205    .text:0000000000000120 .L0 
     /tmp/cc05hGc4.s:207    .text:0000000000000124 .L0 
     /tmp/cc05hGc4.s:209    .text:0000000000000128 .L0 
     /tmp/cc05hGc4.s:215    .text:0000000000000128 _ZN3TCB12createThreadEPFvPvES0_Pm
     /tmp/cc05hGc4.s:218    .text:0000000000000128 .L0 
     /tmp/cc05hGc4.s:220    .text:0000000000000128 .L0 
     /tmp/cc05hGc4.s:221    .text:000000000000012c .L0 
     /tmp/cc05hGc4.s:228    .text:0000000000000144 .L0 
     /tmp/cc05hGc4.s:229    .text:0000000000000144 .L0 
     /tmp/cc05hGc4.s:230    .text:0000000000000144 .L0 
     /tmp/cc05hGc4.s:231    .text:0000000000000144 .L0 
     /tmp/cc05hGc4.s:232    .text:0000000000000144 .L0 
     /tmp/cc05hGc4.s:233    .text:0000000000000144 .L0 
     /tmp/cc05hGc4.s:235    .text:0000000000000148 .L0 
     /tmp/cc05hGc4.s:240    .text:0000000000000154 .L0 
     /tmp/cc05hGc4.s:241    .text:0000000000000154 .L0 
     /tmp/cc05hGc4.s:250    .text:0000000000000164 .L0 
     /tmp/cc05hGc4.s:260    .text:0000000000000184 .L0 
     /tmp/cc05hGc4.s:261    .text:0000000000000184 .L0 
     /tmp/cc05hGc4.s:266    .text:0000000000000190 .L0 
     /tmp/cc05hGc4.s:267    .text:0000000000000190 .L0 
     /tmp/cc05hGc4.s:269    .text:0000000000000194 .L0 
     /tmp/cc05hGc4.s:274    .text:000000000000019c .L0 
     /tmp/cc05hGc4.s:275    .text:000000000000019c .L0 
     /tmp/cc05hGc4.s:277    .text:00000000000001a0 .L0 
GAS LISTING /tmp/cc05hGc4.s 			page 13


     /tmp/cc05hGc4.s:278    .text:00000000000001a0 .L0 
     /tmp/cc05hGc4.s:284    .text:00000000000001a4 .L0 
     /tmp/cc05hGc4.s:286    .text:00000000000001a8 .L0 
     /tmp/cc05hGc4.s:287    .text:00000000000001a8 .L0 
     /tmp/cc05hGc4.s:292    .text:00000000000001b4 .L0 
     /tmp/cc05hGc4.s:293    .text:00000000000001b4 .L0 
     /tmp/cc05hGc4.s:295    .text:00000000000001bc .L0 
     /tmp/cc05hGc4.s:296    .text:00000000000001bc .L0 
     /tmp/cc05hGc4.s:298    .text:00000000000001c0 .L0 
     /tmp/cc05hGc4.s:299    .text:00000000000001c0 .L0 
     /tmp/cc05hGc4.s:301    .text:00000000000001c4 .L0 
     /tmp/cc05hGc4.s:304    .text:00000000000001c8 .L0 
     /tmp/cc05hGc4.s:307    .text:00000000000001cc .L0 
     /tmp/cc05hGc4.s:310    .text:00000000000001d0 .L0 
     /tmp/cc05hGc4.s:313    .text:00000000000001d4 .L0 
     /tmp/cc05hGc4.s:317    .text:00000000000001d8 .L0 
     /tmp/cc05hGc4.s:322    .text:00000000000001d8 .L0 
     /tmp/cc05hGc4.s:327    .text:00000000000001e0 .L0 
     /tmp/cc05hGc4.s:333    .text:00000000000001e8 .L0 
     /tmp/cc05hGc4.s:339    .text:00000000000001e8 _ZN3TCBdlEPv
     /tmp/cc05hGc4.s:342    .text:00000000000001e8 .L0 
     /tmp/cc05hGc4.s:344    .text:00000000000001e8 .L0 
     /tmp/cc05hGc4.s:345    .text:00000000000001ec .L0 
     /tmp/cc05hGc4.s:348    .text:00000000000001f4 .L0 
     /tmp/cc05hGc4.s:349    .text:00000000000001f4 .L0 
     /tmp/cc05hGc4.s:351    .text:00000000000001f8 .L0 
     /tmp/cc05hGc4.s:353    .text:00000000000001f8 .L0 
     /tmp/cc05hGc4.s:354    .text:00000000000001f8 .L0 
     /tmp/cc05hGc4.s:357    .text:0000000000000200 .L0 
     /tmp/cc05hGc4.s:358    .text:0000000000000204 .L0 
     /tmp/cc05hGc4.s:360    .text:0000000000000208 .L0 
     /tmp/cc05hGc4.s:361    .text:0000000000000208 .L0 
     /tmp/cc05hGc4.s:363    .text:000000000000020c .L0 
     /tmp/cc05hGc4.s:365    .text:0000000000000210 .L0 
     /tmp/cc05hGc4.s:379    .bss:0000000000000008 _ZN3TCB16runningTimeSliceE
     /tmp/cc05hGc4.s:375    .bss:0000000000000000 _ZN3TCB7runningE
     /tmp/cc05hGc4.s:372    .bss:0000000000000000 .LANCHOR0
     /tmp/cc05hGc4.s:387    .text:0000000000000210 .L0 
     /tmp/cc05hGc4.s:26     .text:0000000000000014 .L0 
     /tmp/cc05hGc4.s:58     .text:0000000000000038 .L0 
     /tmp/cc05hGc4.s:147    .text:00000000000000bc .L0 
     /tmp/cc05hGc4.s:262    .text:0000000000000188 .L0 
     /tmp/cc05hGc4.s:51     .text:000000000000002c .L2
     /tmp/cc05hGc4.s:78     .text:0000000000000060 .L4
     /tmp/cc05hGc4.s:316    .text:00000000000001d8 .L15
     /tmp/cc05hGc4.s:325    .text:00000000000001e0 .L16
     /tmp/cc05hGc4.s:291    .text:00000000000001b4 .L11
     /tmp/cc05hGc4.s:263    .text:0000000000000190 .L12
     /tmp/cc05hGc4.s:272    .text:000000000000019c .L13
     /tmp/cc05hGc4.s:1548   .debug_abbrev:0000000000000000 .Ldebug_abbrev0
     /tmp/cc05hGc4.s:3044   .debug_str:000000000000065b .LASF121
     /tmp/cc05hGc4.s:2856   .debug_str:00000000000000e0 .LASF122
     /tmp/cc05hGc4.s:2912   .debug_str:0000000000000279 .LASF123
     /tmp/cc05hGc4.s:5      .text:0000000000000000 .Ltext0
     /tmp/cc05hGc4.s:382    .text:0000000000000210 .Letext0
     /tmp/cc05hGc4.s:2822   .debug_line:0000000000000000 .Ldebug_line0
     /tmp/cc05hGc4.s:2968   .debug_str:000000000000043c .LASF0
GAS LISTING /tmp/cc05hGc4.s 			page 14


     /tmp/cc05hGc4.s:2982   .debug_str:0000000000000474 .LASF1
     /tmp/cc05hGc4.s:2954   .debug_str:00000000000003e0 .LASF2
     /tmp/cc05hGc4.s:2926   .debug_str:0000000000000321 .LASF4
     /tmp/cc05hGc4.s:3022   .debug_str:00000000000005aa .LASF3
     /tmp/cc05hGc4.s:2852   .debug_str:00000000000000a4 .LASF5
     /tmp/cc05hGc4.s:2880   .debug_str:000000000000018f .LASF6
     /tmp/cc05hGc4.s:2984   .debug_str:0000000000000487 .LASF7
     /tmp/cc05hGc4.s:2966   .debug_str:0000000000000429 .LASF8
     /tmp/cc05hGc4.s:3056   .debug_str:0000000000000768 .LASF9
     /tmp/cc05hGc4.s:2910   .debug_str:000000000000026b .LASF10
     /tmp/cc05hGc4.s:3000   .debug_str:0000000000000506 .LASF11
     /tmp/cc05hGc4.s:3046   .debug_str:000000000000071f .LASF12
     /tmp/cc05hGc4.s:2942   .debug_str:0000000000000381 .LASF13
     /tmp/cc05hGc4.s:2830   .debug_str:000000000000002a .LASF14
     /tmp/cc05hGc4.s:2862   .debug_str:000000000000010e .LASF15
     /tmp/cc05hGc4.s:3016   .debug_str:0000000000000576 .LASF16
     /tmp/cc05hGc4.s:2874   .debug_str:0000000000000160 .LASF17
     /tmp/cc05hGc4.s:2840   .debug_str:0000000000000065 .LASF124
     /tmp/cc05hGc4.s:2938   .debug_str:000000000000035e .LASF18
     /tmp/cc05hGc4.s:3070   .debug_str:00000000000007cd .LASF20
     /tmp/cc05hGc4.s:3006   .debug_str:0000000000000539 .LASF125
     /tmp/cc05hGc4.s:2986   .debug_str:000000000000049a .LASF22
     /tmp/cc05hGc4.s:2946   .debug_str:00000000000003a9 .LASF24
     /tmp/cc05hGc4.s:2956   .debug_str:00000000000003ee .LASF19
     /tmp/cc05hGc4.s:2920   .debug_str:00000000000002d8 .LASF21
     /tmp/cc05hGc4.s:2838   .debug_str:000000000000005b .LASF23
     /tmp/cc05hGc4.s:2990   .debug_str:00000000000004ae .LASF25
     /tmp/cc05hGc4.s:2930   .debug_str:0000000000000337 .LASF26
     /tmp/cc05hGc4.s:3050   .debug_str:0000000000000736 .LASF27
     /tmp/cc05hGc4.s:2948   .debug_str:00000000000003bf .LASF28
     /tmp/cc05hGc4.s:2998   .debug_str:00000000000004ee .LASF29
     /tmp/cc05hGc4.s:3054   .debug_str:000000000000075b .LASF30
     /tmp/cc05hGc4.s:3058   .debug_str:0000000000000778 .LASF31
     /tmp/cc05hGc4.s:3032   .debug_str:000000000000060c .LASF32
     /tmp/cc05hGc4.s:2918   .debug_str:00000000000002c1 .LASF34
     /tmp/cc05hGc4.s:2886   .debug_str:00000000000001c3 .LASF33
     /tmp/cc05hGc4.s:2904   .debug_str:000000000000023a .LASF35
     /tmp/cc05hGc4.s:3018   .debug_str:000000000000058c .LASF36
     /tmp/cc05hGc4.s:2960   .debug_str:0000000000000401 .LASF38
     /tmp/cc05hGc4.s:2972   .debug_str:0000000000000450 .LASF37
     /tmp/cc05hGc4.s:2894   .debug_str:00000000000001fa .LASF39
     /tmp/cc05hGc4.s:3036   .debug_str:000000000000062d .LASF40
     /tmp/cc05hGc4.s:3026   .debug_str:00000000000005cc .LASF41
     /tmp/cc05hGc4.s:2892   .debug_str:00000000000001f2 .LASF42
     /tmp/cc05hGc4.s:3004   .debug_str:0000000000000528 .LASF43
     /tmp/cc05hGc4.s:2936   .debug_str:0000000000000356 .LASF44
     /tmp/cc05hGc4.s:2952   .debug_str:00000000000003d1 .LASF45
     /tmp/cc05hGc4.s:2974   .debug_str:0000000000000459 .LASF46
     /tmp/cc05hGc4.s:2976   .debug_str:000000000000045f .LASF47
     /tmp/cc05hGc4.s:2978   .debug_str:0000000000000464 .LASF48
     /tmp/cc05hGc4.s:2932   .debug_str:0000000000000342 .LASF49
     /tmp/cc05hGc4.s:2824   .debug_str:0000000000000000 .LASF50
     /tmp/cc05hGc4.s:3024   .debug_str:00000000000005bc .LASF51
     /tmp/cc05hGc4.s:3072   .debug_str:00000000000007ef .LASF96
     /tmp/cc05hGc4.s:3060   .debug_str:0000000000000790 .LASF88
     /tmp/cc05hGc4.s:2922   .debug_str:00000000000002ef .LASF90
     /tmp/cc05hGc4.s:3062   .debug_str:000000000000079e .LASF52
GAS LISTING /tmp/cc05hGc4.s 			page 15


     /tmp/cc05hGc4.s:3040   .debug_str:000000000000063d .LASF53
     /tmp/cc05hGc4.s:3030   .debug_str:00000000000005fc .LASF126
     /tmp/cc05hGc4.s:3010   .debug_str:0000000000000543 .LASF127
     /tmp/cc05hGc4.s:2896   .debug_str:000000000000020d .LASF54
     /tmp/cc05hGc4.s:2980   .debug_str:000000000000046e .LASF55
     /tmp/cc05hGc4.s:2850   .debug_str:0000000000000096 .LASF56
     /tmp/cc05hGc4.s:2890   .debug_str:00000000000001d7 .LASF57
     /tmp/cc05hGc4.s:2898   .debug_str:0000000000000212 .LASF58
     /tmp/cc05hGc4.s:2828   .debug_str:0000000000000010 .LASF59
     /tmp/cc05hGc4.s:2832   .debug_str:000000000000003a .LASF62
     /tmp/cc05hGc4.s:3034   .debug_str:0000000000000618 .LASF64
     /tmp/cc05hGc4.s:2888   .debug_str:00000000000001ce .LASF60
     /tmp/cc05hGc4.s:2868   .debug_str:000000000000012b .LASF61
     /tmp/cc05hGc4.s:2958   .debug_str:00000000000003fa .LASF63
     /tmp/cc05hGc4.s:3002   .debug_str:0000000000000515 .LASF65
     /tmp/cc05hGc4.s:3012   .debug_str:0000000000000550 .LASF66
     /tmp/cc05hGc4.s:2908   .debug_str:0000000000000258 .LASF67
     /tmp/cc05hGc4.s:2902   .debug_str:0000000000000232 .LASF68
     /tmp/cc05hGc4.s:2876   .debug_str:0000000000000176 .LASF69
     /tmp/cc05hGc4.s:2826   .debug_str:0000000000000008 .LASF70
     /tmp/cc05hGc4.s:2916   .debug_str:00000000000002ad .LASF71
     /tmp/cc05hGc4.s:2970   .debug_str:0000000000000449 .LASF72
     /tmp/cc05hGc4.s:3068   .debug_str:00000000000007ba .LASF73
     /tmp/cc05hGc4.s:2848   .debug_str:000000000000008f .LASF74
     /tmp/cc05hGc4.s:2900   .debug_str:000000000000021f .LASF75
     /tmp/cc05hGc4.s:2906   .debug_str:0000000000000252 .LASF76
     /tmp/cc05hGc4.s:3042   .debug_str:0000000000000649 .LASF77
     /tmp/cc05hGc4.s:2846   .debug_str:0000000000000089 .LASF78
     /tmp/cc05hGc4.s:3082   .debug_str:000000000000083e .LASF79
     /tmp/cc05hGc4.s:3074   .debug_str:0000000000000805 .LASF80
     /tmp/cc05hGc4.s:3020   .debug_str:0000000000000592 .LASF81
     /tmp/cc05hGc4.s:2934   .debug_str:000000000000034b .LASF82
     /tmp/cc05hGc4.s:2944   .debug_str:0000000000000391 .LASF83
     /tmp/cc05hGc4.s:2860   .debug_str:0000000000000104 .LASF84
     /tmp/cc05hGc4.s:2992   .debug_str:00000000000004c2 .LASF85
     /tmp/cc05hGc4.s:2844   .debug_str:000000000000007f .LASF86
     /tmp/cc05hGc4.s:2914   .debug_str:0000000000000297 .LASF87
     /tmp/cc05hGc4.s:2864   .debug_str:000000000000011a .LASF89
     /tmp/cc05hGc4.s:3078   .debug_str:0000000000000815 .LASF91
     /tmp/cc05hGc4.s:2994   .debug_str:00000000000004d8 .LASF92
     /tmp/cc05hGc4.s:2878   .debug_str:000000000000018a .LASF93
     /tmp/cc05hGc4.s:2950   .debug_str:00000000000003cc .LASF94
     /tmp/cc05hGc4.s:2842   .debug_str:000000000000006d .LASF95
     /tmp/cc05hGc4.s:2858   .debug_str:00000000000000ec .LASF97
     /tmp/cc05hGc4.s:2884   .debug_str:00000000000001af .LASF128
     /tmp/cc05hGc4.s:2964   .debug_str:0000000000000419 .LASF98
     /tmp/cc05hGc4.s:3052   .debug_str:000000000000074c .LASF102
     /tmp/cc05hGc4.s:3076   .debug_str:0000000000000810 .LASF99
     /tmp/cc05hGc4.s:3066   .debug_str:00000000000007b5 .LASF100
     /tmp/cc05hGc4.s:3008   .debug_str:000000000000053e .LASF101
     /tmp/cc05hGc4.s:2928   .debug_str:0000000000000328 .LASF103
     /tmp/cc05hGc4.s:3038   .debug_str:0000000000000635 .LASF104
     /tmp/cc05hGc4.s:3014   .debug_str:0000000000000557 .LASF105
     /tmp/cc05hGc4.s:2866   .debug_str:0000000000000125 .LASF106
     /tmp/cc05hGc4.s:3028   .debug_str:00000000000005de .LASF107
     /tmp/cc05hGc4.s:2882   .debug_str:0000000000000196 .LASF108
     /tmp/cc05hGc4.s:2836   .debug_str:000000000000004f .LASF109
GAS LISTING /tmp/cc05hGc4.s 			page 16


     /tmp/cc05hGc4.s:2834   .debug_str:0000000000000043 .LASF110
     /tmp/cc05hGc4.s:2996   .debug_str:00000000000004e2 .LASF111
     /tmp/cc05hGc4.s:3064   .debug_str:00000000000007ab .LASF112
     /tmp/cc05hGc4.s:2854   .debug_str:00000000000000ab .LASF113
     /tmp/cc05hGc4.s:3080   .debug_str:000000000000082d .LASF114
     /tmp/cc05hGc4.s:2870   .debug_str:0000000000000140 .LASF115
     /tmp/cc05hGc4.s:340    .text:00000000000001e8 .LFB35
     /tmp/cc05hGc4.s:366    .text:0000000000000210 .LFE35
     /tmp/cc05hGc4.s:2577   .debug_loc:0000000000000000 .LLST14
     /tmp/cc05hGc4.s:355    .text:0000000000000200 .LVL33
     /tmp/cc05hGc4.s:182    .text:00000000000000fc .LFB34
     /tmp/cc05hGc4.s:210    .text:0000000000000128 .LFE34
     /tmp/cc05hGc4.s:2591   .debug_loc:0000000000000039 .LLST3
     /tmp/cc05hGc4.s:199    .text:0000000000000118 .LVL16
     /tmp/cc05hGc4.s:132    .text:00000000000000a8 .LFB33
     /tmp/cc05hGc4.s:176    .text:00000000000000fc .LFE33
     /tmp/cc05hGc4.s:163    .text:00000000000000e8 .LVL13
     /tmp/cc05hGc4.s:93     .text:0000000000000070 .LFB32
     /tmp/cc05hGc4.s:126    .text:00000000000000a8 .LFE32
     /tmp/cc05hGc4.s:107    .text:0000000000000088 .LVL9
     /tmp/cc05hGc4.s:111    .text:0000000000000090 .LVL10
     /tmp/cc05hGc4.s:115    .text:0000000000000098 .LVL11
     /tmp/cc05hGc4.s:10     .text:0000000000000000 .LFB31
     /tmp/cc05hGc4.s:87     .text:0000000000000070 .LFE31
     /tmp/cc05hGc4.s:2611   .debug_loc:0000000000000087 .LLST0
     /tmp/cc05hGc4.s:29     .text:000000000000001c .LBB10
     /tmp/cc05hGc4.s:37     .text:0000000000000020 .LBE10
     /tmp/cc05hGc4.s:2622   .debug_loc:00000000000000bd .LLST1
     /tmp/cc05hGc4.s:41     .text:0000000000000024 .LBB12
     /tmp/cc05hGc4.s:48     .text:0000000000000028 .LBE12
     /tmp/cc05hGc4.s:2629   .debug_loc:00000000000000e0 .LLST2
     /tmp/cc05hGc4.s:55     .text:0000000000000034 .LVL4
     /tmp/cc05hGc4.s:63     .text:000000000000004c .LVL5
     /tmp/cc05hGc4.s:84     .text:000000000000006c .LVL8
     /tmp/cc05hGc4.s:216    .text:0000000000000128 .LFB30
     /tmp/cc05hGc4.s:334    .text:00000000000001e8 .LFE30
     /tmp/cc05hGc4.s:2988   .debug_str:00000000000004a5 .LASF116
     /tmp/cc05hGc4.s:2636   .debug_loc:0000000000000103 .LLST4
     /tmp/cc05hGc4.s:2658   .debug_loc:0000000000000162 .LLST5
     /tmp/cc05hGc4.s:2680   .debug_loc:00000000000001c1 .LLST6
     /tmp/cc05hGc4.s:2924   .debug_str:0000000000000317 .LASF117
     /tmp/cc05hGc4.s:2712   .debug_loc:0000000000000248 .LLST7
     /tmp/cc05hGc4.s:247    .text:0000000000000164 .LBB14
     /tmp/cc05hGc4.s:2808   .debug_ranges:0000000000000000 .Ldebug_ranges0
     /tmp/cc05hGc4.s:2723   .debug_loc:000000000000027e .LLST8
     /tmp/cc05hGc4.s:2744   .debug_loc:00000000000002dc .LLST9
     /tmp/cc05hGc4.s:2755   .debug_loc:0000000000000312 .LLST10
     /tmp/cc05hGc4.s:2766   .debug_loc:0000000000000348 .LLST11
     /tmp/cc05hGc4.s:2777   .debug_loc:000000000000037e .LLST12
     /tmp/cc05hGc4.s:2788   .debug_loc:00000000000003b4 .LLST13
     /tmp/cc05hGc4.s:244    .text:0000000000000160 .LVL19
     /tmp/cc05hGc4.s:289    .text:00000000000001b4 .LVL24
     /tmp/cc05hGc4.s:2872   .debug_str:000000000000015b .LASF120
     /tmp/cc05hGc4.s:2962   .debug_str:0000000000000411 .LASF118
     /tmp/cc05hGc4.s:3048   .debug_str:000000000000072e .LASF119
     /tmp/cc05hGc4.s:2940   .debug_str:000000000000036b .LASF129
     /tmp/cc05hGc4.s:343    .text:00000000000001e8 .LVL32
GAS LISTING /tmp/cc05hGc4.s 			page 17


     /tmp/cc05hGc4.s:185    .text:00000000000000fc .LVL14
     /tmp/cc05hGc4.s:197    .text:0000000000000110 .LVL15
     /tmp/cc05hGc4.s:27     .text:000000000000001c .LVL0
     /tmp/cc05hGc4.s:73     .text:0000000000000058 .LVL6
     /tmp/cc05hGc4.s:77     .text:0000000000000060 .LVL7
     /tmp/cc05hGc4.s:35     .text:0000000000000020 .LVL1
     /tmp/cc05hGc4.s:40     .text:0000000000000024 .LVL2
     /tmp/cc05hGc4.s:46     .text:0000000000000028 .LVL3
     /tmp/cc05hGc4.s:219    .text:0000000000000128 .LVL17
     /tmp/cc05hGc4.s:242    .text:0000000000000158 .LVL18
     /tmp/cc05hGc4.s:308    .text:00000000000001cc .LVL27
     /tmp/cc05hGc4.s:315    .text:00000000000001d8 .LVL29
     /tmp/cc05hGc4.s:311    .text:00000000000001d0 .LVL28
     /tmp/cc05hGc4.s:271    .text:000000000000019c .LVL22
     /tmp/cc05hGc4.s:328    .text:00000000000001e4 .LVL31
     /tmp/cc05hGc4.s:279    .text:00000000000001a4 .LVL23
     /tmp/cc05hGc4.s:302    .text:00000000000001c4 .LVL25
     /tmp/cc05hGc4.s:246    .text:0000000000000164 .LVL20
     /tmp/cc05hGc4.s:264    .text:0000000000000190 .LVL21
     /tmp/cc05hGc4.s:324    .text:00000000000001e0 .LVL30
     /tmp/cc05hGc4.s:305    .text:00000000000001c8 .LVL26
     /tmp/cc05hGc4.s:388    .debug_info:0000000000000000 .Ldebug_info0
     /tmp/cc05hGc4.s:282    .text:00000000000001a4 .LBE14
     /tmp/cc05hGc4.s:318    .text:00000000000001d8 .LBB19
     /tmp/cc05hGc4.s:332    .text:00000000000001e8 .LBE19
     /tmp/cc05hGc4.s:258    .text:0000000000000184 .LBB16
     /tmp/cc05hGc4.s:280    .text:00000000000001a4 .LBE16
     /tmp/cc05hGc4.s:320    .text:00000000000001d8 .LBB17
     /tmp/cc05hGc4.s:330    .text:00000000000001e8 .LBE17

UNDEFINED SYMBOLS
_ZN9Scheduler3getEv
_ZN3TCB13contextSwitchEPNS_7ContextES1_
_ZN9Scheduler3putEP3TCB
_ZN5Riscv13pushRegistersEv
_ZN5Riscv12popRegistersEv
_ZN15MemoryAllocator7kmallocEm
_ZN15MemoryAllocator5kfreeEPv
