GAS LISTING /tmp/ccIjMqt3.s 			page 1


   1              		.file	"TCB.cpp"
   2              		.option pic
   3              		.option norelax
   4              		.text
   5              	.Ltext0:
   6              		.align	2
   7              		.globl	_ZN3TCB15functionWrapperEPv
   9              	_ZN3TCB15functionWrapperEPv:
  10              	.LFB45:
  11              		.file 1 "src/TCB.cpp"
   1:src/TCB.cpp   **** //
   2:src/TCB.cpp   **** // Created by os on 5/23/23.
   3:src/TCB.cpp   **** //
   4:src/TCB.cpp   **** 
   5:src/TCB.cpp   **** #include "../h/TCB.hpp"
   6:src/TCB.cpp   **** #include "../h/riscv.hpp"
   7:src/TCB.cpp   **** 
   8:src/TCB.cpp   **** TCB* TCB::running = nullptr;
   9:src/TCB.cpp   **** uint64 TCB::runningTimeSlice = 0;
  10:src/TCB.cpp   **** 
  11:src/TCB.cpp   **** TCB* TCB::createThread(TCB::Body function, void* args, uint64* stack) {
  12:src/TCB.cpp   **** 	return new TCB(function, args, stack);
  13:src/TCB.cpp   **** }
  14:src/TCB.cpp   **** 
  15:src/TCB.cpp   **** void TCB::dispatch() {
  16:src/TCB.cpp   **** 	TCB* old = TCB::running;
  17:src/TCB.cpp   **** 	if (!old->isFinished() && !old->isBlocked()) {
  18:src/TCB.cpp   **** 		Scheduler::put(old);
  19:src/TCB.cpp   **** 	}
  20:src/TCB.cpp   **** 	TCB::running = Scheduler::get();
  21:src/TCB.cpp   **** 	TCB::contextSwitch(&old->context, &running->context);
  22:src/TCB.cpp   **** }
  23:src/TCB.cpp   **** 
  24:src/TCB.cpp   **** void TCB::yield() {
  25:src/TCB.cpp   **** 	Riscv::pushRegisters();
  26:src/TCB.cpp   **** 	TCB::dispatch();
  27:src/TCB.cpp   **** 	Riscv::popRegisters();
  28:src/TCB.cpp   **** }
  29:src/TCB.cpp   **** 
  30:src/TCB.cpp   **** void TCB::functionWrapper(void*) {
  12              		.loc 1 30 34
  13              		.cfi_startproc
  14 0000 130101FF 		addi	sp,sp,-16
  15              		.cfi_def_cfa_offset 16
  16 0004 23348100 		sd	s0,8(sp)
  17              		.cfi_offset 8, -8
  18 0008 13040101 		addi	s0,sp,16
  19              		.cfi_def_cfa 8, 0
  31:src/TCB.cpp   **** 
  32:src/TCB.cpp   **** }
  20              		.loc 1 32 1 is_stmt 0
  21 000c 03348100 		ld	s0,8(sp)
  22              		.cfi_restore 8
  23              		.cfi_def_cfa 2, 16
  24 0010 13010101 		addi	sp,sp,16
  25              		.cfi_def_cfa_offset 0
  26 0014 67800000 		jr	ra
GAS LISTING /tmp/ccIjMqt3.s 			page 2


  27              		.cfi_endproc
  28              	.LFE45:
  30              		.align	2
  31              		.globl	_ZN3TCB12createThreadEPFvPvES0_Pm
  33              	_ZN3TCB12createThreadEPFvPvES0_Pm:
  34              	.LFB42:
  11:src/TCB.cpp   **** 	return new TCB(function, args, stack);
  35              		.loc 1 11 71 is_stmt 1
  36              		.cfi_startproc
  37              		.cfi_personality 0x9b,DW.ref.__gxx_personality_v0
  38              		.cfi_lsda 0x1b,.LLSDA42
  39              	.LVL0:
  40 0018 130101FD 		addi	sp,sp,-48
  41              		.cfi_def_cfa_offset 48
  42 001c 23341102 		sd	ra,40(sp)
  43 0020 23308102 		sd	s0,32(sp)
  44 0024 233C9100 		sd	s1,24(sp)
  45 0028 23382101 		sd	s2,16(sp)
  46 002c 23343101 		sd	s3,8(sp)
  47 0030 23304101 		sd	s4,0(sp)
  48              		.cfi_offset 1, -8
  49              		.cfi_offset 8, -16
  50              		.cfi_offset 9, -24
  51              		.cfi_offset 18, -32
  52              		.cfi_offset 19, -40
  53              		.cfi_offset 20, -48
  54 0034 13040103 		addi	s0,sp,48
  55              		.cfi_def_cfa 8, 0
  56 0038 130A0500 		mv	s4,a0
  57 003c 93890500 		mv	s3,a1
  58 0040 13090600 		mv	s2,a2
  12:src/TCB.cpp   **** }
  59              		.loc 1 12 2
  12:src/TCB.cpp   **** }
  60              		.loc 1 12 38 is_stmt 0
  61 0044 13058003 		li	a0,56
  62              	.LVL1:
  63              	.LEHB0:
  64 0048 97000000 		call	_Znwm@plt
  64      E7800000 
  65              	.LVL2:
  66              	.LEHE0:
  67 0050 93040500 		mv	s1,a0
  68              	.LVL3:
  69              	.LBB9:
  70              	.LBB10:
  71              	.LBB11:
  72              		.file 2 "src/../h/TCB.hpp"
   1:src/../h/TCB.hpp **** //
   2:src/../h/TCB.hpp **** // Created by os on 5/23/23.
   3:src/../h/TCB.hpp **** //
   4:src/../h/TCB.hpp **** 
   5:src/../h/TCB.hpp **** #ifndef PROJEKAT2023_TCB_HPP
   6:src/../h/TCB.hpp **** #define PROJEKAT2023_TCB_HPP
   7:src/../h/TCB.hpp **** 
   8:src/../h/TCB.hpp **** #include "../lib/hw.h"
   9:src/../h/TCB.hpp **** #include "../h/Scheduler.hpp"
GAS LISTING /tmp/ccIjMqt3.s 			page 3


  10:src/../h/TCB.hpp **** 
  11:src/../h/TCB.hpp **** class TCB {
  12:src/../h/TCB.hpp **** public:
  13:src/../h/TCB.hpp **** 	using Body = void (*)(void*);
  14:src/../h/TCB.hpp **** 
  15:src/../h/TCB.hpp **** 	static TCB* createThread(Body function, void* args, uint64* stack);
  16:src/../h/TCB.hpp **** 
  17:src/../h/TCB.hpp **** 	bool isFinished() { return finished; }
  18:src/../h/TCB.hpp **** 
  19:src/../h/TCB.hpp **** 	void setFinished(bool finish) { this->finished = finish; }
  20:src/../h/TCB.hpp **** 
  21:src/../h/TCB.hpp **** 	bool isBlocked() { return blocked; }
  22:src/../h/TCB.hpp **** 
  23:src/../h/TCB.hpp **** 	void setBlocked(bool block) { this->blocked = block; }
  24:src/../h/TCB.hpp **** 
  25:src/../h/TCB.hpp **** 	uint64& getTimeSlice() { return timeSlice; }
  26:src/../h/TCB.hpp **** 
  27:src/../h/TCB.hpp **** 	void setTimeSlice(uint64 value) { timeSlice = value; }
  28:src/../h/TCB.hpp **** 
  29:src/../h/TCB.hpp **** 	static void threadSleep(time_t sleepTime);
  30:src/../h/TCB.hpp **** 
  31:src/../h/TCB.hpp **** 	static void yield();
  32:src/../h/TCB.hpp **** 
  33:src/../h/TCB.hpp **** 	static void dispatch();
  34:src/../h/TCB.hpp **** 
  35:src/../h/TCB.hpp **** 	static void functionWrapper(void*);
  36:src/../h/TCB.hpp **** 
  37:src/../h/TCB.hpp **** 	static TCB* running;
  38:src/../h/TCB.hpp **** 	static uint64 runningTimeSlice;
  39:src/../h/TCB.hpp **** 
  40:src/../h/TCB.hpp **** private:
  41:src/../h/TCB.hpp **** 	TCB(Body function, void* args, uint64* stack) {
  42:src/../h/TCB.hpp **** 		this->threadFunction = function;
  73              		.loc 2 42 3 is_stmt 1
  74              		.loc 2 42 24 is_stmt 0
  75 0054 23384501 		sd	s4,16(a0)
  43:src/../h/TCB.hpp **** 		this->args = args;
  76              		.loc 2 43 3 is_stmt 1
  77              		.loc 2 43 14 is_stmt 0
  78 0058 23303503 		sd	s3,32(a0)
  44:src/../h/TCB.hpp **** 		this->stack = stack;
  79              		.loc 2 44 3 is_stmt 1
  80              		.loc 2 44 15 is_stmt 0
  81 005c 233C2501 		sd	s2,24(a0)
  45:src/../h/TCB.hpp **** 		this->timeSlice = DEFAULT_TIME_SLICE;
  82              		.loc 2 45 3 is_stmt 1
  83              		.loc 2 45 19 is_stmt 0
  84 0060 93072000 		li	a5,2
  85 0064 2334F502 		sd	a5,40(a0)
  46:src/../h/TCB.hpp **** 		this->finished = false;
  86              		.loc 2 46 3 is_stmt 1
  87              		.loc 2 46 18 is_stmt 0
  88 0068 23080502 		sb	zero,48(a0)
  47:src/../h/TCB.hpp **** 		this->blocked = false;
  89              		.loc 2 47 3 is_stmt 1
  90              		.loc 2 47 17 is_stmt 0
  91 006c A3080502 		sb	zero,49(a0)
GAS LISTING /tmp/ccIjMqt3.s 			page 4


  48:src/../h/TCB.hpp **** 		this->context.ra = (uint64)&functionWrapper;
  92              		.loc 2 48 3 is_stmt 1
  93              		.loc 2 48 20 is_stmt 0
  94 0070 97070000 		lla	a5,_ZN3TCB15functionWrapperEPv
  94      93870700 
  95 0078 2334F500 		sd	a5,8(a0)
  49:src/../h/TCB.hpp **** 		this->context.sp = (uint64)&stack[DEFAULT_STACK_SIZE];
  96              		.loc 2 49 3 is_stmt 1
  97              		.loc 2 49 30 is_stmt 0
  98 007c 37860000 		li	a2,32768
  99 0080 3309C900 		add	s2,s2,a2
 100              	.LVL4:
 101              		.loc 2 49 20
 102 0084 23302501 		sd	s2,0(a0)
  50:src/../h/TCB.hpp **** 
  51:src/../h/TCB.hpp **** 		Scheduler::put(this);
 103              		.loc 2 51 3 is_stmt 1
 104              	.LEHB1:
 105              		.loc 2 51 17 is_stmt 0
 106 0088 97000000 		call	_ZN9Scheduler3putEP3TCB@plt
 106      E7800000 
 107              	.LVL5:
 108              	.LEHE1:
 109 0090 6F000002 		j	.L8
 110              	.L5:
 111 0094 13090500 		mv	s2,a0
 112              	.LVL6:
 113              	.LBE11:
 114              	.LBE10:
 115              	.LBE9:
  12:src/TCB.cpp   **** }
 116              		.loc 1 12 38
 117 0098 13850400 		mv	a0,s1
 118 009c 97000000 		call	_ZdlPv@plt
 118      E7800000 
 119              	.LVL7:
 120 00a4 13050900 		mv	a0,s2
 121              	.LEHB2:
 122 00a8 97000000 		call	_Unwind_Resume@plt
 122      E7800000 
 123              	.LVL8:
 124              	.LEHE2:
 125              	.L8:
  13:src/TCB.cpp   **** 
 126              		.loc 1 13 1
 127 00b0 13850400 		mv	a0,s1
 128 00b4 83308102 		ld	ra,40(sp)
 129              		.cfi_restore 1
 130 00b8 03340102 		ld	s0,32(sp)
 131              		.cfi_restore 8
 132              		.cfi_def_cfa 2, 48
 133 00bc 83348101 		ld	s1,24(sp)
 134              		.cfi_restore 9
 135              	.LVL9:
 136 00c0 03390101 		ld	s2,16(sp)
 137              		.cfi_restore 18
 138 00c4 83398100 		ld	s3,8(sp)
GAS LISTING /tmp/ccIjMqt3.s 			page 5


 139              		.cfi_restore 19
 140              	.LVL10:
 141 00c8 033A0100 		ld	s4,0(sp)
 142              		.cfi_restore 20
 143              	.LVL11:
 144 00cc 13010103 		addi	sp,sp,48
 145              		.cfi_def_cfa_offset 0
 146 00d0 67800000 		jr	ra
 147              		.cfi_endproc
 148              	.LFE42:
 149              		.globl	__gxx_personality_v0
 150              		.section	.gcc_except_table,"a",@progbits
 151              	.LLSDA42:
 152 0000 FF       		.byte	0xff
 153 0001 FF       		.byte	0xff
 154 0002 03       		.byte	0x3
 155 0003 27       		.byte	0x27
 156 0004 00000000 		.4byte	.LEHB0-.LFB42
 157 0008 00000000 		.4byte	.LEHE0-.LEHB0
 158 000c 00000000 		.4byte	0
 159 0010 00       		.byte	0
 160 0011 00000000 		.4byte	.LEHB1-.LFB42
 161 0015 00000000 		.4byte	.LEHE1-.LEHB1
 162 0019 00000000 		.4byte	.L5-.LFB42
 163 001d 00       		.byte	0
 164 001e 00000000 		.4byte	.LEHB2-.LFB42
 165 0022 00000000 		.4byte	.LEHE2-.LEHB2
 166 0026 00000000 		.4byte	0
 167 002a 00       		.byte	0
 168              		.text
 170              		.align	2
 171              		.globl	_ZN3TCB8dispatchEv
 173              	_ZN3TCB8dispatchEv:
 174              	.LFB43:
  15:src/TCB.cpp   **** 	TCB* old = TCB::running;
 175              		.loc 1 15 22 is_stmt 1
 176              		.cfi_startproc
 177 00d4 130101FE 		addi	sp,sp,-32
 178              		.cfi_def_cfa_offset 32
 179 00d8 233C1100 		sd	ra,24(sp)
 180 00dc 23388100 		sd	s0,16(sp)
 181 00e0 23349100 		sd	s1,8(sp)
 182              		.cfi_offset 1, -8
 183              		.cfi_offset 8, -16
 184              		.cfi_offset 9, -24
 185 00e4 13040102 		addi	s0,sp,32
 186              		.cfi_def_cfa 8, 0
  16:src/TCB.cpp   **** 	if (!old->isFinished() && !old->isBlocked()) {
 187              		.loc 1 16 2
  16:src/TCB.cpp   **** 	if (!old->isFinished() && !old->isBlocked()) {
 188              		.loc 1 16 7 is_stmt 0
 189 00e8 97040000 		ld	s1,.LANCHOR0
 189      83B40400 
 190              	.LVL12:
  17:src/TCB.cpp   **** 		Scheduler::put(old);
 191              		.loc 1 17 2 is_stmt 1
 192              	.LBB12:
GAS LISTING /tmp/ccIjMqt3.s 			page 6


 193              	.LBB13:
  17:src/../h/TCB.hpp **** 
 194              		.loc 2 17 22
  17:src/../h/TCB.hpp **** 
 195              		.loc 2 17 29 is_stmt 0
 196 00f0 83C70403 		lbu	a5,48(s1)
 197              	.LVL13:
 198              	.LBE13:
 199              	.LBE12:
  17:src/TCB.cpp   **** 		Scheduler::put(old);
 200              		.loc 1 17 25
 201 00f4 63960700 		bnez	a5,.L10
 202              	.LVL14:
 203              	.LBB14:
 204              	.LBB15:
  21:src/../h/TCB.hpp **** 
 205              		.loc 2 21 21 is_stmt 1
  21:src/../h/TCB.hpp **** 
 206              		.loc 2 21 28 is_stmt 0
 207 00f8 83C71403 		lbu	a5,49(s1)
 208              	.LVL15:
 209              	.LBE15:
 210              	.LBE14:
  17:src/TCB.cpp   **** 		Scheduler::put(old);
 211              		.loc 1 17 25
 212 00fc 638C0702 		beqz	a5,.L12
 213              	.L10:
  20:src/TCB.cpp   **** 	TCB::contextSwitch(&old->context, &running->context);
 214              		.loc 1 20 2 is_stmt 1
  20:src/TCB.cpp   **** 	TCB::contextSwitch(&old->context, &running->context);
 215              		.loc 1 20 31 is_stmt 0
 216 0100 97000000 		call	_ZN9Scheduler3getEv@plt
 216      E7800000 
 217              	.LVL16:
 218 0108 93050500 		mv	a1,a0
  20:src/TCB.cpp   **** 	TCB::contextSwitch(&old->context, &running->context);
 219              		.loc 1 20 15
 220 010c 97070000 		sd	a0,.LANCHOR0,a5
 220      23B0A700 
  21:src/TCB.cpp   **** }
 221              		.loc 1 21 2 is_stmt 1
  21:src/TCB.cpp   **** }
 222              		.loc 1 21 20 is_stmt 0
 223 0114 13850400 		mv	a0,s1
 224 0118 97000000 		call	_ZN3TCB13contextSwitchEPNS_7ContextES1_@plt
 224      E7800000 
 225              	.LVL17:
  22:src/TCB.cpp   **** 
 226              		.loc 1 22 1
 227 0120 83308101 		ld	ra,24(sp)
 228              		.cfi_remember_state
 229              		.cfi_restore 1
 230 0124 03340101 		ld	s0,16(sp)
 231              		.cfi_restore 8
 232              		.cfi_def_cfa 2, 32
 233 0128 83348100 		ld	s1,8(sp)
 234              		.cfi_restore 9
GAS LISTING /tmp/ccIjMqt3.s 			page 7


 235              	.LVL18:
 236 012c 13010102 		addi	sp,sp,32
 237              		.cfi_def_cfa_offset 0
 238 0130 67800000 		jr	ra
 239              	.LVL19:
 240              	.L12:
 241              		.cfi_restore_state
  18:src/TCB.cpp   **** 	}
 242              		.loc 1 18 3 is_stmt 1
  18:src/TCB.cpp   **** 	}
 243              		.loc 1 18 17 is_stmt 0
 244 0134 13850400 		mv	a0,s1
 245 0138 97000000 		call	_ZN9Scheduler3putEP3TCB@plt
 245      E7800000 
 246              	.LVL20:
 247 0140 6FF01FFC 		j	.L10
 248              		.cfi_endproc
 249              	.LFE43:
 251              		.align	2
 252              		.globl	_ZN3TCB5yieldEv
 254              	_ZN3TCB5yieldEv:
 255              	.LFB44:
  24:src/TCB.cpp   **** 	Riscv::pushRegisters();
 256              		.loc 1 24 19 is_stmt 1
 257              		.cfi_startproc
 258 0144 130101FF 		addi	sp,sp,-16
 259              		.cfi_def_cfa_offset 16
 260 0148 23341100 		sd	ra,8(sp)
 261 014c 23308100 		sd	s0,0(sp)
 262              		.cfi_offset 1, -8
 263              		.cfi_offset 8, -16
 264 0150 13040101 		addi	s0,sp,16
 265              		.cfi_def_cfa 8, 0
  25:src/TCB.cpp   **** 	TCB::dispatch();
 266              		.loc 1 25 2
  25:src/TCB.cpp   **** 	TCB::dispatch();
 267              		.loc 1 25 22 is_stmt 0
 268 0154 97000000 		call	_ZN5Riscv13pushRegistersEv@plt
 268      E7800000 
 269              	.LVL21:
  26:src/TCB.cpp   **** 	Riscv::popRegisters();
 270              		.loc 1 26 2 is_stmt 1
  26:src/TCB.cpp   **** 	Riscv::popRegisters();
 271              		.loc 1 26 15 is_stmt 0
 272 015c 97000000 		call	_ZN3TCB8dispatchEv
 272      E7800000 
 273              	.LVL22:
  27:src/TCB.cpp   **** }
 274              		.loc 1 27 2 is_stmt 1
  27:src/TCB.cpp   **** }
 275              		.loc 1 27 21 is_stmt 0
 276 0164 97000000 		call	_ZN5Riscv12popRegistersEv@plt
 276      E7800000 
 277              	.LVL23:
  28:src/TCB.cpp   **** 
 278              		.loc 1 28 1
 279 016c 83308100 		ld	ra,8(sp)
GAS LISTING /tmp/ccIjMqt3.s 			page 8


 280              		.cfi_restore 1
 281 0170 03340100 		ld	s0,0(sp)
 282              		.cfi_restore 8
 283              		.cfi_def_cfa 2, 16
 284 0174 13010101 		addi	sp,sp,16
 285              		.cfi_def_cfa_offset 0
 286 0178 67800000 		jr	ra
 287              		.cfi_endproc
 288              	.LFE44:
 290              		.globl	_ZN3TCB16runningTimeSliceE
 291              		.globl	_ZN3TCB7runningE
 292              		.bss
 293              		.align	3
 294              		.set	.LANCHOR0,. + 0
 297              	_ZN3TCB7runningE:
 298 0000 00000000 		.zero	8
 298      00000000 
 301              	_ZN3TCB16runningTimeSliceE:
 302 0008 00000000 		.zero	8
 302      00000000 
 303              		.text
 304              	.Letext0:
 305              		.file 3 "src/../h/../lib/hw.h"
 306              		.file 4 "src/../h/../h/Scheduler.hpp"
 307              		.file 5 "src/../h/riscv.hpp"
 2428              		.align	3
 2431              	DW.ref.__gxx_personality_v0:
 2432 0000 00000000 		.dword	__gxx_personality_v0
 2432      00000000 
 2433              		.ident	"GCC: (Ubuntu 9.4.0-1ubuntu1~20.04) 9.4.0"
 2434              		.section	.note.GNU-stack,"",@progbits
GAS LISTING /tmp/ccIjMqt3.s 			page 9

