GAS LISTING /tmp/cccz0nER.s 			page 1


   1              		.file	"testFunctions.cpp"
   2              		.option pic
   3              		.option norelax
   4              		.text
   5              	.Ltext0:
   6              		.align	2
   7              		.globl	_Z13emptyFunctionPv
   9              	_Z13emptyFunctionPv:
  10              	.LFB54:
  11              		.file 1 "src/testFunctions.cpp"
   1:src/testFunctions.cpp **** //
   2:src/testFunctions.cpp **** // Created by os on 5/29/23.
   3:src/testFunctions.cpp **** //
   4:src/testFunctions.cpp **** #include "../lib/hw.h"
   5:src/testFunctions.cpp **** #include "../h/Riscv.hpp"
   6:src/testFunctions.cpp **** #include "../h/KMemory.hpp"
   7:src/testFunctions.cpp **** #include "../h/KConsole.hpp"
   8:src/testFunctions.cpp **** #include "../h/TCB.hpp"
   9:src/testFunctions.cpp **** #include "../h/syscall_c.hpp"
  10:src/testFunctions.cpp **** #include "../h/syscall_cpp.hpp"
  11:src/testFunctions.cpp **** 
  12:src/testFunctions.cpp **** extern "C" void interruptHandler();
  13:src/testFunctions.cpp **** 
  14:src/testFunctions.cpp **** void userMain();
  15:src/testFunctions.cpp **** 
  16:src/testFunctions.cpp **** void idle(void*);
  17:src/testFunctions.cpp **** 
  18:src/testFunctions.cpp **** void kernelConsumerFunction(void*);
  19:src/testFunctions.cpp **** 
  20:src/testFunctions.cpp **** 
  21:src/testFunctions.cpp **** class idlethr : public Thread {
  22:src/testFunctions.cpp **** public:
  23:src/testFunctions.cpp ****     void run() override {
  24:src/testFunctions.cpp ****         thread_dispatch();
  25:src/testFunctions.cpp ****     }
  26:src/testFunctions.cpp **** };
  27:src/testFunctions.cpp **** 
  28:src/testFunctions.cpp **** void emptyFunction(void*) {}
  12              		.loc 1 28 27
  13              		.cfi_startproc
  14 0000 130101FF 		addi	sp,sp,-16
  15              		.cfi_def_cfa_offset 16
  16 0004 23348100 		sd	s0,8(sp)
  17              		.cfi_offset 8, -8
  18 0008 13040101 		addi	s0,sp,16
  19              		.cfi_def_cfa 8, 0
  20              		.loc 1 28 28 is_stmt 0
  21 000c 03348100 		ld	s0,8(sp)
  22              		.cfi_restore 8
  23              		.cfi_def_cfa 2, 16
  24 0010 13010101 		addi	sp,sp,16
  25              		.cfi_def_cfa_offset 0
  26 0014 67800000 		jr	ra
  27              		.cfi_endproc
  28              	.LFE54:
  30              		.align	2
  31              		.globl	_Z5nit1fPv
GAS LISTING /tmp/cccz0nER.s 			page 2


  33              	_Z5nit1fPv:
  34              	.LFB55:
  29:src/testFunctions.cpp **** 
  30:src/testFunctions.cpp **** void nit1f(void*) {
  35              		.loc 1 30 19 is_stmt 1
  36              		.cfi_startproc
  37 0018 130101FE 		addi	sp,sp,-32
  38              		.cfi_def_cfa_offset 32
  39 001c 233C1100 		sd	ra,24(sp)
  40 0020 23388100 		sd	s0,16(sp)
  41              		.cfi_offset 1, -8
  42              		.cfi_offset 8, -16
  43 0024 13040102 		addi	s0,sp,32
  44              		.cfi_def_cfa 8, 0
  45              	.L4:
  31:src/testFunctions.cpp ****     while (true) {
  46              		.loc 1 31 5
  47              	.LBB25:
  32:src/testFunctions.cpp ****         thread_t handle;
  48              		.loc 1 32 9
  33:src/testFunctions.cpp ****         thread_create(&handle, emptyFunction, nullptr);
  49              		.loc 1 33 9
  50              		.loc 1 33 22 is_stmt 0
  51 0028 13060000 		li	a2,0
  52 002c 97050000 		lla	a1,_Z13emptyFunctionPv
  52      93850500 
  53 0034 130584FE 		addi	a0,s0,-24
  54 0038 97000000 		call	_Z13thread_createPP3TCBPFvPvES2_@plt
  54      E7800000 
  55              	.LVL0:
  56              	.LBE25:
  31:src/testFunctions.cpp ****     while (true) {
  57              		.loc 1 31 5 is_stmt 1
  58 0040 6FF09FFE 		j	.L4
  59              		.cfi_endproc
  60              	.LFE55:
  62              		.section	.rodata._ZN3per18periodicActivationEv.str1.8,"aMS",@progbits,1
  63              		.align	3
  64              	.LC0:
  65 0000 4A616E6B 		.string	"Janko\n"
  65      6F0A00
  66              		.section	.text._ZN3per18periodicActivationEv,"axG",@progbits,_ZN3per18periodicActivationEv,comdat
  67              		.align	2
  68              		.weak	_ZN3per18periodicActivationEv
  70              	_ZN3per18periodicActivationEv:
  71              	.LFB63:
  34:src/testFunctions.cpp ****     }
  35:src/testFunctions.cpp **** 
  36:src/testFunctions.cpp ****     printString("\nGotova nit 1\n");
  37:src/testFunctions.cpp **** }
  38:src/testFunctions.cpp **** 
  39:src/testFunctions.cpp **** class per : public PeriodicThread {
  40:src/testFunctions.cpp **** public:
  41:src/testFunctions.cpp ****     per(time_t period) : PeriodicThread(period) {}
  42:src/testFunctions.cpp **** 
  43:src/testFunctions.cpp ****     void periodicActivation() override {
  72              		.loc 1 43 10
GAS LISTING /tmp/cccz0nER.s 			page 3


  73              		.cfi_startproc
  74              	.LVL1:
  75 0000 130101FF 		addi	sp,sp,-16
  76              		.cfi_def_cfa_offset 16
  77 0004 23341100 		sd	ra,8(sp)
  78 0008 23308100 		sd	s0,0(sp)
  79              		.cfi_offset 1, -8
  80              		.cfi_offset 8, -16
  81 000c 13040101 		addi	s0,sp,16
  82              		.cfi_def_cfa 8, 0
  44:src/testFunctions.cpp ****         printString("Janko\n");
  83              		.loc 1 44 9
  84              		.loc 1 44 20 is_stmt 0
  85 0010 17050000 		lla	a0,.LC0
  85      13050500 
  86              	.LVL2:
  87 0018 97000000 		call	_Z11printStringPKc@plt
  87      E7800000 
  88              	.LVL3:
  45:src/testFunctions.cpp ****     }
  89              		.loc 1 45 5
  90 0020 83308100 		ld	ra,8(sp)
  91              		.cfi_restore 1
  92 0024 03340100 		ld	s0,0(sp)
  93              		.cfi_restore 8
  94              		.cfi_def_cfa 2, 16
  95 0028 13010101 		addi	sp,sp,16
  96              		.cfi_def_cfa_offset 0
  97 002c 67800000 		jr	ra
  98              		.cfi_endproc
  99              	.LFE63:
 101              		.section	.rodata.str1.8,"aMS",@progbits,1
 102              		.align	3
 103              	.LC1:
 104 0000 0A476F74 		.string	"\nGotova nit 2\n"
 104      6F766120 
 104      6E697420 
 104      320A00
 105              		.text
 106              		.align	2
 107              		.globl	_Z5nit2fPv
 109              	_Z5nit2fPv:
 110              	.LFB64:
  46:src/testFunctions.cpp **** };
  47:src/testFunctions.cpp **** 
  48:src/testFunctions.cpp **** void nit2f(void* arg2) {
 111              		.loc 1 48 24 is_stmt 1
 112              		.cfi_startproc
 113              		.cfi_personality 0x9b,DW.ref.__gxx_personality_v0
 114              		.cfi_lsda 0x1b,.LLSDA64
 115              	.LVL4:
 116 0044 130101FE 		addi	sp,sp,-32
 117              		.cfi_def_cfa_offset 32
 118 0048 233C1100 		sd	ra,24(sp)
 119 004c 23388100 		sd	s0,16(sp)
 120 0050 23349100 		sd	s1,8(sp)
 121 0054 23302101 		sd	s2,0(sp)
GAS LISTING /tmp/cccz0nER.s 			page 4


 122              		.cfi_offset 1, -8
 123              		.cfi_offset 8, -16
 124              		.cfi_offset 9, -24
 125              		.cfi_offset 18, -32
 126 0058 13040102 		addi	s0,sp,32
 127              		.cfi_def_cfa 8, 0
  49:src/testFunctions.cpp ****     PeriodicThread* pt = new per(10);
 128              		.loc 1 49 5
 129              		.loc 1 49 36 is_stmt 0
 130 005c 13058002 		li	a0,40
 131              	.LVL5:
 132              	.LEHB0:
 133 0060 97000000 		call	_Znwm@plt
 133      E7800000 
 134              	.LVL6:
 135              	.LEHE0:
 136 0068 93040500 		mv	s1,a0
 137              	.LVL7:
 138              	.LBB26:
 139              	.LBB27:
  41:src/testFunctions.cpp **** 
 140              		.loc 1 41 47
 141 006c 9305A000 		li	a1,10
 142              	.LEHB1:
 143 0070 97000000 		call	_ZN14PeriodicThreadC2Em@plt
 143      E7800000 
 144              	.LVL8:
 145              	.LEHE1:
 146 0078 97070000 		lla	a5,_ZTV3per+16
 146      93870700 
 147 0080 23B0F400 		sd	a5,0(s1)
 148              	.LVL9:
 149              	.LBE27:
 150              	.LBE26:
  50:src/testFunctions.cpp ****     pt->start();
 151              		.loc 1 50 5 is_stmt 1
 152              		.loc 1 50 14 is_stmt 0
 153 0084 13850400 		mv	a0,s1
 154              	.LEHB2:
 155 0088 97000000 		call	_ZN6Thread5startEv@plt
 155      E7800000 
 156              	.LVL10:
  51:src/testFunctions.cpp ****     time_sleep(15);
 157              		.loc 1 51 5 is_stmt 1
 158              		.loc 1 51 15 is_stmt 0
 159 0090 1305F000 		li	a0,15
 160 0094 97000000 		call	_Z10time_sleepm@plt
 160      E7800000 
 161              	.LVL11:
  52:src/testFunctions.cpp ****     pt->terminate();
 162              		.loc 1 52 5 is_stmt 1
 163              		.loc 1 52 18 is_stmt 0
 164 009c 13850400 		mv	a0,s1
 165 00a0 97000000 		call	_ZN14PeriodicThread9terminateEv@plt
 165      E7800000 
 166              	.LVL12:
  53:src/testFunctions.cpp ****     printString("\nGotova nit 2\n");
GAS LISTING /tmp/cccz0nER.s 			page 5


 167              		.loc 1 53 5 is_stmt 1
 168              		.loc 1 53 16 is_stmt 0
 169 00a8 17050000 		lla	a0,.LC1
 169      13050500 
 170 00b0 97000000 		call	_Z11printStringPKc@plt
 170      E7800000 
 171              	.LVL13:
  54:src/testFunctions.cpp **** }
 172              		.loc 1 54 1
 173 00b8 83308101 		ld	ra,24(sp)
 174              		.cfi_remember_state
 175              		.cfi_restore 1
 176 00bc 03340101 		ld	s0,16(sp)
 177              		.cfi_restore 8
 178              		.cfi_def_cfa 2, 32
 179 00c0 83348100 		ld	s1,8(sp)
 180              		.cfi_restore 9
 181              	.LVL14:
 182 00c4 03390100 		ld	s2,0(sp)
 183              		.cfi_restore 18
 184 00c8 13010102 		addi	sp,sp,32
 185              		.cfi_def_cfa_offset 0
 186 00cc 67800000 		jr	ra
 187              	.LVL15:
 188              	.L10:
 189              		.cfi_restore_state
 190 00d0 13090500 		mv	s2,a0
  49:src/testFunctions.cpp ****     pt->start();
 191              		.loc 1 49 36
 192 00d4 13850400 		mv	a0,s1
 193 00d8 97000000 		call	_ZdlPv@plt
 193      E7800000 
 194              	.LVL16:
 195 00e0 13050900 		mv	a0,s2
 196 00e4 97000000 		call	_Unwind_Resume@plt
 196      E7800000 
 197              	.LVL17:
 198              	.LEHE2:
 199              		.cfi_endproc
 200              	.LFE64:
 201              		.globl	__gxx_personality_v0
 202              		.section	.gcc_except_table,"a",@progbits
 203              	.LLSDA64:
 204 0000 FF       		.byte	0xff
 205 0001 FF       		.byte	0xff
 206 0002 03       		.byte	0x3
 207 0003 27       		.byte	0x27
 208 0004 00000000 		.4byte	.LEHB0-.LFB64
 209 0008 00000000 		.4byte	.LEHE0-.LEHB0
 210 000c 00000000 		.4byte	0
 211 0010 00       		.byte	0
 212 0011 00000000 		.4byte	.LEHB1-.LFB64
 213 0015 00000000 		.4byte	.LEHE1-.LEHB1
 214 0019 00000000 		.4byte	.L10-.LFB64
 215 001d 00       		.byte	0
 216 001e 00000000 		.4byte	.LEHB2-.LFB64
 217 0022 00000000 		.4byte	.LEHE2-.LEHB2
GAS LISTING /tmp/cccz0nER.s 			page 6


 218 0026 00000000 		.4byte	0
 219 002a 00       		.byte	0
 220              		.text
 222              		.section	.text._ZN3perD2Ev,"axG",@progbits,_ZN3perD5Ev,comdat
 223              		.align	2
 224              		.weak	_ZN3perD2Ev
 226              	_ZN3perD2Ev:
 227              	.LFB68:
  39:src/testFunctions.cpp **** public:
 228              		.loc 1 39 7 is_stmt 1
 229              		.cfi_startproc
 230              	.LVL18:
 231 0000 130101FF 		addi	sp,sp,-16
 232              		.cfi_def_cfa_offset 16
 233 0004 23341100 		sd	ra,8(sp)
 234 0008 23308100 		sd	s0,0(sp)
 235              		.cfi_offset 1, -8
 236              		.cfi_offset 8, -16
 237 000c 13040101 		addi	s0,sp,16
 238              		.cfi_def_cfa 8, 0
 239              	.LVL19:
 240              	.LBB28:
 241              	.LBB29:
 242              		.file 2 "src/../h/syscall_cpp.hpp"
   1:src/../h/syscall_cpp.hpp **** #ifndef _syscall_cpp
   2:src/../h/syscall_cpp.hpp **** #define _syscall_cpp
   3:src/../h/syscall_cpp.hpp **** 
   4:src/../h/syscall_cpp.hpp **** #include "../lib/hw.h"
   5:src/../h/syscall_cpp.hpp **** 
   6:src/../h/syscall_cpp.hpp **** void* operator new(size_t);
   7:src/../h/syscall_cpp.hpp **** 
   8:src/../h/syscall_cpp.hpp **** void* operator new[](size_t);
   9:src/../h/syscall_cpp.hpp **** 
  10:src/../h/syscall_cpp.hpp **** void operator delete(void*)
  11:src/../h/syscall_cpp.hpp **** 
  12:src/../h/syscall_cpp.hpp **** noexcept;
  13:src/../h/syscall_cpp.hpp **** 
  14:src/../h/syscall_cpp.hpp **** void operator delete[](void*)
  15:src/../h/syscall_cpp.hpp **** 
  16:src/../h/syscall_cpp.hpp **** noexcept;
  17:src/../h/syscall_cpp.hpp **** 
  18:src/../h/syscall_cpp.hpp **** class TCB;
  19:src/../h/syscall_cpp.hpp **** 
  20:src/../h/syscall_cpp.hpp **** typedef TCB* thread_t;
  21:src/../h/syscall_cpp.hpp **** 
  22:src/../h/syscall_cpp.hpp **** class KSem;
  23:src/../h/syscall_cpp.hpp **** 
  24:src/../h/syscall_cpp.hpp **** typedef KSem* sem_t;
  25:src/../h/syscall_cpp.hpp **** 
  26:src/../h/syscall_cpp.hpp **** class Thread {
  27:src/../h/syscall_cpp.hpp **** public:
  28:src/../h/syscall_cpp.hpp ****     //konstruktor koji pravi nit koja izvrsava zadatu funkciju sa zadatim argumentima, ne pokrece n
  29:src/../h/syscall_cpp.hpp ****     Thread(void (* body)(void*), void* arg);
  30:src/../h/syscall_cpp.hpp **** 
  31:src/../h/syscall_cpp.hpp ****     virtual ~Thread();
  32:src/../h/syscall_cpp.hpp **** 
  33:src/../h/syscall_cpp.hpp ****     //stavlja nit u Scheduler
GAS LISTING /tmp/cccz0nER.s 			page 7


  34:src/../h/syscall_cpp.hpp ****     int start();
  35:src/../h/syscall_cpp.hpp **** 
  36:src/../h/syscall_cpp.hpp ****     //pozivajuca (running) nit se suspenduje dok se nit ciji se metod poziva(this) ne zavrsi
  37:src/../h/syscall_cpp.hpp ****     void join();
  38:src/../h/syscall_cpp.hpp **** 
  39:src/../h/syscall_cpp.hpp ****     //sinhrona promena konteksta
  40:src/../h/syscall_cpp.hpp ****     static void dispatch();
  41:src/../h/syscall_cpp.hpp **** 
  42:src/../h/syscall_cpp.hpp ****     //uspavljuje tekucu nit na zadati period
  43:src/../h/syscall_cpp.hpp ****     static int sleep(time_t);
  44:src/../h/syscall_cpp.hpp **** 
  45:src/../h/syscall_cpp.hpp **** protected:
  46:src/../h/syscall_cpp.hpp ****     //konstruktor koji pravi nit koja izvrsava run metodu, ne stavlja je u Scheduler
  47:src/../h/syscall_cpp.hpp ****     Thread();
  48:src/../h/syscall_cpp.hpp **** 
  49:src/../h/syscall_cpp.hpp ****     //funkcija koju nit izvrsava, samo ako je nit napravljena podrazumevanim konstruktorom
  50:src/../h/syscall_cpp.hpp ****     virtual void run() {}
  51:src/../h/syscall_cpp.hpp **** 
  52:src/../h/syscall_cpp.hpp **** private:
  53:src/../h/syscall_cpp.hpp ****     //pokazivac na TCB strukturu kernela
  54:src/../h/syscall_cpp.hpp ****     thread_t myHandle;
  55:src/../h/syscall_cpp.hpp **** 
  56:src/../h/syscall_cpp.hpp ****     void (* body)(void*);
  57:src/../h/syscall_cpp.hpp **** 
  58:src/../h/syscall_cpp.hpp ****     void* arg;
  59:src/../h/syscall_cpp.hpp **** 
  60:src/../h/syscall_cpp.hpp ****     static void wrapper(void* thread);
  61:src/../h/syscall_cpp.hpp **** };
  62:src/../h/syscall_cpp.hpp **** 
  63:src/../h/syscall_cpp.hpp **** 
  64:src/../h/syscall_cpp.hpp **** class Semaphore {
  65:src/../h/syscall_cpp.hpp **** public:
  66:src/../h/syscall_cpp.hpp **** 
  67:src/../h/syscall_cpp.hpp ****     Semaphore(unsigned init = 1);
  68:src/../h/syscall_cpp.hpp **** 
  69:src/../h/syscall_cpp.hpp ****     virtual ~Semaphore();
  70:src/../h/syscall_cpp.hpp **** 
  71:src/../h/syscall_cpp.hpp ****     int wait();
  72:src/../h/syscall_cpp.hpp **** 
  73:src/../h/syscall_cpp.hpp ****     int signal();
  74:src/../h/syscall_cpp.hpp **** 
  75:src/../h/syscall_cpp.hpp **** private:
  76:src/../h/syscall_cpp.hpp ****     sem_t myHandle;
  77:src/../h/syscall_cpp.hpp **** 
  78:src/../h/syscall_cpp.hpp **** };
  79:src/../h/syscall_cpp.hpp **** 
  80:src/../h/syscall_cpp.hpp **** 
  81:src/../h/syscall_cpp.hpp **** class PeriodicThread : public Thread {
 243              		.loc 2 81 7 is_stmt 0
 244 0010 97070000 		la	a5,_ZTV14PeriodicThread
 244      83B70700 
 245 0018 93870701 		addi	a5,a5,16
 246 001c 2330F500 		sd	a5,0(a0)
 247 0020 97000000 		call	_ZN6ThreadD2Ev@plt
 247      E7800000 
 248              	.LVL20:
 249              	.LBE29:
GAS LISTING /tmp/cccz0nER.s 			page 8


 250              	.LBE28:
  39:src/testFunctions.cpp **** public:
 251              		.loc 1 39 7
 252 0028 83308100 		ld	ra,8(sp)
 253              		.cfi_restore 1
 254 002c 03340100 		ld	s0,0(sp)
 255              		.cfi_restore 8
 256              		.cfi_def_cfa 2, 16
 257 0030 13010101 		addi	sp,sp,16
 258              		.cfi_def_cfa_offset 0
 259 0034 67800000 		jr	ra
 260              		.cfi_endproc
 261              	.LFE68:
 263              		.weak	_ZN3perD1Ev
 264              		.set	_ZN3perD1Ev,_ZN3perD2Ev
 265              		.section	.text._ZN3perD0Ev,"axG",@progbits,_ZN3perD5Ev,comdat
 266              		.align	2
 267              		.weak	_ZN3perD0Ev
 269              	_ZN3perD0Ev:
 270              	.LFB70:
  39:src/testFunctions.cpp **** public:
 271              		.loc 1 39 7 is_stmt 1
 272              		.cfi_startproc
 273              	.LVL21:
 274 0000 130101FE 		addi	sp,sp,-32
 275              		.cfi_def_cfa_offset 32
 276 0004 233C1100 		sd	ra,24(sp)
 277 0008 23388100 		sd	s0,16(sp)
 278 000c 23349100 		sd	s1,8(sp)
 279              		.cfi_offset 1, -8
 280              		.cfi_offset 8, -16
 281              		.cfi_offset 9, -24
 282 0010 13040102 		addi	s0,sp,32
 283              		.cfi_def_cfa 8, 0
 284 0014 93040500 		mv	s1,a0
 285              	.LVL22:
 286              	.LBB30:
 287              	.LBB31:
 288              	.LBB32:
 289              		.loc 2 81 7 is_stmt 0
 290 0018 97070000 		la	a5,_ZTV14PeriodicThread
 290      83B70700 
 291 0020 93870701 		addi	a5,a5,16
 292 0024 2330F500 		sd	a5,0(a0)
 293 0028 97000000 		call	_ZN6ThreadD2Ev@plt
 293      E7800000 
 294              	.LVL23:
 295              	.LBE32:
 296              	.LBE31:
 297              	.LBE30:
  39:src/testFunctions.cpp **** public:
 298              		.loc 1 39 7
 299 0030 13850400 		mv	a0,s1
 300 0034 97000000 		call	_ZdlPv@plt
 300      E7800000 
 301              	.LVL24:
 302 003c 83308101 		ld	ra,24(sp)
GAS LISTING /tmp/cccz0nER.s 			page 9


 303              		.cfi_restore 1
 304 0040 03340101 		ld	s0,16(sp)
 305              		.cfi_restore 8
 306              		.cfi_def_cfa 2, 32
 307 0044 83348100 		ld	s1,8(sp)
 308              		.cfi_restore 9
 309              	.LVL25:
 310 0048 13010102 		addi	sp,sp,32
 311              		.cfi_def_cfa_offset 0
 312 004c 67800000 		jr	ra
 313              		.cfi_endproc
 314              	.LFE70:
 316              		.section	.rodata.str1.8
 317 000f 00       		.align	3
 318              	.LC2:
 319 0010 0A476F74 		.string	"\nGotova nit3\n"
 319      6F766120 
 319      6E697433 
 319      0A00
 320              		.text
 321              		.align	2
 322              		.globl	_Z5nit3fPv
 324              	_Z5nit3fPv:
 325              	.LFB65:
  55:src/testFunctions.cpp **** 
  56:src/testFunctions.cpp **** 
  57:src/testFunctions.cpp **** void nit3f(void*) {
 326              		.loc 1 57 19 is_stmt 1
 327              		.cfi_startproc
 328 00ec 130101FE 		addi	sp,sp,-32
 329              		.cfi_def_cfa_offset 32
 330 00f0 233C1100 		sd	ra,24(sp)
 331 00f4 23388100 		sd	s0,16(sp)
 332 00f8 23349100 		sd	s1,8(sp)
 333              		.cfi_offset 1, -8
 334              		.cfi_offset 8, -16
 335              		.cfi_offset 9, -24
 336 00fc 13040102 		addi	s0,sp,32
 337              		.cfi_def_cfa 8, 0
 338 0100 6F008001 		j	.L19
 339              	.LVL26:
 340              	.L22:
  58:src/testFunctions.cpp ****     char slovo;
  59:src/testFunctions.cpp ****     do {
  60:src/testFunctions.cpp ****         slovo = getc();
  61:src/testFunctions.cpp ****         putc(slovo);
  62:src/testFunctions.cpp ****         if (slovo == '\r') putc('\n');
 341              		.loc 1 62 28 discriminator 1
 342              		.loc 1 62 32 is_stmt 0 discriminator 1
 343 0104 1305A000 		li	a0,10
 344 0108 97000000 		call	_Z4putcc@plt
 344      E7800000 
 345              	.LVL27:
 346              	.L18:
  63:src/testFunctions.cpp ****     } while (slovo != '0');
 347              		.loc 1 63 20 is_stmt 1
 348 0110 93070003 		li	a5,48
GAS LISTING /tmp/cccz0nER.s 			page 10


 349 0114 6382F402 		beq	s1,a5,.L21
 350              	.LVL28:
 351              	.L19:
  58:src/testFunctions.cpp ****     char slovo;
 352              		.loc 1 58 5
  59:src/testFunctions.cpp ****         slovo = getc();
 353              		.loc 1 59 5
  60:src/testFunctions.cpp ****         putc(slovo);
 354              		.loc 1 60 9
  60:src/testFunctions.cpp ****         putc(slovo);
 355              		.loc 1 60 21 is_stmt 0
 356 0118 97000000 		call	_Z4getcv@plt
 356      E7800000 
 357              	.LVL29:
 358 0120 93040500 		mv	s1,a0
 359              	.LVL30:
  61:src/testFunctions.cpp ****         if (slovo == '\r') putc('\n');
 360              		.loc 1 61 9 is_stmt 1
  61:src/testFunctions.cpp ****         if (slovo == '\r') putc('\n');
 361              		.loc 1 61 13 is_stmt 0
 362 0124 97000000 		call	_Z4putcc@plt
 362      E7800000 
 363              	.LVL31:
  62:src/testFunctions.cpp ****     } while (slovo != '0');
 364              		.loc 1 62 9 is_stmt 1
 365 012c 9307D000 		li	a5,13
 366 0130 E390F4FE 		bne	s1,a5,.L18
 367 0134 6FF01FFD 		j	.L22
 368              	.L21:
  64:src/testFunctions.cpp **** 
  65:src/testFunctions.cpp ****     printString("\nGotova nit3\n");
 369              		.loc 1 65 5
 370              		.loc 1 65 16 is_stmt 0
 371 0138 17050000 		lla	a0,.LC2
 371      13050500 
 372 0140 97000000 		call	_Z11printStringPKc@plt
 372      E7800000 
 373              	.LVL32:
  66:src/testFunctions.cpp **** }
 374              		.loc 1 66 1
 375 0148 83308101 		ld	ra,24(sp)
 376              		.cfi_restore 1
 377 014c 03340101 		ld	s0,16(sp)
 378              		.cfi_restore 8
 379              		.cfi_def_cfa 2, 32
 380 0150 83348100 		ld	s1,8(sp)
 381              		.cfi_restore 9
 382              	.LVL33:
 383 0154 13010102 		addi	sp,sp,32
 384              		.cfi_def_cfa_offset 0
 385 0158 67800000 		jr	ra
 386              		.cfi_endproc
 387              	.LFE65:
 389              		.section	.rodata.str1.8
 390 001e 0000     		.align	3
 391              	.LC3:
 392 0020 0A476F74 		.string	"\nGotove user niti\n"
GAS LISTING /tmp/cccz0nER.s 			page 11


 392      6F766520 
 392      75736572 
 392      206E6974 
 392      690A00
 393 0033 00000000 		.align	3
 393      00
 394              	.LC4:
 395 0038 0A536164 		.string	"\nSad cu da izadjem\n"
 395      20637520 
 395      64612069 
 395      7A61646A 
 395      656D0A00 
 396              		.text
 397              		.align	2
 398              		.globl	_Z5main2v
 400              	_Z5main2v:
 401              	.LFB66:
  67:src/testFunctions.cpp **** 
  68:src/testFunctions.cpp **** 
  69:src/testFunctions.cpp **** int main2() {
 402              		.loc 1 69 13 is_stmt 1
 403              		.cfi_startproc
 404 015c 130101FB 		addi	sp,sp,-80
 405              		.cfi_def_cfa_offset 80
 406 0160 23341104 		sd	ra,72(sp)
 407 0164 23308104 		sd	s0,64(sp)
 408 0168 233C9102 		sd	s1,56(sp)
 409              		.cfi_offset 1, -8
 410              		.cfi_offset 8, -16
 411              		.cfi_offset 9, -24
 412 016c 13040105 		addi	s0,sp,80
 413              		.cfi_def_cfa 8, 0
  70:src/testFunctions.cpp **** //postavi adresu prekidne rutine u stvec
  71:src/testFunctions.cpp ****     __asm__ volatile("csrw stvec, %[handler]": :[handler] "r"(&interruptHandler));
 414              		.loc 1 71 5
 415              		.loc 1 71 82 is_stmt 0
 416 0170 97070000 		la	a5,interruptHandler
 416      83B70700 
 417              	#APP
 418              	# 71 "src/testFunctions.cpp" 1
  72              	
  73:src/testFunctions.cpp ****     //inicijalizacija alokatora memorije
  74:src/testFunctions.cpp ****     KMemory::initializeMemory();
 419              		csrw stvec, a5
 420              	# 0 "" 2
 421              		.loc 1 74 5 is_stmt 1
 422              		.loc 1 74 30 is_stmt 0
 423              	#NO_APP
 424 017c 97000000 		call	_ZN7KMemory16initializeMemoryEv@plt
 424      E7800000 
 425              	.LVL34:
  75:src/testFunctions.cpp **** 
  76:src/testFunctions.cpp ****     //inicijalizacija komunikacije sa konzolom
  77:src/testFunctions.cpp ****     KConsole::initKConsole();
 426              		.loc 1 77 5 is_stmt 1
 427              		.loc 1 77 27 is_stmt 0
 428 0184 97000000 		call	_ZN8KConsole12initKConsoleEv@plt
GAS LISTING /tmp/cccz0nER.s 			page 12


 428      E7800000 
 429              	.LVL35:
  78:src/testFunctions.cpp **** 
  79:src/testFunctions.cpp **** 
  80:src/testFunctions.cpp **** 
  81:src/testFunctions.cpp ****     //testiranje alociranja memorije
  82:src/testFunctions.cpp ****     //testMemory();
  83:src/testFunctions.cpp **** //	uint64* ptr = new uint64;
  84:src/testFunctions.cpp **** //	*ptr = 6;
  85:src/testFunctions.cpp **** //	printInteger(*ptr);
  86:src/testFunctions.cpp **** 
  87:src/testFunctions.cpp ****     //testiranje liste
  88:src/testFunctions.cpp **** //	List<uint64>* lista = new List<uint64>();
  89:src/testFunctions.cpp **** //	uint64 num = 10;
  90:src/testFunctions.cpp **** //	lista->addFirst(&num);
  91:src/testFunctions.cpp **** //	println("");
  92:src/testFunctions.cpp **** //	printInteger(*(lista->peekFirst()));
  93:src/testFunctions.cpp **** //	delete lista;
  94:src/testFunctions.cpp **** //	println("");
  95:src/testFunctions.cpp **** 
  96:src/testFunctions.cpp ****     //testiranje kreiranja niti
  97:src/testFunctions.cpp ****     thread_t glavnaNit = nullptr;
 430              		.loc 1 97 5 is_stmt 1
 431              		.loc 1 97 14 is_stmt 0
 432 018c 233C04FC 		sd	zero,-40(s0)
  98:src/testFunctions.cpp ****     thread_t nit1 = nullptr;
 433              		.loc 1 98 5 is_stmt 1
 434              		.loc 1 98 14 is_stmt 0
 435 0190 233804FC 		sd	zero,-48(s0)
  99:src/testFunctions.cpp ****     thread_t nit2 = nullptr;
 436              		.loc 1 99 5 is_stmt 1
 437              		.loc 1 99 14 is_stmt 0
 438 0194 233404FC 		sd	zero,-56(s0)
 100:src/testFunctions.cpp ****     thread_t nit3 = nullptr;
 439              		.loc 1 100 5 is_stmt 1
 440              		.loc 1 100 14 is_stmt 0
 441 0198 233004FC 		sd	zero,-64(s0)
 101:src/testFunctions.cpp ****     thread_t idleNit = nullptr;
 442              		.loc 1 101 5 is_stmt 1
 443              		.loc 1 101 14 is_stmt 0
 444 019c 233C04FA 		sd	zero,-72(s0)
 102:src/testFunctions.cpp ****     thread_t kernelConsumerThread = nullptr;
 445              		.loc 1 102 5 is_stmt 1
 446              		.loc 1 102 14 is_stmt 0
 447 01a0 233804FA 		sd	zero,-80(s0)
 103:src/testFunctions.cpp ****     thread_create(&glavnaNit, (TCB::Body)main, nullptr);
 448              		.loc 1 103 5 is_stmt 1
 449              		.loc 1 103 18 is_stmt 0
 450 01a4 13060000 		li	a2,0
 451 01a8 97050000 		la	a1,main
 451      83B50500 
 452 01b0 130584FD 		addi	a0,s0,-40
 453 01b4 97000000 		call	_Z13thread_createPP3TCBPFvPvES2_@plt
 453      E7800000 
 454              	.LVL36:
 104:src/testFunctions.cpp ****     TCB::setRunning(glavnaNit);
 455              		.loc 1 104 5 is_stmt 1
GAS LISTING /tmp/cccz0nER.s 			page 13


 456              	.LBB33:
 457              	.LBB34:
 458              		.file 3 "src/../h/TCB.hpp"
   1:src/../h/TCB.hpp **** //
   2:src/../h/TCB.hpp **** // Created by os on 5/23/23.
   3:src/../h/TCB.hpp **** //
   4:src/../h/TCB.hpp **** 
   5:src/../h/TCB.hpp **** #ifndef PROJEKAT2023_TCB_HPP
   6:src/../h/TCB.hpp **** #define PROJEKAT2023_TCB_HPP
   7:src/../h/TCB.hpp **** 
   8:src/../h/TCB.hpp **** #include "../lib/hw.h"
   9:src/../h/TCB.hpp **** #include "../h/ThreadQueue.hpp"
  10:src/../h/TCB.hpp **** 
  11:src/../h/TCB.hpp **** int main();
  12:src/../h/TCB.hpp **** class TCB {
  13:src/../h/TCB.hpp **** public:
  14:src/../h/TCB.hpp ****     friend class Scheduler;
  15:src/../h/TCB.hpp **** 
  16:src/../h/TCB.hpp ****     using Body = void (*)(void*);
  17:src/../h/TCB.hpp **** 
  18:src/../h/TCB.hpp ****     enum ThreadStatus {
  19:src/../h/TCB.hpp ****         CREATED, ACTIVE, BLOCKED, JOINING, SLEEPING, FINISHED
  20:src/../h/TCB.hpp ****     };
  21:src/../h/TCB.hpp **** 
  22:src/../h/TCB.hpp ****     void setStatus(ThreadStatus stat) { this->status = stat; }
  23:src/../h/TCB.hpp **** 
  24:src/../h/TCB.hpp ****     ThreadStatus getStatus() { return this->status; }
  25:src/../h/TCB.hpp **** 
  26:src/../h/TCB.hpp ****     static TCB* createThread(Body function, void* args, uint64* stack);
  27:src/../h/TCB.hpp **** 
  28:src/../h/TCB.hpp ****     static void start(TCB* newTcb);
  29:src/../h/TCB.hpp **** 
  30:src/../h/TCB.hpp ****     uint64 getTimeSlice() { return timeSlice; }
  31:src/../h/TCB.hpp **** 
  32:src/../h/TCB.hpp ****     void setTimeSlice(uint64 value) { timeSlice = value; }
  33:src/../h/TCB.hpp **** 
  34:src/../h/TCB.hpp ****     Body getBody() { return threadFunction; }
  35:src/../h/TCB.hpp **** 
  36:src/../h/TCB.hpp ****     static TCB* getRunning() { return running; }
  37:src/../h/TCB.hpp **** 
  38:src/../h/TCB.hpp ****     static void setRunning(TCB* newRunning) { running = newRunning; }
 459              		.loc 3 38 47
 460              		.loc 3 38 55 is_stmt 0
 461 01bc 033784FD 		ld	a4,-40(s0)
 462 01c0 97070000 		la	a5,_ZN3TCB7runningE
 462      83B70700 
 463 01c8 23B0E700 		sd	a4,0(a5)
 464              	.LVL37:
 465              	.LBE34:
 466              	.LBE33:
 105:src/testFunctions.cpp ****     thread_create(&idleNit, idle, nullptr);
 467              		.loc 1 105 5 is_stmt 1
 468              		.loc 1 105 18 is_stmt 0
 469 01cc 13060000 		li	a2,0
 470 01d0 97050000 		la	a1,_Z4idlePv
 470      83B50500 
 471 01d8 130584FB 		addi	a0,s0,-72
GAS LISTING /tmp/cccz0nER.s 			page 14


 472 01dc 97000000 		call	_Z13thread_createPP3TCBPFvPvES2_@plt
 472      E7800000 
 473              	.LVL38:
 106:src/testFunctions.cpp ****     thread_create(&kernelConsumerThread, kernelConsumerFunction, nullptr);
 474              		.loc 1 106 5 is_stmt 1
 475              		.loc 1 106 18 is_stmt 0
 476 01e4 13060000 		li	a2,0
 477 01e8 97050000 		la	a1,_Z22kernelConsumerFunctionPv
 477      83B50500 
 478 01f0 130504FB 		addi	a0,s0,-80
 479 01f4 97000000 		call	_Z13thread_createPP3TCBPFvPvES2_@plt
 479      E7800000 
 480              	.LVL39:
 107:src/testFunctions.cpp **** 
 108:src/testFunctions.cpp **** 
 109:src/testFunctions.cpp ****     thread_create(&nit1, nit1f, nullptr);
 481              		.loc 1 109 5 is_stmt 1
 482              		.loc 1 109 18 is_stmt 0
 483 01fc 13060000 		li	a2,0
 484 0200 97050000 		lla	a1,_Z5nit1fPv
 484      93850500 
 485 0208 130504FD 		addi	a0,s0,-48
 486 020c 97000000 		call	_Z13thread_createPP3TCBPFvPvES2_@plt
 486      E7800000 
 487              	.LVL40:
 110:src/testFunctions.cpp ****     thread_create(&nit2, nit2f, nullptr);
 488              		.loc 1 110 5 is_stmt 1
 489              		.loc 1 110 18 is_stmt 0
 490 0214 13060000 		li	a2,0
 491 0218 97050000 		lla	a1,_Z5nit2fPv
 491      93850500 
 492 0220 130584FC 		addi	a0,s0,-56
 493 0224 97000000 		call	_Z13thread_createPP3TCBPFvPvES2_@plt
 493      E7800000 
 494              	.LVL41:
 111:src/testFunctions.cpp ****     thread_create(&nit3, nit3f, nullptr);
 495              		.loc 1 111 5 is_stmt 1
 496              		.loc 1 111 18 is_stmt 0
 497 022c 13060000 		li	a2,0
 498 0230 97050000 		lla	a1,_Z5nit3fPv
 498      93850500 
 499 0238 130504FC 		addi	a0,s0,-64
 500 023c 97000000 		call	_Z13thread_createPP3TCBPFvPvES2_@plt
 500      E7800000 
 501              	.LVL42:
 112:src/testFunctions.cpp **** 
 113:src/testFunctions.cpp ****     //omoguci prekide
 114:src/testFunctions.cpp ****     Riscv::ms_sstatus(Riscv::SSTATUS_SIE);
 502              		.loc 1 114 5 is_stmt 1
 503              	.LBB35:
 504              	.LBB36:
 505              		.file 4 "src/../h/Riscv.hpp"
   1:src/../h/Riscv.hpp **** //
   2:src/../h/Riscv.hpp **** // Created by os on 5/17/23.
   3:src/../h/Riscv.hpp **** //
   4:src/../h/Riscv.hpp **** 
   5:src/../h/Riscv.hpp **** #ifndef PROJEKAT2023_RISCV_HPP
GAS LISTING /tmp/cccz0nER.s 			page 15


   6:src/../h/Riscv.hpp **** #define PROJEKAT2023_RISCV_HPP
   7:src/../h/Riscv.hpp **** 
   8:src/../h/Riscv.hpp **** #include "../lib/hw.h"
   9:src/../h/Riscv.hpp **** 
  10:src/../h/Riscv.hpp **** class Riscv {
  11:src/../h/Riscv.hpp **** public:
  12:src/../h/Riscv.hpp **** 
  13:src/../h/Riscv.hpp **** 	static void returnFromInterrupt();
  14:src/../h/Riscv.hpp **** 
  15:src/../h/Riscv.hpp **** 	//read scause
  16:src/../h/Riscv.hpp **** 	static uint64 r_scause();
  17:src/../h/Riscv.hpp **** 
  18:src/../h/Riscv.hpp **** 	//write scause
  19:src/../h/Riscv.hpp **** 	static void w_scause(uint64 scause);
  20:src/../h/Riscv.hpp **** 
  21:src/../h/Riscv.hpp **** 	//read sepc
  22:src/../h/Riscv.hpp **** 	static uint64 r_sepc();
  23:src/../h/Riscv.hpp **** 
  24:src/../h/Riscv.hpp **** 	//write sepc
  25:src/../h/Riscv.hpp **** 	static void w_sepc(uint64 sepc);
  26:src/../h/Riscv.hpp **** 
  27:src/../h/Riscv.hpp **** 	//read stvec
  28:src/../h/Riscv.hpp **** 	static uint64 r_stvec();
  29:src/../h/Riscv.hpp **** 
  30:src/../h/Riscv.hpp **** 	//write stvec
  31:src/../h/Riscv.hpp **** 	static void w_stvec(uint64 stvec);
  32:src/../h/Riscv.hpp **** 
  33:src/../h/Riscv.hpp **** 	enum BitMaskSip {
  34:src/../h/Riscv.hpp **** 		//postoji zahtev za softverski prekid
  35:src/../h/Riscv.hpp **** 		SIP_SSIP = (1 << 1),
  36:src/../h/Riscv.hpp **** 		//postoji prekid od tajmera
  37:src/../h/Riscv.hpp **** 		SIP_STIP = (1 << 5),
  38:src/../h/Riscv.hpp **** 		//postoji zahtev za spoljasnji hardverski prekid
  39:src/../h/Riscv.hpp **** 		SIP_SEIP = (1 << 9)
  40:src/../h/Riscv.hpp **** 	};
  41:src/../h/Riscv.hpp **** 
  42:src/../h/Riscv.hpp **** 	//mask set sip
  43:src/../h/Riscv.hpp **** 	static void ms_sip(uint64 mask);
  44:src/../h/Riscv.hpp **** 
  45:src/../h/Riscv.hpp **** 	//mask clear sip
  46:src/../h/Riscv.hpp **** 	static void mc_sip(uint64 mask);
  47:src/../h/Riscv.hpp **** 
  48:src/../h/Riscv.hpp **** 	//read sip
  49:src/../h/Riscv.hpp **** 	static uint64 r_sip();
  50:src/../h/Riscv.hpp **** 
  51:src/../h/Riscv.hpp **** 	//write sip
  52:src/../h/Riscv.hpp **** 	static void w_sip(uint64 sip);
  53:src/../h/Riscv.hpp **** 
  54:src/../h/Riscv.hpp **** 	//kada se pozove sret, SIE dobija vrednost SPIE, SPIE se postavlja na 1,
  55:src/../h/Riscv.hpp **** 	//rezim se postavlja na osnovu SPP bita, SPP se postavlja na 0
  56:src/../h/Riscv.hpp **** 	enum BitMaskSstatus {
  57:src/../h/Riscv.hpp **** 		//1 - dozvoljeni prekidi; 0- nedozvoljeni prekidi; igonrise se u korisnickom rezimu
  58:src/../h/Riscv.hpp **** 		SSTATUS_SIE = (1 << 1),
  59:src/../h/Riscv.hpp **** 		//prethodna vrednost bita SIE
  60:src/../h/Riscv.hpp **** 		SSTATUS_SPIE = (1 << 5),
  61:src/../h/Riscv.hpp **** 		//iz kog rezima se desio skok; 0 - iz korisnickog; 1 - iz sistemskog
  62:src/../h/Riscv.hpp **** 		SSTATUS_SPP = (1 << 8)
GAS LISTING /tmp/cccz0nER.s 			page 16


  63:src/../h/Riscv.hpp **** 	};
  64:src/../h/Riscv.hpp **** 
  65:src/../h/Riscv.hpp **** 	//mask set sstatus
  66:src/../h/Riscv.hpp **** 	static void ms_sstatus(uint64 mask);
  67:src/../h/Riscv.hpp **** 
  68:src/../h/Riscv.hpp **** 	//mask clear sstatus
  69:src/../h/Riscv.hpp **** 	static void mc_sstatus(uint64 mask);
  70:src/../h/Riscv.hpp **** 
  71:src/../h/Riscv.hpp **** 	//read sstatus
  72:src/../h/Riscv.hpp **** 	static uint64 r_sstatus();
  73:src/../h/Riscv.hpp **** 
  74:src/../h/Riscv.hpp **** 	//write sstatus
  75:src/../h/Riscv.hpp **** 	static void w_sstatus(uint64 sstatus);
  76:src/../h/Riscv.hpp **** 
  77:src/../h/Riscv.hpp **** 	//upisuje kod sistemskog poziva u registar a0
  78:src/../h/Riscv.hpp **** 	static void loadOpCode(uint64 opCode);
  79:src/../h/Riscv.hpp **** 
  80:src/../h/Riscv.hpp **** };
  81:src/../h/Riscv.hpp **** 
  82:src/../h/Riscv.hpp **** inline uint64 Riscv::r_scause() {
  83:src/../h/Riscv.hpp **** 	uint64 volatile scause;
  84:src/../h/Riscv.hpp **** 	__asm__ volatile("csrr %[scause], scause": [scause] "=r"(scause));
  85:src/../h/Riscv.hpp **** 	return scause;
  86:src/../h/Riscv.hpp **** }
  87:src/../h/Riscv.hpp **** 
  88:src/../h/Riscv.hpp **** inline void Riscv::w_scause(uint64 scause) {
  89:src/../h/Riscv.hpp **** 	__asm__ volatile("csrw scause, %[scause]": :[scause] "r"(scause));
  90:src/../h/Riscv.hpp **** }
  91:src/../h/Riscv.hpp **** 
  92:src/../h/Riscv.hpp **** inline uint64 Riscv::r_sepc() {
  93:src/../h/Riscv.hpp **** 	uint64 volatile sepc;
  94:src/../h/Riscv.hpp **** 	__asm__ volatile("csrr %[sepc], sepc": [sepc] "=r"(sepc));
  95:src/../h/Riscv.hpp **** 	return sepc;
  96:src/../h/Riscv.hpp **** }
  97:src/../h/Riscv.hpp **** 
  98:src/../h/Riscv.hpp **** inline void Riscv::w_sepc(uint64 sepc) {
  99:src/../h/Riscv.hpp **** 	__asm__ volatile("csrw sepc, %[sepc]": :[sepc] "r"(sepc));
 100:src/../h/Riscv.hpp **** }
 101:src/../h/Riscv.hpp **** 
 102:src/../h/Riscv.hpp **** inline uint64 Riscv::r_stvec() {
 103:src/../h/Riscv.hpp **** 	uint64 volatile stvec;
 104:src/../h/Riscv.hpp **** 	__asm__ volatile("csrr %[stvec], stvec": [stvec] "=r"(stvec));
 105:src/../h/Riscv.hpp **** 	return stvec;
 106:src/../h/Riscv.hpp **** }
 107:src/../h/Riscv.hpp **** 
 108:src/../h/Riscv.hpp **** inline void Riscv::w_stvec(uint64 stvec) {
 109:src/../h/Riscv.hpp **** 	__asm__ volatile("csrw stvec, %[stvec]": :[stvec] "r"(stvec));
 110:src/../h/Riscv.hpp **** }
 111:src/../h/Riscv.hpp **** 
 112:src/../h/Riscv.hpp **** inline void Riscv::ms_sip(uint64 mask) {
 113:src/../h/Riscv.hpp **** 	__asm__ volatile("csrs sip, %[mask]": :[mask] "r"(mask));
 114:src/../h/Riscv.hpp **** }
 115:src/../h/Riscv.hpp **** 
 116:src/../h/Riscv.hpp **** inline void Riscv::mc_sip(uint64 mask) {
 117:src/../h/Riscv.hpp **** 	__asm__ volatile("csrc sip, %[mask]": :[mask] "r"(mask));
 118:src/../h/Riscv.hpp **** }
 119:src/../h/Riscv.hpp **** 
GAS LISTING /tmp/cccz0nER.s 			page 17


 120:src/../h/Riscv.hpp **** inline uint64 Riscv::r_sip() {
 121:src/../h/Riscv.hpp **** 	uint64 volatile sip;
 122:src/../h/Riscv.hpp **** 	__asm__ volatile("csrr %[sip], sip": [sip] "=r"(sip));
 123:src/../h/Riscv.hpp **** 	return sip;
 124:src/../h/Riscv.hpp **** }
 125:src/../h/Riscv.hpp **** 
 126:src/../h/Riscv.hpp **** inline void Riscv::w_sip(uint64 sip) {
 127:src/../h/Riscv.hpp **** 	__asm__ volatile("csrw sip, %[sip]": :[sip] "r"(sip));
 128:src/../h/Riscv.hpp **** }
 129:src/../h/Riscv.hpp **** 
 130:src/../h/Riscv.hpp **** inline void Riscv::ms_sstatus(uint64 mask) {
 131:src/../h/Riscv.hpp **** 	__asm__ volatile("csrs sstatus, %[mask]": :[mask] "r"(mask));
 506              		.loc 4 131 2
 507              		.loc 4 131 62 is_stmt 0
 508 0244 93042000 		li	s1,2
 509              	#APP
 510              	# 131 "src/../h/Riscv.hpp" 1
 132              	}
 511              		csrs sstatus, s1
 512              	# 0 "" 2
 513              	.LVL43:
 514              	#NO_APP
 515              	.LBE36:
 516              	.LBE35:
 115:src/testFunctions.cpp **** 
 116:src/testFunctions.cpp ****     thread_join(nit1);
 517              		.loc 1 116 5 is_stmt 1
 518              		.loc 1 116 16 is_stmt 0
 519 024c 033504FD 		ld	a0,-48(s0)
 520 0250 97000000 		call	_Z11thread_joinP3TCB@plt
 520      E7800000 
 521              	.LVL44:
 117:src/testFunctions.cpp ****     thread_join(nit2);
 522              		.loc 1 117 5 is_stmt 1
 523              		.loc 1 117 16 is_stmt 0
 524 0258 033584FC 		ld	a0,-56(s0)
 525 025c 97000000 		call	_Z11thread_joinP3TCB@plt
 525      E7800000 
 526              	.LVL45:
 118:src/testFunctions.cpp ****     thread_join(nit3);
 527              		.loc 1 118 5 is_stmt 1
 528              		.loc 1 118 16 is_stmt 0
 529 0264 033504FC 		ld	a0,-64(s0)
 530 0268 97000000 		call	_Z11thread_joinP3TCB@plt
 530      E7800000 
 531              	.LVL46:
 119:src/testFunctions.cpp ****     //thread_join(idleNit);
 120:src/testFunctions.cpp **** 
 121:src/testFunctions.cpp ****     printString("\nGotove user niti\n");
 532              		.loc 1 121 5 is_stmt 1
 533              		.loc 1 121 16 is_stmt 0
 534 0270 17050000 		lla	a0,.LC3
 534      13050500 
 535 0278 97000000 		call	_Z11printStringPKc@plt
 535      E7800000 
 536              	.LVL47:
 122:src/testFunctions.cpp **** 
GAS LISTING /tmp/cccz0nER.s 			page 18


 123:src/testFunctions.cpp ****     printString("\nSad cu da izadjem\n");
 537              		.loc 1 123 5 is_stmt 1
 538              		.loc 1 123 16 is_stmt 0
 539 0280 17050000 		lla	a0,.LC4
 539      13050500 
 540 0288 97000000 		call	_Z11printStringPKc@plt
 540      E7800000 
 541              	.LVL48:
 124:src/testFunctions.cpp ****     KConsole::flush();
 542              		.loc 1 124 5 is_stmt 1
 543              	.LBB37:
 544              	.LBB38:
 545              		.file 5 "src/../h/KConsole.hpp"
   1:src/../h/KConsole.hpp **** //
   2:src/../h/KConsole.hpp **** // Created by os on 6/7/23.
   3:src/../h/KConsole.hpp **** //
   4:src/../h/KConsole.hpp **** 
   5:src/../h/KConsole.hpp **** #ifndef PROJEKAT2023_KCONSOLE_HPP
   6:src/../h/KConsole.hpp **** #define PROJEKAT2023_KCONSOLE_HPP
   7:src/../h/KConsole.hpp **** 
   8:src/../h/KConsole.hpp **** #include "../lib/hw.h"
   9:src/../h/KConsole.hpp **** #include "../h/syscall_c.hpp"
  10:src/../h/KConsole.hpp **** #include "../test/printing.hpp"
  11:src/../h/KConsole.hpp **** #include "../visak/helper.hpp"
  12:src/../h/KConsole.hpp **** 
  13:src/../h/KConsole.hpp **** class KConsole {
  14:src/../h/KConsole.hpp **** public:
  15:src/../h/KConsole.hpp ****     static void initKConsole();
  16:src/../h/KConsole.hpp **** 
  17:src/../h/KConsole.hpp ****     //stavlja karakter u izlazni bafer konzole
  18:src/../h/KConsole.hpp ****     static void kputc(char c);
  19:src/../h/KConsole.hpp **** 
  20:src/../h/KConsole.hpp ****     //uzima karakter iz ulaznog bafera konzole
  21:src/../h/KConsole.hpp ****     static char kgetc();
  22:src/../h/KConsole.hpp **** 
  23:src/../h/KConsole.hpp ****     //vraca karakter iz izlaznog bafera; ako je bafer prazan, blokira se dok se ne napuni
  24:src/../h/KConsole.hpp ****     static char getFromOutput();
  25:src/../h/KConsole.hpp **** 
  26:src/../h/KConsole.hpp ****     //stavlja karakter u ulazni bafer; ako je bafer pun, ignorise se
  27:src/../h/KConsole.hpp ****     static void placeInInput(char c);
  28:src/../h/KConsole.hpp **** 
  29:src/../h/KConsole.hpp ****     //ispis svih preostalih karaktera u izlaznom baferu
  30:src/../h/KConsole.hpp ****     static void flush(){
  31:src/../h/KConsole.hpp ****         __asm__ volatile("li a0, 0x43");
 546              		.loc 5 31 9
 547              		.loc 5 31 40 is_stmt 0
 548              	#APP
 549              	# 31 "src/../h/KConsole.hpp" 1
  32              	        __asm__ volatile("ecall");
 550              		li a0, 0x43
 551              	# 0 "" 2
 552              		.loc 5 32 9 is_stmt 1
 553              		.loc 5 32 34 is_stmt 0
 554              	# 32 "src/../h/KConsole.hpp" 1
  33              	    }
 555              		ecall
 556              	# 0 "" 2
GAS LISTING /tmp/cccz0nER.s 			page 19


 557              	#NO_APP
 558              	.LBE38:
 559              	.LBE37:
 125:src/testFunctions.cpp **** //	//zabrani prekide
 126:src/testFunctions.cpp ****     Riscv::mc_sstatus(Riscv::SSTATUS_SIE);
 560              		.loc 1 126 5 is_stmt 1
 561              	.LVL49:
 562              	.LBB39:
 563              	.LBB40:
 133:src/../h/Riscv.hpp **** 
 134:src/../h/Riscv.hpp **** inline void Riscv::mc_sstatus(uint64 mask) {
 135:src/../h/Riscv.hpp **** 	__asm__ volatile("csrc sstatus, %[mask]": :[mask] "r"(mask));
 564              		.loc 4 135 2
 565              		.loc 4 135 62 is_stmt 0
 566              	#APP
 567              	# 135 "src/../h/Riscv.hpp" 1
 136              	}
 568              		csrc sstatus, s1
 569              	# 0 "" 2
 570              	.LVL50:
 571              	#NO_APP
 572              	.LBE40:
 573              	.LBE39:
 127:src/testFunctions.cpp **** 
 128:src/testFunctions.cpp **** 
 129:src/testFunctions.cpp ****     return 0;
 574              		.loc 1 129 5 is_stmt 1
 130:src/testFunctions.cpp **** }...
 575              		.loc 1 130 1 is_stmt 0
 576 029c 13050000 		li	a0,0
 577 02a0 83308104 		ld	ra,72(sp)
 578              		.cfi_restore 1
 579 02a4 03340104 		ld	s0,64(sp)
 580              		.cfi_restore 8
 581              		.cfi_def_cfa 2, 80
 582 02a8 83348103 		ld	s1,56(sp)
 583              		.cfi_restore 9
 584 02ac 13010105 		addi	sp,sp,80
 585              		.cfi_def_cfa_offset 0
 586 02b0 67800000 		jr	ra
 587              		.cfi_endproc
 588              	.LFE66:
 590              		.weak	_ZTV3per
 591              		.section	.data.rel.ro._ZTV3per,"awG",@progbits,_ZTV3per,comdat
 592              		.align	3
 595              	_ZTV3per:
 596 0000 00000000 		.dword	0
 596      00000000 
 597 0008 00000000 		.dword	0
 597      00000000 
 598 0010 00000000 		.dword	_ZN3perD1Ev
 598      00000000 
 599 0018 00000000 		.dword	_ZN3perD0Ev
 599      00000000 
 600 0020 00000000 		.dword	_ZN14PeriodicThread3runEv
 600      00000000 
 601 0028 00000000 		.dword	_ZN3per18periodicActivationEv
GAS LISTING /tmp/cccz0nER.s 			page 20


 601      00000000 
 602              		.text
 603              	.Letext0:
 604              		.file 6 "src/../lib/hw.h"
 605              		.file 7 "src/../h/KMemory.hpp"
 606              		.file 8 "src/../h/../h/syscall_c.hpp"
 607              		.file 9 "src/../h/../h/ThreadQueue.hpp"
 608              		.file 10 "src/../h/../test/printing.hpp"
 4882              		.align	3
 4885              	DW.ref.__gxx_personality_v0:
 4886 0000 00000000 		.dword	__gxx_personality_v0
 4886      00000000 
 4887              		.ident	"GCC: (Ubuntu 9.4.0-1ubuntu1~20.04) 9.4.0"
 4888              		.section	.note.GNU-stack,"",@progbits
GAS LISTING /tmp/cccz0nER.s 			page 21


DEFINED SYMBOLS
                            *ABS*:0000000000000000 testFunctions.cpp
     /tmp/cccz0nER.s:9      .text:0000000000000000 _Z13emptyFunctionPv
     /tmp/cccz0nER.s:13     .text:0000000000000000 .L0 
     /tmp/cccz0nER.s:14     .text:0000000000000000 .L0 
     /tmp/cccz0nER.s:15     .text:0000000000000004 .L0 
     /tmp/cccz0nER.s:17     .text:0000000000000008 .L0 
     /tmp/cccz0nER.s:19     .text:000000000000000c .L0 
     /tmp/cccz0nER.s:21     .text:000000000000000c .L0 
     /tmp/cccz0nER.s:22     .text:0000000000000010 .L0 
     /tmp/cccz0nER.s:23     .text:0000000000000010 .L0 
     /tmp/cccz0nER.s:25     .text:0000000000000014 .L0 
     /tmp/cccz0nER.s:27     .text:0000000000000018 .L0 
     /tmp/cccz0nER.s:33     .text:0000000000000018 _Z5nit1fPv
     /tmp/cccz0nER.s:36     .text:0000000000000018 .L0 
     /tmp/cccz0nER.s:37     .text:0000000000000018 .L0 
     /tmp/cccz0nER.s:38     .text:000000000000001c .L0 
     /tmp/cccz0nER.s:41     .text:0000000000000024 .L0 
     /tmp/cccz0nER.s:42     .text:0000000000000024 .L0 
     /tmp/cccz0nER.s:44     .text:0000000000000028 .L0 
     /tmp/cccz0nER.s:48     .text:0000000000000028 .L0 
     /tmp/cccz0nER.s:49     .text:0000000000000028 .L0 
     /tmp/cccz0nER.s:50     .text:0000000000000028 .L0 
     /tmp/cccz0nER.s:51     .text:0000000000000028 .L0 
     /tmp/cccz0nER.s:58     .text:0000000000000040 .L0 
     /tmp/cccz0nER.s:59     .text:0000000000000044 .L0 
     /tmp/cccz0nER.s:70     .text._ZN3per18periodicActivationEv:0000000000000000 _ZN3per18periodicActivationEv
     /tmp/cccz0nER.s:73     .text._ZN3per18periodicActivationEv:0000000000000000 .L0 
     /tmp/cccz0nER.s:75     .text._ZN3per18periodicActivationEv:0000000000000000 .L0 
     /tmp/cccz0nER.s:76     .text._ZN3per18periodicActivationEv:0000000000000004 .L0 
     /tmp/cccz0nER.s:79     .text._ZN3per18periodicActivationEv:000000000000000c .L0 
     /tmp/cccz0nER.s:80     .text._ZN3per18periodicActivationEv:000000000000000c .L0 
     /tmp/cccz0nER.s:82     .text._ZN3per18periodicActivationEv:0000000000000010 .L0 
     /tmp/cccz0nER.s:84     .text._ZN3per18periodicActivationEv:0000000000000010 .L0 
     /tmp/cccz0nER.s:85     .text._ZN3per18periodicActivationEv:0000000000000010 .L0 
     /tmp/cccz0nER.s:90     .text._ZN3per18periodicActivationEv:0000000000000020 .L0 
     /tmp/cccz0nER.s:91     .text._ZN3per18periodicActivationEv:0000000000000024 .L0 
     /tmp/cccz0nER.s:93     .text._ZN3per18periodicActivationEv:0000000000000028 .L0 
     /tmp/cccz0nER.s:94     .text._ZN3per18periodicActivationEv:0000000000000028 .L0 
     /tmp/cccz0nER.s:96     .text._ZN3per18periodicActivationEv:000000000000002c .L0 
     /tmp/cccz0nER.s:98     .text._ZN3per18periodicActivationEv:0000000000000030 .L0 
     /tmp/cccz0nER.s:109    .text:0000000000000044 _Z5nit2fPv
     /tmp/cccz0nER.s:112    .text:0000000000000044 .L0 
     /tmp/cccz0nER.s:4885   .data.rel.local.DW.ref.__gxx_personality_v0:0000000000000000 DW.ref.__gxx_personality_v0
     /tmp/cccz0nER.s:116    .text:0000000000000044 .L0 
     /tmp/cccz0nER.s:117    .text:0000000000000048 .L0 
     /tmp/cccz0nER.s:122    .text:0000000000000058 .L0 
     /tmp/cccz0nER.s:123    .text:0000000000000058 .L0 
     /tmp/cccz0nER.s:124    .text:0000000000000058 .L0 
     /tmp/cccz0nER.s:125    .text:0000000000000058 .L0 
     /tmp/cccz0nER.s:127    .text:000000000000005c .L0 
     /tmp/cccz0nER.s:129    .text:000000000000005c .L0 
     /tmp/cccz0nER.s:130    .text:000000000000005c .L0 
     /tmp/cccz0nER.s:141    .text:000000000000006c .L0 
     /tmp/cccz0nER.s:595    .data.rel.ro._ZTV3per:0000000000000000 _ZTV3per
     /tmp/cccz0nER.s:152    .text:0000000000000084 .L0 
     /tmp/cccz0nER.s:153    .text:0000000000000084 .L0 
GAS LISTING /tmp/cccz0nER.s 			page 22


     /tmp/cccz0nER.s:158    .text:0000000000000090 .L0 
     /tmp/cccz0nER.s:159    .text:0000000000000090 .L0 
     /tmp/cccz0nER.s:163    .text:000000000000009c .L0 
     /tmp/cccz0nER.s:164    .text:000000000000009c .L0 
     /tmp/cccz0nER.s:168    .text:00000000000000a8 .L0 
     /tmp/cccz0nER.s:169    .text:00000000000000a8 .L0 
     /tmp/cccz0nER.s:173    .text:00000000000000b8 .L0 
     /tmp/cccz0nER.s:174    .text:00000000000000bc .L0 
     /tmp/cccz0nER.s:175    .text:00000000000000bc .L0 
     /tmp/cccz0nER.s:177    .text:00000000000000c0 .L0 
     /tmp/cccz0nER.s:178    .text:00000000000000c0 .L0 
     /tmp/cccz0nER.s:180    .text:00000000000000c4 .L0 
     /tmp/cccz0nER.s:183    .text:00000000000000c8 .L0 
     /tmp/cccz0nER.s:185    .text:00000000000000cc .L0 
     /tmp/cccz0nER.s:189    .text:00000000000000d0 .L0 
     /tmp/cccz0nER.s:192    .text:00000000000000d4 .L0 
     /tmp/cccz0nER.s:199    .text:00000000000000ec .L0 
     /tmp/cccz0nER.s:226    .text._ZN3perD2Ev:0000000000000000 _ZN3perD2Ev
     /tmp/cccz0nER.s:229    .text._ZN3perD2Ev:0000000000000000 .L0 
     /tmp/cccz0nER.s:231    .text._ZN3perD2Ev:0000000000000000 .L0 
     /tmp/cccz0nER.s:232    .text._ZN3perD2Ev:0000000000000004 .L0 
     /tmp/cccz0nER.s:235    .text._ZN3perD2Ev:000000000000000c .L0 
     /tmp/cccz0nER.s:236    .text._ZN3perD2Ev:000000000000000c .L0 
     /tmp/cccz0nER.s:238    .text._ZN3perD2Ev:0000000000000010 .L0 
     /tmp/cccz0nER.s:244    .text._ZN3perD2Ev:0000000000000010 .L0 
     /tmp/cccz0nER.s:252    .text._ZN3perD2Ev:0000000000000028 .L0 
     /tmp/cccz0nER.s:253    .text._ZN3perD2Ev:000000000000002c .L0 
     /tmp/cccz0nER.s:255    .text._ZN3perD2Ev:0000000000000030 .L0 
     /tmp/cccz0nER.s:256    .text._ZN3perD2Ev:0000000000000030 .L0 
     /tmp/cccz0nER.s:258    .text._ZN3perD2Ev:0000000000000034 .L0 
     /tmp/cccz0nER.s:260    .text._ZN3perD2Ev:0000000000000038 .L0 
     /tmp/cccz0nER.s:226    .text._ZN3perD2Ev:0000000000000000 _ZN3perD1Ev
     /tmp/cccz0nER.s:269    .text._ZN3perD0Ev:0000000000000000 _ZN3perD0Ev
     /tmp/cccz0nER.s:272    .text._ZN3perD0Ev:0000000000000000 .L0 
     /tmp/cccz0nER.s:274    .text._ZN3perD0Ev:0000000000000000 .L0 
     /tmp/cccz0nER.s:275    .text._ZN3perD0Ev:0000000000000004 .L0 
     /tmp/cccz0nER.s:279    .text._ZN3perD0Ev:0000000000000010 .L0 
     /tmp/cccz0nER.s:280    .text._ZN3perD0Ev:0000000000000010 .L0 
     /tmp/cccz0nER.s:281    .text._ZN3perD0Ev:0000000000000010 .L0 
     /tmp/cccz0nER.s:283    .text._ZN3perD0Ev:0000000000000014 .L0 
     /tmp/cccz0nER.s:290    .text._ZN3perD0Ev:0000000000000018 .L0 
     /tmp/cccz0nER.s:299    .text._ZN3perD0Ev:0000000000000030 .L0 
     /tmp/cccz0nER.s:303    .text._ZN3perD0Ev:0000000000000040 .L0 
     /tmp/cccz0nER.s:305    .text._ZN3perD0Ev:0000000000000044 .L0 
     /tmp/cccz0nER.s:306    .text._ZN3perD0Ev:0000000000000044 .L0 
     /tmp/cccz0nER.s:308    .text._ZN3perD0Ev:0000000000000048 .L0 
     /tmp/cccz0nER.s:311    .text._ZN3perD0Ev:000000000000004c .L0 
     /tmp/cccz0nER.s:313    .text._ZN3perD0Ev:0000000000000050 .L0 
     /tmp/cccz0nER.s:324    .text:00000000000000ec _Z5nit3fPv
     /tmp/cccz0nER.s:327    .text:00000000000000ec .L0 
     /tmp/cccz0nER.s:328    .text:00000000000000ec .L0 
     /tmp/cccz0nER.s:329    .text:00000000000000f0 .L0 
     /tmp/cccz0nER.s:333    .text:00000000000000fc .L0 
     /tmp/cccz0nER.s:334    .text:00000000000000fc .L0 
     /tmp/cccz0nER.s:335    .text:00000000000000fc .L0 
     /tmp/cccz0nER.s:337    .text:0000000000000100 .L0 
     /tmp/cccz0nER.s:342    .text:0000000000000104 .L0 
GAS LISTING /tmp/cccz0nER.s 			page 23


     /tmp/cccz0nER.s:343    .text:0000000000000104 .L0 
     /tmp/cccz0nER.s:348    .text:0000000000000110 .L0 
     /tmp/cccz0nER.s:353    .text:0000000000000118 .L0 
     /tmp/cccz0nER.s:354    .text:0000000000000118 .L0 
     /tmp/cccz0nER.s:355    .text:0000000000000118 .L0 
     /tmp/cccz0nER.s:356    .text:0000000000000118 .L0 
     /tmp/cccz0nER.s:361    .text:0000000000000124 .L0 
     /tmp/cccz0nER.s:362    .text:0000000000000124 .L0 
     /tmp/cccz0nER.s:365    .text:000000000000012c .L0 
     /tmp/cccz0nER.s:370    .text:0000000000000138 .L0 
     /tmp/cccz0nER.s:371    .text:0000000000000138 .L0 
     /tmp/cccz0nER.s:375    .text:0000000000000148 .L0 
     /tmp/cccz0nER.s:376    .text:000000000000014c .L0 
     /tmp/cccz0nER.s:378    .text:0000000000000150 .L0 
     /tmp/cccz0nER.s:379    .text:0000000000000150 .L0 
     /tmp/cccz0nER.s:381    .text:0000000000000154 .L0 
     /tmp/cccz0nER.s:384    .text:0000000000000158 .L0 
     /tmp/cccz0nER.s:386    .text:000000000000015c .L0 
     /tmp/cccz0nER.s:400    .text:000000000000015c _Z5main2v
     /tmp/cccz0nER.s:403    .text:000000000000015c .L0 
     /tmp/cccz0nER.s:404    .text:000000000000015c .L0 
     /tmp/cccz0nER.s:405    .text:0000000000000160 .L0 
     /tmp/cccz0nER.s:409    .text:000000000000016c .L0 
     /tmp/cccz0nER.s:410    .text:000000000000016c .L0 
     /tmp/cccz0nER.s:411    .text:000000000000016c .L0 
     /tmp/cccz0nER.s:413    .text:0000000000000170 .L0 
     /tmp/cccz0nER.s:415    .text:0000000000000170 .L0 
     /tmp/cccz0nER.s:416    .text:0000000000000170 .L0 
     /tmp/cccz0nER.s:422    .text:000000000000017c .L0 
     /tmp/cccz0nER.s:424    .text:000000000000017c .L0 
     /tmp/cccz0nER.s:427    .text:0000000000000184 .L0 
     /tmp/cccz0nER.s:428    .text:0000000000000184 .L0 
     /tmp/cccz0nER.s:431    .text:000000000000018c .L0 
     /tmp/cccz0nER.s:432    .text:000000000000018c .L0 
     /tmp/cccz0nER.s:434    .text:0000000000000190 .L0 
     /tmp/cccz0nER.s:435    .text:0000000000000190 .L0 
     /tmp/cccz0nER.s:437    .text:0000000000000194 .L0 
     /tmp/cccz0nER.s:438    .text:0000000000000194 .L0 
     /tmp/cccz0nER.s:440    .text:0000000000000198 .L0 
     /tmp/cccz0nER.s:441    .text:0000000000000198 .L0 
     /tmp/cccz0nER.s:443    .text:000000000000019c .L0 
     /tmp/cccz0nER.s:444    .text:000000000000019c .L0 
     /tmp/cccz0nER.s:446    .text:00000000000001a0 .L0 
     /tmp/cccz0nER.s:447    .text:00000000000001a0 .L0 
     /tmp/cccz0nER.s:449    .text:00000000000001a4 .L0 
     /tmp/cccz0nER.s:450    .text:00000000000001a4 .L0 
     /tmp/cccz0nER.s:459    .text:00000000000001bc .L0 
     /tmp/cccz0nER.s:460    .text:00000000000001bc .L0 
     /tmp/cccz0nER.s:461    .text:00000000000001bc .L0 
     /tmp/cccz0nER.s:468    .text:00000000000001cc .L0 
     /tmp/cccz0nER.s:469    .text:00000000000001cc .L0 
     /tmp/cccz0nER.s:475    .text:00000000000001e4 .L0 
     /tmp/cccz0nER.s:476    .text:00000000000001e4 .L0 
     /tmp/cccz0nER.s:482    .text:00000000000001fc .L0 
     /tmp/cccz0nER.s:483    .text:00000000000001fc .L0 
     /tmp/cccz0nER.s:489    .text:0000000000000214 .L0 
     /tmp/cccz0nER.s:490    .text:0000000000000214 .L0 
GAS LISTING /tmp/cccz0nER.s 			page 24


     /tmp/cccz0nER.s:496    .text:000000000000022c .L0 
     /tmp/cccz0nER.s:497    .text:000000000000022c .L0 
     /tmp/cccz0nER.s:506    .text:0000000000000244 .L0 
     /tmp/cccz0nER.s:507    .text:0000000000000244 .L0 
     /tmp/cccz0nER.s:508    .text:0000000000000244 .L0 
     /tmp/cccz0nER.s:518    .text:000000000000024c .L0 
     /tmp/cccz0nER.s:519    .text:000000000000024c .L0 
     /tmp/cccz0nER.s:523    .text:0000000000000258 .L0 
     /tmp/cccz0nER.s:524    .text:0000000000000258 .L0 
     /tmp/cccz0nER.s:528    .text:0000000000000264 .L0 
     /tmp/cccz0nER.s:529    .text:0000000000000264 .L0 
     /tmp/cccz0nER.s:533    .text:0000000000000270 .L0 
     /tmp/cccz0nER.s:534    .text:0000000000000270 .L0 
     /tmp/cccz0nER.s:538    .text:0000000000000280 .L0 
     /tmp/cccz0nER.s:539    .text:0000000000000280 .L0 
     /tmp/cccz0nER.s:546    .text:0000000000000290 .L0 
     /tmp/cccz0nER.s:547    .text:0000000000000290 .L0 
src/../h/KConsole.hpp:31     .text:0000000000000290 .L0 
     /tmp/cccz0nER.s:553    .text:0000000000000294 .L0 
src/../h/KConsole.hpp:32     .text:0000000000000294 .L0 
     /tmp/cccz0nER.s:564    .text:0000000000000298 .L0 
     /tmp/cccz0nER.s:565    .text:0000000000000298 .L0 
  src/../h/Riscv.hpp:135    .text:0000000000000298 .L0 
     /tmp/cccz0nER.s:575    .text:000000000000029c .L0 
     /tmp/cccz0nER.s:576    .text:000000000000029c .L0 
     /tmp/cccz0nER.s:578    .text:00000000000002a4 .L0 
     /tmp/cccz0nER.s:580    .text:00000000000002a8 .L0 
     /tmp/cccz0nER.s:581    .text:00000000000002a8 .L0 
     /tmp/cccz0nER.s:583    .text:00000000000002ac .L0 
     /tmp/cccz0nER.s:585    .text:00000000000002b0 .L0 
     /tmp/cccz0nER.s:587    .text:00000000000002b4 .L0 
     /tmp/cccz0nER.s:609    .text:00000000000002b4 .L0 
     /tmp/cccz0nER.s:101    .text._ZN3per18periodicActivationEv:0000000000000030 .L0 
     /tmp/cccz0nER.s:265    .text._ZN3perD2Ev:0000000000000038 .L0 
     /tmp/cccz0nER.s:316    .text._ZN3perD0Ev:0000000000000050 .L0 
     /tmp/cccz0nER.s:52     .text:000000000000002c .L0 
     /tmp/cccz0nER.s:146    .text:0000000000000078 .L0 
     /tmp/cccz0nER.s:103    .rodata.str1.8:0000000000000000 .LC1
     /tmp/cccz0nER.s:169    .text:00000000000000a8 .L0 
     /tmp/cccz0nER.s:318    .rodata.str1.8:0000000000000010 .LC2
     /tmp/cccz0nER.s:371    .text:0000000000000138 .L0 
     /tmp/cccz0nER.s:416    .text:0000000000000170 .L0 
     /tmp/cccz0nER.s:451    .text:00000000000001a8 .L0 
     /tmp/cccz0nER.s:462    .text:00000000000001c0 .L0 
     /tmp/cccz0nER.s:470    .text:00000000000001d0 .L0 
     /tmp/cccz0nER.s:477    .text:00000000000001e8 .L0 
     /tmp/cccz0nER.s:484    .text:0000000000000200 .L0 
     /tmp/cccz0nER.s:491    .text:0000000000000218 .L0 
     /tmp/cccz0nER.s:498    .text:0000000000000230 .L0 
     /tmp/cccz0nER.s:391    .rodata.str1.8:0000000000000020 .LC3
     /tmp/cccz0nER.s:534    .text:0000000000000270 .L0 
     /tmp/cccz0nER.s:394    .rodata.str1.8:0000000000000038 .LC4
     /tmp/cccz0nER.s:539    .text:0000000000000280 .L0 
     /tmp/cccz0nER.s:45     .text:0000000000000028 .L4
     /tmp/cccz0nER.s:351    .text:0000000000000118 .L19
     /tmp/cccz0nER.s:368    .text:0000000000000138 .L21
     /tmp/cccz0nER.s:346    .text:0000000000000110 .L18
GAS LISTING /tmp/cccz0nER.s 			page 25


     /tmp/cccz0nER.s:340    .text:0000000000000104 .L22
     /tmp/cccz0nER.s:64     .rodata._ZN3per18periodicActivationEv.str1.8:0000000000000000 .LC0
     /tmp/cccz0nER.s:85     .text._ZN3per18periodicActivationEv:0000000000000010 .L0 
     /tmp/cccz0nER.s:132    .text:0000000000000060 .LEHB0
     /tmp/cccz0nER.s:110    .text:0000000000000044 .LFB64
     /tmp/cccz0nER.s:135    .text:0000000000000068 .LEHE0
     /tmp/cccz0nER.s:142    .text:0000000000000070 .LEHB1
     /tmp/cccz0nER.s:145    .text:0000000000000078 .LEHE1
     /tmp/cccz0nER.s:188    .text:00000000000000d0 .L10
     /tmp/cccz0nER.s:154    .text:0000000000000088 .LEHB2
     /tmp/cccz0nER.s:198    .text:00000000000000ec .LEHE2
     /tmp/cccz0nER.s:244    .text._ZN3perD2Ev:0000000000000010 .L0 
     /tmp/cccz0nER.s:290    .text._ZN3perD0Ev:0000000000000018 .L0 
     /tmp/cccz0nER.s:2801   .debug_abbrev:0000000000000000 .Ldebug_abbrev0
     /tmp/cccz0nER.s:4777   .debug_str:0000000000000c28 .LASF242
     /tmp/cccz0nER.s:4535   .debug_str:000000000000052a .LASF243
     /tmp/cccz0nER.s:4719   .debug_str:0000000000000a97 .LASF244
     /tmp/cccz0nER.s:4355   .debug_ranges:0000000000000000 .Ldebug_ranges0
     /tmp/cccz0nER.s:4367   .debug_line:0000000000000000 .Ldebug_line0
     /tmp/cccz0nER.s:4541   .debug_str:000000000000055e .LASF0
     /tmp/cccz0nER.s:4569   .debug_str:000000000000061d .LASF1
     /tmp/cccz0nER.s:4699   .debug_str:00000000000009fa .LASF2
     /tmp/cccz0nER.s:4479   .debug_str:0000000000000369 .LASF3
     /tmp/cccz0nER.s:4713   .debug_str:0000000000000a76 .LASF4
     /tmp/cccz0nER.s:4553   .debug_str:00000000000005a6 .LASF5
     /tmp/cccz0nER.s:4391   .debug_str:00000000000000b6 .LASF6
     /tmp/cccz0nER.s:4665   .debug_str:00000000000008eb .LASF7
     /tmp/cccz0nER.s:4651   .debug_str:0000000000000880 .LASF8
     /tmp/cccz0nER.s:4557   .debug_str:00000000000005ca .LASF9
     /tmp/cccz0nER.s:4511   .debug_str:0000000000000463 .LASF10
     /tmp/cccz0nER.s:4527   .debug_str:00000000000004e3 .LASF11
     /tmp/cccz0nER.s:4427   .debug_str:00000000000001d0 .LASF12
     /tmp/cccz0nER.s:4493   .debug_str:00000000000003ed .LASF13
     /tmp/cccz0nER.s:4443   .debug_str:0000000000000234 .LASF14
     /tmp/cccz0nER.s:4425   .debug_str:00000000000001c0 .LASF15
     /tmp/cccz0nER.s:4743   .debug_str:0000000000000b57 .LASF16
     /tmp/cccz0nER.s:4471   .debug_str:000000000000030d .LASF17
     /tmp/cccz0nER.s:4731   .debug_str:0000000000000af4 .LASF18
     /tmp/cccz0nER.s:4841   .debug_str:0000000000000e78 .LASF50
     /tmp/cccz0nER.s:4823   .debug_str:0000000000000e20 .LASF71
     /tmp/cccz0nER.s:4485   .debug_str:0000000000000393 .LASF19
     /tmp/cccz0nER.s:4775   .debug_str:0000000000000c1b .LASF20
     /tmp/cccz0nER.s:4455   .debug_str:00000000000002b4 .LASF21
     /tmp/cccz0nER.s:4605   .debug_str:0000000000000709 .LASF52
     /tmp/cccz0nER.s:4811   .debug_str:0000000000000dcf .LASF54
     /tmp/cccz0nER.s:4809   .debug_str:0000000000000dc6 .LASF22
     /tmp/cccz0nER.s:4795   .debug_str:0000000000000d5e .LASF24
     /tmp/cccz0nER.s:4695   .debug_str:00000000000009e6 .LASF26
     /tmp/cccz0nER.s:4637   .debug_str:000000000000080e .LASF28
     /tmp/cccz0nER.s:4673   .debug_str:0000000000000922 .LASF23
     /tmp/cccz0nER.s:4681   .debug_str:000000000000095b .LASF25
     /tmp/cccz0nER.s:4617   .debug_str:000000000000077a .LASF27
     /tmp/cccz0nER.s:4559   .debug_str:00000000000005dd .LASF29
     /tmp/cccz0nER.s:4851   .debug_str:0000000000000eda .LASF30
     /tmp/cccz0nER.s:4783   .debug_str:0000000000000d0f .LASF31
     /tmp/cccz0nER.s:4615   .debug_str:0000000000000772 .LASF32
     /tmp/cccz0nER.s:4635   .debug_str:00000000000007fa .LASF33
GAS LISTING /tmp/cccz0nER.s 			page 26


     /tmp/cccz0nER.s:4737   .debug_str:0000000000000b22 .LASF34
     /tmp/cccz0nER.s:4715   .debug_str:0000000000000a7d .LASF35
     /tmp/cccz0nER.s:4717   .debug_str:0000000000000a90 .LASF36
     /tmp/cccz0nER.s:4435   .debug_str:00000000000001fc .LASF37
     /tmp/cccz0nER.s:4469   .debug_str:0000000000000307 .LASF38
     /tmp/cccz0nER.s:4537   .debug_str:0000000000000540 .LASF39
     /tmp/cccz0nER.s:4547   .debug_str:000000000000058a .LASF40
     /tmp/cccz0nER.s:4459   .debug_str:00000000000002c7 .LASF41
     /tmp/cccz0nER.s:4393   .debug_str:00000000000000bd .LASF42
     /tmp/cccz0nER.s:4703   .debug_str:0000000000000a12 .LASF43
     /tmp/cccz0nER.s:4697   .debug_str:00000000000009ef .LASF44
     /tmp/cccz0nER.s:4871   .debug_str:0000000000000f47 .LASF45
     /tmp/cccz0nER.s:4843   .debug_str:0000000000000e7e .LASF46
     /tmp/cccz0nER.s:4857   .debug_str:0000000000000eee .LASF47
     /tmp/cccz0nER.s:4837   .debug_str:0000000000000e58 .LASF48
     /tmp/cccz0nER.s:4603   .debug_str:00000000000006f3 .LASF49
     /tmp/cccz0nER.s:4787   .debug_str:0000000000000d2d .LASF65
     /tmp/cccz0nER.s:4449   .debug_str:0000000000000274 .LASF67
     /tmp/cccz0nER.s:4483   .debug_str:000000000000038b .LASF51
     /tmp/cccz0nER.s:4419   .debug_str:0000000000000194 .LASF53
     /tmp/cccz0nER.s:4675   .debug_str:0000000000000929 .LASF55
     /tmp/cccz0nER.s:4499   .debug_str:000000000000041c .LASF56
     /tmp/cccz0nER.s:4515   .debug_str:0000000000000479 .LASF58
     /tmp/cccz0nER.s:4503   .debug_str:0000000000000429 .LASF57
     /tmp/cccz0nER.s:4545   .debug_str:0000000000000575 .LASF59
     /tmp/cccz0nER.s:4539   .debug_str:0000000000000552 .LASF60
     /tmp/cccz0nER.s:4599   .debug_str:00000000000006e2 .LASF61
     /tmp/cccz0nER.s:4705   .debug_str:0000000000000a2a .LASF62
     /tmp/cccz0nER.s:4679   .debug_str:0000000000000951 .LASF63
     /tmp/cccz0nER.s:4657   .debug_str:00000000000008a3 .LASF64
     /tmp/cccz0nER.s:4645   .debug_str:000000000000084e .LASF66
     /tmp/cccz0nER.s:4395   .debug_str:00000000000000c8 .LASF68
     /tmp/cccz0nER.s:4595   .debug_str:00000000000006cb .LASF69
     /tmp/cccz0nER.s:4835   .debug_str:0000000000000e4f .LASF70
     /tmp/cccz0nER.s:4725   .debug_str:0000000000000acb .LASF72
     /tmp/cccz0nER.s:4671   .debug_str:000000000000091a .LASF73
     /tmp/cccz0nER.s:4457   .debug_str:00000000000002c0 .LASF74
     /tmp/cccz0nER.s:4373   .debug_str:0000000000000026 .LASF75
     /tmp/cccz0nER.s:4517   .debug_str:000000000000048f .LASF76
     /tmp/cccz0nER.s:4565   .debug_str:0000000000000609 .LASF77
     /tmp/cccz0nER.s:4415   .debug_str:0000000000000176 .LASF78
     /tmp/cccz0nER.s:4757   .debug_str:0000000000000bae .LASF163
     /tmp/cccz0nER.s:4431   .debug_str:00000000000001e4 .LASF79
     /tmp/cccz0nER.s:4529   .debug_str:00000000000004f1 .LASF80
     /tmp/cccz0nER.s:4687   .debug_str:0000000000000997 .LASF85
     /tmp/cccz0nER.s:4593   .debug_str:00000000000006b7 .LASF87
     /tmp/cccz0nER.s:4741   .debug_str:0000000000000b4a .LASF81
     /tmp/cccz0nER.s:4849   .debug_str:0000000000000eb8 .LASF82
     /tmp/cccz0nER.s:4643   .debug_str:0000000000000849 .LASF245
     /tmp/cccz0nER.s:4865   .debug_str:0000000000000f35 .LASF83
     /tmp/cccz0nER.s:4555   .debug_str:00000000000005b8 .LASF84
     /tmp/cccz0nER.s:4579   .debug_str:0000000000000665 .LASF86
     /tmp/cccz0nER.s:4685   .debug_str:000000000000097f .LASF88
     /tmp/cccz0nER.s:4461   .debug_str:00000000000002d9 .LASF89
     /tmp/cccz0nER.s:4709   .debug_str:0000000000000a50 .LASF90
     /tmp/cccz0nER.s:4677   .debug_str:0000000000000949 .LASF91
     /tmp/cccz0nER.s:4597   .debug_str:00000000000006d0 .LASF92
GAS LISTING /tmp/cccz0nER.s 			page 27


     /tmp/cccz0nER.s:4465   .debug_str:00000000000002ef .LASF93
     /tmp/cccz0nER.s:4729   .debug_str:0000000000000ade .LASF94
     /tmp/cccz0nER.s:4377   .debug_str:0000000000000037 .LASF95
     /tmp/cccz0nER.s:4767   .debug_str:0000000000000bdf .LASF96
     /tmp/cccz0nER.s:4807   .debug_str:0000000000000db2 .LASF97
     /tmp/cccz0nER.s:4639   .debug_str:0000000000000823 .LASF98
     /tmp/cccz0nER.s:4805   .debug_str:0000000000000da7 .LASF99
     /tmp/cccz0nER.s:4497   .debug_str:0000000000000404 .LASF100
     /tmp/cccz0nER.s:4875   .debug_str:0000000000000f6c .LASF101
     /tmp/cccz0nER.s:4489   .debug_str:00000000000003ac .LASF102
     /tmp/cccz0nER.s:4463   .debug_str:00000000000002e6 .LASF103
     /tmp/cccz0nER.s:4439   .debug_str:0000000000000215 .LASF104
     /tmp/cccz0nER.s:4583   .debug_str:000000000000067e .LASF105
     /tmp/cccz0nER.s:4397   .debug_str:00000000000000de .LASF106
     /tmp/cccz0nER.s:4873   .debug_str:0000000000000f5f .LASF107
     /tmp/cccz0nER.s:4521   .debug_str:00000000000004af .LASF108
     /tmp/cccz0nER.s:4379   .debug_str:0000000000000042 .LASF109
     /tmp/cccz0nER.s:4633   .debug_str:00000000000007ed .LASF110
     /tmp/cccz0nER.s:4861   .debug_str:0000000000000f10 .LASF246
     /tmp/cccz0nER.s:4793   .debug_str:0000000000000d56 .LASF111
     /tmp/cccz0nER.s:4421   .debug_str:00000000000001a5 .LASF112
     /tmp/cccz0nER.s:4867   .debug_str:0000000000000f3b .LASF113
     /tmp/cccz0nER.s:4815   .debug_str:0000000000000df6 .LASF114
     /tmp/cccz0nER.s:4785   .debug_str:0000000000000d23 .LASF115
     /tmp/cccz0nER.s:4691   .debug_str:00000000000009be .LASF116
     /tmp/cccz0nER.s:4647   .debug_str:0000000000000856 .LASF117
     /tmp/cccz0nER.s:4487   .debug_str:000000000000039f .LASF118
     /tmp/cccz0nER.s:4711   .debug_str:0000000000000a68 .LASF119
     /tmp/cccz0nER.s:4831   .debug_str:0000000000000e43 .LASF120
     /tmp/cccz0nER.s:4773   .debug_str:0000000000000c13 .LASF121
     /tmp/cccz0nER.s:4683   .debug_str:000000000000096e .LASF122
     /tmp/cccz0nER.s:4451   .debug_str:000000000000028c .LASF169
     /tmp/cccz0nER.s:4383   .debug_str:000000000000006a .LASF170
     /tmp/cccz0nER.s:4513   .debug_str:0000000000000473 .LASF123
     /tmp/cccz0nER.s:4733   .debug_str:0000000000000b0a .LASF247
     /tmp/cccz0nER.s:4591   .debug_str:00000000000006ae .LASF124
     /tmp/cccz0nER.s:4747   .debug_str:0000000000000b6c .LASF125
     /tmp/cccz0nER.s:4797   .debug_str:0000000000000d73 .LASF126
     /tmp/cccz0nER.s:4721   .debug_str:0000000000000ab5 .LASF127
     /tmp/cccz0nER.s:4629   .debug_str:00000000000007c3 .LASF128
     /tmp/cccz0nER.s:4655   .debug_str:000000000000089d .LASF129
     /tmp/cccz0nER.s:4613   .debug_str:000000000000075d .LASF130
     /tmp/cccz0nER.s:4551   .debug_str:0000000000000598 .LASF131
     /tmp/cccz0nER.s:4649   .debug_str:0000000000000862 .LASF132
     /tmp/cccz0nER.s:4533   .debug_str:000000000000051d .LASF133
     /tmp/cccz0nER.s:4689   .debug_str:00000000000009a1 .LASF134
     /tmp/cccz0nER.s:4437   .debug_str:000000000000020f .LASF135
     /tmp/cccz0nER.s:4417   .debug_str:000000000000017f .LASF136
     /tmp/cccz0nER.s:4387   .debug_str:00000000000000a1 .LASF137
     /tmp/cccz0nER.s:4845   .debug_str:0000000000000e88 .LASF138
     /tmp/cccz0nER.s:4371   .debug_str:000000000000001b .LASF139
     /tmp/cccz0nER.s:4509   .debug_str:0000000000000448 .LASF140
     /tmp/cccz0nER.s:4755   .debug_str:0000000000000ba3 .LASF141
     /tmp/cccz0nER.s:4369   .debug_str:0000000000000000 .LASF142
     /tmp/cccz0nER.s:4589   .debug_str:0000000000000696 .LASF143
     /tmp/cccz0nER.s:4491   .debug_str:00000000000003c5 .LASF144
     /tmp/cccz0nER.s:4707   .debug_str:0000000000000a42 .LASF145
GAS LISTING /tmp/cccz0nER.s 			page 28


     /tmp/cccz0nER.s:4661   .debug_str:00000000000008bd .LASF146
     /tmp/cccz0nER.s:4433   .debug_str:00000000000001ee .LASF147
     /tmp/cccz0nER.s:4667   .debug_str:00000000000008f2 .LASF148
     /tmp/cccz0nER.s:4771   .debug_str:0000000000000c02 .LASF149
     /tmp/cccz0nER.s:4409   .debug_str:0000000000000152 .LASF150
     /tmp/cccz0nER.s:4525   .debug_str:00000000000004ce .LASF151
     /tmp/cccz0nER.s:4761   .debug_str:0000000000000bc3 .LASF152
     /tmp/cccz0nER.s:4505   .debug_str:000000000000042f .LASF153
     /tmp/cccz0nER.s:4375   .debug_str:000000000000002e .LASF248
     /tmp/cccz0nER.s:4817   .debug_str:0000000000000dfb .LASF154
     /tmp/cccz0nER.s:4467   .debug_str:00000000000002fa .LASF155
     /tmp/cccz0nER.s:4543   .debug_str:000000000000056b .LASF156
     /tmp/cccz0nER.s:4669   .debug_str:0000000000000910 .LASF157
     /tmp/cccz0nER.s:4571   .debug_str:0000000000000630 .LASF158
     /tmp/cccz0nER.s:4821   .debug_str:0000000000000e15 .LASF159
     /tmp/cccz0nER.s:4723   .debug_str:0000000000000abb .LASF160
     /tmp/cccz0nER.s:4763   .debug_str:0000000000000bd0 .LASF161
     /tmp/cccz0nER.s:4621   .debug_str:000000000000078f .LASF162
     /tmp/cccz0nER.s:4833   .debug_str:0000000000000e4a .LASF164
     /tmp/cccz0nER.s:4563   .debug_str:0000000000000604 .LASF165
     /tmp/cccz0nER.s:4429   .debug_str:00000000000001df .LASF166
     /tmp/cccz0nER.s:4477   .debug_str:000000000000034b .LASF167
     /tmp/cccz0nER.s:4453   .debug_str:000000000000029a .LASF168
     /tmp/cccz0nER.s:4445   .debug_str:0000000000000244 .LASF171
     /tmp/cccz0nER.s:4403   .debug_str:000000000000010a .LASF172
     /tmp/cccz0nER.s:4609   .debug_str:0000000000000739 .LASF173
     /tmp/cccz0nER.s:4401   .debug_str:00000000000000f5 .LASF174
     /tmp/cccz0nER.s:4519   .debug_str:0000000000000497 .LASF175
     /tmp/cccz0nER.s:4701   .debug_str:0000000000000a08 .LASF202
     /tmp/cccz0nER.s:4789   .debug_str:0000000000000d38 .LASF204
     /tmp/cccz0nER.s:4759   .debug_str:0000000000000bb6 .LASF176
     /tmp/cccz0nER.s:4847   .debug_str:0000000000000ea3 .LASF177
     /tmp/cccz0nER.s:4549   .debug_str:0000000000000590 .LASF178
     /tmp/cccz0nER.s:4481   .debug_str:000000000000036f .LASF179
     /tmp/cccz0nER.s:4573   .debug_str:000000000000063b .LASF180
     /tmp/cccz0nER.s:4611   .debug_str:000000000000073e .LASF181
     /tmp/cccz0nER.s:4413   .debug_str:000000000000016d .LASF182
     /tmp/cccz0nER.s:4607   .debug_str:000000000000071d .LASF183
     /tmp/cccz0nER.s:4447   .debug_str:000000000000025f .LASF184
     /tmp/cccz0nER.s:4839   .debug_str:0000000000000e62 .LASF185
     /tmp/cccz0nER.s:4781   .debug_str:0000000000000d01 .LASF186
     /tmp/cccz0nER.s:4575   .debug_str:0000000000000643 .LASF187
     /tmp/cccz0nER.s:4423   .debug_str:00000000000001b4 .LASF249
     /tmp/cccz0nER.s:4523   .debug_str:00000000000004bb .LASF190
     /tmp/cccz0nER.s:4473   .debug_str:0000000000000323 .LASF191
     /tmp/cccz0nER.s:4399   .debug_str:00000000000000f0 .LASF188
     /tmp/cccz0nER.s:4803   .debug_str:0000000000000d9b .LASF250
     /tmp/cccz0nER.s:4385   .debug_str:0000000000000092 .LASF193
     /tmp/cccz0nER.s:4627   .debug_str:00000000000007b3 .LASF189
     /tmp/cccz0nER.s:4381   .debug_str:0000000000000052 .LASF251
     /tmp/cccz0nER.s:4405   .debug_str:0000000000000110 .LASF192
     /tmp/cccz0nER.s:4749   .debug_str:0000000000000b79 .LASF195
     /tmp/cccz0nER.s:4765   .debug_str:0000000000000bd5 .LASF197
     /tmp/cccz0nER.s:4531   .debug_str:0000000000000516 .LASF194
     /tmp/cccz0nER.s:4577   .debug_str:0000000000000652 .LASF196
     /tmp/cccz0nER.s:4501   .debug_str:0000000000000424 .LASF198
     /tmp/cccz0nER.s:4389   .debug_str:00000000000000ac .LASF199
GAS LISTING /tmp/cccz0nER.s 			page 29


     /tmp/cccz0nER.s:4581   .debug_str:0000000000000672 .LASF200
     /tmp/cccz0nER.s:270    .text._ZN3perD0Ev:0000000000000000 .LFB70
     /tmp/cccz0nER.s:314    .text._ZN3perD0Ev:0000000000000050 .LFE70
     /tmp/cccz0nER.s:4185   .debug_loc:0000000000000000 .LLST7
     /tmp/cccz0nER.s:286    .text._ZN3perD0Ev:0000000000000018 .LBB30
     /tmp/cccz0nER.s:297    .text._ZN3perD0Ev:0000000000000030 .LBE30
     /tmp/cccz0nER.s:4203   .debug_loc:000000000000004c .LLST8
     /tmp/cccz0nER.s:287    .text._ZN3perD0Ev:0000000000000018 .LBB31
     /tmp/cccz0nER.s:296    .text._ZN3perD0Ev:0000000000000030 .LBE31
     /tmp/cccz0nER.s:294    .text._ZN3perD0Ev:0000000000000030 .LVL23
     /tmp/cccz0nER.s:301    .text._ZN3perD0Ev:000000000000003c .LVL24
     /tmp/cccz0nER.s:4625   .debug_str:00000000000007a7 .LASF201
     /tmp/cccz0nER.s:227    .text._ZN3perD2Ev:0000000000000000 .LFB68
     /tmp/cccz0nER.s:261    .text._ZN3perD2Ev:0000000000000038 .LFE68
     /tmp/cccz0nER.s:4214   .debug_loc:0000000000000082 .LLST5
     /tmp/cccz0nER.s:240    .text._ZN3perD2Ev:0000000000000010 .LBB28
     /tmp/cccz0nER.s:250    .text._ZN3perD2Ev:0000000000000028 .LBE28
     /tmp/cccz0nER.s:4228   .debug_loc:00000000000000bb .LLST6
     /tmp/cccz0nER.s:248    .text._ZN3perD2Ev:0000000000000028 .LVL20
     /tmp/cccz0nER.s:4825   .debug_str:0000000000000e2f .LASF203
     /tmp/cccz0nER.s:4653   .debug_str:0000000000000893 .LASF205
     /tmp/cccz0nER.s:401    .text:000000000000015c .LFB66
     /tmp/cccz0nER.s:588    .text:00000000000002b4 .LFE66
     /tmp/cccz0nER.s:4475   .debug_str:0000000000000341 .LASF206
     /tmp/cccz0nER.s:4751   .debug_str:0000000000000b99 .LASF207
     /tmp/cccz0nER.s:4753   .debug_str:0000000000000b9e .LASF208
     /tmp/cccz0nER.s:4585   .debug_str:0000000000000686 .LASF209
     /tmp/cccz0nER.s:4495   .debug_str:00000000000003fc .LASF210
     /tmp/cccz0nER.s:4779   .debug_str:0000000000000cec .LASF211
     /tmp/cccz0nER.s:456    .text:00000000000001bc .LBB33
     /tmp/cccz0nER.s:466    .text:00000000000001cc .LBE33
     /tmp/cccz0nER.s:4242   .debug_loc:00000000000000f4 .LLST11
     /tmp/cccz0nER.s:503    .text:0000000000000244 .LBB35
     /tmp/cccz0nER.s:516    .text:000000000000024c .LBE35
     /tmp/cccz0nER.s:4250   .debug_loc:0000000000000118 .LLST12
     /tmp/cccz0nER.s:543    .text:0000000000000290 .LBB37
     /tmp/cccz0nER.s:559    .text:0000000000000298 .LBE37
     /tmp/cccz0nER.s:562    .text:0000000000000298 .LBB39
     /tmp/cccz0nER.s:573    .text:000000000000029c .LBE39
     /tmp/cccz0nER.s:4258   .debug_loc:000000000000013c .LLST13
     /tmp/cccz0nER.s:425    .text:0000000000000184 .LVL34
     /tmp/cccz0nER.s:429    .text:000000000000018c .LVL35
     /tmp/cccz0nER.s:454    .text:00000000000001bc .LVL36
     /tmp/cccz0nER.s:473    .text:00000000000001e4 .LVL38
     /tmp/cccz0nER.s:480    .text:00000000000001fc .LVL39
     /tmp/cccz0nER.s:487    .text:0000000000000214 .LVL40
     /tmp/cccz0nER.s:494    .text:000000000000022c .LVL41
     /tmp/cccz0nER.s:501    .text:0000000000000244 .LVL42
     /tmp/cccz0nER.s:521    .text:0000000000000258 .LVL44
     /tmp/cccz0nER.s:526    .text:0000000000000264 .LVL45
     /tmp/cccz0nER.s:531    .text:0000000000000270 .LVL46
     /tmp/cccz0nER.s:536    .text:0000000000000280 .LVL47
     /tmp/cccz0nER.s:541    .text:0000000000000290 .LVL48
     /tmp/cccz0nER.s:4869   .debug_str:0000000000000f41 .LASF212
     /tmp/cccz0nER.s:4769   .debug_str:0000000000000bf7 .LASF213
     /tmp/cccz0nER.s:325    .text:00000000000000ec .LFB65
     /tmp/cccz0nER.s:387    .text:000000000000015c .LFE65
GAS LISTING /tmp/cccz0nER.s 			page 30


     /tmp/cccz0nER.s:4791   .debug_str:0000000000000d50 .LASF214
     /tmp/cccz0nER.s:4266   .debug_loc:0000000000000160 .LLST10
     /tmp/cccz0nER.s:345    .text:0000000000000110 .LVL27
     /tmp/cccz0nER.s:357    .text:0000000000000120 .LVL29
     /tmp/cccz0nER.s:363    .text:000000000000012c .LVL31
     /tmp/cccz0nER.s:373    .text:0000000000000148 .LVL32
     /tmp/cccz0nER.s:4799   .debug_str:0000000000000d90 .LASF215
     /tmp/cccz0nER.s:4587   .debug_str:000000000000068b .LASF216
     /tmp/cccz0nER.s:200    .text:00000000000000ec .LFE64
     /tmp/cccz0nER.s:4801   .debug_str:0000000000000d96 .LASF252
     /tmp/cccz0nER.s:4277   .debug_loc:0000000000000196 .LLST1
     /tmp/cccz0nER.s:4291   .debug_loc:00000000000001cf .LLST2
     /tmp/cccz0nER.s:138    .text:000000000000006c .LBB26
     /tmp/cccz0nER.s:150    .text:0000000000000084 .LBE26
     /tmp/cccz0nER.s:4298   .debug_loc:00000000000001f2 .LLST3
     /tmp/cccz0nER.s:4311   .debug_loc:000000000000022a .LLST4
     /tmp/cccz0nER.s:144    .text:0000000000000078 .LVL8
     /tmp/cccz0nER.s:134    .text:0000000000000068 .LVL6
     /tmp/cccz0nER.s:156    .text:0000000000000090 .LVL10
     /tmp/cccz0nER.s:161    .text:000000000000009c .LVL11
     /tmp/cccz0nER.s:166    .text:00000000000000a8 .LVL12
     /tmp/cccz0nER.s:171    .text:00000000000000b8 .LVL13
     /tmp/cccz0nER.s:194    .text:00000000000000e0 .LVL16
     /tmp/cccz0nER.s:197    .text:00000000000000ec .LVL17
     /tmp/cccz0nER.s:71     .text._ZN3per18periodicActivationEv:0000000000000000 .LFB63
     /tmp/cccz0nER.s:99     .text._ZN3per18periodicActivationEv:0000000000000030 .LFE63
     /tmp/cccz0nER.s:4322   .debug_loc:0000000000000260 .LLST0
     /tmp/cccz0nER.s:88     .text._ZN3per18periodicActivationEv:0000000000000020 .LVL3
     /tmp/cccz0nER.s:4411   .debug_str:0000000000000166 .LASF225
     /tmp/cccz0nER.s:4441   .debug_str:0000000000000228 .LASF217
     /tmp/cccz0nER.s:4877   .debug_str:0000000000000f7a .LASF218
     /tmp/cccz0nER.s:4693   .debug_str:00000000000009ce .LASF219
     /tmp/cccz0nER.s:4727   .debug_str:0000000000000ad8 .LASF220
     /tmp/cccz0nER.s:4659   .debug_str:00000000000008b2 .LASF221
     /tmp/cccz0nER.s:34     .text:0000000000000018 .LFB55
     /tmp/cccz0nER.s:60     .text:0000000000000044 .LFE55
     /tmp/cccz0nER.s:47     .text:0000000000000028 .LBB25
     /tmp/cccz0nER.s:56     .text:0000000000000040 .LBE25
     /tmp/cccz0nER.s:4855   .debug_str:0000000000000ee7 .LASF222
     /tmp/cccz0nER.s:55     .text:0000000000000040 .LVL0
     /tmp/cccz0nER.s:4619   .debug_str:0000000000000781 .LASF223
     /tmp/cccz0nER.s:4561   .debug_str:00000000000005f0 .LASF224
     /tmp/cccz0nER.s:10     .text:0000000000000000 .LFB54
     /tmp/cccz0nER.s:28     .text:0000000000000018 .LFE54
     /tmp/cccz0nER.s:4567   .debug_str:0000000000000612 .LASF226
     /tmp/cccz0nER.s:4827   .debug_str:0000000000000e35 .LASF227
     /tmp/cccz0nER.s:4641   .debug_str:0000000000000842 .LASF228
     /tmp/cccz0nER.s:4739   .debug_str:0000000000000b29 .LASF229
     /tmp/cccz0nER.s:4819   .debug_str:0000000000000e07 .LASF230
     /tmp/cccz0nER.s:4631   .debug_str:00000000000007d8 .LASF231
     /tmp/cccz0nER.s:4623   .debug_str:000000000000079b .LASF232
     /tmp/cccz0nER.s:4735   .debug_str:0000000000000b0f .LASF233
     /tmp/cccz0nER.s:4859   .debug_str:0000000000000f04 .LASF234
     /tmp/cccz0nER.s:4745   .debug_str:0000000000000b63 .LASF235
     /tmp/cccz0nER.s:4601   .debug_str:00000000000006ee .LASF236
     /tmp/cccz0nER.s:4829   .debug_str:0000000000000e3a .LASF237
     /tmp/cccz0nER.s:4853   .debug_str:0000000000000ee2 .LASF238
GAS LISTING /tmp/cccz0nER.s 			page 31


     /tmp/cccz0nER.s:4813   .debug_str:0000000000000df0 .LASF239
     /tmp/cccz0nER.s:4663   .debug_str:00000000000008db .LASF240
     /tmp/cccz0nER.s:4507   .debug_str:000000000000043d .LASF241
     /tmp/cccz0nER.s:4863   .debug_str:0000000000000f26 .LASF253
     /tmp/cccz0nER.s:4407   .debug_str:000000000000013a .LASF254
     /tmp/cccz0nER.s:273    .text._ZN3perD0Ev:0000000000000000 .LVL21
     /tmp/cccz0nER.s:309    .text._ZN3perD0Ev:0000000000000048 .LVL25
     /tmp/cccz0nER.s:285    .text._ZN3perD0Ev:0000000000000018 .LVL22
     /tmp/cccz0nER.s:230    .text._ZN3perD2Ev:0000000000000000 .LVL18
     /tmp/cccz0nER.s:239    .text._ZN3perD2Ev:0000000000000010 .LVL19
     /tmp/cccz0nER.s:464    .text:00000000000001cc .LVL37
     /tmp/cccz0nER.s:513    .text:000000000000024c .LVL43
     /tmp/cccz0nER.s:561    .text:0000000000000298 .LVL49
     /tmp/cccz0nER.s:570    .text:000000000000029c .LVL50
     /tmp/cccz0nER.s:339    .text:0000000000000104 .LVL26
     /tmp/cccz0nER.s:350    .text:0000000000000118 .LVL28
     /tmp/cccz0nER.s:359    .text:0000000000000124 .LVL30
     /tmp/cccz0nER.s:382    .text:0000000000000154 .LVL33
     /tmp/cccz0nER.s:115    .text:0000000000000044 .LVL4
     /tmp/cccz0nER.s:131    .text:0000000000000060 .LVL5
     /tmp/cccz0nER.s:148    .text:0000000000000084 .LVL9
     /tmp/cccz0nER.s:181    .text:00000000000000c4 .LVL14
     /tmp/cccz0nER.s:137    .text:000000000000006c .LVL7
     /tmp/cccz0nER.s:187    .text:00000000000000d0 .LVL15
     /tmp/cccz0nER.s:74     .text._ZN3per18periodicActivationEv:0000000000000000 .LVL1
     /tmp/cccz0nER.s:86     .text._ZN3per18periodicActivationEv:0000000000000018 .LVL2
     /tmp/cccz0nER.s:610    .debug_info:0000000000000000 .Ldebug_info0
     /tmp/cccz0nER.s:5      .text:0000000000000000 .Ltext0
     /tmp/cccz0nER.s:603    .text:00000000000002b4 .Letext0
     /tmp/cccz0nER.s:203    .gcc_except_table:0000000000000000 .LLSDA64
                           .group:0000000000000000 _ZN3perD5Ev

UNDEFINED SYMBOLS
_Z13thread_createPP3TCBPFvPvES2_
_Z11printStringPKc
_Znwm
_ZN14PeriodicThreadC2Em
_ZN6Thread5startEv
_Z10time_sleepm
_ZN14PeriodicThread9terminateEv
_ZdlPv
_Unwind_Resume
__gxx_personality_v0
_ZTV14PeriodicThread
_ZN6ThreadD2Ev
_Z4putcc
_Z4getcv
interruptHandler
_ZN7KMemory16initializeMemoryEv
_ZN8KConsole12initKConsoleEv
main
_ZN3TCB7runningE
_Z4idlePv
_Z22kernelConsumerFunctionPv
_Z11thread_joinP3TCB
_ZN14PeriodicThread3runEv
