GAS LISTING /tmp/ccPZSv5c.s 			page 1


   1              		.file	"testMemoryAllocator.cpp"
   2              		.option pic
   3              		.option norelax
   4              		.text
   5              	.Ltext0:
   6              		.section	.rodata.str1.8,"aMS",@progbits,1
   7              		.align	3
   8              	.LC0:
   9 0000 0A416C6C 		.string	"\nAllocation failed for index "
   9      6F636174 
   9      696F6E20 
   9      6661696C 
   9      65642066 
  10 001e 0000     		.align	3
  11              	.LC1:
  12 0020 0A416C6C 		.string	"\nAllocated memory at index "
  12      6F636174 
  12      6564206D 
  12      656D6F72 
  12      79206174 
  13 003c 00000000 		.align	3
  14              	.LC2:
  15 0040 0A467265 		.string	"\nFreed memory at index "
  15      6564206D 
  15      656D6F72 
  15      79206174 
  15      20696E64 
  16              		.align	3
  17              	.LC3:
  18 0058 0A446561 		.string	"\nDeallocation failed for index "
  18      6C6C6F63 
  18      6174696F 
  18      6E206661 
  18      696C6564 
  19              		.text
  20              		.align	2
  21              		.globl	_Z10testMemoryv
  23              	_Z10testMemoryv:
  24              	.LFB3:
  25              		.file 1 "src/testMemoryAllocator.cpp"
   1:src/testMemoryAllocator.cpp **** //
   2:src/testMemoryAllocator.cpp **** // Created by os on 5/29/23.
   3:src/testMemoryAllocator.cpp **** //
   4:src/testMemoryAllocator.cpp **** #include "../h/MemoryAllocator.hpp"
   5:src/testMemoryAllocator.cpp **** #include "../h/helper.hpp"
   6:src/testMemoryAllocator.cpp **** 
   7:src/testMemoryAllocator.cpp **** void testMemory() {
  26              		.loc 1 7 19
  27              		.cfi_startproc
  28 0000 130101FB 		addi	sp,sp,-80
  29              		.cfi_def_cfa_offset 80
  30 0004 23341104 		sd	ra,72(sp)
  31 0008 23308104 		sd	s0,64(sp)
  32 000c 233C9102 		sd	s1,56(sp)
  33              		.cfi_offset 1, -8
  34              		.cfi_offset 8, -16
  35              		.cfi_offset 9, -24
GAS LISTING /tmp/ccPZSv5c.s 			page 2


  36 0010 13040105 		addi	s0,sp,80
  37              		.cfi_def_cfa 8, 0
   8:src/testMemoryAllocator.cpp **** 	const int NumAllocations = 5;
  38              		.loc 1 8 2
  39              	.LVL0:
   9:src/testMemoryAllocator.cpp **** 	const int AllocationSize = 16;
  40              		.loc 1 9 2
  10:src/testMemoryAllocator.cpp **** 
  11:src/testMemoryAllocator.cpp **** 	// Allocate and initialize pointers
  12:src/testMemoryAllocator.cpp **** 	int* allocations[NumAllocations];
  41              		.loc 1 12 2
  13:src/testMemoryAllocator.cpp **** 	for (int i = 0; i < NumAllocations; ++i)
  42              		.loc 1 13 2
  43              	.LBB2:
  44              		.loc 1 13 11 is_stmt 0
  45 0014 93070000 		li	a5,0
  46              	.LVL1:
  47              	.L3:
  48              		.loc 1 13 20 is_stmt 1 discriminator 3
  49 0018 13074000 		li	a4,4
  50 001c 634EF700 		bgt	a5,a4,.L10
  14:src/testMemoryAllocator.cpp **** 		allocations[i] = nullptr;
  51              		.loc 1 14 3 discriminator 2
  52              		.loc 1 14 18 is_stmt 0 discriminator 2
  53 0020 13973700 		slli	a4,a5,3
  54 0024 930604FE 		addi	a3,s0,-32
  55 0028 3387E600 		add	a4,a3,a4
  56 002c 233C07FC 		sd	zero,-40(a4)
  13:src/testMemoryAllocator.cpp **** 	for (int i = 0; i < NumAllocations; ++i)
  57              		.loc 1 13 2 is_stmt 1 discriminator 2
  58 0030 9B871700 		addiw	a5,a5,1
  59              	.LVL2:
  60 0034 6FF05FFE 		j	.L3
  61              	.LVL3:
  62              	.L10:
  63              	.LBE2:
  64              	.LBB3:
  15:src/testMemoryAllocator.cpp **** 
  16:src/testMemoryAllocator.cpp **** 	// Allocate memory
  17:src/testMemoryAllocator.cpp **** 	for (int i = 0; i < NumAllocations; ++i) {
  65              		.loc 1 17 11 is_stmt 0
  66 0038 93040000 		li	s1,0
  67              	.LVL4:
  68              	.L2:
  69              		.loc 1 17 20 is_stmt 1 discriminator 1
  70 003c 93074000 		li	a5,4
  71 0040 63C29706 		bgt	s1,a5,.L4
  18:src/testMemoryAllocator.cpp **** 		allocations[i] = static_cast<int*>(MemoryAllocator::kmalloc(AllocationSize));
  72              		.loc 1 18 3
  73              		.loc 1 18 62 is_stmt 0
  74 0044 13050001 		li	a0,16
  75 0048 97000000 		call	_ZN15MemoryAllocator7kmallocEm@plt
  75      E7800000 
  76              	.LVL5:
  77              		.loc 1 18 18
  78 0050 93973400 		slli	a5,s1,3
  79 0054 130704FE 		addi	a4,s0,-32
GAS LISTING /tmp/ccPZSv5c.s 			page 3


  80 0058 B307F700 		add	a5,a4,a5
  81 005c 23BCA7FC 		sd	a0,-40(a5)
  19:src/testMemoryAllocator.cpp **** 		if (allocations[i] == nullptr) {
  82              		.loc 1 19 3 is_stmt 1
  83 0060 63040502 		beqz	a0,.L12
  20:src/testMemoryAllocator.cpp **** 			printString("\nAllocation failed for index ");
  21:src/testMemoryAllocator.cpp **** 			printInteger(i);
  22:src/testMemoryAllocator.cpp **** 			break;
  23:src/testMemoryAllocator.cpp **** 		}
  24:src/testMemoryAllocator.cpp **** 		printString("\nAllocated memory at index ");
  84              		.loc 1 24 3
  85              		.loc 1 24 14 is_stmt 0
  86 0064 17050000 		lla	a0,.LC1
  86      13050500 
  87 006c 97000000 		call	_Z11printStringPKc@plt
  87      E7800000 
  88              	.LVL6:
  25:src/testMemoryAllocator.cpp **** 		printInteger(i);
  89              		.loc 1 25 3 is_stmt 1
  90              		.loc 1 25 15 is_stmt 0
  91 0074 13850400 		mv	a0,s1
  92 0078 97000000 		call	_Z12printIntegerm@plt
  92      E7800000 
  93              	.LVL7:
  17:src/testMemoryAllocator.cpp **** 		allocations[i] = static_cast<int*>(MemoryAllocator::kmalloc(AllocationSize));
  94              		.loc 1 17 2 is_stmt 1
  95 0080 9B841400 		addiw	s1,s1,1
  96              	.LVL8:
  97 0084 6FF09FFB 		j	.L2
  98              	.LVL9:
  99              	.L12:
  20:src/testMemoryAllocator.cpp **** 			printString("\nAllocation failed for index ");
 100              		.loc 1 20 4
  20:src/testMemoryAllocator.cpp **** 			printString("\nAllocation failed for index ");
 101              		.loc 1 20 15 is_stmt 0
 102 0088 17050000 		lla	a0,.LC0
 102      13050500 
 103 0090 97000000 		call	_Z11printStringPKc@plt
 103      E7800000 
 104              	.LVL10:
  21:src/testMemoryAllocator.cpp **** 			break;
 105              		.loc 1 21 4 is_stmt 1
  21:src/testMemoryAllocator.cpp **** 			break;
 106              		.loc 1 21 16 is_stmt 0
 107 0098 13850400 		mv	a0,s1
 108 009c 97000000 		call	_Z12printIntegerm@plt
 108      E7800000 
 109              	.LVL11:
 110              	.L4:
  17:src/testMemoryAllocator.cpp **** 		allocations[i] = static_cast<int*>(MemoryAllocator::kmalloc(AllocationSize));
 111              		.loc 1 17 11 discriminator 1
 112 00a4 93040000 		li	s1,0
 113              	.LVL12:
 114 00a8 6F004002 		j	.L9
 115              	.LVL13:
 116              	.L8:
 117              	.LBE3:
GAS LISTING /tmp/ccPZSv5c.s 			page 4


 118              	.LBB4:
  26:src/testMemoryAllocator.cpp **** 	}
  27:src/testMemoryAllocator.cpp **** 
  28:src/testMemoryAllocator.cpp **** 	// Free memory
  29:src/testMemoryAllocator.cpp **** 	for (int i = 0; i < NumAllocations; ++i) {
  30:src/testMemoryAllocator.cpp **** 		if (allocations[i] != nullptr) {
  31:src/testMemoryAllocator.cpp **** 			if (MemoryAllocator::kfree(allocations[i]) == 0) {
  32:src/testMemoryAllocator.cpp **** 				allocations[i] = nullptr;
  33:src/testMemoryAllocator.cpp **** 				printString("\nFreed memory at index ");
  34:src/testMemoryAllocator.cpp **** 				printInteger(i);
  35:src/testMemoryAllocator.cpp **** 			} else {
  36:src/testMemoryAllocator.cpp **** 				printString("\nDeallocation failed for index ");
 119              		.loc 1 36 5 is_stmt 1
 120              		.loc 1 36 16 is_stmt 0
 121 00ac 17050000 		lla	a0,.LC3
 121      13050500 
 122 00b4 97000000 		call	_Z11printStringPKc@plt
 122      E7800000 
 123              	.LVL14:
  37:src/testMemoryAllocator.cpp **** 				printInteger(i);
 124              		.loc 1 37 5 is_stmt 1
 125              		.loc 1 37 17 is_stmt 0
 126 00bc 13850400 		mv	a0,s1
 127 00c0 97000000 		call	_Z12printIntegerm@plt
 127      E7800000 
 128              	.LVL15:
 129              	.L7:
  29:src/testMemoryAllocator.cpp **** 		if (allocations[i] != nullptr) {
 130              		.loc 1 29 2 is_stmt 1 discriminator 2
 131 00c8 9B841400 		addiw	s1,s1,1
 132              	.LVL16:
 133              	.L9:
  29:src/testMemoryAllocator.cpp **** 		if (allocations[i] != nullptr) {
 134              		.loc 1 29 20 discriminator 1
 135 00cc 93074000 		li	a5,4
 136 00d0 63CA9704 		bgt	s1,a5,.L1
  30:src/testMemoryAllocator.cpp **** 			if (MemoryAllocator::kfree(allocations[i]) == 0) {
 137              		.loc 1 30 3
  30:src/testMemoryAllocator.cpp **** 			if (MemoryAllocator::kfree(allocations[i]) == 0) {
 138              		.loc 1 30 20 is_stmt 0
 139 00d4 93973400 		slli	a5,s1,3
 140 00d8 130704FE 		addi	a4,s0,-32
 141 00dc B307F700 		add	a5,a4,a5
 142 00e0 03B587FD 		ld	a0,-40(a5)
  30:src/testMemoryAllocator.cpp **** 			if (MemoryAllocator::kfree(allocations[i]) == 0) {
 143              		.loc 1 30 3
 144 00e4 E30205FE 		beqz	a0,.L7
  31:src/testMemoryAllocator.cpp **** 				allocations[i] = nullptr;
 145              		.loc 1 31 4 is_stmt 1
  31:src/testMemoryAllocator.cpp **** 				allocations[i] = nullptr;
 146              		.loc 1 31 30 is_stmt 0
 147 00e8 97000000 		call	_ZN15MemoryAllocator5kfreeEPv@plt
 147      E7800000 
 148              	.LVL17:
  31:src/testMemoryAllocator.cpp **** 				allocations[i] = nullptr;
 149              		.loc 1 31 4
 150 00f0 E31E05FA 		bnez	a0,.L8
GAS LISTING /tmp/ccPZSv5c.s 			page 5


  32:src/testMemoryAllocator.cpp **** 				printString("\nFreed memory at index ");
 151              		.loc 1 32 5 is_stmt 1
  32:src/testMemoryAllocator.cpp **** 				printString("\nFreed memory at index ");
 152              		.loc 1 32 20 is_stmt 0
 153 00f4 93973400 		slli	a5,s1,3
 154 00f8 130704FE 		addi	a4,s0,-32
 155 00fc B307F700 		add	a5,a4,a5
 156 0100 23BC07FC 		sd	zero,-40(a5)
  33:src/testMemoryAllocator.cpp **** 				printInteger(i);
 157              		.loc 1 33 5 is_stmt 1
  33:src/testMemoryAllocator.cpp **** 				printInteger(i);
 158              		.loc 1 33 16 is_stmt 0
 159 0104 17050000 		lla	a0,.LC2
 159      13050500 
 160 010c 97000000 		call	_Z11printStringPKc@plt
 160      E7800000 
 161              	.LVL18:
  34:src/testMemoryAllocator.cpp **** 			} else {
 162              		.loc 1 34 5 is_stmt 1
  34:src/testMemoryAllocator.cpp **** 			} else {
 163              		.loc 1 34 17 is_stmt 0
 164 0114 13850400 		mv	a0,s1
 165 0118 97000000 		call	_Z12printIntegerm@plt
 165      E7800000 
 166              	.LVL19:
 167 0120 6FF09FFA 		j	.L7
 168              	.L1:
 169              	.LBE4:
  38:src/testMemoryAllocator.cpp **** 			}
  39:src/testMemoryAllocator.cpp **** 		}
  40:src/testMemoryAllocator.cpp **** 	}
  41:src/testMemoryAllocator.cpp **** }...
 170              		.loc 1 41 1
 171 0124 83308104 		ld	ra,72(sp)
 172              		.cfi_restore 1
 173 0128 03340104 		ld	s0,64(sp)
 174              		.cfi_restore 8
 175              		.cfi_def_cfa 2, 80
 176 012c 83348103 		ld	s1,56(sp)
 177              		.cfi_restore 9
 178              	.LVL20:
 179 0130 13010105 		addi	sp,sp,80
 180              		.cfi_def_cfa_offset 0
 181 0134 67800000 		jr	ra
 182              		.cfi_endproc
 183              	.LFE3:
 185              	.Letext0:
 186              		.file 2 "src/../h/../lib/hw.h"
 187              		.file 3 "src/../h/MemoryAllocator.hpp"
 188              		.file 4 "src/../h/helper.hpp"
GAS LISTING /tmp/ccPZSv5c.s 			page 6


DEFINED SYMBOLS
                            *ABS*:0000000000000000 testMemoryAllocator.cpp
     /tmp/ccPZSv5c.s:23     .text:0000000000000000 _Z10testMemoryv
     /tmp/ccPZSv5c.s:27     .text:0000000000000000 .L0 
     /tmp/ccPZSv5c.s:28     .text:0000000000000000 .L0 
     /tmp/ccPZSv5c.s:29     .text:0000000000000004 .L0 
     /tmp/ccPZSv5c.s:33     .text:0000000000000010 .L0 
     /tmp/ccPZSv5c.s:34     .text:0000000000000010 .L0 
     /tmp/ccPZSv5c.s:35     .text:0000000000000010 .L0 
     /tmp/ccPZSv5c.s:37     .text:0000000000000014 .L0 
     /tmp/ccPZSv5c.s:40     .text:0000000000000014 .L0 
     /tmp/ccPZSv5c.s:41     .text:0000000000000014 .L0 
     /tmp/ccPZSv5c.s:42     .text:0000000000000014 .L0 
     /tmp/ccPZSv5c.s:44     .text:0000000000000014 .L0 
     /tmp/ccPZSv5c.s:45     .text:0000000000000014 .L0 
     /tmp/ccPZSv5c.s:49     .text:0000000000000018 .L0 
     /tmp/ccPZSv5c.s:52     .text:0000000000000020 .L0 
     /tmp/ccPZSv5c.s:53     .text:0000000000000020 .L0 
     /tmp/ccPZSv5c.s:58     .text:0000000000000030 .L0 
     /tmp/ccPZSv5c.s:66     .text:0000000000000038 .L0 
     /tmp/ccPZSv5c.s:70     .text:000000000000003c .L0 
     /tmp/ccPZSv5c.s:73     .text:0000000000000044 .L0 
     /tmp/ccPZSv5c.s:74     .text:0000000000000044 .L0 
     /tmp/ccPZSv5c.s:78     .text:0000000000000050 .L0 
     /tmp/ccPZSv5c.s:83     .text:0000000000000060 .L0 
     /tmp/ccPZSv5c.s:85     .text:0000000000000064 .L0 
     /tmp/ccPZSv5c.s:86     .text:0000000000000064 .L0 
     /tmp/ccPZSv5c.s:90     .text:0000000000000074 .L0 
     /tmp/ccPZSv5c.s:91     .text:0000000000000074 .L0 
     /tmp/ccPZSv5c.s:95     .text:0000000000000080 .L0 
     /tmp/ccPZSv5c.s:101    .text:0000000000000088 .L0 
     /tmp/ccPZSv5c.s:102    .text:0000000000000088 .L0 
     /tmp/ccPZSv5c.s:106    .text:0000000000000098 .L0 
     /tmp/ccPZSv5c.s:107    .text:0000000000000098 .L0 
     /tmp/ccPZSv5c.s:112    .text:00000000000000a4 .L0 
     /tmp/ccPZSv5c.s:120    .text:00000000000000ac .L0 
     /tmp/ccPZSv5c.s:121    .text:00000000000000ac .L0 
     /tmp/ccPZSv5c.s:125    .text:00000000000000bc .L0 
     /tmp/ccPZSv5c.s:126    .text:00000000000000bc .L0 
     /tmp/ccPZSv5c.s:131    .text:00000000000000c8 .L0 
     /tmp/ccPZSv5c.s:135    .text:00000000000000cc .L0 
     /tmp/ccPZSv5c.s:138    .text:00000000000000d4 .L0 
     /tmp/ccPZSv5c.s:139    .text:00000000000000d4 .L0 
     /tmp/ccPZSv5c.s:144    .text:00000000000000e4 .L0 
     /tmp/ccPZSv5c.s:146    .text:00000000000000e8 .L0 
     /tmp/ccPZSv5c.s:147    .text:00000000000000e8 .L0 
     /tmp/ccPZSv5c.s:150    .text:00000000000000f0 .L0 
     /tmp/ccPZSv5c.s:152    .text:00000000000000f4 .L0 
     /tmp/ccPZSv5c.s:153    .text:00000000000000f4 .L0 
     /tmp/ccPZSv5c.s:158    .text:0000000000000104 .L0 
     /tmp/ccPZSv5c.s:159    .text:0000000000000104 .L0 
     /tmp/ccPZSv5c.s:163    .text:0000000000000114 .L0 
     /tmp/ccPZSv5c.s:164    .text:0000000000000114 .L0 
     /tmp/ccPZSv5c.s:171    .text:0000000000000124 .L0 
     /tmp/ccPZSv5c.s:172    .text:0000000000000128 .L0 
     /tmp/ccPZSv5c.s:174    .text:000000000000012c .L0 
     /tmp/ccPZSv5c.s:175    .text:000000000000012c .L0 
GAS LISTING /tmp/ccPZSv5c.s 			page 7


     /tmp/ccPZSv5c.s:177    .text:0000000000000130 .L0 
     /tmp/ccPZSv5c.s:180    .text:0000000000000134 .L0 
     /tmp/ccPZSv5c.s:182    .text:0000000000000138 .L0 
     /tmp/ccPZSv5c.s:189    .text:0000000000000138 .L0 
     /tmp/ccPZSv5c.s:11     .rodata.str1.8:0000000000000020 .LC1
     /tmp/ccPZSv5c.s:86     .text:0000000000000064 .L0 
     /tmp/ccPZSv5c.s:8      .rodata.str1.8:0000000000000000 .LC0
     /tmp/ccPZSv5c.s:102    .text:0000000000000088 .L0 
     /tmp/ccPZSv5c.s:17     .rodata.str1.8:0000000000000058 .LC3
     /tmp/ccPZSv5c.s:121    .text:00000000000000ac .L0 
     /tmp/ccPZSv5c.s:14     .rodata.str1.8:0000000000000040 .LC2
     /tmp/ccPZSv5c.s:159    .text:0000000000000104 .L0 
     /tmp/ccPZSv5c.s:62     .text:0000000000000038 .L10
     /tmp/ccPZSv5c.s:47     .text:0000000000000018 .L3
     /tmp/ccPZSv5c.s:110    .text:00000000000000a4 .L4
     /tmp/ccPZSv5c.s:99     .text:0000000000000088 .L12
     /tmp/ccPZSv5c.s:68     .text:000000000000003c .L2
     /tmp/ccPZSv5c.s:133    .text:00000000000000cc .L9
     /tmp/ccPZSv5c.s:168    .text:0000000000000124 .L1
     /tmp/ccPZSv5c.s:129    .text:00000000000000c8 .L7
     /tmp/ccPZSv5c.s:116    .text:00000000000000ac .L8
     /tmp/ccPZSv5c.s:666    .debug_abbrev:0000000000000000 .Ldebug_abbrev0
     /tmp/ccPZSv5c.s:1202   .debug_str:0000000000000126 .LASF37
     /tmp/ccPZSv5c.s:1214   .debug_str:000000000000024b .LASF38
     /tmp/ccPZSv5c.s:1232   .debug_str:00000000000002df .LASF39
     /tmp/ccPZSv5c.s:5      .text:0000000000000000 .Ltext0
     /tmp/ccPZSv5c.s:185    .text:0000000000000138 .Letext0
     /tmp/ccPZSv5c.s:1158   .debug_line:0000000000000000 .Ldebug_line0
     /tmp/ccPZSv5c.s:1208   .debug_str:0000000000000213 .LASF0
     /tmp/ccPZSv5c.s:1194   .debug_str:00000000000000e1 .LASF1
     /tmp/ccPZSv5c.s:1188   .debug_str:00000000000000b5 .LASF2
     /tmp/ccPZSv5c.s:1172   .debug_str:0000000000000049 .LASF4
     /tmp/ccPZSv5c.s:1192   .debug_str:00000000000000cf .LASF3
     /tmp/ccPZSv5c.s:1164   .debug_str:0000000000000023 .LASF5
     /tmp/ccPZSv5c.s:1160   .debug_str:0000000000000000 .LASF6
     /tmp/ccPZSv5c.s:1182   .debug_str:0000000000000080 .LASF7
     /tmp/ccPZSv5c.s:1220   .debug_str:0000000000000283 .LASF8
     /tmp/ccPZSv5c.s:1170   .debug_str:000000000000003b .LASF9
     /tmp/ccPZSv5c.s:1250   .debug_str:0000000000000383 .LASF10
     /tmp/ccPZSv5c.s:1184   .debug_str:0000000000000093 .LASF11
     /tmp/ccPZSv5c.s:1238   .debug_str:000000000000033c .LASF12
     /tmp/ccPZSv5c.s:1224   .debug_str:00000000000002a9 .LASF13
     /tmp/ccPZSv5c.s:1196   .debug_str:00000000000000f4 .LASF14
     /tmp/ccPZSv5c.s:1178   .debug_str:0000000000000064 .LASF15
     /tmp/ccPZSv5c.s:1222   .debug_str:0000000000000293 .LASF16
     /tmp/ccPZSv5c.s:1162   .debug_str:0000000000000013 .LASF40
     /tmp/ccPZSv5c.s:1230   .debug_str:00000000000002d0 .LASF20
     /tmp/ccPZSv5c.s:1166   .debug_str:000000000000002a .LASF17
     /tmp/ccPZSv5c.s:1246   .debug_str:0000000000000372 .LASF18
     /tmp/ccPZSv5c.s:1242   .debug_str:000000000000035e .LASF19
     /tmp/ccPZSv5c.s:1176   .debug_str:0000000000000055 .LASF21
     /tmp/ccPZSv5c.s:1198   .debug_str:0000000000000100 .LASF22
     /tmp/ccPZSv5c.s:1212   .debug_str:000000000000022c .LASF24
     /tmp/ccPZSv5c.s:1180   .debug_str:000000000000007a .LASF23
     /tmp/ccPZSv5c.s:1200   .debug_str:0000000000000108 .LASF25
     /tmp/ccPZSv5c.s:1204   .debug_str:00000000000001ea .LASF41
     /tmp/ccPZSv5c.s:1210   .debug_str:0000000000000220 .LASF26
GAS LISTING /tmp/ccPZSv5c.s 			page 8


     /tmp/ccPZSv5c.s:1168   .debug_str:000000000000002f .LASF27
     /tmp/ccPZSv5c.s:1190   .debug_str:00000000000000c3 .LASF28
     /tmp/ccPZSv5c.s:1236   .debug_str:0000000000000332 .LASF42
     /tmp/ccPZSv5c.s:1234   .debug_str:00000000000002fd .LASF43
     /tmp/ccPZSv5c.s:1174   .debug_str:0000000000000050 .LASF29
     /tmp/ccPZSv5c.s:1226   .debug_str:00000000000002b9 .LASF44
     /tmp/ccPZSv5c.s:1206   .debug_str:0000000000000203 .LASF45
     /tmp/ccPZSv5c.s:24     .text:0000000000000000 .LFB3
     /tmp/ccPZSv5c.s:183    .text:0000000000000138 .LFE3
     /tmp/ccPZSv5c.s:1216   .debug_str:0000000000000267 .LASF30
     /tmp/ccPZSv5c.s:1244   .debug_str:0000000000000363 .LASF31
     /tmp/ccPZSv5c.s:1228   .debug_str:00000000000002c4 .LASF32
     /tmp/ccPZSv5c.s:43     .text:0000000000000014 .LBB2
     /tmp/ccPZSv5c.s:63     .text:0000000000000038 .LBE2
     /tmp/ccPZSv5c.s:1111   .debug_loc:0000000000000000 .LLST0
     /tmp/ccPZSv5c.s:64     .text:0000000000000038 .LBB3
     /tmp/ccPZSv5c.s:117    .text:00000000000000ac .LBE3
     /tmp/ccPZSv5c.s:1127   .debug_loc:000000000000004a .LLST1
     /tmp/ccPZSv5c.s:76     .text:0000000000000050 .LVL5
     /tmp/ccPZSv5c.s:88     .text:0000000000000074 .LVL6
     /tmp/ccPZSv5c.s:93     .text:0000000000000080 .LVL7
     /tmp/ccPZSv5c.s:104    .text:0000000000000098 .LVL10
     /tmp/ccPZSv5c.s:109    .text:00000000000000a4 .LVL11
     /tmp/ccPZSv5c.s:118    .text:00000000000000ac .LBB4
     /tmp/ccPZSv5c.s:169    .text:0000000000000124 .LBE4
     /tmp/ccPZSv5c.s:1138   .debug_loc:0000000000000080 .LLST2
     /tmp/ccPZSv5c.s:123    .text:00000000000000bc .LVL14
     /tmp/ccPZSv5c.s:128    .text:00000000000000c8 .LVL15
     /tmp/ccPZSv5c.s:148    .text:00000000000000f0 .LVL17
     /tmp/ccPZSv5c.s:161    .text:0000000000000114 .LVL18
     /tmp/ccPZSv5c.s:166    .text:0000000000000120 .LVL19
     /tmp/ccPZSv5c.s:1186   .debug_str:00000000000000a2 .LASF33
     /tmp/ccPZSv5c.s:1248   .debug_str:0000000000000377 .LASF35
     /tmp/ccPZSv5c.s:1240   .debug_str:000000000000034c .LASF34
     /tmp/ccPZSv5c.s:1218   .debug_str:0000000000000276 .LASF36
     /tmp/ccPZSv5c.s:39     .text:0000000000000014 .LVL0
     /tmp/ccPZSv5c.s:46     .text:0000000000000018 .LVL1
     /tmp/ccPZSv5c.s:59     .text:0000000000000034 .LVL2
     /tmp/ccPZSv5c.s:61     .text:0000000000000038 .LVL3
     /tmp/ccPZSv5c.s:67     .text:000000000000003c .LVL4
     /tmp/ccPZSv5c.s:96     .text:0000000000000084 .LVL8
     /tmp/ccPZSv5c.s:98     .text:0000000000000088 .LVL9
     /tmp/ccPZSv5c.s:113    .text:00000000000000a8 .LVL12
     /tmp/ccPZSv5c.s:115    .text:00000000000000ac .LVL13
     /tmp/ccPZSv5c.s:178    .text:0000000000000130 .LVL20
     /tmp/ccPZSv5c.s:190    .debug_info:0000000000000000 .Ldebug_info0

UNDEFINED SYMBOLS
_ZN15MemoryAllocator7kmallocEm
_Z11printStringPKc
_Z12printIntegerm
_ZN15MemoryAllocator5kfreeEPv
