GAS LISTING /tmp/cckaTGtK.s 			page 1


   1              		.file	"testcpp.cpp"
   2              		.option pic
   3              		.option norelax
   4              		.text
   5              	.Ltext0:
   6              		.section	.rodata.str1.8,"aMS",@progbits,1
   7              		.align	3
   8              	.LC0:
   9 0000 0A476F74 		.string	"\nGotova nit 1\n"
   9      6F766120 
   9      6E697420 
   9      310A00
  10              		.text
  11              		.align	2
  12              		.globl	_Z2f1Pv
  14              	_Z2f1Pv:
  15              	.LFB2:
  16              		.file 1 "src/testcpp.cpp"
   1:src/testcpp.cpp **** //
   2:src/testcpp.cpp **** // Created by os on 6/27/23.
   3:src/testcpp.cpp **** //
   4:src/testcpp.cpp **** #include "../h/syscall_c.hpp"
   5:src/testcpp.cpp **** #include "../h/syscall_cpp.hpp"
   6:src/testcpp.cpp **** 
   7:src/testcpp.cpp **** #include "../test/printing.hpp"
   8:src/testcpp.cpp **** 
   9:src/testcpp.cpp **** Semaphore* s12,*s23,*s31;
  10:src/testcpp.cpp **** Thread* nit1, *nit2, *nit3;
  11:src/testcpp.cpp **** 
  12:src/testcpp.cpp **** 
  13:src/testcpp.cpp **** void f1(void* end) {
  17              		.loc 1 13 20
  18              		.cfi_startproc
  19              	.LVL0:
  20 0000 130101FE 		addi	sp,sp,-32
  21              		.cfi_def_cfa_offset 32
  22 0004 233C1100 		sd	ra,24(sp)
  23 0008 23388100 		sd	s0,16(sp)
  24 000c 23349100 		sd	s1,8(sp)
  25              		.cfi_offset 1, -8
  26              		.cfi_offset 8, -16
  27              		.cfi_offset 9, -24
  28 0010 13040102 		addi	s0,sp,32
  29              		.cfi_def_cfa 8, 0
  14:src/testcpp.cpp ****     s31->wait();
  30              		.loc 1 14 5
  31              		.loc 1 14 14 is_stmt 0
  32 0014 97040000 		lla	s1,.LANCHOR0
  32      93840400 
  33 001c 03B50400 		ld	a0,0(s1)
  34              	.LVL1:
  35 0020 97000000 		call	_ZN9Semaphore4waitEv@plt
  35      E7800000 
  36              	.LVL2:
  15:src/testcpp.cpp ****     time_sleep(10);
  37              		.loc 1 15 5 is_stmt 1
  38              		.loc 1 15 15 is_stmt 0
GAS LISTING /tmp/cckaTGtK.s 			page 2


  39 0028 1305A000 		li	a0,10
  40 002c 97000000 		call	_Z10time_sleepm@plt
  40      E7800000 
  41              	.LVL3:
  16:src/testcpp.cpp ****     delete nit2;
  42              		.loc 1 16 5 is_stmt 1
  43              		.loc 1 16 12 is_stmt 0
  44 0034 03B58400 		ld	a0,8(s1)
  45              		.loc 1 16 16
  46 0038 63080500 		beqz	a0,.L2
  47              		.loc 1 16 12 discriminator 1
  48 003c 83370500 		ld	a5,0(a0)
  49 0040 83B78700 		ld	a5,8(a5)
  50 0044 E7800700 		jalr	a5
  51              	.LVL4:
  52              	.L2:
  17:src/testcpp.cpp ****     s31->wait();
  53              		.loc 1 17 5 is_stmt 1
  54              		.loc 1 17 14 is_stmt 0
  55 0048 17050000 		ld	a0,.LANCHOR0
  55      03350500 
  56 0050 97000000 		call	_ZN9Semaphore4waitEv@plt
  56      E7800000 
  57              	.LVL5:
  18:src/testcpp.cpp **** 
  19:src/testcpp.cpp **** 
  20:src/testcpp.cpp ****     printString("\nGotova nit 1\n");
  58              		.loc 1 20 5 is_stmt 1
  59              		.loc 1 20 16 is_stmt 0
  60 0058 17050000 		lla	a0,.LC0
  60      13050500 
  61 0060 97000000 		call	_Z11printStringPKc@plt
  61      E7800000 
  62              	.LVL6:
  21:src/testcpp.cpp **** }
  63              		.loc 1 21 1
  64 0068 83308101 		ld	ra,24(sp)
  65              		.cfi_restore 1
  66 006c 03340101 		ld	s0,16(sp)
  67              		.cfi_restore 8
  68              		.cfi_def_cfa 2, 32
  69 0070 83348100 		ld	s1,8(sp)
  70              		.cfi_restore 9
  71 0074 13010102 		addi	sp,sp,32
  72              		.cfi_def_cfa_offset 0
  73 0078 67800000 		jr	ra
  74              		.cfi_endproc
  75              	.LFE2:
  77              		.section	.rodata.str1.8
  78 000f 00       		.align	3
  79              	.LC1:
  80 0010 0A476F74 		.string	"\nGotova nit 2\n"
  80      6F766120 
  80      6E697420 
  80      320A00
  81              		.text
  82              		.align	2
GAS LISTING /tmp/cckaTGtK.s 			page 3


  83              		.globl	_Z2f2Pv
  85              	_Z2f2Pv:
  86              	.LFB3:
  22:src/testcpp.cpp **** 
  23:src/testcpp.cpp **** 
  24:src/testcpp.cpp **** void f2(void* end ) {
  87              		.loc 1 24 21 is_stmt 1
  88              		.cfi_startproc
  89              	.LVL7:
  90 007c 130101FF 		addi	sp,sp,-16
  91              		.cfi_def_cfa_offset 16
  92 0080 23341100 		sd	ra,8(sp)
  93 0084 23308100 		sd	s0,0(sp)
  94              		.cfi_offset 1, -8
  95              		.cfi_offset 8, -16
  96 0088 13040101 		addi	s0,sp,16
  97              		.cfi_def_cfa 8, 0
  25:src/testcpp.cpp ****     time_sleep(5);
  98              		.loc 1 25 5
  99              		.loc 1 25 15 is_stmt 0
 100 008c 13055000 		li	a0,5
 101              	.LVL8:
 102 0090 97000000 		call	_Z10time_sleepm@plt
 102      E7800000 
 103              	.LVL9:
  26:src/testcpp.cpp ****     s31->wait();
 104              		.loc 1 26 5 is_stmt 1
 105              		.loc 1 26 14 is_stmt 0
 106 0098 17050000 		ld	a0,.LANCHOR0
 106      03350500 
 107 00a0 97000000 		call	_ZN9Semaphore4waitEv@plt
 107      E7800000 
 108              	.LVL10:
  27:src/testcpp.cpp **** 
  28:src/testcpp.cpp **** 
  29:src/testcpp.cpp ****     printString("\nGotova nit 2\n");
 109              		.loc 1 29 5 is_stmt 1
 110              		.loc 1 29 16 is_stmt 0
 111 00a8 17050000 		lla	a0,.LC1
 111      13050500 
 112 00b0 97000000 		call	_Z11printStringPKc@plt
 112      E7800000 
 113              	.LVL11:
  30:src/testcpp.cpp **** }
 114              		.loc 1 30 1
 115 00b8 83308100 		ld	ra,8(sp)
 116              		.cfi_restore 1
 117 00bc 03340100 		ld	s0,0(sp)
 118              		.cfi_restore 8
 119              		.cfi_def_cfa 2, 16
 120 00c0 13010101 		addi	sp,sp,16
 121              		.cfi_def_cfa_offset 0
 122 00c4 67800000 		jr	ra
 123              		.cfi_endproc
 124              	.LFE3:
 126              		.section	.rodata.str1.8
 127 001f 00       		.align	3
GAS LISTING /tmp/cckaTGtK.s 			page 4


 128              	.LC2:
 129 0020 0A476F74 		.string	"\nGotova nit3\n"
 129      6F766120 
 129      6E697433 
 129      0A00
 130              		.text
 131              		.align	2
 132              		.globl	_Z2f3Pv
 134              	_Z2f3Pv:
 135              	.LFB4:
  31:src/testcpp.cpp **** 
  32:src/testcpp.cpp **** 
  33:src/testcpp.cpp **** void f3(void* end) {
 136              		.loc 1 33 20 is_stmt 1
 137              		.cfi_startproc
 138              	.LVL12:
 139 00c8 130101FF 		addi	sp,sp,-16
 140              		.cfi_def_cfa_offset 16
 141 00cc 23341100 		sd	ra,8(sp)
 142 00d0 23308100 		sd	s0,0(sp)
 143              		.cfi_offset 1, -8
 144              		.cfi_offset 8, -16
 145 00d4 13040101 		addi	s0,sp,16
 146              		.cfi_def_cfa 8, 0
  34:src/testcpp.cpp ****     time_sleep(30);
 147              		.loc 1 34 5
 148              		.loc 1 34 15 is_stmt 0
 149 00d8 1305E001 		li	a0,30
 150              	.LVL13:
 151 00dc 97000000 		call	_Z10time_sleepm@plt
 151      E7800000 
 152              	.LVL14:
  35:src/testcpp.cpp ****     s31->signal();
 153              		.loc 1 35 5 is_stmt 1
 154              		.loc 1 35 16 is_stmt 0
 155 00e4 17050000 		ld	a0,.LANCHOR0
 155      03350500 
 156 00ec 97000000 		call	_ZN9Semaphore6signalEv@plt
 156      E7800000 
 157              	.LVL15:
  36:src/testcpp.cpp **** 
  37:src/testcpp.cpp ****     printString("\nGotova nit3\n");
 158              		.loc 1 37 5 is_stmt 1
 159              		.loc 1 37 16 is_stmt 0
 160 00f4 17050000 		lla	a0,.LC2
 160      13050500 
 161 00fc 97000000 		call	_Z11printStringPKc@plt
 161      E7800000 
 162              	.LVL16:
  38:src/testcpp.cpp **** }
 163              		.loc 1 38 1
 164 0104 83308100 		ld	ra,8(sp)
 165              		.cfi_restore 1
 166 0108 03340100 		ld	s0,0(sp)
 167              		.cfi_restore 8
 168              		.cfi_def_cfa 2, 16
 169 010c 13010101 		addi	sp,sp,16
GAS LISTING /tmp/cckaTGtK.s 			page 5


 170              		.cfi_def_cfa_offset 0
 171 0110 67800000 		jr	ra
 172              		.cfi_endproc
 173              	.LFE4:
 175              		.section	.rodata._ZN5timer18periodicActivationEv.str1.8,"aMS",@progbits,1
 176              		.align	3
 177              	.LC3:
 178 0000 54616A6D 		.string	"Tajmer: "
 178      65723A20 
 178      00
 179 0009 00000000 		.align	3
 179      000000
 180              	.LC4:
 181 0010 0A00     		.string	"\n"
 182              		.section	.text._ZN5timer18periodicActivationEv,"axG",@progbits,_ZN5timer18periodicActivationEv,com
 183              		.align	2
 184              		.weak	_ZN5timer18periodicActivationEv
 186              	_ZN5timer18periodicActivationEv:
 187              	.LFB16:
  39:src/testcpp.cpp **** 
  40:src/testcpp.cpp **** class pt:public PeriodicThread{
  41:src/testcpp.cpp **** public:
  42:src/testcpp.cpp ****     time_t period;
  43:src/testcpp.cpp ****     int counter = 5;
  44:src/testcpp.cpp ****     explicit pt(time_t p): PeriodicThread(p),period(p){}
  45:src/testcpp.cpp ****     void periodicActivation() override{
  46:src/testcpp.cpp ****         printString("Janko ");
  47:src/testcpp.cpp ****         sleep(period);
  48:src/testcpp.cpp ****         printInt(period);
  49:src/testcpp.cpp ****         printString("\n");
  50:src/testcpp.cpp ****         if(--counter==0)terminate();
  51:src/testcpp.cpp ****     }
  52:src/testcpp.cpp **** };
  53:src/testcpp.cpp **** class timer:public PeriodicThread{
  54:src/testcpp.cpp **** public:
  55:src/testcpp.cpp ****     int counter = 0;
  56:src/testcpp.cpp ****     explicit timer(): PeriodicThread(1){}
  57:src/testcpp.cpp ****     void periodicActivation() override{
 188              		.loc 1 57 10 is_stmt 1
 189              		.cfi_startproc
 190              	.LVL17:
 191 0000 130101FE 		addi	sp,sp,-32
 192              		.cfi_def_cfa_offset 32
 193 0004 233C1100 		sd	ra,24(sp)
 194 0008 23388100 		sd	s0,16(sp)
 195 000c 23349100 		sd	s1,8(sp)
 196              		.cfi_offset 1, -8
 197              		.cfi_offset 8, -16
 198              		.cfi_offset 9, -24
 199 0010 13040102 		addi	s0,sp,32
 200              		.cfi_def_cfa 8, 0
 201 0014 93040500 		mv	s1,a0
  58:src/testcpp.cpp ****         printString("Tajmer: ");
 202              		.loc 1 58 9
 203              		.loc 1 58 20 is_stmt 0
 204 0018 17050000 		lla	a0,.LC3
 204      13050500 
GAS LISTING /tmp/cckaTGtK.s 			page 6


 205              	.LVL18:
 206 0020 97000000 		call	_Z11printStringPKc@plt
 206      E7800000 
 207              	.LVL19:
  59:src/testcpp.cpp ****         printInt(counter++);
 208              		.loc 1 59 9 is_stmt 1
 209              		.loc 1 59 18 is_stmt 0
 210 0028 03A58402 		lw	a0,40(s1)
 211              		.loc 1 59 17
 212 002c 9B071500 		addiw	a5,a0,1
 213 0030 23A4F402 		sw	a5,40(s1)
 214 0034 13060000 		li	a2,0
 215 0038 9305A000 		li	a1,10
 216 003c 97000000 		call	_Z8printIntiii@plt
 216      E7800000 
 217              	.LVL20:
  60:src/testcpp.cpp ****         printString("\n");
 218              		.loc 1 60 9 is_stmt 1
 219              		.loc 1 60 20 is_stmt 0
 220 0044 17050000 		lla	a0,.LC4
 220      13050500 
 221 004c 97000000 		call	_Z11printStringPKc@plt
 221      E7800000 
 222              	.LVL21:
  61:src/testcpp.cpp ****     }
 223              		.loc 1 61 5
 224 0054 83308101 		ld	ra,24(sp)
 225              		.cfi_restore 1
 226 0058 03340101 		ld	s0,16(sp)
 227              		.cfi_restore 8
 228              		.cfi_def_cfa 2, 32
 229 005c 83348100 		ld	s1,8(sp)
 230              		.cfi_restore 9
 231              	.LVL22:
 232 0060 13010102 		addi	sp,sp,32
 233              		.cfi_def_cfa_offset 0
 234 0064 67800000 		jr	ra
 235              		.cfi_endproc
 236              	.LFE16:
 238              		.section	.text._ZN5timerD2Ev,"axG",@progbits,_ZN5timerD5Ev,comdat
 239              		.align	2
 240              		.weak	_ZN5timerD2Ev
 242              	_ZN5timerD2Ev:
 243              	.LFB19:
  53:src/testcpp.cpp **** public:
 244              		.loc 1 53 7 is_stmt 1
 245              		.cfi_startproc
 246              	.LVL23:
 247 0000 130101FF 		addi	sp,sp,-16
 248              		.cfi_def_cfa_offset 16
 249 0004 23341100 		sd	ra,8(sp)
 250 0008 23308100 		sd	s0,0(sp)
 251              		.cfi_offset 1, -8
 252              		.cfi_offset 8, -16
 253 000c 13040101 		addi	s0,sp,16
 254              		.cfi_def_cfa 8, 0
 255              	.LVL24:
GAS LISTING /tmp/cckaTGtK.s 			page 7


 256              	.LBB17:
 257              	.LBB18:
 258              		.file 2 "src/../h/syscall_cpp.hpp"
   1:src/../h/syscall_cpp.hpp **** #ifndef _syscall_cpp
   2:src/../h/syscall_cpp.hpp **** #define _syscall_cpp
   3:src/../h/syscall_cpp.hpp **** 
   4:src/../h/syscall_cpp.hpp **** #include "../lib/hw.h"
   5:src/../h/syscall_cpp.hpp **** 
   6:src/../h/syscall_cpp.hpp **** void* operator new(size_t);
   7:src/../h/syscall_cpp.hpp **** 
   8:src/../h/syscall_cpp.hpp **** void* operator new[](size_t);
   9:src/../h/syscall_cpp.hpp **** 
  10:src/../h/syscall_cpp.hpp **** void operator delete(void*)
  11:src/../h/syscall_cpp.hpp **** 
  12:src/../h/syscall_cpp.hpp **** noexcept;
  13:src/../h/syscall_cpp.hpp **** 
  14:src/../h/syscall_cpp.hpp **** void operator delete[](void*)
  15:src/../h/syscall_cpp.hpp **** 
  16:src/../h/syscall_cpp.hpp **** noexcept;
  17:src/../h/syscall_cpp.hpp **** 
  18:src/../h/syscall_cpp.hpp **** class TCB;
  19:src/../h/syscall_cpp.hpp **** 
  20:src/../h/syscall_cpp.hpp **** typedef TCB* thread_t;
  21:src/../h/syscall_cpp.hpp **** 
  22:src/../h/syscall_cpp.hpp **** class KSem;
  23:src/../h/syscall_cpp.hpp **** 
  24:src/../h/syscall_cpp.hpp **** typedef KSem* sem_t;
  25:src/../h/syscall_cpp.hpp **** 
  26:src/../h/syscall_cpp.hpp **** class Thread {
  27:src/../h/syscall_cpp.hpp **** public:
  28:src/../h/syscall_cpp.hpp ****     //konstruktor koji pravi nit koja izvrsava zadatu funkciju sa zadatim argumentima, ne pokrece n
  29:src/../h/syscall_cpp.hpp ****     Thread(void (* body)(void*), void* arg);
  30:src/../h/syscall_cpp.hpp **** 
  31:src/../h/syscall_cpp.hpp ****     virtual ~Thread();
  32:src/../h/syscall_cpp.hpp **** 
  33:src/../h/syscall_cpp.hpp ****     //stavlja nit u Scheduler
  34:src/../h/syscall_cpp.hpp ****     int start();
  35:src/../h/syscall_cpp.hpp **** 
  36:src/../h/syscall_cpp.hpp ****     //pozivajuca (running) nit se suspenduje dok se nit ciji se metod poziva(this) ne zavrsi
  37:src/../h/syscall_cpp.hpp ****     void join();
  38:src/../h/syscall_cpp.hpp **** 
  39:src/../h/syscall_cpp.hpp ****     //sinhrona promena konteksta
  40:src/../h/syscall_cpp.hpp ****     static void dispatch();
  41:src/../h/syscall_cpp.hpp **** 
  42:src/../h/syscall_cpp.hpp ****     //uspavljuje tekucu nit na zadati period
  43:src/../h/syscall_cpp.hpp ****     static int sleep(time_t);
  44:src/../h/syscall_cpp.hpp **** 
  45:src/../h/syscall_cpp.hpp **** protected:
  46:src/../h/syscall_cpp.hpp ****     //konstruktor koji pravi nit koja izvrsava run metodu, ne stavlja je u Scheduler
  47:src/../h/syscall_cpp.hpp ****     Thread();
  48:src/../h/syscall_cpp.hpp **** 
  49:src/../h/syscall_cpp.hpp ****     //funkcija koju nit izvrsava, samo ako je nit napravljena podrazumevanim konstruktorom
  50:src/../h/syscall_cpp.hpp ****     virtual void run() {}
  51:src/../h/syscall_cpp.hpp **** 
  52:src/../h/syscall_cpp.hpp **** private:
  53:src/../h/syscall_cpp.hpp ****     //pokazivac na TCB strukturu kernela
  54:src/../h/syscall_cpp.hpp ****     thread_t myHandle;
GAS LISTING /tmp/cckaTGtK.s 			page 8


  55:src/../h/syscall_cpp.hpp **** 
  56:src/../h/syscall_cpp.hpp ****     void (* body)(void*);
  57:src/../h/syscall_cpp.hpp **** 
  58:src/../h/syscall_cpp.hpp ****     void* arg;
  59:src/../h/syscall_cpp.hpp **** 
  60:src/../h/syscall_cpp.hpp ****     static void wrapper(void* thread);
  61:src/../h/syscall_cpp.hpp **** };
  62:src/../h/syscall_cpp.hpp **** 
  63:src/../h/syscall_cpp.hpp **** 
  64:src/../h/syscall_cpp.hpp **** class Semaphore {
  65:src/../h/syscall_cpp.hpp **** public:
  66:src/../h/syscall_cpp.hpp **** 
  67:src/../h/syscall_cpp.hpp ****     Semaphore(unsigned init = 1);
  68:src/../h/syscall_cpp.hpp **** 
  69:src/../h/syscall_cpp.hpp ****     virtual ~Semaphore();
  70:src/../h/syscall_cpp.hpp **** 
  71:src/../h/syscall_cpp.hpp ****     int wait();
  72:src/../h/syscall_cpp.hpp **** 
  73:src/../h/syscall_cpp.hpp ****     int signal();
  74:src/../h/syscall_cpp.hpp **** 
  75:src/../h/syscall_cpp.hpp **** private:
  76:src/../h/syscall_cpp.hpp ****     sem_t myHandle;
  77:src/../h/syscall_cpp.hpp **** };
  78:src/../h/syscall_cpp.hpp **** 
  79:src/../h/syscall_cpp.hpp **** 
  80:src/../h/syscall_cpp.hpp **** class PeriodicThread : public Thread {
 259              		.loc 2 80 7 is_stmt 0
 260 0010 97070000 		la	a5,_ZTV14PeriodicThread
 260      83B70700 
 261 0018 93870701 		addi	a5,a5,16
 262 001c 2330F500 		sd	a5,0(a0)
 263 0020 97000000 		call	_ZN6ThreadD2Ev@plt
 263      E7800000 
 264              	.LVL25:
 265              	.LBE18:
 266              	.LBE17:
  53:src/testcpp.cpp **** public:
 267              		.loc 1 53 7
 268 0028 83308100 		ld	ra,8(sp)
 269              		.cfi_restore 1
 270 002c 03340100 		ld	s0,0(sp)
 271              		.cfi_restore 8
 272              		.cfi_def_cfa 2, 16
 273 0030 13010101 		addi	sp,sp,16
 274              		.cfi_def_cfa_offset 0
 275 0034 67800000 		jr	ra
 276              		.cfi_endproc
 277              	.LFE19:
 279              		.weak	_ZN5timerD1Ev
 280              		.set	_ZN5timerD1Ev,_ZN5timerD2Ev
 281              		.section	.text._ZN5timerD0Ev,"axG",@progbits,_ZN5timerD5Ev,comdat
 282              		.align	2
 283              		.weak	_ZN5timerD0Ev
 285              	_ZN5timerD0Ev:
 286              	.LFB21:
  53:src/testcpp.cpp **** public:
 287              		.loc 1 53 7 is_stmt 1
GAS LISTING /tmp/cckaTGtK.s 			page 9


 288              		.cfi_startproc
 289              	.LVL26:
 290 0000 130101FE 		addi	sp,sp,-32
 291              		.cfi_def_cfa_offset 32
 292 0004 233C1100 		sd	ra,24(sp)
 293 0008 23388100 		sd	s0,16(sp)
 294 000c 23349100 		sd	s1,8(sp)
 295              		.cfi_offset 1, -8
 296              		.cfi_offset 8, -16
 297              		.cfi_offset 9, -24
 298 0010 13040102 		addi	s0,sp,32
 299              		.cfi_def_cfa 8, 0
 300 0014 93040500 		mv	s1,a0
 301              	.LVL27:
 302              	.LBB19:
 303              	.LBB20:
 304              	.LBB21:
 305              		.loc 2 80 7 is_stmt 0
 306 0018 97070000 		la	a5,_ZTV14PeriodicThread
 306      83B70700 
 307 0020 93870701 		addi	a5,a5,16
 308 0024 2330F500 		sd	a5,0(a0)
 309 0028 97000000 		call	_ZN6ThreadD2Ev@plt
 309      E7800000 
 310              	.LVL28:
 311              	.LBE21:
 312              	.LBE20:
 313              	.LBE19:
  53:src/testcpp.cpp **** public:
 314              		.loc 1 53 7
 315 0030 13850400 		mv	a0,s1
 316 0034 97000000 		call	_ZdlPv@plt
 316      E7800000 
 317              	.LVL29:
 318 003c 83308101 		ld	ra,24(sp)
 319              		.cfi_restore 1
 320 0040 03340101 		ld	s0,16(sp)
 321              		.cfi_restore 8
 322              		.cfi_def_cfa 2, 32
 323 0044 83348100 		ld	s1,8(sp)
 324              		.cfi_restore 9
 325              	.LVL30:
 326 0048 13010102 		addi	sp,sp,32
 327              		.cfi_def_cfa_offset 0
 328 004c 67800000 		jr	ra
 329              		.cfi_endproc
 330              	.LFE21:
 332              		.section	.rodata.str1.8
 333 002e 0000     		.align	3
 334              	.LC5:
 335 0030 0A476F74 		.string	"\nGotove user niti\n"
 335      6F766520 
 335      75736572 
 335      206E6974 
 335      690A00
 336 0043 00000000 		.align	3
 336      00
GAS LISTING /tmp/cckaTGtK.s 			page 10


 337              	.LC6:
 338 0048 0A536164 		.string	"\nSad cu da izadjem iz usera\n"
 338      20637520 
 338      64612069 
 338      7A61646A 
 338      656D2069 
 339              		.text
 340              		.align	2
 341              		.globl	_Z4userPv
 343              	_Z4userPv:
 344              	.LFB17:
  62:src/testcpp.cpp **** };
  63:src/testcpp.cpp **** void user(void*) {
 345              		.loc 1 63 18 is_stmt 1
 346              		.cfi_startproc
 347              		.cfi_personality 0x9b,DW.ref.__gxx_personality_v0
 348              		.cfi_lsda 0x1b,.LLSDA17
 349 0114 130101FC 		addi	sp,sp,-64
 350              		.cfi_def_cfa_offset 64
 351 0118 233C1102 		sd	ra,56(sp)
 352 011c 23388102 		sd	s0,48(sp)
 353 0120 23349102 		sd	s1,40(sp)
 354 0124 23302103 		sd	s2,32(sp)
 355 0128 233C3101 		sd	s3,24(sp)
 356              		.cfi_offset 1, -8
 357              		.cfi_offset 8, -16
 358              		.cfi_offset 9, -24
 359              		.cfi_offset 18, -32
 360              		.cfi_offset 19, -40
 361 012c 13040104 		addi	s0,sp,64
 362              		.cfi_def_cfa 8, 0
  64:src/testcpp.cpp ****     int end = 0;
 363              		.loc 1 64 5
 364              		.loc 1 64 9 is_stmt 0
 365 0130 232604FC 		sw	zero,-52(s0)
  65:src/testcpp.cpp ****     nit1 = new Thread(f1, &end);
 366              		.loc 1 65 5 is_stmt 1
 367              		.loc 1 65 31 is_stmt 0
 368 0134 13050002 		li	a0,32
 369              	.LEHB0:
 370 0138 97000000 		call	_Znwm@plt
 370      E7800000 
 371              	.LVL31:
 372              	.LEHE0:
 373 0140 93040500 		mv	s1,a0
 374 0144 1306C4FC 		addi	a2,s0,-52
 375 0148 97050000 		lla	a1,_Z2f1Pv
 375      93850500 
 376              	.LEHB1:
 377 0150 97000000 		call	_ZN6ThreadC1EPFvPvES0_@plt
 377      E7800000 
 378              	.LVL32:
 379              	.LEHE1:
 380              		.loc 1 65 10 discriminator 3
 381 0158 97070000 		sd	s1,.LANCHOR0+16,a5
 381      23B09700 
  66:src/testcpp.cpp ****     nit2 = new Thread(f2, &end);
GAS LISTING /tmp/cckaTGtK.s 			page 11


 382              		.loc 1 66 5 is_stmt 1 discriminator 3
 383              		.loc 1 66 31 is_stmt 0 discriminator 3
 384 0160 13050002 		li	a0,32
 385              	.LEHB2:
 386 0164 97000000 		call	_Znwm@plt
 386      E7800000 
 387              	.LVL33:
 388              	.LEHE2:
 389 016c 93040500 		mv	s1,a0
 390 0170 1306C4FC 		addi	a2,s0,-52
 391 0174 97050000 		lla	a1,_Z2f2Pv
 391      93850500 
 392              	.LEHB3:
 393 017c 97000000 		call	_ZN6ThreadC1EPFvPvES0_@plt
 393      E7800000 
 394              	.LVL34:
 395              	.LEHE3:
 396              		.loc 1 66 10 discriminator 3
 397 0184 97070000 		sd	s1,.LANCHOR0+8,a5
 397      23B09700 
  67:src/testcpp.cpp ****     nit3 = new Thread(f3, &end);
 398              		.loc 1 67 5 is_stmt 1 discriminator 3
 399              		.loc 1 67 31 is_stmt 0 discriminator 3
 400 018c 13050002 		li	a0,32
 401              	.LEHB4:
 402 0190 97000000 		call	_Znwm@plt
 402      E7800000 
 403              	.LVL35:
 404              	.LEHE4:
 405 0198 93040500 		mv	s1,a0
 406 019c 1306C4FC 		addi	a2,s0,-52
 407 01a0 97050000 		lla	a1,_Z2f3Pv
 407      93850500 
 408              	.LEHB5:
 409 01a8 97000000 		call	_ZN6ThreadC1EPFvPvES0_@plt
 409      E7800000 
 410              	.LVL36:
 411              	.LEHE5:
 412              		.loc 1 67 10 discriminator 3
 413 01b0 97070000 		sd	s1,.LANCHOR0+24,a5
 413      23B09700 
  68:src/testcpp.cpp ****     PeriodicThread* per = new timer();
 414              		.loc 1 68 5 is_stmt 1 discriminator 3
 415              		.loc 1 68 37 is_stmt 0 discriminator 3
 416 01b8 13050003 		li	a0,48
 417              	.LEHB6:
 418 01bc 97000000 		call	_Znwm@plt
 418      E7800000 
 419              	.LVL37:
 420              	.LEHE6:
 421 01c4 13090500 		mv	s2,a0
 422              	.LVL38:
 423              	.LBB22:
 424              	.LBB23:
  56:src/testcpp.cpp ****     void periodicActivation() override{
 425              		.loc 1 56 39 discriminator 3
 426 01c8 93051000 		li	a1,1
GAS LISTING /tmp/cckaTGtK.s 			page 12


 427              	.LEHB7:
 428 01cc 97000000 		call	_ZN14PeriodicThreadC2Em@plt
 428      E7800000 
 429              	.LVL39:
 430              	.LEHE7:
  56:src/testcpp.cpp ****     void periodicActivation() override{
 431              		.loc 1 56 39
 432 01d4 97070000 		lla	a5,_ZTV5timer+16
 432      93870700 
 433 01dc 2330F900 		sd	a5,0(s2)
 434 01e0 23240902 		sw	zero,40(s2)
 435              	.LVL40:
 436              	.LBE23:
 437              	.LBE22:
  69:src/testcpp.cpp ****     s12 = new Semaphore(0);
 438              		.loc 1 69 5 is_stmt 1
 439              		.loc 1 69 26 is_stmt 0
 440 01e4 13050001 		li	a0,16
 441              	.LEHB8:
 442 01e8 97000000 		call	_Znwm@plt
 442      E7800000 
 443              	.LVL41:
 444              	.LEHE8:
 445 01f0 93040500 		mv	s1,a0
 446 01f4 93050000 		li	a1,0
 447              	.LEHB9:
 448 01f8 97000000 		call	_ZN9SemaphoreC1Ej@plt
 448      E7800000 
 449              	.LVL42:
 450              	.LEHE9:
 451              		.loc 1 69 9 discriminator 3
 452 0200 97070000 		sd	s1,.LANCHOR0+32,a5
 452      23B09700 
  70:src/testcpp.cpp ****     s23 = new Semaphore(0);
 453              		.loc 1 70 5 is_stmt 1 discriminator 3
 454              		.loc 1 70 26 is_stmt 0 discriminator 3
 455 0208 13050001 		li	a0,16
 456              	.LEHB10:
 457 020c 97000000 		call	_Znwm@plt
 457      E7800000 
 458              	.LVL43:
 459              	.LEHE10:
 460 0214 93040500 		mv	s1,a0
 461 0218 93050000 		li	a1,0
 462              	.LEHB11:
 463 021c 97000000 		call	_ZN9SemaphoreC1Ej@plt
 463      E7800000 
 464              	.LVL44:
 465              	.LEHE11:
 466              		.loc 1 70 9 discriminator 3
 467 0224 97070000 		sd	s1,.LANCHOR0+40,a5
 467      23B09700 
  71:src/testcpp.cpp ****     s31 = new Semaphore(1);
 468              		.loc 1 71 5 is_stmt 1 discriminator 3
 469              		.loc 1 71 26 is_stmt 0 discriminator 3
 470 022c 13050001 		li	a0,16
 471              	.LEHB12:
GAS LISTING /tmp/cckaTGtK.s 			page 13


 472 0230 97000000 		call	_Znwm@plt
 472      E7800000 
 473              	.LVL45:
 474              	.LEHE12:
 475 0238 93090500 		mv	s3,a0
 476 023c 93051000 		li	a1,1
 477              	.LEHB13:
 478 0240 97000000 		call	_ZN9SemaphoreC1Ej@plt
 478      E7800000 
 479              	.LVL46:
 480              	.LEHE13:
 481              		.loc 1 71 9 discriminator 3
 482 0248 97040000 		lla	s1,.LANCHOR0
 482      93840400 
 483 0250 23B03401 		sd	s3,0(s1)
  72:src/testcpp.cpp ****     nit1->start();
 484              		.loc 1 72 5 is_stmt 1 discriminator 3
 485              		.loc 1 72 16 is_stmt 0 discriminator 3
 486 0254 03B50401 		ld	a0,16(s1)
 487              	.LEHB14:
 488 0258 97000000 		call	_ZN6Thread5startEv@plt
 488      E7800000 
 489              	.LVL47:
  73:src/testcpp.cpp ****     nit3->start();
 490              		.loc 1 73 5 is_stmt 1 discriminator 3
 491              		.loc 1 73 16 is_stmt 0 discriminator 3
 492 0260 03B58401 		ld	a0,24(s1)
 493 0264 97000000 		call	_ZN6Thread5startEv@plt
 493      E7800000 
 494              	.LVL48:
  74:src/testcpp.cpp ****     nit2->start();
 495              		.loc 1 74 5 is_stmt 1 discriminator 3
 496              		.loc 1 74 16 is_stmt 0 discriminator 3
 497 026c 03B58400 		ld	a0,8(s1)
 498 0270 97000000 		call	_ZN6Thread5startEv@plt
 498      E7800000 
 499              	.LVL49:
  75:src/testcpp.cpp ****     per->start();
 500              		.loc 1 75 5 is_stmt 1 discriminator 3
 501              		.loc 1 75 15 is_stmt 0 discriminator 3
 502 0278 13050900 		mv	a0,s2
 503 027c 97000000 		call	_ZN6Thread5startEv@plt
 503      E7800000 
 504              	.LVL50:
  76:src/testcpp.cpp **** 
  77:src/testcpp.cpp ****     time_sleep(50);
 505              		.loc 1 77 5 is_stmt 1 discriminator 3
 506              		.loc 1 77 15 is_stmt 0 discriminator 3
 507 0284 13052003 		li	a0,50
 508 0288 97000000 		call	_Z10time_sleepm@plt
 508      E7800000 
 509              	.LVL51:
  78:src/testcpp.cpp ****     nit1->join();
 510              		.loc 1 78 5 is_stmt 1 discriminator 3
 511              		.loc 1 78 15 is_stmt 0 discriminator 3
 512 0290 03B50401 		ld	a0,16(s1)
 513 0294 97000000 		call	_ZN6Thread4joinEv@plt
GAS LISTING /tmp/cckaTGtK.s 			page 14


 513      E7800000 
 514              	.LVL52:
  79:src/testcpp.cpp ****     nit2->join();
 515              		.loc 1 79 5 is_stmt 1 discriminator 3
 516              		.loc 1 79 15 is_stmt 0 discriminator 3
 517 029c 03B58400 		ld	a0,8(s1)
 518 02a0 97000000 		call	_ZN6Thread4joinEv@plt
 518      E7800000 
 519              	.LVL53:
  80:src/testcpp.cpp ****     nit3->join();
 520              		.loc 1 80 5 is_stmt 1 discriminator 3
 521              		.loc 1 80 15 is_stmt 0 discriminator 3
 522 02a8 03B58401 		ld	a0,24(s1)
 523 02ac 97000000 		call	_ZN6Thread4joinEv@plt
 523      E7800000 
 524              	.LVL54:
  81:src/testcpp.cpp **** 
  82:src/testcpp.cpp **** 
  83:src/testcpp.cpp ****     printString("\nGotove user niti\n");
 525              		.loc 1 83 5 is_stmt 1 discriminator 3
 526              		.loc 1 83 16 is_stmt 0 discriminator 3
 527 02b4 17050000 		lla	a0,.LC5
 527      13050500 
 528 02bc 97000000 		call	_Z11printStringPKc@plt
 528      E7800000 
 529              	.LVL55:
  84:src/testcpp.cpp **** 
  85:src/testcpp.cpp ****     printString("\nSad cu da izadjem iz usera\n");
 530              		.loc 1 85 5 is_stmt 1 discriminator 3
 531              		.loc 1 85 16 is_stmt 0 discriminator 3
 532 02c4 17050000 		lla	a0,.LC6
 532      13050500 
 533 02cc 97000000 		call	_Z11printStringPKc@plt
 533      E7800000 
 534              	.LVL56:
  86:src/testcpp.cpp ****     time_sleep(10);
 535              		.loc 1 86 5 is_stmt 1 discriminator 3
 536              		.loc 1 86 15 is_stmt 0 discriminator 3
 537 02d4 1305A000 		li	a0,10
 538 02d8 97000000 		call	_Z10time_sleepm@plt
 538      E7800000 
 539              	.LVL57:
  87:src/testcpp.cpp ****     per->terminate();
 540              		.loc 1 87 5 is_stmt 1 discriminator 3
 541              		.loc 1 87 19 is_stmt 0 discriminator 3
 542 02e0 13050900 		mv	a0,s2
 543 02e4 97000000 		call	_ZN14PeriodicThread9terminateEv@plt
 543      E7800000 
 544              	.LVL58:
  88:src/testcpp.cpp **** }...
 545              		.loc 1 88 1 discriminator 3
 546 02ec 83308103 		ld	ra,56(sp)
 547              		.cfi_remember_state
 548              		.cfi_restore 1
 549 02f0 03340103 		ld	s0,48(sp)
 550              		.cfi_restore 8
 551              		.cfi_def_cfa 2, 64
GAS LISTING /tmp/cckaTGtK.s 			page 15


 552 02f4 83348102 		ld	s1,40(sp)
 553              		.cfi_restore 9
 554 02f8 03390102 		ld	s2,32(sp)
 555              		.cfi_restore 18
 556              	.LVL59:
 557 02fc 83398101 		ld	s3,24(sp)
 558              		.cfi_restore 19
 559 0300 13010104 		addi	sp,sp,64
 560              		.cfi_def_cfa_offset 0
 561 0304 67800000 		jr	ra
 562              	.L22:
 563              		.cfi_restore_state
 564 0308 13090500 		mv	s2,a0
  65:src/testcpp.cpp ****     nit1 = new Thread(f1, &end);
 565              		.loc 1 65 31
 566 030c 13850400 		mv	a0,s1
 567 0310 97000000 		call	_ZdlPv@plt
 567      E7800000 
 568              	.LVL60:
 569 0318 13050900 		mv	a0,s2
 570 031c 97000000 		call	_Unwind_Resume@plt
 570      E7800000 
 571              	.LVL61:
 572              	.L23:
 573 0324 13090500 		mv	s2,a0
  66:src/testcpp.cpp ****     nit2 = new Thread(f2, &end);
 574              		.loc 1 66 31
 575 0328 13850400 		mv	a0,s1
 576 032c 97000000 		call	_ZdlPv@plt
 576      E7800000 
 577              	.LVL62:
 578 0334 13050900 		mv	a0,s2
 579 0338 97000000 		call	_Unwind_Resume@plt
 579      E7800000 
 580              	.LVL63:
 581              	.L24:
 582 0340 13090500 		mv	s2,a0
  67:src/testcpp.cpp ****     nit3 = new Thread(f3, &end);
 583              		.loc 1 67 31
 584 0344 13850400 		mv	a0,s1
 585 0348 97000000 		call	_ZdlPv@plt
 585      E7800000 
 586              	.LVL64:
 587 0350 13050900 		mv	a0,s2
 588 0354 97000000 		call	_Unwind_Resume@plt
 588      E7800000 
 589              	.LVL65:
 590              	.L25:
 591 035c 93040500 		mv	s1,a0
  68:src/testcpp.cpp ****     PeriodicThread* per = new timer();
 592              		.loc 1 68 37
 593 0360 13050900 		mv	a0,s2
 594 0364 97000000 		call	_ZdlPv@plt
 594      E7800000 
 595              	.LVL66:
 596 036c 13850400 		mv	a0,s1
 597 0370 97000000 		call	_Unwind_Resume@plt
GAS LISTING /tmp/cckaTGtK.s 			page 16


 597      E7800000 
 598              	.LVL67:
 599              	.L26:
 600 0378 13090500 		mv	s2,a0
 601              	.LVL68:
  69:src/testcpp.cpp ****     s12 = new Semaphore(0);
 602              		.loc 1 69 26
 603 037c 13850400 		mv	a0,s1
 604 0380 97000000 		call	_ZdlPv@plt
 604      E7800000 
 605              	.LVL69:
 606 0388 13050900 		mv	a0,s2
 607 038c 97000000 		call	_Unwind_Resume@plt
 607      E7800000 
 608              	.LVL70:
 609              	.L27:
 610 0394 13090500 		mv	s2,a0
 611              	.LVL71:
  70:src/testcpp.cpp ****     s23 = new Semaphore(0);
 612              		.loc 1 70 26
 613 0398 13850400 		mv	a0,s1
 614 039c 97000000 		call	_ZdlPv@plt
 614      E7800000 
 615              	.LVL72:
 616 03a4 13050900 		mv	a0,s2
 617 03a8 97000000 		call	_Unwind_Resume@plt
 617      E7800000 
 618              	.LVL73:
 619              	.L28:
 620 03b0 93040500 		mv	s1,a0
  71:src/testcpp.cpp ****     s31 = new Semaphore(1);
 621              		.loc 1 71 26
 622 03b4 13850900 		mv	a0,s3
 623 03b8 97000000 		call	_ZdlPv@plt
 623      E7800000 
 624              	.LVL74:
 625 03c0 13850400 		mv	a0,s1
 626 03c4 97000000 		call	_Unwind_Resume@plt
 626      E7800000 
 627              	.LVL75:
 628              	.LEHE14:
 629              		.cfi_endproc
 630              	.LFE17:
 631              		.globl	__gxx_personality_v0
 632              		.section	.gcc_except_table,"a",@progbits
 633              	.LLSDA17:
 634 0000 FF       		.byte	0xff
 635 0001 FF       		.byte	0xff
 636 0002 03       		.byte	0x3
 637 0003 C301     		.byte	0xc3,0x1
 638 0005 00000000 		.4byte	.LEHB0-.LFB17
 639 0009 00000000 		.4byte	.LEHE0-.LEHB0
 640 000d 00000000 		.4byte	0
 641 0011 00       		.byte	0
 642 0012 00000000 		.4byte	.LEHB1-.LFB17
 643 0016 00000000 		.4byte	.LEHE1-.LEHB1
 644 001a 00000000 		.4byte	.L22-.LFB17
GAS LISTING /tmp/cckaTGtK.s 			page 17


 645 001e 00       		.byte	0
 646 001f 00000000 		.4byte	.LEHB2-.LFB17
 647 0023 00000000 		.4byte	.LEHE2-.LEHB2
 648 0027 00000000 		.4byte	0
 649 002b 00       		.byte	0
 650 002c 00000000 		.4byte	.LEHB3-.LFB17
 651 0030 00000000 		.4byte	.LEHE3-.LEHB3
 652 0034 00000000 		.4byte	.L23-.LFB17
 653 0038 00       		.byte	0
 654 0039 00000000 		.4byte	.LEHB4-.LFB17
 655 003d 00000000 		.4byte	.LEHE4-.LEHB4
 656 0041 00000000 		.4byte	0
 657 0045 00       		.byte	0
 658 0046 00000000 		.4byte	.LEHB5-.LFB17
 659 004a 00000000 		.4byte	.LEHE5-.LEHB5
 660 004e 00000000 		.4byte	.L24-.LFB17
 661 0052 00       		.byte	0
 662 0053 00000000 		.4byte	.LEHB6-.LFB17
 663 0057 00000000 		.4byte	.LEHE6-.LEHB6
 664 005b 00000000 		.4byte	0
 665 005f 00       		.byte	0
 666 0060 00000000 		.4byte	.LEHB7-.LFB17
 667 0064 00000000 		.4byte	.LEHE7-.LEHB7
 668 0068 00000000 		.4byte	.L25-.LFB17
 669 006c 00       		.byte	0
 670 006d 00000000 		.4byte	.LEHB8-.LFB17
 671 0071 00000000 		.4byte	.LEHE8-.LEHB8
 672 0075 00000000 		.4byte	0
 673 0079 00       		.byte	0
 674 007a 00000000 		.4byte	.LEHB9-.LFB17
 675 007e 00000000 		.4byte	.LEHE9-.LEHB9
 676 0082 00000000 		.4byte	.L26-.LFB17
 677 0086 00       		.byte	0
 678 0087 00000000 		.4byte	.LEHB10-.LFB17
 679 008b 00000000 		.4byte	.LEHE10-.LEHB10
 680 008f 00000000 		.4byte	0
 681 0093 00       		.byte	0
 682 0094 00000000 		.4byte	.LEHB11-.LFB17
 683 0098 00000000 		.4byte	.LEHE11-.LEHB11
 684 009c 00000000 		.4byte	.L27-.LFB17
 685 00a0 00       		.byte	0
 686 00a1 00000000 		.4byte	.LEHB12-.LFB17
 687 00a5 00000000 		.4byte	.LEHE12-.LEHB12
 688 00a9 00000000 		.4byte	0
 689 00ad 00       		.byte	0
 690 00ae 00000000 		.4byte	.LEHB13-.LFB17
 691 00b2 00000000 		.4byte	.LEHE13-.LEHB13
 692 00b6 00000000 		.4byte	.L28-.LFB17
 693 00ba 00       		.byte	0
 694 00bb 00000000 		.4byte	.LEHB14-.LFB17
 695 00bf 00000000 		.4byte	.LEHE14-.LEHB14
 696 00c3 00000000 		.4byte	0
 697 00c7 00       		.byte	0
 698              		.text
 700              		.weak	_ZTV5timer
 701              		.section	.data.rel.ro._ZTV5timer,"awG",@progbits,_ZTV5timer,comdat
 702              		.align	3
GAS LISTING /tmp/cckaTGtK.s 			page 18


 705              	_ZTV5timer:
 706 0000 00000000 		.dword	0
 706      00000000 
 707 0008 00000000 		.dword	0
 707      00000000 
 708 0010 00000000 		.dword	_ZN5timerD1Ev
 708      00000000 
 709 0018 00000000 		.dword	_ZN5timerD0Ev
 709      00000000 
 710 0020 00000000 		.dword	_ZN14PeriodicThread3runEv
 710      00000000 
 711 0028 00000000 		.dword	_ZN5timer18periodicActivationEv
 711      00000000 
 712              		.globl	nit3
 713              		.globl	nit2
 714              		.globl	nit1
 715              		.globl	s31
 716              		.globl	s23
 717              		.globl	s12
 718              		.bss
 719              		.align	3
 720              		.set	.LANCHOR0,. + 0
 723              	s31:
 724 0000 00000000 		.zero	8
 724      00000000 
 727              	nit2:
 728 0008 00000000 		.zero	8
 728      00000000 
 731              	nit1:
 732 0010 00000000 		.zero	8
 732      00000000 
 735              	nit3:
 736 0018 00000000 		.zero	8
 736      00000000 
 739              	s12:
 740 0020 00000000 		.zero	8
 740      00000000 
 743              	s23:
 744 0028 00000000 		.zero	8
 744      00000000 
 745              		.text
 746              	.Letext0:
 747              		.file 3 "src/../h/../lib/hw.h"
 748              		.file 4 "src/../h/syscall_c.hpp"
 749              		.file 5 "src/../test/printing.hpp"
 3126              		.align	3
 3129              	DW.ref.__gxx_personality_v0:
 3130 0000 00000000 		.dword	__gxx_personality_v0
 3130      00000000 
 3131              		.ident	"GCC: (Ubuntu 9.4.0-1ubuntu1~20.04) 9.4.0"
 3132              		.section	.note.GNU-stack,"",@progbits
GAS LISTING /tmp/cckaTGtK.s 			page 19


DEFINED SYMBOLS
                            *ABS*:0000000000000000 testcpp.cpp
     /tmp/cckaTGtK.s:14     .text:0000000000000000 _Z2f1Pv
     /tmp/cckaTGtK.s:18     .text:0000000000000000 .L0 
     /tmp/cckaTGtK.s:20     .text:0000000000000000 .L0 
     /tmp/cckaTGtK.s:21     .text:0000000000000004 .L0 
     /tmp/cckaTGtK.s:25     .text:0000000000000010 .L0 
     /tmp/cckaTGtK.s:26     .text:0000000000000010 .L0 
     /tmp/cckaTGtK.s:27     .text:0000000000000010 .L0 
     /tmp/cckaTGtK.s:29     .text:0000000000000014 .L0 
     /tmp/cckaTGtK.s:31     .text:0000000000000014 .L0 
     /tmp/cckaTGtK.s:32     .text:0000000000000014 .L0 
     /tmp/cckaTGtK.s:38     .text:0000000000000028 .L0 
     /tmp/cckaTGtK.s:39     .text:0000000000000028 .L0 
     /tmp/cckaTGtK.s:43     .text:0000000000000034 .L0 
     /tmp/cckaTGtK.s:44     .text:0000000000000034 .L0 
     /tmp/cckaTGtK.s:46     .text:0000000000000038 .L0 
     /tmp/cckaTGtK.s:48     .text:000000000000003c .L0 
     /tmp/cckaTGtK.s:54     .text:0000000000000048 .L0 
     /tmp/cckaTGtK.s:55     .text:0000000000000048 .L0 
     /tmp/cckaTGtK.s:59     .text:0000000000000058 .L0 
     /tmp/cckaTGtK.s:60     .text:0000000000000058 .L0 
     /tmp/cckaTGtK.s:64     .text:0000000000000068 .L0 
     /tmp/cckaTGtK.s:65     .text:000000000000006c .L0 
     /tmp/cckaTGtK.s:67     .text:0000000000000070 .L0 
     /tmp/cckaTGtK.s:68     .text:0000000000000070 .L0 
     /tmp/cckaTGtK.s:70     .text:0000000000000074 .L0 
     /tmp/cckaTGtK.s:72     .text:0000000000000078 .L0 
     /tmp/cckaTGtK.s:74     .text:000000000000007c .L0 
     /tmp/cckaTGtK.s:85     .text:000000000000007c _Z2f2Pv
     /tmp/cckaTGtK.s:88     .text:000000000000007c .L0 
     /tmp/cckaTGtK.s:90     .text:000000000000007c .L0 
     /tmp/cckaTGtK.s:91     .text:0000000000000080 .L0 
     /tmp/cckaTGtK.s:94     .text:0000000000000088 .L0 
     /tmp/cckaTGtK.s:95     .text:0000000000000088 .L0 
     /tmp/cckaTGtK.s:97     .text:000000000000008c .L0 
     /tmp/cckaTGtK.s:99     .text:000000000000008c .L0 
     /tmp/cckaTGtK.s:100    .text:000000000000008c .L0 
     /tmp/cckaTGtK.s:105    .text:0000000000000098 .L0 
     /tmp/cckaTGtK.s:106    .text:0000000000000098 .L0 
     /tmp/cckaTGtK.s:110    .text:00000000000000a8 .L0 
     /tmp/cckaTGtK.s:111    .text:00000000000000a8 .L0 
     /tmp/cckaTGtK.s:115    .text:00000000000000b8 .L0 
     /tmp/cckaTGtK.s:116    .text:00000000000000bc .L0 
     /tmp/cckaTGtK.s:118    .text:00000000000000c0 .L0 
     /tmp/cckaTGtK.s:119    .text:00000000000000c0 .L0 
     /tmp/cckaTGtK.s:121    .text:00000000000000c4 .L0 
     /tmp/cckaTGtK.s:123    .text:00000000000000c8 .L0 
     /tmp/cckaTGtK.s:134    .text:00000000000000c8 _Z2f3Pv
     /tmp/cckaTGtK.s:137    .text:00000000000000c8 .L0 
     /tmp/cckaTGtK.s:139    .text:00000000000000c8 .L0 
     /tmp/cckaTGtK.s:140    .text:00000000000000cc .L0 
     /tmp/cckaTGtK.s:143    .text:00000000000000d4 .L0 
     /tmp/cckaTGtK.s:144    .text:00000000000000d4 .L0 
     /tmp/cckaTGtK.s:146    .text:00000000000000d8 .L0 
     /tmp/cckaTGtK.s:148    .text:00000000000000d8 .L0 
     /tmp/cckaTGtK.s:149    .text:00000000000000d8 .L0 
GAS LISTING /tmp/cckaTGtK.s 			page 20


     /tmp/cckaTGtK.s:154    .text:00000000000000e4 .L0 
     /tmp/cckaTGtK.s:155    .text:00000000000000e4 .L0 
     /tmp/cckaTGtK.s:159    .text:00000000000000f4 .L0 
     /tmp/cckaTGtK.s:160    .text:00000000000000f4 .L0 
     /tmp/cckaTGtK.s:164    .text:0000000000000104 .L0 
     /tmp/cckaTGtK.s:165    .text:0000000000000108 .L0 
     /tmp/cckaTGtK.s:167    .text:000000000000010c .L0 
     /tmp/cckaTGtK.s:168    .text:000000000000010c .L0 
     /tmp/cckaTGtK.s:170    .text:0000000000000110 .L0 
     /tmp/cckaTGtK.s:172    .text:0000000000000114 .L0 
     /tmp/cckaTGtK.s:186    .text._ZN5timer18periodicActivationEv:0000000000000000 _ZN5timer18periodicActivationEv
     /tmp/cckaTGtK.s:189    .text._ZN5timer18periodicActivationEv:0000000000000000 .L0 
     /tmp/cckaTGtK.s:191    .text._ZN5timer18periodicActivationEv:0000000000000000 .L0 
     /tmp/cckaTGtK.s:192    .text._ZN5timer18periodicActivationEv:0000000000000004 .L0 
     /tmp/cckaTGtK.s:196    .text._ZN5timer18periodicActivationEv:0000000000000010 .L0 
     /tmp/cckaTGtK.s:197    .text._ZN5timer18periodicActivationEv:0000000000000010 .L0 
     /tmp/cckaTGtK.s:198    .text._ZN5timer18periodicActivationEv:0000000000000010 .L0 
     /tmp/cckaTGtK.s:200    .text._ZN5timer18periodicActivationEv:0000000000000014 .L0 
     /tmp/cckaTGtK.s:203    .text._ZN5timer18periodicActivationEv:0000000000000018 .L0 
     /tmp/cckaTGtK.s:204    .text._ZN5timer18periodicActivationEv:0000000000000018 .L0 
     /tmp/cckaTGtK.s:209    .text._ZN5timer18periodicActivationEv:0000000000000028 .L0 
     /tmp/cckaTGtK.s:210    .text._ZN5timer18periodicActivationEv:0000000000000028 .L0 
     /tmp/cckaTGtK.s:212    .text._ZN5timer18periodicActivationEv:000000000000002c .L0 
     /tmp/cckaTGtK.s:219    .text._ZN5timer18periodicActivationEv:0000000000000044 .L0 
     /tmp/cckaTGtK.s:220    .text._ZN5timer18periodicActivationEv:0000000000000044 .L0 
     /tmp/cckaTGtK.s:224    .text._ZN5timer18periodicActivationEv:0000000000000054 .L0 
     /tmp/cckaTGtK.s:225    .text._ZN5timer18periodicActivationEv:0000000000000058 .L0 
     /tmp/cckaTGtK.s:227    .text._ZN5timer18periodicActivationEv:000000000000005c .L0 
     /tmp/cckaTGtK.s:228    .text._ZN5timer18periodicActivationEv:000000000000005c .L0 
     /tmp/cckaTGtK.s:230    .text._ZN5timer18periodicActivationEv:0000000000000060 .L0 
     /tmp/cckaTGtK.s:233    .text._ZN5timer18periodicActivationEv:0000000000000064 .L0 
     /tmp/cckaTGtK.s:235    .text._ZN5timer18periodicActivationEv:0000000000000068 .L0 
     /tmp/cckaTGtK.s:242    .text._ZN5timerD2Ev:0000000000000000 _ZN5timerD2Ev
     /tmp/cckaTGtK.s:245    .text._ZN5timerD2Ev:0000000000000000 .L0 
     /tmp/cckaTGtK.s:247    .text._ZN5timerD2Ev:0000000000000000 .L0 
     /tmp/cckaTGtK.s:248    .text._ZN5timerD2Ev:0000000000000004 .L0 
     /tmp/cckaTGtK.s:251    .text._ZN5timerD2Ev:000000000000000c .L0 
     /tmp/cckaTGtK.s:252    .text._ZN5timerD2Ev:000000000000000c .L0 
     /tmp/cckaTGtK.s:254    .text._ZN5timerD2Ev:0000000000000010 .L0 
     /tmp/cckaTGtK.s:260    .text._ZN5timerD2Ev:0000000000000010 .L0 
     /tmp/cckaTGtK.s:268    .text._ZN5timerD2Ev:0000000000000028 .L0 
     /tmp/cckaTGtK.s:269    .text._ZN5timerD2Ev:000000000000002c .L0 
     /tmp/cckaTGtK.s:271    .text._ZN5timerD2Ev:0000000000000030 .L0 
     /tmp/cckaTGtK.s:272    .text._ZN5timerD2Ev:0000000000000030 .L0 
     /tmp/cckaTGtK.s:274    .text._ZN5timerD2Ev:0000000000000034 .L0 
     /tmp/cckaTGtK.s:276    .text._ZN5timerD2Ev:0000000000000038 .L0 
     /tmp/cckaTGtK.s:242    .text._ZN5timerD2Ev:0000000000000000 _ZN5timerD1Ev
     /tmp/cckaTGtK.s:285    .text._ZN5timerD0Ev:0000000000000000 _ZN5timerD0Ev
     /tmp/cckaTGtK.s:288    .text._ZN5timerD0Ev:0000000000000000 .L0 
     /tmp/cckaTGtK.s:290    .text._ZN5timerD0Ev:0000000000000000 .L0 
     /tmp/cckaTGtK.s:291    .text._ZN5timerD0Ev:0000000000000004 .L0 
     /tmp/cckaTGtK.s:295    .text._ZN5timerD0Ev:0000000000000010 .L0 
     /tmp/cckaTGtK.s:296    .text._ZN5timerD0Ev:0000000000000010 .L0 
     /tmp/cckaTGtK.s:297    .text._ZN5timerD0Ev:0000000000000010 .L0 
     /tmp/cckaTGtK.s:299    .text._ZN5timerD0Ev:0000000000000014 .L0 
     /tmp/cckaTGtK.s:306    .text._ZN5timerD0Ev:0000000000000018 .L0 
     /tmp/cckaTGtK.s:315    .text._ZN5timerD0Ev:0000000000000030 .L0 
GAS LISTING /tmp/cckaTGtK.s 			page 21


     /tmp/cckaTGtK.s:319    .text._ZN5timerD0Ev:0000000000000040 .L0 
     /tmp/cckaTGtK.s:321    .text._ZN5timerD0Ev:0000000000000044 .L0 
     /tmp/cckaTGtK.s:322    .text._ZN5timerD0Ev:0000000000000044 .L0 
     /tmp/cckaTGtK.s:324    .text._ZN5timerD0Ev:0000000000000048 .L0 
     /tmp/cckaTGtK.s:327    .text._ZN5timerD0Ev:000000000000004c .L0 
     /tmp/cckaTGtK.s:329    .text._ZN5timerD0Ev:0000000000000050 .L0 
     /tmp/cckaTGtK.s:343    .text:0000000000000114 _Z4userPv
     /tmp/cckaTGtK.s:346    .text:0000000000000114 .L0 
     /tmp/cckaTGtK.s:3129   .data.rel.local.DW.ref.__gxx_personality_v0:0000000000000000 DW.ref.__gxx_personality_v0
     /tmp/cckaTGtK.s:349    .text:0000000000000114 .L0 
     /tmp/cckaTGtK.s:350    .text:0000000000000118 .L0 
     /tmp/cckaTGtK.s:356    .text:000000000000012c .L0 
     /tmp/cckaTGtK.s:357    .text:000000000000012c .L0 
     /tmp/cckaTGtK.s:358    .text:000000000000012c .L0 
     /tmp/cckaTGtK.s:359    .text:000000000000012c .L0 
     /tmp/cckaTGtK.s:360    .text:000000000000012c .L0 
     /tmp/cckaTGtK.s:362    .text:0000000000000130 .L0 
     /tmp/cckaTGtK.s:364    .text:0000000000000130 .L0 
     /tmp/cckaTGtK.s:365    .text:0000000000000130 .L0 
     /tmp/cckaTGtK.s:367    .text:0000000000000134 .L0 
     /tmp/cckaTGtK.s:368    .text:0000000000000134 .L0 
     /tmp/cckaTGtK.s:381    .text:0000000000000158 .L0 
     /tmp/cckaTGtK.s:383    .text:0000000000000160 .L0 
     /tmp/cckaTGtK.s:384    .text:0000000000000160 .L0 
     /tmp/cckaTGtK.s:397    .text:0000000000000184 .L0 
     /tmp/cckaTGtK.s:399    .text:000000000000018c .L0 
     /tmp/cckaTGtK.s:400    .text:000000000000018c .L0 
     /tmp/cckaTGtK.s:413    .text:00000000000001b0 .L0 
     /tmp/cckaTGtK.s:415    .text:00000000000001b8 .L0 
     /tmp/cckaTGtK.s:416    .text:00000000000001b8 .L0 
     /tmp/cckaTGtK.s:426    .text:00000000000001c8 .L0 
     /tmp/cckaTGtK.s:705    .data.rel.ro._ZTV5timer:0000000000000000 _ZTV5timer
     /tmp/cckaTGtK.s:432    .text:00000000000001d4 .L0 
     /tmp/cckaTGtK.s:439    .text:00000000000001e4 .L0 
     /tmp/cckaTGtK.s:440    .text:00000000000001e4 .L0 
     /tmp/cckaTGtK.s:452    .text:0000000000000200 .L0 
     /tmp/cckaTGtK.s:454    .text:0000000000000208 .L0 
     /tmp/cckaTGtK.s:455    .text:0000000000000208 .L0 
     /tmp/cckaTGtK.s:467    .text:0000000000000224 .L0 
     /tmp/cckaTGtK.s:469    .text:000000000000022c .L0 
     /tmp/cckaTGtK.s:470    .text:000000000000022c .L0 
     /tmp/cckaTGtK.s:482    .text:0000000000000248 .L0 
     /tmp/cckaTGtK.s:485    .text:0000000000000254 .L0 
     /tmp/cckaTGtK.s:486    .text:0000000000000254 .L0 
     /tmp/cckaTGtK.s:491    .text:0000000000000260 .L0 
     /tmp/cckaTGtK.s:492    .text:0000000000000260 .L0 
     /tmp/cckaTGtK.s:496    .text:000000000000026c .L0 
     /tmp/cckaTGtK.s:497    .text:000000000000026c .L0 
     /tmp/cckaTGtK.s:501    .text:0000000000000278 .L0 
     /tmp/cckaTGtK.s:502    .text:0000000000000278 .L0 
     /tmp/cckaTGtK.s:506    .text:0000000000000284 .L0 
     /tmp/cckaTGtK.s:507    .text:0000000000000284 .L0 
     /tmp/cckaTGtK.s:511    .text:0000000000000290 .L0 
     /tmp/cckaTGtK.s:512    .text:0000000000000290 .L0 
     /tmp/cckaTGtK.s:516    .text:000000000000029c .L0 
     /tmp/cckaTGtK.s:517    .text:000000000000029c .L0 
     /tmp/cckaTGtK.s:521    .text:00000000000002a8 .L0 
GAS LISTING /tmp/cckaTGtK.s 			page 22


     /tmp/cckaTGtK.s:522    .text:00000000000002a8 .L0 
     /tmp/cckaTGtK.s:526    .text:00000000000002b4 .L0 
     /tmp/cckaTGtK.s:527    .text:00000000000002b4 .L0 
     /tmp/cckaTGtK.s:531    .text:00000000000002c4 .L0 
     /tmp/cckaTGtK.s:532    .text:00000000000002c4 .L0 
     /tmp/cckaTGtK.s:536    .text:00000000000002d4 .L0 
     /tmp/cckaTGtK.s:537    .text:00000000000002d4 .L0 
     /tmp/cckaTGtK.s:541    .text:00000000000002e0 .L0 
     /tmp/cckaTGtK.s:542    .text:00000000000002e0 .L0 
     /tmp/cckaTGtK.s:546    .text:00000000000002ec .L0 
     /tmp/cckaTGtK.s:547    .text:00000000000002f0 .L0 
     /tmp/cckaTGtK.s:548    .text:00000000000002f0 .L0 
     /tmp/cckaTGtK.s:550    .text:00000000000002f4 .L0 
     /tmp/cckaTGtK.s:551    .text:00000000000002f4 .L0 
     /tmp/cckaTGtK.s:553    .text:00000000000002f8 .L0 
     /tmp/cckaTGtK.s:555    .text:00000000000002fc .L0 
     /tmp/cckaTGtK.s:558    .text:0000000000000300 .L0 
     /tmp/cckaTGtK.s:560    .text:0000000000000304 .L0 
     /tmp/cckaTGtK.s:563    .text:0000000000000308 .L0 
     /tmp/cckaTGtK.s:566    .text:000000000000030c .L0 
     /tmp/cckaTGtK.s:575    .text:0000000000000328 .L0 
     /tmp/cckaTGtK.s:584    .text:0000000000000344 .L0 
     /tmp/cckaTGtK.s:593    .text:0000000000000360 .L0 
     /tmp/cckaTGtK.s:603    .text:000000000000037c .L0 
     /tmp/cckaTGtK.s:613    .text:0000000000000398 .L0 
     /tmp/cckaTGtK.s:622    .text:00000000000003b4 .L0 
     /tmp/cckaTGtK.s:629    .text:00000000000003cc .L0 
     /tmp/cckaTGtK.s:735    .bss:0000000000000018 nit3
     /tmp/cckaTGtK.s:727    .bss:0000000000000008 nit2
     /tmp/cckaTGtK.s:731    .bss:0000000000000010 nit1
     /tmp/cckaTGtK.s:723    .bss:0000000000000000 s31
     /tmp/cckaTGtK.s:743    .bss:0000000000000028 s23
     /tmp/cckaTGtK.s:739    .bss:0000000000000020 s12
     /tmp/cckaTGtK.s:720    .bss:0000000000000000 .LANCHOR0
     /tmp/cckaTGtK.s:750    .text:00000000000003cc .L0 
     /tmp/cckaTGtK.s:238    .text._ZN5timer18periodicActivationEv:0000000000000068 .L0 
     /tmp/cckaTGtK.s:281    .text._ZN5timerD2Ev:0000000000000038 .L0 
     /tmp/cckaTGtK.s:332    .text._ZN5timerD0Ev:0000000000000050 .L0 
     /tmp/cckaTGtK.s:32     .text:0000000000000014 .L0 
     /tmp/cckaTGtK.s:55     .text:0000000000000048 .L0 
     /tmp/cckaTGtK.s:8      .rodata.str1.8:0000000000000000 .LC0
     /tmp/cckaTGtK.s:60     .text:0000000000000058 .L0 
     /tmp/cckaTGtK.s:106    .text:0000000000000098 .L0 
     /tmp/cckaTGtK.s:79     .rodata.str1.8:0000000000000010 .LC1
     /tmp/cckaTGtK.s:111    .text:00000000000000a8 .L0 
     /tmp/cckaTGtK.s:155    .text:00000000000000e4 .L0 
     /tmp/cckaTGtK.s:128    .rodata.str1.8:0000000000000020 .LC2
     /tmp/cckaTGtK.s:160    .text:00000000000000f4 .L0 
     /tmp/cckaTGtK.s:375    .text:0000000000000148 .L0 
     /tmp/cckaTGtK.s:381    .text:0000000000000158 .L0 
     /tmp/cckaTGtK.s:391    .text:0000000000000174 .L0 
     /tmp/cckaTGtK.s:397    .text:0000000000000184 .L0 
     /tmp/cckaTGtK.s:407    .text:00000000000001a0 .L0 
     /tmp/cckaTGtK.s:413    .text:00000000000001b0 .L0 
     /tmp/cckaTGtK.s:432    .text:00000000000001d4 .L0 
     /tmp/cckaTGtK.s:452    .text:0000000000000200 .L0 
     /tmp/cckaTGtK.s:467    .text:0000000000000224 .L0 
GAS LISTING /tmp/cckaTGtK.s 			page 23


     /tmp/cckaTGtK.s:482    .text:0000000000000248 .L0 
     /tmp/cckaTGtK.s:334    .rodata.str1.8:0000000000000030 .LC5
     /tmp/cckaTGtK.s:527    .text:00000000000002b4 .L0 
     /tmp/cckaTGtK.s:337    .rodata.str1.8:0000000000000048 .LC6
     /tmp/cckaTGtK.s:532    .text:00000000000002c4 .L0 
     /tmp/cckaTGtK.s:52     .text:0000000000000048 .L2
     /tmp/cckaTGtK.s:177    .rodata._ZN5timer18periodicActivationEv.str1.8:0000000000000000 .LC3
     /tmp/cckaTGtK.s:204    .text._ZN5timer18periodicActivationEv:0000000000000018 .L0 
     /tmp/cckaTGtK.s:180    .rodata._ZN5timer18periodicActivationEv.str1.8:0000000000000010 .LC4
     /tmp/cckaTGtK.s:220    .text._ZN5timer18periodicActivationEv:0000000000000044 .L0 
     /tmp/cckaTGtK.s:260    .text._ZN5timerD2Ev:0000000000000010 .L0 
     /tmp/cckaTGtK.s:306    .text._ZN5timerD0Ev:0000000000000018 .L0 
     /tmp/cckaTGtK.s:369    .text:0000000000000138 .LEHB0
     /tmp/cckaTGtK.s:344    .text:0000000000000114 .LFB17
     /tmp/cckaTGtK.s:372    .text:0000000000000140 .LEHE0
     /tmp/cckaTGtK.s:376    .text:0000000000000150 .LEHB1
     /tmp/cckaTGtK.s:379    .text:0000000000000158 .LEHE1
     /tmp/cckaTGtK.s:562    .text:0000000000000308 .L22
     /tmp/cckaTGtK.s:385    .text:0000000000000164 .LEHB2
     /tmp/cckaTGtK.s:388    .text:000000000000016c .LEHE2
     /tmp/cckaTGtK.s:392    .text:000000000000017c .LEHB3
     /tmp/cckaTGtK.s:395    .text:0000000000000184 .LEHE3
     /tmp/cckaTGtK.s:572    .text:0000000000000324 .L23
     /tmp/cckaTGtK.s:401    .text:0000000000000190 .LEHB4
     /tmp/cckaTGtK.s:404    .text:0000000000000198 .LEHE4
     /tmp/cckaTGtK.s:408    .text:00000000000001a8 .LEHB5
     /tmp/cckaTGtK.s:411    .text:00000000000001b0 .LEHE5
     /tmp/cckaTGtK.s:581    .text:0000000000000340 .L24
     /tmp/cckaTGtK.s:417    .text:00000000000001bc .LEHB6
     /tmp/cckaTGtK.s:420    .text:00000000000001c4 .LEHE6
     /tmp/cckaTGtK.s:427    .text:00000000000001cc .LEHB7
     /tmp/cckaTGtK.s:430    .text:00000000000001d4 .LEHE7
     /tmp/cckaTGtK.s:590    .text:000000000000035c .L25
     /tmp/cckaTGtK.s:441    .text:00000000000001e8 .LEHB8
     /tmp/cckaTGtK.s:444    .text:00000000000001f0 .LEHE8
     /tmp/cckaTGtK.s:447    .text:00000000000001f8 .LEHB9
     /tmp/cckaTGtK.s:450    .text:0000000000000200 .LEHE9
     /tmp/cckaTGtK.s:599    .text:0000000000000378 .L26
     /tmp/cckaTGtK.s:456    .text:000000000000020c .LEHB10
     /tmp/cckaTGtK.s:459    .text:0000000000000214 .LEHE10
     /tmp/cckaTGtK.s:462    .text:000000000000021c .LEHB11
     /tmp/cckaTGtK.s:465    .text:0000000000000224 .LEHE11
     /tmp/cckaTGtK.s:609    .text:0000000000000394 .L27
     /tmp/cckaTGtK.s:471    .text:0000000000000230 .LEHB12
     /tmp/cckaTGtK.s:474    .text:0000000000000238 .LEHE12
     /tmp/cckaTGtK.s:477    .text:0000000000000240 .LEHB13
     /tmp/cckaTGtK.s:480    .text:0000000000000248 .LEHE13
     /tmp/cckaTGtK.s:619    .text:00000000000003b0 .L28
     /tmp/cckaTGtK.s:487    .text:0000000000000258 .LEHB14
     /tmp/cckaTGtK.s:628    .text:00000000000003cc .LEHE14
     /tmp/cckaTGtK.s:1977   .debug_abbrev:0000000000000000 .Ldebug_abbrev0
     /tmp/cckaTGtK.s:3047   .debug_str:00000000000001fd .LASF63
     /tmp/cckaTGtK.s:3037   .debug_str:00000000000001b4 .LASF64
     /tmp/cckaTGtK.s:3093   .debug_str:00000000000003fa .LASF65
     /tmp/cckaTGtK.s:2963   .debug_ranges:0000000000000000 .Ldebug_ranges0
     /tmp/cckaTGtK.s:2975   .debug_line:0000000000000000 .Ldebug_line0
     /tmp/cckaTGtK.s:3057   .debug_str:00000000000002f4 .LASF0
GAS LISTING /tmp/cckaTGtK.s 			page 24


     /tmp/cckaTGtK.s:2999   .debug_str:0000000000000084 .LASF1
     /tmp/cckaTGtK.s:3025   .debug_str:0000000000000155 .LASF2
     /tmp/cckaTGtK.s:2997   .debug_str:000000000000007d .LASF4
     /tmp/cckaTGtK.s:3033   .debug_str:0000000000000198 .LASF3
     /tmp/cckaTGtK.s:2983   .debug_str:0000000000000020 .LASF5
     /tmp/cckaTGtK.s:2977   .debug_str:0000000000000000 .LASF6
     /tmp/cckaTGtK.s:3017   .debug_str:0000000000000124 .LASF7
     /tmp/cckaTGtK.s:3069   .debug_str:0000000000000335 .LASF8
     /tmp/cckaTGtK.s:2995   .debug_str:000000000000006f .LASF9
     /tmp/cckaTGtK.s:3121   .debug_str:00000000000004bb .LASF10
     /tmp/cckaTGtK.s:3021   .debug_str:000000000000013f .LASF11
     /tmp/cckaTGtK.s:3103   .debug_str:0000000000000451 .LASF12
     /tmp/cckaTGtK.s:3075   .debug_str:000000000000037b .LASF13
     /tmp/cckaTGtK.s:3039   .debug_str:00000000000001c4 .LASF14
     /tmp/cckaTGtK.s:3007   .debug_str:00000000000000c6 .LASF15
     /tmp/cckaTGtK.s:3073   .debug_str:0000000000000365 .LASF16
     /tmp/cckaTGtK.s:3065   .debug_str:0000000000000322 .LASF17
     /tmp/cckaTGtK.s:3109   .debug_str:0000000000000475 .LASF22
     /tmp/cckaTGtK.s:3049   .debug_str:00000000000002c1 .LASF18
     /tmp/cckaTGtK.s:2993   .debug_str:0000000000000068 .LASF20
     /tmp/cckaTGtK.s:3013   .debug_str:0000000000000101 .LASF19
     /tmp/cckaTGtK.s:2987   .debug_str:0000000000000038 .LASF21
     /tmp/cckaTGtK.s:3023   .debug_str:000000000000014e .LASF23
     /tmp/cckaTGtK.s:3001   .debug_str:0000000000000097 .LASF24
     /tmp/cckaTGtK.s:3059   .debug_str:0000000000000301 .LASF25
     /tmp/cckaTGtK.s:3115   .debug_str:0000000000000493 .LASF26
     /tmp/cckaTGtK.s:3009   .debug_str:00000000000000dc .LASF27
     /tmp/cckaTGtK.s:3051   .debug_str:00000000000002d8 .LASF28
     /tmp/cckaTGtK.s:3089   .debug_str:00000000000003f0 .LASF29
     /tmp/cckaTGtK.s:3091   .debug_str:00000000000003f5 .LASF30
     /tmp/cckaTGtK.s:3029   .debug_str:0000000000000168 .LASF31
     /tmp/cckaTGtK.s:3097   .debug_str:0000000000000428 .LASF32
     /tmp/cckaTGtK.s:2985   .debug_str:0000000000000027 .LASF33
     /tmp/cckaTGtK.s:3019   .debug_str:0000000000000137 .LASF66
     /tmp/cckaTGtK.s:3041   .debug_str:00000000000001d0 .LASF45
     /tmp/cckaTGtK.s:3003   .debug_str:00000000000000aa .LASF35
     /tmp/cckaTGtK.s:3011   .debug_str:00000000000000e1 .LASF36
     /tmp/cckaTGtK.s:3043   .debug_str:00000000000001de .LASF67
     /tmp/cckaTGtK.s:3067   .debug_str:0000000000000327 .LASF68
     /tmp/cckaTGtK.s:3101   .debug_str:0000000000000442 .LASF34
     /tmp/cckaTGtK.s:3095   .debug_str:0000000000000418 .LASF69
     /tmp/cckaTGtK.s:3045   .debug_str:00000000000001e5 .LASF70
     /tmp/cckaTGtK.s:3031   .debug_str:000000000000016e .LASF37
     /tmp/cckaTGtK.s:3071   .debug_str:0000000000000345 .LASF38
     /tmp/cckaTGtK.s:3119   .debug_str:00000000000004b1 .LASF39
     /tmp/cckaTGtK.s:3027   .debug_str:0000000000000163 .LASF40
     /tmp/cckaTGtK.s:3099   .debug_str:0000000000000438 .LASF41
     /tmp/cckaTGtK.s:3015   .debug_str:0000000000000116 .LASF42
     /tmp/cckaTGtK.s:286    .text._ZN5timerD0Ev:0000000000000000 .LFB21
     /tmp/cckaTGtK.s:330    .text._ZN5timerD0Ev:0000000000000050 .LFE21
     /tmp/cckaTGtK.s:2793   .debug_loc:0000000000000000 .LLST6
     /tmp/cckaTGtK.s:302    .text._ZN5timerD0Ev:0000000000000018 .LBB19
     /tmp/cckaTGtK.s:313    .text._ZN5timerD0Ev:0000000000000030 .LBE19
     /tmp/cckaTGtK.s:2811   .debug_loc:000000000000004c .LLST7
     /tmp/cckaTGtK.s:303    .text._ZN5timerD0Ev:0000000000000018 .LBB20
     /tmp/cckaTGtK.s:312    .text._ZN5timerD0Ev:0000000000000030 .LBE20
     /tmp/cckaTGtK.s:310    .text._ZN5timerD0Ev:0000000000000030 .LVL28
GAS LISTING /tmp/cckaTGtK.s 			page 25


     /tmp/cckaTGtK.s:317    .text._ZN5timerD0Ev:000000000000003c .LVL29
     /tmp/cckaTGtK.s:3111   .debug_str:000000000000047f .LASF43
     /tmp/cckaTGtK.s:243    .text._ZN5timerD2Ev:0000000000000000 .LFB19
     /tmp/cckaTGtK.s:277    .text._ZN5timerD2Ev:0000000000000038 .LFE19
     /tmp/cckaTGtK.s:2822   .debug_loc:0000000000000082 .LLST4
     /tmp/cckaTGtK.s:256    .text._ZN5timerD2Ev:0000000000000010 .LBB17
     /tmp/cckaTGtK.s:266    .text._ZN5timerD2Ev:0000000000000028 .LBE17
     /tmp/cckaTGtK.s:2836   .debug_loc:00000000000000bb .LLST5
     /tmp/cckaTGtK.s:264    .text._ZN5timerD2Ev:0000000000000028 .LVL25
     /tmp/cckaTGtK.s:2981   .debug_str:000000000000001b .LASF44
     /tmp/cckaTGtK.s:3035   .debug_str:00000000000001aa .LASF46
     /tmp/cckaTGtK.s:630    .text:00000000000003cc .LFE17
     /tmp/cckaTGtK.s:2850   .debug_loc:00000000000000f4 .LLST9
     /tmp/cckaTGtK.s:423    .text:00000000000001c8 .LBB22
     /tmp/cckaTGtK.s:437    .text:00000000000001e4 .LBE22
     /tmp/cckaTGtK.s:2869   .debug_loc:0000000000000150 .LLST10
     /tmp/cckaTGtK.s:429    .text:00000000000001d4 .LVL39
     /tmp/cckaTGtK.s:371    .text:0000000000000140 .LVL31
     /tmp/cckaTGtK.s:378    .text:0000000000000158 .LVL32
     /tmp/cckaTGtK.s:387    .text:000000000000016c .LVL33
     /tmp/cckaTGtK.s:394    .text:0000000000000184 .LVL34
     /tmp/cckaTGtK.s:403    .text:0000000000000198 .LVL35
     /tmp/cckaTGtK.s:410    .text:00000000000001b0 .LVL36
     /tmp/cckaTGtK.s:419    .text:00000000000001c4 .LVL37
     /tmp/cckaTGtK.s:443    .text:00000000000001f0 .LVL41
     /tmp/cckaTGtK.s:449    .text:0000000000000200 .LVL42
     /tmp/cckaTGtK.s:458    .text:0000000000000214 .LVL43
     /tmp/cckaTGtK.s:464    .text:0000000000000224 .LVL44
     /tmp/cckaTGtK.s:473    .text:0000000000000238 .LVL45
     /tmp/cckaTGtK.s:479    .text:0000000000000248 .LVL46
     /tmp/cckaTGtK.s:489    .text:0000000000000260 .LVL47
     /tmp/cckaTGtK.s:494    .text:000000000000026c .LVL48
     /tmp/cckaTGtK.s:499    .text:0000000000000278 .LVL49
     /tmp/cckaTGtK.s:504    .text:0000000000000284 .LVL50
     /tmp/cckaTGtK.s:509    .text:0000000000000290 .LVL51
     /tmp/cckaTGtK.s:514    .text:000000000000029c .LVL52
     /tmp/cckaTGtK.s:519    .text:00000000000002a8 .LVL53
     /tmp/cckaTGtK.s:524    .text:00000000000002b4 .LVL54
     /tmp/cckaTGtK.s:529    .text:00000000000002c4 .LVL55
     /tmp/cckaTGtK.s:534    .text:00000000000002d4 .LVL56
     /tmp/cckaTGtK.s:539    .text:00000000000002e0 .LVL57
     /tmp/cckaTGtK.s:544    .text:00000000000002ec .LVL58
     /tmp/cckaTGtK.s:568    .text:0000000000000318 .LVL60
     /tmp/cckaTGtK.s:571    .text:0000000000000324 .LVL61
     /tmp/cckaTGtK.s:577    .text:0000000000000334 .LVL62
     /tmp/cckaTGtK.s:580    .text:0000000000000340 .LVL63
     /tmp/cckaTGtK.s:586    .text:0000000000000350 .LVL64
     /tmp/cckaTGtK.s:589    .text:000000000000035c .LVL65
     /tmp/cckaTGtK.s:595    .text:000000000000036c .LVL66
     /tmp/cckaTGtK.s:598    .text:0000000000000378 .LVL67
     /tmp/cckaTGtK.s:605    .text:0000000000000388 .LVL69
     /tmp/cckaTGtK.s:608    .text:0000000000000394 .LVL70
     /tmp/cckaTGtK.s:615    .text:00000000000003a4 .LVL72
     /tmp/cckaTGtK.s:618    .text:00000000000003b0 .LVL73
     /tmp/cckaTGtK.s:624    .text:00000000000003c0 .LVL74
     /tmp/cckaTGtK.s:627    .text:00000000000003cc .LVL75
     /tmp/cckaTGtK.s:187    .text._ZN5timer18periodicActivationEv:0000000000000000 .LFB16
GAS LISTING /tmp/cckaTGtK.s 			page 26


     /tmp/cckaTGtK.s:236    .text._ZN5timer18periodicActivationEv:0000000000000068 .LFE16
     /tmp/cckaTGtK.s:2884   .debug_loc:0000000000000199 .LLST3
     /tmp/cckaTGtK.s:207    .text._ZN5timer18periodicActivationEv:0000000000000028 .LVL19
     /tmp/cckaTGtK.s:217    .text._ZN5timer18periodicActivationEv:0000000000000044 .LVL20
     /tmp/cckaTGtK.s:222    .text._ZN5timer18periodicActivationEv:0000000000000054 .LVL21
     /tmp/cckaTGtK.s:3079   .debug_str:0000000000000393 .LASF47
     /tmp/cckaTGtK.s:3085   .debug_str:00000000000003c8 .LASF48
     /tmp/cckaTGtK.s:3083   .debug_str:00000000000003b0 .LASF49
     /tmp/cckaTGtK.s:3077   .debug_str:000000000000038b .LASF50
     /tmp/cckaTGtK.s:135    .text:00000000000000c8 .LFB4
     /tmp/cckaTGtK.s:173    .text:0000000000000114 .LFE4
     /tmp/cckaTGtK.s:2902   .debug_loc:00000000000001e5 .LLST2
     /tmp/cckaTGtK.s:152    .text:00000000000000e4 .LVL14
     /tmp/cckaTGtK.s:157    .text:00000000000000f4 .LVL15
     /tmp/cckaTGtK.s:162    .text:0000000000000104 .LVL16
     /tmp/cckaTGtK.s:3053   .debug_str:00000000000002dd .LASF51
     /tmp/cckaTGtK.s:86     .text:000000000000007c .LFB3
     /tmp/cckaTGtK.s:124    .text:00000000000000c8 .LFE3
     /tmp/cckaTGtK.s:2916   .debug_loc:000000000000021e .LLST1
     /tmp/cckaTGtK.s:103    .text:0000000000000098 .LVL9
     /tmp/cckaTGtK.s:108    .text:00000000000000a8 .LVL10
     /tmp/cckaTGtK.s:113    .text:00000000000000b8 .LVL11
     /tmp/cckaTGtK.s:2979   .debug_str:0000000000000013 .LASF52
     /tmp/cckaTGtK.s:15     .text:0000000000000000 .LFB2
     /tmp/cckaTGtK.s:75     .text:000000000000007c .LFE2
     /tmp/cckaTGtK.s:2930   .debug_loc:0000000000000257 .LLST0
     /tmp/cckaTGtK.s:36     .text:0000000000000028 .LVL2
     /tmp/cckaTGtK.s:41     .text:0000000000000034 .LVL3
     /tmp/cckaTGtK.s:57     .text:0000000000000058 .LVL5
     /tmp/cckaTGtK.s:62     .text:0000000000000068 .LVL6
     /tmp/cckaTGtK.s:3105   .debug_str:0000000000000461 .LASF53
     /tmp/cckaTGtK.s:3063   .debug_str:0000000000000312 .LASF54
     /tmp/cckaTGtK.s:3113   .debug_str:000000000000048d .LASF55
     /tmp/cckaTGtK.s:3107   .debug_str:0000000000000468 .LASF56
     /tmp/cckaTGtK.s:3087   .debug_str:00000000000003e0 .LASF57
     /tmp/cckaTGtK.s:3061   .debug_str:0000000000000307 .LASF58
     /tmp/cckaTGtK.s:2991   .debug_str:0000000000000055 .LASF59
     /tmp/cckaTGtK.s:3117   .debug_str:00000000000004a5 .LASF60
     /tmp/cckaTGtK.s:3055   .debug_str:00000000000002e5 .LASF71
     /tmp/cckaTGtK.s:2989   .debug_str:000000000000003d .LASF72
     /tmp/cckaTGtK.s:3081   .debug_str:00000000000003a1 .LASF61
     /tmp/cckaTGtK.s:3005   .debug_str:00000000000000bd .LASF62
     /tmp/cckaTGtK.s:289    .text._ZN5timerD0Ev:0000000000000000 .LVL26
     /tmp/cckaTGtK.s:325    .text._ZN5timerD0Ev:0000000000000048 .LVL30
     /tmp/cckaTGtK.s:301    .text._ZN5timerD0Ev:0000000000000018 .LVL27
     /tmp/cckaTGtK.s:246    .text._ZN5timerD2Ev:0000000000000000 .LVL23
     /tmp/cckaTGtK.s:255    .text._ZN5timerD2Ev:0000000000000010 .LVL24
     /tmp/cckaTGtK.s:435    .text:00000000000001e4 .LVL40
     /tmp/cckaTGtK.s:556    .text:00000000000002fc .LVL59
     /tmp/cckaTGtK.s:601    .text:000000000000037c .LVL68
     /tmp/cckaTGtK.s:611    .text:0000000000000398 .LVL71
     /tmp/cckaTGtK.s:422    .text:00000000000001c8 .LVL38
     /tmp/cckaTGtK.s:190    .text._ZN5timer18periodicActivationEv:0000000000000000 .LVL17
     /tmp/cckaTGtK.s:205    .text._ZN5timer18periodicActivationEv:0000000000000020 .LVL18
     /tmp/cckaTGtK.s:231    .text._ZN5timer18periodicActivationEv:0000000000000060 .LVL22
     /tmp/cckaTGtK.s:138    .text:00000000000000c8 .LVL12
     /tmp/cckaTGtK.s:150    .text:00000000000000dc .LVL13
GAS LISTING /tmp/cckaTGtK.s 			page 27


     /tmp/cckaTGtK.s:89     .text:000000000000007c .LVL7
     /tmp/cckaTGtK.s:101    .text:0000000000000090 .LVL8
     /tmp/cckaTGtK.s:19     .text:0000000000000000 .LVL0
     /tmp/cckaTGtK.s:34     .text:0000000000000020 .LVL1
     /tmp/cckaTGtK.s:751    .debug_info:0000000000000000 .Ldebug_info0
     /tmp/cckaTGtK.s:5      .text:0000000000000000 .Ltext0
     /tmp/cckaTGtK.s:746    .text:00000000000003cc .Letext0
     /tmp/cckaTGtK.s:633    .gcc_except_table:0000000000000000 .LLSDA17
                           .group:0000000000000000 _ZN5timerD5Ev

UNDEFINED SYMBOLS
_ZN9Semaphore4waitEv
_Z10time_sleepm
_Z11printStringPKc
_ZN9Semaphore6signalEv
_Z8printIntiii
_ZTV14PeriodicThread
_ZN6ThreadD2Ev
_ZdlPv
_Znwm
_ZN6ThreadC1EPFvPvES0_
_ZN14PeriodicThreadC2Em
_ZN9SemaphoreC1Ej
_ZN6Thread5startEv
_ZN6Thread4joinEv
_ZN14PeriodicThread9terminateEv
_Unwind_Resume
__gxx_personality_v0
_ZN14PeriodicThread3runEv
