GAS LISTING /tmp/ccVFa7p8.s 			page 1


   1              		.file	"testFunctions.cpp"
   2              		.option pic
   3              		.option norelax
   4              		.text
   5              	.Ltext0:
   6              		.align	2
   7              		.globl	_Z12printIntegeri
   9              	_Z12printIntegeri:
  10              	.LFB43:
  11              		.file 1 "src/testFunctions.cpp"
   1:src/testFunctions.cpp **** //
   2:src/testFunctions.cpp **** // Created by os on 5/29/23.
   3:src/testFunctions.cpp **** //
   4:src/testFunctions.cpp **** #include "../h/MemoryAllocator.hpp"
   5:src/testFunctions.cpp **** #include "../h/helper.hpp"
   6:src/testFunctions.cpp **** #include "../lib/console.h"
   7:src/testFunctions.cpp **** #include "../lib/hw.h"
   8:src/testFunctions.cpp **** #include "../h/helper.hpp"
   9:src/testFunctions.cpp **** #include "../h/Riscv.hpp"
  10:src/testFunctions.cpp **** #include "../h/syscall_c.hpp"
  11:src/testFunctions.cpp **** #include "../h/syscall_cpp.hpp"
  12:src/testFunctions.cpp **** #include "../h/List.hpp"
  13:src/testFunctions.cpp **** //#include "../h/MemoryAllocator.hpp"
  14:src/testFunctions.cpp **** #include "../h/TCB.hpp"
  15:src/testFunctions.cpp **** #include "../h/ThreadQueue.hpp"
  16:src/testFunctions.cpp **** //#include "../h/KSem.hpp"
  17:src/testFunctions.cpp **** 
  18:src/testFunctions.cpp **** #include "../test/printing.hpp"
  19:src/testFunctions.cpp **** void printInteger(int i){
  12              		.loc 1 19 25
  13              		.cfi_startproc
  14              	.LVL0:
  15 0000 130101FF 		addi	sp,sp,-16
  16              		.cfi_def_cfa_offset 16
  17 0004 23341100 		sd	ra,8(sp)
  18 0008 23308100 		sd	s0,0(sp)
  19              		.cfi_offset 1, -8
  20              		.cfi_offset 8, -16
  21 000c 13040101 		addi	s0,sp,16
  22              		.cfi_def_cfa 8, 0
  20:src/testFunctions.cpp **** 	printInt(i);
  23              		.loc 1 20 2
  24              		.loc 1 20 10 is_stmt 0
  25 0010 13060000 		li	a2,0
  26 0014 9305A000 		li	a1,10
  27 0018 97000000 		call	_Z8printIntiii@plt
  27      E7800000 
  28              	.LVL1:
  21:src/testFunctions.cpp **** }
  29              		.loc 1 21 1
  30 0020 83308100 		ld	ra,8(sp)
  31              		.cfi_restore 1
  32 0024 03340100 		ld	s0,0(sp)
  33              		.cfi_restore 8
  34              		.cfi_def_cfa 2, 16
  35 0028 13010101 		addi	sp,sp,16
  36              		.cfi_def_cfa_offset 0
GAS LISTING /tmp/ccVFa7p8.s 			page 2


  37 002c 67800000 		jr	ra
  38              		.cfi_endproc
  39              	.LFE43:
  41              		.align	2
  42              		.globl	_Z10testMemoryv
  44              	_Z10testMemoryv:
  45              	.LFB44:
  22:src/testFunctions.cpp **** extern Semaphore* semA;
  23:src/testFunctions.cpp **** 
  24:src/testFunctions.cpp **** void testMemory() {
  46              		.loc 1 24 19 is_stmt 1
  47              		.cfi_startproc
  48 0030 13010181 		addi	sp,sp,-2032
  49              		.cfi_def_cfa_offset 2032
  50 0034 2334117E 		sd	ra,2024(sp)
  51 0038 2330817E 		sd	s0,2016(sp)
  52 003c 233C917C 		sd	s1,2008(sp)
  53              		.cfi_offset 1, -8
  54              		.cfi_offset 8, -16
  55              		.cfi_offset 9, -24
  56 0040 1304017F 		addi	s0,sp,2032
  57              		.cfi_def_cfa 8, 0
  58 0044 13010183 		addi	sp,sp,-2000
  25:src/testFunctions.cpp **** 	const uint64 NumAllocations = 500;    //zasto nece za preko 500????
  59              		.loc 1 25 2
  60              	.LVL2:
  26:src/testFunctions.cpp **** 	const uint64 AllocationSize = 16;
  61              		.loc 1 26 2
  27:src/testFunctions.cpp **** 
  28:src/testFunctions.cpp **** 	// Allocate and initialize pointers
  29:src/testFunctions.cpp **** 	int* allocations[NumAllocations];
  62              		.loc 1 29 2
  30:src/testFunctions.cpp **** 	for (uint64 i = 0; i < NumAllocations; ++i)
  63              		.loc 1 30 2
  64              	.LBB2:
  65              		.loc 1 30 14 is_stmt 0
  66 0048 13070000 		li	a4,0
  67              	.LVL3:
  68              	.L5:
  69              		.loc 1 30 23 is_stmt 1 discriminator 3
  70 004c 9307301F 		li	a5,499
  71 0050 63E2E702 		bgtu	a4,a5,.L10
  31:src/testFunctions.cpp **** 		allocations[i] = nullptr;
  72              		.loc 1 31 3 discriminator 2
  73              		.loc 1 31 18 is_stmt 0 discriminator 2
  74 0054 B7F7FFFF 		li	a5,-4096
  75 0058 93163700 		slli	a3,a4,3
  76 005c 130604FE 		addi	a2,s0,-32
  77 0060 B307F600 		add	a5,a2,a5
  78 0064 B387D700 		add	a5,a5,a3
  79 0068 23B00706 		sd	zero,96(a5)
  30:src/testFunctions.cpp **** 	for (uint64 i = 0; i < NumAllocations; ++i)
  80              		.loc 1 30 2 is_stmt 1 discriminator 2
  81 006c 13071700 		addi	a4,a4,1
  82              	.LVL4:
  83 0070 6FF0DFFD 		j	.L5
  84              	.L10:
GAS LISTING /tmp/ccVFa7p8.s 			page 3


  85              	.LBE2:
  86              	.LBB3:
  32:src/testFunctions.cpp **** 
  33:src/testFunctions.cpp **** 	// Allocate memory
  34:src/testFunctions.cpp **** 	for (uint64 i = 0; i < NumAllocations; ++i) {
  87              		.loc 1 34 14 is_stmt 0
  88 0074 93040000 		li	s1,0
  89              	.LVL5:
  90              	.L4:
  91              		.loc 1 34 23 is_stmt 1 discriminator 1
  92 0078 9307301F 		li	a5,499
  93 007c 63EC9702 		bgtu	s1,a5,.L6
  35:src/testFunctions.cpp **** 		allocations[i] = static_cast<int*>(MemoryAllocator::kmalloc(AllocationSize, MemoryAllocator::MISC
  94              		.loc 1 35 3
  95              		.loc 1 35 62 is_stmt 0
  96 0080 93053000 		li	a1,3
  97 0084 13050001 		li	a0,16
  98 0088 97000000 		call	_ZN15MemoryAllocator7kmallocEmNS_7PurposeE@plt
  98      E7800000 
  99              	.LVL6:
 100              		.loc 1 35 18
 101 0090 37F7FFFF 		li	a4,-4096
 102 0094 93973400 		slli	a5,s1,3
 103 0098 930604FE 		addi	a3,s0,-32
 104 009c 3387E600 		add	a4,a3,a4
 105 00a0 B307F700 		add	a5,a4,a5
 106 00a4 23B0A706 		sd	a0,96(a5)
  36:src/testFunctions.cpp **** 		if (allocations[i] == nullptr) {
 107              		.loc 1 36 3 is_stmt 1
 108 00a8 63060500 		beqz	a0,.L6
  34:src/testFunctions.cpp **** 		allocations[i] = static_cast<int*>(MemoryAllocator::kmalloc(AllocationSize, MemoryAllocator::MISC
 109              		.loc 1 34 2 discriminator 2
 110 00ac 93841400 		addi	s1,s1,1
 111              	.LVL7:
 112 00b0 6FF09FFC 		j	.L4
 113              	.L6:
  34:src/testFunctions.cpp **** 		allocations[i] = static_cast<int*>(MemoryAllocator::kmalloc(AllocationSize, MemoryAllocator::MISC
 114              		.loc 1 34 14 is_stmt 0 discriminator 1
 115 00b4 93040000 		li	s1,0
 116              	.LVL8:
 117 00b8 6F000001 		j	.L9
 118              	.LVL9:
 119              	.L12:
 120              	.LBE3:
 121              	.LBB4:
  37:src/testFunctions.cpp **** //			printString("\nAllocation failed for index ");
  38:src/testFunctions.cpp **** //			printInteger(i);
  39:src/testFunctions.cpp **** 			break;
  40:src/testFunctions.cpp **** 		}
  41:src/testFunctions.cpp **** 	}
  42:src/testFunctions.cpp **** 
  43:src/testFunctions.cpp **** 	// Free memory
  44:src/testFunctions.cpp **** 	for (uint64 i = 0; i < NumAllocations; ++i) {
  45:src/testFunctions.cpp **** 		if (allocations[i] != nullptr) {
  46:src/testFunctions.cpp **** 			if (MemoryAllocator::kfree(allocations[i]) != 0) {
 122              		.loc 1 46 4 is_stmt 1
 123              		.loc 1 46 30 is_stmt 0
GAS LISTING /tmp/ccVFa7p8.s 			page 4


 124 00bc 97000000 		call	_ZN15MemoryAllocator5kfreeEPv@plt
 124      E7800000 
 125              	.LVL10:
 126              	.L8:
  44:src/testFunctions.cpp **** 		if (allocations[i] != nullptr) {
 127              		.loc 1 44 2 is_stmt 1 discriminator 2
 128 00c4 93841400 		addi	s1,s1,1
 129              	.LVL11:
 130              	.L9:
  44:src/testFunctions.cpp **** 		if (allocations[i] != nullptr) {
 131              		.loc 1 44 23 discriminator 1
 132 00c8 9307301F 		li	a5,499
 133 00cc 63E29702 		bgtu	s1,a5,.L3
  45:src/testFunctions.cpp **** 			if (MemoryAllocator::kfree(allocations[i]) != 0) {
 134              		.loc 1 45 3
  45:src/testFunctions.cpp **** 			if (MemoryAllocator::kfree(allocations[i]) != 0) {
 135              		.loc 1 45 20 is_stmt 0
 136 00d0 37F7FFFF 		li	a4,-4096
 137 00d4 93973400 		slli	a5,s1,3
 138 00d8 930604FE 		addi	a3,s0,-32
 139 00dc 3387E600 		add	a4,a3,a4
 140 00e0 B307F700 		add	a5,a4,a5
 141 00e4 03B50706 		ld	a0,96(a5)
  45:src/testFunctions.cpp **** 			if (MemoryAllocator::kfree(allocations[i]) != 0) {
 142              		.loc 1 45 3
 143 00e8 E31A05FC 		bnez	a0,.L12
 144 00ec 6FF09FFD 		j	.L8
 145              	.L3:
 146              	.LBE4:
  47:src/testFunctions.cpp **** //				printString("\nDeallocation failed for index ");
  48:src/testFunctions.cpp **** //				printInteger(i);
  49:src/testFunctions.cpp **** 			}
  50:src/testFunctions.cpp **** 		}
  51:src/testFunctions.cpp **** 	}
  52:src/testFunctions.cpp **** }
 147              		.loc 1 52 1
 148 00f0 1301017D 		addi	sp,sp,2000
 149              		.cfi_def_cfa 2, 2032
 150 00f4 8330817E 		ld	ra,2024(sp)
 151              		.cfi_restore 1
 152 00f8 0334017E 		ld	s0,2016(sp)
 153              		.cfi_restore 8
 154 00fc 8334817D 		ld	s1,2008(sp)
 155              		.cfi_restore 9
 156              	.LVL12:
 157 0100 1301017F 		addi	sp,sp,2032
 158              		.cfi_def_cfa_offset 0
 159 0104 67800000 		jr	ra
 160              		.cfi_endproc
 161              	.LFE44:
 163              		.section	.rodata.str1.8,"aMS",@progbits,1
 164              		.align	3
 165              	.LC0:
 166 0000 0A4E6974 		.string	"\nNit 1 dolazi na semafor\n"
 166      20312064 
 166      6F6C617A 
 166      69206E61 
GAS LISTING /tmp/ccVFa7p8.s 			page 5


 166      2073656D 
 167 001a 00000000 		.align	3
 167      0000
 168              	.LC1:
 169 0020 0A4E6974 		.string	"\nNit 1 cekala na semaforu\n"
 169      20312063 
 169      656B616C 
 169      61206E61 
 169      2073656D 
 170 003b 00000000 		.align	3
 170      00
 171              	.LC2:
 172 0040 0A4E6974 		.string	"\nNit 1 nije cekala\n"
 172      2031206E 
 172      696A6520 
 172      63656B61 
 172      6C610A00 
 173 0054 00000000 		.align	3
 174              	.LC3:
 175 0058 0A73656D 		.string	"\nsem_wait za nit 1 vratio "
 175      5F776169 
 175      74207A61 
 175      206E6974 
 175      20312076 
 176 0073 00000000 		.align	3
 176      00
 177              	.LC4:
 178 0078 0A00     		.string	"\n"
 179 007a 00000000 		.align	3
 179      0000
 180              	.LC5:
 181 0080 0A476F74 		.string	"\nGotova nit 1\n"
 181      6F766120 
 181      6E697420 
 181      310A00
 182              		.text
 183              		.align	2
 184              		.globl	_Z5nit1fPv
 186              	_Z5nit1fPv:
 187              	.LFB45:
  53:src/testFunctions.cpp **** 
  54:src/testFunctions.cpp **** void nit1f(void*) {
 188              		.loc 1 54 19 is_stmt 1
 189              		.cfi_startproc
 190 0108 130101FE 		addi	sp,sp,-32
 191              		.cfi_def_cfa_offset 32
 192 010c 233C1100 		sd	ra,24(sp)
 193 0110 23388100 		sd	s0,16(sp)
 194 0114 23349100 		sd	s1,8(sp)
 195 0118 23302101 		sd	s2,0(sp)
 196              		.cfi_offset 1, -8
 197              		.cfi_offset 8, -16
 198              		.cfi_offset 9, -24
 199              		.cfi_offset 18, -32
 200 011c 13040102 		addi	s0,sp,32
 201              		.cfi_def_cfa 8, 0
  55:src/testFunctions.cpp **** 	for(int i=0;i<3;i++){
GAS LISTING /tmp/ccVFa7p8.s 			page 6


 202              		.loc 1 55 2
 203              	.LVL13:
 204              	.LBB5:
 205              		.loc 1 55 10 is_stmt 0
 206 0120 13090000 		li	s2,0
 207 0124 6F004004 		j	.L17
 208              	.LVL14:
 209              	.L15:
 210              	.LBB6:
  56:src/testFunctions.cpp **** 		printString("\nNit 1 dolazi na semafor\n");
  57:src/testFunctions.cpp **** 		//int res = sem_wait(semA);
  58:src/testFunctions.cpp **** 		int res = (*semA).wait();
  59:src/testFunctions.cpp **** 		if(res){
  60:src/testFunctions.cpp **** 			printString("\nNit 1 cekala na semaforu\n");
  61:src/testFunctions.cpp **** 		}
  62:src/testFunctions.cpp **** 		else{
  63:src/testFunctions.cpp **** 			printString("\nNit 1 nije cekala\n");
 211              		.loc 1 63 4 is_stmt 1
 212              		.loc 1 63 15 is_stmt 0
 213 0128 17050000 		lla	a0,.LC2
 213      13050500 
 214              	.LVL15:
 215 0130 97000000 		call	_Z11printStringPKc@plt
 215      E7800000 
 216              	.LVL16:
 217              	.L16:
  64:src/testFunctions.cpp **** 		}
  65:src/testFunctions.cpp **** 		printString("\nsem_wait za nit 1 vratio ");
 218              		.loc 1 65 3 is_stmt 1 discriminator 2
 219              		.loc 1 65 14 is_stmt 0 discriminator 2
 220 0138 17050000 		lla	a0,.LC3
 220      13050500 
 221 0140 97000000 		call	_Z11printStringPKc@plt
 221      E7800000 
 222              	.LVL17:
  66:src/testFunctions.cpp **** 		printInteger(res);
 223              		.loc 1 66 3 is_stmt 1 discriminator 2
 224              		.loc 1 66 15 is_stmt 0 discriminator 2
 225 0148 13850400 		mv	a0,s1
 226 014c 97000000 		call	_Z12printIntegeri
 226      E7800000 
 227              	.LVL18:
  67:src/testFunctions.cpp **** 		printString("\n");
 228              		.loc 1 67 3 is_stmt 1 discriminator 2
 229              		.loc 1 67 14 is_stmt 0 discriminator 2
 230 0154 17050000 		lla	a0,.LC4
 230      13050500 
 231 015c 97000000 		call	_Z11printStringPKc@plt
 231      E7800000 
 232              	.LVL19:
 233              	.LBE6:
  55:src/testFunctions.cpp **** 		printString("\nNit 1 dolazi na semafor\n");
 234              		.loc 1 55 2 is_stmt 1 discriminator 2
 235 0164 1B091900 		addiw	s2,s2,1
 236              	.LVL20:
 237              	.L17:
  55:src/testFunctions.cpp **** 		printString("\nNit 1 dolazi na semafor\n");
GAS LISTING /tmp/ccVFa7p8.s 			page 7


 238              		.loc 1 55 15 discriminator 1
 239 0168 93072000 		li	a5,2
 240 016c 63C22705 		bgt	s2,a5,.L14
 241              	.LBB7:
  56:src/testFunctions.cpp **** 		//int res = sem_wait(semA);
 242              		.loc 1 56 3
  56:src/testFunctions.cpp **** 		//int res = sem_wait(semA);
 243              		.loc 1 56 14 is_stmt 0
 244 0170 17050000 		lla	a0,.LC0
 244      13050500 
 245 0178 97000000 		call	_Z11printStringPKc@plt
 245      E7800000 
 246              	.LVL21:
  58:src/testFunctions.cpp **** 		if(res){
 247              		.loc 1 58 3 is_stmt 1
  58:src/testFunctions.cpp **** 		if(res){
 248              		.loc 1 58 25 is_stmt 0
 249 0180 97070000 		la	a5,semA
 249      83B70700 
 250 0188 03B50700 		ld	a0,0(a5)
 251 018c 97000000 		call	_ZN9Semaphore4waitEv@plt
 251      E7800000 
 252              	.LVL22:
 253 0194 93040500 		mv	s1,a0
 254              	.LVL23:
  59:src/testFunctions.cpp **** 			printString("\nNit 1 cekala na semaforu\n");
 255              		.loc 1 59 3 is_stmt 1
 256 0198 E30805F8 		beqz	a0,.L15
  60:src/testFunctions.cpp **** 		}
 257              		.loc 1 60 4
  60:src/testFunctions.cpp **** 		}
 258              		.loc 1 60 15 is_stmt 0
 259 019c 17050000 		lla	a0,.LC1
 259      13050500 
 260              	.LVL24:
 261 01a4 97000000 		call	_Z11printStringPKc@plt
 261      E7800000 
 262              	.LVL25:
 263 01ac 6FF0DFF8 		j	.L16
 264              	.L14:
 265              	.LBE7:
 266              	.LBE5:
  68:src/testFunctions.cpp **** 	}
  69:src/testFunctions.cpp **** 
  70:src/testFunctions.cpp **** 	printString("\nGotova nit 1\n");
 267              		.loc 1 70 2 is_stmt 1
 268              		.loc 1 70 13 is_stmt 0
 269 01b0 17050000 		lla	a0,.LC5
 269      13050500 
 270 01b8 97000000 		call	_Z11printStringPKc@plt
 270      E7800000 
 271              	.LVL26:
  71:src/testFunctions.cpp **** }
 272              		.loc 1 71 1
 273 01c0 83308101 		ld	ra,24(sp)
 274              		.cfi_restore 1
 275 01c4 03340101 		ld	s0,16(sp)
GAS LISTING /tmp/ccVFa7p8.s 			page 8


 276              		.cfi_restore 8
 277              		.cfi_def_cfa 2, 32
 278 01c8 83348100 		ld	s1,8(sp)
 279              		.cfi_restore 9
 280 01cc 03390100 		ld	s2,0(sp)
 281              		.cfi_restore 18
 282              	.LVL27:
 283 01d0 13010102 		addi	sp,sp,32
 284              		.cfi_def_cfa_offset 0
 285 01d4 67800000 		jr	ra
 286              		.cfi_endproc
 287              	.LFE45:
 289              		.section	.rodata.str1.8
 290 008f 00       		.align	3
 291              	.LC6:
 292 0090 0A4E6974 		.string	"\nNit 2 daje signal\n"
 292      20322064 
 292      616A6520 
 292      7369676E 
 292      616C0A00 
 293 00a4 00000000 		.align	3
 294              	.LC7:
 295 00a8 0A506F76 		.string	"\nPovratna vrednost signala je "
 295      7261746E 
 295      61207672 
 295      65646E6F 
 295      73742073 
 296 00c7 00       		.align	3
 297              	.LC8:
 298 00c8 0A4E6974 		.string	"\nNit 2 ubija semafor\n"
 298      20322075 
 298      62696A61 
 298      2073656D 
 298      61666F72 
 299 00de 0000     		.align	3
 300              	.LC9:
 301 00e0 0A476F74 		.string	"\nGotova nit 2\n"
 301      6F766120 
 301      6E697420 
 301      320A00
 302              		.text
 303              		.align	2
 304              		.globl	_Z5nit2fPv
 306              	_Z5nit2fPv:
 307              	.LFB46:
  72:src/testFunctions.cpp **** 
  73:src/testFunctions.cpp **** void nit2f(void* arg2) {
 308              		.loc 1 73 24 is_stmt 1
 309              		.cfi_startproc
 310              	.LVL28:
 311 01d8 130101FD 		addi	sp,sp,-48
 312              		.cfi_def_cfa_offset 48
 313 01dc 23341102 		sd	ra,40(sp)
 314 01e0 23308102 		sd	s0,32(sp)
 315 01e4 233C9100 		sd	s1,24(sp)
 316 01e8 23382101 		sd	s2,16(sp)
 317 01ec 23343101 		sd	s3,8(sp)
GAS LISTING /tmp/ccVFa7p8.s 			page 9


 318              		.cfi_offset 1, -8
 319              		.cfi_offset 8, -16
 320              		.cfi_offset 9, -24
 321              		.cfi_offset 18, -32
 322              		.cfi_offset 19, -40
 323 01f0 13040103 		addi	s0,sp,48
 324              		.cfi_def_cfa 8, 0
  74:src/testFunctions.cpp **** 	for(int i=0;i<3;i++){
 325              		.loc 1 74 2
 326              	.LVL29:
 327              	.LBB8:
 328              		.loc 1 74 10 is_stmt 0
 329 01f4 13090000 		li	s2,0
 330 01f8 6F008000 		j	.L22
 331              	.LVL30:
 332              	.L21:
 333              		.loc 1 74 2 is_stmt 1 discriminator 2
 334 01fc 1B091900 		addiw	s2,s2,1
 335              	.LVL31:
 336              	.L22:
 337              		.loc 1 74 15 discriminator 1
 338 0200 93072000 		li	a5,2
 339 0204 63C02709 		bgt	s2,a5,.L20
 340              	.LBB9:
  75:src/testFunctions.cpp **** 		printString("\nNit 2 daje signal\n");
 341              		.loc 1 75 3
 342              		.loc 1 75 14 is_stmt 0
 343 0208 17050000 		lla	a0,.LC6
 343      13050500 
 344 0210 97000000 		call	_Z11printStringPKc@plt
 344      E7800000 
 345              	.LVL32:
  76:src/testFunctions.cpp **** 		//sem_signal(semA);
  77:src/testFunctions.cpp **** 		int res = (*semA).signal();
 346              		.loc 1 77 3 is_stmt 1
 347              		.loc 1 77 27 is_stmt 0
 348 0218 97090000 		la	s3,semA
 348      83B90900 
 349 0220 03B50900 		ld	a0,0(s3)
 350 0224 97000000 		call	_ZN9Semaphore6signalEv@plt
 350      E7800000 
 351              	.LVL33:
 352 022c 93040500 		mv	s1,a0
 353              	.LVL34:
  78:src/testFunctions.cpp **** 		printString("\nPovratna vrednost signala je ");
 354              		.loc 1 78 3 is_stmt 1
 355              		.loc 1 78 14 is_stmt 0
 356 0230 17050000 		lla	a0,.LC7
 356      13050500 
 357 0238 97000000 		call	_Z11printStringPKc@plt
 357      E7800000 
 358              	.LVL35:
  79:src/testFunctions.cpp **** 		printInteger(res);
 359              		.loc 1 79 3 is_stmt 1
 360              		.loc 1 79 15 is_stmt 0
 361 0240 13850400 		mv	a0,s1
 362 0244 97000000 		call	_Z12printIntegeri
GAS LISTING /tmp/ccVFa7p8.s 			page 10


 362      E7800000 
 363              	.LVL36:
  80:src/testFunctions.cpp **** 		printString("\n");
 364              		.loc 1 80 3 is_stmt 1
 365              		.loc 1 80 14 is_stmt 0
 366 024c 17050000 		lla	a0,.LC4
 366      13050500 
 367 0254 97000000 		call	_Z11printStringPKc@plt
 367      E7800000 
 368              	.LVL37:
  81:src/testFunctions.cpp **** 		//sem_close(semA);
  82:src/testFunctions.cpp **** 		printString("\nNit 2 ubija semafor\n");
 369              		.loc 1 82 3 is_stmt 1
 370              		.loc 1 82 14 is_stmt 0
 371 025c 17050000 		lla	a0,.LC8
 371      13050500 
 372 0264 97000000 		call	_Z11printStringPKc@plt
 372      E7800000 
 373              	.LVL38:
  83:src/testFunctions.cpp **** 		delete semA;
 374              		.loc 1 83 3 is_stmt 1
 375              		.loc 1 83 10 is_stmt 0
 376 026c 03B50900 		ld	a0,0(s3)
 377              		.loc 1 83 14
 378 0270 E30605F8 		beqz	a0,.L21
 379              		.loc 1 83 10 discriminator 1
 380 0274 83370500 		ld	a5,0(a0)
 381 0278 83B78700 		ld	a5,8(a5)
 382 027c E7800700 		jalr	a5
 383              	.LVL39:
 384 0280 6FF0DFF7 		j	.L21
 385              	.LVL40:
 386              	.L20:
 387              	.LBE9:
 388              	.LBE8:
  84:src/testFunctions.cpp **** 
  85:src/testFunctions.cpp **** 	}
  86:src/testFunctions.cpp **** 	printString("\nGotova nit 2\n");
 389              		.loc 1 86 2 is_stmt 1
 390              		.loc 1 86 13 is_stmt 0
 391 0284 17050000 		lla	a0,.LC9
 391      13050500 
 392 028c 97000000 		call	_Z11printStringPKc@plt
 392      E7800000 
 393              	.LVL41:
  87:src/testFunctions.cpp **** }
 394              		.loc 1 87 1
 395 0294 83308102 		ld	ra,40(sp)
 396              		.cfi_restore 1
 397 0298 03340102 		ld	s0,32(sp)
 398              		.cfi_restore 8
 399              		.cfi_def_cfa 2, 48
 400 029c 83348101 		ld	s1,24(sp)
 401              		.cfi_restore 9
 402 02a0 03390101 		ld	s2,16(sp)
 403              		.cfi_restore 18
 404              	.LVL42:
GAS LISTING /tmp/ccVFa7p8.s 			page 11


 405 02a4 83398100 		ld	s3,8(sp)
 406              		.cfi_restore 19
 407 02a8 13010103 		addi	sp,sp,48
 408              		.cfi_def_cfa_offset 0
 409 02ac 67800000 		jr	ra
 410              		.cfi_endproc
 411              	.LFE46:
 413              		.section	.rodata.str1.8
 414 00ef 00       		.align	3
 415              	.LC10:
 416 00f0 0A476F74 		.string	"\nGotova nit3\n"
 416      6F766120 
 416      6E697433 
 416      0A00
 417              		.text
 418              		.align	2
 419              		.globl	_Z5nit3fPv
 421              	_Z5nit3fPv:
 422              	.LFB47:
  88:src/testFunctions.cpp **** 
  89:src/testFunctions.cpp **** 
  90:src/testFunctions.cpp **** void nit3f(void*) {
 423              		.loc 1 90 19 is_stmt 1
 424              		.cfi_startproc
 425 02b0 130101FF 		addi	sp,sp,-16
 426              		.cfi_def_cfa_offset 16
 427 02b4 23341100 		sd	ra,8(sp)
 428 02b8 23308100 		sd	s0,0(sp)
 429              		.cfi_offset 1, -8
 430              		.cfi_offset 8, -16
 431 02bc 13040101 		addi	s0,sp,16
 432              		.cfi_def_cfa 8, 0
  91:src/testFunctions.cpp **** //	for (int i = 0; i < 20; i++) {
  92:src/testFunctions.cpp **** //		printInteger(i);
  93:src/testFunctions.cpp **** //		printString("\n");
  94:src/testFunctions.cpp **** //		sem_wait(semA);
  95:src/testFunctions.cpp **** //		printString("Nit 3 prosla semafor\n");
  96:src/testFunctions.cpp **** //		time_sleep(10);
  97:src/testFunctions.cpp **** //	}
  98:src/testFunctions.cpp **** 	printString("\nGotova nit3\n");
 433              		.loc 1 98 2
 434              		.loc 1 98 13 is_stmt 0
 435 02c0 17050000 		lla	a0,.LC10
 435      13050500 
 436 02c8 97000000 		call	_Z11printStringPKc@plt
 436      E7800000 
 437              	.LVL43:
  99:src/testFunctions.cpp **** }...
 438              		.loc 1 99 1
 439 02d0 83308100 		ld	ra,8(sp)
 440              		.cfi_restore 1
 441 02d4 03340100 		ld	s0,0(sp)
 442              		.cfi_restore 8
 443              		.cfi_def_cfa 2, 16
 444 02d8 13010101 		addi	sp,sp,16
 445              		.cfi_def_cfa_offset 0
 446 02dc 67800000 		jr	ra
GAS LISTING /tmp/ccVFa7p8.s 			page 12


 447              		.cfi_endproc
 448              	.LFE47:
 450              	.Letext0:
 451              		.file 2 "src/../h/../lib/hw.h"
 452              		.file 3 "src/../h/MemoryAllocator.hpp"
 453              		.file 4 "src/../h/syscall_cpp.hpp"
 454              		.file 5 "src/../h/syscall_c.hpp"
 455              		.file 6 "src/../test/printing.hpp"
GAS LISTING /tmp/ccVFa7p8.s 			page 13

