GAS LISTING /tmp/ccAUj7GT.s 			page 1


   1              		.file	"testFunctions.cpp"
   2              		.option pic
   3              		.option norelax
   4              		.text
   5              	.Ltext0:
   6              		.align	2
   7              		.globl	_Z10testMemoryv
   9              	_Z10testMemoryv:
  10              	.LFB43:
  11              		.file 1 "src/testFunctions.cpp"
   1:src/testFunctions.cpp **** //
   2:src/testFunctions.cpp **** // Created by os on 5/29/23.
   3:src/testFunctions.cpp **** //
   4:src/testFunctions.cpp **** #include "../h/MemoryAllocator.hpp"
   5:src/testFunctions.cpp **** #include "../h/helper.hpp"
   6:src/testFunctions.cpp **** #include "../lib/console.h"
   7:src/testFunctions.cpp **** #include "../lib/hw.h"
   8:src/testFunctions.cpp **** #include "../h/helper.hpp"
   9:src/testFunctions.cpp **** #include "../h/Riscv.hpp"
  10:src/testFunctions.cpp **** #include "../h/syscall_c.hpp"
  11:src/testFunctions.cpp **** #include "../h/syscall_cpp.hpp"
  12:src/testFunctions.cpp **** #include "../h/List.hpp"
  13:src/testFunctions.cpp **** //#include "../h/MemoryAllocator.hpp"
  14:src/testFunctions.cpp **** #include "../h/TCB.hpp"
  15:src/testFunctions.cpp **** #include "../h/ThreadQueue.hpp"
  16:src/testFunctions.cpp **** //#include "../h/KSem.hpp"
  17:src/testFunctions.cpp **** 
  18:src/testFunctions.cpp **** extern sem_t semA;
  19:src/testFunctions.cpp **** 
  20:src/testFunctions.cpp **** void testMemory() {
  12              		.loc 1 20 19
  13              		.cfi_startproc
  14 0000 13010181 		addi	sp,sp,-2032
  15              		.cfi_def_cfa_offset 2032
  16 0004 2334117E 		sd	ra,2024(sp)
  17 0008 2330817E 		sd	s0,2016(sp)
  18 000c 233C917C 		sd	s1,2008(sp)
  19              		.cfi_offset 1, -8
  20              		.cfi_offset 8, -16
  21              		.cfi_offset 9, -24
  22 0010 1304017F 		addi	s0,sp,2032
  23              		.cfi_def_cfa 8, 0
  24 0014 13010183 		addi	sp,sp,-2000
  21:src/testFunctions.cpp **** 	const uint64 NumAllocations = 500;    //zasto nece za preko 500????
  25              		.loc 1 21 2
  26              	.LVL0:
  22:src/testFunctions.cpp **** 	const uint64 AllocationSize = 16;
  27              		.loc 1 22 2
  23:src/testFunctions.cpp **** 
  24:src/testFunctions.cpp **** 	// Allocate and initialize pointers
  25:src/testFunctions.cpp **** 	int* allocations[NumAllocations];
  28              		.loc 1 25 2
  26:src/testFunctions.cpp **** 	for (uint64 i = 0; i < NumAllocations; ++i)
  29              		.loc 1 26 2
  30              	.LBB2:
  31              		.loc 1 26 14 is_stmt 0
  32 0018 13070000 		li	a4,0
GAS LISTING /tmp/ccAUj7GT.s 			page 2


  33              	.LVL1:
  34              	.L3:
  35              		.loc 1 26 23 is_stmt 1 discriminator 3
  36 001c 9307301F 		li	a5,499
  37 0020 63E2E702 		bgtu	a4,a5,.L8
  27:src/testFunctions.cpp **** 		allocations[i] = nullptr;
  38              		.loc 1 27 3 discriminator 2
  39              		.loc 1 27 18 is_stmt 0 discriminator 2
  40 0024 B7F7FFFF 		li	a5,-4096
  41 0028 93163700 		slli	a3,a4,3
  42 002c 130604FE 		addi	a2,s0,-32
  43 0030 B307F600 		add	a5,a2,a5
  44 0034 B387D700 		add	a5,a5,a3
  45 0038 23B00706 		sd	zero,96(a5)
  26:src/testFunctions.cpp **** 	for (uint64 i = 0; i < NumAllocations; ++i)
  46              		.loc 1 26 2 is_stmt 1 discriminator 2
  47 003c 13071700 		addi	a4,a4,1
  48              	.LVL2:
  49 0040 6FF0DFFD 		j	.L3
  50              	.L8:
  51              	.LBE2:
  52              	.LBB3:
  28:src/testFunctions.cpp **** 
  29:src/testFunctions.cpp **** 	// Allocate memory
  30:src/testFunctions.cpp **** 	for (uint64 i = 0; i < NumAllocations; ++i) {
  53              		.loc 1 30 14 is_stmt 0
  54 0044 93040000 		li	s1,0
  55              	.LVL3:
  56              	.L2:
  57              		.loc 1 30 23 is_stmt 1 discriminator 1
  58 0048 9307301F 		li	a5,499
  59 004c 63EC9702 		bgtu	s1,a5,.L4
  31:src/testFunctions.cpp **** 		allocations[i] = static_cast<int*>(MemoryAllocator::kmalloc(AllocationSize, MemoryAllocator::MISC
  60              		.loc 1 31 3
  61              		.loc 1 31 62 is_stmt 0
  62 0050 93053000 		li	a1,3
  63 0054 13050001 		li	a0,16
  64 0058 97000000 		call	_ZN15MemoryAllocator7kmallocEmNS_7PurposeE@plt
  64      E7800000 
  65              	.LVL4:
  66              		.loc 1 31 18
  67 0060 37F7FFFF 		li	a4,-4096
  68 0064 93973400 		slli	a5,s1,3
  69 0068 930604FE 		addi	a3,s0,-32
  70 006c 3387E600 		add	a4,a3,a4
  71 0070 B307F700 		add	a5,a4,a5
  72 0074 23B0A706 		sd	a0,96(a5)
  32:src/testFunctions.cpp **** 		if (allocations[i] == nullptr) {
  73              		.loc 1 32 3 is_stmt 1
  74 0078 63060500 		beqz	a0,.L4
  30:src/testFunctions.cpp **** 		allocations[i] = static_cast<int*>(MemoryAllocator::kmalloc(AllocationSize, MemoryAllocator::MISC
  75              		.loc 1 30 2 discriminator 2
  76 007c 93841400 		addi	s1,s1,1
  77              	.LVL5:
  78 0080 6FF09FFC 		j	.L2
  79              	.L4:
  30:src/testFunctions.cpp **** 		allocations[i] = static_cast<int*>(MemoryAllocator::kmalloc(AllocationSize, MemoryAllocator::MISC
GAS LISTING /tmp/ccAUj7GT.s 			page 3


  80              		.loc 1 30 14 is_stmt 0 discriminator 1
  81 0084 93040000 		li	s1,0
  82              	.LVL6:
  83 0088 6F000001 		j	.L7
  84              	.LVL7:
  85              	.L10:
  86              	.LBE3:
  87              	.LBB4:
  33:src/testFunctions.cpp **** //			printString("\nAllocation failed for index ");
  34:src/testFunctions.cpp **** //			printInteger(i);
  35:src/testFunctions.cpp **** 			break;
  36:src/testFunctions.cpp **** 		}
  37:src/testFunctions.cpp **** 	}
  38:src/testFunctions.cpp **** 
  39:src/testFunctions.cpp **** 	// Free memory
  40:src/testFunctions.cpp **** 	for (uint64 i = 0; i < NumAllocations; ++i) {
  41:src/testFunctions.cpp **** 		if (allocations[i] != nullptr) {
  42:src/testFunctions.cpp **** 			if (MemoryAllocator::kfree(allocations[i]) != 0) {
  88              		.loc 1 42 4 is_stmt 1
  89              		.loc 1 42 30 is_stmt 0
  90 008c 97000000 		call	_ZN15MemoryAllocator5kfreeEPv@plt
  90      E7800000 
  91              	.LVL8:
  92              	.L6:
  40:src/testFunctions.cpp **** 		if (allocations[i] != nullptr) {
  93              		.loc 1 40 2 is_stmt 1 discriminator 2
  94 0094 93841400 		addi	s1,s1,1
  95              	.LVL9:
  96              	.L7:
  40:src/testFunctions.cpp **** 		if (allocations[i] != nullptr) {
  97              		.loc 1 40 23 discriminator 1
  98 0098 9307301F 		li	a5,499
  99 009c 63E29702 		bgtu	s1,a5,.L1
  41:src/testFunctions.cpp **** 			if (MemoryAllocator::kfree(allocations[i]) != 0) {
 100              		.loc 1 41 3
  41:src/testFunctions.cpp **** 			if (MemoryAllocator::kfree(allocations[i]) != 0) {
 101              		.loc 1 41 20 is_stmt 0
 102 00a0 37F7FFFF 		li	a4,-4096
 103 00a4 93973400 		slli	a5,s1,3
 104 00a8 930604FE 		addi	a3,s0,-32
 105 00ac 3387E600 		add	a4,a3,a4
 106 00b0 B307F700 		add	a5,a4,a5
 107 00b4 03B50706 		ld	a0,96(a5)
  41:src/testFunctions.cpp **** 			if (MemoryAllocator::kfree(allocations[i]) != 0) {
 108              		.loc 1 41 3
 109 00b8 E31A05FC 		bnez	a0,.L10
 110 00bc 6FF09FFD 		j	.L6
 111              	.L1:
 112              	.LBE4:
  43:src/testFunctions.cpp **** //				printString("\nDeallocation failed for index ");
  44:src/testFunctions.cpp **** //				printInteger(i);
  45:src/testFunctions.cpp **** 			}
  46:src/testFunctions.cpp **** 		}
  47:src/testFunctions.cpp **** 	}
  48:src/testFunctions.cpp **** }
 113              		.loc 1 48 1
 114 00c0 1301017D 		addi	sp,sp,2000
GAS LISTING /tmp/ccAUj7GT.s 			page 4


 115              		.cfi_def_cfa 2, 2032
 116 00c4 8330817E 		ld	ra,2024(sp)
 117              		.cfi_restore 1
 118 00c8 0334017E 		ld	s0,2016(sp)
 119              		.cfi_restore 8
 120 00cc 8334817D 		ld	s1,2008(sp)
 121              		.cfi_restore 9
 122              	.LVL10:
 123 00d0 1301017F 		addi	sp,sp,2032
 124              		.cfi_def_cfa_offset 0
 125 00d4 67800000 		jr	ra
 126              		.cfi_endproc
 127              	.LFE43:
 129              		.section	.rodata.str1.8,"aMS",@progbits,1
 130              		.align	3
 131              	.LC0:
 132 0000 0A4E6974 		.string	"\nNit 1 dolazi na semafor\n"
 132      20312064 
 132      6F6C617A 
 132      69206E61 
 132      2073656D 
 133 001a 00000000 		.align	3
 133      0000
 134              	.LC1:
 135 0020 0A4E6974 		.string	"\nNit 1 cekala na semaforu\n"
 135      20312063 
 135      656B616C 
 135      61206E61 
 135      2073656D 
 136 003b 00000000 		.align	3
 136      00
 137              	.LC2:
 138 0040 0A4E6974 		.string	"\nNit 1 nije cekala\n"
 138      2031206E 
 138      696A6520 
 138      63656B61 
 138      6C610A00 
 139 0054 00000000 		.align	3
 140              	.LC3:
 141 0058 0A73656D 		.string	"\nsem_wait za nit 1 vratio "
 141      5F776169 
 141      74207A61 
 141      206E6974 
 141      20312076 
 142 0073 00000000 		.align	3
 142      00
 143              	.LC4:
 144 0078 0A00     		.string	"\n"
 145 007a 00000000 		.align	3
 145      0000
 146              	.LC5:
 147 0080 0A476F74 		.string	"\nGotova nit 1\n"
 147      6F766120 
 147      6E697420 
 147      310A00
 148              		.text
 149              		.align	2
GAS LISTING /tmp/ccAUj7GT.s 			page 5


 150              		.globl	_Z5nit1fPv
 152              	_Z5nit1fPv:
 153              	.LFB44:
  49:src/testFunctions.cpp **** 
  50:src/testFunctions.cpp **** void nit1f(void*) {
 154              		.loc 1 50 19 is_stmt 1
 155              		.cfi_startproc
 156 00d8 130101FE 		addi	sp,sp,-32
 157              		.cfi_def_cfa_offset 32
 158 00dc 233C1100 		sd	ra,24(sp)
 159 00e0 23388100 		sd	s0,16(sp)
 160 00e4 23349100 		sd	s1,8(sp)
 161 00e8 23302101 		sd	s2,0(sp)
 162              		.cfi_offset 1, -8
 163              		.cfi_offset 8, -16
 164              		.cfi_offset 9, -24
 165              		.cfi_offset 18, -32
 166 00ec 13040102 		addi	s0,sp,32
 167              		.cfi_def_cfa 8, 0
  51:src/testFunctions.cpp **** 	for(int i=0;i<3;i++){
 168              		.loc 1 51 2
 169              	.LVL11:
 170              	.LBB5:
 171              		.loc 1 51 10 is_stmt 0
 172 00f0 13090000 		li	s2,0
 173 00f4 6F004004 		j	.L15
 174              	.LVL12:
 175              	.L13:
 176              	.LBB6:
  52:src/testFunctions.cpp **** 		printString("\nNit 1 dolazi na semafor\n");
  53:src/testFunctions.cpp **** 		int res = sem_wait(semA);
  54:src/testFunctions.cpp **** 		if(res){
  55:src/testFunctions.cpp **** 			printString("\nNit 1 cekala na semaforu\n");
  56:src/testFunctions.cpp **** 		}
  57:src/testFunctions.cpp **** 		else{
  58:src/testFunctions.cpp **** 			printString("\nNit 1 nije cekala\n");
 177              		.loc 1 58 4 is_stmt 1
 178              		.loc 1 58 15 is_stmt 0
 179 00f8 17050000 		lla	a0,.LC2
 179      13050500 
 180              	.LVL13:
 181 0100 97000000 		call	_Z11printStringPKc@plt
 181      E7800000 
 182              	.LVL14:
 183              	.L14:
  59:src/testFunctions.cpp **** 		}
  60:src/testFunctions.cpp **** 		printString("\nsem_wait za nit 1 vratio ");
 184              		.loc 1 60 3 is_stmt 1 discriminator 2
 185              		.loc 1 60 14 is_stmt 0 discriminator 2
 186 0108 17050000 		lla	a0,.LC3
 186      13050500 
 187 0110 97000000 		call	_Z11printStringPKc@plt
 187      E7800000 
 188              	.LVL15:
  61:src/testFunctions.cpp **** 		printInteger(res);
 189              		.loc 1 61 3 is_stmt 1 discriminator 2
 190              		.loc 1 61 15 is_stmt 0 discriminator 2
GAS LISTING /tmp/ccAUj7GT.s 			page 6


 191 0118 13850400 		mv	a0,s1
 192 011c 97000000 		call	_Z12printIntegerm@plt
 192      E7800000 
 193              	.LVL16:
  62:src/testFunctions.cpp **** 		printString("\n");
 194              		.loc 1 62 3 is_stmt 1 discriminator 2
 195              		.loc 1 62 14 is_stmt 0 discriminator 2
 196 0124 17050000 		lla	a0,.LC4
 196      13050500 
 197 012c 97000000 		call	_Z11printStringPKc@plt
 197      E7800000 
 198              	.LVL17:
 199              	.LBE6:
  51:src/testFunctions.cpp **** 		printString("\nNit 1 dolazi na semafor\n");
 200              		.loc 1 51 2 is_stmt 1 discriminator 2
 201 0134 1B091900 		addiw	s2,s2,1
 202              	.LVL18:
 203              	.L15:
  51:src/testFunctions.cpp **** 		printString("\nNit 1 dolazi na semafor\n");
 204              		.loc 1 51 15 discriminator 1
 205 0138 93072000 		li	a5,2
 206 013c 63C22705 		bgt	s2,a5,.L12
 207              	.LBB7:
  52:src/testFunctions.cpp **** 		int res = sem_wait(semA);
 208              		.loc 1 52 3
  52:src/testFunctions.cpp **** 		int res = sem_wait(semA);
 209              		.loc 1 52 14 is_stmt 0
 210 0140 17050000 		lla	a0,.LC0
 210      13050500 
 211 0148 97000000 		call	_Z11printStringPKc@plt
 211      E7800000 
 212              	.LVL19:
  53:src/testFunctions.cpp **** 		if(res){
 213              		.loc 1 53 3 is_stmt 1
  53:src/testFunctions.cpp **** 		if(res){
 214              		.loc 1 53 21 is_stmt 0
 215 0150 97070000 		la	a5,semA
 215      83B70700 
 216 0158 03B50700 		ld	a0,0(a5)
 217 015c 97000000 		call	_Z8sem_waitP4KSem@plt
 217      E7800000 
 218              	.LVL20:
 219 0164 93040500 		mv	s1,a0
 220              	.LVL21:
  54:src/testFunctions.cpp **** 			printString("\nNit 1 cekala na semaforu\n");
 221              		.loc 1 54 3 is_stmt 1
 222 0168 E30805F8 		beqz	a0,.L13
  55:src/testFunctions.cpp **** 		}
 223              		.loc 1 55 4
  55:src/testFunctions.cpp **** 		}
 224              		.loc 1 55 15 is_stmt 0
 225 016c 17050000 		lla	a0,.LC1
 225      13050500 
 226              	.LVL22:
 227 0174 97000000 		call	_Z11printStringPKc@plt
 227      E7800000 
 228              	.LVL23:
GAS LISTING /tmp/ccAUj7GT.s 			page 7


 229 017c 6FF0DFF8 		j	.L14
 230              	.L12:
 231              	.LBE7:
 232              	.LBE5:
  63:src/testFunctions.cpp **** 	}
  64:src/testFunctions.cpp **** 
  65:src/testFunctions.cpp **** 	printString("\nGotova nit 1\n");
 233              		.loc 1 65 2 is_stmt 1
 234              		.loc 1 65 13 is_stmt 0
 235 0180 17050000 		lla	a0,.LC5
 235      13050500 
 236 0188 97000000 		call	_Z11printStringPKc@plt
 236      E7800000 
 237              	.LVL24:
  66:src/testFunctions.cpp **** }
 238              		.loc 1 66 1
 239 0190 83308101 		ld	ra,24(sp)
 240              		.cfi_restore 1
 241 0194 03340101 		ld	s0,16(sp)
 242              		.cfi_restore 8
 243              		.cfi_def_cfa 2, 32
 244 0198 83348100 		ld	s1,8(sp)
 245              		.cfi_restore 9
 246 019c 03390100 		ld	s2,0(sp)
 247              		.cfi_restore 18
 248              	.LVL25:
 249 01a0 13010102 		addi	sp,sp,32
 250              		.cfi_def_cfa_offset 0
 251 01a4 67800000 		jr	ra
 252              		.cfi_endproc
 253              	.LFE44:
 255              		.section	.rodata.str1.8
 256 008f 00       		.align	3
 257              	.LC6:
 258 0090 0A4E6974 		.string	"\nNit 2 daje signal\n"
 258      20322064 
 258      616A6520 
 258      7369676E 
 258      616C0A00 
 259 00a4 00000000 		.align	3
 260              	.LC7:
 261 00a8 0A476F74 		.string	"\nGotova nit 2\n"
 261      6F766120 
 261      6E697420 
 261      320A00
 262              		.text
 263              		.align	2
 264              		.globl	_Z5nit2fPv
 266              	_Z5nit2fPv:
 267              	.LFB45:
  67:src/testFunctions.cpp **** 
  68:src/testFunctions.cpp **** void nit2f(void* arg2) {
 268              		.loc 1 68 24 is_stmt 1
 269              		.cfi_startproc
 270              	.LVL26:
 271 01a8 130101FE 		addi	sp,sp,-32
 272              		.cfi_def_cfa_offset 32
GAS LISTING /tmp/ccAUj7GT.s 			page 8


 273 01ac 233C1100 		sd	ra,24(sp)
 274 01b0 23388100 		sd	s0,16(sp)
 275 01b4 23349100 		sd	s1,8(sp)
 276 01b8 23302101 		sd	s2,0(sp)
 277              		.cfi_offset 1, -8
 278              		.cfi_offset 8, -16
 279              		.cfi_offset 9, -24
 280              		.cfi_offset 18, -32
 281 01bc 13040102 		addi	s0,sp,32
 282              		.cfi_def_cfa 8, 0
  69:src/testFunctions.cpp **** 	for(int i=0;i<3;i++){
 283              		.loc 1 69 2
 284              	.LVL27:
 285              	.LBB8:
 286              		.loc 1 69 10 is_stmt 0
 287 01c0 93040000 		li	s1,0
 288 01c4 6F008003 		j	.L19
 289              	.LVL28:
 290              	.L21:
  70:src/testFunctions.cpp **** 		printString("\nNit 2 daje signal\n");
 291              		.loc 1 70 3 is_stmt 1 discriminator 2
 292              		.loc 1 70 14 is_stmt 0 discriminator 2
 293 01c8 17050000 		lla	a0,.LC6
 293      13050500 
 294 01d0 97000000 		call	_Z11printStringPKc@plt
 294      E7800000 
 295              	.LVL29:
  71:src/testFunctions.cpp **** 		sem_signal(semA);
 296              		.loc 1 71 3 is_stmt 1 discriminator 2
 297              		.loc 1 71 13 is_stmt 0 discriminator 2
 298 01d8 17090000 		la	s2,semA
 298      03390900 
 299 01e0 03350900 		ld	a0,0(s2)
 300 01e4 97000000 		call	_Z10sem_signalP4KSem@plt
 300      E7800000 
 301              	.LVL30:
  72:src/testFunctions.cpp **** 		sem_close(semA);
 302              		.loc 1 72 3 is_stmt 1 discriminator 2
 303              		.loc 1 72 12 is_stmt 0 discriminator 2
 304 01ec 03350900 		ld	a0,0(s2)
 305 01f0 97000000 		call	_Z9sem_closeP4KSem@plt
 305      E7800000 
 306              	.LVL31:
  69:src/testFunctions.cpp **** 		printString("\nNit 2 daje signal\n");
 307              		.loc 1 69 2 is_stmt 1 discriminator 2
 308 01f8 9B841400 		addiw	s1,s1,1
 309              	.LVL32:
 310              	.L19:
  69:src/testFunctions.cpp **** 		printString("\nNit 2 daje signal\n");
 311              		.loc 1 69 15 discriminator 3
 312 01fc 93072000 		li	a5,2
 313 0200 E3D497FC 		ble	s1,a5,.L21
 314              	.LBE8:
  73:src/testFunctions.cpp **** 	}
  74:src/testFunctions.cpp **** 	printString("\nGotova nit 2\n");
 315              		.loc 1 74 2
 316              		.loc 1 74 13 is_stmt 0
GAS LISTING /tmp/ccAUj7GT.s 			page 9


 317 0204 17050000 		lla	a0,.LC7
 317      13050500 
 318 020c 97000000 		call	_Z11printStringPKc@plt
 318      E7800000 
 319              	.LVL33:
  75:src/testFunctions.cpp **** }
 320              		.loc 1 75 1
 321 0214 83308101 		ld	ra,24(sp)
 322              		.cfi_restore 1
 323 0218 03340101 		ld	s0,16(sp)
 324              		.cfi_restore 8
 325              		.cfi_def_cfa 2, 32
 326 021c 83348100 		ld	s1,8(sp)
 327              		.cfi_restore 9
 328              	.LVL34:
 329 0220 03390100 		ld	s2,0(sp)
 330              		.cfi_restore 18
 331 0224 13010102 		addi	sp,sp,32
 332              		.cfi_def_cfa_offset 0
 333 0228 67800000 		jr	ra
 334              		.cfi_endproc
 335              	.LFE45:
 337              		.section	.rodata.str1.8
 338 00b7 00       		.align	3
 339              	.LC8:
 340 00b8 0A476F74 		.string	"\nGotova nit3\n"
 340      6F766120 
 340      6E697433 
 340      0A00
 341              		.text
 342              		.align	2
 343              		.globl	_Z5nit3fPv
 345              	_Z5nit3fPv:
 346              	.LFB46:
  76:src/testFunctions.cpp **** 
  77:src/testFunctions.cpp **** 
  78:src/testFunctions.cpp **** void nit3f(void*) {
 347              		.loc 1 78 19 is_stmt 1
 348              		.cfi_startproc
 349 022c 130101FF 		addi	sp,sp,-16
 350              		.cfi_def_cfa_offset 16
 351 0230 23341100 		sd	ra,8(sp)
 352 0234 23308100 		sd	s0,0(sp)
 353              		.cfi_offset 1, -8
 354              		.cfi_offset 8, -16
 355 0238 13040101 		addi	s0,sp,16
 356              		.cfi_def_cfa 8, 0
  79:src/testFunctions.cpp **** //	for (int i = 0; i < 20; i++) {
  80:src/testFunctions.cpp **** //		printInteger(i);
  81:src/testFunctions.cpp **** //		printString("\n");
  82:src/testFunctions.cpp **** //		sem_wait(semA);
  83:src/testFunctions.cpp **** //		printString("Nit 3 prosla semafor\n");
  84:src/testFunctions.cpp **** //		time_sleep(10);
  85:src/testFunctions.cpp **** //	}
  86:src/testFunctions.cpp **** 	printString("\nGotova nit3\n");
 357              		.loc 1 86 2
 358              		.loc 1 86 13 is_stmt 0
GAS LISTING /tmp/ccAUj7GT.s 			page 10


 359 023c 17050000 		lla	a0,.LC8
 359      13050500 
 360 0244 97000000 		call	_Z11printStringPKc@plt
 360      E7800000 
 361              	.LVL35:
  87:src/testFunctions.cpp **** }...
 362              		.loc 1 87 1
 363 024c 83308100 		ld	ra,8(sp)
 364              		.cfi_restore 1
 365 0250 03340100 		ld	s0,0(sp)
 366              		.cfi_restore 8
 367              		.cfi_def_cfa 2, 16
 368 0254 13010101 		addi	sp,sp,16
 369              		.cfi_def_cfa_offset 0
 370 0258 67800000 		jr	ra
 371              		.cfi_endproc
 372              	.LFE46:
 374              	.Letext0:
 375              		.file 2 "src/../h/../lib/hw.h"
 376              		.file 3 "src/../h/MemoryAllocator.hpp"
 377              		.file 4 "src/../h/syscall_c.hpp"
 378              		.file 5 "src/../h/helper.hpp"
GAS LISTING /tmp/ccAUj7GT.s 			page 11


DEFINED SYMBOLS
                            *ABS*:0000000000000000 testFunctions.cpp
     /tmp/ccAUj7GT.s:9      .text:0000000000000000 _Z10testMemoryv
     /tmp/ccAUj7GT.s:13     .text:0000000000000000 .L0 
     /tmp/ccAUj7GT.s:14     .text:0000000000000000 .L0 
     /tmp/ccAUj7GT.s:15     .text:0000000000000004 .L0 
     /tmp/ccAUj7GT.s:19     .text:0000000000000010 .L0 
     /tmp/ccAUj7GT.s:20     .text:0000000000000010 .L0 
     /tmp/ccAUj7GT.s:21     .text:0000000000000010 .L0 
     /tmp/ccAUj7GT.s:23     .text:0000000000000014 .L0 
     /tmp/ccAUj7GT.s:27     .text:0000000000000018 .L0 
     /tmp/ccAUj7GT.s:28     .text:0000000000000018 .L0 
     /tmp/ccAUj7GT.s:29     .text:0000000000000018 .L0 
     /tmp/ccAUj7GT.s:31     .text:0000000000000018 .L0 
     /tmp/ccAUj7GT.s:32     .text:0000000000000018 .L0 
     /tmp/ccAUj7GT.s:36     .text:000000000000001c .L0 
     /tmp/ccAUj7GT.s:39     .text:0000000000000024 .L0 
     /tmp/ccAUj7GT.s:40     .text:0000000000000024 .L0 
     /tmp/ccAUj7GT.s:47     .text:000000000000003c .L0 
     /tmp/ccAUj7GT.s:54     .text:0000000000000044 .L0 
     /tmp/ccAUj7GT.s:58     .text:0000000000000048 .L0 
     /tmp/ccAUj7GT.s:61     .text:0000000000000050 .L0 
     /tmp/ccAUj7GT.s:62     .text:0000000000000050 .L0 
     /tmp/ccAUj7GT.s:67     .text:0000000000000060 .L0 
     /tmp/ccAUj7GT.s:74     .text:0000000000000078 .L0 
     /tmp/ccAUj7GT.s:76     .text:000000000000007c .L0 
     /tmp/ccAUj7GT.s:81     .text:0000000000000084 .L0 
     /tmp/ccAUj7GT.s:89     .text:000000000000008c .L0 
     /tmp/ccAUj7GT.s:90     .text:000000000000008c .L0 
     /tmp/ccAUj7GT.s:94     .text:0000000000000094 .L0 
     /tmp/ccAUj7GT.s:98     .text:0000000000000098 .L0 
     /tmp/ccAUj7GT.s:101    .text:00000000000000a0 .L0 
     /tmp/ccAUj7GT.s:102    .text:00000000000000a0 .L0 
     /tmp/ccAUj7GT.s:109    .text:00000000000000b8 .L0 
     /tmp/ccAUj7GT.s:114    .text:00000000000000c0 .L0 
     /tmp/ccAUj7GT.s:115    .text:00000000000000c4 .L0 
     /tmp/ccAUj7GT.s:117    .text:00000000000000c8 .L0 
     /tmp/ccAUj7GT.s:119    .text:00000000000000cc .L0 
     /tmp/ccAUj7GT.s:121    .text:00000000000000d0 .L0 
     /tmp/ccAUj7GT.s:124    .text:00000000000000d4 .L0 
     /tmp/ccAUj7GT.s:126    .text:00000000000000d8 .L0 
     /tmp/ccAUj7GT.s:152    .text:00000000000000d8 _Z5nit1fPv
     /tmp/ccAUj7GT.s:155    .text:00000000000000d8 .L0 
     /tmp/ccAUj7GT.s:156    .text:00000000000000d8 .L0 
     /tmp/ccAUj7GT.s:157    .text:00000000000000dc .L0 
     /tmp/ccAUj7GT.s:162    .text:00000000000000ec .L0 
     /tmp/ccAUj7GT.s:163    .text:00000000000000ec .L0 
     /tmp/ccAUj7GT.s:164    .text:00000000000000ec .L0 
     /tmp/ccAUj7GT.s:165    .text:00000000000000ec .L0 
     /tmp/ccAUj7GT.s:167    .text:00000000000000f0 .L0 
     /tmp/ccAUj7GT.s:171    .text:00000000000000f0 .L0 
     /tmp/ccAUj7GT.s:172    .text:00000000000000f0 .L0 
     /tmp/ccAUj7GT.s:178    .text:00000000000000f8 .L0 
     /tmp/ccAUj7GT.s:179    .text:00000000000000f8 .L0 
     /tmp/ccAUj7GT.s:185    .text:0000000000000108 .L0 
     /tmp/ccAUj7GT.s:186    .text:0000000000000108 .L0 
     /tmp/ccAUj7GT.s:190    .text:0000000000000118 .L0 
GAS LISTING /tmp/ccAUj7GT.s 			page 12


     /tmp/ccAUj7GT.s:191    .text:0000000000000118 .L0 
     /tmp/ccAUj7GT.s:195    .text:0000000000000124 .L0 
     /tmp/ccAUj7GT.s:196    .text:0000000000000124 .L0 
     /tmp/ccAUj7GT.s:201    .text:0000000000000134 .L0 
     /tmp/ccAUj7GT.s:205    .text:0000000000000138 .L0 
     /tmp/ccAUj7GT.s:209    .text:0000000000000140 .L0 
     /tmp/ccAUj7GT.s:210    .text:0000000000000140 .L0 
     /tmp/ccAUj7GT.s:214    .text:0000000000000150 .L0 
     /tmp/ccAUj7GT.s:215    .text:0000000000000150 .L0 
     /tmp/ccAUj7GT.s:222    .text:0000000000000168 .L0 
     /tmp/ccAUj7GT.s:224    .text:000000000000016c .L0 
     /tmp/ccAUj7GT.s:225    .text:000000000000016c .L0 
     /tmp/ccAUj7GT.s:234    .text:0000000000000180 .L0 
     /tmp/ccAUj7GT.s:235    .text:0000000000000180 .L0 
     /tmp/ccAUj7GT.s:239    .text:0000000000000190 .L0 
     /tmp/ccAUj7GT.s:240    .text:0000000000000194 .L0 
     /tmp/ccAUj7GT.s:242    .text:0000000000000198 .L0 
     /tmp/ccAUj7GT.s:243    .text:0000000000000198 .L0 
     /tmp/ccAUj7GT.s:245    .text:000000000000019c .L0 
     /tmp/ccAUj7GT.s:247    .text:00000000000001a0 .L0 
     /tmp/ccAUj7GT.s:250    .text:00000000000001a4 .L0 
     /tmp/ccAUj7GT.s:252    .text:00000000000001a8 .L0 
     /tmp/ccAUj7GT.s:266    .text:00000000000001a8 _Z5nit2fPv
     /tmp/ccAUj7GT.s:269    .text:00000000000001a8 .L0 
     /tmp/ccAUj7GT.s:271    .text:00000000000001a8 .L0 
     /tmp/ccAUj7GT.s:272    .text:00000000000001ac .L0 
     /tmp/ccAUj7GT.s:277    .text:00000000000001bc .L0 
     /tmp/ccAUj7GT.s:278    .text:00000000000001bc .L0 
     /tmp/ccAUj7GT.s:279    .text:00000000000001bc .L0 
     /tmp/ccAUj7GT.s:280    .text:00000000000001bc .L0 
     /tmp/ccAUj7GT.s:282    .text:00000000000001c0 .L0 
     /tmp/ccAUj7GT.s:286    .text:00000000000001c0 .L0 
     /tmp/ccAUj7GT.s:287    .text:00000000000001c0 .L0 
     /tmp/ccAUj7GT.s:292    .text:00000000000001c8 .L0 
     /tmp/ccAUj7GT.s:293    .text:00000000000001c8 .L0 
     /tmp/ccAUj7GT.s:297    .text:00000000000001d8 .L0 
     /tmp/ccAUj7GT.s:298    .text:00000000000001d8 .L0 
     /tmp/ccAUj7GT.s:303    .text:00000000000001ec .L0 
     /tmp/ccAUj7GT.s:304    .text:00000000000001ec .L0 
     /tmp/ccAUj7GT.s:308    .text:00000000000001f8 .L0 
     /tmp/ccAUj7GT.s:312    .text:00000000000001fc .L0 
     /tmp/ccAUj7GT.s:316    .text:0000000000000204 .L0 
     /tmp/ccAUj7GT.s:317    .text:0000000000000204 .L0 
     /tmp/ccAUj7GT.s:321    .text:0000000000000214 .L0 
     /tmp/ccAUj7GT.s:322    .text:0000000000000218 .L0 
     /tmp/ccAUj7GT.s:324    .text:000000000000021c .L0 
     /tmp/ccAUj7GT.s:325    .text:000000000000021c .L0 
     /tmp/ccAUj7GT.s:327    .text:0000000000000220 .L0 
     /tmp/ccAUj7GT.s:330    .text:0000000000000224 .L0 
     /tmp/ccAUj7GT.s:332    .text:0000000000000228 .L0 
     /tmp/ccAUj7GT.s:334    .text:000000000000022c .L0 
     /tmp/ccAUj7GT.s:345    .text:000000000000022c _Z5nit3fPv
     /tmp/ccAUj7GT.s:348    .text:000000000000022c .L0 
     /tmp/ccAUj7GT.s:349    .text:000000000000022c .L0 
     /tmp/ccAUj7GT.s:350    .text:0000000000000230 .L0 
     /tmp/ccAUj7GT.s:353    .text:0000000000000238 .L0 
     /tmp/ccAUj7GT.s:354    .text:0000000000000238 .L0 
GAS LISTING /tmp/ccAUj7GT.s 			page 13


     /tmp/ccAUj7GT.s:356    .text:000000000000023c .L0 
     /tmp/ccAUj7GT.s:358    .text:000000000000023c .L0 
     /tmp/ccAUj7GT.s:359    .text:000000000000023c .L0 
     /tmp/ccAUj7GT.s:363    .text:000000000000024c .L0 
     /tmp/ccAUj7GT.s:364    .text:0000000000000250 .L0 
     /tmp/ccAUj7GT.s:366    .text:0000000000000254 .L0 
     /tmp/ccAUj7GT.s:367    .text:0000000000000254 .L0 
     /tmp/ccAUj7GT.s:369    .text:0000000000000258 .L0 
     /tmp/ccAUj7GT.s:371    .text:000000000000025c .L0 
     /tmp/ccAUj7GT.s:379    .text:000000000000025c .L0 
     /tmp/ccAUj7GT.s:137    .rodata.str1.8:0000000000000040 .LC2
     /tmp/ccAUj7GT.s:179    .text:00000000000000f8 .L0 
     /tmp/ccAUj7GT.s:140    .rodata.str1.8:0000000000000058 .LC3
     /tmp/ccAUj7GT.s:186    .text:0000000000000108 .L0 
     /tmp/ccAUj7GT.s:143    .rodata.str1.8:0000000000000078 .LC4
     /tmp/ccAUj7GT.s:196    .text:0000000000000124 .L0 
     /tmp/ccAUj7GT.s:131    .rodata.str1.8:0000000000000000 .LC0
     /tmp/ccAUj7GT.s:210    .text:0000000000000140 .L0 
     /tmp/ccAUj7GT.s:215    .text:0000000000000150 .L0 
     /tmp/ccAUj7GT.s:134    .rodata.str1.8:0000000000000020 .LC1
     /tmp/ccAUj7GT.s:225    .text:000000000000016c .L0 
     /tmp/ccAUj7GT.s:146    .rodata.str1.8:0000000000000080 .LC5
     /tmp/ccAUj7GT.s:235    .text:0000000000000180 .L0 
     /tmp/ccAUj7GT.s:257    .rodata.str1.8:0000000000000090 .LC6
     /tmp/ccAUj7GT.s:293    .text:00000000000001c8 .L0 
     /tmp/ccAUj7GT.s:298    .text:00000000000001d8 .L0 
     /tmp/ccAUj7GT.s:260    .rodata.str1.8:00000000000000a8 .LC7
     /tmp/ccAUj7GT.s:317    .text:0000000000000204 .L0 
     /tmp/ccAUj7GT.s:339    .rodata.str1.8:00000000000000b8 .LC8
     /tmp/ccAUj7GT.s:359    .text:000000000000023c .L0 
     /tmp/ccAUj7GT.s:50     .text:0000000000000044 .L8
     /tmp/ccAUj7GT.s:34     .text:000000000000001c .L3
     /tmp/ccAUj7GT.s:79     .text:0000000000000084 .L4
     /tmp/ccAUj7GT.s:56     .text:0000000000000048 .L2
     /tmp/ccAUj7GT.s:96     .text:0000000000000098 .L7
     /tmp/ccAUj7GT.s:111    .text:00000000000000c0 .L1
     /tmp/ccAUj7GT.s:85     .text:000000000000008c .L10
     /tmp/ccAUj7GT.s:92     .text:0000000000000094 .L6
     /tmp/ccAUj7GT.s:203    .text:0000000000000138 .L15
     /tmp/ccAUj7GT.s:230    .text:0000000000000180 .L12
     /tmp/ccAUj7GT.s:175    .text:00000000000000f8 .L13
     /tmp/ccAUj7GT.s:183    .text:0000000000000108 .L14
     /tmp/ccAUj7GT.s:310    .text:00000000000001fc .L19
     /tmp/ccAUj7GT.s:290    .text:00000000000001c8 .L21
     /tmp/ccAUj7GT.s:1052   .debug_abbrev:0000000000000000 .Ldebug_abbrev0
     /tmp/ccAUj7GT.s:1807   .debug_str:0000000000000340 .LASF62
     /tmp/ccAUj7GT.s:1729   .debug_str:00000000000000ea .LASF63
     /tmp/ccAUj7GT.s:1789   .debug_str:000000000000029d .LASF64
     /tmp/ccAUj7GT.s:5      .text:0000000000000000 .Ltext0
     /tmp/ccAUj7GT.s:374    .text:000000000000025c .Letext0
     /tmp/ccAUj7GT.s:1693   .debug_line:0000000000000000 .Ldebug_line0
     /tmp/ccAUj7GT.s:1733   .debug_str:000000000000010c .LASF0
     /tmp/ccAUj7GT.s:1747   .debug_str:0000000000000165 .LASF1
     /tmp/ccAUj7GT.s:1785   .debug_str:0000000000000288 .LASF2
     /tmp/ccAUj7GT.s:1787   .debug_str:0000000000000296 .LASF4
     /tmp/ccAUj7GT.s:1741   .debug_str:000000000000013b .LASF3
     /tmp/ccAUj7GT.s:1697   .debug_str:0000000000000012 .LASF5
GAS LISTING /tmp/ccAUj7GT.s 			page 14


     /tmp/ccAUj7GT.s:1765   .debug_str:00000000000001e2 .LASF6
     /tmp/ccAUj7GT.s:1743   .debug_str:000000000000014d .LASF7
     /tmp/ccAUj7GT.s:1723   .debug_str:00000000000000c1 .LASF8
     /tmp/ccAUj7GT.s:1725   .debug_str:00000000000000d1 .LASF9
     /tmp/ccAUj7GT.s:1707   .debug_str:0000000000000054 .LASF10
     /tmp/ccAUj7GT.s:1719   .debug_str:00000000000000ac .LASF11
     /tmp/ccAUj7GT.s:1711   .debug_str:0000000000000068 .LASF12
     /tmp/ccAUj7GT.s:1705   .debug_str:0000000000000044 .LASF13
     /tmp/ccAUj7GT.s:1801   .debug_str:0000000000000324 .LASF14
     /tmp/ccAUj7GT.s:1717   .debug_str:0000000000000096 .LASF15
     /tmp/ccAUj7GT.s:1793   .debug_str:00000000000002c1 .LASF16
     /tmp/ccAUj7GT.s:1761   .debug_str:00000000000001c7 .LASF65
     /tmp/ccAUj7GT.s:1759   .debug_str:00000000000001bf .LASF66
     /tmp/ccAUj7GT.s:1769   .debug_str:0000000000000202 .LASF17
     /tmp/ccAUj7GT.s:1829   .debug_str:000000000000047c .LASF18
     /tmp/ccAUj7GT.s:1777   .debug_str:0000000000000251 .LASF19
     /tmp/ccAUj7GT.s:1815   .debug_str:000000000000043a .LASF20
     /tmp/ccAUj7GT.s:1753   .debug_str:0000000000000192 .LASF21
     /tmp/ccAUj7GT.s:1771   .debug_str:0000000000000208 .LASF25
     /tmp/ccAUj7GT.s:1709   .debug_str:0000000000000063 .LASF22
     /tmp/ccAUj7GT.s:1701   .debug_str:0000000000000032 .LASF23
     /tmp/ccAUj7GT.s:1745   .debug_str:0000000000000160 .LASF24
     /tmp/ccAUj7GT.s:1715   .debug_str:0000000000000087 .LASF26
     /tmp/ccAUj7GT.s:1775   .debug_str:0000000000000249 .LASF27
     /tmp/ccAUj7GT.s:1821   .debug_str:0000000000000456 .LASF28
     /tmp/ccAUj7GT.s:1809   .debug_str:0000000000000404 .LASF30
     /tmp/ccAUj7GT.s:1721   .debug_str:00000000000000bb .LASF29
     /tmp/ccAUj7GT.s:1757   .debug_str:00000000000001a1 .LASF31
     /tmp/ccAUj7GT.s:1703   .debug_str:0000000000000037 .LASF32
     /tmp/ccAUj7GT.s:1773   .debug_str:0000000000000217 .LASF33
     /tmp/ccAUj7GT.s:1699   .debug_str:0000000000000019 .LASF67
     /tmp/ccAUj7GT.s:1781   .debug_str:000000000000026d .LASF34
     /tmp/ccAUj7GT.s:1817   .debug_str:000000000000043f .LASF35
     /tmp/ccAUj7GT.s:1731   .debug_str:0000000000000100 .LASF36
     /tmp/ccAUj7GT.s:1739   .debug_str:0000000000000131 .LASF68
     /tmp/ccAUj7GT.s:1799   .debug_str:00000000000002ef .LASF69
     /tmp/ccAUj7GT.s:1755   .debug_str:000000000000019c .LASF37
     /tmp/ccAUj7GT.s:1825   .debug_str:000000000000046a .LASF38
     /tmp/ccAUj7GT.s:1795   .debug_str:00000000000002d7 .LASF70
     /tmp/ccAUj7GT.s:1803   .debug_str:0000000000000330 .LASF39
     /tmp/ccAUj7GT.s:1735   .debug_str:0000000000000119 .LASF40
     /tmp/ccAUj7GT.s:1831   .debug_str:0000000000000486 .LASF41
     /tmp/ccAUj7GT.s:1805   .debug_str:0000000000000335 .LASF43
     /tmp/ccAUj7GT.s:346    .text:000000000000022c .LFB46
     /tmp/ccAUj7GT.s:372    .text:000000000000025c .LFE46
     /tmp/ccAUj7GT.s:361    .text:000000000000024c .LVL35
     /tmp/ccAUj7GT.s:1811   .debug_str:000000000000042f .LASF42
     /tmp/ccAUj7GT.s:1819   .debug_str:000000000000044b .LASF44
     /tmp/ccAUj7GT.s:267    .text:00000000000001a8 .LFB45
     /tmp/ccAUj7GT.s:335    .text:000000000000022c .LFE45
     /tmp/ccAUj7GT.s:1813   .debug_str:0000000000000435 .LASF71
     /tmp/ccAUj7GT.s:1597   .debug_loc:0000000000000000 .LLST5
     /tmp/ccAUj7GT.s:285    .text:00000000000001c0 .LBB8
     /tmp/ccAUj7GT.s:314    .text:0000000000000204 .LBE8
     /tmp/ccAUj7GT.s:1611   .debug_loc:0000000000000039 .LLST6
     /tmp/ccAUj7GT.s:295    .text:00000000000001d8 .LVL29
     /tmp/ccAUj7GT.s:301    .text:00000000000001ec .LVL30
GAS LISTING /tmp/ccAUj7GT.s 			page 15


     /tmp/ccAUj7GT.s:306    .text:00000000000001f8 .LVL31
     /tmp/ccAUj7GT.s:319    .text:0000000000000214 .LVL33
     /tmp/ccAUj7GT.s:1791   .debug_str:00000000000002bb .LASF45
     /tmp/ccAUj7GT.s:1835   .debug_str:000000000000049e .LASF46
     /tmp/ccAUj7GT.s:153    .text:00000000000000d8 .LFB44
     /tmp/ccAUj7GT.s:253    .text:00000000000001a8 .LFE44
     /tmp/ccAUj7GT.s:170    .text:00000000000000f0 .LBB5
     /tmp/ccAUj7GT.s:232    .text:0000000000000180 .LBE5
     /tmp/ccAUj7GT.s:1623   .debug_loc:0000000000000070 .LLST3
     /tmp/ccAUj7GT.s:1685   .debug_ranges:0000000000000000 .Ldebug_ranges0
     /tmp/ccAUj7GT.s:1635   .debug_loc:00000000000000a7 .LLST4
     /tmp/ccAUj7GT.s:182    .text:0000000000000108 .LVL14
     /tmp/ccAUj7GT.s:188    .text:0000000000000118 .LVL15
     /tmp/ccAUj7GT.s:193    .text:0000000000000124 .LVL16
     /tmp/ccAUj7GT.s:198    .text:0000000000000134 .LVL17
     /tmp/ccAUj7GT.s:212    .text:0000000000000150 .LVL19
     /tmp/ccAUj7GT.s:218    .text:0000000000000164 .LVL20
     /tmp/ccAUj7GT.s:228    .text:000000000000017c .LVL23
     /tmp/ccAUj7GT.s:237    .text:0000000000000190 .LVL24
     /tmp/ccAUj7GT.s:1763   .debug_str:00000000000001d7 .LASF47
     /tmp/ccAUj7GT.s:1751   .debug_str:0000000000000182 .LASF48
     /tmp/ccAUj7GT.s:10     .text:0000000000000000 .LFB43
     /tmp/ccAUj7GT.s:127    .text:00000000000000d8 .LFE43
     /tmp/ccAUj7GT.s:1713   .debug_str:0000000000000078 .LASF49
     /tmp/ccAUj7GT.s:1783   .debug_str:0000000000000279 .LASF50
     /tmp/ccAUj7GT.s:1823   .debug_str:000000000000045e .LASF51
     /tmp/ccAUj7GT.s:30     .text:0000000000000018 .LBB2
     /tmp/ccAUj7GT.s:51     .text:0000000000000044 .LBE2
     /tmp/ccAUj7GT.s:1646   .debug_loc:00000000000000dd .LLST0
     /tmp/ccAUj7GT.s:52     .text:0000000000000044 .LBB3
     /tmp/ccAUj7GT.s:86     .text:000000000000008c .LBE3
     /tmp/ccAUj7GT.s:1658   .debug_loc:0000000000000114 .LLST1
     /tmp/ccAUj7GT.s:65     .text:0000000000000060 .LVL4
     /tmp/ccAUj7GT.s:87     .text:000000000000008c .LBB4
     /tmp/ccAUj7GT.s:112    .text:00000000000000c0 .LBE4
     /tmp/ccAUj7GT.s:1665   .debug_loc:0000000000000137 .LLST2
     /tmp/ccAUj7GT.s:91     .text:0000000000000094 .LVL8
     /tmp/ccAUj7GT.s:1797   .debug_str:00000000000002dc .LASF52
     /tmp/ccAUj7GT.s:1827   .debug_str:0000000000000470 .LASF54
     /tmp/ccAUj7GT.s:1779   .debug_str:0000000000000258 .LASF53
     /tmp/ccAUj7GT.s:1727   .debug_str:00000000000000df .LASF55
     /tmp/ccAUj7GT.s:1737   .debug_str:000000000000011e .LASF56
     /tmp/ccAUj7GT.s:1749   .debug_str:0000000000000178 .LASF57
     /tmp/ccAUj7GT.s:1695   .debug_str:0000000000000000 .LASF58
     /tmp/ccAUj7GT.s:1767   .debug_str:00000000000001f5 .LASF59
     /tmp/ccAUj7GT.s:1833   .debug_str:000000000000048c .LASF60
     /tmp/ccAUj7GT.s:1837   .debug_str:00000000000004a9 .LASF61
     /tmp/ccAUj7GT.s:270    .text:00000000000001a8 .LVL26
     /tmp/ccAUj7GT.s:289    .text:00000000000001c8 .LVL28
     /tmp/ccAUj7GT.s:284    .text:00000000000001c0 .LVL27
     /tmp/ccAUj7GT.s:328    .text:0000000000000220 .LVL34
     /tmp/ccAUj7GT.s:169    .text:00000000000000f0 .LVL11
     /tmp/ccAUj7GT.s:174    .text:00000000000000f8 .LVL12
     /tmp/ccAUj7GT.s:248    .text:00000000000001a0 .LVL25
     /tmp/ccAUj7GT.s:180    .text:0000000000000100 .LVL13
     /tmp/ccAUj7GT.s:220    .text:0000000000000168 .LVL21
     /tmp/ccAUj7GT.s:226    .text:0000000000000174 .LVL22
GAS LISTING /tmp/ccAUj7GT.s 			page 16


     /tmp/ccAUj7GT.s:26     .text:0000000000000018 .LVL0
     /tmp/ccAUj7GT.s:33     .text:000000000000001c .LVL1
     /tmp/ccAUj7GT.s:55     .text:0000000000000048 .LVL3
     /tmp/ccAUj7GT.s:82     .text:0000000000000088 .LVL6
     /tmp/ccAUj7GT.s:84     .text:000000000000008c .LVL7
     /tmp/ccAUj7GT.s:122    .text:00000000000000d0 .LVL10
     /tmp/ccAUj7GT.s:380    .debug_info:0000000000000000 .Ldebug_info0
     /tmp/ccAUj7GT.s:176    .text:00000000000000f8 .LBB6
     /tmp/ccAUj7GT.s:199    .text:0000000000000134 .LBE6
     /tmp/ccAUj7GT.s:207    .text:0000000000000140 .LBB7
     /tmp/ccAUj7GT.s:231    .text:0000000000000180 .LBE7

UNDEFINED SYMBOLS
_ZN15MemoryAllocator7kmallocEmNS_7PurposeE
_ZN15MemoryAllocator5kfreeEPv
_Z11printStringPKc
_Z12printIntegerm
semA
_Z8sem_waitP4KSem
_Z10sem_signalP4KSem
_Z9sem_closeP4KSem
