GAS LISTING /tmp/ccPZSv5c.s 			page 1


   1              		.file	"testMemoryAllocator.cpp"
   2              		.option pic
   3              		.option norelax
   4              		.text
   5              	.Ltext0:
   6              		.section	.rodata.str1.8,"aMS",@progbits,1
   7              		.align	3
   8              	.LC0:
   9 0000 0A416C6C 		.string	"\nAllocation failed for index "
   9      6F636174 
   9      696F6E20 
   9      6661696C 
   9      65642066 
  10 001e 0000     		.align	3
  11              	.LC1:
  12 0020 0A416C6C 		.string	"\nAllocated memory at index "
  12      6F636174 
  12      6564206D 
  12      656D6F72 
  12      79206174 
  13 003c 00000000 		.align	3
  14              	.LC2:
  15 0040 0A467265 		.string	"\nFreed memory at index "
  15      6564206D 
  15      656D6F72 
  15      79206174 
  15      20696E64 
  16              		.align	3
  17              	.LC3:
  18 0058 0A446561 		.string	"\nDeallocation failed for index "
  18      6C6C6F63 
  18      6174696F 
  18      6E206661 
  18      696C6564 
  19              		.text
  20              		.align	2
  21              		.globl	_Z10testMemoryv
  23              	_Z10testMemoryv:
  24              	.LFB3:
  25              		.file 1 "src/testMemoryAllocator.cpp"
   1:src/testMemoryAllocator.cpp **** //
   2:src/testMemoryAllocator.cpp **** // Created by os on 5/29/23.
   3:src/testMemoryAllocator.cpp **** //
   4:src/testMemoryAllocator.cpp **** #include "../h/MemoryAllocator.hpp"
   5:src/testMemoryAllocator.cpp **** #include "../h/helper.hpp"
   6:src/testMemoryAllocator.cpp **** 
   7:src/testMemoryAllocator.cpp **** void testMemory() {
  26              		.loc 1 7 19
  27              		.cfi_startproc
  28 0000 130101FB 		addi	sp,sp,-80
  29              		.cfi_def_cfa_offset 80
  30 0004 23341104 		sd	ra,72(sp)
  31 0008 23308104 		sd	s0,64(sp)
  32 000c 233C9102 		sd	s1,56(sp)
  33              		.cfi_offset 1, -8
  34              		.cfi_offset 8, -16
  35              		.cfi_offset 9, -24
GAS LISTING /tmp/ccPZSv5c.s 			page 2


  36 0010 13040105 		addi	s0,sp,80
  37              		.cfi_def_cfa 8, 0
   8:src/testMemoryAllocator.cpp **** 	const int NumAllocations = 5;
  38              		.loc 1 8 2
  39              	.LVL0:
   9:src/testMemoryAllocator.cpp **** 	const int AllocationSize = 16;
  40              		.loc 1 9 2
  10:src/testMemoryAllocator.cpp **** 
  11:src/testMemoryAllocator.cpp **** 	// Allocate and initialize pointers
  12:src/testMemoryAllocator.cpp **** 	int* allocations[NumAllocations];
  41              		.loc 1 12 2
  13:src/testMemoryAllocator.cpp **** 	for (int i = 0; i < NumAllocations; ++i)
  42              		.loc 1 13 2
  43              	.LBB2:
  44              		.loc 1 13 11 is_stmt 0
  45 0014 93070000 		li	a5,0
  46              	.LVL1:
  47              	.L3:
  48              		.loc 1 13 20 is_stmt 1 discriminator 3
  49 0018 13074000 		li	a4,4
  50 001c 634EF700 		bgt	a5,a4,.L10
  14:src/testMemoryAllocator.cpp **** 		allocations[i] = nullptr;
  51              		.loc 1 14 3 discriminator 2
  52              		.loc 1 14 18 is_stmt 0 discriminator 2
  53 0020 13973700 		slli	a4,a5,3
  54 0024 930604FE 		addi	a3,s0,-32
  55 0028 3387E600 		add	a4,a3,a4
  56 002c 233C07FC 		sd	zero,-40(a4)
  13:src/testMemoryAllocator.cpp **** 	for (int i = 0; i < NumAllocations; ++i)
  57              		.loc 1 13 2 is_stmt 1 discriminator 2
  58 0030 9B871700 		addiw	a5,a5,1
  59              	.LVL2:
  60 0034 6FF05FFE 		j	.L3
  61              	.LVL3:
  62              	.L10:
  63              	.LBE2:
  64              	.LBB3:
  15:src/testMemoryAllocator.cpp **** 
  16:src/testMemoryAllocator.cpp **** 	// Allocate memory
  17:src/testMemoryAllocator.cpp **** 	for (int i = 0; i < NumAllocations; ++i) {
  65              		.loc 1 17 11 is_stmt 0
  66 0038 93040000 		li	s1,0
  67              	.LVL4:
  68              	.L2:
  69              		.loc 1 17 20 is_stmt 1 discriminator 1
  70 003c 93074000 		li	a5,4
  71 0040 63C29706 		bgt	s1,a5,.L4
  18:src/testMemoryAllocator.cpp **** 		allocations[i] = static_cast<int*>(MemoryAllocator::kmalloc(AllocationSize));
  72              		.loc 1 18 3
  73              		.loc 1 18 62 is_stmt 0
  74 0044 13050001 		li	a0,16
  75 0048 97000000 		call	_ZN15MemoryAllocator7kmallocEm@plt
  75      E7800000 
  76              	.LVL5:
  77              		.loc 1 18 18
  78 0050 93973400 		slli	a5,s1,3
  79 0054 130704FE 		addi	a4,s0,-32
GAS LISTING /tmp/ccPZSv5c.s 			page 3


  80 0058 B307F700 		add	a5,a4,a5
  81 005c 23BCA7FC 		sd	a0,-40(a5)
  19:src/testMemoryAllocator.cpp **** 		if (allocations[i] == nullptr) {
  82              		.loc 1 19 3 is_stmt 1
  83 0060 63040502 		beqz	a0,.L12
  20:src/testMemoryAllocator.cpp **** 			printString("\nAllocation failed for index ");
  21:src/testMemoryAllocator.cpp **** 			printInteger(i);
  22:src/testMemoryAllocator.cpp **** 			break;
  23:src/testMemoryAllocator.cpp **** 		}
  24:src/testMemoryAllocator.cpp **** 		printString("\nAllocated memory at index ");
  84              		.loc 1 24 3
  85              		.loc 1 24 14 is_stmt 0
  86 0064 17050000 		lla	a0,.LC1
  86      13050500 
  87 006c 97000000 		call	_Z11printStringPKc@plt
  87      E7800000 
  88              	.LVL6:
  25:src/testMemoryAllocator.cpp **** 		printInteger(i);
  89              		.loc 1 25 3 is_stmt 1
  90              		.loc 1 25 15 is_stmt 0
  91 0074 13850400 		mv	a0,s1
  92 0078 97000000 		call	_Z12printIntegerm@plt
  92      E7800000 
  93              	.LVL7:
  17:src/testMemoryAllocator.cpp **** 		allocations[i] = static_cast<int*>(MemoryAllocator::kmalloc(AllocationSize));
  94              		.loc 1 17 2 is_stmt 1
  95 0080 9B841400 		addiw	s1,s1,1
  96              	.LVL8:
  97 0084 6FF09FFB 		j	.L2
  98              	.LVL9:
  99              	.L12:
  20:src/testMemoryAllocator.cpp **** 			printString("\nAllocation failed for index ");
 100              		.loc 1 20 4
  20:src/testMemoryAllocator.cpp **** 			printString("\nAllocation failed for index ");
 101              		.loc 1 20 15 is_stmt 0
 102 0088 17050000 		lla	a0,.LC0
 102      13050500 
 103 0090 97000000 		call	_Z11printStringPKc@plt
 103      E7800000 
 104              	.LVL10:
  21:src/testMemoryAllocator.cpp **** 			break;
 105              		.loc 1 21 4 is_stmt 1
  21:src/testMemoryAllocator.cpp **** 			break;
 106              		.loc 1 21 16 is_stmt 0
 107 0098 13850400 		mv	a0,s1
 108 009c 97000000 		call	_Z12printIntegerm@plt
 108      E7800000 
 109              	.LVL11:
 110              	.L4:
  17:src/testMemoryAllocator.cpp **** 		allocations[i] = static_cast<int*>(MemoryAllocator::kmalloc(AllocationSize));
 111              		.loc 1 17 11 discriminator 1
 112 00a4 93040000 		li	s1,0
 113              	.LVL12:
 114 00a8 6F004002 		j	.L9
 115              	.LVL13:
 116              	.L8:
 117              	.LBE3:
GAS LISTING /tmp/ccPZSv5c.s 			page 4


 118              	.LBB4:
  26:src/testMemoryAllocator.cpp **** 	}
  27:src/testMemoryAllocator.cpp **** 
  28:src/testMemoryAllocator.cpp **** 	// Free memory
  29:src/testMemoryAllocator.cpp **** 	for (int i = 0; i < NumAllocations; ++i) {
  30:src/testMemoryAllocator.cpp **** 		if (allocations[i] != nullptr) {
  31:src/testMemoryAllocator.cpp **** 			if (MemoryAllocator::kfree(allocations[i]) == 0) {
  32:src/testMemoryAllocator.cpp **** 				allocations[i] = nullptr;
  33:src/testMemoryAllocator.cpp **** 				printString("\nFreed memory at index ");
  34:src/testMemoryAllocator.cpp **** 				printInteger(i);
  35:src/testMemoryAllocator.cpp **** 			} else {
  36:src/testMemoryAllocator.cpp **** 				printString("\nDeallocation failed for index ");
 119              		.loc 1 36 5 is_stmt 1
 120              		.loc 1 36 16 is_stmt 0
 121 00ac 17050000 		lla	a0,.LC3
 121      13050500 
 122 00b4 97000000 		call	_Z11printStringPKc@plt
 122      E7800000 
 123              	.LVL14:
  37:src/testMemoryAllocator.cpp **** 				printInteger(i);
 124              		.loc 1 37 5 is_stmt 1
 125              		.loc 1 37 17 is_stmt 0
 126 00bc 13850400 		mv	a0,s1
 127 00c0 97000000 		call	_Z12printIntegerm@plt
 127      E7800000 
 128              	.LVL15:
 129              	.L7:
  29:src/testMemoryAllocator.cpp **** 		if (allocations[i] != nullptr) {
 130              		.loc 1 29 2 is_stmt 1 discriminator 2
 131 00c8 9B841400 		addiw	s1,s1,1
 132              	.LVL16:
 133              	.L9:
  29:src/testMemoryAllocator.cpp **** 		if (allocations[i] != nullptr) {
 134              		.loc 1 29 20 discriminator 1
 135 00cc 93074000 		li	a5,4
 136 00d0 63CA9704 		bgt	s1,a5,.L1
  30:src/testMemoryAllocator.cpp **** 			if (MemoryAllocator::kfree(allocations[i]) == 0) {
 137              		.loc 1 30 3
  30:src/testMemoryAllocator.cpp **** 			if (MemoryAllocator::kfree(allocations[i]) == 0) {
 138              		.loc 1 30 20 is_stmt 0
 139 00d4 93973400 		slli	a5,s1,3
 140 00d8 130704FE 		addi	a4,s0,-32
 141 00dc B307F700 		add	a5,a4,a5
 142 00e0 03B587FD 		ld	a0,-40(a5)
  30:src/testMemoryAllocator.cpp **** 			if (MemoryAllocator::kfree(allocations[i]) == 0) {
 143              		.loc 1 30 3
 144 00e4 E30205FE 		beqz	a0,.L7
  31:src/testMemoryAllocator.cpp **** 				allocations[i] = nullptr;
 145              		.loc 1 31 4 is_stmt 1
  31:src/testMemoryAllocator.cpp **** 				allocations[i] = nullptr;
 146              		.loc 1 31 30 is_stmt 0
 147 00e8 97000000 		call	_ZN15MemoryAllocator5kfreeEPv@plt
 147      E7800000 
 148              	.LVL17:
  31:src/testMemoryAllocator.cpp **** 				allocations[i] = nullptr;
 149              		.loc 1 31 4
 150 00f0 E31E05FA 		bnez	a0,.L8
GAS LISTING /tmp/ccPZSv5c.s 			page 5


  32:src/testMemoryAllocator.cpp **** 				printString("\nFreed memory at index ");
 151              		.loc 1 32 5 is_stmt 1
  32:src/testMemoryAllocator.cpp **** 				printString("\nFreed memory at index ");
 152              		.loc 1 32 20 is_stmt 0
 153 00f4 93973400 		slli	a5,s1,3
 154 00f8 130704FE 		addi	a4,s0,-32
 155 00fc B307F700 		add	a5,a4,a5
 156 0100 23BC07FC 		sd	zero,-40(a5)
  33:src/testMemoryAllocator.cpp **** 				printInteger(i);
 157              		.loc 1 33 5 is_stmt 1
  33:src/testMemoryAllocator.cpp **** 				printInteger(i);
 158              		.loc 1 33 16 is_stmt 0
 159 0104 17050000 		lla	a0,.LC2
 159      13050500 
 160 010c 97000000 		call	_Z11printStringPKc@plt
 160      E7800000 
 161              	.LVL18:
  34:src/testMemoryAllocator.cpp **** 			} else {
 162              		.loc 1 34 5 is_stmt 1
  34:src/testMemoryAllocator.cpp **** 			} else {
 163              		.loc 1 34 17 is_stmt 0
 164 0114 13850400 		mv	a0,s1
 165 0118 97000000 		call	_Z12printIntegerm@plt
 165      E7800000 
 166              	.LVL19:
 167 0120 6FF09FFA 		j	.L7
 168              	.L1:
 169              	.LBE4:
  38:src/testMemoryAllocator.cpp **** 			}
  39:src/testMemoryAllocator.cpp **** 		}
  40:src/testMemoryAllocator.cpp **** 	}
  41:src/testMemoryAllocator.cpp **** }...
 170              		.loc 1 41 1
 171 0124 83308104 		ld	ra,72(sp)
 172              		.cfi_restore 1
 173 0128 03340104 		ld	s0,64(sp)
 174              		.cfi_restore 8
 175              		.cfi_def_cfa 2, 80
 176 012c 83348103 		ld	s1,56(sp)
 177              		.cfi_restore 9
 178              	.LVL20:
 179 0130 13010105 		addi	sp,sp,80
 180              		.cfi_def_cfa_offset 0
 181 0134 67800000 		jr	ra
 182              		.cfi_endproc
 183              	.LFE3:
 185              	.Letext0:
 186              		.file 2 "src/../h/../lib/hw.h"
 187              		.file 3 "src/../h/MemoryAllocator.hpp"
 188              		.file 4 "src/../h/helper.hpp"
GAS LISTING /tmp/ccPZSv5c.s 			page 6

