GAS LISTING /tmp/ccaTqlnt.s 			page 1


   1              		.file	"testFunctions.cpp"
   2              		.option pic
   3              		.option norelax
   4              		.text
   5              	.Ltext0:
   6              		.section	.rodata
   7              		.align	3
   8              	.LC0:
   9 0000 6E656100 		.string	"nea"
  10              		.text
  11              		.align	2
  12              		.globl	_Z10testMemoryv
  14              	_Z10testMemoryv:
  15              	.LFB50:
  16              		.file 1 "src/testFunctions.cpp"
   1:src/testFunctions.cpp **** //
   2:src/testFunctions.cpp **** // Created by os on 5/29/23.
   3:src/testFunctions.cpp **** //
   4:src/testFunctions.cpp **** #include "../visak/MemoryAllocator.hpp"
   5:src/testFunctions.cpp **** #include "../h/helper.hpp"
   6:src/testFunctions.cpp **** //#include "../lib/console.h"
   7:src/testFunctions.cpp **** #include "../lib/hw.h"
   8:src/testFunctions.cpp **** #include "../h/helper.hpp"
   9:src/testFunctions.cpp **** #include "../h/Riscv.hpp"
  10:src/testFunctions.cpp **** #include "../h/syscall_c.hpp"
  11:src/testFunctions.cpp **** #include "../h/syscall_cpp.hpp"
  12:src/testFunctions.cpp **** #include "../visak/List.hpp"
  13:src/testFunctions.cpp **** #include "../h/KMemory.hpp"
  14:src/testFunctions.cpp **** #include "../h/TCB.hpp"
  15:src/testFunctions.cpp **** #include "../h/ThreadQueue.hpp"
  16:src/testFunctions.cpp **** //#include "../h/KSem.hpp"
  17:src/testFunctions.cpp **** 
  18:src/testFunctions.cpp **** #include "../test/printing.hpp"
  19:src/testFunctions.cpp **** #include "../h/KConsole.hpp"
  20:src/testFunctions.cpp **** 
  21:src/testFunctions.cpp **** extern "C" void interruptHandler();
  22:src/testFunctions.cpp **** 
  23:src/testFunctions.cpp **** void userMain();
  24:src/testFunctions.cpp **** 
  25:src/testFunctions.cpp **** void idle(void*);
  26:src/testFunctions.cpp **** 
  27:src/testFunctions.cpp **** void kernelConsumerFunction(void*);
  28:src/testFunctions.cpp **** //void printInteger(int i){
  29:src/testFunctions.cpp **** //	printInt(i);
  30:src/testFunctions.cpp **** //}
  31:src/testFunctions.cpp **** //extern Semaphore* semA;
  32:src/testFunctions.cpp **** 
  33:src/testFunctions.cpp **** char* upisi(size_t alociraj) {
  34:src/testFunctions.cpp ****     char* pok = (char*)MemoryAllocator::kmalloc(alociraj);
  35:src/testFunctions.cpp ****     if (pok) {
  36:src/testFunctions.cpp ****         for (uint64 i = 0; i < alociraj - sizeof(MemoryAllocator::UsedMemSegment); i++) {
  37:src/testFunctions.cpp ****             pok[i] = '8';
  38:src/testFunctions.cpp ****         }
  39:src/testFunctions.cpp ****     }
  40:src/testFunctions.cpp **** 
  41:src/testFunctions.cpp ****     return pok;
  42:src/testFunctions.cpp **** }
GAS LISTING /tmp/ccaTqlnt.s 			page 2


  43:src/testFunctions.cpp **** 
  44:src/testFunctions.cpp **** #pragma GCC optimize("O0")
  45:src/testFunctions.cpp **** 
  46:src/testFunctions.cpp **** void testMemory() {
  17              		.loc 1 46 19
  18              		.cfi_startproc
  19 0000 130101E6 		addi	sp,sp,-416
  20              		.cfi_def_cfa_offset 416
  21 0004 233C1118 		sd	ra,408(sp)
  22 0008 23388118 		sd	s0,400(sp)
  23              		.cfi_offset 1, -8
  24              		.cfi_offset 8, -16
  25 000c 1304011A 		addi	s0,sp,416
  26              		.cfi_def_cfa 8, 0
  47:src/testFunctions.cpp ****     char* pokazivaci[50];
  27              		.loc 1 47 5
  48:src/testFunctions.cpp ****     pokazivaci[0] = nullptr;
  28              		.loc 1 48 5
  29              		.loc 1 48 19 is_stmt 0
  30 0010 233004E6 		sd	zero,-416(s0)
  49:src/testFunctions.cpp ****     pokazivaci[0] = upisi(1024 + 768);
  31              		.loc 1 49 5 is_stmt 1
  32              		.loc 1 49 26 is_stmt 0
  33 0014 13050070 		li	a0,1792
  34 0018 97000000 		call	_Z5upisim
  34      E7800000 
  35              	.LVL0:
  36 0020 93070500 		mv	a5,a0
  37              		.loc 1 49 19
  38 0024 2330F4E6 		sd	a5,-416(s0)
  50:src/testFunctions.cpp ****     if (pokazivaci[0]) {
  39              		.loc 1 50 5 is_stmt 1
  40              		.loc 1 50 21 is_stmt 0
  41 0028 833704E6 		ld	a5,-416(s0)
  42              		.loc 1 50 5
  43 002c 638C0702 		beqz	a5,.L2
  51:src/testFunctions.cpp ****         if (pokazivaci[0][0] == '8') {
  44              		.loc 1 51 9 is_stmt 1
  45              		.loc 1 51 25 is_stmt 0
  46 0030 833704E6 		ld	a5,-416(s0)
  47              		.loc 1 51 28
  48 0034 83C70700 		lbu	a5,0(a5)
  49              		.loc 1 51 9
  50 0038 13870700 		mv	a4,a5
  51 003c 93078003 		li	a5,56
  52 0040 631AF700 		bne	a4,a5,.L3
  52:src/testFunctions.cpp ****             printString("nea");
  53              		.loc 1 52 13 is_stmt 1
  54              		.loc 1 52 24 is_stmt 0
  55 0044 17050000 		lla	a0,.LC0
  55      13050500 
  56 004c 97000000 		call	_Z11printStringPKc@plt
  56      E7800000 
  57              	.LVL1:
  58              	.L3:
  53:src/testFunctions.cpp ****         }
  54:src/testFunctions.cpp ****         MemoryAllocator::kfree(pokazivaci[0]);
GAS LISTING /tmp/ccaTqlnt.s 			page 3


  59              		.loc 1 54 9 is_stmt 1
  60              		.loc 1 54 44 is_stmt 0
  61 0054 833704E6 		ld	a5,-416(s0)
  62              		.loc 1 54 31
  63 0058 13850700 		mv	a0,a5
  64 005c 97000000 		call	_ZN15MemoryAllocator5kfreeEPv@plt
  64      E7800000 
  65              	.LVL2:
  66              	.L2:
  55:src/testFunctions.cpp ****     }
  56:src/testFunctions.cpp **** 
  57:src/testFunctions.cpp **** 
  58:src/testFunctions.cpp ****     pokazivaci[0] = upisi(4096);
  67              		.loc 1 58 5 is_stmt 1
  68              		.loc 1 58 26 is_stmt 0
  69 0064 37150000 		li	a0,4096
  70 0068 97000000 		call	_Z5upisim
  70      E7800000 
  71              	.LVL3:
  72 0070 93070500 		mv	a5,a0
  73              		.loc 1 58 19
  74 0074 2330F4E6 		sd	a5,-416(s0)
  59:src/testFunctions.cpp ****     if (pokazivaci[0]) {
  75              		.loc 1 59 5 is_stmt 1
  76              		.loc 1 59 21 is_stmt 0
  77 0078 833704E6 		ld	a5,-416(s0)
  78              		.loc 1 59 5
  79 007c 638A0700 		beqz	a5,.L4
  60:src/testFunctions.cpp ****         MemoryAllocator::kfree(pokazivaci[0]);
  80              		.loc 1 60 9 is_stmt 1
  81              		.loc 1 60 44 is_stmt 0
  82 0080 833704E6 		ld	a5,-416(s0)
  83              		.loc 1 60 31
  84 0084 13850700 		mv	a0,a5
  85 0088 97000000 		call	_ZN15MemoryAllocator5kfreeEPv@plt
  85      E7800000 
  86              	.LVL4:
  87              	.L4:
  61:src/testFunctions.cpp ****     }
  62:src/testFunctions.cpp **** 
  63:src/testFunctions.cpp ****     pokazivaci[0] = upisi(1024 + 768);
  88              		.loc 1 63 5 is_stmt 1
  89              		.loc 1 63 26 is_stmt 0
  90 0090 13050070 		li	a0,1792
  91 0094 97000000 		call	_Z5upisim
  91      E7800000 
  92              	.LVL5:
  93 009c 93070500 		mv	a5,a0
  94              		.loc 1 63 19
  95 00a0 2330F4E6 		sd	a5,-416(s0)
  64:src/testFunctions.cpp ****     MemoryAllocator::kfree(pokazivaci[0]);
  96              		.loc 1 64 5 is_stmt 1
  97              		.loc 1 64 40 is_stmt 0
  98 00a4 833704E6 		ld	a5,-416(s0)
  99              		.loc 1 64 27
 100 00a8 13850700 		mv	a0,a5
 101 00ac 97000000 		call	_ZN15MemoryAllocator5kfreeEPv@plt
GAS LISTING /tmp/ccaTqlnt.s 			page 4


 101      E7800000 
 102              	.LVL6:
  65:src/testFunctions.cpp **** 
  66:src/testFunctions.cpp **** }
 103              		.loc 1 66 1
 104 00b4 13000000 		nop
 105 00b8 83308119 		ld	ra,408(sp)
 106              		.cfi_restore 1
 107 00bc 03340119 		ld	s0,400(sp)
 108              		.cfi_restore 8
 109              		.cfi_def_cfa 2, 416
 110 00c0 1301011A 		addi	sp,sp,416
 111              		.cfi_def_cfa_offset 0
 112 00c4 67800000 		jr	ra
 113              		.cfi_endproc
 114              	.LFE50:
 116              		.align	2
 117              		.globl	_Z13emptyFunctionPv
 119              	_Z13emptyFunctionPv:
 120              	.LFB52:
  67:src/testFunctions.cpp **** 
  68:src/testFunctions.cpp **** class idlethr : public Thread {
  69:src/testFunctions.cpp **** public:
  70:src/testFunctions.cpp ****     void run() override {
  71:src/testFunctions.cpp ****         thread_dispatch();
  72:src/testFunctions.cpp ****     }
  73:src/testFunctions.cpp **** };
  74:src/testFunctions.cpp **** void emptyFunction(void*){}
 121              		.loc 1 74 26 is_stmt 1
 122              		.cfi_startproc
 123 00c8 130101FE 		addi	sp,sp,-32
 124              		.cfi_def_cfa_offset 32
 125 00cc 233C8100 		sd	s0,24(sp)
 126              		.cfi_offset 8, -8
 127 00d0 13040102 		addi	s0,sp,32
 128              		.cfi_def_cfa 8, 0
 129 00d4 2334A4FE 		sd	a0,-24(s0)
 130              		.loc 1 74 27 is_stmt 0
 131 00d8 13000000 		nop
 132 00dc 03348101 		ld	s0,24(sp)
 133              		.cfi_restore 8
 134              		.cfi_def_cfa 2, 32
 135 00e0 13010102 		addi	sp,sp,32
 136              		.cfi_def_cfa_offset 0
 137 00e4 67800000 		jr	ra
 138              		.cfi_endproc
 139              	.LFE52:
 141              		.align	2
 142              		.globl	_Z5nit1fPv
 144              	_Z5nit1fPv:
 145              	.LFB53:
  75:src/testFunctions.cpp **** void nit1f(void*) {
 146              		.loc 1 75 19 is_stmt 1
 147              		.cfi_startproc
 148 00e8 130101FD 		addi	sp,sp,-48
 149              		.cfi_def_cfa_offset 48
 150 00ec 23341102 		sd	ra,40(sp)
GAS LISTING /tmp/ccaTqlnt.s 			page 5


 151 00f0 23308102 		sd	s0,32(sp)
 152              		.cfi_offset 1, -8
 153              		.cfi_offset 8, -16
 154 00f4 13040103 		addi	s0,sp,48
 155              		.cfi_def_cfa 8, 0
 156 00f8 233CA4FC 		sd	a0,-40(s0)
 157              	.L7:
  76:src/testFunctions.cpp ****     while (true) {
 158              		.loc 1 76 5
 159              	.LBB14:
  77:src/testFunctions.cpp ****         thread_t handle;
 160              		.loc 1 77 9
  78:src/testFunctions.cpp ****         thread_create(&handle, emptyFunction, nullptr);
 161              		.loc 1 78 9
 162              		.loc 1 78 22 is_stmt 0
 163 00fc 930784FE 		addi	a5,s0,-24
 164 0100 13060000 		li	a2,0
 165 0104 97050000 		lla	a1,_Z13emptyFunctionPv
 165      93850500 
 166 010c 13850700 		mv	a0,a5
 167 0110 97000000 		call	_Z13thread_createPP3TCBPFvPvES2_@plt
 167      E7800000 
 168              	.LVL7:
 169              	.LBE14:
  76:src/testFunctions.cpp ****     while (true) {
 170              		.loc 1 76 5 is_stmt 1
  79:src/testFunctions.cpp ****     }
 171              		.loc 1 79 5 is_stmt 0
 172 0118 6FF05FFE 		j	.L7
 173              		.cfi_endproc
 174              	.LFE53:
 176              		.section	.text._ZN3perC2Em,"axG",@progbits,_ZN3perC5Em,comdat
 177              		.align	2
 178              		.weak	_ZN3perC2Em
 180              	_ZN3perC2Em:
 181              	.LFB59:
  80:src/testFunctions.cpp **** 
  81:src/testFunctions.cpp ****     printString("\nGotova nit 1\n");
  82:src/testFunctions.cpp **** }
  83:src/testFunctions.cpp **** 
  84:src/testFunctions.cpp **** class per : public PeriodicThread {
  85:src/testFunctions.cpp **** public:
  86:src/testFunctions.cpp ****     per(time_t period) : PeriodicThread(period) {}
 182              		.loc 1 86 5 is_stmt 1
 183              		.cfi_startproc
 184              	.LVL8:
 185 0000 130101FE 		addi	sp,sp,-32
 186              		.cfi_def_cfa_offset 32
 187 0004 233C1100 		sd	ra,24(sp)
 188 0008 23388100 		sd	s0,16(sp)
 189              		.cfi_offset 1, -8
 190              		.cfi_offset 8, -16
 191 000c 13040102 		addi	s0,sp,32
 192              		.cfi_def_cfa 8, 0
 193 0010 2334A4FE 		sd	a0,-24(s0)
 194 0014 2330B4FE 		sd	a1,-32(s0)
 195              	.LBB15:
GAS LISTING /tmp/ccaTqlnt.s 			page 6


 196              		.loc 1 86 47 is_stmt 0
 197 0018 833784FE 		ld	a5,-24(s0)
 198 001c 833504FE 		ld	a1,-32(s0)
 199 0020 13850700 		mv	a0,a5
 200 0024 97000000 		call	_ZN14PeriodicThreadC2Em@plt
 200      E7800000 
 201              	.LVL9:
 202 002c 17070000 		lla	a4,_ZTV3per+16
 202      13070700 
 203 0034 833784FE 		ld	a5,-24(s0)
 204 0038 23B0E700 		sd	a4,0(a5)
 205              	.LBE15:
 206              		.loc 1 86 50
 207 003c 13000000 		nop
 208 0040 83308101 		ld	ra,24(sp)
 209              		.cfi_restore 1
 210 0044 03340101 		ld	s0,16(sp)
 211              		.cfi_restore 8
 212              		.cfi_def_cfa 2, 32
 213              	.LVL10:
 214 0048 13010102 		addi	sp,sp,32
 215              		.cfi_def_cfa_offset 0
 216              	.LVL11:
 217 004c 67800000 		jr	ra
 218              		.cfi_endproc
 219              	.LFE59:
 221              		.weak	_ZN3perC1Em
 222              		.set	_ZN3perC1Em,_ZN3perC2Em
 223              		.section	.rodata
 224 0004 00000000 		.align	3
 225              	.LC1:
 226 0008 4A616E6B 		.string	"Janko\n"
 226      6F0A00
 227              		.section	.text._ZN3per18periodicActivationEv,"axG",@progbits,_ZN3per18periodicActivationEv,comdat
 228              		.align	2
 229              		.weak	_ZN3per18periodicActivationEv
 231              	_ZN3per18periodicActivationEv:
 232              	.LFB61:
  87:src/testFunctions.cpp **** 
  88:src/testFunctions.cpp ****     void periodicActivation() override {
 233              		.loc 1 88 10 is_stmt 1
 234              		.cfi_startproc
 235              	.LVL12:
 236 0000 130101FE 		addi	sp,sp,-32
 237              		.cfi_def_cfa_offset 32
 238 0004 233C1100 		sd	ra,24(sp)
 239 0008 23388100 		sd	s0,16(sp)
 240              		.cfi_offset 1, -8
 241              		.cfi_offset 8, -16
 242 000c 13040102 		addi	s0,sp,32
 243              		.cfi_def_cfa 8, 0
 244 0010 2334A4FE 		sd	a0,-24(s0)
  89:src/testFunctions.cpp ****         printString("Janko\n");
 245              		.loc 1 89 9
 246              		.loc 1 89 20 is_stmt 0
 247 0014 17050000 		lla	a0,.LC1
 247      13050500 
GAS LISTING /tmp/ccaTqlnt.s 			page 7


 248              	.LVL13:
 249 001c 97000000 		call	_Z11printStringPKc@plt
 249      E7800000 
 250              	.LVL14:
  90:src/testFunctions.cpp ****     }
 251              		.loc 1 90 5
 252 0024 13000000 		nop
 253 0028 83308101 		ld	ra,24(sp)
 254              		.cfi_restore 1
 255 002c 03340101 		ld	s0,16(sp)
 256              		.cfi_restore 8
 257              		.cfi_def_cfa 2, 32
 258              	.LVL15:
 259 0030 13010102 		addi	sp,sp,32
 260              		.cfi_def_cfa_offset 0
 261              	.LVL16:
 262 0034 67800000 		jr	ra
 263              		.cfi_endproc
 264              	.LFE61:
 266              		.section	.rodata
 267 000f 00       		.align	3
 268              	.LC2:
 269 0010 0A476F74 		.string	"\nGotova nit 2\n"
 269      6F766120 
 269      6E697420 
 269      320A00
 270              		.text
 271              		.align	2
 272              		.globl	_Z5nit2fPv
 274              	_Z5nit2fPv:
 275              	.LFB62:
  91:src/testFunctions.cpp **** };
  92:src/testFunctions.cpp **** 
  93:src/testFunctions.cpp **** void nit2f(void* arg2) {
 276              		.loc 1 93 24 is_stmt 1
 277              		.cfi_startproc
 278              		.cfi_personality 0x9b,DW.ref.__gxx_personality_v0
 279              		.cfi_lsda 0x1b,.LLSDA62
 280              	.LVL17:
 281 011c 130101FC 		addi	sp,sp,-64
 282              		.cfi_def_cfa_offset 64
 283 0120 233C1102 		sd	ra,56(sp)
 284 0124 23388102 		sd	s0,48(sp)
 285 0128 23349102 		sd	s1,40(sp)
 286 012c 23302103 		sd	s2,32(sp)
 287              		.cfi_offset 1, -8
 288              		.cfi_offset 8, -16
 289              		.cfi_offset 9, -24
 290              		.cfi_offset 18, -32
 291 0130 13040104 		addi	s0,sp,64
 292              		.cfi_def_cfa 8, 0
 293 0134 2334A4FC 		sd	a0,-56(s0)
  94:src/testFunctions.cpp ****     PeriodicThread* pt = new per(10);
 294              		.loc 1 94 5
 295              		.loc 1 94 36 is_stmt 0
 296 0138 13058002 		li	a0,40
 297              	.LVL18:
GAS LISTING /tmp/ccaTqlnt.s 			page 8


 298              	.LEHB0:
 299 013c 97000000 		call	_Znwm@plt
 299      E7800000 
 300              	.LVL19:
 301              	.LEHE0:
 302 0144 93070500 		mv	a5,a0
 303 0148 93840700 		mv	s1,a5
 304 014c 9305A000 		li	a1,10
 305 0150 13850400 		mv	a0,s1
 306              	.LEHB1:
 307 0154 97000000 		call	_ZN3perC1Em
 307      E7800000 
 308              	.LVL20:
 309              	.LEHE1:
 310              		.loc 1 94 36 discriminator 2
 311 015c 233C94FC 		sd	s1,-40(s0)
 312              	.LVL21:
  95:src/testFunctions.cpp ****     pt->start();
 313              		.loc 1 95 5 is_stmt 1 discriminator 2
 314              		.loc 1 95 14 is_stmt 0 discriminator 2
 315 0160 833784FD 		ld	a5,-40(s0)
 316 0164 13850700 		mv	a0,a5
 317              	.LEHB2:
 318 0168 97000000 		call	_ZN6Thread5startEv@plt
 318      E7800000 
 319              	.LVL22:
  96:src/testFunctions.cpp ****     time_sleep(15);
 320              		.loc 1 96 5 is_stmt 1 discriminator 2
 321              		.loc 1 96 15 is_stmt 0 discriminator 2
 322 0170 1305F000 		li	a0,15
 323 0174 97000000 		call	_Z10time_sleepm@plt
 323      E7800000 
 324              	.LVL23:
  97:src/testFunctions.cpp ****     pt->terminate();
 325              		.loc 1 97 5 is_stmt 1 discriminator 2
 326              		.loc 1 97 18 is_stmt 0 discriminator 2
 327 017c 033584FD 		ld	a0,-40(s0)
 328 0180 97000000 		call	_ZN14PeriodicThread9terminateEv@plt
 328      E7800000 
 329              	.LVL24:
  98:src/testFunctions.cpp ****     printString("\nGotova nit 2\n");
 330              		.loc 1 98 5 is_stmt 1 discriminator 2
 331              		.loc 1 98 16 is_stmt 0 discriminator 2
 332 0188 17050000 		lla	a0,.LC2
 332      13050500 
 333 0190 97000000 		call	_Z11printStringPKc@plt
 333      E7800000 
 334              	.LVL25:
  99:src/testFunctions.cpp **** }
 335              		.loc 1 99 1 discriminator 2
 336 0198 6F004002 		j	.L13
 337              	.LVL26:
 338              	.L12:
 339 019c 13090500 		mv	s2,a0
  94:src/testFunctions.cpp ****     pt->start();
 340              		.loc 1 94 36
 341 01a0 13850400 		mv	a0,s1
GAS LISTING /tmp/ccaTqlnt.s 			page 9


 342 01a4 97000000 		call	_ZdlPv@plt
 342      E7800000 
 343              	.LVL27:
 344 01ac 93070900 		mv	a5,s2
 345 01b0 13850700 		mv	a0,a5
 346 01b4 97000000 		call	_Unwind_Resume@plt
 346      E7800000 
 347              	.LVL28:
 348              	.LEHE2:
 349              	.L13:
 350              		.loc 1 99 1
 351 01bc 83308103 		ld	ra,56(sp)
 352              		.cfi_restore 1
 353 01c0 03340103 		ld	s0,48(sp)
 354              		.cfi_restore 8
 355              		.cfi_def_cfa 2, 64
 356              	.LVL29:
 357 01c4 83348102 		ld	s1,40(sp)
 358              		.cfi_restore 9
 359 01c8 03390102 		ld	s2,32(sp)
 360              		.cfi_restore 18
 361 01cc 13010104 		addi	sp,sp,64
 362              		.cfi_def_cfa_offset 0
 363              	.LVL30:
 364 01d0 67800000 		jr	ra
 365              		.cfi_endproc
 366              	.LFE62:
 367              		.globl	__gxx_personality_v0
 368              		.section	.gcc_except_table,"a",@progbits
 369              	.LLSDA62:
 370 0000 FF       		.byte	0xff
 371 0001 FF       		.byte	0xff
 372 0002 03       		.byte	0x3
 373 0003 27       		.byte	0x27
 374 0004 00000000 		.4byte	.LEHB0-.LFB62
 375 0008 00000000 		.4byte	.LEHE0-.LEHB0
 376 000c 00000000 		.4byte	0
 377 0010 00       		.byte	0
 378 0011 00000000 		.4byte	.LEHB1-.LFB62
 379 0015 00000000 		.4byte	.LEHE1-.LEHB1
 380 0019 00000000 		.4byte	.L12-.LFB62
 381 001d 00       		.byte	0
 382 001e 00000000 		.4byte	.LEHB2-.LFB62
 383 0022 00000000 		.4byte	.LEHE2-.LEHB2
 384 0026 00000000 		.4byte	0
 385 002a 00       		.byte	0
 386              		.text
 388              		.section	.rodata
 389 001f 00       		.align	3
 390              	.LC3:
 391 0020 0A476F74 		.string	"\nGotova nit3\n"
 391      6F766120 
 391      6E697433 
 391      0A00
 392              		.text
 393              		.align	2
 394              		.globl	_Z5nit3fPv
GAS LISTING /tmp/ccaTqlnt.s 			page 10


 396              	_Z5nit3fPv:
 397              	.LFB63:
 100:src/testFunctions.cpp **** 
 101:src/testFunctions.cpp **** 
 102:src/testFunctions.cpp **** void nit3f(void*) {
 398              		.loc 1 102 19 is_stmt 1
 399              		.cfi_startproc
 400 01d4 130101FD 		addi	sp,sp,-48
 401              		.cfi_def_cfa_offset 48
 402 01d8 23341102 		sd	ra,40(sp)
 403 01dc 23308102 		sd	s0,32(sp)
 404              		.cfi_offset 1, -8
 405              		.cfi_offset 8, -16
 406 01e0 13040103 		addi	s0,sp,48
 407              		.cfi_def_cfa 8, 0
 408 01e4 233CA4FC 		sd	a0,-40(s0)
 409              	.L17:
 103:src/testFunctions.cpp ****     char slovo;
 410              		.loc 1 103 5
 104:src/testFunctions.cpp ****     do {
 411              		.loc 1 104 5
 105:src/testFunctions.cpp ****         slovo = getc();
 412              		.loc 1 105 9
 413              		.loc 1 105 21 is_stmt 0
 414 01e8 97000000 		call	_Z4getcv@plt
 414      E7800000 
 415              	.LVL31:
 416 01f0 93070500 		mv	a5,a0
 417 01f4 A307F4FE 		sb	a5,-17(s0)
 418              	.LVL32:
 106:src/testFunctions.cpp ****         putc(slovo);
 419              		.loc 1 106 9 is_stmt 1
 420              		.loc 1 106 13 is_stmt 0
 421 01f8 8347F4FE 		lbu	a5,-17(s0)
 422              	.LVL33:
 423 01fc 13850700 		mv	a0,a5
 424 0200 97000000 		call	_Z4putcc@plt
 424      E7800000 
 425              	.LVL34:
 107:src/testFunctions.cpp ****         if (slovo == '\r') putc('\n');
 426              		.loc 1 107 9 is_stmt 1
 427 0208 8347F4FE 		lbu	a5,-17(s0)
 428 020c 13F7F70F 		andi	a4,a5,0xff
 429 0210 9307D000 		li	a5,13
 430 0214 6318F700 		bne	a4,a5,.L15
 431              		.loc 1 107 28 discriminator 1
 432              		.loc 1 107 32 is_stmt 0 discriminator 1
 433 0218 1305A000 		li	a0,10
 434 021c 97000000 		call	_Z4putcc@plt
 434      E7800000 
 435              	.LVL35:
 436              	.L15:
 108:src/testFunctions.cpp ****     } while (slovo != '0');
 437              		.loc 1 108 20 is_stmt 1
 438 0224 8347F4FE 		lbu	a5,-17(s0)
 439 0228 13F7F70F 		andi	a4,a5,0xff
 440 022c 93070003 		li	a5,48
GAS LISTING /tmp/ccaTqlnt.s 			page 11


 441 0230 6304F700 		beq	a4,a5,.L16
 104:src/testFunctions.cpp ****         slovo = getc();
 442              		.loc 1 104 5 is_stmt 0
 443 0234 6FF05FFB 		j	.L17
 444              	.L16:
 109:src/testFunctions.cpp **** 
 110:src/testFunctions.cpp ****     printString("\nGotova nit3\n");
 445              		.loc 1 110 5 is_stmt 1
 446              		.loc 1 110 16 is_stmt 0
 447 0238 17050000 		lla	a0,.LC3
 447      13050500 
 448 0240 97000000 		call	_Z11printStringPKc@plt
 448      E7800000 
 449              	.LVL36:
 111:src/testFunctions.cpp **** }
 450              		.loc 1 111 1
 451 0248 13000000 		nop
 452 024c 83308102 		ld	ra,40(sp)
 453              		.cfi_restore 1
 454 0250 03340102 		ld	s0,32(sp)
 455              		.cfi_restore 8
 456              		.cfi_def_cfa 2, 48
 457              	.LVL37:
 458 0254 13010103 		addi	sp,sp,48
 459              		.cfi_def_cfa_offset 0
 460              	.LVL38:
 461 0258 67800000 		jr	ra
 462              		.cfi_endproc
 463              	.LFE63:
 465              		.section	.rodata
 466 002e 0000     		.align	3
 467              	.LC4:
 468 0030 0A476F74 		.string	"\nGotove user niti\n"
 468      6F766520 
 468      75736572 
 468      206E6974 
 468      690A00
 469 0043 00000000 		.align	3
 469      00
 470              	.LC5:
 471 0048 0A536164 		.string	"\nSad cu da izadjem\n"
 471      20637520 
 471      64612069 
 471      7A61646A 
 471      656D0A00 
 472              		.text
 473              		.align	2
 474              		.globl	main
 476              	main:
 477              	.LFB64:
 112:src/testFunctions.cpp **** 
 113:src/testFunctions.cpp **** 
 114:src/testFunctions.cpp **** 
 115:src/testFunctions.cpp **** int main() {
 478              		.loc 1 115 12 is_stmt 1
 479              		.cfi_startproc
 480 025c 130101FC 		addi	sp,sp,-64
GAS LISTING /tmp/ccaTqlnt.s 			page 12


 481              		.cfi_def_cfa_offset 64
 482 0260 233C1102 		sd	ra,56(sp)
 483 0264 23388102 		sd	s0,48(sp)
 484              		.cfi_offset 1, -8
 485              		.cfi_offset 8, -16
 486 0268 13040104 		addi	s0,sp,64
 487              		.cfi_def_cfa 8, 0
 116:src/testFunctions.cpp **** //postavi adresu prekidne rutine u stvec
 117:src/testFunctions.cpp ****     __asm__ volatile("csrw stvec, %[handler]": :[handler] "r"(&interruptHandler));
 488              		.loc 1 117 5
 489              		.loc 1 117 82 is_stmt 0
 490 026c 97070000 		la	a5,interruptHandler
 490      83B70700 
 491              	#APP
 492              	# 117 "src/testFunctions.cpp" 1
 118              	
 119:src/testFunctions.cpp ****     //inicijalizacija alokatora memorije
 120:src/testFunctions.cpp ****     KMemory::initializeMemory();
 493              		csrw stvec, a5
 494              	# 0 "" 2
 495              		.loc 1 120 5 is_stmt 1
 496              		.loc 1 120 30 is_stmt 0
 497              	#NO_APP
 498 0278 97000000 		call	_ZN7KMemory16initializeMemoryEv@plt
 498      E7800000 
 499              	.LVL39:
 121:src/testFunctions.cpp **** 
 122:src/testFunctions.cpp ****     //inicijalizacija komunikacije sa konzolom
 123:src/testFunctions.cpp ****     KConsole::initKConsole();
 500              		.loc 1 123 5 is_stmt 1
 501              		.loc 1 123 27 is_stmt 0
 502 0280 97000000 		call	_ZN8KConsole12initKConsoleEv@plt
 502      E7800000 
 503              	.LVL40:
 124:src/testFunctions.cpp **** 
 125:src/testFunctions.cpp **** 
 126:src/testFunctions.cpp **** 
 127:src/testFunctions.cpp ****     //testiranje alociranja memorije
 128:src/testFunctions.cpp ****     //testMemory();
 129:src/testFunctions.cpp **** //	uint64* ptr = new uint64;
 130:src/testFunctions.cpp **** //	*ptr = 6;
 131:src/testFunctions.cpp **** //	printInteger(*ptr);
 132:src/testFunctions.cpp **** 
 133:src/testFunctions.cpp ****     //testiranje liste
 134:src/testFunctions.cpp **** //	List<uint64>* lista = new List<uint64>();
 135:src/testFunctions.cpp **** //	uint64 num = 10;
 136:src/testFunctions.cpp **** //	lista->addFirst(&num);
 137:src/testFunctions.cpp **** //	println("");
 138:src/testFunctions.cpp **** //	printInteger(*(lista->peekFirst()));
 139:src/testFunctions.cpp **** //	delete lista;
 140:src/testFunctions.cpp **** //	println("");
 141:src/testFunctions.cpp **** 
 142:src/testFunctions.cpp ****     //testiranje kreiranja niti
 143:src/testFunctions.cpp ****     thread_t glavnaNit = nullptr;
 504              		.loc 1 143 5 is_stmt 1
 505              		.loc 1 143 14 is_stmt 0
 506 0288 233404FE 		sd	zero,-24(s0)
GAS LISTING /tmp/ccaTqlnt.s 			page 13


 144:src/testFunctions.cpp ****     thread_t nit1 = nullptr;
 507              		.loc 1 144 5 is_stmt 1
 508              		.loc 1 144 14 is_stmt 0
 509 028c 233004FE 		sd	zero,-32(s0)
 145:src/testFunctions.cpp ****     thread_t nit2 = nullptr;
 510              		.loc 1 145 5 is_stmt 1
 511              		.loc 1 145 14 is_stmt 0
 512 0290 233C04FC 		sd	zero,-40(s0)
 146:src/testFunctions.cpp ****     thread_t nit3 = nullptr;
 513              		.loc 1 146 5 is_stmt 1
 514              		.loc 1 146 14 is_stmt 0
 515 0294 233804FC 		sd	zero,-48(s0)
 147:src/testFunctions.cpp ****     thread_t idleNit = nullptr;
 516              		.loc 1 147 5 is_stmt 1
 517              		.loc 1 147 14 is_stmt 0
 518 0298 233404FC 		sd	zero,-56(s0)
 148:src/testFunctions.cpp ****     thread_t kernelConsumerThread = nullptr;
 519              		.loc 1 148 5 is_stmt 1
 520              		.loc 1 148 14 is_stmt 0
 521 029c 233004FC 		sd	zero,-64(s0)
 149:src/testFunctions.cpp ****     thread_create(&glavnaNit, (TCB::Body)main, nullptr);
 522              		.loc 1 149 5 is_stmt 1
 523              		.loc 1 149 18 is_stmt 0
 524 02a0 930784FE 		addi	a5,s0,-24
 525 02a4 13060000 		li	a2,0
 526 02a8 97050000 		lla	a1,main
 526      93850500 
 527 02b0 13850700 		mv	a0,a5
 528 02b4 97000000 		call	_Z13thread_createPP3TCBPFvPvES2_@plt
 528      E7800000 
 529              	.LVL41:
 150:src/testFunctions.cpp ****     TCB::setRunning(glavnaNit);
 530              		.loc 1 150 5 is_stmt 1
 531              		.loc 1 150 20 is_stmt 0
 532 02bc 833784FE 		ld	a5,-24(s0)
 533 02c0 13850700 		mv	a0,a5
 534 02c4 97000000 		call	_ZN3TCB10setRunningEPS_
 534      E7800000 
 535              	.LVL42:
 151:src/testFunctions.cpp ****     thread_create(&idleNit, idle, nullptr);
 536              		.loc 1 151 5 is_stmt 1
 537              		.loc 1 151 18 is_stmt 0
 538 02cc 930784FC 		addi	a5,s0,-56
 539 02d0 13060000 		li	a2,0
 540 02d4 97050000 		la	a1,_Z4idlePv
 540      83B50500 
 541 02dc 13850700 		mv	a0,a5
 542 02e0 97000000 		call	_Z13thread_createPP3TCBPFvPvES2_@plt
 542      E7800000 
 543              	.LVL43:
 152:src/testFunctions.cpp ****     thread_create(&kernelConsumerThread, kernelConsumerFunction, nullptr);
 544              		.loc 1 152 5 is_stmt 1
 545              		.loc 1 152 18 is_stmt 0
 546 02e8 930704FC 		addi	a5,s0,-64
 547 02ec 13060000 		li	a2,0
 548 02f0 97050000 		la	a1,_Z22kernelConsumerFunctionPv
 548      83B50500 
GAS LISTING /tmp/ccaTqlnt.s 			page 14


 549 02f8 13850700 		mv	a0,a5
 550 02fc 97000000 		call	_Z13thread_createPP3TCBPFvPvES2_@plt
 550      E7800000 
 551              	.LVL44:
 153:src/testFunctions.cpp **** 
 154:src/testFunctions.cpp **** 
 155:src/testFunctions.cpp ****     thread_create(&nit1, nit1f, nullptr);
 552              		.loc 1 155 5 is_stmt 1
 553              		.loc 1 155 18 is_stmt 0
 554 0304 930704FE 		addi	a5,s0,-32
 555 0308 13060000 		li	a2,0
 556 030c 97050000 		lla	a1,_Z5nit1fPv
 556      93850500 
 557 0314 13850700 		mv	a0,a5
 558 0318 97000000 		call	_Z13thread_createPP3TCBPFvPvES2_@plt
 558      E7800000 
 559              	.LVL45:
 156:src/testFunctions.cpp ****     thread_create(&nit2, nit2f, nullptr);
 560              		.loc 1 156 5 is_stmt 1
 561              		.loc 1 156 18 is_stmt 0
 562 0320 930784FD 		addi	a5,s0,-40
 563 0324 13060000 		li	a2,0
 564 0328 97050000 		lla	a1,_Z5nit2fPv
 564      93850500 
 565 0330 13850700 		mv	a0,a5
 566 0334 97000000 		call	_Z13thread_createPP3TCBPFvPvES2_@plt
 566      E7800000 
 567              	.LVL46:
 157:src/testFunctions.cpp ****     thread_create(&nit3, nit3f, nullptr);
 568              		.loc 1 157 5 is_stmt 1
 569              		.loc 1 157 18 is_stmt 0
 570 033c 930704FD 		addi	a5,s0,-48
 571 0340 13060000 		li	a2,0
 572 0344 97050000 		lla	a1,_Z5nit3fPv
 572      93850500 
 573 034c 13850700 		mv	a0,a5
 574 0350 97000000 		call	_Z13thread_createPP3TCBPFvPvES2_@plt
 574      E7800000 
 575              	.LVL47:
 158:src/testFunctions.cpp **** 
 159:src/testFunctions.cpp ****     //omoguci prekide
 160:src/testFunctions.cpp ****     Riscv::ms_sstatus(Riscv::SSTATUS_SIE);
 576              		.loc 1 160 5 is_stmt 1
 577              		.loc 1 160 22 is_stmt 0
 578 0358 13052000 		li	a0,2
 579 035c 97000000 		call	_ZN5Riscv10ms_sstatusEm
 579      E7800000 
 580              	.LVL48:
 161:src/testFunctions.cpp **** 
 162:src/testFunctions.cpp ****     thread_join(nit1);
 581              		.loc 1 162 5 is_stmt 1
 582              		.loc 1 162 16 is_stmt 0
 583 0364 833704FE 		ld	a5,-32(s0)
 584 0368 13850700 		mv	a0,a5
 585 036c 97000000 		call	_Z11thread_joinP3TCB@plt
 585      E7800000 
 586              	.LVL49:
GAS LISTING /tmp/ccaTqlnt.s 			page 15


 163:src/testFunctions.cpp ****     thread_join(nit2);
 587              		.loc 1 163 5 is_stmt 1
 588              		.loc 1 163 16 is_stmt 0
 589 0374 833784FD 		ld	a5,-40(s0)
 590 0378 13850700 		mv	a0,a5
 591 037c 97000000 		call	_Z11thread_joinP3TCB@plt
 591      E7800000 
 592              	.LVL50:
 164:src/testFunctions.cpp ****     thread_join(nit3);
 593              		.loc 1 164 5 is_stmt 1
 594              		.loc 1 164 16 is_stmt 0
 595 0384 833704FD 		ld	a5,-48(s0)
 596 0388 13850700 		mv	a0,a5
 597 038c 97000000 		call	_Z11thread_joinP3TCB@plt
 597      E7800000 
 598              	.LVL51:
 165:src/testFunctions.cpp ****     //thread_join(idleNit);
 166:src/testFunctions.cpp **** 
 167:src/testFunctions.cpp ****     printString("\nGotove user niti\n");
 599              		.loc 1 167 5 is_stmt 1
 600              		.loc 1 167 16 is_stmt 0
 601 0394 17050000 		lla	a0,.LC4
 601      13050500 
 602 039c 97000000 		call	_Z11printStringPKc@plt
 602      E7800000 
 603              	.LVL52:
 168:src/testFunctions.cpp **** 
 169:src/testFunctions.cpp ****     printString("\nSad cu da izadjem\n");
 604              		.loc 1 169 5 is_stmt 1
 605              		.loc 1 169 16 is_stmt 0
 606 03a4 17050000 		lla	a0,.LC5
 606      13050500 
 607 03ac 97000000 		call	_Z11printStringPKc@plt
 607      E7800000 
 608              	.LVL53:
 609              	.L20:
 170:src/testFunctions.cpp ****     while (KConsole::outputHead != KConsole::outputTail) {}
 610              		.loc 1 170 5 is_stmt 1
 611              		.loc 1 170 33
 612 03b4 97070000 		la	a5,_ZN8KConsole10outputHeadE
 612      83B70700 
 613 03bc 03A70700 		lw	a4,0(a5)
 614 03c0 97070000 		la	a5,_ZN8KConsole10outputTailE
 614      83B70700 
 615 03c8 83A70700 		lw	a5,0(a5)
 616 03cc 6304F700 		beq	a4,a5,.L19
 617              		.loc 1 170 5 is_stmt 0
 618 03d0 6FF05FFE 		j	.L20
 619              	.L19:
 171:src/testFunctions.cpp **** //	//zabrani prekide
 172:src/testFunctions.cpp ****     Riscv::mc_sstatus(Riscv::SSTATUS_SIE);
 620              		.loc 1 172 5 is_stmt 1
 621              		.loc 1 172 22 is_stmt 0
 622 03d4 13052000 		li	a0,2
 623 03d8 97000000 		call	_ZN5Riscv10mc_sstatusEm
 623      E7800000 
 624              	.LVL54:
GAS LISTING /tmp/ccaTqlnt.s 			page 16


 173:src/testFunctions.cpp **** 
 174:src/testFunctions.cpp **** 
 175:src/testFunctions.cpp ****     return 0;
 625              		.loc 1 175 5 is_stmt 1
 626              		.loc 1 175 12 is_stmt 0
 627 03e0 93070000 		li	a5,0
 176:src/testFunctions.cpp **** }...
 628              		.loc 1 176 1
 629 03e4 13850700 		mv	a0,a5
 630 03e8 83308103 		ld	ra,56(sp)
 631              		.cfi_restore 1
 632 03ec 03340103 		ld	s0,48(sp)
 633              		.cfi_restore 8
 634              		.cfi_def_cfa 2, 64
 635 03f0 13010104 		addi	sp,sp,64
 636              		.cfi_def_cfa_offset 0
 637 03f4 67800000 		jr	ra
 638              		.cfi_endproc
 639              	.LFE64:
 641              		.weak	_ZTV3per
 642              		.section	.data.rel.ro._ZTV3per,"awG",@progbits,_ZTV3per,comdat
 643              		.align	3
 646              	_ZTV3per:
 647 0000 00000000 		.dword	0
 647      00000000 
 648 0008 00000000 		.dword	0
 648      00000000 
 649 0010 00000000 		.dword	_ZN3perD1Ev
 649      00000000 
 650 0018 00000000 		.dword	_ZN3perD0Ev
 650      00000000 
 651 0020 00000000 		.dword	_ZN14PeriodicThread3runEv
 651      00000000 
 652 0028 00000000 		.dword	_ZN3per18periodicActivationEv
 652      00000000 
 653              		.section	.text._ZN3perD2Ev,"axG",@progbits,_ZN3perD5Ev,comdat
 654              		.align	2
 655              		.weak	_ZN3perD2Ev
 657              	_ZN3perD2Ev:
 658              	.LFB66:
  84:src/testFunctions.cpp **** class per : public PeriodicThread {
 659              		.loc 1 84 7 is_stmt 1
 660              		.cfi_startproc
 661              	.LVL55:
 662 0000 130101FF 		addi	sp,sp,-16
 663              		.cfi_def_cfa_offset 16
 664 0004 23341100 		sd	ra,8(sp)
 665 0008 23308100 		sd	s0,0(sp)
 666              		.cfi_offset 1, -8
 667              		.cfi_offset 8, -16
 668 000c 13040101 		addi	s0,sp,16
 669              		.cfi_def_cfa 8, 0
 670              	.LVL56:
 671              	.LBB16:
 672              	.LBB17:
 673              		.file 2 "src/../h/syscall_cpp.hpp"
   1:src/../h/syscall_cpp.hpp **** #ifndef _syscall_cpp
GAS LISTING /tmp/ccaTqlnt.s 			page 17


   2:src/../h/syscall_cpp.hpp **** #define _syscall_cpp
   3:src/../h/syscall_cpp.hpp **** 
   4:src/../h/syscall_cpp.hpp **** #include "../lib/hw.h"
   5:src/../h/syscall_cpp.hpp **** 
   6:src/../h/syscall_cpp.hpp **** void* operator new(size_t);
   7:src/../h/syscall_cpp.hpp **** 
   8:src/../h/syscall_cpp.hpp **** void* operator new[](size_t);
   9:src/../h/syscall_cpp.hpp **** 
  10:src/../h/syscall_cpp.hpp **** void operator delete(void*)
  11:src/../h/syscall_cpp.hpp **** 
  12:src/../h/syscall_cpp.hpp **** noexcept;
  13:src/../h/syscall_cpp.hpp **** 
  14:src/../h/syscall_cpp.hpp **** void operator delete[](void*)
  15:src/../h/syscall_cpp.hpp **** 
  16:src/../h/syscall_cpp.hpp **** noexcept;
  17:src/../h/syscall_cpp.hpp **** 
  18:src/../h/syscall_cpp.hpp **** class TCB;
  19:src/../h/syscall_cpp.hpp **** 
  20:src/../h/syscall_cpp.hpp **** typedef TCB* thread_t;
  21:src/../h/syscall_cpp.hpp **** 
  22:src/../h/syscall_cpp.hpp **** class KSem;
  23:src/../h/syscall_cpp.hpp **** 
  24:src/../h/syscall_cpp.hpp **** typedef KSem* sem_t;
  25:src/../h/syscall_cpp.hpp **** 
  26:src/../h/syscall_cpp.hpp **** class Thread {
  27:src/../h/syscall_cpp.hpp **** public:
  28:src/../h/syscall_cpp.hpp ****     //konstruktor koji pravi nit koja izvrsava zadatu funkciju sa zadatim argumentima, ne pokrece n
  29:src/../h/syscall_cpp.hpp ****     Thread(void (* body)(void*), void* arg);
  30:src/../h/syscall_cpp.hpp **** 
  31:src/../h/syscall_cpp.hpp ****     virtual ~Thread();
  32:src/../h/syscall_cpp.hpp **** 
  33:src/../h/syscall_cpp.hpp ****     //stavlja nit u Scheduler
  34:src/../h/syscall_cpp.hpp ****     int start();
  35:src/../h/syscall_cpp.hpp **** 
  36:src/../h/syscall_cpp.hpp ****     //pozivajuca (running) nit se suspenduje dok se nit ciji se metod poziva(this) ne zavrsi
  37:src/../h/syscall_cpp.hpp ****     void join();
  38:src/../h/syscall_cpp.hpp **** 
  39:src/../h/syscall_cpp.hpp ****     //sinhrona promena konteksta
  40:src/../h/syscall_cpp.hpp ****     static void dispatch();
  41:src/../h/syscall_cpp.hpp **** 
  42:src/../h/syscall_cpp.hpp ****     //uspavljuje tekucu nit na zadati period
  43:src/../h/syscall_cpp.hpp ****     static int sleep(time_t);
  44:src/../h/syscall_cpp.hpp **** 
  45:src/../h/syscall_cpp.hpp **** protected:
  46:src/../h/syscall_cpp.hpp ****     //konstruktor koji pravi nit koja izvrsava run metodu, ne stavlja je u Scheduler
  47:src/../h/syscall_cpp.hpp ****     Thread();
  48:src/../h/syscall_cpp.hpp **** 
  49:src/../h/syscall_cpp.hpp ****     //funkcija koju nit izvrsava, samo ako je nit napravljena podrazumevanim konstruktorom
  50:src/../h/syscall_cpp.hpp ****     virtual void run() {}
  51:src/../h/syscall_cpp.hpp **** 
  52:src/../h/syscall_cpp.hpp **** private:
  53:src/../h/syscall_cpp.hpp ****     //pokazivac na TCB strukturu kernela
  54:src/../h/syscall_cpp.hpp ****     thread_t myHandle;
  55:src/../h/syscall_cpp.hpp **** 
  56:src/../h/syscall_cpp.hpp ****     void (* body)(void*);
  57:src/../h/syscall_cpp.hpp **** 
  58:src/../h/syscall_cpp.hpp ****     void* arg;
GAS LISTING /tmp/ccaTqlnt.s 			page 18


  59:src/../h/syscall_cpp.hpp **** 
  60:src/../h/syscall_cpp.hpp ****     static void wrapper(void* thread);
  61:src/../h/syscall_cpp.hpp **** };
  62:src/../h/syscall_cpp.hpp **** 
  63:src/../h/syscall_cpp.hpp **** 
  64:src/../h/syscall_cpp.hpp **** class Semaphore {
  65:src/../h/syscall_cpp.hpp **** public:
  66:src/../h/syscall_cpp.hpp **** 
  67:src/../h/syscall_cpp.hpp ****     Semaphore(unsigned init = 1);
  68:src/../h/syscall_cpp.hpp **** 
  69:src/../h/syscall_cpp.hpp ****     virtual ~Semaphore();
  70:src/../h/syscall_cpp.hpp **** 
  71:src/../h/syscall_cpp.hpp ****     int wait();
  72:src/../h/syscall_cpp.hpp **** 
  73:src/../h/syscall_cpp.hpp ****     int signal();
  74:src/../h/syscall_cpp.hpp **** 
  75:src/../h/syscall_cpp.hpp **** private:
  76:src/../h/syscall_cpp.hpp ****     sem_t myHandle;
  77:src/../h/syscall_cpp.hpp **** 
  78:src/../h/syscall_cpp.hpp **** };
  79:src/../h/syscall_cpp.hpp **** 
  80:src/../h/syscall_cpp.hpp **** 
  81:src/../h/syscall_cpp.hpp **** class PeriodicThread : public Thread {
 674              		.loc 2 81 7 is_stmt 0
 675 0010 97070000 		la	a5,_ZTV14PeriodicThread
 675      83B70700 
 676 0018 93870701 		addi	a5,a5,16
 677 001c 2330F500 		sd	a5,0(a0)
 678 0020 97000000 		call	_ZN6ThreadD2Ev@plt
 678      E7800000 
 679              	.LVL57:
 680              	.LBE17:
 681              	.LBE16:
  84:src/testFunctions.cpp **** class per : public PeriodicThread {
 682              		.loc 1 84 7
 683 0028 83308100 		ld	ra,8(sp)
 684              		.cfi_restore 1
 685 002c 03340100 		ld	s0,0(sp)
 686              		.cfi_restore 8
 687              		.cfi_def_cfa 2, 16
 688 0030 13010101 		addi	sp,sp,16
 689              		.cfi_def_cfa_offset 0
 690 0034 67800000 		jr	ra
 691              		.cfi_endproc
 692              	.LFE66:
 694              		.weak	_ZN3perD1Ev
 695              		.set	_ZN3perD1Ev,_ZN3perD2Ev
 696              		.section	.text._ZN3perD0Ev,"axG",@progbits,_ZN3perD5Ev,comdat
 697              		.align	2
 698              		.weak	_ZN3perD0Ev
 700              	_ZN3perD0Ev:
 701              	.LFB68:
  84:src/testFunctions.cpp **** class per : public PeriodicThread {
 702              		.loc 1 84 7 is_stmt 1
 703              		.cfi_startproc
 704              	.LVL58:
 705 0000 130101FE 		addi	sp,sp,-32
GAS LISTING /tmp/ccaTqlnt.s 			page 19


 706              		.cfi_def_cfa_offset 32
 707 0004 233C1100 		sd	ra,24(sp)
 708 0008 23388100 		sd	s0,16(sp)
 709 000c 23349100 		sd	s1,8(sp)
 710              		.cfi_offset 1, -8
 711              		.cfi_offset 8, -16
 712              		.cfi_offset 9, -24
 713 0010 13040102 		addi	s0,sp,32
 714              		.cfi_def_cfa 8, 0
 715 0014 93040500 		mv	s1,a0
 716              	.LVL59:
 717              	.LBB18:
 718              	.LBB19:
 719              	.LBB20:
 720              		.loc 2 81 7 is_stmt 0
 721 0018 97070000 		la	a5,_ZTV14PeriodicThread
 721      83B70700 
 722 0020 93870701 		addi	a5,a5,16
 723 0024 2330F500 		sd	a5,0(a0)
 724 0028 97000000 		call	_ZN6ThreadD2Ev@plt
 724      E7800000 
 725              	.LVL60:
 726              	.LBE20:
 727              	.LBE19:
 728              	.LBE18:
  84:src/testFunctions.cpp **** class per : public PeriodicThread {
 729              		.loc 1 84 7
 730 0030 13850400 		mv	a0,s1
 731 0034 97000000 		call	_ZdlPv@plt
 731      E7800000 
 732              	.LVL61:
 733 003c 83308101 		ld	ra,24(sp)
 734              		.cfi_restore 1
 735 0040 03340101 		ld	s0,16(sp)
 736              		.cfi_restore 8
 737              		.cfi_def_cfa 2, 32
 738 0044 83348100 		ld	s1,8(sp)
 739              		.cfi_restore 9
 740              	.LVL62:
 741 0048 13010102 		addi	sp,sp,32
 742              		.cfi_def_cfa_offset 0
 743 004c 67800000 		jr	ra
 744              		.cfi_endproc
 745              	.LFE68:
 747              		.section	.text._ZN5Riscv10ms_sstatusEm,"axG",@progbits,_ZN5Riscv10ms_sstatusEm,comdat
 748              		.align	2
 749              		.weak	_ZN5Riscv10ms_sstatusEm
 751              	_ZN5Riscv10ms_sstatusEm:
 752              	.LFB13:
 753              		.file 3 "src/../h/Riscv.hpp"
   1:src/../h/Riscv.hpp **** //
   2:src/../h/Riscv.hpp **** // Created by os on 5/17/23.
   3:src/../h/Riscv.hpp **** //
   4:src/../h/Riscv.hpp **** 
   5:src/../h/Riscv.hpp **** #ifndef PROJEKAT2023_RISCV_HPP
   6:src/../h/Riscv.hpp **** #define PROJEKAT2023_RISCV_HPP
   7:src/../h/Riscv.hpp **** 
GAS LISTING /tmp/ccaTqlnt.s 			page 20


   8:src/../h/Riscv.hpp **** #include "../lib/hw.h"
   9:src/../h/Riscv.hpp **** 
  10:src/../h/Riscv.hpp **** class Riscv {
  11:src/../h/Riscv.hpp **** public:
  12:src/../h/Riscv.hpp **** 
  13:src/../h/Riscv.hpp **** 	static void returnFromInterrupt();
  14:src/../h/Riscv.hpp **** 
  15:src/../h/Riscv.hpp **** 	//read scause
  16:src/../h/Riscv.hpp **** 	static uint64 r_scause();
  17:src/../h/Riscv.hpp **** 
  18:src/../h/Riscv.hpp **** 	//write scause
  19:src/../h/Riscv.hpp **** 	static void w_scause(uint64 scause);
  20:src/../h/Riscv.hpp **** 
  21:src/../h/Riscv.hpp **** 	//read sepc
  22:src/../h/Riscv.hpp **** 	static uint64 r_sepc();
  23:src/../h/Riscv.hpp **** 
  24:src/../h/Riscv.hpp **** 	//write sepc
  25:src/../h/Riscv.hpp **** 	static void w_sepc(uint64 sepc);
  26:src/../h/Riscv.hpp **** 
  27:src/../h/Riscv.hpp **** 	//read stvec
  28:src/../h/Riscv.hpp **** 	static uint64 r_stvec();
  29:src/../h/Riscv.hpp **** 
  30:src/../h/Riscv.hpp **** 	//write stvec
  31:src/../h/Riscv.hpp **** 	static void w_stvec(uint64 stvec);
  32:src/../h/Riscv.hpp **** 
  33:src/../h/Riscv.hpp **** 	enum BitMaskSip {
  34:src/../h/Riscv.hpp **** 		//postoji zahtev za softverski prekid
  35:src/../h/Riscv.hpp **** 		SIP_SSIP = (1 << 1),
  36:src/../h/Riscv.hpp **** 		//postoji prekid od tajmera
  37:src/../h/Riscv.hpp **** 		SIP_STIP = (1 << 5),
  38:src/../h/Riscv.hpp **** 		//postoji zahtev za spoljasnji hardverski prekid
  39:src/../h/Riscv.hpp **** 		SIP_SEIP = (1 << 9)
  40:src/../h/Riscv.hpp **** 	};
  41:src/../h/Riscv.hpp **** 
  42:src/../h/Riscv.hpp **** 	//mask set sip
  43:src/../h/Riscv.hpp **** 	static void ms_sip(uint64 mask);
  44:src/../h/Riscv.hpp **** 
  45:src/../h/Riscv.hpp **** 	//mask clear sip
  46:src/../h/Riscv.hpp **** 	static void mc_sip(uint64 mask);
  47:src/../h/Riscv.hpp **** 
  48:src/../h/Riscv.hpp **** 	//read sip
  49:src/../h/Riscv.hpp **** 	static uint64 r_sip();
  50:src/../h/Riscv.hpp **** 
  51:src/../h/Riscv.hpp **** 	//write sip
  52:src/../h/Riscv.hpp **** 	static void w_sip(uint64 sip);
  53:src/../h/Riscv.hpp **** 
  54:src/../h/Riscv.hpp **** 	//kada se pozove sret, SIE dobija vrednost SPIE, SPIE se postavlja na 1,
  55:src/../h/Riscv.hpp **** 	//rezim se postavlja na osnovu SPP bita, SPP se postavlja na 0
  56:src/../h/Riscv.hpp **** 	enum BitMaskSstatus {
  57:src/../h/Riscv.hpp **** 		//1 - dozvoljeni prekidi; 0- nedozvoljeni prekidi; igonrise se u korisnickom rezimu
  58:src/../h/Riscv.hpp **** 		SSTATUS_SIE = (1 << 1),
  59:src/../h/Riscv.hpp **** 		//prethodna vrednost bita SIE
  60:src/../h/Riscv.hpp **** 		SSTATUS_SPIE = (1 << 5),
  61:src/../h/Riscv.hpp **** 		//iz kog rezima se desio skok; 0 - iz korisnickog; 1 - iz sistemskog
  62:src/../h/Riscv.hpp **** 		SSTATUS_SPP = (1 << 8)
  63:src/../h/Riscv.hpp **** 	};
  64:src/../h/Riscv.hpp **** 
GAS LISTING /tmp/ccaTqlnt.s 			page 21


  65:src/../h/Riscv.hpp **** 	//mask set sstatus
  66:src/../h/Riscv.hpp **** 	static void ms_sstatus(uint64 mask);
  67:src/../h/Riscv.hpp **** 
  68:src/../h/Riscv.hpp **** 	//mask clear sstatus
  69:src/../h/Riscv.hpp **** 	static void mc_sstatus(uint64 mask);
  70:src/../h/Riscv.hpp **** 
  71:src/../h/Riscv.hpp **** 	//read sstatus
  72:src/../h/Riscv.hpp **** 	static uint64 r_sstatus();
  73:src/../h/Riscv.hpp **** 
  74:src/../h/Riscv.hpp **** 	//write sstatus
  75:src/../h/Riscv.hpp **** 	static void w_sstatus(uint64 sstatus);
  76:src/../h/Riscv.hpp **** 
  77:src/../h/Riscv.hpp **** 	//upisuje kod sistemskog poziva u registar a0
  78:src/../h/Riscv.hpp **** 	static void loadOpCode(uint64 opCode);
  79:src/../h/Riscv.hpp **** 
  80:src/../h/Riscv.hpp **** };
  81:src/../h/Riscv.hpp **** 
  82:src/../h/Riscv.hpp **** inline uint64 Riscv::r_scause() {
  83:src/../h/Riscv.hpp **** 	uint64 volatile scause;
  84:src/../h/Riscv.hpp **** 	__asm__ volatile("csrr %[scause], scause": [scause] "=r"(scause));
  85:src/../h/Riscv.hpp **** 	return scause;
  86:src/../h/Riscv.hpp **** }
  87:src/../h/Riscv.hpp **** 
  88:src/../h/Riscv.hpp **** inline void Riscv::w_scause(uint64 scause) {
  89:src/../h/Riscv.hpp **** 	__asm__ volatile("csrw scause, %[scause]": :[scause] "r"(scause));
  90:src/../h/Riscv.hpp **** }
  91:src/../h/Riscv.hpp **** 
  92:src/../h/Riscv.hpp **** inline uint64 Riscv::r_sepc() {
  93:src/../h/Riscv.hpp **** 	uint64 volatile sepc;
  94:src/../h/Riscv.hpp **** 	__asm__ volatile("csrr %[sepc], sepc": [sepc] "=r"(sepc));
  95:src/../h/Riscv.hpp **** 	return sepc;
  96:src/../h/Riscv.hpp **** }
  97:src/../h/Riscv.hpp **** 
  98:src/../h/Riscv.hpp **** inline void Riscv::w_sepc(uint64 sepc) {
  99:src/../h/Riscv.hpp **** 	__asm__ volatile("csrw sepc, %[sepc]": :[sepc] "r"(sepc));
 100:src/../h/Riscv.hpp **** }
 101:src/../h/Riscv.hpp **** 
 102:src/../h/Riscv.hpp **** inline uint64 Riscv::r_stvec() {
 103:src/../h/Riscv.hpp **** 	uint64 volatile stvec;
 104:src/../h/Riscv.hpp **** 	__asm__ volatile("csrr %[stvec], stvec": [stvec] "=r"(stvec));
 105:src/../h/Riscv.hpp **** 	return stvec;
 106:src/../h/Riscv.hpp **** }
 107:src/../h/Riscv.hpp **** 
 108:src/../h/Riscv.hpp **** inline void Riscv::w_stvec(uint64 stvec) {
 109:src/../h/Riscv.hpp **** 	__asm__ volatile("csrw stvec, %[stvec]": :[stvec] "r"(stvec));
 110:src/../h/Riscv.hpp **** }
 111:src/../h/Riscv.hpp **** 
 112:src/../h/Riscv.hpp **** inline void Riscv::ms_sip(uint64 mask) {
 113:src/../h/Riscv.hpp **** 	__asm__ volatile("csrs sip, %[mask]": :[mask] "r"(mask));
 114:src/../h/Riscv.hpp **** }
 115:src/../h/Riscv.hpp **** 
 116:src/../h/Riscv.hpp **** inline void Riscv::mc_sip(uint64 mask) {
 117:src/../h/Riscv.hpp **** 	__asm__ volatile("csrc sip, %[mask]": :[mask] "r"(mask));
 118:src/../h/Riscv.hpp **** }
 119:src/../h/Riscv.hpp **** 
 120:src/../h/Riscv.hpp **** inline uint64 Riscv::r_sip() {
 121:src/../h/Riscv.hpp **** 	uint64 volatile sip;
GAS LISTING /tmp/ccaTqlnt.s 			page 22


 122:src/../h/Riscv.hpp **** 	__asm__ volatile("csrr %[sip], sip": [sip] "=r"(sip));
 123:src/../h/Riscv.hpp **** 	return sip;
 124:src/../h/Riscv.hpp **** }
 125:src/../h/Riscv.hpp **** 
 126:src/../h/Riscv.hpp **** inline void Riscv::w_sip(uint64 sip) {
 127:src/../h/Riscv.hpp **** 	__asm__ volatile("csrw sip, %[sip]": :[sip] "r"(sip));
 128:src/../h/Riscv.hpp **** }
 129:src/../h/Riscv.hpp **** 
 130:src/../h/Riscv.hpp **** inline void Riscv::ms_sstatus(uint64 mask) {
 754              		.loc 3 130 44 is_stmt 1
 755              		.cfi_startproc
 756              	.LVL63:
 757 0000 130101FF 		addi	sp,sp,-16
 758              		.cfi_def_cfa_offset 16
 759 0004 23348100 		sd	s0,8(sp)
 760              		.cfi_offset 8, -8
 761 0008 13040101 		addi	s0,sp,16
 762              		.cfi_def_cfa 8, 0
 131:src/../h/Riscv.hpp **** 	__asm__ volatile("csrs sstatus, %[mask]": :[mask] "r"(mask));
 763              		.loc 3 131 2
 764              		.loc 3 131 62 is_stmt 0
 765              	#APP
 766              	# 131 "src/../h/Riscv.hpp" 1
 132              	}
 767              		csrs sstatus, a0
 768              	# 0 "" 2
 769              		.loc 3 132 1
 770              	#NO_APP
 771 0010 03348100 		ld	s0,8(sp)
 772              		.cfi_restore 8
 773              		.cfi_def_cfa 2, 16
 774 0014 13010101 		addi	sp,sp,16
 775              		.cfi_def_cfa_offset 0
 776 0018 67800000 		jr	ra
 777              		.cfi_endproc
 778              	.LFE13:
 780              		.section	.text._ZN5Riscv10mc_sstatusEm,"axG",@progbits,_ZN5Riscv10mc_sstatusEm,comdat
 781              		.align	2
 782              		.weak	_ZN5Riscv10mc_sstatusEm
 784              	_ZN5Riscv10mc_sstatusEm:
 785              	.LFB14:
 133:src/../h/Riscv.hpp **** 
 134:src/../h/Riscv.hpp **** inline void Riscv::mc_sstatus(uint64 mask) {
 786              		.loc 3 134 44 is_stmt 1
 787              		.cfi_startproc
 788              	.LVL64:
 789 0000 130101FF 		addi	sp,sp,-16
 790              		.cfi_def_cfa_offset 16
 791 0004 23348100 		sd	s0,8(sp)
 792              		.cfi_offset 8, -8
 793 0008 13040101 		addi	s0,sp,16
 794              		.cfi_def_cfa 8, 0
 135:src/../h/Riscv.hpp **** 	__asm__ volatile("csrc sstatus, %[mask]": :[mask] "r"(mask));
 795              		.loc 3 135 2
 796              		.loc 3 135 62 is_stmt 0
 797              	#APP
 798              	# 135 "src/../h/Riscv.hpp" 1
GAS LISTING /tmp/ccaTqlnt.s 			page 23


 136              	}
 799              		csrc sstatus, a0
 800              	# 0 "" 2
 801              		.loc 3 136 1
 802              	#NO_APP
 803 0010 03348100 		ld	s0,8(sp)
 804              		.cfi_restore 8
 805              		.cfi_def_cfa 2, 16
 806 0014 13010101 		addi	sp,sp,16
 807              		.cfi_def_cfa_offset 0
 808 0018 67800000 		jr	ra
 809              		.cfi_endproc
 810              	.LFE14:
 812              		.section	.text._ZN3TCB10setRunningEPS_,"axG",@progbits,_ZN3TCB10setRunningEPS_,comdat
 813              		.align	2
 814              		.weak	_ZN3TCB10setRunningEPS_
 816              	_ZN3TCB10setRunningEPS_:
 817              	.LFB41:
 818              		.file 4 "src/../h/TCB.hpp"
   1:src/../h/TCB.hpp **** //
   2:src/../h/TCB.hpp **** // Created by os on 5/23/23.
   3:src/../h/TCB.hpp **** //
   4:src/../h/TCB.hpp **** 
   5:src/../h/TCB.hpp **** #ifndef PROJEKAT2023_TCB_HPP
   6:src/../h/TCB.hpp **** #define PROJEKAT2023_TCB_HPP
   7:src/../h/TCB.hpp **** 
   8:src/../h/TCB.hpp **** #include "../lib/hw.h"
   9:src/../h/TCB.hpp **** #include "../h/ThreadQueue.hpp"
  10:src/../h/TCB.hpp **** 
  11:src/../h/TCB.hpp **** int main();
  12:src/../h/TCB.hpp **** class TCB {
  13:src/../h/TCB.hpp **** public:
  14:src/../h/TCB.hpp ****     friend class Scheduler;
  15:src/../h/TCB.hpp **** 
  16:src/../h/TCB.hpp ****     using Body = void (*)(void*);
  17:src/../h/TCB.hpp **** 
  18:src/../h/TCB.hpp ****     enum ThreadStatus {
  19:src/../h/TCB.hpp ****         CREATED, ACTIVE, BLOCKED, JOINING, SLEEPING, FINISHED
  20:src/../h/TCB.hpp ****     };
  21:src/../h/TCB.hpp **** 
  22:src/../h/TCB.hpp ****     void setStatus(ThreadStatus stat) { this->status = stat; }
  23:src/../h/TCB.hpp **** 
  24:src/../h/TCB.hpp ****     ThreadStatus getStatus() { return this->status; }
  25:src/../h/TCB.hpp **** 
  26:src/../h/TCB.hpp ****     static TCB* createThread(Body function, void* args, uint64* stack);
  27:src/../h/TCB.hpp **** 
  28:src/../h/TCB.hpp ****     static void start(TCB* newTcb);
  29:src/../h/TCB.hpp **** 
  30:src/../h/TCB.hpp ****     uint64 getTimeSlice() { return timeSlice; }
  31:src/../h/TCB.hpp **** 
  32:src/../h/TCB.hpp ****     void setTimeSlice(uint64 value) { timeSlice = value; }
  33:src/../h/TCB.hpp **** 
  34:src/../h/TCB.hpp ****     Body getBody() { return threadFunction; }
  35:src/../h/TCB.hpp **** 
  36:src/../h/TCB.hpp ****     static TCB* getRunning() { return running; }
  37:src/../h/TCB.hpp **** 
  38:src/../h/TCB.hpp ****     static void setRunning(TCB* newRunning) { running = newRunning; }
GAS LISTING /tmp/ccaTqlnt.s 			page 24


 819              		.loc 4 38 17 is_stmt 1
 820              		.cfi_startproc
 821              	.LVL65:
 822 0000 130101FF 		addi	sp,sp,-16
 823              		.cfi_def_cfa_offset 16
 824 0004 23348100 		sd	s0,8(sp)
 825              		.cfi_offset 8, -8
 826 0008 13040101 		addi	s0,sp,16
 827              		.cfi_def_cfa 8, 0
 828              		.loc 4 38 47
 829              		.loc 4 38 55 is_stmt 0
 830 000c 97070000 		la	a5,_ZN3TCB7runningE
 830      83B70700 
 831 0014 23B0A700 		sd	a0,0(a5)
 832              		.loc 4 38 69
 833 0018 03348100 		ld	s0,8(sp)
 834              		.cfi_restore 8
 835              		.cfi_def_cfa 2, 16
 836 001c 13010101 		addi	sp,sp,16
 837              		.cfi_def_cfa_offset 0
 838 0020 67800000 		jr	ra
 839              		.cfi_endproc
 840              	.LFE41:
 842              		.text
 843              		.align	2
 844              		.globl	_Z5upisim
 846              	_Z5upisim:
 847              	.LFB49:
  33:src/testFunctions.cpp **** char* upisi(size_t alociraj) {
 848              		.loc 1 33 30 is_stmt 1
 849              		.cfi_startproc
 850              	.LVL66:
 851 03f8 130101FE 		addi	sp,sp,-32
 852              		.cfi_def_cfa_offset 32
 853 03fc 233C1100 		sd	ra,24(sp)
 854 0400 23388100 		sd	s0,16(sp)
 855 0404 23349100 		sd	s1,8(sp)
 856              		.cfi_offset 1, -8
 857              		.cfi_offset 8, -16
 858              		.cfi_offset 9, -24
 859 0408 13040102 		addi	s0,sp,32
 860              		.cfi_def_cfa 8, 0
 861 040c 93040500 		mv	s1,a0
  34:src/testFunctions.cpp ****     char* pok = (char*)MemoryAllocator::kmalloc(alociraj);
 862              		.loc 1 34 5
  34:src/testFunctions.cpp ****     char* pok = (char*)MemoryAllocator::kmalloc(alociraj);
 863              		.loc 1 34 48 is_stmt 0
 864 0410 93053000 		li	a1,3
 865 0414 97000000 		call	_ZN15MemoryAllocator7kmallocEmNS_7PurposeE@plt
 865      E7800000 
 866              	.LVL67:
  35:src/testFunctions.cpp ****     if (pok) {
 867              		.loc 1 35 5 is_stmt 1
 868              	.LBB21:
 869 041c 63020502 		beqz	a0,.L32
 870              	.LBB22:
  36:src/testFunctions.cpp ****         for (uint64 i = 0; i < alociraj - sizeof(MemoryAllocator::UsedMemSegment); i++) {
GAS LISTING /tmp/ccaTqlnt.s 			page 25


 871              		.loc 1 36 21 is_stmt 0
 872 0420 93070000 		li	a5,0
 873 0424 6F004001 		j	.L34
 874              	.LVL68:
 875              	.L36:
  37:src/testFunctions.cpp ****             pok[i] = '8';
 876              		.loc 1 37 13 is_stmt 1 discriminator 2
  37:src/testFunctions.cpp ****             pok[i] = '8';
 877              		.loc 1 37 18 is_stmt 0 discriminator 2
 878 0428 3307F500 		add	a4,a0,a5
  37:src/testFunctions.cpp ****             pok[i] = '8';
 879              		.loc 1 37 20 discriminator 2
 880 042c 93068003 		li	a3,56
 881 0430 2300D700 		sb	a3,0(a4)
  36:src/testFunctions.cpp ****         for (uint64 i = 0; i < alociraj - sizeof(MemoryAllocator::UsedMemSegment); i++) {
 882              		.loc 1 36 9 is_stmt 1 discriminator 2
 883 0434 93871700 		addi	a5,a5,1
 884              	.LVL69:
 885              	.L34:
  36:src/testFunctions.cpp ****         for (uint64 i = 0; i < alociraj - sizeof(MemoryAllocator::UsedMemSegment); i++) {
 886              		.loc 1 36 30 discriminator 3
  36:src/testFunctions.cpp ****         for (uint64 i = 0; i < alociraj - sizeof(MemoryAllocator::UsedMemSegment); i++) {
 887              		.loc 1 36 41 is_stmt 0 discriminator 3
 888 0438 138704FE 		addi	a4,s1,-32
  36:src/testFunctions.cpp ****         for (uint64 i = 0; i < alociraj - sizeof(MemoryAllocator::UsedMemSegment); i++) {
 889              		.loc 1 36 30 discriminator 3
 890 043c E3E6E7FE 		bgtu	a4,a5,.L36
 891              	.LVL70:
 892              	.L32:
 893              	.LBE22:
 894              	.LBE21:
  42:src/testFunctions.cpp **** }
 895              		.loc 1 42 1
 896 0440 83308101 		ld	ra,24(sp)
 897              		.cfi_restore 1
 898 0444 03340101 		ld	s0,16(sp)
 899              		.cfi_restore 8
 900              		.cfi_def_cfa 2, 32
 901 0448 83348100 		ld	s1,8(sp)
 902              		.cfi_restore 9
 903              	.LVL71:
 904 044c 13010102 		addi	sp,sp,32
 905              		.cfi_def_cfa_offset 0
 906 0450 67800000 		jr	ra
 907              		.cfi_endproc
 908              	.LFE49:
 910              	.Letext0:
 911              		.file 5 "src/../visak/../lib/hw.h"
 912              		.file 6 "src/../visak/MemoryAllocator.hpp"
 913              		.file 7 "src/../h/syscall_c.hpp"
 914              		.file 8 "src/../h/KMemory.hpp"
 915              		.file 9 "src/../h/../h/ThreadQueue.hpp"
 916              		.file 10 "src/../h/KConsole.hpp"
 917              		.file 11 "src/../test/printing.hpp"
 5728              		.align	3
 5731              	DW.ref.__gxx_personality_v0:
 5732 0000 00000000 		.dword	__gxx_personality_v0
GAS LISTING /tmp/ccaTqlnt.s 			page 26


 5732      00000000 
 5733              		.ident	"GCC: (Ubuntu 9.4.0-1ubuntu1~20.04) 9.4.0"
 5734              		.section	.note.GNU-stack,"",@progbits
GAS LISTING /tmp/ccaTqlnt.s 			page 27


DEFINED SYMBOLS
                            *ABS*:0000000000000000 testFunctions.cpp
     /tmp/ccaTqlnt.s:14     .text:0000000000000000 _Z10testMemoryv
     /tmp/ccaTqlnt.s:18     .text:0000000000000000 .L0 
     /tmp/ccaTqlnt.s:19     .text:0000000000000000 .L0 
     /tmp/ccaTqlnt.s:20     .text:0000000000000004 .L0 
     /tmp/ccaTqlnt.s:23     .text:000000000000000c .L0 
     /tmp/ccaTqlnt.s:24     .text:000000000000000c .L0 
     /tmp/ccaTqlnt.s:26     .text:0000000000000010 .L0 
     /tmp/ccaTqlnt.s:28     .text:0000000000000010 .L0 
     /tmp/ccaTqlnt.s:29     .text:0000000000000010 .L0 
     /tmp/ccaTqlnt.s:30     .text:0000000000000010 .L0 
     /tmp/ccaTqlnt.s:32     .text:0000000000000014 .L0 
     /tmp/ccaTqlnt.s:33     .text:0000000000000014 .L0 
     /tmp/ccaTqlnt.s:846    .text:00000000000003f8 _Z5upisim
     /tmp/ccaTqlnt.s:38     .text:0000000000000024 .L0 
     /tmp/ccaTqlnt.s:40     .text:0000000000000028 .L0 
     /tmp/ccaTqlnt.s:41     .text:0000000000000028 .L0 
     /tmp/ccaTqlnt.s:43     .text:000000000000002c .L0 
     /tmp/ccaTqlnt.s:45     .text:0000000000000030 .L0 
     /tmp/ccaTqlnt.s:46     .text:0000000000000030 .L0 
     /tmp/ccaTqlnt.s:48     .text:0000000000000034 .L0 
     /tmp/ccaTqlnt.s:50     .text:0000000000000038 .L0 
     /tmp/ccaTqlnt.s:54     .text:0000000000000044 .L0 
     /tmp/ccaTqlnt.s:55     .text:0000000000000044 .L0 
     /tmp/ccaTqlnt.s:60     .text:0000000000000054 .L0 
     /tmp/ccaTqlnt.s:61     .text:0000000000000054 .L0 
     /tmp/ccaTqlnt.s:63     .text:0000000000000058 .L0 
     /tmp/ccaTqlnt.s:68     .text:0000000000000064 .L0 
     /tmp/ccaTqlnt.s:69     .text:0000000000000064 .L0 
     /tmp/ccaTqlnt.s:74     .text:0000000000000074 .L0 
     /tmp/ccaTqlnt.s:76     .text:0000000000000078 .L0 
     /tmp/ccaTqlnt.s:77     .text:0000000000000078 .L0 
     /tmp/ccaTqlnt.s:79     .text:000000000000007c .L0 
     /tmp/ccaTqlnt.s:81     .text:0000000000000080 .L0 
     /tmp/ccaTqlnt.s:82     .text:0000000000000080 .L0 
     /tmp/ccaTqlnt.s:84     .text:0000000000000084 .L0 
     /tmp/ccaTqlnt.s:89     .text:0000000000000090 .L0 
     /tmp/ccaTqlnt.s:90     .text:0000000000000090 .L0 
     /tmp/ccaTqlnt.s:95     .text:00000000000000a0 .L0 
     /tmp/ccaTqlnt.s:97     .text:00000000000000a4 .L0 
     /tmp/ccaTqlnt.s:98     .text:00000000000000a4 .L0 
     /tmp/ccaTqlnt.s:100    .text:00000000000000a8 .L0 
     /tmp/ccaTqlnt.s:104    .text:00000000000000b4 .L0 
     /tmp/ccaTqlnt.s:106    .text:00000000000000bc .L0 
     /tmp/ccaTqlnt.s:108    .text:00000000000000c0 .L0 
     /tmp/ccaTqlnt.s:109    .text:00000000000000c0 .L0 
     /tmp/ccaTqlnt.s:111    .text:00000000000000c4 .L0 
     /tmp/ccaTqlnt.s:113    .text:00000000000000c8 .L0 
     /tmp/ccaTqlnt.s:119    .text:00000000000000c8 _Z13emptyFunctionPv
     /tmp/ccaTqlnt.s:122    .text:00000000000000c8 .L0 
     /tmp/ccaTqlnt.s:123    .text:00000000000000c8 .L0 
     /tmp/ccaTqlnt.s:124    .text:00000000000000cc .L0 
     /tmp/ccaTqlnt.s:126    .text:00000000000000d0 .L0 
     /tmp/ccaTqlnt.s:128    .text:00000000000000d4 .L0 
     /tmp/ccaTqlnt.s:131    .text:00000000000000d8 .L0 
     /tmp/ccaTqlnt.s:133    .text:00000000000000e0 .L0 
GAS LISTING /tmp/ccaTqlnt.s 			page 28


     /tmp/ccaTqlnt.s:134    .text:00000000000000e0 .L0 
     /tmp/ccaTqlnt.s:136    .text:00000000000000e4 .L0 
     /tmp/ccaTqlnt.s:138    .text:00000000000000e8 .L0 
     /tmp/ccaTqlnt.s:144    .text:00000000000000e8 _Z5nit1fPv
     /tmp/ccaTqlnt.s:147    .text:00000000000000e8 .L0 
     /tmp/ccaTqlnt.s:148    .text:00000000000000e8 .L0 
     /tmp/ccaTqlnt.s:149    .text:00000000000000ec .L0 
     /tmp/ccaTqlnt.s:152    .text:00000000000000f4 .L0 
     /tmp/ccaTqlnt.s:153    .text:00000000000000f4 .L0 
     /tmp/ccaTqlnt.s:155    .text:00000000000000f8 .L0 
     /tmp/ccaTqlnt.s:160    .text:00000000000000fc .L0 
     /tmp/ccaTqlnt.s:161    .text:00000000000000fc .L0 
     /tmp/ccaTqlnt.s:162    .text:00000000000000fc .L0 
     /tmp/ccaTqlnt.s:163    .text:00000000000000fc .L0 
     /tmp/ccaTqlnt.s:171    .text:0000000000000118 .L0 
     /tmp/ccaTqlnt.s:172    .text:0000000000000118 .L0 
     /tmp/ccaTqlnt.s:173    .text:000000000000011c .L0 
     /tmp/ccaTqlnt.s:180    .text._ZN3perC2Em:0000000000000000 _ZN3perC2Em
     /tmp/ccaTqlnt.s:183    .text._ZN3perC2Em:0000000000000000 .L0 
     /tmp/ccaTqlnt.s:185    .text._ZN3perC2Em:0000000000000000 .L0 
     /tmp/ccaTqlnt.s:186    .text._ZN3perC2Em:0000000000000004 .L0 
     /tmp/ccaTqlnt.s:189    .text._ZN3perC2Em:000000000000000c .L0 
     /tmp/ccaTqlnt.s:190    .text._ZN3perC2Em:000000000000000c .L0 
     /tmp/ccaTqlnt.s:192    .text._ZN3perC2Em:0000000000000010 .L0 
     /tmp/ccaTqlnt.s:197    .text._ZN3perC2Em:0000000000000018 .L0 
     /tmp/ccaTqlnt.s:646    .data.rel.ro._ZTV3per:0000000000000000 _ZTV3per
     /tmp/ccaTqlnt.s:207    .text._ZN3perC2Em:000000000000003c .L0 
     /tmp/ccaTqlnt.s:209    .text._ZN3perC2Em:0000000000000044 .L0 
     /tmp/ccaTqlnt.s:211    .text._ZN3perC2Em:0000000000000048 .L0 
     /tmp/ccaTqlnt.s:212    .text._ZN3perC2Em:0000000000000048 .L0 
     /tmp/ccaTqlnt.s:215    .text._ZN3perC2Em:000000000000004c .L0 
     /tmp/ccaTqlnt.s:218    .text._ZN3perC2Em:0000000000000050 .L0 
     /tmp/ccaTqlnt.s:180    .text._ZN3perC2Em:0000000000000000 _ZN3perC1Em
     /tmp/ccaTqlnt.s:231    .text._ZN3per18periodicActivationEv:0000000000000000 _ZN3per18periodicActivationEv
     /tmp/ccaTqlnt.s:234    .text._ZN3per18periodicActivationEv:0000000000000000 .L0 
     /tmp/ccaTqlnt.s:236    .text._ZN3per18periodicActivationEv:0000000000000000 .L0 
     /tmp/ccaTqlnt.s:237    .text._ZN3per18periodicActivationEv:0000000000000004 .L0 
     /tmp/ccaTqlnt.s:240    .text._ZN3per18periodicActivationEv:000000000000000c .L0 
     /tmp/ccaTqlnt.s:241    .text._ZN3per18periodicActivationEv:000000000000000c .L0 
     /tmp/ccaTqlnt.s:243    .text._ZN3per18periodicActivationEv:0000000000000010 .L0 
     /tmp/ccaTqlnt.s:246    .text._ZN3per18periodicActivationEv:0000000000000014 .L0 
     /tmp/ccaTqlnt.s:247    .text._ZN3per18periodicActivationEv:0000000000000014 .L0 
     /tmp/ccaTqlnt.s:252    .text._ZN3per18periodicActivationEv:0000000000000024 .L0 
     /tmp/ccaTqlnt.s:254    .text._ZN3per18periodicActivationEv:000000000000002c .L0 
     /tmp/ccaTqlnt.s:256    .text._ZN3per18periodicActivationEv:0000000000000030 .L0 
     /tmp/ccaTqlnt.s:257    .text._ZN3per18periodicActivationEv:0000000000000030 .L0 
     /tmp/ccaTqlnt.s:260    .text._ZN3per18periodicActivationEv:0000000000000034 .L0 
     /tmp/ccaTqlnt.s:263    .text._ZN3per18periodicActivationEv:0000000000000038 .L0 
     /tmp/ccaTqlnt.s:274    .text:000000000000011c _Z5nit2fPv
     /tmp/ccaTqlnt.s:277    .text:000000000000011c .L0 
     /tmp/ccaTqlnt.s:5731   .data.rel.local.DW.ref.__gxx_personality_v0:0000000000000000 DW.ref.__gxx_personality_v0
     /tmp/ccaTqlnt.s:281    .text:000000000000011c .L0 
     /tmp/ccaTqlnt.s:282    .text:0000000000000120 .L0 
     /tmp/ccaTqlnt.s:287    .text:0000000000000130 .L0 
     /tmp/ccaTqlnt.s:288    .text:0000000000000130 .L0 
     /tmp/ccaTqlnt.s:289    .text:0000000000000130 .L0 
     /tmp/ccaTqlnt.s:290    .text:0000000000000130 .L0 
GAS LISTING /tmp/ccaTqlnt.s 			page 29


     /tmp/ccaTqlnt.s:292    .text:0000000000000134 .L0 
     /tmp/ccaTqlnt.s:295    .text:0000000000000138 .L0 
     /tmp/ccaTqlnt.s:296    .text:0000000000000138 .L0 
     /tmp/ccaTqlnt.s:311    .text:000000000000015c .L0 
     /tmp/ccaTqlnt.s:314    .text:0000000000000160 .L0 
     /tmp/ccaTqlnt.s:315    .text:0000000000000160 .L0 
     /tmp/ccaTqlnt.s:321    .text:0000000000000170 .L0 
     /tmp/ccaTqlnt.s:322    .text:0000000000000170 .L0 
     /tmp/ccaTqlnt.s:326    .text:000000000000017c .L0 
     /tmp/ccaTqlnt.s:327    .text:000000000000017c .L0 
     /tmp/ccaTqlnt.s:331    .text:0000000000000188 .L0 
     /tmp/ccaTqlnt.s:332    .text:0000000000000188 .L0 
     /tmp/ccaTqlnt.s:336    .text:0000000000000198 .L0 
     /tmp/ccaTqlnt.s:341    .text:00000000000001a0 .L0 
     /tmp/ccaTqlnt.s:351    .text:00000000000001bc .L0 
     /tmp/ccaTqlnt.s:352    .text:00000000000001c0 .L0 
     /tmp/ccaTqlnt.s:354    .text:00000000000001c4 .L0 
     /tmp/ccaTqlnt.s:355    .text:00000000000001c4 .L0 
     /tmp/ccaTqlnt.s:358    .text:00000000000001c8 .L0 
     /tmp/ccaTqlnt.s:360    .text:00000000000001cc .L0 
     /tmp/ccaTqlnt.s:362    .text:00000000000001d0 .L0 
     /tmp/ccaTqlnt.s:365    .text:00000000000001d4 .L0 
     /tmp/ccaTqlnt.s:396    .text:00000000000001d4 _Z5nit3fPv
     /tmp/ccaTqlnt.s:399    .text:00000000000001d4 .L0 
     /tmp/ccaTqlnt.s:400    .text:00000000000001d4 .L0 
     /tmp/ccaTqlnt.s:401    .text:00000000000001d8 .L0 
     /tmp/ccaTqlnt.s:404    .text:00000000000001e0 .L0 
     /tmp/ccaTqlnt.s:405    .text:00000000000001e0 .L0 
     /tmp/ccaTqlnt.s:407    .text:00000000000001e4 .L0 
     /tmp/ccaTqlnt.s:411    .text:00000000000001e8 .L0 
     /tmp/ccaTqlnt.s:412    .text:00000000000001e8 .L0 
     /tmp/ccaTqlnt.s:413    .text:00000000000001e8 .L0 
     /tmp/ccaTqlnt.s:414    .text:00000000000001e8 .L0 
     /tmp/ccaTqlnt.s:420    .text:00000000000001f8 .L0 
     /tmp/ccaTqlnt.s:421    .text:00000000000001f8 .L0 
     /tmp/ccaTqlnt.s:427    .text:0000000000000208 .L0 
     /tmp/ccaTqlnt.s:432    .text:0000000000000218 .L0 
     /tmp/ccaTqlnt.s:433    .text:0000000000000218 .L0 
     /tmp/ccaTqlnt.s:438    .text:0000000000000224 .L0 
     /tmp/ccaTqlnt.s:443    .text:0000000000000234 .L0 
     /tmp/ccaTqlnt.s:446    .text:0000000000000238 .L0 
     /tmp/ccaTqlnt.s:447    .text:0000000000000238 .L0 
     /tmp/ccaTqlnt.s:451    .text:0000000000000248 .L0 
     /tmp/ccaTqlnt.s:453    .text:0000000000000250 .L0 
     /tmp/ccaTqlnt.s:455    .text:0000000000000254 .L0 
     /tmp/ccaTqlnt.s:456    .text:0000000000000254 .L0 
     /tmp/ccaTqlnt.s:459    .text:0000000000000258 .L0 
     /tmp/ccaTqlnt.s:462    .text:000000000000025c .L0 
     /tmp/ccaTqlnt.s:476    .text:000000000000025c main
     /tmp/ccaTqlnt.s:479    .text:000000000000025c .L0 
     /tmp/ccaTqlnt.s:480    .text:000000000000025c .L0 
     /tmp/ccaTqlnt.s:481    .text:0000000000000260 .L0 
     /tmp/ccaTqlnt.s:484    .text:0000000000000268 .L0 
     /tmp/ccaTqlnt.s:485    .text:0000000000000268 .L0 
     /tmp/ccaTqlnt.s:487    .text:000000000000026c .L0 
     /tmp/ccaTqlnt.s:489    .text:000000000000026c .L0 
     /tmp/ccaTqlnt.s:490    .text:000000000000026c .L0 
GAS LISTING /tmp/ccaTqlnt.s 			page 30


     /tmp/ccaTqlnt.s:496    .text:0000000000000278 .L0 
     /tmp/ccaTqlnt.s:498    .text:0000000000000278 .L0 
     /tmp/ccaTqlnt.s:501    .text:0000000000000280 .L0 
     /tmp/ccaTqlnt.s:502    .text:0000000000000280 .L0 
     /tmp/ccaTqlnt.s:505    .text:0000000000000288 .L0 
     /tmp/ccaTqlnt.s:506    .text:0000000000000288 .L0 
     /tmp/ccaTqlnt.s:508    .text:000000000000028c .L0 
     /tmp/ccaTqlnt.s:509    .text:000000000000028c .L0 
     /tmp/ccaTqlnt.s:511    .text:0000000000000290 .L0 
     /tmp/ccaTqlnt.s:512    .text:0000000000000290 .L0 
     /tmp/ccaTqlnt.s:514    .text:0000000000000294 .L0 
     /tmp/ccaTqlnt.s:515    .text:0000000000000294 .L0 
     /tmp/ccaTqlnt.s:517    .text:0000000000000298 .L0 
     /tmp/ccaTqlnt.s:518    .text:0000000000000298 .L0 
     /tmp/ccaTqlnt.s:520    .text:000000000000029c .L0 
     /tmp/ccaTqlnt.s:521    .text:000000000000029c .L0 
     /tmp/ccaTqlnt.s:523    .text:00000000000002a0 .L0 
     /tmp/ccaTqlnt.s:524    .text:00000000000002a0 .L0 
     /tmp/ccaTqlnt.s:531    .text:00000000000002bc .L0 
     /tmp/ccaTqlnt.s:532    .text:00000000000002bc .L0 
     /tmp/ccaTqlnt.s:816    .text._ZN3TCB10setRunningEPS_:0000000000000000 _ZN3TCB10setRunningEPS_
     /tmp/ccaTqlnt.s:537    .text:00000000000002cc .L0 
     /tmp/ccaTqlnt.s:538    .text:00000000000002cc .L0 
     /tmp/ccaTqlnt.s:545    .text:00000000000002e8 .L0 
     /tmp/ccaTqlnt.s:546    .text:00000000000002e8 .L0 
     /tmp/ccaTqlnt.s:553    .text:0000000000000304 .L0 
     /tmp/ccaTqlnt.s:554    .text:0000000000000304 .L0 
     /tmp/ccaTqlnt.s:561    .text:0000000000000320 .L0 
     /tmp/ccaTqlnt.s:562    .text:0000000000000320 .L0 
     /tmp/ccaTqlnt.s:569    .text:000000000000033c .L0 
     /tmp/ccaTqlnt.s:570    .text:000000000000033c .L0 
     /tmp/ccaTqlnt.s:577    .text:0000000000000358 .L0 
     /tmp/ccaTqlnt.s:578    .text:0000000000000358 .L0 
     /tmp/ccaTqlnt.s:751    .text._ZN5Riscv10ms_sstatusEm:0000000000000000 _ZN5Riscv10ms_sstatusEm
     /tmp/ccaTqlnt.s:582    .text:0000000000000364 .L0 
     /tmp/ccaTqlnt.s:583    .text:0000000000000364 .L0 
     /tmp/ccaTqlnt.s:588    .text:0000000000000374 .L0 
     /tmp/ccaTqlnt.s:589    .text:0000000000000374 .L0 
     /tmp/ccaTqlnt.s:594    .text:0000000000000384 .L0 
     /tmp/ccaTqlnt.s:595    .text:0000000000000384 .L0 
     /tmp/ccaTqlnt.s:600    .text:0000000000000394 .L0 
     /tmp/ccaTqlnt.s:601    .text:0000000000000394 .L0 
     /tmp/ccaTqlnt.s:605    .text:00000000000003a4 .L0 
     /tmp/ccaTqlnt.s:606    .text:00000000000003a4 .L0 
     /tmp/ccaTqlnt.s:611    .text:00000000000003b4 .L0 
     /tmp/ccaTqlnt.s:612    .text:00000000000003b4 .L0 
     /tmp/ccaTqlnt.s:618    .text:00000000000003d0 .L0 
     /tmp/ccaTqlnt.s:621    .text:00000000000003d4 .L0 
     /tmp/ccaTqlnt.s:622    .text:00000000000003d4 .L0 
     /tmp/ccaTqlnt.s:784    .text._ZN5Riscv10mc_sstatusEm:0000000000000000 _ZN5Riscv10mc_sstatusEm
     /tmp/ccaTqlnt.s:626    .text:00000000000003e0 .L0 
     /tmp/ccaTqlnt.s:627    .text:00000000000003e0 .L0 
     /tmp/ccaTqlnt.s:629    .text:00000000000003e4 .L0 
     /tmp/ccaTqlnt.s:631    .text:00000000000003ec .L0 
     /tmp/ccaTqlnt.s:633    .text:00000000000003f0 .L0 
     /tmp/ccaTqlnt.s:634    .text:00000000000003f0 .L0 
     /tmp/ccaTqlnt.s:636    .text:00000000000003f4 .L0 
GAS LISTING /tmp/ccaTqlnt.s 			page 31


     /tmp/ccaTqlnt.s:638    .text:00000000000003f8 .L0 
     /tmp/ccaTqlnt.s:657    .text._ZN3perD2Ev:0000000000000000 _ZN3perD1Ev
     /tmp/ccaTqlnt.s:700    .text._ZN3perD0Ev:0000000000000000 _ZN3perD0Ev
     /tmp/ccaTqlnt.s:657    .text._ZN3perD2Ev:0000000000000000 _ZN3perD2Ev
     /tmp/ccaTqlnt.s:660    .text._ZN3perD2Ev:0000000000000000 .L0 
     /tmp/ccaTqlnt.s:662    .text._ZN3perD2Ev:0000000000000000 .L0 
     /tmp/ccaTqlnt.s:663    .text._ZN3perD2Ev:0000000000000004 .L0 
     /tmp/ccaTqlnt.s:666    .text._ZN3perD2Ev:000000000000000c .L0 
     /tmp/ccaTqlnt.s:667    .text._ZN3perD2Ev:000000000000000c .L0 
     /tmp/ccaTqlnt.s:669    .text._ZN3perD2Ev:0000000000000010 .L0 
     /tmp/ccaTqlnt.s:675    .text._ZN3perD2Ev:0000000000000010 .L0 
     /tmp/ccaTqlnt.s:683    .text._ZN3perD2Ev:0000000000000028 .L0 
     /tmp/ccaTqlnt.s:684    .text._ZN3perD2Ev:000000000000002c .L0 
     /tmp/ccaTqlnt.s:686    .text._ZN3perD2Ev:0000000000000030 .L0 
     /tmp/ccaTqlnt.s:687    .text._ZN3perD2Ev:0000000000000030 .L0 
     /tmp/ccaTqlnt.s:689    .text._ZN3perD2Ev:0000000000000034 .L0 
     /tmp/ccaTqlnt.s:691    .text._ZN3perD2Ev:0000000000000038 .L0 
     /tmp/ccaTqlnt.s:703    .text._ZN3perD0Ev:0000000000000000 .L0 
     /tmp/ccaTqlnt.s:705    .text._ZN3perD0Ev:0000000000000000 .L0 
     /tmp/ccaTqlnt.s:706    .text._ZN3perD0Ev:0000000000000004 .L0 
     /tmp/ccaTqlnt.s:710    .text._ZN3perD0Ev:0000000000000010 .L0 
     /tmp/ccaTqlnt.s:711    .text._ZN3perD0Ev:0000000000000010 .L0 
     /tmp/ccaTqlnt.s:712    .text._ZN3perD0Ev:0000000000000010 .L0 
     /tmp/ccaTqlnt.s:714    .text._ZN3perD0Ev:0000000000000014 .L0 
     /tmp/ccaTqlnt.s:721    .text._ZN3perD0Ev:0000000000000018 .L0 
     /tmp/ccaTqlnt.s:730    .text._ZN3perD0Ev:0000000000000030 .L0 
     /tmp/ccaTqlnt.s:734    .text._ZN3perD0Ev:0000000000000040 .L0 
     /tmp/ccaTqlnt.s:736    .text._ZN3perD0Ev:0000000000000044 .L0 
     /tmp/ccaTqlnt.s:737    .text._ZN3perD0Ev:0000000000000044 .L0 
     /tmp/ccaTqlnt.s:739    .text._ZN3perD0Ev:0000000000000048 .L0 
     /tmp/ccaTqlnt.s:742    .text._ZN3perD0Ev:000000000000004c .L0 
     /tmp/ccaTqlnt.s:744    .text._ZN3perD0Ev:0000000000000050 .L0 
     /tmp/ccaTqlnt.s:755    .text._ZN5Riscv10ms_sstatusEm:0000000000000000 .L0 
     /tmp/ccaTqlnt.s:757    .text._ZN5Riscv10ms_sstatusEm:0000000000000000 .L0 
     /tmp/ccaTqlnt.s:758    .text._ZN5Riscv10ms_sstatusEm:0000000000000004 .L0 
     /tmp/ccaTqlnt.s:760    .text._ZN5Riscv10ms_sstatusEm:0000000000000008 .L0 
     /tmp/ccaTqlnt.s:762    .text._ZN5Riscv10ms_sstatusEm:000000000000000c .L0 
     /tmp/ccaTqlnt.s:764    .text._ZN5Riscv10ms_sstatusEm:000000000000000c .L0 
  src/../h/Riscv.hpp:131    .text._ZN5Riscv10ms_sstatusEm:000000000000000c .L0 
     /tmp/ccaTqlnt.s:771    .text._ZN5Riscv10ms_sstatusEm:0000000000000010 .L0 
     /tmp/ccaTqlnt.s:772    .text._ZN5Riscv10ms_sstatusEm:0000000000000014 .L0 
     /tmp/ccaTqlnt.s:773    .text._ZN5Riscv10ms_sstatusEm:0000000000000014 .L0 
     /tmp/ccaTqlnt.s:775    .text._ZN5Riscv10ms_sstatusEm:0000000000000018 .L0 
     /tmp/ccaTqlnt.s:777    .text._ZN5Riscv10ms_sstatusEm:000000000000001c .L0 
     /tmp/ccaTqlnt.s:787    .text._ZN5Riscv10mc_sstatusEm:0000000000000000 .L0 
     /tmp/ccaTqlnt.s:789    .text._ZN5Riscv10mc_sstatusEm:0000000000000000 .L0 
     /tmp/ccaTqlnt.s:790    .text._ZN5Riscv10mc_sstatusEm:0000000000000004 .L0 
     /tmp/ccaTqlnt.s:792    .text._ZN5Riscv10mc_sstatusEm:0000000000000008 .L0 
     /tmp/ccaTqlnt.s:794    .text._ZN5Riscv10mc_sstatusEm:000000000000000c .L0 
     /tmp/ccaTqlnt.s:796    .text._ZN5Riscv10mc_sstatusEm:000000000000000c .L0 
  src/../h/Riscv.hpp:135    .text._ZN5Riscv10mc_sstatusEm:000000000000000c .L0 
     /tmp/ccaTqlnt.s:803    .text._ZN5Riscv10mc_sstatusEm:0000000000000010 .L0 
     /tmp/ccaTqlnt.s:804    .text._ZN5Riscv10mc_sstatusEm:0000000000000014 .L0 
     /tmp/ccaTqlnt.s:805    .text._ZN5Riscv10mc_sstatusEm:0000000000000014 .L0 
     /tmp/ccaTqlnt.s:807    .text._ZN5Riscv10mc_sstatusEm:0000000000000018 .L0 
     /tmp/ccaTqlnt.s:809    .text._ZN5Riscv10mc_sstatusEm:000000000000001c .L0 
     /tmp/ccaTqlnt.s:820    .text._ZN3TCB10setRunningEPS_:0000000000000000 .L0 
GAS LISTING /tmp/ccaTqlnt.s 			page 32


     /tmp/ccaTqlnt.s:822    .text._ZN3TCB10setRunningEPS_:0000000000000000 .L0 
     /tmp/ccaTqlnt.s:823    .text._ZN3TCB10setRunningEPS_:0000000000000004 .L0 
     /tmp/ccaTqlnt.s:825    .text._ZN3TCB10setRunningEPS_:0000000000000008 .L0 
     /tmp/ccaTqlnt.s:827    .text._ZN3TCB10setRunningEPS_:000000000000000c .L0 
     /tmp/ccaTqlnt.s:829    .text._ZN3TCB10setRunningEPS_:000000000000000c .L0 
     /tmp/ccaTqlnt.s:830    .text._ZN3TCB10setRunningEPS_:000000000000000c .L0 
     /tmp/ccaTqlnt.s:833    .text._ZN3TCB10setRunningEPS_:0000000000000018 .L0 
     /tmp/ccaTqlnt.s:834    .text._ZN3TCB10setRunningEPS_:000000000000001c .L0 
     /tmp/ccaTqlnt.s:835    .text._ZN3TCB10setRunningEPS_:000000000000001c .L0 
     /tmp/ccaTqlnt.s:837    .text._ZN3TCB10setRunningEPS_:0000000000000020 .L0 
     /tmp/ccaTqlnt.s:839    .text._ZN3TCB10setRunningEPS_:0000000000000024 .L0 
     /tmp/ccaTqlnt.s:849    .text:00000000000003f8 .L0 
     /tmp/ccaTqlnt.s:851    .text:00000000000003f8 .L0 
     /tmp/ccaTqlnt.s:852    .text:00000000000003fc .L0 
     /tmp/ccaTqlnt.s:856    .text:0000000000000408 .L0 
     /tmp/ccaTqlnt.s:857    .text:0000000000000408 .L0 
     /tmp/ccaTqlnt.s:858    .text:0000000000000408 .L0 
     /tmp/ccaTqlnt.s:860    .text:000000000000040c .L0 
     /tmp/ccaTqlnt.s:863    .text:0000000000000410 .L0 
     /tmp/ccaTqlnt.s:864    .text:0000000000000410 .L0 
     /tmp/ccaTqlnt.s:869    .text:000000000000041c .L0 
     /tmp/ccaTqlnt.s:872    .text:0000000000000420 .L0 
     /tmp/ccaTqlnt.s:877    .text:0000000000000428 .L0 
     /tmp/ccaTqlnt.s:878    .text:0000000000000428 .L0 
     /tmp/ccaTqlnt.s:880    .text:000000000000042c .L0 
     /tmp/ccaTqlnt.s:883    .text:0000000000000434 .L0 
     /tmp/ccaTqlnt.s:887    .text:0000000000000438 .L0 
     /tmp/ccaTqlnt.s:888    .text:0000000000000438 .L0 
     /tmp/ccaTqlnt.s:890    .text:000000000000043c .L0 
     /tmp/ccaTqlnt.s:896    .text:0000000000000440 .L0 
     /tmp/ccaTqlnt.s:897    .text:0000000000000444 .L0 
     /tmp/ccaTqlnt.s:899    .text:0000000000000448 .L0 
     /tmp/ccaTqlnt.s:900    .text:0000000000000448 .L0 
     /tmp/ccaTqlnt.s:902    .text:000000000000044c .L0 
     /tmp/ccaTqlnt.s:905    .text:0000000000000450 .L0 
     /tmp/ccaTqlnt.s:907    .text:0000000000000454 .L0 
     /tmp/ccaTqlnt.s:918    .text:0000000000000454 .L0 
     /tmp/ccaTqlnt.s:223    .text._ZN3perC2Em:0000000000000050 .L0 
     /tmp/ccaTqlnt.s:266    .text._ZN3per18periodicActivationEv:0000000000000038 .L0 
     /tmp/ccaTqlnt.s:696    .text._ZN3perD2Ev:0000000000000038 .L0 
     /tmp/ccaTqlnt.s:747    .text._ZN3perD0Ev:0000000000000050 .L0 
     /tmp/ccaTqlnt.s:780    .text._ZN5Riscv10ms_sstatusEm:000000000000001c .L0 
     /tmp/ccaTqlnt.s:812    .text._ZN5Riscv10mc_sstatusEm:000000000000001c .L0 
     /tmp/ccaTqlnt.s:842    .text._ZN3TCB10setRunningEPS_:0000000000000024 .L0 
     /tmp/ccaTqlnt.s:8      .rodata:0000000000000000 .LC0
     /tmp/ccaTqlnt.s:55     .text:0000000000000044 .L0 
     /tmp/ccaTqlnt.s:165    .text:0000000000000104 .L0 
     /tmp/ccaTqlnt.s:268    .rodata:0000000000000010 .LC2
     /tmp/ccaTqlnt.s:332    .text:0000000000000188 .L0 
     /tmp/ccaTqlnt.s:390    .rodata:0000000000000020 .LC3
     /tmp/ccaTqlnt.s:447    .text:0000000000000238 .L0 
     /tmp/ccaTqlnt.s:490    .text:000000000000026c .L0 
     /tmp/ccaTqlnt.s:526    .text:00000000000002a8 .L0 
     /tmp/ccaTqlnt.s:540    .text:00000000000002d4 .L0 
     /tmp/ccaTqlnt.s:548    .text:00000000000002f0 .L0 
     /tmp/ccaTqlnt.s:556    .text:000000000000030c .L0 
     /tmp/ccaTqlnt.s:564    .text:0000000000000328 .L0 
GAS LISTING /tmp/ccaTqlnt.s 			page 33


     /tmp/ccaTqlnt.s:572    .text:0000000000000344 .L0 
     /tmp/ccaTqlnt.s:467    .rodata:0000000000000030 .LC4
     /tmp/ccaTqlnt.s:601    .text:0000000000000394 .L0 
     /tmp/ccaTqlnt.s:470    .rodata:0000000000000048 .LC5
     /tmp/ccaTqlnt.s:606    .text:00000000000003a4 .L0 
     /tmp/ccaTqlnt.s:612    .text:00000000000003b4 .L0 
     /tmp/ccaTqlnt.s:614    .text:00000000000003c0 .L0 
     /tmp/ccaTqlnt.s:66     .text:0000000000000064 .L2
     /tmp/ccaTqlnt.s:58     .text:0000000000000054 .L3
     /tmp/ccaTqlnt.s:87     .text:0000000000000090 .L4
     /tmp/ccaTqlnt.s:157    .text:00000000000000fc .L7
     /tmp/ccaTqlnt.s:349    .text:00000000000001bc .L13
     /tmp/ccaTqlnt.s:436    .text:0000000000000224 .L15
     /tmp/ccaTqlnt.s:444    .text:0000000000000238 .L16
     /tmp/ccaTqlnt.s:409    .text:00000000000001e8 .L17
     /tmp/ccaTqlnt.s:619    .text:00000000000003d4 .L19
     /tmp/ccaTqlnt.s:609    .text:00000000000003b4 .L20
     /tmp/ccaTqlnt.s:892    .text:0000000000000440 .L32
     /tmp/ccaTqlnt.s:885    .text:0000000000000438 .L34
     /tmp/ccaTqlnt.s:875    .text:0000000000000428 .L36
     /tmp/ccaTqlnt.s:202    .text._ZN3perC2Em:000000000000002c .L0 
     /tmp/ccaTqlnt.s:225    .rodata:0000000000000008 .LC1
     /tmp/ccaTqlnt.s:247    .text._ZN3per18periodicActivationEv:0000000000000014 .L0 
     /tmp/ccaTqlnt.s:298    .text:000000000000013c .LEHB0
     /tmp/ccaTqlnt.s:275    .text:000000000000011c .LFB62
     /tmp/ccaTqlnt.s:301    .text:0000000000000144 .LEHE0
     /tmp/ccaTqlnt.s:306    .text:0000000000000154 .LEHB1
     /tmp/ccaTqlnt.s:309    .text:000000000000015c .LEHE1
     /tmp/ccaTqlnt.s:338    .text:000000000000019c .L12
     /tmp/ccaTqlnt.s:317    .text:0000000000000168 .LEHB2
     /tmp/ccaTqlnt.s:348    .text:00000000000001bc .LEHE2
     /tmp/ccaTqlnt.s:675    .text._ZN3perD2Ev:0000000000000010 .L0 
     /tmp/ccaTqlnt.s:721    .text._ZN3perD0Ev:0000000000000018 .L0 
     /tmp/ccaTqlnt.s:830    .text._ZN3TCB10setRunningEPS_:000000000000000c .L0 
     /tmp/ccaTqlnt.s:3432   .debug_abbrev:0000000000000000 .Ldebug_abbrev0
     /tmp/ccaTqlnt.s:5603   .debug_str:0000000000000c6d .LASF257
     /tmp/ccaTqlnt.s:5349   .debug_str:0000000000000500 .LASF258
     /tmp/ccaTqlnt.s:5545   .debug_str:0000000000000aba .LASF259
     /tmp/ccaTqlnt.s:5163   .debug_ranges:0000000000000000 .Ldebug_ranges0
     /tmp/ccaTqlnt.s:5183   .debug_line:0000000000000000 .Ldebug_line0
     /tmp/ccaTqlnt.s:5357   .debug_str:000000000000053a .LASF0
     /tmp/ccaTqlnt.s:5387   .debug_str:00000000000005fb .LASF1
     /tmp/ccaTqlnt.s:5527   .debug_str:0000000000000a2b .LASF2
     /tmp/ccaTqlnt.s:5299   .debug_str:0000000000000395 .LASF3
     /tmp/ccaTqlnt.s:5539   .debug_str:0000000000000a99 .LASF4
     /tmp/ccaTqlnt.s:5371   .debug_str:0000000000000581 .LASF5
     /tmp/ccaTqlnt.s:5201   .debug_str:0000000000000084 .LASF6
     /tmp/ccaTqlnt.s:5487   .debug_str:00000000000008e5 .LASF7
     /tmp/ccaTqlnt.s:5477   .debug_str:00000000000008ac .LASF8
     /tmp/ccaTqlnt.s:5377   .debug_str:00000000000005c2 .LASF9
     /tmp/ccaTqlnt.s:5325   .debug_str:0000000000000444 .LASF10
     /tmp/ccaTqlnt.s:5341   .debug_str:00000000000004b9 .LASF11
     /tmp/ccaTqlnt.s:5241   .debug_str:00000000000001b8 .LASF12
     /tmp/ccaTqlnt.s:5311   .debug_str:00000000000003f1 .LASF13
     /tmp/ccaTqlnt.s:5257   .debug_str:0000000000000222 .LASF14
     /tmp/ccaTqlnt.s:5239   .debug_str:00000000000001a8 .LASF15
     /tmp/ccaTqlnt.s:5569   .debug_str:0000000000000ba2 .LASF16
GAS LISTING /tmp/ccaTqlnt.s 			page 34


     /tmp/ccaTqlnt.s:5287   .debug_str:0000000000000315 .LASF17
     /tmp/ccaTqlnt.s:5557   .debug_str:0000000000000b17 .LASF18
     /tmp/ccaTqlnt.s:5473   .debug_str:000000000000087e .LASF40
     /tmp/ccaTqlnt.s:5467   .debug_str:0000000000000862 .LASF42
     /tmp/ccaTqlnt.s:5483   .debug_str:00000000000008cf .LASF19
     /tmp/ccaTqlnt.s:5703   .debug_str:0000000000000fd9 .LASF20
     /tmp/ccaTqlnt.s:5513   .debug_str:00000000000009bf .LASF21
     /tmp/ccaTqlnt.s:5639   .debug_str:0000000000000e2e .LASF22
     /tmp/ccaTqlnt.s:5409   .debug_str:0000000000000692 .LASF23
     /tmp/ccaTqlnt.s:5493   .debug_str:000000000000090a .LASF26
     /tmp/ccaTqlnt.s:5243   .debug_str:00000000000001c7 .LASF24
     /tmp/ccaTqlnt.s:5385   .debug_str:00000000000005f6 .LASF25
     /tmp/ccaTqlnt.s:5279   .debug_str:00000000000002dd .LASF27
     /tmp/ccaTqlnt.s:5511   .debug_str:00000000000009b7 .LASF28
     /tmp/ccaTqlnt.s:5433   .debug_str:0000000000000751 .LASF29
     /tmp/ccaTqlnt.s:5691   .debug_str:0000000000000f81 .LASF30
     /tmp/ccaTqlnt.s:5613   .debug_str:0000000000000d71 .LASF32
     /tmp/ccaTqlnt.s:5319   .debug_str:0000000000000425 .LASF31
     /tmp/ccaTqlnt.s:5463   .debug_str:000000000000083f .LASF33
     /tmp/ccaTqlnt.s:5221   .debug_str:0000000000000139 .LASF34
     /tmp/ccaTqlnt.s:5507   .debug_str:000000000000096d .LASF35
     /tmp/ccaTqlnt.s:5687   .debug_str:0000000000000f5f .LASF47
     /tmp/ccaTqlnt.s:5425   .debug_str:00000000000006f9 .LASF49
     /tmp/ccaTqlnt.s:5215   .debug_str:00000000000000de .LASF52
     /tmp/ccaTqlnt.s:5515   .debug_str:00000000000009c6 .LASF36
     /tmp/ccaTqlnt.s:5653   .debug_str:0000000000000e88 .LASF37
     /tmp/ccaTqlnt.s:5355   .debug_str:000000000000052e .LASF38
     /tmp/ccaTqlnt.s:5367   .debug_str:0000000000000569 .LASF80
     /tmp/ccaTqlnt.s:5567   .debug_str:0000000000000b6d .LASF82
     /tmp/ccaTqlnt.s:5411   .debug_str:000000000000069c .LASF39
     /tmp/ccaTqlnt.s:5677   .debug_str:0000000000000f0d .LASF41
     /tmp/ccaTqlnt.s:5297   .debug_str:0000000000000386 .LASF43
     /tmp/ccaTqlnt.s:5305   .debug_str:00000000000003bf .LASF44
     /tmp/ccaTqlnt.s:5601   .debug_str:0000000000000c60 .LASF45
     /tmp/ccaTqlnt.s:5269   .debug_str:00000000000002a2 .LASF46
     /tmp/ccaTqlnt.s:5421   .debug_str:00000000000006da .LASF48
     /tmp/ccaTqlnt.s:5641   .debug_str:0000000000000e33 .LASF50
     /tmp/ccaTqlnt.s:5391   .debug_str:0000000000000619 .LASF54
     /tmp/ccaTqlnt.s:5625   .debug_str:0000000000000dd2 .LASF56
     /tmp/ccaTqlnt.s:5523   .debug_str:0000000000000a17 .LASF51
     /tmp/ccaTqlnt.s:5459   .debug_str:000000000000080b .LASF53
     /tmp/ccaTqlnt.s:5495   .debug_str:0000000000000919 .LASF55
     /tmp/ccaTqlnt.s:5505   .debug_str:000000000000095a .LASF57
     /tmp/ccaTqlnt.s:5439   .debug_str:0000000000000777 .LASF58
     /tmp/ccaTqlnt.s:5379   .debug_str:00000000000005d5 .LASF59
     /tmp/ccaTqlnt.s:5431   .debug_str:0000000000000749 .LASF60
     /tmp/ccaTqlnt.s:5609   .debug_str:0000000000000d53 .LASF61
     /tmp/ccaTqlnt.s:5435   .debug_str:0000000000000764 .LASF62
     /tmp/ccaTqlnt.s:5457   .debug_str:00000000000007f7 .LASF63
     /tmp/ccaTqlnt.s:5563   .debug_str:0000000000000b45 .LASF64
     /tmp/ccaTqlnt.s:5541   .debug_str:0000000000000aa0 .LASF65
     /tmp/ccaTqlnt.s:5543   .debug_str:0000000000000ab3 .LASF66
     /tmp/ccaTqlnt.s:5249   .debug_str:00000000000001e1 .LASF67
     /tmp/ccaTqlnt.s:5285   .debug_str:000000000000030f .LASF68
     /tmp/ccaTqlnt.s:5351   .debug_str:0000000000000516 .LASF69
     /tmp/ccaTqlnt.s:5363   .debug_str:000000000000055b .LASF70
     /tmp/ccaTqlnt.s:5273   .debug_str:00000000000002b5 .LASF71
GAS LISTING /tmp/ccaTqlnt.s 			page 35


     /tmp/ccaTqlnt.s:5203   .debug_str:000000000000008b .LASF72
     /tmp/ccaTqlnt.s:5531   .debug_str:0000000000000a43 .LASF73
     /tmp/ccaTqlnt.s:5525   .debug_str:0000000000000a20 .LASF74
     /tmp/ccaTqlnt.s:5715   .debug_str:000000000000101a .LASF75
     /tmp/ccaTqlnt.s:5679   .debug_str:0000000000000f13 .LASF76
     /tmp/ccaTqlnt.s:5697   .debug_str:0000000000000f95 .LASF77
     /tmp/ccaTqlnt.s:5671   .debug_str:0000000000000ee5 .LASF78
     /tmp/ccaTqlnt.s:5419   .debug_str:00000000000006c4 .LASF79
     /tmp/ccaTqlnt.s:5617   .debug_str:0000000000000da1 .LASF81
     /tmp/ccaTqlnt.s:5263   .debug_str:0000000000000262 .LASF83
     /tmp/ccaTqlnt.s:5669   .debug_str:0000000000000edc .LASF84
     /tmp/ccaTqlnt.s:5551   .debug_str:0000000000000aee .LASF85
     /tmp/ccaTqlnt.s:5499   .debug_str:0000000000000940 .LASF86
     /tmp/ccaTqlnt.s:5271   .debug_str:00000000000002ae .LASF87
     /tmp/ccaTqlnt.s:5187   .debug_str:000000000000000e .LASF88
     /tmp/ccaTqlnt.s:5331   .debug_str:0000000000000465 .LASF89
     /tmp/ccaTqlnt.s:5383   .debug_str:00000000000005ed .LASF90
     /tmp/ccaTqlnt.s:5231   .debug_str:0000000000000173 .LASF91
     /tmp/ccaTqlnt.s:5583   .debug_str:0000000000000bf3 .LASF149
     /tmp/ccaTqlnt.s:5245   .debug_str:00000000000001cc .LASF92
     /tmp/ccaTqlnt.s:5343   .debug_str:00000000000004c7 .LASF93
     /tmp/ccaTqlnt.s:5361   .debug_str:0000000000000551 .LASF98
     /tmp/ccaTqlnt.s:5407   .debug_str:000000000000067e .LASF100
     /tmp/ccaTqlnt.s:5607   .debug_str:0000000000000d46 .LASF94
     /tmp/ccaTqlnt.s:5685   .debug_str:0000000000000f3d .LASF95
     /tmp/ccaTqlnt.s:5465   .debug_str:000000000000085d .LASF260
     /tmp/ccaTqlnt.s:5709   .debug_str:0000000000001008 .LASF96
     /tmp/ccaTqlnt.s:5373   .debug_str:0000000000000593 .LASF97
     /tmp/ccaTqlnt.s:5397   .debug_str:0000000000000644 .LASF99
     /tmp/ccaTqlnt.s:5509   .debug_str:000000000000099f .LASF101
     /tmp/ccaTqlnt.s:5275   .debug_str:00000000000002c7 .LASF102
     /tmp/ccaTqlnt.s:5535   .debug_str:0000000000000a73 .LASF103
     /tmp/ccaTqlnt.s:5501   .debug_str:0000000000000948 .LASF104
     /tmp/ccaTqlnt.s:5413   .debug_str:00000000000006a1 .LASF105
     /tmp/ccaTqlnt.s:5329   .debug_str:000000000000045a .LASF106
     /tmp/ccaTqlnt.s:5555   .debug_str:0000000000000b01 .LASF107
     /tmp/ccaTqlnt.s:5191   .debug_str:000000000000001f .LASF108
     /tmp/ccaTqlnt.s:5593   .debug_str:0000000000000c24 .LASF109
     /tmp/ccaTqlnt.s:5637   .debug_str:0000000000000e1a .LASF110
     /tmp/ccaTqlnt.s:5461   .debug_str:0000000000000820 .LASF111
     /tmp/ccaTqlnt.s:5635   .debug_str:0000000000000e0f .LASF112
     /tmp/ccaTqlnt.s:5315   .debug_str:0000000000000408 .LASF113
     /tmp/ccaTqlnt.s:5719   .debug_str:000000000000103f .LASF114
     /tmp/ccaTqlnt.s:5309   .debug_str:00000000000003d8 .LASF115
     /tmp/ccaTqlnt.s:5277   .debug_str:00000000000002d4 .LASF116
     /tmp/ccaTqlnt.s:5253   .debug_str:0000000000000203 .LASF117
     /tmp/ccaTqlnt.s:5401   .debug_str:000000000000065d .LASF118
     /tmp/ccaTqlnt.s:5207   .debug_str:00000000000000ac .LASF119
     /tmp/ccaTqlnt.s:5717   .debug_str:0000000000001032 .LASF120
     /tmp/ccaTqlnt.s:5335   .debug_str:0000000000000485 .LASF121
     /tmp/ccaTqlnt.s:5193   .debug_str:000000000000002a .LASF122
     /tmp/ccaTqlnt.s:5455   .debug_str:00000000000007ea .LASF123
     /tmp/ccaTqlnt.s:5705   .debug_str:0000000000000fe3 .LASF261
     /tmp/ccaTqlnt.s:5623   .debug_str:0000000000000dca .LASF124
     /tmp/ccaTqlnt.s:5235   .debug_str:000000000000018d .LASF125
     /tmp/ccaTqlnt.s:5711   .debug_str:000000000000100e .LASF126
     /tmp/ccaTqlnt.s:5645   .debug_str:0000000000000e5a .LASF127
GAS LISTING /tmp/ccaTqlnt.s 			page 36


     /tmp/ccaTqlnt.s:5611   .debug_str:0000000000000d67 .LASF128
     /tmp/ccaTqlnt.s:5519   .debug_str:00000000000009ef .LASF129
     /tmp/ccaTqlnt.s:5471   .debug_str:0000000000000872 .LASF130
     /tmp/ccaTqlnt.s:5307   .debug_str:00000000000003cb .LASF131
     /tmp/ccaTqlnt.s:5537   .debug_str:0000000000000a8b .LASF132
     /tmp/ccaTqlnt.s:5663   .debug_str:0000000000000ec9 .LASF133
     /tmp/ccaTqlnt.s:5599   .debug_str:0000000000000c58 .LASF134
     /tmp/ccaTqlnt.s:5233   .debug_str:000000000000017c .LASF135
     /tmp/ccaTqlnt.s:5265   .debug_str:000000000000027a .LASF154
     /tmp/ccaTqlnt.s:5197   .debug_str:0000000000000052 .LASF155
     /tmp/ccaTqlnt.s:5327   .debug_str:0000000000000454 .LASF136
     /tmp/ccaTqlnt.s:5559   .debug_str:0000000000000b2d .LASF262
     /tmp/ccaTqlnt.s:5589   .debug_str:0000000000000c15 .LASF137
     /tmp/ccaTqlnt.s:5303   .debug_str:00000000000003b7 .LASF138
     /tmp/ccaTqlnt.s:5627   .debug_str:0000000000000de7 .LASF139
     /tmp/ccaTqlnt.s:5497   .debug_str:0000000000000920 .LASF140
     /tmp/ccaTqlnt.s:5283   .debug_str:00000000000002f9 .LASF141
     /tmp/ccaTqlnt.s:5293   .debug_str:0000000000000353 .LASF142
     /tmp/ccaTqlnt.s:5415   .debug_str:00000000000006b3 .LASF143
     /tmp/ccaTqlnt.s:5533   .debug_str:0000000000000a5b .LASF144
     /tmp/ccaTqlnt.s:5503   .debug_str:0000000000000950 .LASF145
     /tmp/ccaTqlnt.s:5469   .debug_str:000000000000086a .LASF146
     /tmp/ccaTqlnt.s:5205   .debug_str:0000000000000096 .LASF147
     /tmp/ccaTqlnt.s:5443   .debug_str:000000000000078c .LASF148
     /tmp/ccaTqlnt.s:5667   .debug_str:0000000000000ed7 .LASF150
     /tmp/ccaTqlnt.s:5381   .debug_str:00000000000005e8 .LASF151
     /tmp/ccaTqlnt.s:5295   .debug_str:0000000000000368 .LASF152
     /tmp/ccaTqlnt.s:5267   .debug_str:0000000000000288 .LASF153
     /tmp/ccaTqlnt.s:5259   .debug_str:0000000000000232 .LASF156
     /tmp/ccaTqlnt.s:5213   .debug_str:00000000000000d8 .LASF157
     /tmp/ccaTqlnt.s:5427   .debug_str:0000000000000725 .LASF158
     /tmp/ccaTqlnt.s:5211   .debug_str:00000000000000c3 .LASF159
     /tmp/ccaTqlnt.s:5333   .debug_str:000000000000046d .LASF160
     /tmp/ccaTqlnt.s:5529   .debug_str:0000000000000a39 .LASF235
     /tmp/ccaTqlnt.s:5619   .debug_str:0000000000000dac .LASF237
     /tmp/ccaTqlnt.s:5585   .debug_str:0000000000000bfb .LASF161
     /tmp/ccaTqlnt.s:5683   .debug_str:0000000000000f28 .LASF162
     /tmp/ccaTqlnt.s:5365   .debug_str:0000000000000561 .LASF163
     /tmp/ccaTqlnt.s:5301   .debug_str:000000000000039b .LASF164
     /tmp/ccaTqlnt.s:5673   .debug_str:0000000000000eef .LASF165
     /tmp/ccaTqlnt.s:5429   .debug_str:000000000000072a .LASF166
     /tmp/ccaTqlnt.s:5229   .debug_str:000000000000016a .LASF167
     /tmp/ccaTqlnt.s:5657   .debug_str:0000000000000e9f .LASF168
     /tmp/ccaTqlnt.s:5261   .debug_str:000000000000024d .LASF169
     /tmp/ccaTqlnt.s:5675   .debug_str:0000000000000ef7 .LASF170
     /tmp/ccaTqlnt.s:5405   .debug_str:0000000000000675 .LASF171
     /tmp/ccaTqlnt.s:5547   .debug_str:0000000000000ad8 .LASF172
     /tmp/ccaTqlnt.s:5451   .debug_str:00000000000007c0 .LASF173
     /tmp/ccaTqlnt.s:5479   .debug_str:00000000000008bf .LASF174
     /tmp/ccaTqlnt.s:5721   .debug_str:000000000000104d .LASF175
     /tmp/ccaTqlnt.s:5597   .debug_str:0000000000000c47 .LASF176
     /tmp/ccaTqlnt.s:5573   .debug_str:0000000000000bb7 .LASF177
     /tmp/ccaTqlnt.s:5375   .debug_str:00000000000005a5 .LASF178
     /tmp/ccaTqlnt.s:5649   .debug_str:0000000000000e6b .LASF179
     /tmp/ccaTqlnt.s:5701   .debug_str:0000000000000fb7 .LASF180
     /tmp/ccaTqlnt.s:5369   .debug_str:0000000000000573 .LASF181
     /tmp/ccaTqlnt.s:5475   .debug_str:000000000000088e .LASF182
GAS LISTING /tmp/ccaTqlnt.s 			page 37


     /tmp/ccaTqlnt.s:5347   .debug_str:00000000000004f3 .LASF183
     /tmp/ccaTqlnt.s:5517   .debug_str:00000000000009d2 .LASF184
     /tmp/ccaTqlnt.s:5223   .debug_str:0000000000000146 .LASF185
     /tmp/ccaTqlnt.s:5339   .debug_str:00000000000004a4 .LASF186
     /tmp/ccaTqlnt.s:5321   .debug_str:000000000000042b .LASF187
     /tmp/ccaTqlnt.s:5587   .debug_str:0000000000000c08 .LASF188
     /tmp/ccaTqlnt.s:5189   .debug_str:0000000000000016 .LASF263
     /tmp/ccaTqlnt.s:5647   .debug_str:0000000000000e5f .LASF189
     /tmp/ccaTqlnt.s:5281   .debug_str:00000000000002ec .LASF190
     /tmp/ccaTqlnt.s:5359   .debug_str:0000000000000547 .LASF191
     /tmp/ccaTqlnt.s:5491   .debug_str:0000000000000900 .LASF192
     /tmp/ccaTqlnt.s:5389   .debug_str:000000000000060e .LASF193
     /tmp/ccaTqlnt.s:5651   .debug_str:0000000000000e7d .LASF194
     /tmp/ccaTqlnt.s:5549   .debug_str:0000000000000ade .LASF195
     /tmp/ccaTqlnt.s:5185   .debug_str:0000000000000000 .LASF196
     /tmp/ccaTqlnt.s:5393   .debug_str:0000000000000622 .LASF197
     /tmp/ccaTqlnt.s:5237   .debug_str:000000000000019c .LASF264
     /tmp/ccaTqlnt.s:5337   .debug_str:0000000000000491 .LASF200
     /tmp/ccaTqlnt.s:5289   .debug_str:000000000000032b .LASF201
     /tmp/ccaTqlnt.s:5209   .debug_str:00000000000000be .LASF198
     /tmp/ccaTqlnt.s:5633   .debug_str:0000000000000e03 .LASF265
     /tmp/ccaTqlnt.s:5251   .debug_str:00000000000001f4 .LASF203
     /tmp/ccaTqlnt.s:5449   .debug_str:00000000000007b0 .LASF199
     /tmp/ccaTqlnt.s:5195   .debug_str:000000000000003a .LASF266
     /tmp/ccaTqlnt.s:5217   .debug_str:00000000000000f7 .LASF202
     /tmp/ccaTqlnt.s:5575   .debug_str:0000000000000bc4 .LASF205
     /tmp/ccaTqlnt.s:5591   .debug_str:0000000000000c1a .LASF207
     /tmp/ccaTqlnt.s:5345   .debug_str:00000000000004ec .LASF204
     /tmp/ccaTqlnt.s:5395   .debug_str:0000000000000631 .LASF206
     /tmp/ccaTqlnt.s:5317   .debug_str:0000000000000420 .LASF208
     /tmp/ccaTqlnt.s:5199   .debug_str:000000000000007a .LASF209
     /tmp/ccaTqlnt.s:5399   .debug_str:0000000000000651 .LASF210
     /tmp/ccaTqlnt.s:701    .text._ZN3perD0Ev:0000000000000000 .LFB68
     /tmp/ccaTqlnt.s:745    .text._ZN3perD0Ev:0000000000000050 .LFE68
     /tmp/ccaTqlnt.s:4927   .debug_loc:0000000000000000 .LLST8
     /tmp/ccaTqlnt.s:717    .text._ZN3perD0Ev:0000000000000018 .LBB18
     /tmp/ccaTqlnt.s:728    .text._ZN3perD0Ev:0000000000000030 .LBE18
     /tmp/ccaTqlnt.s:4945   .debug_loc:000000000000004c .LLST9
     /tmp/ccaTqlnt.s:718    .text._ZN3perD0Ev:0000000000000018 .LBB19
     /tmp/ccaTqlnt.s:727    .text._ZN3perD0Ev:0000000000000030 .LBE19
     /tmp/ccaTqlnt.s:725    .text._ZN3perD0Ev:0000000000000030 .LVL60
     /tmp/ccaTqlnt.s:732    .text._ZN3perD0Ev:000000000000003c .LVL61
     /tmp/ccaTqlnt.s:5447   .debug_str:00000000000007a4 .LASF211
     /tmp/ccaTqlnt.s:658    .text._ZN3perD2Ev:0000000000000000 .LFB66
     /tmp/ccaTqlnt.s:692    .text._ZN3perD2Ev:0000000000000038 .LFE66
     /tmp/ccaTqlnt.s:4956   .debug_loc:0000000000000082 .LLST6
     /tmp/ccaTqlnt.s:671    .text._ZN3perD2Ev:0000000000000010 .LBB16
     /tmp/ccaTqlnt.s:681    .text._ZN3perD2Ev:0000000000000028 .LBE16
     /tmp/ccaTqlnt.s:4970   .debug_loc:00000000000000bb .LLST7
     /tmp/ccaTqlnt.s:679    .text._ZN3perD2Ev:0000000000000028 .LVL57
     /tmp/ccaTqlnt.s:5615   .debug_str:0000000000000d9c .LASF212
     /tmp/ccaTqlnt.s:477    .text:000000000000025c .LFB64
     /tmp/ccaTqlnt.s:639    .text:00000000000003f8 .LFE64
     /tmp/ccaTqlnt.s:5291   .debug_str:0000000000000349 .LASF213
     /tmp/ccaTqlnt.s:5577   .debug_str:0000000000000be4 .LASF214
     /tmp/ccaTqlnt.s:5579   .debug_str:0000000000000be9 .LASF215
     /tmp/ccaTqlnt.s:5581   .debug_str:0000000000000bee .LASF216
GAS LISTING /tmp/ccaTqlnt.s 			page 38


     /tmp/ccaTqlnt.s:5313   .debug_str:0000000000000400 .LASF217
     /tmp/ccaTqlnt.s:5605   .debug_str:0000000000000d31 .LASF218
     /tmp/ccaTqlnt.s:499    .text:0000000000000280 .LVL39
     /tmp/ccaTqlnt.s:503    .text:0000000000000288 .LVL40
     /tmp/ccaTqlnt.s:529    .text:00000000000002bc .LVL41
     /tmp/ccaTqlnt.s:535    .text:00000000000002cc .LVL42
     /tmp/ccaTqlnt.s:543    .text:00000000000002e8 .LVL43
     /tmp/ccaTqlnt.s:551    .text:0000000000000304 .LVL44
     /tmp/ccaTqlnt.s:559    .text:0000000000000320 .LVL45
     /tmp/ccaTqlnt.s:567    .text:000000000000033c .LVL46
     /tmp/ccaTqlnt.s:575    .text:0000000000000358 .LVL47
     /tmp/ccaTqlnt.s:580    .text:0000000000000364 .LVL48
     /tmp/ccaTqlnt.s:586    .text:0000000000000374 .LVL49
     /tmp/ccaTqlnt.s:592    .text:0000000000000384 .LVL50
     /tmp/ccaTqlnt.s:598    .text:0000000000000394 .LVL51
     /tmp/ccaTqlnt.s:603    .text:00000000000003a4 .LVL52
     /tmp/ccaTqlnt.s:608    .text:00000000000003b4 .LVL53
     /tmp/ccaTqlnt.s:624    .text:00000000000003e0 .LVL54
     /tmp/ccaTqlnt.s:5713   .debug_str:0000000000001014 .LASF219
     /tmp/ccaTqlnt.s:5595   .debug_str:0000000000000c3c .LASF220
     /tmp/ccaTqlnt.s:397    .text:00000000000001d4 .LFB63
     /tmp/ccaTqlnt.s:463    .text:000000000000025c .LFE63
     /tmp/ccaTqlnt.s:5621   .debug_str:0000000000000dc4 .LASF221
     /tmp/ccaTqlnt.s:4984   .debug_loc:00000000000000f4 .LLST5
     /tmp/ccaTqlnt.s:415    .text:00000000000001f0 .LVL31
     /tmp/ccaTqlnt.s:425    .text:0000000000000208 .LVL34
     /tmp/ccaTqlnt.s:435    .text:0000000000000224 .LVL35
     /tmp/ccaTqlnt.s:449    .text:0000000000000248 .LVL36
     /tmp/ccaTqlnt.s:5629   .debug_str:0000000000000df8 .LASF222
     /tmp/ccaTqlnt.s:5681   .debug_str:0000000000000f1d .LASF223
     /tmp/ccaTqlnt.s:366    .text:00000000000001d4 .LFE62
     /tmp/ccaTqlnt.s:5631   .debug_str:0000000000000dfe .LASF239
     /tmp/ccaTqlnt.s:5006   .debug_loc:0000000000000153 .LLST3
     /tmp/ccaTqlnt.s:5028   .debug_loc:00000000000001b2 .LLST4
     /tmp/ccaTqlnt.s:300    .text:0000000000000144 .LVL19
     /tmp/ccaTqlnt.s:308    .text:000000000000015c .LVL20
     /tmp/ccaTqlnt.s:319    .text:0000000000000170 .LVL22
     /tmp/ccaTqlnt.s:324    .text:000000000000017c .LVL23
     /tmp/ccaTqlnt.s:329    .text:0000000000000188 .LVL24
     /tmp/ccaTqlnt.s:334    .text:0000000000000198 .LVL25
     /tmp/ccaTqlnt.s:343    .text:00000000000001ac .LVL27
     /tmp/ccaTqlnt.s:347    .text:00000000000001bc .LVL28
     /tmp/ccaTqlnt.s:232    .text._ZN3per18periodicActivationEv:0000000000000000 .LFB61
     /tmp/ccaTqlnt.s:264    .text._ZN3per18periodicActivationEv:0000000000000038 .LFE61
     /tmp/ccaTqlnt.s:5050   .debug_loc:0000000000000211 .LLST2
     /tmp/ccaTqlnt.s:250    .text._ZN3per18periodicActivationEv:0000000000000024 .LVL14
     /tmp/ccaTqlnt.s:5225   .debug_str:000000000000015a .LASF267
     /tmp/ccaTqlnt.s:5255   .debug_str:0000000000000216 .LASF224
     /tmp/ccaTqlnt.s:181    .text._ZN3perC2Em:0000000000000000 .LFB59
     /tmp/ccaTqlnt.s:219    .text._ZN3perC2Em:0000000000000050 .LFE59
     /tmp/ccaTqlnt.s:5072   .debug_loc:0000000000000270 .LLST0
     /tmp/ccaTqlnt.s:5094   .debug_loc:00000000000002cf .LLST1
     /tmp/ccaTqlnt.s:201    .text._ZN3perC2Em:000000000000002c .LVL9
     /tmp/ccaTqlnt.s:5723   .debug_str:0000000000001062 .LASF225
     /tmp/ccaTqlnt.s:5521   .debug_str:00000000000009ff .LASF226
     /tmp/ccaTqlnt.s:5553   .debug_str:0000000000000afb .LASF227
     /tmp/ccaTqlnt.s:5655   .debug_str:0000000000000e94 .LASF228
GAS LISTING /tmp/ccaTqlnt.s 			page 39


     /tmp/ccaTqlnt.s:145    .text:00000000000000e8 .LFB53
     /tmp/ccaTqlnt.s:174    .text:000000000000011c .LFE53
     /tmp/ccaTqlnt.s:159    .text:00000000000000fc .LBB14
     /tmp/ccaTqlnt.s:169    .text:0000000000000118 .LBE14
     /tmp/ccaTqlnt.s:5695   .debug_str:0000000000000f8e .LASF229
     /tmp/ccaTqlnt.s:168    .text:0000000000000118 .LVL7
     /tmp/ccaTqlnt.s:5441   .debug_str:000000000000077e .LASF230
     /tmp/ccaTqlnt.s:5489   .debug_str:00000000000008ec .LASF231
     /tmp/ccaTqlnt.s:120    .text:00000000000000c8 .LFB52
     /tmp/ccaTqlnt.s:139    .text:00000000000000e8 .LFE52
     /tmp/ccaTqlnt.s:5423   .debug_str:00000000000006ee .LASF232
     /tmp/ccaTqlnt.s:5403   .debug_str:0000000000000665 .LASF233
     /tmp/ccaTqlnt.s:15     .text:0000000000000000 .LFB50
     /tmp/ccaTqlnt.s:114    .text:00000000000000c8 .LFE50
     /tmp/ccaTqlnt.s:5247   .debug_str:00000000000001d6 .LASF234
     /tmp/ccaTqlnt.s:35     .text:0000000000000020 .LVL0
     /tmp/ccaTqlnt.s:57     .text:0000000000000054 .LVL1
     /tmp/ccaTqlnt.s:65     .text:0000000000000064 .LVL2
     /tmp/ccaTqlnt.s:71     .text:0000000000000070 .LVL3
     /tmp/ccaTqlnt.s:86     .text:0000000000000090 .LVL4
     /tmp/ccaTqlnt.s:92     .text:000000000000009c .LVL5
     /tmp/ccaTqlnt.s:102    .text:00000000000000b4 .LVL6
     /tmp/ccaTqlnt.s:5353   .debug_str:0000000000000528 .LASF236
     /tmp/ccaTqlnt.s:5481   .debug_str:00000000000008c5 .LASF238
     /tmp/ccaTqlnt.s:847    .text:00000000000003f8 .LFB49
     /tmp/ccaTqlnt.s:908    .text:0000000000000454 .LFE49
     /tmp/ccaTqlnt.s:5227   .debug_str:0000000000000161 .LASF240
     /tmp/ccaTqlnt.s:5111   .debug_loc:000000000000031a .LLST11
     /tmp/ccaTqlnt.s:870    .text:0000000000000420 .LBB22
     /tmp/ccaTqlnt.s:893    .text:0000000000000440 .LBE22
     /tmp/ccaTqlnt.s:5129   .debug_loc:0000000000000366 .LLST12
     /tmp/ccaTqlnt.s:866    .text:000000000000041c .LVL67
     /tmp/ccaTqlnt.s:817    .text._ZN3TCB10setRunningEPS_:0000000000000000 .LFB41
     /tmp/ccaTqlnt.s:840    .text._ZN3TCB10setRunningEPS_:0000000000000024 .LFE41
     /tmp/ccaTqlnt.s:5437   .debug_str:000000000000076c .LASF241
     /tmp/ccaTqlnt.s:785    .text._ZN5Riscv10mc_sstatusEm:0000000000000000 .LFB14
     /tmp/ccaTqlnt.s:810    .text._ZN5Riscv10mc_sstatusEm:000000000000001c .LFE14
     /tmp/ccaTqlnt.s:5659   .debug_str:0000000000000ebb .LASF242
     /tmp/ccaTqlnt.s:752    .text._ZN5Riscv10ms_sstatusEm:0000000000000000 .LFB13
     /tmp/ccaTqlnt.s:778    .text._ZN5Riscv10ms_sstatusEm:000000000000001c .LFE13
     /tmp/ccaTqlnt.s:5665   .debug_str:0000000000000ed0 .LASF243
     /tmp/ccaTqlnt.s:5565   .debug_str:0000000000000b4c .LASF244
     /tmp/ccaTqlnt.s:5689   .debug_str:0000000000000f73 .LASF245
     /tmp/ccaTqlnt.s:5453   .debug_str:00000000000007d5 .LASF246
     /tmp/ccaTqlnt.s:5445   .debug_str:0000000000000798 .LASF247
     /tmp/ccaTqlnt.s:5561   .debug_str:0000000000000b32 .LASF248
     /tmp/ccaTqlnt.s:5699   .debug_str:0000000000000fab .LASF249
     /tmp/ccaTqlnt.s:5661   .debug_str:0000000000000ec0 .LASF250
     /tmp/ccaTqlnt.s:5693   .debug_str:0000000000000f89 .LASF251
     /tmp/ccaTqlnt.s:5571   .debug_str:0000000000000bae .LASF252
     /tmp/ccaTqlnt.s:5417   .debug_str:00000000000006bf .LASF253
     /tmp/ccaTqlnt.s:5643   .debug_str:0000000000000e54 .LASF254
     /tmp/ccaTqlnt.s:5485   .debug_str:00000000000008d5 .LASF255
     /tmp/ccaTqlnt.s:5323   .debug_str:0000000000000439 .LASF256
     /tmp/ccaTqlnt.s:5707   .debug_str:0000000000000ff9 .LASF268
     /tmp/ccaTqlnt.s:5219   .debug_str:0000000000000121 .LASF269
     /tmp/ccaTqlnt.s:704    .text._ZN3perD0Ev:0000000000000000 .LVL58
GAS LISTING /tmp/ccaTqlnt.s 			page 40


     /tmp/ccaTqlnt.s:740    .text._ZN3perD0Ev:0000000000000048 .LVL62
     /tmp/ccaTqlnt.s:716    .text._ZN3perD0Ev:0000000000000018 .LVL59
     /tmp/ccaTqlnt.s:661    .text._ZN3perD2Ev:0000000000000000 .LVL55
     /tmp/ccaTqlnt.s:670    .text._ZN3perD2Ev:0000000000000010 .LVL56
     /tmp/ccaTqlnt.s:418    .text:00000000000001f8 .LVL32
     /tmp/ccaTqlnt.s:422    .text:00000000000001fc .LVL33
     /tmp/ccaTqlnt.s:457    .text:0000000000000254 .LVL37
     /tmp/ccaTqlnt.s:460    .text:0000000000000258 .LVL38
     /tmp/ccaTqlnt.s:280    .text:000000000000011c .LVL17
     /tmp/ccaTqlnt.s:297    .text:000000000000013c .LVL18
     /tmp/ccaTqlnt.s:356    .text:00000000000001c4 .LVL29
     /tmp/ccaTqlnt.s:363    .text:00000000000001d0 .LVL30
     /tmp/ccaTqlnt.s:312    .text:0000000000000160 .LVL21
     /tmp/ccaTqlnt.s:337    .text:000000000000019c .LVL26
     /tmp/ccaTqlnt.s:235    .text._ZN3per18periodicActivationEv:0000000000000000 .LVL12
     /tmp/ccaTqlnt.s:248    .text._ZN3per18periodicActivationEv:000000000000001c .LVL13
     /tmp/ccaTqlnt.s:258    .text._ZN3per18periodicActivationEv:0000000000000030 .LVL15
     /tmp/ccaTqlnt.s:261    .text._ZN3per18periodicActivationEv:0000000000000034 .LVL16
     /tmp/ccaTqlnt.s:184    .text._ZN3perC2Em:0000000000000000 .LVL8
     /tmp/ccaTqlnt.s:213    .text._ZN3perC2Em:0000000000000048 .LVL10
     /tmp/ccaTqlnt.s:216    .text._ZN3perC2Em:000000000000004c .LVL11
     /tmp/ccaTqlnt.s:850    .text:00000000000003f8 .LVL66
     /tmp/ccaTqlnt.s:903    .text:000000000000044c .LVL71
     /tmp/ccaTqlnt.s:874    .text:0000000000000428 .LVL68
     /tmp/ccaTqlnt.s:891    .text:0000000000000440 .LVL70
     /tmp/ccaTqlnt.s:919    .debug_info:0000000000000000 .Ldebug_info0
     /tmp/ccaTqlnt.s:5      .text:0000000000000000 .Ltext0
     /tmp/ccaTqlnt.s:910    .text:0000000000000454 .Letext0
     /tmp/ccaTqlnt.s:369    .gcc_except_table:0000000000000000 .LLSDA62
                           .group:0000000000000000 _ZN3perC5Em
                           .group:0000000000000000 _ZN3perD5Ev

UNDEFINED SYMBOLS
_Z11printStringPKc
_ZN15MemoryAllocator5kfreeEPv
_Z13thread_createPP3TCBPFvPvES2_
_ZN14PeriodicThreadC2Em
_Znwm
_ZN6Thread5startEv
_Z10time_sleepm
_ZN14PeriodicThread9terminateEv
_ZdlPv
_Unwind_Resume
__gxx_personality_v0
_Z4getcv
_Z4putcc
interruptHandler
_ZN7KMemory16initializeMemoryEv
_ZN8KConsole12initKConsoleEv
_Z4idlePv
_Z22kernelConsumerFunctionPv
_Z11thread_joinP3TCB
_ZN8KConsole10outputHeadE
_ZN8KConsole10outputTailE
_ZN14PeriodicThread3runEv
_ZTV14PeriodicThread
_ZN6ThreadD2Ev
GAS LISTING /tmp/ccaTqlnt.s 			page 41


_ZN3TCB7runningE
_ZN15MemoryAllocator7kmallocEmNS_7PurposeE
