GAS LISTING /tmp/ccqKmgVT.s 			page 1


   1              		.file	"testFunctions.cpp"
   2              		.option pic
   3              		.option norelax
   4              		.text
   5              	.Ltext0:
   6              		.align	2
   7              		.globl	_Z10testMemoryv
   9              	_Z10testMemoryv:
  10              	.LFB3:
  11              		.file 1 "src/testFunctions.cpp"
   1:src/testFunctions.cpp **** //
   2:src/testFunctions.cpp **** // Created by os on 5/29/23.
   3:src/testFunctions.cpp **** //
   4:src/testFunctions.cpp **** #include "../h/MemoryAllocator.hpp"
   5:src/testFunctions.cpp **** #include "../h/helper.hpp"
   6:src/testFunctions.cpp **** 
   7:src/testFunctions.cpp **** void testMemory() {
  12              		.loc 1 7 19
  13              		.cfi_startproc
  14 0000 13010181 		addi	sp,sp,-2032
  15              		.cfi_def_cfa_offset 2032
  16 0004 2334117E 		sd	ra,2024(sp)
  17 0008 2330817E 		sd	s0,2016(sp)
  18 000c 233C917C 		sd	s1,2008(sp)
  19              		.cfi_offset 1, -8
  20              		.cfi_offset 8, -16
  21              		.cfi_offset 9, -24
  22 0010 1304017F 		addi	s0,sp,2032
  23              		.cfi_def_cfa 8, 0
  24 0014 13010183 		addi	sp,sp,-2000
   8:src/testFunctions.cpp **** 	const uint64 NumAllocations = 500;    //zasto nece za preko 500????
  25              		.loc 1 8 2
  26              	.LVL0:
   9:src/testFunctions.cpp **** 	const uint64 AllocationSize = 16;
  27              		.loc 1 9 2
  10:src/testFunctions.cpp **** 
  11:src/testFunctions.cpp **** 	// Allocate and initialize pointers
  12:src/testFunctions.cpp **** 	int* allocations[NumAllocations];
  28              		.loc 1 12 2
  13:src/testFunctions.cpp **** 	for (uint64 i = 0; i < NumAllocations; ++i)
  29              		.loc 1 13 2
  30              	.LBB2:
  31              		.loc 1 13 14 is_stmt 0
  32 0018 13070000 		li	a4,0
  33              	.LVL1:
  34              	.L3:
  35              		.loc 1 13 23 is_stmt 1 discriminator 3
  36 001c 9307301F 		li	a5,499
  37 0020 63E2E702 		bgtu	a4,a5,.L8
  14:src/testFunctions.cpp **** 		allocations[i] = nullptr;
  38              		.loc 1 14 3 discriminator 2
  39              		.loc 1 14 18 is_stmt 0 discriminator 2
  40 0024 B7F7FFFF 		li	a5,-4096
  41 0028 93163700 		slli	a3,a4,3
  42 002c 130604FE 		addi	a2,s0,-32
  43 0030 B307F600 		add	a5,a2,a5
  44 0034 B387D700 		add	a5,a5,a3
GAS LISTING /tmp/ccqKmgVT.s 			page 2


  45 0038 23B00706 		sd	zero,96(a5)
  13:src/testFunctions.cpp **** 	for (uint64 i = 0; i < NumAllocations; ++i)
  46              		.loc 1 13 2 is_stmt 1 discriminator 2
  47 003c 13071700 		addi	a4,a4,1
  48              	.LVL2:
  49 0040 6FF0DFFD 		j	.L3
  50              	.L8:
  51              	.LBE2:
  52              	.LBB3:
  15:src/testFunctions.cpp **** 
  16:src/testFunctions.cpp **** 	// Allocate memory
  17:src/testFunctions.cpp **** 	for (uint64 i = 0; i < NumAllocations; ++i) {
  53              		.loc 1 17 14 is_stmt 0
  54 0044 93040000 		li	s1,0
  55              	.LVL3:
  56              	.L2:
  57              		.loc 1 17 23 is_stmt 1 discriminator 1
  58 0048 9307301F 		li	a5,499
  59 004c 63EA9702 		bgtu	s1,a5,.L4
  18:src/testFunctions.cpp **** 		allocations[i] = static_cast<int*>(MemoryAllocator::kmalloc(AllocationSize));
  60              		.loc 1 18 3
  61              		.loc 1 18 62 is_stmt 0
  62 0050 13050001 		li	a0,16
  63 0054 97000000 		call	_ZN15MemoryAllocator7kmallocEm@plt
  63      E7800000 
  64              	.LVL4:
  65              		.loc 1 18 18
  66 005c 37F7FFFF 		li	a4,-4096
  67 0060 93973400 		slli	a5,s1,3
  68 0064 930604FE 		addi	a3,s0,-32
  69 0068 3387E600 		add	a4,a3,a4
  70 006c B307F700 		add	a5,a4,a5
  71 0070 23B0A706 		sd	a0,96(a5)
  19:src/testFunctions.cpp **** 		if (allocations[i] == nullptr) {
  72              		.loc 1 19 3 is_stmt 1
  73 0074 63060500 		beqz	a0,.L4
  17:src/testFunctions.cpp **** 		allocations[i] = static_cast<int*>(MemoryAllocator::kmalloc(AllocationSize));
  74              		.loc 1 17 2 discriminator 2
  75 0078 93841400 		addi	s1,s1,1
  76              	.LVL5:
  77 007c 6FF0DFFC 		j	.L2
  78              	.L4:
  17:src/testFunctions.cpp **** 		allocations[i] = static_cast<int*>(MemoryAllocator::kmalloc(AllocationSize));
  79              		.loc 1 17 14 is_stmt 0 discriminator 1
  80 0080 93040000 		li	s1,0
  81              	.LVL6:
  82 0084 6F000001 		j	.L7
  83              	.LVL7:
  84              	.L10:
  85              	.LBE3:
  86              	.LBB4:
  20:src/testFunctions.cpp **** //			printString("\nAllocation failed for index ");
  21:src/testFunctions.cpp **** //			printInteger(i);
  22:src/testFunctions.cpp **** 			break;
  23:src/testFunctions.cpp **** 		}
  24:src/testFunctions.cpp **** 	}
  25:src/testFunctions.cpp **** 
GAS LISTING /tmp/ccqKmgVT.s 			page 3


  26:src/testFunctions.cpp **** 	// Free memory
  27:src/testFunctions.cpp **** 	for (uint64 i = 0; i < NumAllocations; ++i) {
  28:src/testFunctions.cpp **** 		if (allocations[i] != nullptr) {
  29:src/testFunctions.cpp **** 			if (MemoryAllocator::kfree(allocations[i]) != 0) {
  87              		.loc 1 29 4 is_stmt 1
  88              		.loc 1 29 30 is_stmt 0
  89 0088 97000000 		call	_ZN15MemoryAllocator5kfreeEPv@plt
  89      E7800000 
  90              	.LVL8:
  91              	.L6:
  27:src/testFunctions.cpp **** 		if (allocations[i] != nullptr) {
  92              		.loc 1 27 2 is_stmt 1 discriminator 2
  93 0090 93841400 		addi	s1,s1,1
  94              	.LVL9:
  95              	.L7:
  27:src/testFunctions.cpp **** 		if (allocations[i] != nullptr) {
  96              		.loc 1 27 23 discriminator 1
  97 0094 9307301F 		li	a5,499
  98 0098 63E29702 		bgtu	s1,a5,.L1
  28:src/testFunctions.cpp **** 			if (MemoryAllocator::kfree(allocations[i]) != 0) {
  99              		.loc 1 28 3
  28:src/testFunctions.cpp **** 			if (MemoryAllocator::kfree(allocations[i]) != 0) {
 100              		.loc 1 28 20 is_stmt 0
 101 009c 37F7FFFF 		li	a4,-4096
 102 00a0 93973400 		slli	a5,s1,3
 103 00a4 930604FE 		addi	a3,s0,-32
 104 00a8 3387E600 		add	a4,a3,a4
 105 00ac B307F700 		add	a5,a4,a5
 106 00b0 03B50706 		ld	a0,96(a5)
  28:src/testFunctions.cpp **** 			if (MemoryAllocator::kfree(allocations[i]) != 0) {
 107              		.loc 1 28 3
 108 00b4 E31A05FC 		bnez	a0,.L10
 109 00b8 6FF09FFD 		j	.L6
 110              	.L1:
 111              	.LBE4:
  30:src/testFunctions.cpp **** //				printString("\nDeallocation failed for index ");
  31:src/testFunctions.cpp **** //				printInteger(i);
  32:src/testFunctions.cpp **** 			}
  33:src/testFunctions.cpp **** 		}
  34:src/testFunctions.cpp **** 	}
  35:src/testFunctions.cpp **** }...
 112              		.loc 1 35 1
 113 00bc 1301017D 		addi	sp,sp,2000
 114              		.cfi_def_cfa 2, 2032
 115 00c0 8330817E 		ld	ra,2024(sp)
 116              		.cfi_restore 1
 117 00c4 0334017E 		ld	s0,2016(sp)
 118              		.cfi_restore 8
 119 00c8 8334817D 		ld	s1,2008(sp)
 120              		.cfi_restore 9
 121              	.LVL10:
 122 00cc 1301017F 		addi	sp,sp,2032
 123              		.cfi_def_cfa_offset 0
 124 00d0 67800000 		jr	ra
 125              		.cfi_endproc
 126              	.LFE3:
 128              	.Letext0:
GAS LISTING /tmp/ccqKmgVT.s 			page 4


 129              		.file 2 "src/../h/../lib/hw.h"
 130              		.file 3 "src/../h/MemoryAllocator.hpp"
GAS LISTING /tmp/ccqKmgVT.s 			page 5


DEFINED SYMBOLS
                            *ABS*:0000000000000000 testFunctions.cpp
     /tmp/ccqKmgVT.s:9      .text:0000000000000000 _Z10testMemoryv
     /tmp/ccqKmgVT.s:13     .text:0000000000000000 .L0 
     /tmp/ccqKmgVT.s:14     .text:0000000000000000 .L0 
     /tmp/ccqKmgVT.s:15     .text:0000000000000004 .L0 
     /tmp/ccqKmgVT.s:19     .text:0000000000000010 .L0 
     /tmp/ccqKmgVT.s:20     .text:0000000000000010 .L0 
     /tmp/ccqKmgVT.s:21     .text:0000000000000010 .L0 
     /tmp/ccqKmgVT.s:23     .text:0000000000000014 .L0 
     /tmp/ccqKmgVT.s:27     .text:0000000000000018 .L0 
     /tmp/ccqKmgVT.s:28     .text:0000000000000018 .L0 
     /tmp/ccqKmgVT.s:29     .text:0000000000000018 .L0 
     /tmp/ccqKmgVT.s:31     .text:0000000000000018 .L0 
     /tmp/ccqKmgVT.s:32     .text:0000000000000018 .L0 
     /tmp/ccqKmgVT.s:36     .text:000000000000001c .L0 
     /tmp/ccqKmgVT.s:39     .text:0000000000000024 .L0 
     /tmp/ccqKmgVT.s:40     .text:0000000000000024 .L0 
     /tmp/ccqKmgVT.s:47     .text:000000000000003c .L0 
     /tmp/ccqKmgVT.s:54     .text:0000000000000044 .L0 
     /tmp/ccqKmgVT.s:58     .text:0000000000000048 .L0 
     /tmp/ccqKmgVT.s:61     .text:0000000000000050 .L0 
     /tmp/ccqKmgVT.s:62     .text:0000000000000050 .L0 
     /tmp/ccqKmgVT.s:66     .text:000000000000005c .L0 
     /tmp/ccqKmgVT.s:73     .text:0000000000000074 .L0 
     /tmp/ccqKmgVT.s:75     .text:0000000000000078 .L0 
     /tmp/ccqKmgVT.s:80     .text:0000000000000080 .L0 
     /tmp/ccqKmgVT.s:88     .text:0000000000000088 .L0 
     /tmp/ccqKmgVT.s:89     .text:0000000000000088 .L0 
     /tmp/ccqKmgVT.s:93     .text:0000000000000090 .L0 
     /tmp/ccqKmgVT.s:97     .text:0000000000000094 .L0 
     /tmp/ccqKmgVT.s:100    .text:000000000000009c .L0 
     /tmp/ccqKmgVT.s:101    .text:000000000000009c .L0 
     /tmp/ccqKmgVT.s:108    .text:00000000000000b4 .L0 
     /tmp/ccqKmgVT.s:113    .text:00000000000000bc .L0 
     /tmp/ccqKmgVT.s:114    .text:00000000000000c0 .L0 
     /tmp/ccqKmgVT.s:116    .text:00000000000000c4 .L0 
     /tmp/ccqKmgVT.s:118    .text:00000000000000c8 .L0 
     /tmp/ccqKmgVT.s:120    .text:00000000000000cc .L0 
     /tmp/ccqKmgVT.s:123    .text:00000000000000d0 .L0 
     /tmp/ccqKmgVT.s:125    .text:00000000000000d4 .L0 
     /tmp/ccqKmgVT.s:131    .text:00000000000000d4 .L0 
     /tmp/ccqKmgVT.s:50     .text:0000000000000044 .L8
     /tmp/ccqKmgVT.s:34     .text:000000000000001c .L3
     /tmp/ccqKmgVT.s:78     .text:0000000000000080 .L4
     /tmp/ccqKmgVT.s:56     .text:0000000000000048 .L2
     /tmp/ccqKmgVT.s:95     .text:0000000000000094 .L7
     /tmp/ccqKmgVT.s:110    .text:00000000000000bc .L1
     /tmp/ccqKmgVT.s:84     .text:0000000000000088 .L10
     /tmp/ccqKmgVT.s:91     .text:0000000000000090 .L6
     /tmp/ccqKmgVT.s:490    .debug_abbrev:0000000000000000 .Ldebug_abbrev0
     /tmp/ccqKmgVT.s:997    .debug_str:000000000000012a .LASF33
     /tmp/ccqKmgVT.s:971    .debug_str:0000000000000055 .LASF34
     /tmp/ccqKmgVT.s:1023   .debug_str:00000000000002b9 .LASF35
     /tmp/ccqKmgVT.s:5      .text:0000000000000000 .Ltext0
     /tmp/ccqKmgVT.s:128    .text:00000000000000d4 .Letext0
     /tmp/ccqKmgVT.s:953    .debug_line:0000000000000000 .Ldebug_line0
GAS LISTING /tmp/ccqKmgVT.s 			page 6


     /tmp/ccqKmgVT.s:1003   .debug_str:0000000000000216 .LASF0
     /tmp/ccqKmgVT.s:989    .debug_str:00000000000000e5 .LASF1
     /tmp/ccqKmgVT.s:983    .debug_str:00000000000000b9 .LASF2
     /tmp/ccqKmgVT.s:967    .debug_str:0000000000000049 .LASF4
     /tmp/ccqKmgVT.s:987    .debug_str:00000000000000d3 .LASF3
     /tmp/ccqKmgVT.s:959    .debug_str:0000000000000023 .LASF5
     /tmp/ccqKmgVT.s:955    .debug_str:0000000000000000 .LASF6
     /tmp/ccqKmgVT.s:977    .debug_str:0000000000000087 .LASF7
     /tmp/ccqKmgVT.s:1013   .debug_str:0000000000000269 .LASF8
     /tmp/ccqKmgVT.s:965    .debug_str:000000000000003b .LASF9
     /tmp/ccqKmgVT.s:1037   .debug_str:000000000000033f .LASF10
     /tmp/ccqKmgVT.s:981    .debug_str:00000000000000aa .LASF11
     /tmp/ccqKmgVT.s:1029   .debug_str:0000000000000316 .LASF12
     /tmp/ccqKmgVT.s:1017   .debug_str:000000000000028f .LASF13
     /tmp/ccqKmgVT.s:991    .debug_str:00000000000000f8 .LASF14
     /tmp/ccqKmgVT.s:973    .debug_str:000000000000006b .LASF15
     /tmp/ccqKmgVT.s:1015   .debug_str:0000000000000279 .LASF16
     /tmp/ccqKmgVT.s:957    .debug_str:0000000000000013 .LASF36
     /tmp/ccqKmgVT.s:1021   .debug_str:00000000000002aa .LASF20
     /tmp/ccqKmgVT.s:961    .debug_str:000000000000002a .LASF17
     /tmp/ccqKmgVT.s:1035   .debug_str:000000000000033a .LASF18
     /tmp/ccqKmgVT.s:1031   .debug_str:0000000000000326 .LASF19
     /tmp/ccqKmgVT.s:1001   .debug_str:0000000000000207 .LASF21
     /tmp/ccqKmgVT.s:993    .debug_str:0000000000000104 .LASF22
     /tmp/ccqKmgVT.s:1007   .debug_str:000000000000022f .LASF24
     /tmp/ccqKmgVT.s:975    .debug_str:0000000000000081 .LASF23
     /tmp/ccqKmgVT.s:995    .debug_str:000000000000010c .LASF25
     /tmp/ccqKmgVT.s:999    .debug_str:00000000000001ee .LASF37
     /tmp/ccqKmgVT.s:1005   .debug_str:0000000000000223 .LASF26
     /tmp/ccqKmgVT.s:963    .debug_str:000000000000002f .LASF27
     /tmp/ccqKmgVT.s:985    .debug_str:00000000000000c7 .LASF28
     /tmp/ccqKmgVT.s:1027   .debug_str:000000000000030c .LASF38
     /tmp/ccqKmgVT.s:1025   .debug_str:00000000000002d7 .LASF39
     /tmp/ccqKmgVT.s:969    .debug_str:0000000000000050 .LASF29
     /tmp/ccqKmgVT.s:1019   .debug_str:000000000000029f .LASF40
     /tmp/ccqKmgVT.s:979    .debug_str:000000000000009a .LASF41
     /tmp/ccqKmgVT.s:10     .text:0000000000000000 .LFB3
     /tmp/ccqKmgVT.s:126    .text:00000000000000d4 .LFE3
     /tmp/ccqKmgVT.s:1011   .debug_str:000000000000025a .LASF30
     /tmp/ccqKmgVT.s:1033   .debug_str:000000000000032b .LASF31
     /tmp/ccqKmgVT.s:1009   .debug_str:000000000000024e .LASF32
     /tmp/ccqKmgVT.s:30     .text:0000000000000018 .LBB2
     /tmp/ccqKmgVT.s:51     .text:0000000000000044 .LBE2
     /tmp/ccqKmgVT.s:914    .debug_loc:0000000000000000 .LLST0
     /tmp/ccqKmgVT.s:52     .text:0000000000000044 .LBB3
     /tmp/ccqKmgVT.s:85     .text:0000000000000088 .LBE3
     /tmp/ccqKmgVT.s:926    .debug_loc:0000000000000037 .LLST1
     /tmp/ccqKmgVT.s:64     .text:000000000000005c .LVL4
     /tmp/ccqKmgVT.s:86     .text:0000000000000088 .LBB4
     /tmp/ccqKmgVT.s:111    .text:00000000000000bc .LBE4
     /tmp/ccqKmgVT.s:933    .debug_loc:000000000000005a .LLST2
     /tmp/ccqKmgVT.s:90     .text:0000000000000090 .LVL8
     /tmp/ccqKmgVT.s:26     .text:0000000000000018 .LVL0
     /tmp/ccqKmgVT.s:33     .text:000000000000001c .LVL1
     /tmp/ccqKmgVT.s:55     .text:0000000000000048 .LVL3
     /tmp/ccqKmgVT.s:81     .text:0000000000000084 .LVL6
     /tmp/ccqKmgVT.s:83     .text:0000000000000088 .LVL7
GAS LISTING /tmp/ccqKmgVT.s 			page 7


     /tmp/ccqKmgVT.s:121    .text:00000000000000cc .LVL10
     /tmp/ccqKmgVT.s:132    .debug_info:0000000000000000 .Ldebug_info0

UNDEFINED SYMBOLS
_ZN15MemoryAllocator7kmallocEm
_ZN15MemoryAllocator5kfreeEPv
