GAS LISTING /tmp/ccZ4kQ5A.s 			page 1


   1              		.file	"testFunctions.cpp"
   2              		.option pic
   3              		.option norelax
   4              		.text
   5              	.Ltext0:
   6              		.align	2
   7              		.globl	_Z10testMemoryv
   9              	_Z10testMemoryv:
  10              	.LFB43:
  11              		.file 1 "src/testFunctions.cpp"
   1:src/testFunctions.cpp **** //
   2:src/testFunctions.cpp **** // Created by os on 5/29/23.
   3:src/testFunctions.cpp **** //
   4:src/testFunctions.cpp **** #include "../h/MemoryAllocator.hpp"
   5:src/testFunctions.cpp **** #include "../h/helper.hpp"
   6:src/testFunctions.cpp **** //#include "../lib/console.h"
   7:src/testFunctions.cpp **** #include "../lib/hw.h"
   8:src/testFunctions.cpp **** #include "../h/helper.hpp"
   9:src/testFunctions.cpp **** #include "../h/Riscv.hpp"
  10:src/testFunctions.cpp **** #include "../h/syscall_c.hpp"
  11:src/testFunctions.cpp **** #include "../h/syscall_cpp.hpp"
  12:src/testFunctions.cpp **** #include "../h/List.hpp"
  13:src/testFunctions.cpp **** //#include "../h/MemoryAllocator.hpp"
  14:src/testFunctions.cpp **** #include "../h/TCB.hpp"
  15:src/testFunctions.cpp **** #include "../h/ThreadQueue.hpp"
  16:src/testFunctions.cpp **** //#include "../h/KSem.hpp"
  17:src/testFunctions.cpp **** 
  18:src/testFunctions.cpp **** #include "../test/printing.hpp"
  19:src/testFunctions.cpp **** 
  20:src/testFunctions.cpp **** //void printInteger(int i){
  21:src/testFunctions.cpp **** //	printInt(i);
  22:src/testFunctions.cpp **** //}
  23:src/testFunctions.cpp **** extern Semaphore* semA;
  24:src/testFunctions.cpp **** 
  25:src/testFunctions.cpp **** void testMemory() {
  12              		.loc 1 25 19
  13              		.cfi_startproc
  14 0000 13010181 		addi	sp,sp,-2032
  15              		.cfi_def_cfa_offset 2032
  16 0004 2334117E 		sd	ra,2024(sp)
  17 0008 2330817E 		sd	s0,2016(sp)
  18 000c 233C917C 		sd	s1,2008(sp)
  19              		.cfi_offset 1, -8
  20              		.cfi_offset 8, -16
  21              		.cfi_offset 9, -24
  22 0010 1304017F 		addi	s0,sp,2032
  23              		.cfi_def_cfa 8, 0
  24 0014 13010183 		addi	sp,sp,-2000
  26:src/testFunctions.cpp **** 	const uint64 NumAllocations = 500;    //zasto nece za preko 500????
  25              		.loc 1 26 2
  26              	.LVL0:
  27:src/testFunctions.cpp **** 	const uint64 AllocationSize = 16;
  27              		.loc 1 27 2
  28:src/testFunctions.cpp **** 
  29:src/testFunctions.cpp **** 	// Allocate and initialize pointers
  30:src/testFunctions.cpp **** 	int* allocations[NumAllocations];
  28              		.loc 1 30 2
GAS LISTING /tmp/ccZ4kQ5A.s 			page 2


  31:src/testFunctions.cpp **** 	for (uint64 i = 0; i < NumAllocations; ++i)
  29              		.loc 1 31 2
  30              	.LBB2:
  31              		.loc 1 31 14 is_stmt 0
  32 0018 13070000 		li	a4,0
  33              	.LVL1:
  34              	.L3:
  35              		.loc 1 31 23 is_stmt 1 discriminator 3
  36 001c 9307301F 		li	a5,499
  37 0020 63E2E702 		bgtu	a4,a5,.L8
  32:src/testFunctions.cpp **** 		allocations[i] = nullptr;
  38              		.loc 1 32 3 discriminator 2
  39              		.loc 1 32 18 is_stmt 0 discriminator 2
  40 0024 B7F7FFFF 		li	a5,-4096
  41 0028 93163700 		slli	a3,a4,3
  42 002c 130604FE 		addi	a2,s0,-32
  43 0030 B307F600 		add	a5,a2,a5
  44 0034 B387D700 		add	a5,a5,a3
  45 0038 23B00706 		sd	zero,96(a5)
  31:src/testFunctions.cpp **** 	for (uint64 i = 0; i < NumAllocations; ++i)
  46              		.loc 1 31 2 is_stmt 1 discriminator 2
  47 003c 13071700 		addi	a4,a4,1
  48              	.LVL2:
  49 0040 6FF0DFFD 		j	.L3
  50              	.L8:
  51              	.LBE2:
  52              	.LBB3:
  33:src/testFunctions.cpp **** 
  34:src/testFunctions.cpp **** 	// Allocate memory
  35:src/testFunctions.cpp **** 	for (uint64 i = 0; i < NumAllocations; ++i) {
  53              		.loc 1 35 14 is_stmt 0
  54 0044 93040000 		li	s1,0
  55              	.LVL3:
  56              	.L2:
  57              		.loc 1 35 23 is_stmt 1 discriminator 1
  58 0048 9307301F 		li	a5,499
  59 004c 63EC9702 		bgtu	s1,a5,.L4
  36:src/testFunctions.cpp **** 		allocations[i] = (int*)MemoryAllocator::kmalloc(
  60              		.loc 1 36 3
  61              		.loc 1 36 50 is_stmt 0
  62 0050 93053000 		li	a1,3
  63 0054 13050003 		li	a0,48
  64 0058 97000000 		call	_ZN15MemoryAllocator7kmallocEmNS_7PurposeE@plt
  64      E7800000 
  65              	.LVL4:
  66              		.loc 1 36 18
  67 0060 37F7FFFF 		li	a4,-4096
  68 0064 93973400 		slli	a5,s1,3
  69 0068 930604FE 		addi	a3,s0,-32
  70 006c 3387E600 		add	a4,a3,a4
  71 0070 B307F700 		add	a5,a4,a5
  72 0074 23B0A706 		sd	a0,96(a5)
  37:src/testFunctions.cpp **** 				AllocationSize + sizeof(MemoryAllocator::UsedMemSegment), MemoryAllocator::MISC);
  38:src/testFunctions.cpp **** 		if (allocations[i] == nullptr) {
  73              		.loc 1 38 3 is_stmt 1
  74 0078 63060500 		beqz	a0,.L4
  35:src/testFunctions.cpp **** 		allocations[i] = (int*)MemoryAllocator::kmalloc(
GAS LISTING /tmp/ccZ4kQ5A.s 			page 3


  75              		.loc 1 35 2 discriminator 2
  76 007c 93841400 		addi	s1,s1,1
  77              	.LVL5:
  78 0080 6FF09FFC 		j	.L2
  79              	.L4:
  35:src/testFunctions.cpp **** 		allocations[i] = (int*)MemoryAllocator::kmalloc(
  80              		.loc 1 35 14 is_stmt 0 discriminator 1
  81 0084 93040000 		li	s1,0
  82              	.LVL6:
  83 0088 6F000001 		j	.L7
  84              	.LVL7:
  85              	.L10:
  86              	.LBE3:
  87              	.LBB4:
  39:src/testFunctions.cpp **** //			printString("\nAllocation failed for index ");
  40:src/testFunctions.cpp **** //			printInteger(i);
  41:src/testFunctions.cpp **** 			break;
  42:src/testFunctions.cpp **** 		}
  43:src/testFunctions.cpp **** 	}
  44:src/testFunctions.cpp **** 
  45:src/testFunctions.cpp **** 	// Free memory
  46:src/testFunctions.cpp **** 	for (uint64 i = 0; i < NumAllocations; ++i) {
  47:src/testFunctions.cpp **** 		if (allocations[i] != nullptr) {
  48:src/testFunctions.cpp **** 			if (MemoryAllocator::kfree(allocations[i]) != 0) {
  88              		.loc 1 48 4 is_stmt 1
  89              		.loc 1 48 30 is_stmt 0
  90 008c 97000000 		call	_ZN15MemoryAllocator5kfreeEPv@plt
  90      E7800000 
  91              	.LVL8:
  92              	.L6:
  46:src/testFunctions.cpp **** 		if (allocations[i] != nullptr) {
  93              		.loc 1 46 2 is_stmt 1 discriminator 2
  94 0094 93841400 		addi	s1,s1,1
  95              	.LVL9:
  96              	.L7:
  46:src/testFunctions.cpp **** 		if (allocations[i] != nullptr) {
  97              		.loc 1 46 23 discriminator 1
  98 0098 9307301F 		li	a5,499
  99 009c 63E29702 		bgtu	s1,a5,.L1
  47:src/testFunctions.cpp **** 			if (MemoryAllocator::kfree(allocations[i]) != 0) {
 100              		.loc 1 47 3
  47:src/testFunctions.cpp **** 			if (MemoryAllocator::kfree(allocations[i]) != 0) {
 101              		.loc 1 47 20 is_stmt 0
 102 00a0 37F7FFFF 		li	a4,-4096
 103 00a4 93973400 		slli	a5,s1,3
 104 00a8 930604FE 		addi	a3,s0,-32
 105 00ac 3387E600 		add	a4,a3,a4
 106 00b0 B307F700 		add	a5,a4,a5
 107 00b4 03B50706 		ld	a0,96(a5)
  47:src/testFunctions.cpp **** 			if (MemoryAllocator::kfree(allocations[i]) != 0) {
 108              		.loc 1 47 3
 109 00b8 E31A05FC 		bnez	a0,.L10
 110 00bc 6FF09FFD 		j	.L6
 111              	.L1:
 112              	.LBE4:
  49:src/testFunctions.cpp **** //				printString("\nDeallocation failed for index ");
  50:src/testFunctions.cpp **** //				printInteger(i);
GAS LISTING /tmp/ccZ4kQ5A.s 			page 4


  51:src/testFunctions.cpp **** 			}
  52:src/testFunctions.cpp **** 		}
  53:src/testFunctions.cpp **** 	}
  54:src/testFunctions.cpp **** }
 113              		.loc 1 54 1
 114 00c0 1301017D 		addi	sp,sp,2000
 115              		.cfi_def_cfa 2, 2032
 116 00c4 8330817E 		ld	ra,2024(sp)
 117              		.cfi_restore 1
 118 00c8 0334017E 		ld	s0,2016(sp)
 119              		.cfi_restore 8
 120 00cc 8334817D 		ld	s1,2008(sp)
 121              		.cfi_restore 9
 122              	.LVL10:
 123 00d0 1301017F 		addi	sp,sp,2032
 124              		.cfi_def_cfa_offset 0
 125 00d4 67800000 		jr	ra
 126              		.cfi_endproc
 127              	.LFE43:
 129              		.section	.rodata.str1.8,"aMS",@progbits,1
 130              		.align	3
 131              	.LC0:
 132 0000 0A476F74 		.string	"\nGotova nit 1\n"
 132      6F766120 
 132      6E697420 
 132      310A00
 133              		.text
 134              		.align	2
 135              		.globl	_Z5nit1fPv
 137              	_Z5nit1fPv:
 138              	.LFB44:
  55:src/testFunctions.cpp **** 
  56:src/testFunctions.cpp **** void nit1f(void*) {
 139              		.loc 1 56 19 is_stmt 1
 140              		.cfi_startproc
 141 00d8 130101FF 		addi	sp,sp,-16
 142              		.cfi_def_cfa_offset 16
 143 00dc 23341100 		sd	ra,8(sp)
 144 00e0 23308100 		sd	s0,0(sp)
 145              		.cfi_offset 1, -8
 146              		.cfi_offset 8, -16
 147 00e4 13040101 		addi	s0,sp,16
 148              		.cfi_def_cfa 8, 0
  57:src/testFunctions.cpp **** //	for(int i=0;i<3;i++){
  58:src/testFunctions.cpp **** //		printString("\nNit 1 dolazi na semafor\n");
  59:src/testFunctions.cpp **** //		//int res = sem_wait(semA);
  60:src/testFunctions.cpp **** //		int res = (*semA).wait();
  61:src/testFunctions.cpp **** //		if(res){
  62:src/testFunctions.cpp **** //			printString("\nNit 1 cekala na semaforu\n");
  63:src/testFunctions.cpp **** //		}
  64:src/testFunctions.cpp **** //		else{
  65:src/testFunctions.cpp **** //			printString("\nNit 1 nije cekala\n");
  66:src/testFunctions.cpp **** //		}
  67:src/testFunctions.cpp **** //		printString("\nsem_wait za nit 1 vratio ");
  68:src/testFunctions.cpp **** //		printInteger(res);
  69:src/testFunctions.cpp **** //		printString("\n");
  70:src/testFunctions.cpp **** //	}
GAS LISTING /tmp/ccZ4kQ5A.s 			page 5


  71:src/testFunctions.cpp **** 
  72:src/testFunctions.cpp **** 	printString("\nGotova nit 1\n");
 149              		.loc 1 72 2
 150              		.loc 1 72 13 is_stmt 0
 151 00e8 17050000 		lla	a0,.LC0
 151      13050500 
 152 00f0 97000000 		call	_Z11printStringPKc@plt
 152      E7800000 
 153              	.LVL11:
  73:src/testFunctions.cpp **** }
 154              		.loc 1 73 1
 155 00f8 83308100 		ld	ra,8(sp)
 156              		.cfi_restore 1
 157 00fc 03340100 		ld	s0,0(sp)
 158              		.cfi_restore 8
 159              		.cfi_def_cfa 2, 16
 160 0100 13010101 		addi	sp,sp,16
 161              		.cfi_def_cfa_offset 0
 162 0104 67800000 		jr	ra
 163              		.cfi_endproc
 164              	.LFE44:
 166              		.section	.rodata.str1.8
 167 000f 00       		.align	3
 168              	.LC1:
 169 0010 0A476F74 		.string	"\nGotova nit 2\n"
 169      6F766120 
 169      6E697420 
 169      320A00
 170              		.text
 171              		.align	2
 172              		.globl	_Z5nit2fPv
 174              	_Z5nit2fPv:
 175              	.LFB45:
  74:src/testFunctions.cpp **** 
  75:src/testFunctions.cpp **** void nit2f(void* arg2) {
 176              		.loc 1 75 24 is_stmt 1
 177              		.cfi_startproc
 178              	.LVL12:
 179 0108 130101FF 		addi	sp,sp,-16
 180              		.cfi_def_cfa_offset 16
 181 010c 23341100 		sd	ra,8(sp)
 182 0110 23308100 		sd	s0,0(sp)
 183              		.cfi_offset 1, -8
 184              		.cfi_offset 8, -16
 185 0114 13040101 		addi	s0,sp,16
 186              		.cfi_def_cfa 8, 0
  76:src/testFunctions.cpp **** //	for(int i=0;i<3;i++){
  77:src/testFunctions.cpp **** //		printString("\nNit 2 daje signal\n");
  78:src/testFunctions.cpp **** //		//sem_signal(semA);
  79:src/testFunctions.cpp **** //		int res = (*semA).signal();
  80:src/testFunctions.cpp **** //		printString("\nPovratna vrednost signala je ");
  81:src/testFunctions.cpp **** //		printInteger(res);
  82:src/testFunctions.cpp **** //		printString("\n");
  83:src/testFunctions.cpp **** //		//sem_close(semA);
  84:src/testFunctions.cpp **** //		printString("\nNit 2 ubija semafor\n");
  85:src/testFunctions.cpp **** //		delete semA;
  86:src/testFunctions.cpp **** //
GAS LISTING /tmp/ccZ4kQ5A.s 			page 6


  87:src/testFunctions.cpp **** //	}
  88:src/testFunctions.cpp **** 	printString("\nGotova nit 2\n");
 187              		.loc 1 88 2
 188              		.loc 1 88 13 is_stmt 0
 189 0118 17050000 		lla	a0,.LC1
 189      13050500 
 190              	.LVL13:
 191 0120 97000000 		call	_Z11printStringPKc@plt
 191      E7800000 
 192              	.LVL14:
  89:src/testFunctions.cpp **** }
 193              		.loc 1 89 1
 194 0128 83308100 		ld	ra,8(sp)
 195              		.cfi_restore 1
 196 012c 03340100 		ld	s0,0(sp)
 197              		.cfi_restore 8
 198              		.cfi_def_cfa 2, 16
 199 0130 13010101 		addi	sp,sp,16
 200              		.cfi_def_cfa_offset 0
 201 0134 67800000 		jr	ra
 202              		.cfi_endproc
 203              	.LFE45:
 205              		.section	.rodata.str1.8
 206 001f 00       		.align	3
 207              	.LC2:
 208 0020 0A476F74 		.string	"\nGotova nit3\n"
 208      6F766120 
 208      6E697433 
 208      0A00
 209              		.text
 210              		.align	2
 211              		.globl	_Z5nit3fPv
 213              	_Z5nit3fPv:
 214              	.LFB46:
  90:src/testFunctions.cpp **** 
  91:src/testFunctions.cpp **** 
  92:src/testFunctions.cpp **** void nit3f(void*) {
 215              		.loc 1 92 19 is_stmt 1
 216              		.cfi_startproc
 217 0138 130101FE 		addi	sp,sp,-32
 218              		.cfi_def_cfa_offset 32
 219 013c 233C1100 		sd	ra,24(sp)
 220 0140 23388100 		sd	s0,16(sp)
 221 0144 23349100 		sd	s1,8(sp)
 222              		.cfi_offset 1, -8
 223              		.cfi_offset 8, -16
 224              		.cfi_offset 9, -24
 225 0148 13040102 		addi	s0,sp,32
 226              		.cfi_def_cfa 8, 0
 227 014c 6F008001 		j	.L17
 228              	.LVL15:
 229              	.L20:
  93:src/testFunctions.cpp **** 	char slovo;
  94:src/testFunctions.cpp **** 	do {
  95:src/testFunctions.cpp **** 		slovo = getc();
  96:src/testFunctions.cpp **** 		putc(slovo);
  97:src/testFunctions.cpp **** 		if (slovo == '\r') putc('\n');
GAS LISTING /tmp/ccZ4kQ5A.s 			page 7


 230              		.loc 1 97 22 discriminator 1
 231              		.loc 1 97 26 is_stmt 0 discriminator 1
 232 0150 1305A000 		li	a0,10
 233 0154 97000000 		call	_Z4putcc@plt
 233      E7800000 
 234              	.LVL16:
 235              	.L16:
  98:src/testFunctions.cpp **** 	} while (slovo != '0');
 236              		.loc 1 98 17 is_stmt 1
 237 015c 93070003 		li	a5,48
 238 0160 6382F402 		beq	s1,a5,.L19
 239              	.LVL17:
 240              	.L17:
  93:src/testFunctions.cpp **** 	char slovo;
 241              		.loc 1 93 2
  94:src/testFunctions.cpp **** 		slovo = getc();
 242              		.loc 1 94 2
  95:src/testFunctions.cpp **** 		putc(slovo);
 243              		.loc 1 95 3
  95:src/testFunctions.cpp **** 		putc(slovo);
 244              		.loc 1 95 15 is_stmt 0
 245 0164 97000000 		call	_Z4getcv@plt
 245      E7800000 
 246              	.LVL18:
 247 016c 93040500 		mv	s1,a0
 248              	.LVL19:
  96:src/testFunctions.cpp **** 		if (slovo == '\r') putc('\n');
 249              		.loc 1 96 3 is_stmt 1
  96:src/testFunctions.cpp **** 		if (slovo == '\r') putc('\n');
 250              		.loc 1 96 7 is_stmt 0
 251 0170 97000000 		call	_Z4putcc@plt
 251      E7800000 
 252              	.LVL20:
  97:src/testFunctions.cpp **** 	} while (slovo != '0');
 253              		.loc 1 97 3 is_stmt 1
 254 0178 9307D000 		li	a5,13
 255 017c E390F4FE 		bne	s1,a5,.L16
 256 0180 6FF01FFD 		j	.L20
 257              	.L19:
  99:src/testFunctions.cpp **** 
 100:src/testFunctions.cpp **** 	printString("\nGotova nit3\n");
 258              		.loc 1 100 2
 259              		.loc 1 100 13 is_stmt 0
 260 0184 17050000 		lla	a0,.LC2
 260      13050500 
 261 018c 97000000 		call	_Z11printStringPKc@plt
 261      E7800000 
 262              	.LVL21:
 101:src/testFunctions.cpp **** }...
 263              		.loc 1 101 1
 264 0194 83308101 		ld	ra,24(sp)
 265              		.cfi_restore 1
 266 0198 03340101 		ld	s0,16(sp)
 267              		.cfi_restore 8
 268              		.cfi_def_cfa 2, 32
 269 019c 83348100 		ld	s1,8(sp)
 270              		.cfi_restore 9
GAS LISTING /tmp/ccZ4kQ5A.s 			page 8


 271              	.LVL22:
 272 01a0 13010102 		addi	sp,sp,32
 273              		.cfi_def_cfa_offset 0
 274 01a4 67800000 		jr	ra
 275              		.cfi_endproc
 276              	.LFE46:
 278              	.Letext0:
 279              		.file 2 "src/../h/../lib/hw.h"
 280              		.file 3 "src/../h/MemoryAllocator.hpp"
 281              		.file 4 "src/../h/syscall_c.hpp"
 282              		.file 5 "src/../test/printing.hpp"
GAS LISTING /tmp/ccZ4kQ5A.s 			page 9


DEFINED SYMBOLS
                            *ABS*:0000000000000000 testFunctions.cpp
     /tmp/ccZ4kQ5A.s:9      .text:0000000000000000 _Z10testMemoryv
     /tmp/ccZ4kQ5A.s:13     .text:0000000000000000 .L0 
     /tmp/ccZ4kQ5A.s:14     .text:0000000000000000 .L0 
     /tmp/ccZ4kQ5A.s:15     .text:0000000000000004 .L0 
     /tmp/ccZ4kQ5A.s:19     .text:0000000000000010 .L0 
     /tmp/ccZ4kQ5A.s:20     .text:0000000000000010 .L0 
     /tmp/ccZ4kQ5A.s:21     .text:0000000000000010 .L0 
     /tmp/ccZ4kQ5A.s:23     .text:0000000000000014 .L0 
     /tmp/ccZ4kQ5A.s:27     .text:0000000000000018 .L0 
     /tmp/ccZ4kQ5A.s:28     .text:0000000000000018 .L0 
     /tmp/ccZ4kQ5A.s:29     .text:0000000000000018 .L0 
     /tmp/ccZ4kQ5A.s:31     .text:0000000000000018 .L0 
     /tmp/ccZ4kQ5A.s:32     .text:0000000000000018 .L0 
     /tmp/ccZ4kQ5A.s:36     .text:000000000000001c .L0 
     /tmp/ccZ4kQ5A.s:39     .text:0000000000000024 .L0 
     /tmp/ccZ4kQ5A.s:40     .text:0000000000000024 .L0 
     /tmp/ccZ4kQ5A.s:47     .text:000000000000003c .L0 
     /tmp/ccZ4kQ5A.s:54     .text:0000000000000044 .L0 
     /tmp/ccZ4kQ5A.s:58     .text:0000000000000048 .L0 
     /tmp/ccZ4kQ5A.s:61     .text:0000000000000050 .L0 
     /tmp/ccZ4kQ5A.s:62     .text:0000000000000050 .L0 
     /tmp/ccZ4kQ5A.s:67     .text:0000000000000060 .L0 
     /tmp/ccZ4kQ5A.s:74     .text:0000000000000078 .L0 
     /tmp/ccZ4kQ5A.s:76     .text:000000000000007c .L0 
     /tmp/ccZ4kQ5A.s:81     .text:0000000000000084 .L0 
     /tmp/ccZ4kQ5A.s:89     .text:000000000000008c .L0 
     /tmp/ccZ4kQ5A.s:90     .text:000000000000008c .L0 
     /tmp/ccZ4kQ5A.s:94     .text:0000000000000094 .L0 
     /tmp/ccZ4kQ5A.s:98     .text:0000000000000098 .L0 
     /tmp/ccZ4kQ5A.s:101    .text:00000000000000a0 .L0 
     /tmp/ccZ4kQ5A.s:102    .text:00000000000000a0 .L0 
     /tmp/ccZ4kQ5A.s:109    .text:00000000000000b8 .L0 
     /tmp/ccZ4kQ5A.s:114    .text:00000000000000c0 .L0 
     /tmp/ccZ4kQ5A.s:115    .text:00000000000000c4 .L0 
     /tmp/ccZ4kQ5A.s:117    .text:00000000000000c8 .L0 
     /tmp/ccZ4kQ5A.s:119    .text:00000000000000cc .L0 
     /tmp/ccZ4kQ5A.s:121    .text:00000000000000d0 .L0 
     /tmp/ccZ4kQ5A.s:124    .text:00000000000000d4 .L0 
     /tmp/ccZ4kQ5A.s:126    .text:00000000000000d8 .L0 
     /tmp/ccZ4kQ5A.s:137    .text:00000000000000d8 _Z5nit1fPv
     /tmp/ccZ4kQ5A.s:140    .text:00000000000000d8 .L0 
     /tmp/ccZ4kQ5A.s:141    .text:00000000000000d8 .L0 
     /tmp/ccZ4kQ5A.s:142    .text:00000000000000dc .L0 
     /tmp/ccZ4kQ5A.s:145    .text:00000000000000e4 .L0 
     /tmp/ccZ4kQ5A.s:146    .text:00000000000000e4 .L0 
     /tmp/ccZ4kQ5A.s:148    .text:00000000000000e8 .L0 
     /tmp/ccZ4kQ5A.s:150    .text:00000000000000e8 .L0 
     /tmp/ccZ4kQ5A.s:151    .text:00000000000000e8 .L0 
     /tmp/ccZ4kQ5A.s:155    .text:00000000000000f8 .L0 
     /tmp/ccZ4kQ5A.s:156    .text:00000000000000fc .L0 
     /tmp/ccZ4kQ5A.s:158    .text:0000000000000100 .L0 
     /tmp/ccZ4kQ5A.s:159    .text:0000000000000100 .L0 
     /tmp/ccZ4kQ5A.s:161    .text:0000000000000104 .L0 
     /tmp/ccZ4kQ5A.s:163    .text:0000000000000108 .L0 
     /tmp/ccZ4kQ5A.s:174    .text:0000000000000108 _Z5nit2fPv
GAS LISTING /tmp/ccZ4kQ5A.s 			page 10


     /tmp/ccZ4kQ5A.s:177    .text:0000000000000108 .L0 
     /tmp/ccZ4kQ5A.s:179    .text:0000000000000108 .L0 
     /tmp/ccZ4kQ5A.s:180    .text:000000000000010c .L0 
     /tmp/ccZ4kQ5A.s:183    .text:0000000000000114 .L0 
     /tmp/ccZ4kQ5A.s:184    .text:0000000000000114 .L0 
     /tmp/ccZ4kQ5A.s:186    .text:0000000000000118 .L0 
     /tmp/ccZ4kQ5A.s:188    .text:0000000000000118 .L0 
     /tmp/ccZ4kQ5A.s:189    .text:0000000000000118 .L0 
     /tmp/ccZ4kQ5A.s:194    .text:0000000000000128 .L0 
     /tmp/ccZ4kQ5A.s:195    .text:000000000000012c .L0 
     /tmp/ccZ4kQ5A.s:197    .text:0000000000000130 .L0 
     /tmp/ccZ4kQ5A.s:198    .text:0000000000000130 .L0 
     /tmp/ccZ4kQ5A.s:200    .text:0000000000000134 .L0 
     /tmp/ccZ4kQ5A.s:202    .text:0000000000000138 .L0 
     /tmp/ccZ4kQ5A.s:213    .text:0000000000000138 _Z5nit3fPv
     /tmp/ccZ4kQ5A.s:216    .text:0000000000000138 .L0 
     /tmp/ccZ4kQ5A.s:217    .text:0000000000000138 .L0 
     /tmp/ccZ4kQ5A.s:218    .text:000000000000013c .L0 
     /tmp/ccZ4kQ5A.s:222    .text:0000000000000148 .L0 
     /tmp/ccZ4kQ5A.s:223    .text:0000000000000148 .L0 
     /tmp/ccZ4kQ5A.s:224    .text:0000000000000148 .L0 
     /tmp/ccZ4kQ5A.s:226    .text:000000000000014c .L0 
     /tmp/ccZ4kQ5A.s:231    .text:0000000000000150 .L0 
     /tmp/ccZ4kQ5A.s:232    .text:0000000000000150 .L0 
     /tmp/ccZ4kQ5A.s:237    .text:000000000000015c .L0 
     /tmp/ccZ4kQ5A.s:242    .text:0000000000000164 .L0 
     /tmp/ccZ4kQ5A.s:243    .text:0000000000000164 .L0 
     /tmp/ccZ4kQ5A.s:244    .text:0000000000000164 .L0 
     /tmp/ccZ4kQ5A.s:245    .text:0000000000000164 .L0 
     /tmp/ccZ4kQ5A.s:250    .text:0000000000000170 .L0 
     /tmp/ccZ4kQ5A.s:251    .text:0000000000000170 .L0 
     /tmp/ccZ4kQ5A.s:254    .text:0000000000000178 .L0 
     /tmp/ccZ4kQ5A.s:259    .text:0000000000000184 .L0 
     /tmp/ccZ4kQ5A.s:260    .text:0000000000000184 .L0 
     /tmp/ccZ4kQ5A.s:264    .text:0000000000000194 .L0 
     /tmp/ccZ4kQ5A.s:265    .text:0000000000000198 .L0 
     /tmp/ccZ4kQ5A.s:267    .text:000000000000019c .L0 
     /tmp/ccZ4kQ5A.s:268    .text:000000000000019c .L0 
     /tmp/ccZ4kQ5A.s:270    .text:00000000000001a0 .L0 
     /tmp/ccZ4kQ5A.s:273    .text:00000000000001a4 .L0 
     /tmp/ccZ4kQ5A.s:275    .text:00000000000001a8 .L0 
     /tmp/ccZ4kQ5A.s:283    .text:00000000000001a8 .L0 
     /tmp/ccZ4kQ5A.s:131    .rodata.str1.8:0000000000000000 .LC0
     /tmp/ccZ4kQ5A.s:151    .text:00000000000000e8 .L0 
     /tmp/ccZ4kQ5A.s:168    .rodata.str1.8:0000000000000010 .LC1
     /tmp/ccZ4kQ5A.s:189    .text:0000000000000118 .L0 
     /tmp/ccZ4kQ5A.s:207    .rodata.str1.8:0000000000000020 .LC2
     /tmp/ccZ4kQ5A.s:260    .text:0000000000000184 .L0 
     /tmp/ccZ4kQ5A.s:50     .text:0000000000000044 .L8
     /tmp/ccZ4kQ5A.s:34     .text:000000000000001c .L3
     /tmp/ccZ4kQ5A.s:79     .text:0000000000000084 .L4
     /tmp/ccZ4kQ5A.s:56     .text:0000000000000048 .L2
     /tmp/ccZ4kQ5A.s:96     .text:0000000000000098 .L7
     /tmp/ccZ4kQ5A.s:111    .text:00000000000000c0 .L1
     /tmp/ccZ4kQ5A.s:85     .text:000000000000008c .L10
     /tmp/ccZ4kQ5A.s:92     .text:0000000000000094 .L6
     /tmp/ccZ4kQ5A.s:240    .text:0000000000000164 .L17
GAS LISTING /tmp/ccZ4kQ5A.s 			page 11


     /tmp/ccZ4kQ5A.s:257    .text:0000000000000184 .L19
     /tmp/ccZ4kQ5A.s:235    .text:000000000000015c .L16
     /tmp/ccZ4kQ5A.s:229    .text:0000000000000150 .L20
     /tmp/ccZ4kQ5A.s:865    .debug_abbrev:0000000000000000 .Ldebug_abbrev0
     /tmp/ccZ4kQ5A.s:1615   .debug_str:0000000000000331 .LASF59
     /tmp/ccZ4kQ5A.s:1537   .debug_str:00000000000000cd .LASF60
     /tmp/ccZ4kQ5A.s:1597   .debug_str:000000000000028a .LASF61
     /tmp/ccZ4kQ5A.s:5      .text:0000000000000000 .Ltext0
     /tmp/ccZ4kQ5A.s:278    .text:00000000000001a8 .Letext0
     /tmp/ccZ4kQ5A.s:1505   .debug_line:0000000000000000 .Ldebug_line0
     /tmp/ccZ4kQ5A.s:1541   .debug_str:00000000000000ef .LASF0
     /tmp/ccZ4kQ5A.s:1555   .debug_str:000000000000013a .LASF1
     /tmp/ccZ4kQ5A.s:1593   .debug_str:0000000000000275 .LASF2
     /tmp/ccZ4kQ5A.s:1595   .debug_str:0000000000000283 .LASF4
     /tmp/ccZ4kQ5A.s:1549   .debug_str:0000000000000110 .LASF3
     /tmp/ccZ4kQ5A.s:1507   .debug_str:0000000000000000 .LASF5
     /tmp/ccZ4kQ5A.s:1577   .debug_str:00000000000001f1 .LASF6
     /tmp/ccZ4kQ5A.s:1551   .debug_str:0000000000000122 .LASF7
     /tmp/ccZ4kQ5A.s:1533   .debug_str:00000000000000af .LASF8
     /tmp/ccZ4kQ5A.s:1535   .debug_str:00000000000000bf .LASF9
     /tmp/ccZ4kQ5A.s:1517   .debug_str:0000000000000042 .LASF10
     /tmp/ccZ4kQ5A.s:1529   .debug_str:000000000000009a .LASF11
     /tmp/ccZ4kQ5A.s:1521   .debug_str:0000000000000056 .LASF12
     /tmp/ccZ4kQ5A.s:1515   .debug_str:0000000000000032 .LASF13
     /tmp/ccZ4kQ5A.s:1607   .debug_str:000000000000030c .LASF14
     /tmp/ccZ4kQ5A.s:1527   .debug_str:0000000000000084 .LASF15
     /tmp/ccZ4kQ5A.s:1601   .debug_str:00000000000002ae .LASF16
     /tmp/ccZ4kQ5A.s:1573   .debug_str:00000000000001d6 .LASF62
     /tmp/ccZ4kQ5A.s:1571   .debug_str:00000000000001ce .LASF63
     /tmp/ccZ4kQ5A.s:1579   .debug_str:0000000000000204 .LASF17
     /tmp/ccZ4kQ5A.s:1643   .debug_str:0000000000000494 .LASF18
     /tmp/ccZ4kQ5A.s:1587   .debug_str:0000000000000253 .LASF19
     /tmp/ccZ4kQ5A.s:1625   .debug_str:0000000000000431 .LASF20
     /tmp/ccZ4kQ5A.s:1559   .debug_str:000000000000015d .LASF21
     /tmp/ccZ4kQ5A.s:1581   .debug_str:000000000000020a .LASF25
     /tmp/ccZ4kQ5A.s:1519   .debug_str:0000000000000051 .LASF22
     /tmp/ccZ4kQ5A.s:1511   .debug_str:0000000000000020 .LASF23
     /tmp/ccZ4kQ5A.s:1553   .debug_str:0000000000000135 .LASF24
     /tmp/ccZ4kQ5A.s:1525   .debug_str:0000000000000075 .LASF26
     /tmp/ccZ4kQ5A.s:1585   .debug_str:000000000000024b .LASF27
     /tmp/ccZ4kQ5A.s:1567   .debug_str:000000000000019d .LASF28
     /tmp/ccZ4kQ5A.s:1637   .debug_str:0000000000000474 .LASF29
     /tmp/ccZ4kQ5A.s:1617   .debug_str:00000000000003f5 .LASF31
     /tmp/ccZ4kQ5A.s:1531   .debug_str:00000000000000a9 .LASF30
     /tmp/ccZ4kQ5A.s:1569   .debug_str:00000000000001b0 .LASF32
     /tmp/ccZ4kQ5A.s:1513   .debug_str:0000000000000025 .LASF33
     /tmp/ccZ4kQ5A.s:1583   .debug_str:0000000000000219 .LASF34
     /tmp/ccZ4kQ5A.s:1635   .debug_str:0000000000000460 .LASF64
     /tmp/ccZ4kQ5A.s:1565   .debug_str:0000000000000171 .LASF65
     /tmp/ccZ4kQ5A.s:1509   .debug_str:0000000000000007 .LASF66
     /tmp/ccZ4kQ5A.s:1589   .debug_str:000000000000025a .LASF35
     /tmp/ccZ4kQ5A.s:1629   .debug_str:0000000000000440 .LASF36
     /tmp/ccZ4kQ5A.s:1539   .debug_str:00000000000000e3 .LASF37
     /tmp/ccZ4kQ5A.s:1547   .debug_str:0000000000000106 .LASF67
     /tmp/ccZ4kQ5A.s:1605   .debug_str:00000000000002d7 .LASF68
     /tmp/ccZ4kQ5A.s:1561   .debug_str:0000000000000167 .LASF38
     /tmp/ccZ4kQ5A.s:1611   .debug_str:0000000000000321 .LASF39
GAS LISTING /tmp/ccZ4kQ5A.s 			page 12


     /tmp/ccZ4kQ5A.s:1627   .debug_str:0000000000000436 .LASF69
     /tmp/ccZ4kQ5A.s:1543   .debug_str:00000000000000fc .LASF40
     /tmp/ccZ4kQ5A.s:1645   .debug_str:000000000000049e .LASF42
     /tmp/ccZ4kQ5A.s:1613   .debug_str:0000000000000326 .LASF44
     /tmp/ccZ4kQ5A.s:214    .text:0000000000000138 .LFB46
     /tmp/ccZ4kQ5A.s:276    .text:00000000000001a8 .LFE46
     /tmp/ccZ4kQ5A.s:1619   .debug_str:0000000000000420 .LASF41
     /tmp/ccZ4kQ5A.s:1441   .debug_loc:0000000000000000 .LLST4
     /tmp/ccZ4kQ5A.s:234    .text:000000000000015c .LVL16
     /tmp/ccZ4kQ5A.s:246    .text:000000000000016c .LVL18
     /tmp/ccZ4kQ5A.s:252    .text:0000000000000178 .LVL20
     /tmp/ccZ4kQ5A.s:262    .text:0000000000000194 .LVL21
     /tmp/ccZ4kQ5A.s:1621   .debug_str:0000000000000426 .LASF43
     /tmp/ccZ4kQ5A.s:1633   .debug_str:0000000000000455 .LASF45
     /tmp/ccZ4kQ5A.s:175    .text:0000000000000108 .LFB45
     /tmp/ccZ4kQ5A.s:203    .text:0000000000000138 .LFE45
     /tmp/ccZ4kQ5A.s:1623   .debug_str:000000000000042c .LASF70
     /tmp/ccZ4kQ5A.s:1452   .debug_loc:0000000000000036 .LLST3
     /tmp/ccZ4kQ5A.s:192    .text:0000000000000128 .LVL14
     /tmp/ccZ4kQ5A.s:1599   .debug_str:00000000000002a8 .LASF46
     /tmp/ccZ4kQ5A.s:1647   .debug_str:00000000000004a4 .LASF47
     /tmp/ccZ4kQ5A.s:138    .text:00000000000000d8 .LFB44
     /tmp/ccZ4kQ5A.s:164    .text:0000000000000108 .LFE44
     /tmp/ccZ4kQ5A.s:153    .text:00000000000000f8 .LVL11
     /tmp/ccZ4kQ5A.s:1575   .debug_str:00000000000001e6 .LASF48
     /tmp/ccZ4kQ5A.s:1557   .debug_str:000000000000014d .LASF49
     /tmp/ccZ4kQ5A.s:10     .text:0000000000000000 .LFB43
     /tmp/ccZ4kQ5A.s:127    .text:00000000000000d8 .LFE43
     /tmp/ccZ4kQ5A.s:1523   .debug_str:0000000000000066 .LASF50
     /tmp/ccZ4kQ5A.s:1591   .debug_str:0000000000000266 .LASF51
     /tmp/ccZ4kQ5A.s:1639   .debug_str:000000000000047c .LASF52
     /tmp/ccZ4kQ5A.s:30     .text:0000000000000018 .LBB2
     /tmp/ccZ4kQ5A.s:51     .text:0000000000000044 .LBE2
     /tmp/ccZ4kQ5A.s:1466   .debug_loc:000000000000006f .LLST0
     /tmp/ccZ4kQ5A.s:52     .text:0000000000000044 .LBB3
     /tmp/ccZ4kQ5A.s:86     .text:000000000000008c .LBE3
     /tmp/ccZ4kQ5A.s:1478   .debug_loc:00000000000000a6 .LLST1
     /tmp/ccZ4kQ5A.s:65     .text:0000000000000060 .LVL4
     /tmp/ccZ4kQ5A.s:87     .text:000000000000008c .LBB4
     /tmp/ccZ4kQ5A.s:112    .text:00000000000000c0 .LBE4
     /tmp/ccZ4kQ5A.s:1485   .debug_loc:00000000000000c9 .LLST2
     /tmp/ccZ4kQ5A.s:91     .text:0000000000000094 .LVL8
     /tmp/ccZ4kQ5A.s:1609   .debug_str:0000000000000318 .LASF53
     /tmp/ccZ4kQ5A.s:1563   .debug_str:000000000000016c .LASF55
     /tmp/ccZ4kQ5A.s:1631   .debug_str:000000000000044c .LASF54
     /tmp/ccZ4kQ5A.s:1545   .debug_str:0000000000000101 .LASF56
     /tmp/ccZ4kQ5A.s:1603   .debug_str:00000000000002c4 .LASF57
     /tmp/ccZ4kQ5A.s:1641   .debug_str:0000000000000488 .LASF58
     /tmp/ccZ4kQ5A.s:228    .text:0000000000000150 .LVL15
     /tmp/ccZ4kQ5A.s:239    .text:0000000000000164 .LVL17
     /tmp/ccZ4kQ5A.s:248    .text:0000000000000170 .LVL19
     /tmp/ccZ4kQ5A.s:271    .text:00000000000001a0 .LVL22
     /tmp/ccZ4kQ5A.s:178    .text:0000000000000108 .LVL12
     /tmp/ccZ4kQ5A.s:190    .text:0000000000000120 .LVL13
     /tmp/ccZ4kQ5A.s:26     .text:0000000000000018 .LVL0
     /tmp/ccZ4kQ5A.s:33     .text:000000000000001c .LVL1
     /tmp/ccZ4kQ5A.s:55     .text:0000000000000048 .LVL3
GAS LISTING /tmp/ccZ4kQ5A.s 			page 13


     /tmp/ccZ4kQ5A.s:82     .text:0000000000000088 .LVL6
     /tmp/ccZ4kQ5A.s:84     .text:000000000000008c .LVL7
     /tmp/ccZ4kQ5A.s:122    .text:00000000000000d0 .LVL10
     /tmp/ccZ4kQ5A.s:284    .debug_info:0000000000000000 .Ldebug_info0

UNDEFINED SYMBOLS
_ZN15MemoryAllocator7kmallocEmNS_7PurposeE
_ZN15MemoryAllocator5kfreeEPv
_Z11printStringPKc
_Z4putcc
_Z4getcv
