GAS LISTING /tmp/ccxVsXL6.s 			page 1


   1              		.file	"testcpp.cpp"
   2              		.option pic
   3              		.option norelax
   4              		.text
   5              	.Ltext0:
   6              		.section	.rodata.str1.8,"aMS",@progbits,1
   7              		.align	3
   8              	.LC0:
   9 0000 6E697420 		.string	"nit 1\n"
   9      310A00
  10 0007 00       		.align	3
  11              	.LC1:
  12 0008 0A476F74 		.string	"\nGotova nit 1\n"
  12      6F766120 
  12      6E697420 
  12      310A00
  13              		.text
  14              		.align	2
  15              		.globl	_Z2f1Pv
  17              	_Z2f1Pv:
  18              	.LFB2:
  19              		.file 1 "src/testcpp.cpp"
   1:src/testcpp.cpp **** //
   2:src/testcpp.cpp **** // Created by os on 6/27/23.
   3:src/testcpp.cpp **** //
   4:src/testcpp.cpp **** #include "../h/syscall_c.hpp"
   5:src/testcpp.cpp **** #include "../h/syscall_cpp.hpp"
   6:src/testcpp.cpp **** 
   7:src/testcpp.cpp **** #include "../test/printing.hpp"
   8:src/testcpp.cpp **** 
   9:src/testcpp.cpp **** sem_t s12,s23,s31;
  10:src/testcpp.cpp **** 
  11:src/testcpp.cpp **** 
  12:src/testcpp.cpp **** void f1(void* end) {
  20              		.loc 1 12 20
  21              		.cfi_startproc
  22              	.LVL0:
  23 0000 130101FE 		addi	sp,sp,-32
  24              		.cfi_def_cfa_offset 32
  25 0004 233C1100 		sd	ra,24(sp)
  26 0008 23388100 		sd	s0,16(sp)
  27 000c 23349100 		sd	s1,8(sp)
  28 0010 23302101 		sd	s2,0(sp)
  29              		.cfi_offset 1, -8
  30              		.cfi_offset 8, -16
  31              		.cfi_offset 9, -24
  32              		.cfi_offset 18, -32
  33 0014 13040102 		addi	s0,sp,32
  34              		.cfi_def_cfa 8, 0
  35 0018 13090500 		mv	s2,a0
  13:src/testcpp.cpp ****     int i = 0;
  36              		.loc 1 13 5
  37              	.LVL1:
  38              		.loc 1 13 9 is_stmt 0
  39 001c 93040000 		li	s1,0
  40 0020 6F004001 		j	.L4
  41              	.LVL2:
GAS LISTING /tmp/ccxVsXL6.s 			page 2


  42              	.L3:
  14:src/testcpp.cpp ****     while (*(int*)end == 0) {
  15:src/testcpp.cpp ****         sem_wait(s31);
  16:src/testcpp.cpp ****         printString("nit 1\n");
  17:src/testcpp.cpp ****         if (++i == 4) *(int*)end = 1;
  18:src/testcpp.cpp ****         sem_signal(s12);
  43              		.loc 1 18 9 is_stmt 1
  44              		.loc 1 18 19 is_stmt 0
  45 0024 17050000 		ld	a0,.LANCHOR0+8
  45      03350500 
  46 002c 97000000 		call	_Z10sem_signalP4KSem@plt
  46      E7800000 
  47              	.LVL3:
  48              	.L4:
  14:src/testcpp.cpp ****     while (*(int*)end == 0) {
  49              		.loc 1 14 5 is_stmt 1
  14:src/testcpp.cpp ****     while (*(int*)end == 0) {
  50              		.loc 1 14 23
  14:src/testcpp.cpp ****     while (*(int*)end == 0) {
  51              		.loc 1 14 12 is_stmt 0
  52 0034 83270900 		lw	a5,0(s2)
  14:src/testcpp.cpp ****     while (*(int*)end == 0) {
  53              		.loc 1 14 23
  54 0038 639E0702 		bnez	a5,.L2
  15:src/testcpp.cpp ****         printString("nit 1\n");
  55              		.loc 1 15 9 is_stmt 1
  15:src/testcpp.cpp ****         printString("nit 1\n");
  56              		.loc 1 15 17 is_stmt 0
  57 003c 17050000 		ld	a0,.LANCHOR0
  57      03350500 
  58 0044 97000000 		call	_Z8sem_waitP4KSem@plt
  58      E7800000 
  59              	.LVL4:
  16:src/testcpp.cpp ****         if (++i == 4) *(int*)end = 1;
  60              		.loc 1 16 9 is_stmt 1
  16:src/testcpp.cpp ****         if (++i == 4) *(int*)end = 1;
  61              		.loc 1 16 20 is_stmt 0
  62 004c 17050000 		lla	a0,.LC0
  62      13050500 
  63 0054 97000000 		call	_Z11printStringPKc@plt
  63      E7800000 
  64              	.LVL5:
  17:src/testcpp.cpp ****         sem_signal(s12);
  65              		.loc 1 17 9 is_stmt 1
  17:src/testcpp.cpp ****         sem_signal(s12);
  66              		.loc 1 17 17 is_stmt 0
  67 005c 9B841400 		addiw	s1,s1,1
  68              	.LVL6:
  17:src/testcpp.cpp ****         sem_signal(s12);
  69              		.loc 1 17 9
  70 0060 93074000 		li	a5,4
  71 0064 E390F4FC 		bne	s1,a5,.L3
  17:src/testcpp.cpp ****         sem_signal(s12);
  72              		.loc 1 17 23 is_stmt 1 discriminator 1
  17:src/testcpp.cpp ****         sem_signal(s12);
  73              		.loc 1 17 34 is_stmt 0 discriminator 1
  74 0068 93071000 		li	a5,1
GAS LISTING /tmp/ccxVsXL6.s 			page 3


  75 006c 2320F900 		sw	a5,0(s2)
  76 0070 6FF05FFB 		j	.L3
  77              	.LVL7:
  78              	.L2:
  19:src/testcpp.cpp ****     }
  20:src/testcpp.cpp **** 
  21:src/testcpp.cpp ****     printString("\nGotova nit 1\n");
  79              		.loc 1 21 5 is_stmt 1
  80              		.loc 1 21 16 is_stmt 0
  81 0074 17050000 		lla	a0,.LC1
  81      13050500 
  82 007c 97000000 		call	_Z11printStringPKc@plt
  82      E7800000 
  83              	.LVL8:
  22:src/testcpp.cpp **** }
  84              		.loc 1 22 1
  85 0084 83308101 		ld	ra,24(sp)
  86              		.cfi_restore 1
  87 0088 03340101 		ld	s0,16(sp)
  88              		.cfi_restore 8
  89              		.cfi_def_cfa 2, 32
  90 008c 83348100 		ld	s1,8(sp)
  91              		.cfi_restore 9
  92              	.LVL9:
  93 0090 03390100 		ld	s2,0(sp)
  94              		.cfi_restore 18
  95              	.LVL10:
  96 0094 13010102 		addi	sp,sp,32
  97              		.cfi_def_cfa_offset 0
  98 0098 67800000 		jr	ra
  99              		.cfi_endproc
 100              	.LFE2:
 102              		.section	.rodata.str1.8
 103 0017 00       		.align	3
 104              	.LC2:
 105 0018 6E697420 		.string	"nit 2\n"
 105      320A00
 106 001f 00       		.align	3
 107              	.LC3:
 108 0020 0A476F74 		.string	"\nGotova nit 2\n"
 108      6F766120 
 108      6E697420 
 108      320A00
 109              		.text
 110              		.align	2
 111              		.globl	_Z2f2Pv
 113              	_Z2f2Pv:
 114              	.LFB3:
  23:src/testcpp.cpp **** 
  24:src/testcpp.cpp **** 
  25:src/testcpp.cpp **** void f2(void* end ) {
 115              		.loc 1 25 21 is_stmt 1
 116              		.cfi_startproc
 117              	.LVL11:
 118 009c 130101FE 		addi	sp,sp,-32
 119              		.cfi_def_cfa_offset 32
 120 00a0 233C1100 		sd	ra,24(sp)
GAS LISTING /tmp/ccxVsXL6.s 			page 4


 121 00a4 23388100 		sd	s0,16(sp)
 122 00a8 23349100 		sd	s1,8(sp)
 123 00ac 23302101 		sd	s2,0(sp)
 124              		.cfi_offset 1, -8
 125              		.cfi_offset 8, -16
 126              		.cfi_offset 9, -24
 127              		.cfi_offset 18, -32
 128 00b0 13040102 		addi	s0,sp,32
 129              		.cfi_def_cfa 8, 0
 130 00b4 13090500 		mv	s2,a0
 131              	.LVL12:
 132              	.L8:
  26:src/testcpp.cpp ****     while (*(int*)end == 0) {
 133              		.loc 1 26 5
 134              		.loc 1 26 23
 135              		.loc 1 26 12 is_stmt 0
 136 00b8 83270900 		lw	a5,0(s2)
 137              		.loc 1 26 23
 138 00bc 639C0702 		bnez	a5,.L7
  27:src/testcpp.cpp ****         sem_wait(s12);
 139              		.loc 1 27 9 is_stmt 1
 140              		.loc 1 27 17 is_stmt 0
 141 00c0 97040000 		lla	s1,.LANCHOR0
 141      93840400 
 142 00c8 03B58400 		ld	a0,8(s1)
 143 00cc 97000000 		call	_Z8sem_waitP4KSem@plt
 143      E7800000 
 144              	.LVL13:
  28:src/testcpp.cpp ****         printString("nit 2\n");
 145              		.loc 1 28 9 is_stmt 1
 146              		.loc 1 28 20 is_stmt 0
 147 00d4 17050000 		lla	a0,.LC2
 147      13050500 
 148 00dc 97000000 		call	_Z11printStringPKc@plt
 148      E7800000 
 149              	.LVL14:
  29:src/testcpp.cpp ****         sem_signal(s23);
 150              		.loc 1 29 9 is_stmt 1
 151              		.loc 1 29 19 is_stmt 0
 152 00e4 03B50401 		ld	a0,16(s1)
 153 00e8 97000000 		call	_Z10sem_signalP4KSem@plt
 153      E7800000 
 154              	.LVL15:
  26:src/testcpp.cpp ****         sem_wait(s12);
 155              		.loc 1 26 5
 156 00f0 6FF09FFC 		j	.L8
 157              	.L7:
  30:src/testcpp.cpp ****     }
  31:src/testcpp.cpp **** 
  32:src/testcpp.cpp **** 
  33:src/testcpp.cpp ****     printString("\nGotova nit 2\n");
 158              		.loc 1 33 5 is_stmt 1
 159              		.loc 1 33 16 is_stmt 0
 160 00f4 17050000 		lla	a0,.LC3
 160      13050500 
 161 00fc 97000000 		call	_Z11printStringPKc@plt
 161      E7800000 
GAS LISTING /tmp/ccxVsXL6.s 			page 5


 162              	.LVL16:
  34:src/testcpp.cpp **** }
 163              		.loc 1 34 1
 164 0104 83308101 		ld	ra,24(sp)
 165              		.cfi_restore 1
 166 0108 03340101 		ld	s0,16(sp)
 167              		.cfi_restore 8
 168              		.cfi_def_cfa 2, 32
 169 010c 83348100 		ld	s1,8(sp)
 170              		.cfi_restore 9
 171 0110 03390100 		ld	s2,0(sp)
 172              		.cfi_restore 18
 173              	.LVL17:
 174 0114 13010102 		addi	sp,sp,32
 175              		.cfi_def_cfa_offset 0
 176 0118 67800000 		jr	ra
 177              		.cfi_endproc
 178              	.LFE3:
 180              		.section	.rodata.str1.8
 181 002f 00       		.align	3
 182              	.LC4:
 183 0030 6E697420 		.string	"nit 3\n"
 183      330A00
 184 0037 00       		.align	3
 185              	.LC5:
 186 0038 0A476F74 		.string	"\nGotova nit3\n"
 186      6F766120 
 186      6E697433 
 186      0A00
 187              		.text
 188              		.align	2
 189              		.globl	_Z2f3Pv
 191              	_Z2f3Pv:
 192              	.LFB4:
  35:src/testcpp.cpp **** 
  36:src/testcpp.cpp **** 
  37:src/testcpp.cpp **** void f3(void* end) {
 193              		.loc 1 37 20 is_stmt 1
 194              		.cfi_startproc
 195              	.LVL18:
 196 011c 130101FE 		addi	sp,sp,-32
 197              		.cfi_def_cfa_offset 32
 198 0120 233C1100 		sd	ra,24(sp)
 199 0124 23388100 		sd	s0,16(sp)
 200 0128 23349100 		sd	s1,8(sp)
 201 012c 23302101 		sd	s2,0(sp)
 202              		.cfi_offset 1, -8
 203              		.cfi_offset 8, -16
 204              		.cfi_offset 9, -24
 205              		.cfi_offset 18, -32
 206 0130 13040102 		addi	s0,sp,32
 207              		.cfi_def_cfa 8, 0
 208 0134 13090500 		mv	s2,a0
 209              	.LVL19:
 210              	.L12:
  38:src/testcpp.cpp ****     while (*(int*)end == 0) {
 211              		.loc 1 38 5
GAS LISTING /tmp/ccxVsXL6.s 			page 6


 212              		.loc 1 38 23
 213              		.loc 1 38 12 is_stmt 0
 214 0138 83270900 		lw	a5,0(s2)
 215              		.loc 1 38 23
 216 013c 639C0702 		bnez	a5,.L11
  39:src/testcpp.cpp ****         sem_wait(s23);
 217              		.loc 1 39 9 is_stmt 1
 218              		.loc 1 39 17 is_stmt 0
 219 0140 97040000 		lla	s1,.LANCHOR0
 219      93840400 
 220 0148 03B50401 		ld	a0,16(s1)
 221 014c 97000000 		call	_Z8sem_waitP4KSem@plt
 221      E7800000 
 222              	.LVL20:
  40:src/testcpp.cpp ****         printString("nit 3\n");
 223              		.loc 1 40 9 is_stmt 1
 224              		.loc 1 40 20 is_stmt 0
 225 0154 17050000 		lla	a0,.LC4
 225      13050500 
 226 015c 97000000 		call	_Z11printStringPKc@plt
 226      E7800000 
 227              	.LVL21:
  41:src/testcpp.cpp ****         sem_signal(s31);
 228              		.loc 1 41 9 is_stmt 1
 229              		.loc 1 41 19 is_stmt 0
 230 0164 03B50400 		ld	a0,0(s1)
 231 0168 97000000 		call	_Z10sem_signalP4KSem@plt
 231      E7800000 
 232              	.LVL22:
  38:src/testcpp.cpp ****         sem_wait(s23);
 233              		.loc 1 38 5
 234 0170 6FF09FFC 		j	.L12
 235              	.L11:
  42:src/testcpp.cpp ****     }
  43:src/testcpp.cpp **** 
  44:src/testcpp.cpp ****     printString("\nGotova nit3\n");
 236              		.loc 1 44 5 is_stmt 1
 237              		.loc 1 44 16 is_stmt 0
 238 0174 17050000 		lla	a0,.LC5
 238      13050500 
 239 017c 97000000 		call	_Z11printStringPKc@plt
 239      E7800000 
 240              	.LVL23:
  45:src/testcpp.cpp **** }
 241              		.loc 1 45 1
 242 0184 83308101 		ld	ra,24(sp)
 243              		.cfi_restore 1
 244 0188 03340101 		ld	s0,16(sp)
 245              		.cfi_restore 8
 246              		.cfi_def_cfa 2, 32
 247 018c 83348100 		ld	s1,8(sp)
 248              		.cfi_restore 9
 249 0190 03390100 		ld	s2,0(sp)
 250              		.cfi_restore 18
 251              	.LVL24:
 252 0194 13010102 		addi	sp,sp,32
 253              		.cfi_def_cfa_offset 0
GAS LISTING /tmp/ccxVsXL6.s 			page 7


 254 0198 67800000 		jr	ra
 255              		.cfi_endproc
 256              	.LFE4:
 258              		.section	.rodata._ZN2pt18periodicActivationEv.str1.8,"aMS",@progbits,1
 259              		.align	3
 260              	.LC6:
 261 0000 4A616E6B 		.string	"Janko "
 261      6F2000
 262 0007 00       		.align	3
 263              	.LC7:
 264 0008 0A00     		.string	"\n"
 265              		.section	.text._ZN2pt18periodicActivationEv,"axG",@progbits,_ZN2pt18periodicActivationEv,comdat
 266              		.align	2
 267              		.weak	_ZN2pt18periodicActivationEv
 269              	_ZN2pt18periodicActivationEv:
 270              	.LFB12:
  46:src/testcpp.cpp **** 
  47:src/testcpp.cpp **** class pt:public PeriodicThread{
  48:src/testcpp.cpp **** public:
  49:src/testcpp.cpp ****     time_t period;
  50:src/testcpp.cpp ****     int counter = 5;
  51:src/testcpp.cpp ****     pt(time_t p): PeriodicThread(p),period(p){}
  52:src/testcpp.cpp ****     void periodicActivation() override{
 271              		.loc 1 52 10 is_stmt 1
 272              		.cfi_startproc
 273              	.LVL25:
 274 0000 130101FE 		addi	sp,sp,-32
 275              		.cfi_def_cfa_offset 32
 276 0004 233C1100 		sd	ra,24(sp)
 277 0008 23388100 		sd	s0,16(sp)
 278 000c 23349100 		sd	s1,8(sp)
 279              		.cfi_offset 1, -8
 280              		.cfi_offset 8, -16
 281              		.cfi_offset 9, -24
 282 0010 13040102 		addi	s0,sp,32
 283              		.cfi_def_cfa 8, 0
 284 0014 93040500 		mv	s1,a0
  53:src/testcpp.cpp ****         printString("Janko ");
 285              		.loc 1 53 9
 286              		.loc 1 53 20 is_stmt 0
 287 0018 17050000 		lla	a0,.LC6
 287      13050500 
 288              	.LVL26:
 289 0020 97000000 		call	_Z11printStringPKc@plt
 289      E7800000 
 290              	.LVL27:
  54:src/testcpp.cpp ****         printInt(period);
 291              		.loc 1 54 9 is_stmt 1
 292              		.loc 1 54 17 is_stmt 0
 293 0028 13060000 		li	a2,0
 294 002c 9305A000 		li	a1,10
 295 0030 03A58402 		lw	a0,40(s1)
 296 0034 97000000 		call	_Z8printIntiii@plt
 296      E7800000 
 297              	.LVL28:
  55:src/testcpp.cpp ****         printString("\n");
 298              		.loc 1 55 9 is_stmt 1
GAS LISTING /tmp/ccxVsXL6.s 			page 8


 299              		.loc 1 55 20 is_stmt 0
 300 003c 17050000 		lla	a0,.LC7
 300      13050500 
 301 0044 97000000 		call	_Z11printStringPKc@plt
 301      E7800000 
 302              	.LVL29:
  56:src/testcpp.cpp ****         if(--counter==0)terminate();
 303              		.loc 1 56 9 is_stmt 1
 304              		.loc 1 56 14 is_stmt 0
 305 004c 83A70403 		lw	a5,48(s1)
 306              		.loc 1 56 12
 307 0050 9B87F7FF 		addiw	a5,a5,-1
 308 0054 1B870700 		sext.w	a4,a5
 309              		.loc 1 56 21
 310 0058 23A8F402 		sw	a5,48(s1)
 311              		.loc 1 56 9
 312 005c 630C0700 		beqz	a4,.L17
 313              	.L14:
  57:src/testcpp.cpp ****     }
 314              		.loc 1 57 5
 315 0060 83308101 		ld	ra,24(sp)
 316              		.cfi_remember_state
 317              		.cfi_restore 1
 318 0064 03340101 		ld	s0,16(sp)
 319              		.cfi_restore 8
 320              		.cfi_def_cfa 2, 32
 321 0068 83348100 		ld	s1,8(sp)
 322              		.cfi_restore 9
 323              	.LVL30:
 324 006c 13010102 		addi	sp,sp,32
 325              		.cfi_def_cfa_offset 0
 326 0070 67800000 		jr	ra
 327              	.LVL31:
 328              	.L17:
 329              		.cfi_restore_state
  56:src/testcpp.cpp ****         if(--counter==0)terminate();
 330              		.loc 1 56 25 is_stmt 1 discriminator 1
  56:src/testcpp.cpp ****         if(--counter==0)terminate();
 331              		.loc 1 56 34 is_stmt 0 discriminator 1
 332 0074 13850400 		mv	a0,s1
 333 0078 97000000 		call	_ZN14PeriodicThread9terminateEv@plt
 333      E7800000 
 334              	.LVL32:
 335              		.loc 1 57 5 discriminator 1
 336 0080 6FF01FFE 		j	.L14
 337              		.cfi_endproc
 338              	.LFE12:
 340              		.section	.text._ZN2ptD2Ev,"axG",@progbits,_ZN2ptD5Ev,comdat
 341              		.align	2
 342              		.weak	_ZN2ptD2Ev
 344              	_ZN2ptD2Ev:
 345              	.LFB15:
  47:src/testcpp.cpp **** public:
 346              		.loc 1 47 7 is_stmt 1
 347              		.cfi_startproc
 348              	.LVL33:
 349 0000 130101FF 		addi	sp,sp,-16
GAS LISTING /tmp/ccxVsXL6.s 			page 9


 350              		.cfi_def_cfa_offset 16
 351 0004 23341100 		sd	ra,8(sp)
 352 0008 23308100 		sd	s0,0(sp)
 353              		.cfi_offset 1, -8
 354              		.cfi_offset 8, -16
 355 000c 13040101 		addi	s0,sp,16
 356              		.cfi_def_cfa 8, 0
 357              	.LVL34:
 358              	.LBB17:
 359              	.LBB18:
 360              		.file 2 "src/../h/syscall_cpp.hpp"
   1:src/../h/syscall_cpp.hpp **** #ifndef _syscall_cpp
   2:src/../h/syscall_cpp.hpp **** #define _syscall_cpp
   3:src/../h/syscall_cpp.hpp **** 
   4:src/../h/syscall_cpp.hpp **** #include "../lib/hw.h"
   5:src/../h/syscall_cpp.hpp **** 
   6:src/../h/syscall_cpp.hpp **** void* operator new(size_t);
   7:src/../h/syscall_cpp.hpp **** 
   8:src/../h/syscall_cpp.hpp **** void* operator new[](size_t);
   9:src/../h/syscall_cpp.hpp **** 
  10:src/../h/syscall_cpp.hpp **** void operator delete(void*)
  11:src/../h/syscall_cpp.hpp **** 
  12:src/../h/syscall_cpp.hpp **** noexcept;
  13:src/../h/syscall_cpp.hpp **** 
  14:src/../h/syscall_cpp.hpp **** void operator delete[](void*)
  15:src/../h/syscall_cpp.hpp **** 
  16:src/../h/syscall_cpp.hpp **** noexcept;
  17:src/../h/syscall_cpp.hpp **** 
  18:src/../h/syscall_cpp.hpp **** class TCB;
  19:src/../h/syscall_cpp.hpp **** 
  20:src/../h/syscall_cpp.hpp **** typedef TCB* thread_t;
  21:src/../h/syscall_cpp.hpp **** 
  22:src/../h/syscall_cpp.hpp **** class KSem;
  23:src/../h/syscall_cpp.hpp **** 
  24:src/../h/syscall_cpp.hpp **** typedef KSem* sem_t;
  25:src/../h/syscall_cpp.hpp **** 
  26:src/../h/syscall_cpp.hpp **** class Thread {
  27:src/../h/syscall_cpp.hpp **** public:
  28:src/../h/syscall_cpp.hpp ****     //konstruktor koji pravi nit koja izvrsava zadatu funkciju sa zadatim argumentima, ne pokrece n
  29:src/../h/syscall_cpp.hpp ****     Thread(void (* body)(void*), void* arg);
  30:src/../h/syscall_cpp.hpp **** 
  31:src/../h/syscall_cpp.hpp ****     virtual ~Thread();
  32:src/../h/syscall_cpp.hpp **** 
  33:src/../h/syscall_cpp.hpp ****     //stavlja nit u Scheduler
  34:src/../h/syscall_cpp.hpp ****     int start();
  35:src/../h/syscall_cpp.hpp **** 
  36:src/../h/syscall_cpp.hpp ****     //pozivajuca (running) nit se suspenduje dok se nit ciji se metod poziva(this) ne zavrsi
  37:src/../h/syscall_cpp.hpp ****     void join();
  38:src/../h/syscall_cpp.hpp **** 
  39:src/../h/syscall_cpp.hpp ****     //sinhrona promena konteksta
  40:src/../h/syscall_cpp.hpp ****     static void dispatch();
  41:src/../h/syscall_cpp.hpp **** 
  42:src/../h/syscall_cpp.hpp ****     //uspavljuje tekucu nit na zadati period
  43:src/../h/syscall_cpp.hpp ****     static int sleep(time_t);
  44:src/../h/syscall_cpp.hpp **** 
  45:src/../h/syscall_cpp.hpp **** protected:
  46:src/../h/syscall_cpp.hpp ****     //konstruktor koji pravi nit koja izvrsava run metodu, ne stavlja je u Scheduler
GAS LISTING /tmp/ccxVsXL6.s 			page 10


  47:src/../h/syscall_cpp.hpp ****     Thread();
  48:src/../h/syscall_cpp.hpp **** 
  49:src/../h/syscall_cpp.hpp ****     //funkcija koju nit izvrsava, samo ako je nit napravljena podrazumevanim konstruktorom
  50:src/../h/syscall_cpp.hpp ****     virtual void run() {}
  51:src/../h/syscall_cpp.hpp **** 
  52:src/../h/syscall_cpp.hpp **** private:
  53:src/../h/syscall_cpp.hpp ****     //pokazivac na TCB strukturu kernela
  54:src/../h/syscall_cpp.hpp ****     thread_t myHandle;
  55:src/../h/syscall_cpp.hpp **** 
  56:src/../h/syscall_cpp.hpp ****     void (* body)(void*);
  57:src/../h/syscall_cpp.hpp **** 
  58:src/../h/syscall_cpp.hpp ****     void* arg;
  59:src/../h/syscall_cpp.hpp **** 
  60:src/../h/syscall_cpp.hpp ****     static void wrapper(void* thread);
  61:src/../h/syscall_cpp.hpp **** };
  62:src/../h/syscall_cpp.hpp **** 
  63:src/../h/syscall_cpp.hpp **** 
  64:src/../h/syscall_cpp.hpp **** class Semaphore {
  65:src/../h/syscall_cpp.hpp **** public:
  66:src/../h/syscall_cpp.hpp **** 
  67:src/../h/syscall_cpp.hpp ****     Semaphore(unsigned init = 1);
  68:src/../h/syscall_cpp.hpp **** 
  69:src/../h/syscall_cpp.hpp ****     virtual ~Semaphore();
  70:src/../h/syscall_cpp.hpp **** 
  71:src/../h/syscall_cpp.hpp ****     int wait();
  72:src/../h/syscall_cpp.hpp **** 
  73:src/../h/syscall_cpp.hpp ****     int signal();
  74:src/../h/syscall_cpp.hpp **** 
  75:src/../h/syscall_cpp.hpp **** private:
  76:src/../h/syscall_cpp.hpp ****     sem_t myHandle;
  77:src/../h/syscall_cpp.hpp **** };
  78:src/../h/syscall_cpp.hpp **** 
  79:src/../h/syscall_cpp.hpp **** 
  80:src/../h/syscall_cpp.hpp **** class PeriodicThread : public Thread {
 361              		.loc 2 80 7 is_stmt 0
 362 0010 97070000 		la	a5,_ZTV14PeriodicThread
 362      83B70700 
 363 0018 93870701 		addi	a5,a5,16
 364 001c 2330F500 		sd	a5,0(a0)
 365 0020 97000000 		call	_ZN6ThreadD2Ev@plt
 365      E7800000 
 366              	.LVL35:
 367              	.LBE18:
 368              	.LBE17:
  47:src/testcpp.cpp **** public:
 369              		.loc 1 47 7
 370 0028 83308100 		ld	ra,8(sp)
 371              		.cfi_restore 1
 372 002c 03340100 		ld	s0,0(sp)
 373              		.cfi_restore 8
 374              		.cfi_def_cfa 2, 16
 375 0030 13010101 		addi	sp,sp,16
 376              		.cfi_def_cfa_offset 0
 377 0034 67800000 		jr	ra
 378              		.cfi_endproc
 379              	.LFE15:
 381              		.weak	_ZN2ptD1Ev
GAS LISTING /tmp/ccxVsXL6.s 			page 11


 382              		.set	_ZN2ptD1Ev,_ZN2ptD2Ev
 383              		.section	.text._ZN2ptD0Ev,"axG",@progbits,_ZN2ptD5Ev,comdat
 384              		.align	2
 385              		.weak	_ZN2ptD0Ev
 387              	_ZN2ptD0Ev:
 388              	.LFB17:
  47:src/testcpp.cpp **** public:
 389              		.loc 1 47 7 is_stmt 1
 390              		.cfi_startproc
 391              	.LVL36:
 392 0000 130101FE 		addi	sp,sp,-32
 393              		.cfi_def_cfa_offset 32
 394 0004 233C1100 		sd	ra,24(sp)
 395 0008 23388100 		sd	s0,16(sp)
 396 000c 23349100 		sd	s1,8(sp)
 397              		.cfi_offset 1, -8
 398              		.cfi_offset 8, -16
 399              		.cfi_offset 9, -24
 400 0010 13040102 		addi	s0,sp,32
 401              		.cfi_def_cfa 8, 0
 402 0014 93040500 		mv	s1,a0
 403              	.LVL37:
 404              	.LBB19:
 405              	.LBB20:
 406              	.LBB21:
 407              		.loc 2 80 7 is_stmt 0
 408 0018 97070000 		la	a5,_ZTV14PeriodicThread
 408      83B70700 
 409 0020 93870701 		addi	a5,a5,16
 410 0024 2330F500 		sd	a5,0(a0)
 411 0028 97000000 		call	_ZN6ThreadD2Ev@plt
 411      E7800000 
 412              	.LVL38:
 413              	.LBE21:
 414              	.LBE20:
 415              	.LBE19:
  47:src/testcpp.cpp **** public:
 416              		.loc 1 47 7
 417 0030 13850400 		mv	a0,s1
 418 0034 97000000 		call	_ZdlPv@plt
 418      E7800000 
 419              	.LVL39:
 420 003c 83308101 		ld	ra,24(sp)
 421              		.cfi_restore 1
 422 0040 03340101 		ld	s0,16(sp)
 423              		.cfi_restore 8
 424              		.cfi_def_cfa 2, 32
 425 0044 83348100 		ld	s1,8(sp)
 426              		.cfi_restore 9
 427              	.LVL40:
 428 0048 13010102 		addi	sp,sp,32
 429              		.cfi_def_cfa_offset 0
 430 004c 67800000 		jr	ra
 431              		.cfi_endproc
 432              	.LFE17:
 434              		.section	.rodata.str1.8
 435 0046 0000     		.align	3
GAS LISTING /tmp/ccxVsXL6.s 			page 12


 436              	.LC8:
 437 0048 0A476F74 		.string	"\nGotove user niti\n"
 437      6F766520 
 437      75736572 
 437      206E6974 
 437      690A00
 438 005b 00000000 		.align	3
 438      00
 439              	.LC9:
 440 0060 0A536164 		.string	"\nSad cu da izadjem iz usera\n"
 440      20637520 
 440      64612069 
 440      7A61646A 
 440      656D2069 
 441              		.text
 442              		.align	2
 443              		.globl	_Z4userPv
 445              	_Z4userPv:
 446              	.LFB13:
  58:src/testcpp.cpp **** };
  59:src/testcpp.cpp **** void user(void*) {
 447              		.loc 1 59 18 is_stmt 1
 448              		.cfi_startproc
 449              		.cfi_personality 0x9b,DW.ref.__gxx_personality_v0
 450              		.cfi_lsda 0x1b,.LLSDA13
 451 019c 130101FC 		addi	sp,sp,-64
 452              		.cfi_def_cfa_offset 64
 453 01a0 233C1102 		sd	ra,56(sp)
 454 01a4 23388102 		sd	s0,48(sp)
 455 01a8 23349102 		sd	s1,40(sp)
 456 01ac 23302103 		sd	s2,32(sp)
 457 01b0 233C3101 		sd	s3,24(sp)
 458 01b4 23384101 		sd	s4,16(sp)
 459              		.cfi_offset 1, -8
 460              		.cfi_offset 8, -16
 461              		.cfi_offset 9, -24
 462              		.cfi_offset 18, -32
 463              		.cfi_offset 19, -40
 464              		.cfi_offset 20, -48
 465 01b8 13040104 		addi	s0,sp,64
 466              		.cfi_def_cfa 8, 0
  60:src/testcpp.cpp ****     int end = 0;
 467              		.loc 1 60 5
 468              		.loc 1 60 9 is_stmt 0
 469 01bc 232604FC 		sw	zero,-52(s0)
  61:src/testcpp.cpp ****     Thread* nit1 = new Thread(f1, &end);
 470              		.loc 1 61 5 is_stmt 1
 471              		.loc 1 61 39 is_stmt 0
 472 01c0 13050002 		li	a0,32
 473              	.LEHB0:
 474 01c4 97000000 		call	_Znwm@plt
 474      E7800000 
 475              	.LVL41:
 476              	.LEHE0:
 477 01cc 130A0500 		mv	s4,a0
 478 01d0 1306C4FC 		addi	a2,s0,-52
 479 01d4 97050000 		lla	a1,_Z2f1Pv
GAS LISTING /tmp/ccxVsXL6.s 			page 13


 479      93850500 
 480              	.LEHB1:
 481 01dc 97000000 		call	_ZN6ThreadC1EPFvPvES0_@plt
 481      E7800000 
 482              	.LVL42:
 483              	.LEHE1:
  62:src/testcpp.cpp ****     Thread* nit2 = new Thread(f2, &end);
 484              		.loc 1 62 5 is_stmt 1 discriminator 3
 485              		.loc 1 62 39 is_stmt 0 discriminator 3
 486 01e4 13050002 		li	a0,32
 487              	.LEHB2:
 488 01e8 97000000 		call	_Znwm@plt
 488      E7800000 
 489              	.LVL43:
 490              	.LEHE2:
 491 01f0 93090500 		mv	s3,a0
 492 01f4 1306C4FC 		addi	a2,s0,-52
 493 01f8 97050000 		lla	a1,_Z2f2Pv
 493      93850500 
 494              	.LEHB3:
 495 0200 97000000 		call	_ZN6ThreadC1EPFvPvES0_@plt
 495      E7800000 
 496              	.LVL44:
 497              	.LEHE3:
  63:src/testcpp.cpp ****     Thread* nit3 = new Thread(f3, &end);
 498              		.loc 1 63 5 is_stmt 1 discriminator 3
 499              		.loc 1 63 39 is_stmt 0 discriminator 3
 500 0208 13050002 		li	a0,32
 501              	.LEHB4:
 502 020c 97000000 		call	_Znwm@plt
 502      E7800000 
 503              	.LVL45:
 504              	.LEHE4:
 505 0214 13090500 		mv	s2,a0
 506 0218 1306C4FC 		addi	a2,s0,-52
 507 021c 97050000 		lla	a1,_Z2f3Pv
 507      93850500 
 508              	.LEHB5:
 509 0224 97000000 		call	_ZN6ThreadC1EPFvPvES0_@plt
 509      E7800000 
 510              	.LVL46:
 511              	.LEHE5:
  64:src/testcpp.cpp ****     PeriodicThread* per = new pt(10);
 512              		.loc 1 64 5 is_stmt 1 discriminator 3
 513              		.loc 1 64 36 is_stmt 0 discriminator 3
 514 022c 13058003 		li	a0,56
 515              	.LEHB6:
 516 0230 97000000 		call	_Znwm@plt
 516      E7800000 
 517              	.LVL47:
 518              	.LEHE6:
 519 0238 93040500 		mv	s1,a0
 520              	.LVL48:
 521              	.LBB22:
 522              	.LBB23:
  51:src/testcpp.cpp ****     void periodicActivation() override{
 523              		.loc 1 51 45 discriminator 3
GAS LISTING /tmp/ccxVsXL6.s 			page 14


 524 023c 9305A000 		li	a1,10
 525              	.LEHB7:
 526 0240 97000000 		call	_ZN14PeriodicThreadC2Em@plt
 526      E7800000 
 527              	.LVL49:
 528              	.LEHE7:
  51:src/testcpp.cpp ****     void periodicActivation() override{
 529              		.loc 1 51 45
 530 0248 97070000 		lla	a5,_ZTV2pt+16
 530      93870700 
 531 0250 23B0F400 		sd	a5,0(s1)
 532 0254 9307A000 		li	a5,10
 533 0258 23B4F402 		sd	a5,40(s1)
 534 025c 93075000 		li	a5,5
 535 0260 23A8F402 		sw	a5,48(s1)
 536              	.LVL50:
 537              	.LBE23:
 538              	.LBE22:
  65:src/testcpp.cpp ****     sem_open(&s12, 0);
 539              		.loc 1 65 5 is_stmt 1
 540              		.loc 1 65 13 is_stmt 0
 541 0264 93050000 		li	a1,0
 542 0268 17050000 		lla	a0,.LANCHOR0+8
 542      13050500 
 543              	.LEHB8:
 544 0270 97000000 		call	_Z8sem_openPP4KSemj@plt
 544      E7800000 
 545              	.LVL51:
  66:src/testcpp.cpp ****     sem_open(&s23, 1);
 546              		.loc 1 66 5 is_stmt 1
 547              		.loc 1 66 13 is_stmt 0
 548 0278 93051000 		li	a1,1
 549 027c 17050000 		lla	a0,.LANCHOR0+16
 549      13050500 
 550 0284 97000000 		call	_Z8sem_openPP4KSemj@plt
 550      E7800000 
 551              	.LVL52:
  67:src/testcpp.cpp ****     sem_open(&s31, 0);
 552              		.loc 1 67 5 is_stmt 1
 553              		.loc 1 67 13 is_stmt 0
 554 028c 93050000 		li	a1,0
 555 0290 17050000 		lla	a0,.LANCHOR0
 555      13050500 
 556 0298 97000000 		call	_Z8sem_openPP4KSemj@plt
 556      E7800000 
 557              	.LVL53:
  68:src/testcpp.cpp ****     nit1->start();
 558              		.loc 1 68 5 is_stmt 1
 559              		.loc 1 68 16 is_stmt 0
 560 02a0 13050A00 		mv	a0,s4
 561 02a4 97000000 		call	_ZN6Thread5startEv@plt
 561      E7800000 
 562              	.LVL54:
  69:src/testcpp.cpp ****     nit2->start();
 563              		.loc 1 69 5 is_stmt 1
 564              		.loc 1 69 16 is_stmt 0
 565 02ac 13850900 		mv	a0,s3
GAS LISTING /tmp/ccxVsXL6.s 			page 15


 566 02b0 97000000 		call	_ZN6Thread5startEv@plt
 566      E7800000 
 567              	.LVL55:
  70:src/testcpp.cpp ****     nit3->start();
 568              		.loc 1 70 5 is_stmt 1
 569              		.loc 1 70 16 is_stmt 0
 570 02b8 13050900 		mv	a0,s2
 571 02bc 97000000 		call	_ZN6Thread5startEv@plt
 571      E7800000 
 572              	.LVL56:
  71:src/testcpp.cpp ****     per->start();
 573              		.loc 1 71 5 is_stmt 1
 574              		.loc 1 71 15 is_stmt 0
 575 02c4 13850400 		mv	a0,s1
 576 02c8 97000000 		call	_ZN6Thread5startEv@plt
 576      E7800000 
 577              	.LVL57:
  72:src/testcpp.cpp **** 
  73:src/testcpp.cpp ****     nit1->join();
 578              		.loc 1 73 5 is_stmt 1
 579              		.loc 1 73 15 is_stmt 0
 580 02d0 13050A00 		mv	a0,s4
 581 02d4 97000000 		call	_ZN6Thread4joinEv@plt
 581      E7800000 
 582              	.LVL58:
  74:src/testcpp.cpp ****     nit2->join();
 583              		.loc 1 74 5 is_stmt 1
 584              		.loc 1 74 15 is_stmt 0
 585 02dc 13850900 		mv	a0,s3
 586 02e0 97000000 		call	_ZN6Thread4joinEv@plt
 586      E7800000 
 587              	.LVL59:
  75:src/testcpp.cpp ****     nit3->join();
 588              		.loc 1 75 5 is_stmt 1
 589              		.loc 1 75 15 is_stmt 0
 590 02e8 13050900 		mv	a0,s2
 591 02ec 97000000 		call	_ZN6Thread4joinEv@plt
 591      E7800000 
 592              	.LVL60:
  76:src/testcpp.cpp ****     per->terminate();
 593              		.loc 1 76 5 is_stmt 1
 594              		.loc 1 76 19 is_stmt 0
 595 02f4 13850400 		mv	a0,s1
 596 02f8 97000000 		call	_ZN14PeriodicThread9terminateEv@plt
 596      E7800000 
 597              	.LVL61:
  77:src/testcpp.cpp **** 
  78:src/testcpp.cpp ****     per->join();
 598              		.loc 1 78 5 is_stmt 1
 599              		.loc 1 78 14 is_stmt 0
 600 0300 13850400 		mv	a0,s1
 601 0304 97000000 		call	_ZN6Thread4joinEv@plt
 601      E7800000 
 602              	.LVL62:
  79:src/testcpp.cpp ****     printString("\nGotove user niti\n");
 603              		.loc 1 79 5 is_stmt 1
 604              		.loc 1 79 16 is_stmt 0
GAS LISTING /tmp/ccxVsXL6.s 			page 16


 605 030c 17050000 		lla	a0,.LC8
 605      13050500 
 606 0314 97000000 		call	_Z11printStringPKc@plt
 606      E7800000 
 607              	.LVL63:
  80:src/testcpp.cpp **** 
  81:src/testcpp.cpp ****     printString("\nSad cu da izadjem iz usera\n");
 608              		.loc 1 81 5 is_stmt 1
 609              		.loc 1 81 16 is_stmt 0
 610 031c 17050000 		lla	a0,.LC9
 610      13050500 
 611 0324 97000000 		call	_Z11printStringPKc@plt
 611      E7800000 
 612              	.LVL64:
  82:src/testcpp.cpp **** }...
 613              		.loc 1 82 1
 614 032c 83308103 		ld	ra,56(sp)
 615              		.cfi_remember_state
 616              		.cfi_restore 1
 617 0330 03340103 		ld	s0,48(sp)
 618              		.cfi_restore 8
 619              		.cfi_def_cfa 2, 64
 620 0334 83348102 		ld	s1,40(sp)
 621              		.cfi_restore 9
 622              	.LVL65:
 623 0338 03390102 		ld	s2,32(sp)
 624              		.cfi_restore 18
 625              	.LVL66:
 626 033c 83398101 		ld	s3,24(sp)
 627              		.cfi_restore 19
 628              	.LVL67:
 629 0340 033A0101 		ld	s4,16(sp)
 630              		.cfi_restore 20
 631              	.LVL68:
 632 0344 13010104 		addi	sp,sp,64
 633              		.cfi_def_cfa_offset 0
 634 0348 67800000 		jr	ra
 635              	.L27:
 636              		.cfi_restore_state
 637 034c 93040500 		mv	s1,a0
  61:src/testcpp.cpp ****     Thread* nit1 = new Thread(f1, &end);
 638              		.loc 1 61 39
 639 0350 13050A00 		mv	a0,s4
 640 0354 97000000 		call	_ZdlPv@plt
 640      E7800000 
 641              	.LVL69:
 642 035c 13850400 		mv	a0,s1
 643 0360 97000000 		call	_Unwind_Resume@plt
 643      E7800000 
 644              	.LVL70:
 645              	.L28:
 646 0368 93040500 		mv	s1,a0
  62:src/testcpp.cpp ****     Thread* nit2 = new Thread(f2, &end);
 647              		.loc 1 62 39
 648 036c 13850900 		mv	a0,s3
 649 0370 97000000 		call	_ZdlPv@plt
 649      E7800000 
GAS LISTING /tmp/ccxVsXL6.s 			page 17


 650              	.LVL71:
 651 0378 13850400 		mv	a0,s1
 652 037c 97000000 		call	_Unwind_Resume@plt
 652      E7800000 
 653              	.LVL72:
 654              	.L29:
 655 0384 93040500 		mv	s1,a0
  63:src/testcpp.cpp ****     Thread* nit3 = new Thread(f3, &end);
 656              		.loc 1 63 39
 657 0388 13050900 		mv	a0,s2
 658 038c 97000000 		call	_ZdlPv@plt
 658      E7800000 
 659              	.LVL73:
 660 0394 13850400 		mv	a0,s1
 661 0398 97000000 		call	_Unwind_Resume@plt
 661      E7800000 
 662              	.LVL74:
 663              	.L30:
 664 03a0 13090500 		mv	s2,a0
 665              	.LVL75:
  64:src/testcpp.cpp ****     PeriodicThread* per = new pt(10);
 666              		.loc 1 64 36
 667 03a4 13850400 		mv	a0,s1
 668 03a8 97000000 		call	_ZdlPv@plt
 668      E7800000 
 669              	.LVL76:
 670 03b0 13050900 		mv	a0,s2
 671 03b4 97000000 		call	_Unwind_Resume@plt
 671      E7800000 
 672              	.LVL77:
 673              	.LEHE8:
 674              		.cfi_endproc
 675              	.LFE13:
 676              		.globl	__gxx_personality_v0
 677              		.section	.gcc_except_table,"a",@progbits
 678              	.LLSDA13:
 679 0000 FF       		.byte	0xff
 680 0001 FF       		.byte	0xff
 681 0002 03       		.byte	0x3
 682 0003 75       		.byte	0x75
 683 0004 00000000 		.4byte	.LEHB0-.LFB13
 684 0008 00000000 		.4byte	.LEHE0-.LEHB0
 685 000c 00000000 		.4byte	0
 686 0010 00       		.byte	0
 687 0011 00000000 		.4byte	.LEHB1-.LFB13
 688 0015 00000000 		.4byte	.LEHE1-.LEHB1
 689 0019 00000000 		.4byte	.L27-.LFB13
 690 001d 00       		.byte	0
 691 001e 00000000 		.4byte	.LEHB2-.LFB13
 692 0022 00000000 		.4byte	.LEHE2-.LEHB2
 693 0026 00000000 		.4byte	0
 694 002a 00       		.byte	0
 695 002b 00000000 		.4byte	.LEHB3-.LFB13
 696 002f 00000000 		.4byte	.LEHE3-.LEHB3
 697 0033 00000000 		.4byte	.L28-.LFB13
 698 0037 00       		.byte	0
 699 0038 00000000 		.4byte	.LEHB4-.LFB13
GAS LISTING /tmp/ccxVsXL6.s 			page 18


 700 003c 00000000 		.4byte	.LEHE4-.LEHB4
 701 0040 00000000 		.4byte	0
 702 0044 00       		.byte	0
 703 0045 00000000 		.4byte	.LEHB5-.LFB13
 704 0049 00000000 		.4byte	.LEHE5-.LEHB5
 705 004d 00000000 		.4byte	.L29-.LFB13
 706 0051 00       		.byte	0
 707 0052 00000000 		.4byte	.LEHB6-.LFB13
 708 0056 00000000 		.4byte	.LEHE6-.LEHB6
 709 005a 00000000 		.4byte	0
 710 005e 00       		.byte	0
 711 005f 00000000 		.4byte	.LEHB7-.LFB13
 712 0063 00000000 		.4byte	.LEHE7-.LEHB7
 713 0067 00000000 		.4byte	.L30-.LFB13
 714 006b 00       		.byte	0
 715 006c 00000000 		.4byte	.LEHB8-.LFB13
 716 0070 00000000 		.4byte	.LEHE8-.LEHB8
 717 0074 00000000 		.4byte	0
 718 0078 00       		.byte	0
 719              		.text
 721              		.weak	_ZTV2pt
 722              		.section	.data.rel.ro._ZTV2pt,"awG",@progbits,_ZTV2pt,comdat
 723              		.align	3
 726              	_ZTV2pt:
 727 0000 00000000 		.dword	0
 727      00000000 
 728 0008 00000000 		.dword	0
 728      00000000 
 729 0010 00000000 		.dword	_ZN2ptD1Ev
 729      00000000 
 730 0018 00000000 		.dword	_ZN2ptD0Ev
 730      00000000 
 731 0020 00000000 		.dword	_ZN14PeriodicThread3runEv
 731      00000000 
 732 0028 00000000 		.dword	_ZN2pt18periodicActivationEv
 732      00000000 
 733              		.globl	s31
 734              		.globl	s23
 735              		.globl	s12
 736              		.bss
 737              		.align	3
 738              		.set	.LANCHOR0,. + 0
 741              	s31:
 742 0000 00000000 		.zero	8
 742      00000000 
 745              	s12:
 746 0008 00000000 		.zero	8
 746      00000000 
 749              	s23:
 750 0010 00000000 		.zero	8
 750      00000000 
 751              		.text
 752              	.Letext0:
 753              		.file 3 "src/../h/../lib/hw.h"
 754              		.file 4 "src/../h/syscall_c.hpp"
 755              		.file 5 "src/../test/printing.hpp"
 3186              		.align	3
GAS LISTING /tmp/ccxVsXL6.s 			page 19


 3189              	DW.ref.__gxx_personality_v0:
 3190 0000 00000000 		.dword	__gxx_personality_v0
 3190      00000000 
 3191              		.ident	"GCC: (Ubuntu 9.4.0-1ubuntu1~20.04) 9.4.0"
 3192              		.section	.note.GNU-stack,"",@progbits
GAS LISTING /tmp/ccxVsXL6.s 			page 20


DEFINED SYMBOLS
                            *ABS*:0000000000000000 testcpp.cpp
     /tmp/ccxVsXL6.s:17     .text:0000000000000000 _Z2f1Pv
     /tmp/ccxVsXL6.s:21     .text:0000000000000000 .L0 
     /tmp/ccxVsXL6.s:23     .text:0000000000000000 .L0 
     /tmp/ccxVsXL6.s:24     .text:0000000000000004 .L0 
     /tmp/ccxVsXL6.s:29     .text:0000000000000014 .L0 
     /tmp/ccxVsXL6.s:30     .text:0000000000000014 .L0 
     /tmp/ccxVsXL6.s:31     .text:0000000000000014 .L0 
     /tmp/ccxVsXL6.s:32     .text:0000000000000014 .L0 
     /tmp/ccxVsXL6.s:34     .text:0000000000000018 .L0 
     /tmp/ccxVsXL6.s:38     .text:000000000000001c .L0 
     /tmp/ccxVsXL6.s:39     .text:000000000000001c .L0 
     /tmp/ccxVsXL6.s:44     .text:0000000000000024 .L0 
     /tmp/ccxVsXL6.s:45     .text:0000000000000024 .L0 
     /tmp/ccxVsXL6.s:50     .text:0000000000000034 .L0 
     /tmp/ccxVsXL6.s:51     .text:0000000000000034 .L0 
     /tmp/ccxVsXL6.s:52     .text:0000000000000034 .L0 
     /tmp/ccxVsXL6.s:54     .text:0000000000000038 .L0 
     /tmp/ccxVsXL6.s:56     .text:000000000000003c .L0 
     /tmp/ccxVsXL6.s:57     .text:000000000000003c .L0 
     /tmp/ccxVsXL6.s:61     .text:000000000000004c .L0 
     /tmp/ccxVsXL6.s:62     .text:000000000000004c .L0 
     /tmp/ccxVsXL6.s:66     .text:000000000000005c .L0 
     /tmp/ccxVsXL6.s:67     .text:000000000000005c .L0 
     /tmp/ccxVsXL6.s:70     .text:0000000000000060 .L0 
     /tmp/ccxVsXL6.s:73     .text:0000000000000068 .L0 
     /tmp/ccxVsXL6.s:74     .text:0000000000000068 .L0 
     /tmp/ccxVsXL6.s:80     .text:0000000000000074 .L0 
     /tmp/ccxVsXL6.s:81     .text:0000000000000074 .L0 
     /tmp/ccxVsXL6.s:85     .text:0000000000000084 .L0 
     /tmp/ccxVsXL6.s:86     .text:0000000000000088 .L0 
     /tmp/ccxVsXL6.s:88     .text:000000000000008c .L0 
     /tmp/ccxVsXL6.s:89     .text:000000000000008c .L0 
     /tmp/ccxVsXL6.s:91     .text:0000000000000090 .L0 
     /tmp/ccxVsXL6.s:94     .text:0000000000000094 .L0 
     /tmp/ccxVsXL6.s:97     .text:0000000000000098 .L0 
     /tmp/ccxVsXL6.s:99     .text:000000000000009c .L0 
     /tmp/ccxVsXL6.s:113    .text:000000000000009c _Z2f2Pv
     /tmp/ccxVsXL6.s:116    .text:000000000000009c .L0 
     /tmp/ccxVsXL6.s:118    .text:000000000000009c .L0 
     /tmp/ccxVsXL6.s:119    .text:00000000000000a0 .L0 
     /tmp/ccxVsXL6.s:124    .text:00000000000000b0 .L0 
     /tmp/ccxVsXL6.s:125    .text:00000000000000b0 .L0 
     /tmp/ccxVsXL6.s:126    .text:00000000000000b0 .L0 
     /tmp/ccxVsXL6.s:127    .text:00000000000000b0 .L0 
     /tmp/ccxVsXL6.s:129    .text:00000000000000b4 .L0 
     /tmp/ccxVsXL6.s:134    .text:00000000000000b8 .L0 
     /tmp/ccxVsXL6.s:135    .text:00000000000000b8 .L0 
     /tmp/ccxVsXL6.s:136    .text:00000000000000b8 .L0 
     /tmp/ccxVsXL6.s:138    .text:00000000000000bc .L0 
     /tmp/ccxVsXL6.s:140    .text:00000000000000c0 .L0 
     /tmp/ccxVsXL6.s:141    .text:00000000000000c0 .L0 
     /tmp/ccxVsXL6.s:146    .text:00000000000000d4 .L0 
     /tmp/ccxVsXL6.s:147    .text:00000000000000d4 .L0 
     /tmp/ccxVsXL6.s:151    .text:00000000000000e4 .L0 
     /tmp/ccxVsXL6.s:152    .text:00000000000000e4 .L0 
GAS LISTING /tmp/ccxVsXL6.s 			page 21


     /tmp/ccxVsXL6.s:156    .text:00000000000000f0 .L0 
     /tmp/ccxVsXL6.s:159    .text:00000000000000f4 .L0 
     /tmp/ccxVsXL6.s:160    .text:00000000000000f4 .L0 
     /tmp/ccxVsXL6.s:164    .text:0000000000000104 .L0 
     /tmp/ccxVsXL6.s:165    .text:0000000000000108 .L0 
     /tmp/ccxVsXL6.s:167    .text:000000000000010c .L0 
     /tmp/ccxVsXL6.s:168    .text:000000000000010c .L0 
     /tmp/ccxVsXL6.s:170    .text:0000000000000110 .L0 
     /tmp/ccxVsXL6.s:172    .text:0000000000000114 .L0 
     /tmp/ccxVsXL6.s:175    .text:0000000000000118 .L0 
     /tmp/ccxVsXL6.s:177    .text:000000000000011c .L0 
     /tmp/ccxVsXL6.s:191    .text:000000000000011c _Z2f3Pv
     /tmp/ccxVsXL6.s:194    .text:000000000000011c .L0 
     /tmp/ccxVsXL6.s:196    .text:000000000000011c .L0 
     /tmp/ccxVsXL6.s:197    .text:0000000000000120 .L0 
     /tmp/ccxVsXL6.s:202    .text:0000000000000130 .L0 
     /tmp/ccxVsXL6.s:203    .text:0000000000000130 .L0 
     /tmp/ccxVsXL6.s:204    .text:0000000000000130 .L0 
     /tmp/ccxVsXL6.s:205    .text:0000000000000130 .L0 
     /tmp/ccxVsXL6.s:207    .text:0000000000000134 .L0 
     /tmp/ccxVsXL6.s:212    .text:0000000000000138 .L0 
     /tmp/ccxVsXL6.s:213    .text:0000000000000138 .L0 
     /tmp/ccxVsXL6.s:214    .text:0000000000000138 .L0 
     /tmp/ccxVsXL6.s:216    .text:000000000000013c .L0 
     /tmp/ccxVsXL6.s:218    .text:0000000000000140 .L0 
     /tmp/ccxVsXL6.s:219    .text:0000000000000140 .L0 
     /tmp/ccxVsXL6.s:224    .text:0000000000000154 .L0 
     /tmp/ccxVsXL6.s:225    .text:0000000000000154 .L0 
     /tmp/ccxVsXL6.s:229    .text:0000000000000164 .L0 
     /tmp/ccxVsXL6.s:230    .text:0000000000000164 .L0 
     /tmp/ccxVsXL6.s:234    .text:0000000000000170 .L0 
     /tmp/ccxVsXL6.s:237    .text:0000000000000174 .L0 
     /tmp/ccxVsXL6.s:238    .text:0000000000000174 .L0 
     /tmp/ccxVsXL6.s:242    .text:0000000000000184 .L0 
     /tmp/ccxVsXL6.s:243    .text:0000000000000188 .L0 
     /tmp/ccxVsXL6.s:245    .text:000000000000018c .L0 
     /tmp/ccxVsXL6.s:246    .text:000000000000018c .L0 
     /tmp/ccxVsXL6.s:248    .text:0000000000000190 .L0 
     /tmp/ccxVsXL6.s:250    .text:0000000000000194 .L0 
     /tmp/ccxVsXL6.s:253    .text:0000000000000198 .L0 
     /tmp/ccxVsXL6.s:255    .text:000000000000019c .L0 
     /tmp/ccxVsXL6.s:269    .text._ZN2pt18periodicActivationEv:0000000000000000 _ZN2pt18periodicActivationEv
     /tmp/ccxVsXL6.s:272    .text._ZN2pt18periodicActivationEv:0000000000000000 .L0 
     /tmp/ccxVsXL6.s:274    .text._ZN2pt18periodicActivationEv:0000000000000000 .L0 
     /tmp/ccxVsXL6.s:275    .text._ZN2pt18periodicActivationEv:0000000000000004 .L0 
     /tmp/ccxVsXL6.s:279    .text._ZN2pt18periodicActivationEv:0000000000000010 .L0 
     /tmp/ccxVsXL6.s:280    .text._ZN2pt18periodicActivationEv:0000000000000010 .L0 
     /tmp/ccxVsXL6.s:281    .text._ZN2pt18periodicActivationEv:0000000000000010 .L0 
     /tmp/ccxVsXL6.s:283    .text._ZN2pt18periodicActivationEv:0000000000000014 .L0 
     /tmp/ccxVsXL6.s:286    .text._ZN2pt18periodicActivationEv:0000000000000018 .L0 
     /tmp/ccxVsXL6.s:287    .text._ZN2pt18periodicActivationEv:0000000000000018 .L0 
     /tmp/ccxVsXL6.s:292    .text._ZN2pt18periodicActivationEv:0000000000000028 .L0 
     /tmp/ccxVsXL6.s:293    .text._ZN2pt18periodicActivationEv:0000000000000028 .L0 
     /tmp/ccxVsXL6.s:299    .text._ZN2pt18periodicActivationEv:000000000000003c .L0 
     /tmp/ccxVsXL6.s:300    .text._ZN2pt18periodicActivationEv:000000000000003c .L0 
     /tmp/ccxVsXL6.s:304    .text._ZN2pt18periodicActivationEv:000000000000004c .L0 
     /tmp/ccxVsXL6.s:305    .text._ZN2pt18periodicActivationEv:000000000000004c .L0 
GAS LISTING /tmp/ccxVsXL6.s 			page 22


     /tmp/ccxVsXL6.s:307    .text._ZN2pt18periodicActivationEv:0000000000000050 .L0 
     /tmp/ccxVsXL6.s:310    .text._ZN2pt18periodicActivationEv:0000000000000058 .L0 
     /tmp/ccxVsXL6.s:312    .text._ZN2pt18periodicActivationEv:000000000000005c .L0 
     /tmp/ccxVsXL6.s:315    .text._ZN2pt18periodicActivationEv:0000000000000060 .L0 
     /tmp/ccxVsXL6.s:316    .text._ZN2pt18periodicActivationEv:0000000000000064 .L0 
     /tmp/ccxVsXL6.s:317    .text._ZN2pt18periodicActivationEv:0000000000000064 .L0 
     /tmp/ccxVsXL6.s:319    .text._ZN2pt18periodicActivationEv:0000000000000068 .L0 
     /tmp/ccxVsXL6.s:320    .text._ZN2pt18periodicActivationEv:0000000000000068 .L0 
     /tmp/ccxVsXL6.s:322    .text._ZN2pt18periodicActivationEv:000000000000006c .L0 
     /tmp/ccxVsXL6.s:325    .text._ZN2pt18periodicActivationEv:0000000000000070 .L0 
     /tmp/ccxVsXL6.s:329    .text._ZN2pt18periodicActivationEv:0000000000000074 .L0 
     /tmp/ccxVsXL6.s:331    .text._ZN2pt18periodicActivationEv:0000000000000074 .L0 
     /tmp/ccxVsXL6.s:332    .text._ZN2pt18periodicActivationEv:0000000000000074 .L0 
     /tmp/ccxVsXL6.s:336    .text._ZN2pt18periodicActivationEv:0000000000000080 .L0 
     /tmp/ccxVsXL6.s:337    .text._ZN2pt18periodicActivationEv:0000000000000084 .L0 
     /tmp/ccxVsXL6.s:344    .text._ZN2ptD2Ev:0000000000000000 _ZN2ptD2Ev
     /tmp/ccxVsXL6.s:347    .text._ZN2ptD2Ev:0000000000000000 .L0 
     /tmp/ccxVsXL6.s:349    .text._ZN2ptD2Ev:0000000000000000 .L0 
     /tmp/ccxVsXL6.s:350    .text._ZN2ptD2Ev:0000000000000004 .L0 
     /tmp/ccxVsXL6.s:353    .text._ZN2ptD2Ev:000000000000000c .L0 
     /tmp/ccxVsXL6.s:354    .text._ZN2ptD2Ev:000000000000000c .L0 
     /tmp/ccxVsXL6.s:356    .text._ZN2ptD2Ev:0000000000000010 .L0 
     /tmp/ccxVsXL6.s:362    .text._ZN2ptD2Ev:0000000000000010 .L0 
     /tmp/ccxVsXL6.s:370    .text._ZN2ptD2Ev:0000000000000028 .L0 
     /tmp/ccxVsXL6.s:371    .text._ZN2ptD2Ev:000000000000002c .L0 
     /tmp/ccxVsXL6.s:373    .text._ZN2ptD2Ev:0000000000000030 .L0 
     /tmp/ccxVsXL6.s:374    .text._ZN2ptD2Ev:0000000000000030 .L0 
     /tmp/ccxVsXL6.s:376    .text._ZN2ptD2Ev:0000000000000034 .L0 
     /tmp/ccxVsXL6.s:378    .text._ZN2ptD2Ev:0000000000000038 .L0 
     /tmp/ccxVsXL6.s:344    .text._ZN2ptD2Ev:0000000000000000 _ZN2ptD1Ev
     /tmp/ccxVsXL6.s:387    .text._ZN2ptD0Ev:0000000000000000 _ZN2ptD0Ev
     /tmp/ccxVsXL6.s:390    .text._ZN2ptD0Ev:0000000000000000 .L0 
     /tmp/ccxVsXL6.s:392    .text._ZN2ptD0Ev:0000000000000000 .L0 
     /tmp/ccxVsXL6.s:393    .text._ZN2ptD0Ev:0000000000000004 .L0 
     /tmp/ccxVsXL6.s:397    .text._ZN2ptD0Ev:0000000000000010 .L0 
     /tmp/ccxVsXL6.s:398    .text._ZN2ptD0Ev:0000000000000010 .L0 
     /tmp/ccxVsXL6.s:399    .text._ZN2ptD0Ev:0000000000000010 .L0 
     /tmp/ccxVsXL6.s:401    .text._ZN2ptD0Ev:0000000000000014 .L0 
     /tmp/ccxVsXL6.s:408    .text._ZN2ptD0Ev:0000000000000018 .L0 
     /tmp/ccxVsXL6.s:417    .text._ZN2ptD0Ev:0000000000000030 .L0 
     /tmp/ccxVsXL6.s:421    .text._ZN2ptD0Ev:0000000000000040 .L0 
     /tmp/ccxVsXL6.s:423    .text._ZN2ptD0Ev:0000000000000044 .L0 
     /tmp/ccxVsXL6.s:424    .text._ZN2ptD0Ev:0000000000000044 .L0 
     /tmp/ccxVsXL6.s:426    .text._ZN2ptD0Ev:0000000000000048 .L0 
     /tmp/ccxVsXL6.s:429    .text._ZN2ptD0Ev:000000000000004c .L0 
     /tmp/ccxVsXL6.s:431    .text._ZN2ptD0Ev:0000000000000050 .L0 
     /tmp/ccxVsXL6.s:445    .text:000000000000019c _Z4userPv
     /tmp/ccxVsXL6.s:448    .text:000000000000019c .L0 
     /tmp/ccxVsXL6.s:3189   .data.rel.local.DW.ref.__gxx_personality_v0:0000000000000000 DW.ref.__gxx_personality_v0
     /tmp/ccxVsXL6.s:451    .text:000000000000019c .L0 
     /tmp/ccxVsXL6.s:452    .text:00000000000001a0 .L0 
     /tmp/ccxVsXL6.s:459    .text:00000000000001b8 .L0 
     /tmp/ccxVsXL6.s:460    .text:00000000000001b8 .L0 
     /tmp/ccxVsXL6.s:461    .text:00000000000001b8 .L0 
     /tmp/ccxVsXL6.s:462    .text:00000000000001b8 .L0 
     /tmp/ccxVsXL6.s:463    .text:00000000000001b8 .L0 
     /tmp/ccxVsXL6.s:464    .text:00000000000001b8 .L0 
GAS LISTING /tmp/ccxVsXL6.s 			page 23


     /tmp/ccxVsXL6.s:466    .text:00000000000001bc .L0 
     /tmp/ccxVsXL6.s:468    .text:00000000000001bc .L0 
     /tmp/ccxVsXL6.s:469    .text:00000000000001bc .L0 
     /tmp/ccxVsXL6.s:471    .text:00000000000001c0 .L0 
     /tmp/ccxVsXL6.s:472    .text:00000000000001c0 .L0 
     /tmp/ccxVsXL6.s:485    .text:00000000000001e4 .L0 
     /tmp/ccxVsXL6.s:486    .text:00000000000001e4 .L0 
     /tmp/ccxVsXL6.s:499    .text:0000000000000208 .L0 
     /tmp/ccxVsXL6.s:500    .text:0000000000000208 .L0 
     /tmp/ccxVsXL6.s:513    .text:000000000000022c .L0 
     /tmp/ccxVsXL6.s:514    .text:000000000000022c .L0 
     /tmp/ccxVsXL6.s:524    .text:000000000000023c .L0 
     /tmp/ccxVsXL6.s:726    .data.rel.ro._ZTV2pt:0000000000000000 _ZTV2pt
     /tmp/ccxVsXL6.s:530    .text:0000000000000248 .L0 
     /tmp/ccxVsXL6.s:540    .text:0000000000000264 .L0 
     /tmp/ccxVsXL6.s:541    .text:0000000000000264 .L0 
     /tmp/ccxVsXL6.s:547    .text:0000000000000278 .L0 
     /tmp/ccxVsXL6.s:548    .text:0000000000000278 .L0 
     /tmp/ccxVsXL6.s:553    .text:000000000000028c .L0 
     /tmp/ccxVsXL6.s:554    .text:000000000000028c .L0 
     /tmp/ccxVsXL6.s:559    .text:00000000000002a0 .L0 
     /tmp/ccxVsXL6.s:560    .text:00000000000002a0 .L0 
     /tmp/ccxVsXL6.s:564    .text:00000000000002ac .L0 
     /tmp/ccxVsXL6.s:565    .text:00000000000002ac .L0 
     /tmp/ccxVsXL6.s:569    .text:00000000000002b8 .L0 
     /tmp/ccxVsXL6.s:570    .text:00000000000002b8 .L0 
     /tmp/ccxVsXL6.s:574    .text:00000000000002c4 .L0 
     /tmp/ccxVsXL6.s:575    .text:00000000000002c4 .L0 
     /tmp/ccxVsXL6.s:579    .text:00000000000002d0 .L0 
     /tmp/ccxVsXL6.s:580    .text:00000000000002d0 .L0 
     /tmp/ccxVsXL6.s:584    .text:00000000000002dc .L0 
     /tmp/ccxVsXL6.s:585    .text:00000000000002dc .L0 
     /tmp/ccxVsXL6.s:589    .text:00000000000002e8 .L0 
     /tmp/ccxVsXL6.s:590    .text:00000000000002e8 .L0 
     /tmp/ccxVsXL6.s:594    .text:00000000000002f4 .L0 
     /tmp/ccxVsXL6.s:595    .text:00000000000002f4 .L0 
     /tmp/ccxVsXL6.s:599    .text:0000000000000300 .L0 
     /tmp/ccxVsXL6.s:600    .text:0000000000000300 .L0 
     /tmp/ccxVsXL6.s:604    .text:000000000000030c .L0 
     /tmp/ccxVsXL6.s:605    .text:000000000000030c .L0 
     /tmp/ccxVsXL6.s:609    .text:000000000000031c .L0 
     /tmp/ccxVsXL6.s:610    .text:000000000000031c .L0 
     /tmp/ccxVsXL6.s:614    .text:000000000000032c .L0 
     /tmp/ccxVsXL6.s:615    .text:0000000000000330 .L0 
     /tmp/ccxVsXL6.s:616    .text:0000000000000330 .L0 
     /tmp/ccxVsXL6.s:618    .text:0000000000000334 .L0 
     /tmp/ccxVsXL6.s:619    .text:0000000000000334 .L0 
     /tmp/ccxVsXL6.s:621    .text:0000000000000338 .L0 
     /tmp/ccxVsXL6.s:624    .text:000000000000033c .L0 
     /tmp/ccxVsXL6.s:627    .text:0000000000000340 .L0 
     /tmp/ccxVsXL6.s:630    .text:0000000000000344 .L0 
     /tmp/ccxVsXL6.s:633    .text:0000000000000348 .L0 
     /tmp/ccxVsXL6.s:636    .text:000000000000034c .L0 
     /tmp/ccxVsXL6.s:639    .text:0000000000000350 .L0 
     /tmp/ccxVsXL6.s:648    .text:000000000000036c .L0 
     /tmp/ccxVsXL6.s:657    .text:0000000000000388 .L0 
     /tmp/ccxVsXL6.s:667    .text:00000000000003a4 .L0 
GAS LISTING /tmp/ccxVsXL6.s 			page 24


     /tmp/ccxVsXL6.s:674    .text:00000000000003bc .L0 
     /tmp/ccxVsXL6.s:741    .bss:0000000000000000 s31
     /tmp/ccxVsXL6.s:749    .bss:0000000000000010 s23
     /tmp/ccxVsXL6.s:745    .bss:0000000000000008 s12
     /tmp/ccxVsXL6.s:738    .bss:0000000000000000 .LANCHOR0
     /tmp/ccxVsXL6.s:756    .text:00000000000003bc .L0 
     /tmp/ccxVsXL6.s:340    .text._ZN2pt18periodicActivationEv:0000000000000084 .L0 
     /tmp/ccxVsXL6.s:383    .text._ZN2ptD2Ev:0000000000000038 .L0 
     /tmp/ccxVsXL6.s:434    .text._ZN2ptD0Ev:0000000000000050 .L0 
     /tmp/ccxVsXL6.s:45     .text:0000000000000024 .L0 
     /tmp/ccxVsXL6.s:57     .text:000000000000003c .L0 
     /tmp/ccxVsXL6.s:8      .rodata.str1.8:0000000000000000 .LC0
     /tmp/ccxVsXL6.s:62     .text:000000000000004c .L0 
     /tmp/ccxVsXL6.s:11     .rodata.str1.8:0000000000000008 .LC1
     /tmp/ccxVsXL6.s:81     .text:0000000000000074 .L0 
     /tmp/ccxVsXL6.s:141    .text:00000000000000c0 .L0 
     /tmp/ccxVsXL6.s:104    .rodata.str1.8:0000000000000018 .LC2
     /tmp/ccxVsXL6.s:147    .text:00000000000000d4 .L0 
     /tmp/ccxVsXL6.s:107    .rodata.str1.8:0000000000000020 .LC3
     /tmp/ccxVsXL6.s:160    .text:00000000000000f4 .L0 
     /tmp/ccxVsXL6.s:219    .text:0000000000000140 .L0 
     /tmp/ccxVsXL6.s:182    .rodata.str1.8:0000000000000030 .LC4
     /tmp/ccxVsXL6.s:225    .text:0000000000000154 .L0 
     /tmp/ccxVsXL6.s:185    .rodata.str1.8:0000000000000038 .LC5
     /tmp/ccxVsXL6.s:238    .text:0000000000000174 .L0 
     /tmp/ccxVsXL6.s:479    .text:00000000000001d4 .L0 
     /tmp/ccxVsXL6.s:493    .text:00000000000001f8 .L0 
     /tmp/ccxVsXL6.s:507    .text:000000000000021c .L0 
     /tmp/ccxVsXL6.s:530    .text:0000000000000248 .L0 
     /tmp/ccxVsXL6.s:542    .text:0000000000000268 .L0 
     /tmp/ccxVsXL6.s:549    .text:000000000000027c .L0 
     /tmp/ccxVsXL6.s:555    .text:0000000000000290 .L0 
     /tmp/ccxVsXL6.s:436    .rodata.str1.8:0000000000000048 .LC8
     /tmp/ccxVsXL6.s:605    .text:000000000000030c .L0 
     /tmp/ccxVsXL6.s:439    .rodata.str1.8:0000000000000060 .LC9
     /tmp/ccxVsXL6.s:610    .text:000000000000031c .L0 
     /tmp/ccxVsXL6.s:48     .text:0000000000000034 .L4
     /tmp/ccxVsXL6.s:78     .text:0000000000000074 .L2
     /tmp/ccxVsXL6.s:42     .text:0000000000000024 .L3
     /tmp/ccxVsXL6.s:157    .text:00000000000000f4 .L7
     /tmp/ccxVsXL6.s:132    .text:00000000000000b8 .L8
     /tmp/ccxVsXL6.s:235    .text:0000000000000174 .L11
     /tmp/ccxVsXL6.s:210    .text:0000000000000138 .L12
     /tmp/ccxVsXL6.s:260    .rodata._ZN2pt18periodicActivationEv.str1.8:0000000000000000 .LC6
     /tmp/ccxVsXL6.s:287    .text._ZN2pt18periodicActivationEv:0000000000000018 .L0 
     /tmp/ccxVsXL6.s:263    .rodata._ZN2pt18periodicActivationEv.str1.8:0000000000000008 .LC7
     /tmp/ccxVsXL6.s:300    .text._ZN2pt18periodicActivationEv:000000000000003c .L0 
     /tmp/ccxVsXL6.s:328    .text._ZN2pt18periodicActivationEv:0000000000000074 .L17
     /tmp/ccxVsXL6.s:313    .text._ZN2pt18periodicActivationEv:0000000000000060 .L14
     /tmp/ccxVsXL6.s:362    .text._ZN2ptD2Ev:0000000000000010 .L0 
     /tmp/ccxVsXL6.s:408    .text._ZN2ptD0Ev:0000000000000018 .L0 
     /tmp/ccxVsXL6.s:473    .text:00000000000001c4 .LEHB0
     /tmp/ccxVsXL6.s:446    .text:000000000000019c .LFB13
     /tmp/ccxVsXL6.s:476    .text:00000000000001cc .LEHE0
     /tmp/ccxVsXL6.s:480    .text:00000000000001dc .LEHB1
     /tmp/ccxVsXL6.s:483    .text:00000000000001e4 .LEHE1
     /tmp/ccxVsXL6.s:635    .text:000000000000034c .L27
GAS LISTING /tmp/ccxVsXL6.s 			page 25


     /tmp/ccxVsXL6.s:487    .text:00000000000001e8 .LEHB2
     /tmp/ccxVsXL6.s:490    .text:00000000000001f0 .LEHE2
     /tmp/ccxVsXL6.s:494    .text:0000000000000200 .LEHB3
     /tmp/ccxVsXL6.s:497    .text:0000000000000208 .LEHE3
     /tmp/ccxVsXL6.s:645    .text:0000000000000368 .L28
     /tmp/ccxVsXL6.s:501    .text:000000000000020c .LEHB4
     /tmp/ccxVsXL6.s:504    .text:0000000000000214 .LEHE4
     /tmp/ccxVsXL6.s:508    .text:0000000000000224 .LEHB5
     /tmp/ccxVsXL6.s:511    .text:000000000000022c .LEHE5
     /tmp/ccxVsXL6.s:654    .text:0000000000000384 .L29
     /tmp/ccxVsXL6.s:515    .text:0000000000000230 .LEHB6
     /tmp/ccxVsXL6.s:518    .text:0000000000000238 .LEHE6
     /tmp/ccxVsXL6.s:525    .text:0000000000000240 .LEHB7
     /tmp/ccxVsXL6.s:528    .text:0000000000000248 .LEHE7
     /tmp/ccxVsXL6.s:663    .text:00000000000003a0 .L30
     /tmp/ccxVsXL6.s:543    .text:0000000000000270 .LEHB8
     /tmp/ccxVsXL6.s:673    .text:00000000000003bc .LEHE8
     /tmp/ccxVsXL6.s:1980   .debug_abbrev:0000000000000000 .Ldebug_abbrev0
     /tmp/ccxVsXL6.s:3111   .debug_str:000000000000021e .LASF64
     /tmp/ccxVsXL6.s:3099   .debug_str:00000000000001b7 .LASF65
     /tmp/ccxVsXL6.s:3153   .debug_str:00000000000003e7 .LASF66
     /tmp/ccxVsXL6.s:3021   .debug_ranges:0000000000000000 .Ldebug_ranges0
     /tmp/ccxVsXL6.s:3033   .debug_line:0000000000000000 .Ldebug_line0
     /tmp/ccxVsXL6.s:3121   .debug_str:000000000000030a .LASF0
     /tmp/ccxVsXL6.s:3061   .debug_str:00000000000000ac .LASF1
     /tmp/ccxVsXL6.s:3085   .debug_str:0000000000000144 .LASF2
     /tmp/ccxVsXL6.s:3057   .debug_str:00000000000000a0 .LASF4
     /tmp/ccxVsXL6.s:3095   .debug_str:000000000000019b .LASF3
     /tmp/ccxVsXL6.s:3041   .debug_str:0000000000000026 .LASF5
     /tmp/ccxVsXL6.s:3131   .debug_str:0000000000000344 .LASF6
     /tmp/ccxVsXL6.s:3035   .debug_str:0000000000000000 .LASF7
     /tmp/ccxVsXL6.s:3075   .debug_str:000000000000010e .LASF8
     /tmp/ccxVsXL6.s:3133   .debug_str:000000000000034b .LASF9
     /tmp/ccxVsXL6.s:3053   .debug_str:000000000000008b .LASF10
     /tmp/ccxVsXL6.s:3181   .debug_str:00000000000004aa .LASF11
     /tmp/ccxVsXL6.s:3079   .debug_str:0000000000000129 .LASF12
     /tmp/ccxVsXL6.s:3161   .debug_str:000000000000042e .LASF13
     /tmp/ccxVsXL6.s:3139   .debug_str:0000000000000391 .LASF14
     /tmp/ccxVsXL6.s:3101   .debug_str:00000000000001c7 .LASF15
     /tmp/ccxVsXL6.s:3069   .debug_str:00000000000000ee .LASF16
     /tmp/ccxVsXL6.s:3137   .debug_str:000000000000037b .LASF17
     /tmp/ccxVsXL6.s:3047   .debug_str:000000000000005a .LASF18
     /tmp/ccxVsXL6.s:3081   .debug_str:0000000000000138 .LASF67
     /tmp/ccxVsXL6.s:3127   .debug_str:000000000000032d .LASF19
     /tmp/ccxVsXL6.s:3147   .debug_str:00000000000003d0 .LASF20
     /tmp/ccxVsXL6.s:3165   .debug_str:0000000000000445 .LASF21
     /tmp/ccxVsXL6.s:3055   .debug_str:0000000000000099 .LASF22
     /tmp/ccxVsXL6.s:3077   .debug_str:0000000000000121 .LASF23
     /tmp/ccxVsXL6.s:3039   .debug_str:000000000000001b .LASF68
     /tmp/ccxVsXL6.s:3065   .debug_str:00000000000000d2 .LASF25
     /tmp/ccxVsXL6.s:3103   .debug_str:00000000000001d3 .LASF26
     /tmp/ccxVsXL6.s:3087   .debug_str:0000000000000152 .LASF69
     /tmp/ccxVsXL6.s:3159   .debug_str:000000000000041f .LASF28
     /tmp/ccxVsXL6.s:3155   .debug_str:0000000000000405 .LASF24
     /tmp/ccxVsXL6.s:3109   .debug_str:0000000000000206 .LASF70
     /tmp/ccxVsXL6.s:3091   .debug_str:0000000000000166 .LASF27
     /tmp/ccxVsXL6.s:3135   .debug_str:000000000000035b .LASF30
GAS LISTING /tmp/ccxVsXL6.s 			page 26


     /tmp/ccxVsXL6.s:3179   .debug_str:00000000000004a0 .LASF32
     /tmp/ccxVsXL6.s:3083   .debug_str:000000000000013d .LASF29
     /tmp/ccxVsXL6.s:3063   .debug_str:00000000000000bf .LASF31
     /tmp/ccxVsXL6.s:3123   .debug_str:0000000000000317 .LASF33
     /tmp/ccxVsXL6.s:3119   .debug_str:00000000000002f8 .LASF34
     /tmp/ccxVsXL6.s:3071   .debug_str:0000000000000104 .LASF35
     /tmp/ccxVsXL6.s:3059   .debug_str:00000000000000a7 .LASF36
     /tmp/ccxVsXL6.s:3157   .debug_str:0000000000000415 .LASF37
     /tmp/ccxVsXL6.s:3169   .debug_str:0000000000000460 .LASF38
     /tmp/ccxVsXL6.s:388    .text._ZN2ptD0Ev:0000000000000000 .LFB17
     /tmp/ccxVsXL6.s:432    .text._ZN2ptD0Ev:0000000000000050 .LFE17
     /tmp/ccxVsXL6.s:2789   .debug_loc:0000000000000000 .LLST7
     /tmp/ccxVsXL6.s:404    .text._ZN2ptD0Ev:0000000000000018 .LBB19
     /tmp/ccxVsXL6.s:415    .text._ZN2ptD0Ev:0000000000000030 .LBE19
     /tmp/ccxVsXL6.s:2807   .debug_loc:000000000000004c .LLST8
     /tmp/ccxVsXL6.s:405    .text._ZN2ptD0Ev:0000000000000018 .LBB20
     /tmp/ccxVsXL6.s:414    .text._ZN2ptD0Ev:0000000000000030 .LBE20
     /tmp/ccxVsXL6.s:412    .text._ZN2ptD0Ev:0000000000000030 .LVL38
     /tmp/ccxVsXL6.s:419    .text._ZN2ptD0Ev:000000000000003c .LVL39
     /tmp/ccxVsXL6.s:3105   .debug_str:00000000000001f0 .LASF39
     /tmp/ccxVsXL6.s:345    .text._ZN2ptD2Ev:0000000000000000 .LFB15
     /tmp/ccxVsXL6.s:379    .text._ZN2ptD2Ev:0000000000000038 .LFE15
     /tmp/ccxVsXL6.s:2818   .debug_loc:0000000000000082 .LLST5
     /tmp/ccxVsXL6.s:358    .text._ZN2ptD2Ev:0000000000000010 .LBB17
     /tmp/ccxVsXL6.s:368    .text._ZN2ptD2Ev:0000000000000028 .LBE17
     /tmp/ccxVsXL6.s:2832   .debug_loc:00000000000000bb .LLST6
     /tmp/ccxVsXL6.s:366    .text._ZN2ptD2Ev:0000000000000028 .LVL35
     /tmp/ccxVsXL6.s:3073   .debug_str:0000000000000109 .LASF46
     /tmp/ccxVsXL6.s:3097   .debug_str:00000000000001ad .LASF71
     /tmp/ccxVsXL6.s:675    .text:00000000000003bc .LFE13
     /tmp/ccxVsXL6.s:3113   .debug_str:00000000000002e2 .LASF40
     /tmp/ccxVsXL6.s:2846   .debug_loc:00000000000000f4 .LLST10
     /tmp/ccxVsXL6.s:3149   .debug_str:00000000000003dd .LASF41
     /tmp/ccxVsXL6.s:2857   .debug_loc:000000000000012a .LLST11
     /tmp/ccxVsXL6.s:3151   .debug_str:00000000000003e2 .LASF42
     /tmp/ccxVsXL6.s:2868   .debug_loc:0000000000000160 .LLST12
     /tmp/ccxVsXL6.s:2879   .debug_loc:0000000000000196 .LLST13
     /tmp/ccxVsXL6.s:521    .text:000000000000023c .LBB22
     /tmp/ccxVsXL6.s:538    .text:0000000000000264 .LBE22
     /tmp/ccxVsXL6.s:2886   .debug_loc:00000000000001b9 .LLST14
     /tmp/ccxVsXL6.s:2899   .debug_loc:00000000000001f1 .LLST15
     /tmp/ccxVsXL6.s:527    .text:0000000000000248 .LVL49
     /tmp/ccxVsXL6.s:475    .text:00000000000001cc .LVL41
     /tmp/ccxVsXL6.s:482    .text:00000000000001e4 .LVL42
     /tmp/ccxVsXL6.s:489    .text:00000000000001f0 .LVL43
     /tmp/ccxVsXL6.s:496    .text:0000000000000208 .LVL44
     /tmp/ccxVsXL6.s:503    .text:0000000000000214 .LVL45
     /tmp/ccxVsXL6.s:510    .text:000000000000022c .LVL46
     /tmp/ccxVsXL6.s:517    .text:0000000000000238 .LVL47
     /tmp/ccxVsXL6.s:545    .text:0000000000000278 .LVL51
     /tmp/ccxVsXL6.s:551    .text:000000000000028c .LVL52
     /tmp/ccxVsXL6.s:557    .text:00000000000002a0 .LVL53
     /tmp/ccxVsXL6.s:562    .text:00000000000002ac .LVL54
     /tmp/ccxVsXL6.s:567    .text:00000000000002b8 .LVL55
     /tmp/ccxVsXL6.s:572    .text:00000000000002c4 .LVL56
     /tmp/ccxVsXL6.s:577    .text:00000000000002d0 .LVL57
     /tmp/ccxVsXL6.s:582    .text:00000000000002dc .LVL58
GAS LISTING /tmp/ccxVsXL6.s 			page 27


     /tmp/ccxVsXL6.s:587    .text:00000000000002e8 .LVL59
     /tmp/ccxVsXL6.s:592    .text:00000000000002f4 .LVL60
     /tmp/ccxVsXL6.s:597    .text:0000000000000300 .LVL61
     /tmp/ccxVsXL6.s:602    .text:000000000000030c .LVL62
     /tmp/ccxVsXL6.s:607    .text:000000000000031c .LVL63
     /tmp/ccxVsXL6.s:612    .text:000000000000032c .LVL64
     /tmp/ccxVsXL6.s:641    .text:000000000000035c .LVL69
     /tmp/ccxVsXL6.s:644    .text:0000000000000368 .LVL70
     /tmp/ccxVsXL6.s:650    .text:0000000000000378 .LVL71
     /tmp/ccxVsXL6.s:653    .text:0000000000000384 .LVL72
     /tmp/ccxVsXL6.s:659    .text:0000000000000394 .LVL73
     /tmp/ccxVsXL6.s:662    .text:00000000000003a0 .LVL74
     /tmp/ccxVsXL6.s:669    .text:00000000000003b0 .LVL76
     /tmp/ccxVsXL6.s:672    .text:00000000000003bc .LVL77
     /tmp/ccxVsXL6.s:270    .text._ZN2pt18periodicActivationEv:0000000000000000 .LFB12
     /tmp/ccxVsXL6.s:338    .text._ZN2pt18periodicActivationEv:0000000000000084 .LFE12
     /tmp/ccxVsXL6.s:2910   .debug_loc:0000000000000227 .LLST4
     /tmp/ccxVsXL6.s:290    .text._ZN2pt18periodicActivationEv:0000000000000028 .LVL27
     /tmp/ccxVsXL6.s:297    .text._ZN2pt18periodicActivationEv:000000000000003c .LVL28
     /tmp/ccxVsXL6.s:302    .text._ZN2pt18periodicActivationEv:000000000000004c .LVL29
     /tmp/ccxVsXL6.s:334    .text._ZN2pt18periodicActivationEv:0000000000000080 .LVL32
     /tmp/ccxVsXL6.s:3093   .debug_str:0000000000000190 .LASF43
     /tmp/ccxVsXL6.s:3045   .debug_str:0000000000000042 .LASF44
     /tmp/ccxVsXL6.s:3145   .debug_str:00000000000003b8 .LASF45
     /tmp/ccxVsXL6.s:3141   .debug_str:00000000000003a1 .LASF47
     /tmp/ccxVsXL6.s:192    .text:000000000000011c .LFB4
     /tmp/ccxVsXL6.s:256    .text:000000000000019c .LFE4
     /tmp/ccxVsXL6.s:2932   .debug_loc:0000000000000286 .LLST3
     /tmp/ccxVsXL6.s:222    .text:0000000000000154 .LVL20
     /tmp/ccxVsXL6.s:227    .text:0000000000000164 .LVL21
     /tmp/ccxVsXL6.s:232    .text:0000000000000170 .LVL22
     /tmp/ccxVsXL6.s:240    .text:0000000000000184 .LVL23
     /tmp/ccxVsXL6.s:3117   .debug_str:00000000000002f0 .LASF48
     /tmp/ccxVsXL6.s:114    .text:000000000000009c .LFB3
     /tmp/ccxVsXL6.s:178    .text:000000000000011c .LFE3
     /tmp/ccxVsXL6.s:2950   .debug_loc:00000000000002d2 .LLST2
     /tmp/ccxVsXL6.s:144    .text:00000000000000d4 .LVL13
     /tmp/ccxVsXL6.s:149    .text:00000000000000e4 .LVL14
     /tmp/ccxVsXL6.s:154    .text:00000000000000f0 .LVL15
     /tmp/ccxVsXL6.s:162    .text:0000000000000104 .LVL16
     /tmp/ccxVsXL6.s:3037   .debug_str:0000000000000013 .LASF49
     /tmp/ccxVsXL6.s:18     .text:0000000000000000 .LFB2
     /tmp/ccxVsXL6.s:100    .text:000000000000009c .LFE2
     /tmp/ccxVsXL6.s:2968   .debug_loc:000000000000031e .LLST0
     /tmp/ccxVsXL6.s:2986   .debug_loc:000000000000036a .LLST1
     /tmp/ccxVsXL6.s:47     .text:0000000000000034 .LVL3
     /tmp/ccxVsXL6.s:59     .text:000000000000004c .LVL4
     /tmp/ccxVsXL6.s:64     .text:000000000000005c .LVL5
     /tmp/ccxVsXL6.s:83     .text:0000000000000084 .LVL8
     /tmp/ccxVsXL6.s:3163   .debug_str:000000000000043e .LASF50
     /tmp/ccxVsXL6.s:3125   .debug_str:000000000000031d .LASF51
     /tmp/ccxVsXL6.s:3171   .debug_str:000000000000046b .LASF52
     /tmp/ccxVsXL6.s:3167   .debug_str:0000000000000453 .LASF53
     /tmp/ccxVsXL6.s:3175   .debug_str:0000000000000480 .LASF54
     /tmp/ccxVsXL6.s:3089   .debug_str:000000000000015d .LASF55
     /tmp/ccxVsXL6.s:3051   .debug_str:0000000000000078 .LASF56
     /tmp/ccxVsXL6.s:3177   .debug_str:0000000000000494 .LASF57
GAS LISTING /tmp/ccxVsXL6.s 			page 28


     /tmp/ccxVsXL6.s:3173   .debug_str:0000000000000471 .LASF72
     /tmp/ccxVsXL6.s:3049   .debug_str:0000000000000060 .LASF73
     /tmp/ccxVsXL6.s:3143   .debug_str:00000000000003a9 .LASF58
     /tmp/ccxVsXL6.s:3067   .debug_str:00000000000000e5 .LASF59
     /tmp/ccxVsXL6.s:3129   .debug_str:0000000000000332 .LASF60
     /tmp/ccxVsXL6.s:3115   .debug_str:00000000000002e7 .LASF61
     /tmp/ccxVsXL6.s:3043   .debug_str:000000000000002d .LASF62
     /tmp/ccxVsXL6.s:3107   .debug_str:00000000000001fb .LASF63
     /tmp/ccxVsXL6.s:391    .text._ZN2ptD0Ev:0000000000000000 .LVL36
     /tmp/ccxVsXL6.s:427    .text._ZN2ptD0Ev:0000000000000048 .LVL40
     /tmp/ccxVsXL6.s:403    .text._ZN2ptD0Ev:0000000000000018 .LVL37
     /tmp/ccxVsXL6.s:348    .text._ZN2ptD2Ev:0000000000000000 .LVL33
     /tmp/ccxVsXL6.s:357    .text._ZN2ptD2Ev:0000000000000010 .LVL34
     /tmp/ccxVsXL6.s:631    .text:0000000000000344 .LVL68
     /tmp/ccxVsXL6.s:628    .text:0000000000000340 .LVL67
     /tmp/ccxVsXL6.s:625    .text:000000000000033c .LVL66
     /tmp/ccxVsXL6.s:665    .text:00000000000003a4 .LVL75
     /tmp/ccxVsXL6.s:536    .text:0000000000000264 .LVL50
     /tmp/ccxVsXL6.s:622    .text:0000000000000338 .LVL65
     /tmp/ccxVsXL6.s:520    .text:000000000000023c .LVL48
     /tmp/ccxVsXL6.s:273    .text._ZN2pt18periodicActivationEv:0000000000000000 .LVL25
     /tmp/ccxVsXL6.s:288    .text._ZN2pt18periodicActivationEv:0000000000000020 .LVL26
     /tmp/ccxVsXL6.s:323    .text._ZN2pt18periodicActivationEv:000000000000006c .LVL30
     /tmp/ccxVsXL6.s:327    .text._ZN2pt18periodicActivationEv:0000000000000074 .LVL31
     /tmp/ccxVsXL6.s:195    .text:000000000000011c .LVL18
     /tmp/ccxVsXL6.s:209    .text:0000000000000138 .LVL19
     /tmp/ccxVsXL6.s:251    .text:0000000000000194 .LVL24
     /tmp/ccxVsXL6.s:117    .text:000000000000009c .LVL11
     /tmp/ccxVsXL6.s:131    .text:00000000000000b8 .LVL12
     /tmp/ccxVsXL6.s:173    .text:0000000000000114 .LVL17
     /tmp/ccxVsXL6.s:22     .text:0000000000000000 .LVL0
     /tmp/ccxVsXL6.s:41     .text:0000000000000024 .LVL2
     /tmp/ccxVsXL6.s:95     .text:0000000000000094 .LVL10
     /tmp/ccxVsXL6.s:37     .text:000000000000001c .LVL1
     /tmp/ccxVsXL6.s:68     .text:0000000000000060 .LVL6
     /tmp/ccxVsXL6.s:77     .text:0000000000000074 .LVL7
     /tmp/ccxVsXL6.s:92     .text:0000000000000090 .LVL9
     /tmp/ccxVsXL6.s:757    .debug_info:0000000000000000 .Ldebug_info0
     /tmp/ccxVsXL6.s:5      .text:0000000000000000 .Ltext0
     /tmp/ccxVsXL6.s:752    .text:00000000000003bc .Letext0
     /tmp/ccxVsXL6.s:678    .gcc_except_table:0000000000000000 .LLSDA13
                           .group:0000000000000000 _ZN2ptD5Ev

UNDEFINED SYMBOLS
_Z10sem_signalP4KSem
_Z8sem_waitP4KSem
_Z11printStringPKc
_Z8printIntiii
_ZN14PeriodicThread9terminateEv
_ZTV14PeriodicThread
_ZN6ThreadD2Ev
_ZdlPv
_Znwm
_ZN6ThreadC1EPFvPvES0_
_ZN14PeriodicThreadC2Em
_Z8sem_openPP4KSemj
_ZN6Thread5startEv
GAS LISTING /tmp/ccxVsXL6.s 			page 29


_ZN6Thread4joinEv
_Unwind_Resume
__gxx_personality_v0
_ZN14PeriodicThread3runEv
