GAS LISTING /tmp/ccB27Hek.s 			page 1


   1              		.file	"testFunctions.cpp"
   2              		.option pic
   3              		.option norelax
   4              		.text
   5              	.Ltext0:
   6              		.align	2
   7              		.globl	_Z13emptyFunctionPv
   9              	_Z13emptyFunctionPv:
  10              	.LFB53:
  11              		.file 1 "src/testFunctions.cpp"
   1:src/testFunctions.cpp **** //
   2:src/testFunctions.cpp **** // Created by os on 5/29/23.
   3:src/testFunctions.cpp **** //
   4:src/testFunctions.cpp **** #include "../lib/hw.h"
   5:src/testFunctions.cpp **** #include "../h/Riscv.hpp"
   6:src/testFunctions.cpp **** #include "../h/KMemory.hpp"
   7:src/testFunctions.cpp **** #include "../h/KConsole.hpp"
   8:src/testFunctions.cpp **** #include "../h/TCB.hpp"
   9:src/testFunctions.cpp **** #include "../h/syscall_c.hpp"
  10:src/testFunctions.cpp **** #include "../h/syscall_cpp.hpp"
  11:src/testFunctions.cpp **** 
  12:src/testFunctions.cpp **** extern "C" void interruptHandler();
  13:src/testFunctions.cpp **** 
  14:src/testFunctions.cpp **** void userMain();
  15:src/testFunctions.cpp **** 
  16:src/testFunctions.cpp **** void idle(void*);
  17:src/testFunctions.cpp **** 
  18:src/testFunctions.cpp **** void kernelConsumerFunction(void*);
  19:src/testFunctions.cpp **** 
  20:src/testFunctions.cpp **** 
  21:src/testFunctions.cpp **** class idlethr : public Thread {
  22:src/testFunctions.cpp **** public:
  23:src/testFunctions.cpp ****     void run() override {
  24:src/testFunctions.cpp ****         thread_dispatch();
  25:src/testFunctions.cpp ****     }
  26:src/testFunctions.cpp **** };
  27:src/testFunctions.cpp **** 
  28:src/testFunctions.cpp **** void emptyFunction(void*) {}
  12              		.loc 1 28 27
  13              		.cfi_startproc
  14 0000 130101FF 		addi	sp,sp,-16
  15              		.cfi_def_cfa_offset 16
  16 0004 23348100 		sd	s0,8(sp)
  17              		.cfi_offset 8, -8
  18 0008 13040101 		addi	s0,sp,16
  19              		.cfi_def_cfa 8, 0
  20              		.loc 1 28 28 is_stmt 0
  21 000c 03348100 		ld	s0,8(sp)
  22              		.cfi_restore 8
  23              		.cfi_def_cfa 2, 16
  24 0010 13010101 		addi	sp,sp,16
  25              		.cfi_def_cfa_offset 0
  26 0014 67800000 		jr	ra
  27              		.cfi_endproc
  28              	.LFE53:
  30              		.align	2
  31              		.globl	_Z5nit1fPv
GAS LISTING /tmp/ccB27Hek.s 			page 2


  33              	_Z5nit1fPv:
  34              	.LFB54:
  29:src/testFunctions.cpp **** 
  30:src/testFunctions.cpp **** void nit1f(void*) {
  35              		.loc 1 30 19 is_stmt 1
  36              		.cfi_startproc
  37 0018 130101FE 		addi	sp,sp,-32
  38              		.cfi_def_cfa_offset 32
  39 001c 233C1100 		sd	ra,24(sp)
  40 0020 23388100 		sd	s0,16(sp)
  41              		.cfi_offset 1, -8
  42              		.cfi_offset 8, -16
  43 0024 13040102 		addi	s0,sp,32
  44              		.cfi_def_cfa 8, 0
  45              	.L4:
  31:src/testFunctions.cpp ****     while (true) {
  46              		.loc 1 31 5
  47              	.LBB27:
  32:src/testFunctions.cpp ****         thread_t handle;
  48              		.loc 1 32 9
  33:src/testFunctions.cpp ****         thread_create(&handle, emptyFunction, nullptr);
  49              		.loc 1 33 9
  50              		.loc 1 33 22 is_stmt 0
  51 0028 13060000 		li	a2,0
  52 002c 97050000 		lla	a1,_Z13emptyFunctionPv
  52      93850500 
  53 0034 130584FE 		addi	a0,s0,-24
  54 0038 97000000 		call	_Z13thread_createPP3TCBPFvPvES2_@plt
  54      E7800000 
  55              	.LVL0:
  56              	.LBE27:
  31:src/testFunctions.cpp ****     while (true) {
  57              		.loc 1 31 5 is_stmt 1
  58 0040 6FF09FFE 		j	.L4
  59              		.cfi_endproc
  60              	.LFE54:
  62              		.section	.rodata._ZN3per18periodicActivationEv.str1.8,"aMS",@progbits,1
  63              		.align	3
  64              	.LC0:
  65 0000 4A616E6B 		.string	"Janko\n"
  65      6F0A00
  66              		.section	.text._ZN3per18periodicActivationEv,"axG",@progbits,_ZN3per18periodicActivationEv,comdat
  67              		.align	2
  68              		.weak	_ZN3per18periodicActivationEv
  70              	_ZN3per18periodicActivationEv:
  71              	.LFB62:
  34:src/testFunctions.cpp ****     }
  35:src/testFunctions.cpp **** 
  36:src/testFunctions.cpp ****     printString("\nGotova nit 1\n");
  37:src/testFunctions.cpp **** }
  38:src/testFunctions.cpp **** 
  39:src/testFunctions.cpp **** class per : public PeriodicThread {
  40:src/testFunctions.cpp **** public:
  41:src/testFunctions.cpp ****     per(time_t period) : PeriodicThread(period) {}
  42:src/testFunctions.cpp **** 
  43:src/testFunctions.cpp ****     void periodicActivation() override {
  72              		.loc 1 43 10
GAS LISTING /tmp/ccB27Hek.s 			page 3


  73              		.cfi_startproc
  74              	.LVL1:
  75 0000 130101FF 		addi	sp,sp,-16
  76              		.cfi_def_cfa_offset 16
  77 0004 23341100 		sd	ra,8(sp)
  78 0008 23308100 		sd	s0,0(sp)
  79              		.cfi_offset 1, -8
  80              		.cfi_offset 8, -16
  81 000c 13040101 		addi	s0,sp,16
  82              		.cfi_def_cfa 8, 0
  44:src/testFunctions.cpp ****         printString("Janko\n");
  83              		.loc 1 44 9
  84              		.loc 1 44 20 is_stmt 0
  85 0010 17050000 		lla	a0,.LC0
  85      13050500 
  86              	.LVL2:
  87 0018 97000000 		call	_Z11printStringPKc@plt
  87      E7800000 
  88              	.LVL3:
  45:src/testFunctions.cpp ****     }
  89              		.loc 1 45 5
  90 0020 83308100 		ld	ra,8(sp)
  91              		.cfi_restore 1
  92 0024 03340100 		ld	s0,0(sp)
  93              		.cfi_restore 8
  94              		.cfi_def_cfa 2, 16
  95 0028 13010101 		addi	sp,sp,16
  96              		.cfi_def_cfa_offset 0
  97 002c 67800000 		jr	ra
  98              		.cfi_endproc
  99              	.LFE62:
 101              		.section	.rodata.str1.8,"aMS",@progbits,1
 102              		.align	3
 103              	.LC1:
 104 0000 0A476F74 		.string	"\nGotova nit 2\n"
 104      6F766120 
 104      6E697420 
 104      320A00
 105              		.text
 106              		.align	2
 107              		.globl	_Z5nit2fPv
 109              	_Z5nit2fPv:
 110              	.LFB63:
  46:src/testFunctions.cpp **** };
  47:src/testFunctions.cpp **** 
  48:src/testFunctions.cpp **** void nit2f(void* arg2) {
 111              		.loc 1 48 24 is_stmt 1
 112              		.cfi_startproc
 113              		.cfi_personality 0x9b,DW.ref.__gxx_personality_v0
 114              		.cfi_lsda 0x1b,.LLSDA63
 115              	.LVL4:
 116 0044 130101FE 		addi	sp,sp,-32
 117              		.cfi_def_cfa_offset 32
 118 0048 233C1100 		sd	ra,24(sp)
 119 004c 23388100 		sd	s0,16(sp)
 120 0050 23349100 		sd	s1,8(sp)
 121 0054 23302101 		sd	s2,0(sp)
GAS LISTING /tmp/ccB27Hek.s 			page 4


 122              		.cfi_offset 1, -8
 123              		.cfi_offset 8, -16
 124              		.cfi_offset 9, -24
 125              		.cfi_offset 18, -32
 126 0058 13040102 		addi	s0,sp,32
 127              		.cfi_def_cfa 8, 0
  49:src/testFunctions.cpp ****     PeriodicThread* pt = new per(10);
 128              		.loc 1 49 5
 129              		.loc 1 49 36 is_stmt 0
 130 005c 13058002 		li	a0,40
 131              	.LVL5:
 132              	.LEHB0:
 133 0060 97000000 		call	_Znwm@plt
 133      E7800000 
 134              	.LVL6:
 135              	.LEHE0:
 136 0068 93040500 		mv	s1,a0
 137              	.LVL7:
 138              	.LBB28:
 139              	.LBB29:
  41:src/testFunctions.cpp **** 
 140              		.loc 1 41 47
 141 006c 9305A000 		li	a1,10
 142              	.LEHB1:
 143 0070 97000000 		call	_ZN14PeriodicThreadC2Em@plt
 143      E7800000 
 144              	.LVL8:
 145              	.LEHE1:
 146 0078 97070000 		lla	a5,_ZTV3per+16
 146      93870700 
 147 0080 23B0F400 		sd	a5,0(s1)
 148              	.LVL9:
 149              	.LBE29:
 150              	.LBE28:
  50:src/testFunctions.cpp ****     pt->start();
 151              		.loc 1 50 5 is_stmt 1
 152              		.loc 1 50 14 is_stmt 0
 153 0084 13850400 		mv	a0,s1
 154              	.LEHB2:
 155 0088 97000000 		call	_ZN6Thread5startEv@plt
 155      E7800000 
 156              	.LVL10:
  51:src/testFunctions.cpp ****     time_sleep(15);
 157              		.loc 1 51 5 is_stmt 1
 158              		.loc 1 51 15 is_stmt 0
 159 0090 1305F000 		li	a0,15
 160 0094 97000000 		call	_Z10time_sleepm@plt
 160      E7800000 
 161              	.LVL11:
  52:src/testFunctions.cpp ****     pt->terminate();
 162              		.loc 1 52 5 is_stmt 1
 163              		.loc 1 52 18 is_stmt 0
 164 009c 13850400 		mv	a0,s1
 165 00a0 97000000 		call	_ZN14PeriodicThread9terminateEv@plt
 165      E7800000 
 166              	.LVL12:
  53:src/testFunctions.cpp ****     printString("\nGotova nit 2\n");
GAS LISTING /tmp/ccB27Hek.s 			page 5


 167              		.loc 1 53 5 is_stmt 1
 168              		.loc 1 53 16 is_stmt 0
 169 00a8 17050000 		lla	a0,.LC1
 169      13050500 
 170 00b0 97000000 		call	_Z11printStringPKc@plt
 170      E7800000 
 171              	.LVL13:
  54:src/testFunctions.cpp **** }
 172              		.loc 1 54 1
 173 00b8 83308101 		ld	ra,24(sp)
 174              		.cfi_remember_state
 175              		.cfi_restore 1
 176 00bc 03340101 		ld	s0,16(sp)
 177              		.cfi_restore 8
 178              		.cfi_def_cfa 2, 32
 179 00c0 83348100 		ld	s1,8(sp)
 180              		.cfi_restore 9
 181              	.LVL14:
 182 00c4 03390100 		ld	s2,0(sp)
 183              		.cfi_restore 18
 184 00c8 13010102 		addi	sp,sp,32
 185              		.cfi_def_cfa_offset 0
 186 00cc 67800000 		jr	ra
 187              	.LVL15:
 188              	.L10:
 189              		.cfi_restore_state
 190 00d0 13090500 		mv	s2,a0
  49:src/testFunctions.cpp ****     pt->start();
 191              		.loc 1 49 36
 192 00d4 13850400 		mv	a0,s1
 193 00d8 97000000 		call	_ZdlPv@plt
 193      E7800000 
 194              	.LVL16:
 195 00e0 13050900 		mv	a0,s2
 196 00e4 97000000 		call	_Unwind_Resume@plt
 196      E7800000 
 197              	.LVL17:
 198              	.LEHE2:
 199              		.cfi_endproc
 200              	.LFE63:
 201              		.globl	__gxx_personality_v0
 202              		.section	.gcc_except_table,"a",@progbits
 203              	.LLSDA63:
 204 0000 FF       		.byte	0xff
 205 0001 FF       		.byte	0xff
 206 0002 03       		.byte	0x3
 207 0003 27       		.byte	0x27
 208 0004 00000000 		.4byte	.LEHB0-.LFB63
 209 0008 00000000 		.4byte	.LEHE0-.LEHB0
 210 000c 00000000 		.4byte	0
 211 0010 00       		.byte	0
 212 0011 00000000 		.4byte	.LEHB1-.LFB63
 213 0015 00000000 		.4byte	.LEHE1-.LEHB1
 214 0019 00000000 		.4byte	.L10-.LFB63
 215 001d 00       		.byte	0
 216 001e 00000000 		.4byte	.LEHB2-.LFB63
 217 0022 00000000 		.4byte	.LEHE2-.LEHB2
GAS LISTING /tmp/ccB27Hek.s 			page 6


 218 0026 00000000 		.4byte	0
 219 002a 00       		.byte	0
 220              		.text
 222              		.section	.text._ZN3perD2Ev,"axG",@progbits,_ZN3perD5Ev,comdat
 223              		.align	2
 224              		.weak	_ZN3perD2Ev
 226              	_ZN3perD2Ev:
 227              	.LFB67:
  39:src/testFunctions.cpp **** public:
 228              		.loc 1 39 7 is_stmt 1
 229              		.cfi_startproc
 230              	.LVL18:
 231 0000 130101FF 		addi	sp,sp,-16
 232              		.cfi_def_cfa_offset 16
 233 0004 23341100 		sd	ra,8(sp)
 234 0008 23308100 		sd	s0,0(sp)
 235              		.cfi_offset 1, -8
 236              		.cfi_offset 8, -16
 237 000c 13040101 		addi	s0,sp,16
 238              		.cfi_def_cfa 8, 0
 239              	.LVL19:
 240              	.LBB30:
 241              	.LBB31:
 242              		.file 2 "src/../h/syscall_cpp.hpp"
   1:src/../h/syscall_cpp.hpp **** #ifndef _syscall_cpp
   2:src/../h/syscall_cpp.hpp **** #define _syscall_cpp
   3:src/../h/syscall_cpp.hpp **** 
   4:src/../h/syscall_cpp.hpp **** #include "../lib/hw.h"
   5:src/../h/syscall_cpp.hpp **** 
   6:src/../h/syscall_cpp.hpp **** void* operator new(size_t);
   7:src/../h/syscall_cpp.hpp **** 
   8:src/../h/syscall_cpp.hpp **** void* operator new[](size_t);
   9:src/../h/syscall_cpp.hpp **** 
  10:src/../h/syscall_cpp.hpp **** void operator delete(void*)
  11:src/../h/syscall_cpp.hpp **** 
  12:src/../h/syscall_cpp.hpp **** noexcept;
  13:src/../h/syscall_cpp.hpp **** 
  14:src/../h/syscall_cpp.hpp **** void operator delete[](void*)
  15:src/../h/syscall_cpp.hpp **** 
  16:src/../h/syscall_cpp.hpp **** noexcept;
  17:src/../h/syscall_cpp.hpp **** 
  18:src/../h/syscall_cpp.hpp **** class TCB;
  19:src/../h/syscall_cpp.hpp **** 
  20:src/../h/syscall_cpp.hpp **** typedef TCB* thread_t;
  21:src/../h/syscall_cpp.hpp **** 
  22:src/../h/syscall_cpp.hpp **** class KSem;
  23:src/../h/syscall_cpp.hpp **** 
  24:src/../h/syscall_cpp.hpp **** typedef KSem* sem_t;
  25:src/../h/syscall_cpp.hpp **** 
  26:src/../h/syscall_cpp.hpp **** class Thread {
  27:src/../h/syscall_cpp.hpp **** public:
  28:src/../h/syscall_cpp.hpp ****     //konstruktor koji pravi nit koja izvrsava zadatu funkciju sa zadatim argumentima, ne pokrece n
  29:src/../h/syscall_cpp.hpp ****     Thread(void (* body)(void*), void* arg);
  30:src/../h/syscall_cpp.hpp **** 
  31:src/../h/syscall_cpp.hpp ****     virtual ~Thread();
  32:src/../h/syscall_cpp.hpp **** 
  33:src/../h/syscall_cpp.hpp ****     //stavlja nit u Scheduler
GAS LISTING /tmp/ccB27Hek.s 			page 7


  34:src/../h/syscall_cpp.hpp ****     int start();
  35:src/../h/syscall_cpp.hpp **** 
  36:src/../h/syscall_cpp.hpp ****     //pozivajuca (running) nit se suspenduje dok se nit ciji se metod poziva(this) ne zavrsi
  37:src/../h/syscall_cpp.hpp ****     void join();
  38:src/../h/syscall_cpp.hpp **** 
  39:src/../h/syscall_cpp.hpp ****     //sinhrona promena konteksta
  40:src/../h/syscall_cpp.hpp ****     static void dispatch();
  41:src/../h/syscall_cpp.hpp **** 
  42:src/../h/syscall_cpp.hpp ****     //uspavljuje tekucu nit na zadati period
  43:src/../h/syscall_cpp.hpp ****     static int sleep(time_t);
  44:src/../h/syscall_cpp.hpp **** 
  45:src/../h/syscall_cpp.hpp **** protected:
  46:src/../h/syscall_cpp.hpp ****     //konstruktor koji pravi nit koja izvrsava run metodu, ne stavlja je u Scheduler
  47:src/../h/syscall_cpp.hpp ****     Thread();
  48:src/../h/syscall_cpp.hpp **** 
  49:src/../h/syscall_cpp.hpp ****     //funkcija koju nit izvrsava, samo ako je nit napravljena podrazumevanim konstruktorom
  50:src/../h/syscall_cpp.hpp ****     virtual void run() {}
  51:src/../h/syscall_cpp.hpp **** 
  52:src/../h/syscall_cpp.hpp **** private:
  53:src/../h/syscall_cpp.hpp ****     //pokazivac na TCB strukturu kernela
  54:src/../h/syscall_cpp.hpp ****     thread_t myHandle;
  55:src/../h/syscall_cpp.hpp **** 
  56:src/../h/syscall_cpp.hpp ****     void (* body)(void*);
  57:src/../h/syscall_cpp.hpp **** 
  58:src/../h/syscall_cpp.hpp ****     void* arg;
  59:src/../h/syscall_cpp.hpp **** 
  60:src/../h/syscall_cpp.hpp ****     static void wrapper(void* thread);
  61:src/../h/syscall_cpp.hpp **** };
  62:src/../h/syscall_cpp.hpp **** 
  63:src/../h/syscall_cpp.hpp **** 
  64:src/../h/syscall_cpp.hpp **** class Semaphore {
  65:src/../h/syscall_cpp.hpp **** public:
  66:src/../h/syscall_cpp.hpp **** 
  67:src/../h/syscall_cpp.hpp ****     Semaphore(unsigned init = 1);
  68:src/../h/syscall_cpp.hpp **** 
  69:src/../h/syscall_cpp.hpp ****     virtual ~Semaphore();
  70:src/../h/syscall_cpp.hpp **** 
  71:src/../h/syscall_cpp.hpp ****     int wait();
  72:src/../h/syscall_cpp.hpp **** 
  73:src/../h/syscall_cpp.hpp ****     int signal();
  74:src/../h/syscall_cpp.hpp **** 
  75:src/../h/syscall_cpp.hpp **** private:
  76:src/../h/syscall_cpp.hpp ****     sem_t myHandle;
  77:src/../h/syscall_cpp.hpp **** 
  78:src/../h/syscall_cpp.hpp **** };
  79:src/../h/syscall_cpp.hpp **** 
  80:src/../h/syscall_cpp.hpp **** 
  81:src/../h/syscall_cpp.hpp **** class PeriodicThread : public Thread {
 243              		.loc 2 81 7 is_stmt 0
 244 0010 97070000 		la	a5,_ZTV14PeriodicThread
 244      83B70700 
 245 0018 93870701 		addi	a5,a5,16
 246 001c 2330F500 		sd	a5,0(a0)
 247 0020 97000000 		call	_ZN6ThreadD2Ev@plt
 247      E7800000 
 248              	.LVL20:
 249              	.LBE31:
GAS LISTING /tmp/ccB27Hek.s 			page 8


 250              	.LBE30:
  39:src/testFunctions.cpp **** public:
 251              		.loc 1 39 7
 252 0028 83308100 		ld	ra,8(sp)
 253              		.cfi_restore 1
 254 002c 03340100 		ld	s0,0(sp)
 255              		.cfi_restore 8
 256              		.cfi_def_cfa 2, 16
 257 0030 13010101 		addi	sp,sp,16
 258              		.cfi_def_cfa_offset 0
 259 0034 67800000 		jr	ra
 260              		.cfi_endproc
 261              	.LFE67:
 263              		.weak	_ZN3perD1Ev
 264              		.set	_ZN3perD1Ev,_ZN3perD2Ev
 265              		.section	.text._ZN3perD0Ev,"axG",@progbits,_ZN3perD5Ev,comdat
 266              		.align	2
 267              		.weak	_ZN3perD0Ev
 269              	_ZN3perD0Ev:
 270              	.LFB69:
  39:src/testFunctions.cpp **** public:
 271              		.loc 1 39 7 is_stmt 1
 272              		.cfi_startproc
 273              	.LVL21:
 274 0000 130101FE 		addi	sp,sp,-32
 275              		.cfi_def_cfa_offset 32
 276 0004 233C1100 		sd	ra,24(sp)
 277 0008 23388100 		sd	s0,16(sp)
 278 000c 23349100 		sd	s1,8(sp)
 279              		.cfi_offset 1, -8
 280              		.cfi_offset 8, -16
 281              		.cfi_offset 9, -24
 282 0010 13040102 		addi	s0,sp,32
 283              		.cfi_def_cfa 8, 0
 284 0014 93040500 		mv	s1,a0
 285              	.LVL22:
 286              	.LBB32:
 287              	.LBB33:
 288              	.LBB34:
 289              		.loc 2 81 7 is_stmt 0
 290 0018 97070000 		la	a5,_ZTV14PeriodicThread
 290      83B70700 
 291 0020 93870701 		addi	a5,a5,16
 292 0024 2330F500 		sd	a5,0(a0)
 293 0028 97000000 		call	_ZN6ThreadD2Ev@plt
 293      E7800000 
 294              	.LVL23:
 295              	.LBE34:
 296              	.LBE33:
 297              	.LBE32:
  39:src/testFunctions.cpp **** public:
 298              		.loc 1 39 7
 299 0030 13850400 		mv	a0,s1
 300 0034 97000000 		call	_ZdlPv@plt
 300      E7800000 
 301              	.LVL24:
 302 003c 83308101 		ld	ra,24(sp)
GAS LISTING /tmp/ccB27Hek.s 			page 9


 303              		.cfi_restore 1
 304 0040 03340101 		ld	s0,16(sp)
 305              		.cfi_restore 8
 306              		.cfi_def_cfa 2, 32
 307 0044 83348100 		ld	s1,8(sp)
 308              		.cfi_restore 9
 309              	.LVL25:
 310 0048 13010102 		addi	sp,sp,32
 311              		.cfi_def_cfa_offset 0
 312 004c 67800000 		jr	ra
 313              		.cfi_endproc
 314              	.LFE69:
 316              		.section	.rodata.str1.8
 317 000f 00       		.align	3
 318              	.LC2:
 319 0010 0A476F74 		.string	"\nGotova nit3\n"
 319      6F766120 
 319      6E697433 
 319      0A00
 320              		.text
 321              		.align	2
 322              		.globl	_Z5nit3fPv
 324              	_Z5nit3fPv:
 325              	.LFB64:
  55:src/testFunctions.cpp **** 
  56:src/testFunctions.cpp **** 
  57:src/testFunctions.cpp **** void nit3f(void*) {
 326              		.loc 1 57 19 is_stmt 1
 327              		.cfi_startproc
 328 00ec 130101FE 		addi	sp,sp,-32
 329              		.cfi_def_cfa_offset 32
 330 00f0 233C1100 		sd	ra,24(sp)
 331 00f4 23388100 		sd	s0,16(sp)
 332 00f8 23349100 		sd	s1,8(sp)
 333              		.cfi_offset 1, -8
 334              		.cfi_offset 8, -16
 335              		.cfi_offset 9, -24
 336 00fc 13040102 		addi	s0,sp,32
 337              		.cfi_def_cfa 8, 0
 338 0100 6F008001 		j	.L19
 339              	.LVL26:
 340              	.L22:
  58:src/testFunctions.cpp ****     char slovo;
  59:src/testFunctions.cpp ****     do {
  60:src/testFunctions.cpp ****         slovo = getc();
  61:src/testFunctions.cpp ****         putc(slovo);
  62:src/testFunctions.cpp ****         if (slovo == '\r') putc('\n');
 341              		.loc 1 62 28 discriminator 1
 342              		.loc 1 62 32 is_stmt 0 discriminator 1
 343 0104 1305A000 		li	a0,10
 344 0108 97000000 		call	_Z4putcc@plt
 344      E7800000 
 345              	.LVL27:
 346              	.L18:
  63:src/testFunctions.cpp ****     } while (slovo != '0');
 347              		.loc 1 63 20 is_stmt 1
 348 0110 93070003 		li	a5,48
GAS LISTING /tmp/ccB27Hek.s 			page 10


 349 0114 6382F402 		beq	s1,a5,.L21
 350              	.LVL28:
 351              	.L19:
  58:src/testFunctions.cpp ****     char slovo;
 352              		.loc 1 58 5
  59:src/testFunctions.cpp ****         slovo = getc();
 353              		.loc 1 59 5
  60:src/testFunctions.cpp ****         putc(slovo);
 354              		.loc 1 60 9
  60:src/testFunctions.cpp ****         putc(slovo);
 355              		.loc 1 60 21 is_stmt 0
 356 0118 97000000 		call	_Z4getcv@plt
 356      E7800000 
 357              	.LVL29:
 358 0120 93040500 		mv	s1,a0
 359              	.LVL30:
  61:src/testFunctions.cpp ****         if (slovo == '\r') putc('\n');
 360              		.loc 1 61 9 is_stmt 1
  61:src/testFunctions.cpp ****         if (slovo == '\r') putc('\n');
 361              		.loc 1 61 13 is_stmt 0
 362 0124 97000000 		call	_Z4putcc@plt
 362      E7800000 
 363              	.LVL31:
  62:src/testFunctions.cpp ****     } while (slovo != '0');
 364              		.loc 1 62 9 is_stmt 1
 365 012c 9307D000 		li	a5,13
 366 0130 E390F4FE 		bne	s1,a5,.L18
 367 0134 6FF01FFD 		j	.L22
 368              	.L21:
  64:src/testFunctions.cpp **** 
  65:src/testFunctions.cpp ****     printString("\nGotova nit3\n");
 369              		.loc 1 65 5
 370              		.loc 1 65 16 is_stmt 0
 371 0138 17050000 		lla	a0,.LC2
 371      13050500 
 372 0140 97000000 		call	_Z11printStringPKc@plt
 372      E7800000 
 373              	.LVL32:
  66:src/testFunctions.cpp **** }
 374              		.loc 1 66 1
 375 0148 83308101 		ld	ra,24(sp)
 376              		.cfi_restore 1
 377 014c 03340101 		ld	s0,16(sp)
 378              		.cfi_restore 8
 379              		.cfi_def_cfa 2, 32
 380 0150 83348100 		ld	s1,8(sp)
 381              		.cfi_restore 9
 382              	.LVL33:
 383 0154 13010102 		addi	sp,sp,32
 384              		.cfi_def_cfa_offset 0
 385 0158 67800000 		jr	ra
 386              		.cfi_endproc
 387              	.LFE64:
 389              		.section	.rodata.str1.8
 390 001e 0000     		.align	3
 391              	.LC3:
 392 0020 0A476F74 		.string	"\nGotove user niti\n"
GAS LISTING /tmp/ccB27Hek.s 			page 11


 392      6F766520 
 392      75736572 
 392      206E6974 
 392      690A00
 393 0033 00000000 		.align	3
 393      00
 394              	.LC4:
 395 0038 0A536164 		.string	"\nSad cu da izadjem\n"
 395      20637520 
 395      64612069 
 395      7A61646A 
 395      656D0A00 
 396              		.text
 397              		.align	2
 398              		.globl	_Z5main2v
 400              	_Z5main2v:
 401              	.LFB65:
  67:src/testFunctions.cpp **** 
  68:src/testFunctions.cpp **** 
  69:src/testFunctions.cpp **** int main2() {
 402              		.loc 1 69 13 is_stmt 1
 403              		.cfi_startproc
 404 015c 130101FC 		addi	sp,sp,-64
 405              		.cfi_def_cfa_offset 64
 406 0160 233C1102 		sd	ra,56(sp)
 407 0164 23388102 		sd	s0,48(sp)
 408              		.cfi_offset 1, -8
 409              		.cfi_offset 8, -16
 410 0168 13040104 		addi	s0,sp,64
 411              		.cfi_def_cfa 8, 0
  70:src/testFunctions.cpp **** //postavi adresu prekidne rutine u stvec
  71:src/testFunctions.cpp ****     __asm__ volatile("csrw stvec, %[handler]": :[handler] "r"(&interruptHandler));
 412              		.loc 1 71 5
 413              		.loc 1 71 82 is_stmt 0
 414 016c 97070000 		la	a5,interruptHandler
 414      83B70700 
 415              	#APP
 416              	# 71 "src/testFunctions.cpp" 1
  72              	
  73:src/testFunctions.cpp ****     //inicijalizacija alokatora memorije
  74:src/testFunctions.cpp ****     KMemory::initializeMemory();
 417              		csrw stvec, a5
 418              	# 0 "" 2
 419              		.loc 1 74 5 is_stmt 1
 420              		.loc 1 74 30 is_stmt 0
 421              	#NO_APP
 422 0178 97000000 		call	_ZN7KMemory16initializeMemoryEv@plt
 422      E7800000 
 423              	.LVL34:
  75:src/testFunctions.cpp **** 
  76:src/testFunctions.cpp ****     //inicijalizacija komunikacije sa konzolom
  77:src/testFunctions.cpp ****     KConsole::initKConsole();
 424              		.loc 1 77 5 is_stmt 1
 425              		.loc 1 77 27 is_stmt 0
 426 0180 97000000 		call	_ZN8KConsole12initKConsoleEv@plt
 426      E7800000 
 427              	.LVL35:
GAS LISTING /tmp/ccB27Hek.s 			page 12


  78:src/testFunctions.cpp **** 
  79:src/testFunctions.cpp **** 
  80:src/testFunctions.cpp **** 
  81:src/testFunctions.cpp ****     //testiranje alociranja memorije
  82:src/testFunctions.cpp ****     //testMemory();
  83:src/testFunctions.cpp **** //	uint64* ptr = new uint64;
  84:src/testFunctions.cpp **** //	*ptr = 6;
  85:src/testFunctions.cpp **** //	printInteger(*ptr);
  86:src/testFunctions.cpp **** 
  87:src/testFunctions.cpp ****     //testiranje liste
  88:src/testFunctions.cpp **** //	List<uint64>* lista = new List<uint64>();
  89:src/testFunctions.cpp **** //	uint64 num = 10;
  90:src/testFunctions.cpp **** //	lista->addFirst(&num);
  91:src/testFunctions.cpp **** //	println("");
  92:src/testFunctions.cpp **** //	printInteger(*(lista->peekFirst()));
  93:src/testFunctions.cpp **** //	delete lista;
  94:src/testFunctions.cpp **** //	println("");
  95:src/testFunctions.cpp **** 
  96:src/testFunctions.cpp ****     //testiranje kreiranja niti
  97:src/testFunctions.cpp ****     thread_t glavnaNit = nullptr;
 428              		.loc 1 97 5 is_stmt 1
 429              		.loc 1 97 14 is_stmt 0
 430 0188 233404FE 		sd	zero,-24(s0)
  98:src/testFunctions.cpp ****     thread_t nit1 = nullptr;
 431              		.loc 1 98 5 is_stmt 1
 432              		.loc 1 98 14 is_stmt 0
 433 018c 233004FE 		sd	zero,-32(s0)
  99:src/testFunctions.cpp ****     thread_t nit2 = nullptr;
 434              		.loc 1 99 5 is_stmt 1
 435              		.loc 1 99 14 is_stmt 0
 436 0190 233C04FC 		sd	zero,-40(s0)
 100:src/testFunctions.cpp ****     thread_t nit3 = nullptr;
 437              		.loc 1 100 5 is_stmt 1
 438              		.loc 1 100 14 is_stmt 0
 439 0194 233804FC 		sd	zero,-48(s0)
 101:src/testFunctions.cpp ****     thread_t idleNit = nullptr;
 440              		.loc 1 101 5 is_stmt 1
 441              		.loc 1 101 14 is_stmt 0
 442 0198 233404FC 		sd	zero,-56(s0)
 102:src/testFunctions.cpp ****     thread_t kernelConsumerThread = nullptr;
 443              		.loc 1 102 5 is_stmt 1
 444              		.loc 1 102 14 is_stmt 0
 445 019c 233004FC 		sd	zero,-64(s0)
 103:src/testFunctions.cpp ****     thread_create(&glavnaNit, (TCB::Body)main, nullptr);
 446              		.loc 1 103 5 is_stmt 1
 447              		.loc 1 103 18 is_stmt 0
 448 01a0 13060000 		li	a2,0
 449 01a4 97050000 		la	a1,main
 449      83B50500 
 450 01ac 130584FE 		addi	a0,s0,-24
 451 01b0 97000000 		call	_Z13thread_createPP3TCBPFvPvES2_@plt
 451      E7800000 
 452              	.LVL36:
 104:src/testFunctions.cpp ****     TCB::setRunning(glavnaNit);
 453              		.loc 1 104 5 is_stmt 1
 454              	.LBB35:
 455              	.LBB36:
GAS LISTING /tmp/ccB27Hek.s 			page 13


 456              		.file 3 "src/../h/TCB.hpp"
   1:src/../h/TCB.hpp **** //
   2:src/../h/TCB.hpp **** // Created by os on 5/23/23.
   3:src/../h/TCB.hpp **** //
   4:src/../h/TCB.hpp **** 
   5:src/../h/TCB.hpp **** #ifndef PROJEKAT2023_TCB_HPP
   6:src/../h/TCB.hpp **** #define PROJEKAT2023_TCB_HPP
   7:src/../h/TCB.hpp **** 
   8:src/../h/TCB.hpp **** #include "../lib/hw.h"
   9:src/../h/TCB.hpp **** #include "../h/ThreadQueue.hpp"
  10:src/../h/TCB.hpp **** 
  11:src/../h/TCB.hpp **** int main();
  12:src/../h/TCB.hpp **** class TCB {
  13:src/../h/TCB.hpp **** public:
  14:src/../h/TCB.hpp ****     friend class Scheduler;
  15:src/../h/TCB.hpp **** 
  16:src/../h/TCB.hpp ****     using Body = void (*)(void*);
  17:src/../h/TCB.hpp **** 
  18:src/../h/TCB.hpp ****     enum ThreadStatus {
  19:src/../h/TCB.hpp ****         CREATED, ACTIVE, BLOCKED, JOINING, SLEEPING, FINISHED
  20:src/../h/TCB.hpp ****     };
  21:src/../h/TCB.hpp **** 
  22:src/../h/TCB.hpp ****     void setStatus(ThreadStatus stat) { this->status = stat; }
  23:src/../h/TCB.hpp **** 
  24:src/../h/TCB.hpp ****     ThreadStatus getStatus() { return this->status; }
  25:src/../h/TCB.hpp **** 
  26:src/../h/TCB.hpp ****     static TCB* createThread(Body function, void* args, uint64* stack);
  27:src/../h/TCB.hpp **** 
  28:src/../h/TCB.hpp ****     static void start(TCB* newTcb);
  29:src/../h/TCB.hpp **** 
  30:src/../h/TCB.hpp ****     uint64 getTimeSlice() { return timeSlice; }
  31:src/../h/TCB.hpp **** 
  32:src/../h/TCB.hpp ****     void setTimeSlice(uint64 value) { timeSlice = value; }
  33:src/../h/TCB.hpp **** 
  34:src/../h/TCB.hpp ****     Body getBody() { return threadFunction; }
  35:src/../h/TCB.hpp **** 
  36:src/../h/TCB.hpp ****     static TCB* getRunning() { return running; }
  37:src/../h/TCB.hpp **** 
  38:src/../h/TCB.hpp ****     static void setRunning(TCB* newRunning) { running = newRunning; }
 457              		.loc 3 38 47
 458              		.loc 3 38 55 is_stmt 0
 459 01b8 033784FE 		ld	a4,-24(s0)
 460 01bc 97070000 		la	a5,_ZN3TCB7runningE
 460      83B70700 
 461 01c4 23B0E700 		sd	a4,0(a5)
 462              	.LVL37:
 463              	.LBE36:
 464              	.LBE35:
 105:src/testFunctions.cpp ****     thread_create(&idleNit, idle, nullptr);
 465              		.loc 1 105 5 is_stmt 1
 466              		.loc 1 105 18 is_stmt 0
 467 01c8 13060000 		li	a2,0
 468 01cc 97050000 		la	a1,_Z4idlePv
 468      83B50500 
 469 01d4 130584FC 		addi	a0,s0,-56
 470 01d8 97000000 		call	_Z13thread_createPP3TCBPFvPvES2_@plt
 470      E7800000 
GAS LISTING /tmp/ccB27Hek.s 			page 14


 471              	.LVL38:
 106:src/testFunctions.cpp ****     thread_create(&kernelConsumerThread, kernelConsumerFunction, nullptr);
 472              		.loc 1 106 5 is_stmt 1
 473              		.loc 1 106 18 is_stmt 0
 474 01e0 13060000 		li	a2,0
 475 01e4 97050000 		la	a1,_Z22kernelConsumerFunctionPv
 475      83B50500 
 476 01ec 130504FC 		addi	a0,s0,-64
 477 01f0 97000000 		call	_Z13thread_createPP3TCBPFvPvES2_@plt
 477      E7800000 
 478              	.LVL39:
 107:src/testFunctions.cpp **** 
 108:src/testFunctions.cpp **** 
 109:src/testFunctions.cpp ****     thread_create(&nit1, nit1f, nullptr);
 479              		.loc 1 109 5 is_stmt 1
 480              		.loc 1 109 18 is_stmt 0
 481 01f8 13060000 		li	a2,0
 482 01fc 97050000 		lla	a1,_Z5nit1fPv
 482      93850500 
 483 0204 130504FE 		addi	a0,s0,-32
 484 0208 97000000 		call	_Z13thread_createPP3TCBPFvPvES2_@plt
 484      E7800000 
 485              	.LVL40:
 110:src/testFunctions.cpp ****     thread_create(&nit2, nit2f, nullptr);
 486              		.loc 1 110 5 is_stmt 1
 487              		.loc 1 110 18 is_stmt 0
 488 0210 13060000 		li	a2,0
 489 0214 97050000 		lla	a1,_Z5nit2fPv
 489      93850500 
 490 021c 130584FD 		addi	a0,s0,-40
 491 0220 97000000 		call	_Z13thread_createPP3TCBPFvPvES2_@plt
 491      E7800000 
 492              	.LVL41:
 111:src/testFunctions.cpp ****     thread_create(&nit3, nit3f, nullptr);
 493              		.loc 1 111 5 is_stmt 1
 494              		.loc 1 111 18 is_stmt 0
 495 0228 13060000 		li	a2,0
 496 022c 97050000 		lla	a1,_Z5nit3fPv
 496      93850500 
 497 0234 130504FD 		addi	a0,s0,-48
 498 0238 97000000 		call	_Z13thread_createPP3TCBPFvPvES2_@plt
 498      E7800000 
 499              	.LVL42:
 112:src/testFunctions.cpp **** 
 113:src/testFunctions.cpp ****     //omoguci prekide
 114:src/testFunctions.cpp ****     Riscv::ms_sstatus(Riscv::SSTATUS_SIE);
 500              		.loc 1 114 5 is_stmt 1
 501              	.LBB37:
 502              	.LBB38:
 503              		.file 4 "src/../h/Riscv.hpp"
   1:src/../h/Riscv.hpp **** //
   2:src/../h/Riscv.hpp **** // Created by os on 5/17/23.
   3:src/../h/Riscv.hpp **** //
   4:src/../h/Riscv.hpp **** 
   5:src/../h/Riscv.hpp **** #ifndef PROJEKAT2023_RISCV_HPP
   6:src/../h/Riscv.hpp **** #define PROJEKAT2023_RISCV_HPP
   7:src/../h/Riscv.hpp **** 
GAS LISTING /tmp/ccB27Hek.s 			page 15


   8:src/../h/Riscv.hpp **** #include "../lib/hw.h"
   9:src/../h/Riscv.hpp **** 
  10:src/../h/Riscv.hpp **** class Riscv {
  11:src/../h/Riscv.hpp **** public:
  12:src/../h/Riscv.hpp **** 
  13:src/../h/Riscv.hpp **** 	static void returnFromInterrupt();
  14:src/../h/Riscv.hpp **** 
  15:src/../h/Riscv.hpp **** 	//read scause
  16:src/../h/Riscv.hpp **** 	static uint64 r_scause();
  17:src/../h/Riscv.hpp **** 
  18:src/../h/Riscv.hpp **** 	//write scause
  19:src/../h/Riscv.hpp **** 	static void w_scause(uint64 scause);
  20:src/../h/Riscv.hpp **** 
  21:src/../h/Riscv.hpp **** 	//read sepc
  22:src/../h/Riscv.hpp **** 	static uint64 r_sepc();
  23:src/../h/Riscv.hpp **** 
  24:src/../h/Riscv.hpp **** 	//write sepc
  25:src/../h/Riscv.hpp **** 	static void w_sepc(uint64 sepc);
  26:src/../h/Riscv.hpp **** 
  27:src/../h/Riscv.hpp **** 	//read stvec
  28:src/../h/Riscv.hpp **** 	static uint64 r_stvec();
  29:src/../h/Riscv.hpp **** 
  30:src/../h/Riscv.hpp **** 	//write stvec
  31:src/../h/Riscv.hpp **** 	static void w_stvec(uint64 stvec);
  32:src/../h/Riscv.hpp **** 
  33:src/../h/Riscv.hpp **** 	enum BitMaskSip {
  34:src/../h/Riscv.hpp **** 		//postoji zahtev za softverski prekid
  35:src/../h/Riscv.hpp **** 		SIP_SSIP = (1 << 1),
  36:src/../h/Riscv.hpp **** 		//postoji prekid od tajmera
  37:src/../h/Riscv.hpp **** 		SIP_STIP = (1 << 5),
  38:src/../h/Riscv.hpp **** 		//postoji zahtev za spoljasnji hardverski prekid
  39:src/../h/Riscv.hpp **** 		SIP_SEIP = (1 << 9)
  40:src/../h/Riscv.hpp **** 	};
  41:src/../h/Riscv.hpp **** 
  42:src/../h/Riscv.hpp **** 	//mask set sip
  43:src/../h/Riscv.hpp **** 	static void ms_sip(uint64 mask);
  44:src/../h/Riscv.hpp **** 
  45:src/../h/Riscv.hpp **** 	//mask clear sip
  46:src/../h/Riscv.hpp **** 	static void mc_sip(uint64 mask);
  47:src/../h/Riscv.hpp **** 
  48:src/../h/Riscv.hpp **** 	//read sip
  49:src/../h/Riscv.hpp **** 	static uint64 r_sip();
  50:src/../h/Riscv.hpp **** 
  51:src/../h/Riscv.hpp **** 	//write sip
  52:src/../h/Riscv.hpp **** 	static void w_sip(uint64 sip);
  53:src/../h/Riscv.hpp **** 
  54:src/../h/Riscv.hpp **** 	//kada se pozove sret, SIE dobija vrednost SPIE, SPIE se postavlja na 1,
  55:src/../h/Riscv.hpp **** 	//rezim se postavlja na osnovu SPP bita, SPP se postavlja na 0
  56:src/../h/Riscv.hpp **** 	enum BitMaskSstatus {
  57:src/../h/Riscv.hpp **** 		//1 - dozvoljeni prekidi; 0- nedozvoljeni prekidi; igonrise se u korisnickom rezimu
  58:src/../h/Riscv.hpp **** 		SSTATUS_SIE = (1 << 1),
  59:src/../h/Riscv.hpp **** 		//prethodna vrednost bita SIE
  60:src/../h/Riscv.hpp **** 		SSTATUS_SPIE = (1 << 5),
  61:src/../h/Riscv.hpp **** 		//iz kog rezima se desio skok; 0 - iz korisnickog; 1 - iz sistemskog
  62:src/../h/Riscv.hpp **** 		SSTATUS_SPP = (1 << 8)
  63:src/../h/Riscv.hpp **** 	};
  64:src/../h/Riscv.hpp **** 
GAS LISTING /tmp/ccB27Hek.s 			page 16


  65:src/../h/Riscv.hpp **** 	//mask set sstatus
  66:src/../h/Riscv.hpp **** 	static void ms_sstatus(uint64 mask);
  67:src/../h/Riscv.hpp **** 
  68:src/../h/Riscv.hpp **** 	//mask clear sstatus
  69:src/../h/Riscv.hpp **** 	static void mc_sstatus(uint64 mask);
  70:src/../h/Riscv.hpp **** 
  71:src/../h/Riscv.hpp **** 	//read sstatus
  72:src/../h/Riscv.hpp **** 	static uint64 r_sstatus();
  73:src/../h/Riscv.hpp **** 
  74:src/../h/Riscv.hpp **** 	//write sstatus
  75:src/../h/Riscv.hpp **** 	static void w_sstatus(uint64 sstatus);
  76:src/../h/Riscv.hpp **** 
  77:src/../h/Riscv.hpp **** 	//upisuje kod sistemskog poziva u registar a0
  78:src/../h/Riscv.hpp **** 	static void loadOpCode(uint64 opCode);
  79:src/../h/Riscv.hpp **** 
  80:src/../h/Riscv.hpp **** };
  81:src/../h/Riscv.hpp **** 
  82:src/../h/Riscv.hpp **** inline uint64 Riscv::r_scause() {
  83:src/../h/Riscv.hpp **** 	uint64 volatile scause;
  84:src/../h/Riscv.hpp **** 	__asm__ volatile("csrr %[scause], scause": [scause] "=r"(scause));
  85:src/../h/Riscv.hpp **** 	return scause;
  86:src/../h/Riscv.hpp **** }
  87:src/../h/Riscv.hpp **** 
  88:src/../h/Riscv.hpp **** inline void Riscv::w_scause(uint64 scause) {
  89:src/../h/Riscv.hpp **** 	__asm__ volatile("csrw scause, %[scause]": :[scause] "r"(scause));
  90:src/../h/Riscv.hpp **** }
  91:src/../h/Riscv.hpp **** 
  92:src/../h/Riscv.hpp **** inline uint64 Riscv::r_sepc() {
  93:src/../h/Riscv.hpp **** 	uint64 volatile sepc;
  94:src/../h/Riscv.hpp **** 	__asm__ volatile("csrr %[sepc], sepc": [sepc] "=r"(sepc));
  95:src/../h/Riscv.hpp **** 	return sepc;
  96:src/../h/Riscv.hpp **** }
  97:src/../h/Riscv.hpp **** 
  98:src/../h/Riscv.hpp **** inline void Riscv::w_sepc(uint64 sepc) {
  99:src/../h/Riscv.hpp **** 	__asm__ volatile("csrw sepc, %[sepc]": :[sepc] "r"(sepc));
 100:src/../h/Riscv.hpp **** }
 101:src/../h/Riscv.hpp **** 
 102:src/../h/Riscv.hpp **** inline uint64 Riscv::r_stvec() {
 103:src/../h/Riscv.hpp **** 	uint64 volatile stvec;
 104:src/../h/Riscv.hpp **** 	__asm__ volatile("csrr %[stvec], stvec": [stvec] "=r"(stvec));
 105:src/../h/Riscv.hpp **** 	return stvec;
 106:src/../h/Riscv.hpp **** }
 107:src/../h/Riscv.hpp **** 
 108:src/../h/Riscv.hpp **** inline void Riscv::w_stvec(uint64 stvec) {
 109:src/../h/Riscv.hpp **** 	__asm__ volatile("csrw stvec, %[stvec]": :[stvec] "r"(stvec));
 110:src/../h/Riscv.hpp **** }
 111:src/../h/Riscv.hpp **** 
 112:src/../h/Riscv.hpp **** inline void Riscv::ms_sip(uint64 mask) {
 113:src/../h/Riscv.hpp **** 	__asm__ volatile("csrs sip, %[mask]": :[mask] "r"(mask));
 114:src/../h/Riscv.hpp **** }
 115:src/../h/Riscv.hpp **** 
 116:src/../h/Riscv.hpp **** inline void Riscv::mc_sip(uint64 mask) {
 117:src/../h/Riscv.hpp **** 	__asm__ volatile("csrc sip, %[mask]": :[mask] "r"(mask));
 118:src/../h/Riscv.hpp **** }
 119:src/../h/Riscv.hpp **** 
 120:src/../h/Riscv.hpp **** inline uint64 Riscv::r_sip() {
 121:src/../h/Riscv.hpp **** 	uint64 volatile sip;
GAS LISTING /tmp/ccB27Hek.s 			page 17


 122:src/../h/Riscv.hpp **** 	__asm__ volatile("csrr %[sip], sip": [sip] "=r"(sip));
 123:src/../h/Riscv.hpp **** 	return sip;
 124:src/../h/Riscv.hpp **** }
 125:src/../h/Riscv.hpp **** 
 126:src/../h/Riscv.hpp **** inline void Riscv::w_sip(uint64 sip) {
 127:src/../h/Riscv.hpp **** 	__asm__ volatile("csrw sip, %[sip]": :[sip] "r"(sip));
 128:src/../h/Riscv.hpp **** }
 129:src/../h/Riscv.hpp **** 
 130:src/../h/Riscv.hpp **** inline void Riscv::ms_sstatus(uint64 mask) {
 131:src/../h/Riscv.hpp **** 	__asm__ volatile("csrs sstatus, %[mask]": :[mask] "r"(mask));
 504              		.loc 4 131 2
 505              		.loc 4 131 62 is_stmt 0
 506 0240 93072000 		li	a5,2
 507              	#APP
 508              	# 131 "src/../h/Riscv.hpp" 1
 132              	}
 509              		csrs sstatus, a5
 510              	# 0 "" 2
 511              	.LVL43:
 512              	#NO_APP
 513              	.LBE38:
 514              	.LBE37:
 115:src/testFunctions.cpp **** 
 116:src/testFunctions.cpp ****     thread_join(nit1);
 515              		.loc 1 116 5 is_stmt 1
 516              		.loc 1 116 16 is_stmt 0
 517 0248 033504FE 		ld	a0,-32(s0)
 518 024c 97000000 		call	_Z11thread_joinP3TCB@plt
 518      E7800000 
 519              	.LVL44:
 117:src/testFunctions.cpp ****     thread_join(nit2);
 520              		.loc 1 117 5 is_stmt 1
 521              		.loc 1 117 16 is_stmt 0
 522 0254 033584FD 		ld	a0,-40(s0)
 523 0258 97000000 		call	_Z11thread_joinP3TCB@plt
 523      E7800000 
 524              	.LVL45:
 118:src/testFunctions.cpp ****     thread_join(nit3);
 525              		.loc 1 118 5 is_stmt 1
 526              		.loc 1 118 16 is_stmt 0
 527 0260 033504FD 		ld	a0,-48(s0)
 528 0264 97000000 		call	_Z11thread_joinP3TCB@plt
 528      E7800000 
 529              	.LVL46:
 119:src/testFunctions.cpp ****     //thread_join(idleNit);
 120:src/testFunctions.cpp **** 
 121:src/testFunctions.cpp ****     printString("\nGotove user niti\n");
 530              		.loc 1 121 5 is_stmt 1
 531              		.loc 1 121 16 is_stmt 0
 532 026c 17050000 		lla	a0,.LC3
 532      13050500 
 533 0274 97000000 		call	_Z11printStringPKc@plt
 533      E7800000 
 534              	.LVL47:
 122:src/testFunctions.cpp **** 
 123:src/testFunctions.cpp ****     printString("\nSad cu da izadjem\n");
 535              		.loc 1 123 5 is_stmt 1
GAS LISTING /tmp/ccB27Hek.s 			page 18


 536              		.loc 1 123 16 is_stmt 0
 537 027c 17050000 		lla	a0,.LC4
 537      13050500 
 538 0284 97000000 		call	_Z11printStringPKc@plt
 538      E7800000 
 539              	.LVL48:
 540              	.L24:
 124:src/testFunctions.cpp ****     while (KConsole::getOutputHead() != KConsole::getOutputTail()) {}
 541              		.loc 1 124 5 is_stmt 1
 542              		.loc 1 124 38
 543              	.LBB39:
 544              	.LBB40:
 545              		.file 5 "src/../h/KConsole.hpp"
   1:src/../h/KConsole.hpp **** //
   2:src/../h/KConsole.hpp **** // Created by os on 6/7/23.
   3:src/../h/KConsole.hpp **** //
   4:src/../h/KConsole.hpp **** 
   5:src/../h/KConsole.hpp **** #ifndef PROJEKAT2023_KCONSOLE_HPP
   6:src/../h/KConsole.hpp **** #define PROJEKAT2023_KCONSOLE_HPP
   7:src/../h/KConsole.hpp **** 
   8:src/../h/KConsole.hpp **** #include "../lib/hw.h"
   9:src/../h/KConsole.hpp **** #include "../h/syscall_c.hpp"
  10:src/../h/KConsole.hpp **** #include "../test/printing.hpp"
  11:src/../h/KConsole.hpp **** #include "../visak/helper.hpp"
  12:src/../h/KConsole.hpp **** 
  13:src/../h/KConsole.hpp **** class KConsole {
  14:src/../h/KConsole.hpp **** public:
  15:src/../h/KConsole.hpp ****     static void kputc(char c);
  16:src/../h/KConsole.hpp **** 
  17:src/../h/KConsole.hpp ****     static char kgetc();
  18:src/../h/KConsole.hpp **** 
  19:src/../h/KConsole.hpp **** 
  20:src/../h/KConsole.hpp ****     static void initKConsole();
  21:src/../h/KConsole.hpp **** 
  22:src/../h/KConsole.hpp ****     static char getFromOutput();
  23:src/../h/KConsole.hpp **** 
  24:src/../h/KConsole.hpp ****     static void placeInInput(char c);
  25:src/../h/KConsole.hpp **** 
  26:src/../h/KConsole.hpp ****     static uint8 getSRvalue() { return *sr; }
  27:src/../h/KConsole.hpp **** 
  28:src/../h/KConsole.hpp ****     static uint8 getDRvalue() { return *dr; }
  29:src/../h/KConsole.hpp **** 
  30:src/../h/KConsole.hpp ****     static void setDRvalue(char c) { *dr = c; }
  31:src/../h/KConsole.hpp **** 
  32:src/../h/KConsole.hpp ****     static sem_t getOutputBufferHasSpace() { return outputBufferHasSpace; }
  33:src/../h/KConsole.hpp **** 
  34:src/../h/KConsole.hpp ****     static int getOutputHead() { return outputHead; }
 546              		.loc 5 34 34
 547              		.loc 5 34 41 is_stmt 0
 548 028c 97070000 		la	a5,_ZN8KConsole10outputHeadE
 548      83B70700 
 549 0294 03A70700 		lw	a4,0(a5)
 550              	.LBE40:
 551              	.LBE39:
 552              	.LBB41:
 553              	.LBB42:
  35:src/../h/KConsole.hpp **** 
GAS LISTING /tmp/ccB27Hek.s 			page 19


  36:src/../h/KConsole.hpp ****     static int getOutputTail(){return outputTail;}
 554              		.loc 5 36 32 is_stmt 1
 555              		.loc 5 36 39 is_stmt 0
 556 0298 97070000 		la	a5,_ZN8KConsole10outputTailE
 556      83B70700 
 557 02a0 83A70700 		lw	a5,0(a5)
 558              	.LBE42:
 559              	.LBE41:
 560              		.loc 1 124 38
 561 02a4 E314F7FE 		bne	a4,a5,.L24
 125:src/testFunctions.cpp **** //	//zabrani prekide
 126:src/testFunctions.cpp ****     Riscv::mc_sstatus(Riscv::SSTATUS_SIE);
 562              		.loc 1 126 5 is_stmt 1
 563              	.LVL49:
 564              	.LBB43:
 565              	.LBB44:
 133:src/../h/Riscv.hpp **** 
 134:src/../h/Riscv.hpp **** inline void Riscv::mc_sstatus(uint64 mask) {
 135:src/../h/Riscv.hpp **** 	__asm__ volatile("csrc sstatus, %[mask]": :[mask] "r"(mask));
 566              		.loc 4 135 2
 567              		.loc 4 135 62 is_stmt 0
 568 02a8 93072000 		li	a5,2
 569              	#APP
 570              	# 135 "src/../h/Riscv.hpp" 1
 136              	}
 571              		csrc sstatus, a5
 572              	# 0 "" 2
 573              	.LVL50:
 574              	#NO_APP
 575              	.LBE44:
 576              	.LBE43:
 127:src/testFunctions.cpp **** 
 128:src/testFunctions.cpp **** 
 129:src/testFunctions.cpp ****     return 0;
 577              		.loc 1 129 5 is_stmt 1
 130:src/testFunctions.cpp **** }...
 578              		.loc 1 130 1 is_stmt 0
 579 02b0 13050000 		li	a0,0
 580 02b4 83308103 		ld	ra,56(sp)
 581              		.cfi_restore 1
 582 02b8 03340103 		ld	s0,48(sp)
 583              		.cfi_restore 8
 584              		.cfi_def_cfa 2, 64
 585 02bc 13010104 		addi	sp,sp,64
 586              		.cfi_def_cfa_offset 0
 587 02c0 67800000 		jr	ra
 588              		.cfi_endproc
 589              	.LFE65:
 591              		.weak	_ZTV3per
 592              		.section	.data.rel.ro._ZTV3per,"awG",@progbits,_ZTV3per,comdat
 593              		.align	3
 596              	_ZTV3per:
 597 0000 00000000 		.dword	0
 597      00000000 
 598 0008 00000000 		.dword	0
 598      00000000 
 599 0010 00000000 		.dword	_ZN3perD1Ev
GAS LISTING /tmp/ccB27Hek.s 			page 20


 599      00000000 
 600 0018 00000000 		.dword	_ZN3perD0Ev
 600      00000000 
 601 0020 00000000 		.dword	_ZN14PeriodicThread3runEv
 601      00000000 
 602 0028 00000000 		.dword	_ZN3per18periodicActivationEv
 602      00000000 
 603              		.text
 604              	.Letext0:
 605              		.file 6 "src/../lib/hw.h"
 606              		.file 7 "src/../h/KMemory.hpp"
 607              		.file 8 "src/../h/../h/syscall_c.hpp"
 608              		.file 9 "src/../h/../h/ThreadQueue.hpp"
 609              		.file 10 "src/../h/../test/printing.hpp"
 4882              		.align	3
 4885              	DW.ref.__gxx_personality_v0:
 4886 0000 00000000 		.dword	__gxx_personality_v0
 4886      00000000 
 4887              		.ident	"GCC: (Ubuntu 9.4.0-1ubuntu1~20.04) 9.4.0"
 4888              		.section	.note.GNU-stack,"",@progbits
GAS LISTING /tmp/ccB27Hek.s 			page 21


DEFINED SYMBOLS
                            *ABS*:0000000000000000 testFunctions.cpp
     /tmp/ccB27Hek.s:9      .text:0000000000000000 _Z13emptyFunctionPv
     /tmp/ccB27Hek.s:13     .text:0000000000000000 .L0 
     /tmp/ccB27Hek.s:14     .text:0000000000000000 .L0 
     /tmp/ccB27Hek.s:15     .text:0000000000000004 .L0 
     /tmp/ccB27Hek.s:17     .text:0000000000000008 .L0 
     /tmp/ccB27Hek.s:19     .text:000000000000000c .L0 
     /tmp/ccB27Hek.s:21     .text:000000000000000c .L0 
     /tmp/ccB27Hek.s:22     .text:0000000000000010 .L0 
     /tmp/ccB27Hek.s:23     .text:0000000000000010 .L0 
     /tmp/ccB27Hek.s:25     .text:0000000000000014 .L0 
     /tmp/ccB27Hek.s:27     .text:0000000000000018 .L0 
     /tmp/ccB27Hek.s:33     .text:0000000000000018 _Z5nit1fPv
     /tmp/ccB27Hek.s:36     .text:0000000000000018 .L0 
     /tmp/ccB27Hek.s:37     .text:0000000000000018 .L0 
     /tmp/ccB27Hek.s:38     .text:000000000000001c .L0 
     /tmp/ccB27Hek.s:41     .text:0000000000000024 .L0 
     /tmp/ccB27Hek.s:42     .text:0000000000000024 .L0 
     /tmp/ccB27Hek.s:44     .text:0000000000000028 .L0 
     /tmp/ccB27Hek.s:48     .text:0000000000000028 .L0 
     /tmp/ccB27Hek.s:49     .text:0000000000000028 .L0 
     /tmp/ccB27Hek.s:50     .text:0000000000000028 .L0 
     /tmp/ccB27Hek.s:51     .text:0000000000000028 .L0 
     /tmp/ccB27Hek.s:58     .text:0000000000000040 .L0 
     /tmp/ccB27Hek.s:59     .text:0000000000000044 .L0 
     /tmp/ccB27Hek.s:70     .text._ZN3per18periodicActivationEv:0000000000000000 _ZN3per18periodicActivationEv
     /tmp/ccB27Hek.s:73     .text._ZN3per18periodicActivationEv:0000000000000000 .L0 
     /tmp/ccB27Hek.s:75     .text._ZN3per18periodicActivationEv:0000000000000000 .L0 
     /tmp/ccB27Hek.s:76     .text._ZN3per18periodicActivationEv:0000000000000004 .L0 
     /tmp/ccB27Hek.s:79     .text._ZN3per18periodicActivationEv:000000000000000c .L0 
     /tmp/ccB27Hek.s:80     .text._ZN3per18periodicActivationEv:000000000000000c .L0 
     /tmp/ccB27Hek.s:82     .text._ZN3per18periodicActivationEv:0000000000000010 .L0 
     /tmp/ccB27Hek.s:84     .text._ZN3per18periodicActivationEv:0000000000000010 .L0 
     /tmp/ccB27Hek.s:85     .text._ZN3per18periodicActivationEv:0000000000000010 .L0 
     /tmp/ccB27Hek.s:90     .text._ZN3per18periodicActivationEv:0000000000000020 .L0 
     /tmp/ccB27Hek.s:91     .text._ZN3per18periodicActivationEv:0000000000000024 .L0 
     /tmp/ccB27Hek.s:93     .text._ZN3per18periodicActivationEv:0000000000000028 .L0 
     /tmp/ccB27Hek.s:94     .text._ZN3per18periodicActivationEv:0000000000000028 .L0 
     /tmp/ccB27Hek.s:96     .text._ZN3per18periodicActivationEv:000000000000002c .L0 
     /tmp/ccB27Hek.s:98     .text._ZN3per18periodicActivationEv:0000000000000030 .L0 
     /tmp/ccB27Hek.s:109    .text:0000000000000044 _Z5nit2fPv
     /tmp/ccB27Hek.s:112    .text:0000000000000044 .L0 
     /tmp/ccB27Hek.s:4885   .data.rel.local.DW.ref.__gxx_personality_v0:0000000000000000 DW.ref.__gxx_personality_v0
     /tmp/ccB27Hek.s:116    .text:0000000000000044 .L0 
     /tmp/ccB27Hek.s:117    .text:0000000000000048 .L0 
     /tmp/ccB27Hek.s:122    .text:0000000000000058 .L0 
     /tmp/ccB27Hek.s:123    .text:0000000000000058 .L0 
     /tmp/ccB27Hek.s:124    .text:0000000000000058 .L0 
     /tmp/ccB27Hek.s:125    .text:0000000000000058 .L0 
     /tmp/ccB27Hek.s:127    .text:000000000000005c .L0 
     /tmp/ccB27Hek.s:129    .text:000000000000005c .L0 
     /tmp/ccB27Hek.s:130    .text:000000000000005c .L0 
     /tmp/ccB27Hek.s:141    .text:000000000000006c .L0 
     /tmp/ccB27Hek.s:596    .data.rel.ro._ZTV3per:0000000000000000 _ZTV3per
     /tmp/ccB27Hek.s:152    .text:0000000000000084 .L0 
     /tmp/ccB27Hek.s:153    .text:0000000000000084 .L0 
GAS LISTING /tmp/ccB27Hek.s 			page 22


     /tmp/ccB27Hek.s:158    .text:0000000000000090 .L0 
     /tmp/ccB27Hek.s:159    .text:0000000000000090 .L0 
     /tmp/ccB27Hek.s:163    .text:000000000000009c .L0 
     /tmp/ccB27Hek.s:164    .text:000000000000009c .L0 
     /tmp/ccB27Hek.s:168    .text:00000000000000a8 .L0 
     /tmp/ccB27Hek.s:169    .text:00000000000000a8 .L0 
     /tmp/ccB27Hek.s:173    .text:00000000000000b8 .L0 
     /tmp/ccB27Hek.s:174    .text:00000000000000bc .L0 
     /tmp/ccB27Hek.s:175    .text:00000000000000bc .L0 
     /tmp/ccB27Hek.s:177    .text:00000000000000c0 .L0 
     /tmp/ccB27Hek.s:178    .text:00000000000000c0 .L0 
     /tmp/ccB27Hek.s:180    .text:00000000000000c4 .L0 
     /tmp/ccB27Hek.s:183    .text:00000000000000c8 .L0 
     /tmp/ccB27Hek.s:185    .text:00000000000000cc .L0 
     /tmp/ccB27Hek.s:189    .text:00000000000000d0 .L0 
     /tmp/ccB27Hek.s:192    .text:00000000000000d4 .L0 
     /tmp/ccB27Hek.s:199    .text:00000000000000ec .L0 
     /tmp/ccB27Hek.s:226    .text._ZN3perD2Ev:0000000000000000 _ZN3perD2Ev
     /tmp/ccB27Hek.s:229    .text._ZN3perD2Ev:0000000000000000 .L0 
     /tmp/ccB27Hek.s:231    .text._ZN3perD2Ev:0000000000000000 .L0 
     /tmp/ccB27Hek.s:232    .text._ZN3perD2Ev:0000000000000004 .L0 
     /tmp/ccB27Hek.s:235    .text._ZN3perD2Ev:000000000000000c .L0 
     /tmp/ccB27Hek.s:236    .text._ZN3perD2Ev:000000000000000c .L0 
     /tmp/ccB27Hek.s:238    .text._ZN3perD2Ev:0000000000000010 .L0 
     /tmp/ccB27Hek.s:244    .text._ZN3perD2Ev:0000000000000010 .L0 
     /tmp/ccB27Hek.s:252    .text._ZN3perD2Ev:0000000000000028 .L0 
     /tmp/ccB27Hek.s:253    .text._ZN3perD2Ev:000000000000002c .L0 
     /tmp/ccB27Hek.s:255    .text._ZN3perD2Ev:0000000000000030 .L0 
     /tmp/ccB27Hek.s:256    .text._ZN3perD2Ev:0000000000000030 .L0 
     /tmp/ccB27Hek.s:258    .text._ZN3perD2Ev:0000000000000034 .L0 
     /tmp/ccB27Hek.s:260    .text._ZN3perD2Ev:0000000000000038 .L0 
     /tmp/ccB27Hek.s:226    .text._ZN3perD2Ev:0000000000000000 _ZN3perD1Ev
     /tmp/ccB27Hek.s:269    .text._ZN3perD0Ev:0000000000000000 _ZN3perD0Ev
     /tmp/ccB27Hek.s:272    .text._ZN3perD0Ev:0000000000000000 .L0 
     /tmp/ccB27Hek.s:274    .text._ZN3perD0Ev:0000000000000000 .L0 
     /tmp/ccB27Hek.s:275    .text._ZN3perD0Ev:0000000000000004 .L0 
     /tmp/ccB27Hek.s:279    .text._ZN3perD0Ev:0000000000000010 .L0 
     /tmp/ccB27Hek.s:280    .text._ZN3perD0Ev:0000000000000010 .L0 
     /tmp/ccB27Hek.s:281    .text._ZN3perD0Ev:0000000000000010 .L0 
     /tmp/ccB27Hek.s:283    .text._ZN3perD0Ev:0000000000000014 .L0 
     /tmp/ccB27Hek.s:290    .text._ZN3perD0Ev:0000000000000018 .L0 
     /tmp/ccB27Hek.s:299    .text._ZN3perD0Ev:0000000000000030 .L0 
     /tmp/ccB27Hek.s:303    .text._ZN3perD0Ev:0000000000000040 .L0 
     /tmp/ccB27Hek.s:305    .text._ZN3perD0Ev:0000000000000044 .L0 
     /tmp/ccB27Hek.s:306    .text._ZN3perD0Ev:0000000000000044 .L0 
     /tmp/ccB27Hek.s:308    .text._ZN3perD0Ev:0000000000000048 .L0 
     /tmp/ccB27Hek.s:311    .text._ZN3perD0Ev:000000000000004c .L0 
     /tmp/ccB27Hek.s:313    .text._ZN3perD0Ev:0000000000000050 .L0 
     /tmp/ccB27Hek.s:324    .text:00000000000000ec _Z5nit3fPv
     /tmp/ccB27Hek.s:327    .text:00000000000000ec .L0 
     /tmp/ccB27Hek.s:328    .text:00000000000000ec .L0 
     /tmp/ccB27Hek.s:329    .text:00000000000000f0 .L0 
     /tmp/ccB27Hek.s:333    .text:00000000000000fc .L0 
     /tmp/ccB27Hek.s:334    .text:00000000000000fc .L0 
     /tmp/ccB27Hek.s:335    .text:00000000000000fc .L0 
     /tmp/ccB27Hek.s:337    .text:0000000000000100 .L0 
     /tmp/ccB27Hek.s:342    .text:0000000000000104 .L0 
GAS LISTING /tmp/ccB27Hek.s 			page 23


     /tmp/ccB27Hek.s:343    .text:0000000000000104 .L0 
     /tmp/ccB27Hek.s:348    .text:0000000000000110 .L0 
     /tmp/ccB27Hek.s:353    .text:0000000000000118 .L0 
     /tmp/ccB27Hek.s:354    .text:0000000000000118 .L0 
     /tmp/ccB27Hek.s:355    .text:0000000000000118 .L0 
     /tmp/ccB27Hek.s:356    .text:0000000000000118 .L0 
     /tmp/ccB27Hek.s:361    .text:0000000000000124 .L0 
     /tmp/ccB27Hek.s:362    .text:0000000000000124 .L0 
     /tmp/ccB27Hek.s:365    .text:000000000000012c .L0 
     /tmp/ccB27Hek.s:370    .text:0000000000000138 .L0 
     /tmp/ccB27Hek.s:371    .text:0000000000000138 .L0 
     /tmp/ccB27Hek.s:375    .text:0000000000000148 .L0 
     /tmp/ccB27Hek.s:376    .text:000000000000014c .L0 
     /tmp/ccB27Hek.s:378    .text:0000000000000150 .L0 
     /tmp/ccB27Hek.s:379    .text:0000000000000150 .L0 
     /tmp/ccB27Hek.s:381    .text:0000000000000154 .L0 
     /tmp/ccB27Hek.s:384    .text:0000000000000158 .L0 
     /tmp/ccB27Hek.s:386    .text:000000000000015c .L0 
     /tmp/ccB27Hek.s:400    .text:000000000000015c _Z5main2v
     /tmp/ccB27Hek.s:403    .text:000000000000015c .L0 
     /tmp/ccB27Hek.s:404    .text:000000000000015c .L0 
     /tmp/ccB27Hek.s:405    .text:0000000000000160 .L0 
     /tmp/ccB27Hek.s:408    .text:0000000000000168 .L0 
     /tmp/ccB27Hek.s:409    .text:0000000000000168 .L0 
     /tmp/ccB27Hek.s:411    .text:000000000000016c .L0 
     /tmp/ccB27Hek.s:413    .text:000000000000016c .L0 
     /tmp/ccB27Hek.s:414    .text:000000000000016c .L0 
     /tmp/ccB27Hek.s:420    .text:0000000000000178 .L0 
     /tmp/ccB27Hek.s:422    .text:0000000000000178 .L0 
     /tmp/ccB27Hek.s:425    .text:0000000000000180 .L0 
     /tmp/ccB27Hek.s:426    .text:0000000000000180 .L0 
     /tmp/ccB27Hek.s:429    .text:0000000000000188 .L0 
     /tmp/ccB27Hek.s:430    .text:0000000000000188 .L0 
     /tmp/ccB27Hek.s:432    .text:000000000000018c .L0 
     /tmp/ccB27Hek.s:433    .text:000000000000018c .L0 
     /tmp/ccB27Hek.s:435    .text:0000000000000190 .L0 
     /tmp/ccB27Hek.s:436    .text:0000000000000190 .L0 
     /tmp/ccB27Hek.s:438    .text:0000000000000194 .L0 
     /tmp/ccB27Hek.s:439    .text:0000000000000194 .L0 
     /tmp/ccB27Hek.s:441    .text:0000000000000198 .L0 
     /tmp/ccB27Hek.s:442    .text:0000000000000198 .L0 
     /tmp/ccB27Hek.s:444    .text:000000000000019c .L0 
     /tmp/ccB27Hek.s:445    .text:000000000000019c .L0 
     /tmp/ccB27Hek.s:447    .text:00000000000001a0 .L0 
     /tmp/ccB27Hek.s:448    .text:00000000000001a0 .L0 
     /tmp/ccB27Hek.s:457    .text:00000000000001b8 .L0 
     /tmp/ccB27Hek.s:458    .text:00000000000001b8 .L0 
     /tmp/ccB27Hek.s:459    .text:00000000000001b8 .L0 
     /tmp/ccB27Hek.s:466    .text:00000000000001c8 .L0 
     /tmp/ccB27Hek.s:467    .text:00000000000001c8 .L0 
     /tmp/ccB27Hek.s:473    .text:00000000000001e0 .L0 
     /tmp/ccB27Hek.s:474    .text:00000000000001e0 .L0 
     /tmp/ccB27Hek.s:480    .text:00000000000001f8 .L0 
     /tmp/ccB27Hek.s:481    .text:00000000000001f8 .L0 
     /tmp/ccB27Hek.s:487    .text:0000000000000210 .L0 
     /tmp/ccB27Hek.s:488    .text:0000000000000210 .L0 
     /tmp/ccB27Hek.s:494    .text:0000000000000228 .L0 
GAS LISTING /tmp/ccB27Hek.s 			page 24


     /tmp/ccB27Hek.s:495    .text:0000000000000228 .L0 
     /tmp/ccB27Hek.s:504    .text:0000000000000240 .L0 
     /tmp/ccB27Hek.s:505    .text:0000000000000240 .L0 
     /tmp/ccB27Hek.s:506    .text:0000000000000240 .L0 
     /tmp/ccB27Hek.s:516    .text:0000000000000248 .L0 
     /tmp/ccB27Hek.s:517    .text:0000000000000248 .L0 
     /tmp/ccB27Hek.s:521    .text:0000000000000254 .L0 
     /tmp/ccB27Hek.s:522    .text:0000000000000254 .L0 
     /tmp/ccB27Hek.s:526    .text:0000000000000260 .L0 
     /tmp/ccB27Hek.s:527    .text:0000000000000260 .L0 
     /tmp/ccB27Hek.s:531    .text:000000000000026c .L0 
     /tmp/ccB27Hek.s:532    .text:000000000000026c .L0 
     /tmp/ccB27Hek.s:536    .text:000000000000027c .L0 
     /tmp/ccB27Hek.s:537    .text:000000000000027c .L0 
     /tmp/ccB27Hek.s:542    .text:000000000000028c .L0 
     /tmp/ccB27Hek.s:546    .text:000000000000028c .L0 
     /tmp/ccB27Hek.s:547    .text:000000000000028c .L0 
     /tmp/ccB27Hek.s:548    .text:000000000000028c .L0 
     /tmp/ccB27Hek.s:555    .text:0000000000000298 .L0 
     /tmp/ccB27Hek.s:556    .text:0000000000000298 .L0 
     /tmp/ccB27Hek.s:561    .text:00000000000002a4 .L0 
     /tmp/ccB27Hek.s:566    .text:00000000000002a8 .L0 
     /tmp/ccB27Hek.s:567    .text:00000000000002a8 .L0 
     /tmp/ccB27Hek.s:568    .text:00000000000002a8 .L0 
     /tmp/ccB27Hek.s:578    .text:00000000000002b0 .L0 
     /tmp/ccB27Hek.s:579    .text:00000000000002b0 .L0 
     /tmp/ccB27Hek.s:581    .text:00000000000002b8 .L0 
     /tmp/ccB27Hek.s:583    .text:00000000000002bc .L0 
     /tmp/ccB27Hek.s:584    .text:00000000000002bc .L0 
     /tmp/ccB27Hek.s:586    .text:00000000000002c0 .L0 
     /tmp/ccB27Hek.s:588    .text:00000000000002c4 .L0 
     /tmp/ccB27Hek.s:610    .text:00000000000002c4 .L0 
     /tmp/ccB27Hek.s:101    .text._ZN3per18periodicActivationEv:0000000000000030 .L0 
     /tmp/ccB27Hek.s:265    .text._ZN3perD2Ev:0000000000000038 .L0 
     /tmp/ccB27Hek.s:316    .text._ZN3perD0Ev:0000000000000050 .L0 
     /tmp/ccB27Hek.s:52     .text:000000000000002c .L0 
     /tmp/ccB27Hek.s:146    .text:0000000000000078 .L0 
     /tmp/ccB27Hek.s:103    .rodata.str1.8:0000000000000000 .LC1
     /tmp/ccB27Hek.s:169    .text:00000000000000a8 .L0 
     /tmp/ccB27Hek.s:318    .rodata.str1.8:0000000000000010 .LC2
     /tmp/ccB27Hek.s:371    .text:0000000000000138 .L0 
     /tmp/ccB27Hek.s:414    .text:000000000000016c .L0 
     /tmp/ccB27Hek.s:449    .text:00000000000001a4 .L0 
     /tmp/ccB27Hek.s:460    .text:00000000000001bc .L0 
     /tmp/ccB27Hek.s:468    .text:00000000000001cc .L0 
     /tmp/ccB27Hek.s:475    .text:00000000000001e4 .L0 
     /tmp/ccB27Hek.s:482    .text:00000000000001fc .L0 
     /tmp/ccB27Hek.s:489    .text:0000000000000214 .L0 
     /tmp/ccB27Hek.s:496    .text:000000000000022c .L0 
     /tmp/ccB27Hek.s:391    .rodata.str1.8:0000000000000020 .LC3
     /tmp/ccB27Hek.s:532    .text:000000000000026c .L0 
     /tmp/ccB27Hek.s:394    .rodata.str1.8:0000000000000038 .LC4
     /tmp/ccB27Hek.s:537    .text:000000000000027c .L0 
     /tmp/ccB27Hek.s:548    .text:000000000000028c .L0 
     /tmp/ccB27Hek.s:556    .text:0000000000000298 .L0 
     /tmp/ccB27Hek.s:45     .text:0000000000000028 .L4
     /tmp/ccB27Hek.s:351    .text:0000000000000118 .L19
GAS LISTING /tmp/ccB27Hek.s 			page 25


     /tmp/ccB27Hek.s:368    .text:0000000000000138 .L21
     /tmp/ccB27Hek.s:346    .text:0000000000000110 .L18
     /tmp/ccB27Hek.s:340    .text:0000000000000104 .L22
     /tmp/ccB27Hek.s:540    .text:000000000000028c .L24
     /tmp/ccB27Hek.s:64     .rodata._ZN3per18periodicActivationEv.str1.8:0000000000000000 .LC0
     /tmp/ccB27Hek.s:85     .text._ZN3per18periodicActivationEv:0000000000000010 .L0 
     /tmp/ccB27Hek.s:132    .text:0000000000000060 .LEHB0
     /tmp/ccB27Hek.s:110    .text:0000000000000044 .LFB63
     /tmp/ccB27Hek.s:135    .text:0000000000000068 .LEHE0
     /tmp/ccB27Hek.s:142    .text:0000000000000070 .LEHB1
     /tmp/ccB27Hek.s:145    .text:0000000000000078 .LEHE1
     /tmp/ccB27Hek.s:188    .text:00000000000000d0 .L10
     /tmp/ccB27Hek.s:154    .text:0000000000000088 .LEHB2
     /tmp/ccB27Hek.s:198    .text:00000000000000ec .LEHE2
     /tmp/ccB27Hek.s:244    .text._ZN3perD2Ev:0000000000000010 .L0 
     /tmp/ccB27Hek.s:290    .text._ZN3perD0Ev:0000000000000018 .L0 
     /tmp/ccB27Hek.s:2805   .debug_abbrev:0000000000000000 .Ldebug_abbrev0
     /tmp/ccB27Hek.s:4777   .debug_str:0000000000000c0d .LASF240
     /tmp/ccB27Hek.s:4535   .debug_str:000000000000050f .LASF241
     /tmp/ccB27Hek.s:4719   .debug_str:0000000000000a7c .LASF242
     /tmp/ccB27Hek.s:4359   .debug_ranges:0000000000000000 .Ldebug_ranges0
     /tmp/ccB27Hek.s:4371   .debug_line:0000000000000000 .Ldebug_line0
     /tmp/ccB27Hek.s:4541   .debug_str:0000000000000543 .LASF0
     /tmp/ccB27Hek.s:4569   .debug_str:0000000000000602 .LASF1
     /tmp/ccB27Hek.s:4699   .debug_str:00000000000009df .LASF2
     /tmp/ccB27Hek.s:4479   .debug_str:000000000000034e .LASF3
     /tmp/ccB27Hek.s:4713   .debug_str:0000000000000a5b .LASF4
     /tmp/ccB27Hek.s:4553   .debug_str:000000000000058b .LASF5
     /tmp/ccB27Hek.s:4393   .debug_str:00000000000000a7 .LASF6
     /tmp/ccB27Hek.s:4665   .debug_str:00000000000008d0 .LASF7
     /tmp/ccB27Hek.s:4651   .debug_str:0000000000000865 .LASF8
     /tmp/ccB27Hek.s:4557   .debug_str:00000000000005af .LASF9
     /tmp/ccB27Hek.s:4511   .debug_str:0000000000000448 .LASF10
     /tmp/ccB27Hek.s:4527   .debug_str:00000000000004c8 .LASF11
     /tmp/ccB27Hek.s:4427   .debug_str:00000000000001ac .LASF12
     /tmp/ccB27Hek.s:4493   .debug_str:00000000000003d2 .LASF13
     /tmp/ccB27Hek.s:4443   .debug_str:0000000000000219 .LASF14
     /tmp/ccB27Hek.s:4425   .debug_str:000000000000019c .LASF15
     /tmp/ccB27Hek.s:4743   .debug_str:0000000000000b3c .LASF16
     /tmp/ccB27Hek.s:4471   .debug_str:00000000000002f2 .LASF17
     /tmp/ccB27Hek.s:4731   .debug_str:0000000000000ad9 .LASF18
     /tmp/ccB27Hek.s:4841   .debug_str:0000000000000e5d .LASF50
     /tmp/ccB27Hek.s:4823   .debug_str:0000000000000e05 .LASF71
     /tmp/ccB27Hek.s:4485   .debug_str:0000000000000378 .LASF19
     /tmp/ccB27Hek.s:4775   .debug_str:0000000000000c00 .LASF20
     /tmp/ccB27Hek.s:4455   .debug_str:0000000000000299 .LASF21
     /tmp/ccB27Hek.s:4605   .debug_str:00000000000006ee .LASF52
     /tmp/ccB27Hek.s:4811   .debug_str:0000000000000db4 .LASF54
     /tmp/ccB27Hek.s:4809   .debug_str:0000000000000dab .LASF22
     /tmp/ccB27Hek.s:4795   .debug_str:0000000000000d43 .LASF24
     /tmp/ccB27Hek.s:4695   .debug_str:00000000000009cb .LASF26
     /tmp/ccB27Hek.s:4637   .debug_str:00000000000007f3 .LASF28
     /tmp/ccB27Hek.s:4673   .debug_str:0000000000000907 .LASF23
     /tmp/ccB27Hek.s:4681   .debug_str:0000000000000940 .LASF25
     /tmp/ccB27Hek.s:4617   .debug_str:000000000000075f .LASF27
     /tmp/ccB27Hek.s:4559   .debug_str:00000000000005c2 .LASF29
     /tmp/ccB27Hek.s:4851   .debug_str:0000000000000ebf .LASF30
GAS LISTING /tmp/ccB27Hek.s 			page 26


     /tmp/ccB27Hek.s:4783   .debug_str:0000000000000cf4 .LASF31
     /tmp/ccB27Hek.s:4615   .debug_str:0000000000000757 .LASF32
     /tmp/ccB27Hek.s:4635   .debug_str:00000000000007df .LASF33
     /tmp/ccB27Hek.s:4737   .debug_str:0000000000000b07 .LASF34
     /tmp/ccB27Hek.s:4715   .debug_str:0000000000000a62 .LASF35
     /tmp/ccB27Hek.s:4717   .debug_str:0000000000000a75 .LASF36
     /tmp/ccB27Hek.s:4435   .debug_str:00000000000001d8 .LASF37
     /tmp/ccB27Hek.s:4469   .debug_str:00000000000002ec .LASF38
     /tmp/ccB27Hek.s:4537   .debug_str:0000000000000525 .LASF39
     /tmp/ccB27Hek.s:4547   .debug_str:000000000000056f .LASF40
     /tmp/ccB27Hek.s:4459   .debug_str:00000000000002ac .LASF41
     /tmp/ccB27Hek.s:4395   .debug_str:00000000000000ae .LASF42
     /tmp/ccB27Hek.s:4703   .debug_str:00000000000009f7 .LASF43
     /tmp/ccB27Hek.s:4697   .debug_str:00000000000009d4 .LASF44
     /tmp/ccB27Hek.s:4871   .debug_str:0000000000000f2c .LASF45
     /tmp/ccB27Hek.s:4843   .debug_str:0000000000000e63 .LASF46
     /tmp/ccB27Hek.s:4857   .debug_str:0000000000000ed3 .LASF47
     /tmp/ccB27Hek.s:4837   .debug_str:0000000000000e3d .LASF48
     /tmp/ccB27Hek.s:4603   .debug_str:00000000000006d8 .LASF49
     /tmp/ccB27Hek.s:4787   .debug_str:0000000000000d12 .LASF65
     /tmp/ccB27Hek.s:4449   .debug_str:0000000000000259 .LASF67
     /tmp/ccB27Hek.s:4483   .debug_str:0000000000000370 .LASF51
     /tmp/ccB27Hek.s:4419   .debug_str:0000000000000170 .LASF53
     /tmp/ccB27Hek.s:4675   .debug_str:000000000000090e .LASF55
     /tmp/ccB27Hek.s:4499   .debug_str:0000000000000401 .LASF56
     /tmp/ccB27Hek.s:4515   .debug_str:000000000000045e .LASF58
     /tmp/ccB27Hek.s:4503   .debug_str:000000000000040e .LASF57
     /tmp/ccB27Hek.s:4545   .debug_str:000000000000055a .LASF59
     /tmp/ccB27Hek.s:4539   .debug_str:0000000000000537 .LASF60
     /tmp/ccB27Hek.s:4599   .debug_str:00000000000006c7 .LASF61
     /tmp/ccB27Hek.s:4705   .debug_str:0000000000000a0f .LASF62
     /tmp/ccB27Hek.s:4679   .debug_str:0000000000000936 .LASF63
     /tmp/ccB27Hek.s:4657   .debug_str:0000000000000888 .LASF64
     /tmp/ccB27Hek.s:4645   .debug_str:0000000000000833 .LASF66
     /tmp/ccB27Hek.s:4397   .debug_str:00000000000000b9 .LASF68
     /tmp/ccB27Hek.s:4595   .debug_str:00000000000006b0 .LASF69
     /tmp/ccB27Hek.s:4835   .debug_str:0000000000000e34 .LASF70
     /tmp/ccB27Hek.s:4725   .debug_str:0000000000000ab0 .LASF72
     /tmp/ccB27Hek.s:4671   .debug_str:00000000000008ff .LASF73
     /tmp/ccB27Hek.s:4457   .debug_str:00000000000002a5 .LASF74
     /tmp/ccB27Hek.s:4377   .debug_str:0000000000000026 .LASF75
     /tmp/ccB27Hek.s:4517   .debug_str:0000000000000474 .LASF76
     /tmp/ccB27Hek.s:4565   .debug_str:00000000000005ee .LASF77
     /tmp/ccB27Hek.s:4417   .debug_str:0000000000000167 .LASF78
     /tmp/ccB27Hek.s:4757   .debug_str:0000000000000b93 .LASF161
     /tmp/ccB27Hek.s:4431   .debug_str:00000000000001c0 .LASF79
     /tmp/ccB27Hek.s:4529   .debug_str:00000000000004d6 .LASF80
     /tmp/ccB27Hek.s:4687   .debug_str:000000000000097c .LASF85
     /tmp/ccB27Hek.s:4593   .debug_str:000000000000069c .LASF87
     /tmp/ccB27Hek.s:4741   .debug_str:0000000000000b2f .LASF81
     /tmp/ccB27Hek.s:4849   .debug_str:0000000000000e9d .LASF82
     /tmp/ccB27Hek.s:4643   .debug_str:000000000000082e .LASF243
     /tmp/ccB27Hek.s:4865   .debug_str:0000000000000f1a .LASF83
     /tmp/ccB27Hek.s:4555   .debug_str:000000000000059d .LASF84
     /tmp/ccB27Hek.s:4579   .debug_str:000000000000064a .LASF86
     /tmp/ccB27Hek.s:4685   .debug_str:0000000000000964 .LASF88
     /tmp/ccB27Hek.s:4461   .debug_str:00000000000002be .LASF89
GAS LISTING /tmp/ccB27Hek.s 			page 27


     /tmp/ccB27Hek.s:4709   .debug_str:0000000000000a35 .LASF90
     /tmp/ccB27Hek.s:4677   .debug_str:000000000000092e .LASF91
     /tmp/ccB27Hek.s:4597   .debug_str:00000000000006b5 .LASF92
     /tmp/ccB27Hek.s:4465   .debug_str:00000000000002d4 .LASF93
     /tmp/ccB27Hek.s:4729   .debug_str:0000000000000ac3 .LASF94
     /tmp/ccB27Hek.s:4381   .debug_str:0000000000000037 .LASF95
     /tmp/ccB27Hek.s:4767   .debug_str:0000000000000bc4 .LASF96
     /tmp/ccB27Hek.s:4807   .debug_str:0000000000000d97 .LASF97
     /tmp/ccB27Hek.s:4639   .debug_str:0000000000000808 .LASF98
     /tmp/ccB27Hek.s:4805   .debug_str:0000000000000d8c .LASF99
     /tmp/ccB27Hek.s:4497   .debug_str:00000000000003e9 .LASF100
     /tmp/ccB27Hek.s:4875   .debug_str:0000000000000f51 .LASF101
     /tmp/ccB27Hek.s:4489   .debug_str:0000000000000391 .LASF102
     /tmp/ccB27Hek.s:4463   .debug_str:00000000000002cb .LASF103
     /tmp/ccB27Hek.s:4439   .debug_str:00000000000001fa .LASF104
     /tmp/ccB27Hek.s:4583   .debug_str:0000000000000663 .LASF105
     /tmp/ccB27Hek.s:4399   .debug_str:00000000000000cf .LASF106
     /tmp/ccB27Hek.s:4873   .debug_str:0000000000000f44 .LASF107
     /tmp/ccB27Hek.s:4521   .debug_str:0000000000000494 .LASF108
     /tmp/ccB27Hek.s:4383   .debug_str:0000000000000042 .LASF109
     /tmp/ccB27Hek.s:4633   .debug_str:00000000000007d2 .LASF110
     /tmp/ccB27Hek.s:4861   .debug_str:0000000000000ef5 .LASF244
     /tmp/ccB27Hek.s:4793   .debug_str:0000000000000d3b .LASF111
     /tmp/ccB27Hek.s:4421   .debug_str:0000000000000181 .LASF112
     /tmp/ccB27Hek.s:4867   .debug_str:0000000000000f20 .LASF113
     /tmp/ccB27Hek.s:4815   .debug_str:0000000000000ddb .LASF114
     /tmp/ccB27Hek.s:4785   .debug_str:0000000000000d08 .LASF115
     /tmp/ccB27Hek.s:4691   .debug_str:00000000000009a3 .LASF116
     /tmp/ccB27Hek.s:4647   .debug_str:000000000000083b .LASF117
     /tmp/ccB27Hek.s:4487   .debug_str:0000000000000384 .LASF118
     /tmp/ccB27Hek.s:4711   .debug_str:0000000000000a4d .LASF119
     /tmp/ccB27Hek.s:4831   .debug_str:0000000000000e28 .LASF120
     /tmp/ccB27Hek.s:4773   .debug_str:0000000000000bf8 .LASF121
     /tmp/ccB27Hek.s:4683   .debug_str:0000000000000953 .LASF122
     /tmp/ccB27Hek.s:4451   .debug_str:0000000000000271 .LASF167
     /tmp/ccB27Hek.s:4387   .debug_str:000000000000006a .LASF168
     /tmp/ccB27Hek.s:4513   .debug_str:0000000000000458 .LASF123
     /tmp/ccB27Hek.s:4733   .debug_str:0000000000000aef .LASF245
     /tmp/ccB27Hek.s:4591   .debug_str:0000000000000693 .LASF124
     /tmp/ccB27Hek.s:4721   .debug_str:0000000000000a9a .LASF125
     /tmp/ccB27Hek.s:4629   .debug_str:00000000000007a8 .LASF126
     /tmp/ccB27Hek.s:4655   .debug_str:0000000000000882 .LASF127
     /tmp/ccB27Hek.s:4613   .debug_str:0000000000000742 .LASF128
     /tmp/ccB27Hek.s:4747   .debug_str:0000000000000b51 .LASF129
     /tmp/ccB27Hek.s:4797   .debug_str:0000000000000d58 .LASF130
     /tmp/ccB27Hek.s:4551   .debug_str:000000000000057d .LASF131
     /tmp/ccB27Hek.s:4649   .debug_str:0000000000000847 .LASF132
     /tmp/ccB27Hek.s:4533   .debug_str:0000000000000502 .LASF133
     /tmp/ccB27Hek.s:4689   .debug_str:0000000000000986 .LASF134
     /tmp/ccB27Hek.s:4389   .debug_str:0000000000000092 .LASF135
     /tmp/ccB27Hek.s:4845   .debug_str:0000000000000e6d .LASF136
     /tmp/ccB27Hek.s:4375   .debug_str:000000000000001b .LASF137
     /tmp/ccB27Hek.s:4509   .debug_str:000000000000042d .LASF138
     /tmp/ccB27Hek.s:4755   .debug_str:0000000000000b88 .LASF139
     /tmp/ccB27Hek.s:4373   .debug_str:0000000000000000 .LASF140
     /tmp/ccB27Hek.s:4589   .debug_str:000000000000067b .LASF141
     /tmp/ccB27Hek.s:4491   .debug_str:00000000000003aa .LASF142
GAS LISTING /tmp/ccB27Hek.s 			page 28


     /tmp/ccB27Hek.s:4707   .debug_str:0000000000000a27 .LASF143
     /tmp/ccB27Hek.s:4661   .debug_str:00000000000008a2 .LASF144
     /tmp/ccB27Hek.s:4433   .debug_str:00000000000001ca .LASF145
     /tmp/ccB27Hek.s:4667   .debug_str:00000000000008d7 .LASF146
     /tmp/ccB27Hek.s:4771   .debug_str:0000000000000be7 .LASF147
     /tmp/ccB27Hek.s:4411   .debug_str:0000000000000143 .LASF148
     /tmp/ccB27Hek.s:4525   .debug_str:00000000000004b3 .LASF149
     /tmp/ccB27Hek.s:4505   .debug_str:0000000000000414 .LASF150
     /tmp/ccB27Hek.s:4761   .debug_str:0000000000000ba8 .LASF151
     /tmp/ccB27Hek.s:4379   .debug_str:000000000000002e .LASF246
     /tmp/ccB27Hek.s:4817   .debug_str:0000000000000de0 .LASF152
     /tmp/ccB27Hek.s:4467   .debug_str:00000000000002df .LASF153
     /tmp/ccB27Hek.s:4543   .debug_str:0000000000000550 .LASF154
     /tmp/ccB27Hek.s:4669   .debug_str:00000000000008f5 .LASF155
     /tmp/ccB27Hek.s:4571   .debug_str:0000000000000615 .LASF156
     /tmp/ccB27Hek.s:4821   .debug_str:0000000000000dfa .LASF157
     /tmp/ccB27Hek.s:4723   .debug_str:0000000000000aa0 .LASF158
     /tmp/ccB27Hek.s:4763   .debug_str:0000000000000bb5 .LASF159
     /tmp/ccB27Hek.s:4621   .debug_str:0000000000000774 .LASF160
     /tmp/ccB27Hek.s:4833   .debug_str:0000000000000e2f .LASF162
     /tmp/ccB27Hek.s:4563   .debug_str:00000000000005e9 .LASF163
     /tmp/ccB27Hek.s:4429   .debug_str:00000000000001bb .LASF164
     /tmp/ccB27Hek.s:4477   .debug_str:0000000000000330 .LASF165
     /tmp/ccB27Hek.s:4453   .debug_str:000000000000027f .LASF166
     /tmp/ccB27Hek.s:4445   .debug_str:0000000000000229 .LASF169
     /tmp/ccB27Hek.s:4405   .debug_str:00000000000000fb .LASF170
     /tmp/ccB27Hek.s:4609   .debug_str:000000000000071e .LASF171
     /tmp/ccB27Hek.s:4403   .debug_str:00000000000000e6 .LASF172
     /tmp/ccB27Hek.s:4519   .debug_str:000000000000047c .LASF173
     /tmp/ccB27Hek.s:4701   .debug_str:00000000000009ed .LASF200
     /tmp/ccB27Hek.s:4789   .debug_str:0000000000000d1d .LASF202
     /tmp/ccB27Hek.s:4759   .debug_str:0000000000000b9b .LASF174
     /tmp/ccB27Hek.s:4847   .debug_str:0000000000000e88 .LASF175
     /tmp/ccB27Hek.s:4549   .debug_str:0000000000000575 .LASF176
     /tmp/ccB27Hek.s:4481   .debug_str:0000000000000354 .LASF177
     /tmp/ccB27Hek.s:4573   .debug_str:0000000000000620 .LASF178
     /tmp/ccB27Hek.s:4611   .debug_str:0000000000000723 .LASF179
     /tmp/ccB27Hek.s:4415   .debug_str:000000000000015e .LASF180
     /tmp/ccB27Hek.s:4607   .debug_str:0000000000000702 .LASF181
     /tmp/ccB27Hek.s:4447   .debug_str:0000000000000244 .LASF182
     /tmp/ccB27Hek.s:4839   .debug_str:0000000000000e47 .LASF183
     /tmp/ccB27Hek.s:4781   .debug_str:0000000000000ce6 .LASF184
     /tmp/ccB27Hek.s:4575   .debug_str:0000000000000628 .LASF185
     /tmp/ccB27Hek.s:4423   .debug_str:0000000000000190 .LASF247
     /tmp/ccB27Hek.s:4523   .debug_str:00000000000004a0 .LASF188
     /tmp/ccB27Hek.s:4473   .debug_str:0000000000000308 .LASF189
     /tmp/ccB27Hek.s:4401   .debug_str:00000000000000e1 .LASF186
     /tmp/ccB27Hek.s:4803   .debug_str:0000000000000d80 .LASF248
     /tmp/ccB27Hek.s:4437   .debug_str:00000000000001eb .LASF191
     /tmp/ccB27Hek.s:4627   .debug_str:0000000000000798 .LASF187
     /tmp/ccB27Hek.s:4385   .debug_str:0000000000000052 .LASF249
     /tmp/ccB27Hek.s:4407   .debug_str:0000000000000101 .LASF190
     /tmp/ccB27Hek.s:4749   .debug_str:0000000000000b5e .LASF193
     /tmp/ccB27Hek.s:4765   .debug_str:0000000000000bba .LASF195
     /tmp/ccB27Hek.s:4531   .debug_str:00000000000004fb .LASF192
     /tmp/ccB27Hek.s:4577   .debug_str:0000000000000637 .LASF194
     /tmp/ccB27Hek.s:4501   .debug_str:0000000000000409 .LASF196
GAS LISTING /tmp/ccB27Hek.s 			page 29


     /tmp/ccB27Hek.s:4391   .debug_str:000000000000009d .LASF197
     /tmp/ccB27Hek.s:4581   .debug_str:0000000000000657 .LASF198
     /tmp/ccB27Hek.s:270    .text._ZN3perD0Ev:0000000000000000 .LFB69
     /tmp/ccB27Hek.s:314    .text._ZN3perD0Ev:0000000000000050 .LFE69
     /tmp/ccB27Hek.s:4189   .debug_loc:0000000000000000 .LLST7
     /tmp/ccB27Hek.s:286    .text._ZN3perD0Ev:0000000000000018 .LBB32
     /tmp/ccB27Hek.s:297    .text._ZN3perD0Ev:0000000000000030 .LBE32
     /tmp/ccB27Hek.s:4207   .debug_loc:000000000000004c .LLST8
     /tmp/ccB27Hek.s:287    .text._ZN3perD0Ev:0000000000000018 .LBB33
     /tmp/ccB27Hek.s:296    .text._ZN3perD0Ev:0000000000000030 .LBE33
     /tmp/ccB27Hek.s:294    .text._ZN3perD0Ev:0000000000000030 .LVL23
     /tmp/ccB27Hek.s:301    .text._ZN3perD0Ev:000000000000003c .LVL24
     /tmp/ccB27Hek.s:4625   .debug_str:000000000000078c .LASF199
     /tmp/ccB27Hek.s:227    .text._ZN3perD2Ev:0000000000000000 .LFB67
     /tmp/ccB27Hek.s:261    .text._ZN3perD2Ev:0000000000000038 .LFE67
     /tmp/ccB27Hek.s:4218   .debug_loc:0000000000000082 .LLST5
     /tmp/ccB27Hek.s:240    .text._ZN3perD2Ev:0000000000000010 .LBB30
     /tmp/ccB27Hek.s:250    .text._ZN3perD2Ev:0000000000000028 .LBE30
     /tmp/ccB27Hek.s:4232   .debug_loc:00000000000000bb .LLST6
     /tmp/ccB27Hek.s:248    .text._ZN3perD2Ev:0000000000000028 .LVL20
     /tmp/ccB27Hek.s:4825   .debug_str:0000000000000e14 .LASF201
     /tmp/ccB27Hek.s:4653   .debug_str:0000000000000878 .LASF203
     /tmp/ccB27Hek.s:401    .text:000000000000015c .LFB65
     /tmp/ccB27Hek.s:589    .text:00000000000002c4 .LFE65
     /tmp/ccB27Hek.s:4475   .debug_str:0000000000000326 .LASF204
     /tmp/ccB27Hek.s:4751   .debug_str:0000000000000b7e .LASF205
     /tmp/ccB27Hek.s:4753   .debug_str:0000000000000b83 .LASF206
     /tmp/ccB27Hek.s:4585   .debug_str:000000000000066b .LASF207
     /tmp/ccB27Hek.s:4495   .debug_str:00000000000003e1 .LASF208
     /tmp/ccB27Hek.s:4779   .debug_str:0000000000000cd1 .LASF209
     /tmp/ccB27Hek.s:454    .text:00000000000001b8 .LBB35
     /tmp/ccB27Hek.s:464    .text:00000000000001c8 .LBE35
     /tmp/ccB27Hek.s:4246   .debug_loc:00000000000000f4 .LLST11
     /tmp/ccB27Hek.s:501    .text:0000000000000240 .LBB37
     /tmp/ccB27Hek.s:514    .text:0000000000000248 .LBE37
     /tmp/ccB27Hek.s:4254   .debug_loc:0000000000000118 .LLST12
     /tmp/ccB27Hek.s:543    .text:000000000000028c .LBB39
     /tmp/ccB27Hek.s:551    .text:0000000000000298 .LBE39
     /tmp/ccB27Hek.s:552    .text:0000000000000298 .LBB41
     /tmp/ccB27Hek.s:559    .text:00000000000002a4 .LBE41
     /tmp/ccB27Hek.s:564    .text:00000000000002a8 .LBB43
     /tmp/ccB27Hek.s:576    .text:00000000000002b0 .LBE43
     /tmp/ccB27Hek.s:4262   .debug_loc:000000000000013c .LLST13
     /tmp/ccB27Hek.s:423    .text:0000000000000180 .LVL34
     /tmp/ccB27Hek.s:427    .text:0000000000000188 .LVL35
     /tmp/ccB27Hek.s:452    .text:00000000000001b8 .LVL36
     /tmp/ccB27Hek.s:471    .text:00000000000001e0 .LVL38
     /tmp/ccB27Hek.s:478    .text:00000000000001f8 .LVL39
     /tmp/ccB27Hek.s:485    .text:0000000000000210 .LVL40
     /tmp/ccB27Hek.s:492    .text:0000000000000228 .LVL41
     /tmp/ccB27Hek.s:499    .text:0000000000000240 .LVL42
     /tmp/ccB27Hek.s:519    .text:0000000000000254 .LVL44
     /tmp/ccB27Hek.s:524    .text:0000000000000260 .LVL45
     /tmp/ccB27Hek.s:529    .text:000000000000026c .LVL46
     /tmp/ccB27Hek.s:534    .text:000000000000027c .LVL47
     /tmp/ccB27Hek.s:539    .text:000000000000028c .LVL48
     /tmp/ccB27Hek.s:4869   .debug_str:0000000000000f26 .LASF210
GAS LISTING /tmp/ccB27Hek.s 			page 30


     /tmp/ccB27Hek.s:4769   .debug_str:0000000000000bdc .LASF211
     /tmp/ccB27Hek.s:325    .text:00000000000000ec .LFB64
     /tmp/ccB27Hek.s:387    .text:000000000000015c .LFE64
     /tmp/ccB27Hek.s:4791   .debug_str:0000000000000d35 .LASF212
     /tmp/ccB27Hek.s:4270   .debug_loc:0000000000000160 .LLST10
     /tmp/ccB27Hek.s:345    .text:0000000000000110 .LVL27
     /tmp/ccB27Hek.s:357    .text:0000000000000120 .LVL29
     /tmp/ccB27Hek.s:363    .text:000000000000012c .LVL31
     /tmp/ccB27Hek.s:373    .text:0000000000000148 .LVL32
     /tmp/ccB27Hek.s:4799   .debug_str:0000000000000d75 .LASF213
     /tmp/ccB27Hek.s:4587   .debug_str:0000000000000670 .LASF214
     /tmp/ccB27Hek.s:200    .text:00000000000000ec .LFE63
     /tmp/ccB27Hek.s:4801   .debug_str:0000000000000d7b .LASF250
     /tmp/ccB27Hek.s:4281   .debug_loc:0000000000000196 .LLST1
     /tmp/ccB27Hek.s:4295   .debug_loc:00000000000001cf .LLST2
     /tmp/ccB27Hek.s:138    .text:000000000000006c .LBB28
     /tmp/ccB27Hek.s:150    .text:0000000000000084 .LBE28
     /tmp/ccB27Hek.s:4302   .debug_loc:00000000000001f2 .LLST3
     /tmp/ccB27Hek.s:4315   .debug_loc:000000000000022a .LLST4
     /tmp/ccB27Hek.s:144    .text:0000000000000078 .LVL8
     /tmp/ccB27Hek.s:134    .text:0000000000000068 .LVL6
     /tmp/ccB27Hek.s:156    .text:0000000000000090 .LVL10
     /tmp/ccB27Hek.s:161    .text:000000000000009c .LVL11
     /tmp/ccB27Hek.s:166    .text:00000000000000a8 .LVL12
     /tmp/ccB27Hek.s:171    .text:00000000000000b8 .LVL13
     /tmp/ccB27Hek.s:194    .text:00000000000000e0 .LVL16
     /tmp/ccB27Hek.s:197    .text:00000000000000ec .LVL17
     /tmp/ccB27Hek.s:71     .text._ZN3per18periodicActivationEv:0000000000000000 .LFB62
     /tmp/ccB27Hek.s:99     .text._ZN3per18periodicActivationEv:0000000000000030 .LFE62
     /tmp/ccB27Hek.s:4326   .debug_loc:0000000000000260 .LLST0
     /tmp/ccB27Hek.s:88     .text._ZN3per18periodicActivationEv:0000000000000020 .LVL3
     /tmp/ccB27Hek.s:4413   .debug_str:0000000000000157 .LASF223
     /tmp/ccB27Hek.s:4441   .debug_str:000000000000020d .LASF215
     /tmp/ccB27Hek.s:4877   .debug_str:0000000000000f5f .LASF216
     /tmp/ccB27Hek.s:4693   .debug_str:00000000000009b3 .LASF217
     /tmp/ccB27Hek.s:4727   .debug_str:0000000000000abd .LASF218
     /tmp/ccB27Hek.s:4659   .debug_str:0000000000000897 .LASF219
     /tmp/ccB27Hek.s:34     .text:0000000000000018 .LFB54
     /tmp/ccB27Hek.s:60     .text:0000000000000044 .LFE54
     /tmp/ccB27Hek.s:47     .text:0000000000000028 .LBB27
     /tmp/ccB27Hek.s:56     .text:0000000000000040 .LBE27
     /tmp/ccB27Hek.s:4855   .debug_str:0000000000000ecc .LASF220
     /tmp/ccB27Hek.s:55     .text:0000000000000040 .LVL0
     /tmp/ccB27Hek.s:4619   .debug_str:0000000000000766 .LASF221
     /tmp/ccB27Hek.s:4561   .debug_str:00000000000005d5 .LASF222
     /tmp/ccB27Hek.s:10     .text:0000000000000000 .LFB53
     /tmp/ccB27Hek.s:28     .text:0000000000000018 .LFE53
     /tmp/ccB27Hek.s:4567   .debug_str:00000000000005f7 .LASF224
     /tmp/ccB27Hek.s:4827   .debug_str:0000000000000e1a .LASF225
     /tmp/ccB27Hek.s:4641   .debug_str:0000000000000827 .LASF226
     /tmp/ccB27Hek.s:4739   .debug_str:0000000000000b0e .LASF227
     /tmp/ccB27Hek.s:4819   .debug_str:0000000000000dec .LASF228
     /tmp/ccB27Hek.s:4631   .debug_str:00000000000007bd .LASF229
     /tmp/ccB27Hek.s:4623   .debug_str:0000000000000780 .LASF230
     /tmp/ccB27Hek.s:4735   .debug_str:0000000000000af4 .LASF231
     /tmp/ccB27Hek.s:4859   .debug_str:0000000000000ee9 .LASF232
     /tmp/ccB27Hek.s:4745   .debug_str:0000000000000b48 .LASF233
GAS LISTING /tmp/ccB27Hek.s 			page 31


     /tmp/ccB27Hek.s:4601   .debug_str:00000000000006d3 .LASF234
     /tmp/ccB27Hek.s:4829   .debug_str:0000000000000e1f .LASF235
     /tmp/ccB27Hek.s:4853   .debug_str:0000000000000ec7 .LASF236
     /tmp/ccB27Hek.s:4813   .debug_str:0000000000000dd5 .LASF237
     /tmp/ccB27Hek.s:4663   .debug_str:00000000000008c0 .LASF238
     /tmp/ccB27Hek.s:4507   .debug_str:0000000000000422 .LASF239
     /tmp/ccB27Hek.s:4863   .debug_str:0000000000000f0b .LASF251
     /tmp/ccB27Hek.s:4409   .debug_str:000000000000012b .LASF252
     /tmp/ccB27Hek.s:273    .text._ZN3perD0Ev:0000000000000000 .LVL21
     /tmp/ccB27Hek.s:309    .text._ZN3perD0Ev:0000000000000048 .LVL25
     /tmp/ccB27Hek.s:285    .text._ZN3perD0Ev:0000000000000018 .LVL22
     /tmp/ccB27Hek.s:230    .text._ZN3perD2Ev:0000000000000000 .LVL18
     /tmp/ccB27Hek.s:239    .text._ZN3perD2Ev:0000000000000010 .LVL19
     /tmp/ccB27Hek.s:462    .text:00000000000001c8 .LVL37
     /tmp/ccB27Hek.s:511    .text:0000000000000248 .LVL43
     /tmp/ccB27Hek.s:563    .text:00000000000002a8 .LVL49
     /tmp/ccB27Hek.s:573    .text:00000000000002b0 .LVL50
     /tmp/ccB27Hek.s:339    .text:0000000000000104 .LVL26
     /tmp/ccB27Hek.s:350    .text:0000000000000118 .LVL28
     /tmp/ccB27Hek.s:359    .text:0000000000000124 .LVL30
     /tmp/ccB27Hek.s:382    .text:0000000000000154 .LVL33
     /tmp/ccB27Hek.s:115    .text:0000000000000044 .LVL4
     /tmp/ccB27Hek.s:131    .text:0000000000000060 .LVL5
     /tmp/ccB27Hek.s:148    .text:0000000000000084 .LVL9
     /tmp/ccB27Hek.s:181    .text:00000000000000c4 .LVL14
     /tmp/ccB27Hek.s:137    .text:000000000000006c .LVL7
     /tmp/ccB27Hek.s:187    .text:00000000000000d0 .LVL15
     /tmp/ccB27Hek.s:74     .text._ZN3per18periodicActivationEv:0000000000000000 .LVL1
     /tmp/ccB27Hek.s:86     .text._ZN3per18periodicActivationEv:0000000000000018 .LVL2
     /tmp/ccB27Hek.s:611    .debug_info:0000000000000000 .Ldebug_info0
     /tmp/ccB27Hek.s:5      .text:0000000000000000 .Ltext0
     /tmp/ccB27Hek.s:604    .text:00000000000002c4 .Letext0
     /tmp/ccB27Hek.s:203    .gcc_except_table:0000000000000000 .LLSDA63
                           .group:0000000000000000 _ZN3perD5Ev

UNDEFINED SYMBOLS
_Z13thread_createPP3TCBPFvPvES2_
_Z11printStringPKc
_Znwm
_ZN14PeriodicThreadC2Em
_ZN6Thread5startEv
_Z10time_sleepm
_ZN14PeriodicThread9terminateEv
_ZdlPv
_Unwind_Resume
__gxx_personality_v0
_ZTV14PeriodicThread
_ZN6ThreadD2Ev
_Z4putcc
_Z4getcv
interruptHandler
_ZN7KMemory16initializeMemoryEv
_ZN8KConsole12initKConsoleEv
main
_ZN3TCB7runningE
_Z4idlePv
_Z22kernelConsumerFunctionPv
GAS LISTING /tmp/ccB27Hek.s 			page 32


_Z11thread_joinP3TCB
_ZN8KConsole10outputHeadE
_ZN8KConsole10outputTailE
_ZN14PeriodicThread3runEv
