GAS LISTING /tmp/ccPQGHlm.s 			page 1


   1              		.file	"testFunctions.cpp"
   2              		.option pic
   3              		.option norelax
   4              		.text
   5              	.Ltext0:
   6              		.align	2
   7              		.globl	_Z10testMemoryv
   9              	_Z10testMemoryv:
  10              	.LFB43:
  11              		.file 1 "src/testFunctions.cpp"
   1:src/testFunctions.cpp **** //
   2:src/testFunctions.cpp **** // Created by os on 5/29/23.
   3:src/testFunctions.cpp **** //
   4:src/testFunctions.cpp **** #include "../h/MemoryAllocator.hpp"
   5:src/testFunctions.cpp **** #include "../h/helper.hpp"
   6:src/testFunctions.cpp **** #include "../lib/console.h"
   7:src/testFunctions.cpp **** #include "../lib/hw.h"
   8:src/testFunctions.cpp **** #include "../h/helper.hpp"
   9:src/testFunctions.cpp **** #include "../h/Riscv.hpp"
  10:src/testFunctions.cpp **** #include "../h/syscall_c.hpp"
  11:src/testFunctions.cpp **** #include "../h/syscall_cpp.hpp"
  12:src/testFunctions.cpp **** #include "../h/List.hpp"
  13:src/testFunctions.cpp **** //#include "../h/MemoryAllocator.hpp"
  14:src/testFunctions.cpp **** #include "../h/TCB.hpp"
  15:src/testFunctions.cpp **** #include "../h/ThreadQueue.hpp"
  16:src/testFunctions.cpp **** //#include "../h/KSem.hpp"
  17:src/testFunctions.cpp **** 
  18:src/testFunctions.cpp **** #include "../test/printing.hpp"
  19:src/testFunctions.cpp **** //void printInteger(int i){
  20:src/testFunctions.cpp **** //	printInt(i);
  21:src/testFunctions.cpp **** //}
  22:src/testFunctions.cpp **** extern Semaphore* semA;
  23:src/testFunctions.cpp **** 
  24:src/testFunctions.cpp **** void testMemory() {
  12              		.loc 1 24 19
  13              		.cfi_startproc
  14 0000 13010181 		addi	sp,sp,-2032
  15              		.cfi_def_cfa_offset 2032
  16 0004 2334117E 		sd	ra,2024(sp)
  17 0008 2330817E 		sd	s0,2016(sp)
  18 000c 233C917C 		sd	s1,2008(sp)
  19              		.cfi_offset 1, -8
  20              		.cfi_offset 8, -16
  21              		.cfi_offset 9, -24
  22 0010 1304017F 		addi	s0,sp,2032
  23              		.cfi_def_cfa 8, 0
  24 0014 13010183 		addi	sp,sp,-2000
  25:src/testFunctions.cpp **** 	const uint64 NumAllocations = 500;    //zasto nece za preko 500????
  25              		.loc 1 25 2
  26              	.LVL0:
  26:src/testFunctions.cpp **** 	const uint64 AllocationSize = 16;
  27              		.loc 1 26 2
  27:src/testFunctions.cpp **** 
  28:src/testFunctions.cpp **** 	// Allocate and initialize pointers
  29:src/testFunctions.cpp **** 	int* allocations[NumAllocations];
  28              		.loc 1 29 2
  30:src/testFunctions.cpp **** 	for (uint64 i = 0; i < NumAllocations; ++i)
GAS LISTING /tmp/ccPQGHlm.s 			page 2


  29              		.loc 1 30 2
  30              	.LBB2:
  31              		.loc 1 30 14 is_stmt 0
  32 0018 13070000 		li	a4,0
  33              	.LVL1:
  34              	.L3:
  35              		.loc 1 30 23 is_stmt 1 discriminator 3
  36 001c 9307301F 		li	a5,499
  37 0020 63E2E702 		bgtu	a4,a5,.L8
  31:src/testFunctions.cpp **** 		allocations[i] = nullptr;
  38              		.loc 1 31 3 discriminator 2
  39              		.loc 1 31 18 is_stmt 0 discriminator 2
  40 0024 B7F7FFFF 		li	a5,-4096
  41 0028 93163700 		slli	a3,a4,3
  42 002c 130604FE 		addi	a2,s0,-32
  43 0030 B307F600 		add	a5,a2,a5
  44 0034 B387D700 		add	a5,a5,a3
  45 0038 23B00706 		sd	zero,96(a5)
  30:src/testFunctions.cpp **** 	for (uint64 i = 0; i < NumAllocations; ++i)
  46              		.loc 1 30 2 is_stmt 1 discriminator 2
  47 003c 13071700 		addi	a4,a4,1
  48              	.LVL2:
  49 0040 6FF0DFFD 		j	.L3
  50              	.L8:
  51              	.LBE2:
  52              	.LBB3:
  32:src/testFunctions.cpp **** 
  33:src/testFunctions.cpp **** 	// Allocate memory
  34:src/testFunctions.cpp **** 	for (uint64 i = 0; i < NumAllocations; ++i) {
  53              		.loc 1 34 14 is_stmt 0
  54 0044 93040000 		li	s1,0
  55              	.LVL3:
  56              	.L2:
  57              		.loc 1 34 23 is_stmt 1 discriminator 1
  58 0048 9307301F 		li	a5,499
  59 004c 63EC9702 		bgtu	s1,a5,.L4
  35:src/testFunctions.cpp **** 		allocations[i] = static_cast<int*>(MemoryAllocator::kmalloc(AllocationSize, MemoryAllocator::MISC
  60              		.loc 1 35 3
  61              		.loc 1 35 62 is_stmt 0
  62 0050 93053000 		li	a1,3
  63 0054 13050001 		li	a0,16
  64 0058 97000000 		call	_ZN15MemoryAllocator7kmallocEmNS_7PurposeE@plt
  64      E7800000 
  65              	.LVL4:
  66              		.loc 1 35 18
  67 0060 37F7FFFF 		li	a4,-4096
  68 0064 93973400 		slli	a5,s1,3
  69 0068 930604FE 		addi	a3,s0,-32
  70 006c 3387E600 		add	a4,a3,a4
  71 0070 B307F700 		add	a5,a4,a5
  72 0074 23B0A706 		sd	a0,96(a5)
  36:src/testFunctions.cpp **** 		if (allocations[i] == nullptr) {
  73              		.loc 1 36 3 is_stmt 1
  74 0078 63060500 		beqz	a0,.L4
  34:src/testFunctions.cpp **** 		allocations[i] = static_cast<int*>(MemoryAllocator::kmalloc(AllocationSize, MemoryAllocator::MISC
  75              		.loc 1 34 2 discriminator 2
  76 007c 93841400 		addi	s1,s1,1
GAS LISTING /tmp/ccPQGHlm.s 			page 3


  77              	.LVL5:
  78 0080 6FF09FFC 		j	.L2
  79              	.L4:
  34:src/testFunctions.cpp **** 		allocations[i] = static_cast<int*>(MemoryAllocator::kmalloc(AllocationSize, MemoryAllocator::MISC
  80              		.loc 1 34 14 is_stmt 0 discriminator 1
  81 0084 93040000 		li	s1,0
  82              	.LVL6:
  83 0088 6F000001 		j	.L7
  84              	.LVL7:
  85              	.L10:
  86              	.LBE3:
  87              	.LBB4:
  37:src/testFunctions.cpp **** //			printString("\nAllocation failed for index ");
  38:src/testFunctions.cpp **** //			printInteger(i);
  39:src/testFunctions.cpp **** 			break;
  40:src/testFunctions.cpp **** 		}
  41:src/testFunctions.cpp **** 	}
  42:src/testFunctions.cpp **** 
  43:src/testFunctions.cpp **** 	// Free memory
  44:src/testFunctions.cpp **** 	for (uint64 i = 0; i < NumAllocations; ++i) {
  45:src/testFunctions.cpp **** 		if (allocations[i] != nullptr) {
  46:src/testFunctions.cpp **** 			if (MemoryAllocator::kfree(allocations[i]) != 0) {
  88              		.loc 1 46 4 is_stmt 1
  89              		.loc 1 46 30 is_stmt 0
  90 008c 97000000 		call	_ZN15MemoryAllocator5kfreeEPv@plt
  90      E7800000 
  91              	.LVL8:
  92              	.L6:
  44:src/testFunctions.cpp **** 		if (allocations[i] != nullptr) {
  93              		.loc 1 44 2 is_stmt 1 discriminator 2
  94 0094 93841400 		addi	s1,s1,1
  95              	.LVL9:
  96              	.L7:
  44:src/testFunctions.cpp **** 		if (allocations[i] != nullptr) {
  97              		.loc 1 44 23 discriminator 1
  98 0098 9307301F 		li	a5,499
  99 009c 63E29702 		bgtu	s1,a5,.L1
  45:src/testFunctions.cpp **** 			if (MemoryAllocator::kfree(allocations[i]) != 0) {
 100              		.loc 1 45 3
  45:src/testFunctions.cpp **** 			if (MemoryAllocator::kfree(allocations[i]) != 0) {
 101              		.loc 1 45 20 is_stmt 0
 102 00a0 37F7FFFF 		li	a4,-4096
 103 00a4 93973400 		slli	a5,s1,3
 104 00a8 930604FE 		addi	a3,s0,-32
 105 00ac 3387E600 		add	a4,a3,a4
 106 00b0 B307F700 		add	a5,a4,a5
 107 00b4 03B50706 		ld	a0,96(a5)
  45:src/testFunctions.cpp **** 			if (MemoryAllocator::kfree(allocations[i]) != 0) {
 108              		.loc 1 45 3
 109 00b8 E31A05FC 		bnez	a0,.L10
 110 00bc 6FF09FFD 		j	.L6
 111              	.L1:
 112              	.LBE4:
  47:src/testFunctions.cpp **** //				printString("\nDeallocation failed for index ");
  48:src/testFunctions.cpp **** //				printInteger(i);
  49:src/testFunctions.cpp **** 			}
  50:src/testFunctions.cpp **** 		}
GAS LISTING /tmp/ccPQGHlm.s 			page 4


  51:src/testFunctions.cpp **** 	}
  52:src/testFunctions.cpp **** }
 113              		.loc 1 52 1
 114 00c0 1301017D 		addi	sp,sp,2000
 115              		.cfi_def_cfa 2, 2032
 116 00c4 8330817E 		ld	ra,2024(sp)
 117              		.cfi_restore 1
 118 00c8 0334017E 		ld	s0,2016(sp)
 119              		.cfi_restore 8
 120 00cc 8334817D 		ld	s1,2008(sp)
 121              		.cfi_restore 9
 122              	.LVL10:
 123 00d0 1301017F 		addi	sp,sp,2032
 124              		.cfi_def_cfa_offset 0
 125 00d4 67800000 		jr	ra
 126              		.cfi_endproc
 127              	.LFE43:
 129              		.section	.rodata.str1.8,"aMS",@progbits,1
 130              		.align	3
 131              	.LC0:
 132 0000 0A476F74 		.string	"\nGotova nit 1\n"
 132      6F766120 
 132      6E697420 
 132      310A00
 133              		.text
 134              		.align	2
 135              		.globl	_Z5nit1fPv
 137              	_Z5nit1fPv:
 138              	.LFB44:
  53:src/testFunctions.cpp **** 
  54:src/testFunctions.cpp **** void nit1f(void*) {
 139              		.loc 1 54 19 is_stmt 1
 140              		.cfi_startproc
 141 00d8 130101FF 		addi	sp,sp,-16
 142              		.cfi_def_cfa_offset 16
 143 00dc 23341100 		sd	ra,8(sp)
 144 00e0 23308100 		sd	s0,0(sp)
 145              		.cfi_offset 1, -8
 146              		.cfi_offset 8, -16
 147 00e4 13040101 		addi	s0,sp,16
 148              		.cfi_def_cfa 8, 0
  55:src/testFunctions.cpp **** //	for(int i=0;i<3;i++){
  56:src/testFunctions.cpp **** //		printString("\nNit 1 dolazi na semafor\n");
  57:src/testFunctions.cpp **** //		//int res = sem_wait(semA);
  58:src/testFunctions.cpp **** //		int res = (*semA).wait();
  59:src/testFunctions.cpp **** //		if(res){
  60:src/testFunctions.cpp **** //			printString("\nNit 1 cekala na semaforu\n");
  61:src/testFunctions.cpp **** //		}
  62:src/testFunctions.cpp **** //		else{
  63:src/testFunctions.cpp **** //			printString("\nNit 1 nije cekala\n");
  64:src/testFunctions.cpp **** //		}
  65:src/testFunctions.cpp **** //		printString("\nsem_wait za nit 1 vratio ");
  66:src/testFunctions.cpp **** //		printInteger(res);
  67:src/testFunctions.cpp **** //		printString("\n");
  68:src/testFunctions.cpp **** //	}
  69:src/testFunctions.cpp **** 
  70:src/testFunctions.cpp **** 	printString("\nGotova nit 1\n");
GAS LISTING /tmp/ccPQGHlm.s 			page 5


 149              		.loc 1 70 2
 150              		.loc 1 70 13 is_stmt 0
 151 00e8 17050000 		lla	a0,.LC0
 151      13050500 
 152 00f0 97000000 		call	_Z11printStringPKc@plt
 152      E7800000 
 153              	.LVL11:
  71:src/testFunctions.cpp **** }
 154              		.loc 1 71 1
 155 00f8 83308100 		ld	ra,8(sp)
 156              		.cfi_restore 1
 157 00fc 03340100 		ld	s0,0(sp)
 158              		.cfi_restore 8
 159              		.cfi_def_cfa 2, 16
 160 0100 13010101 		addi	sp,sp,16
 161              		.cfi_def_cfa_offset 0
 162 0104 67800000 		jr	ra
 163              		.cfi_endproc
 164              	.LFE44:
 166              		.section	.rodata.str1.8
 167 000f 00       		.align	3
 168              	.LC1:
 169 0010 0A476F74 		.string	"\nGotova nit 2\n"
 169      6F766120 
 169      6E697420 
 169      320A00
 170              		.text
 171              		.align	2
 172              		.globl	_Z5nit2fPv
 174              	_Z5nit2fPv:
 175              	.LFB45:
  72:src/testFunctions.cpp **** 
  73:src/testFunctions.cpp **** void nit2f(void* arg2) {
 176              		.loc 1 73 24 is_stmt 1
 177              		.cfi_startproc
 178              	.LVL12:
 179 0108 130101FF 		addi	sp,sp,-16
 180              		.cfi_def_cfa_offset 16
 181 010c 23341100 		sd	ra,8(sp)
 182 0110 23308100 		sd	s0,0(sp)
 183              		.cfi_offset 1, -8
 184              		.cfi_offset 8, -16
 185 0114 13040101 		addi	s0,sp,16
 186              		.cfi_def_cfa 8, 0
  74:src/testFunctions.cpp **** //	for(int i=0;i<3;i++){
  75:src/testFunctions.cpp **** //		printString("\nNit 2 daje signal\n");
  76:src/testFunctions.cpp **** //		//sem_signal(semA);
  77:src/testFunctions.cpp **** //		int res = (*semA).signal();
  78:src/testFunctions.cpp **** //		printString("\nPovratna vrednost signala je ");
  79:src/testFunctions.cpp **** //		printInteger(res);
  80:src/testFunctions.cpp **** //		printString("\n");
  81:src/testFunctions.cpp **** //		//sem_close(semA);
  82:src/testFunctions.cpp **** //		printString("\nNit 2 ubija semafor\n");
  83:src/testFunctions.cpp **** //		delete semA;
  84:src/testFunctions.cpp **** //
  85:src/testFunctions.cpp **** //	}
  86:src/testFunctions.cpp **** 	printString("\nGotova nit 2\n");
GAS LISTING /tmp/ccPQGHlm.s 			page 6


 187              		.loc 1 86 2
 188              		.loc 1 86 13 is_stmt 0
 189 0118 17050000 		lla	a0,.LC1
 189      13050500 
 190              	.LVL13:
 191 0120 97000000 		call	_Z11printStringPKc@plt
 191      E7800000 
 192              	.LVL14:
  87:src/testFunctions.cpp **** }
 193              		.loc 1 87 1
 194 0128 83308100 		ld	ra,8(sp)
 195              		.cfi_restore 1
 196 012c 03340100 		ld	s0,0(sp)
 197              		.cfi_restore 8
 198              		.cfi_def_cfa 2, 16
 199 0130 13010101 		addi	sp,sp,16
 200              		.cfi_def_cfa_offset 0
 201 0134 67800000 		jr	ra
 202              		.cfi_endproc
 203              	.LFE45:
 205              		.section	.rodata.str1.8
 206 001f 00       		.align	3
 207              	.LC2:
 208 0020 0A476F74 		.string	"\nGotova nit3\n"
 208      6F766120 
 208      6E697433 
 208      0A00
 209              		.text
 210              		.align	2
 211              		.globl	_Z5nit3fPv
 213              	_Z5nit3fPv:
 214              	.LFB46:
  88:src/testFunctions.cpp **** 
  89:src/testFunctions.cpp **** 
  90:src/testFunctions.cpp **** void nit3f(void*) {
 215              		.loc 1 90 19 is_stmt 1
 216              		.cfi_startproc
 217 0138 130101FF 		addi	sp,sp,-16
 218              		.cfi_def_cfa_offset 16
 219 013c 23341100 		sd	ra,8(sp)
 220 0140 23308100 		sd	s0,0(sp)
 221              		.cfi_offset 1, -8
 222              		.cfi_offset 8, -16
 223 0144 13040101 		addi	s0,sp,16
 224              		.cfi_def_cfa 8, 0
  91:src/testFunctions.cpp **** 	char slovo;
 225              		.loc 1 91 2
  92:src/testFunctions.cpp **** 
  93:src/testFunctions.cpp **** 	slovo = getc();
 226              		.loc 1 93 2
 227              		.loc 1 93 14 is_stmt 0
 228 0148 97000000 		call	_Z4getcv@plt
 228      E7800000 
 229              	.LVL15:
  94:src/testFunctions.cpp **** 	putc(slovo);
 230              		.loc 1 94 2 is_stmt 1
 231              		.loc 1 94 6 is_stmt 0
GAS LISTING /tmp/ccPQGHlm.s 			page 7


 232 0150 97000000 		call	_Z4putcc@plt
 232      E7800000 
 233              	.LVL16:
  95:src/testFunctions.cpp **** 	slovo = getc();
 234              		.loc 1 95 2 is_stmt 1
 235              		.loc 1 95 14 is_stmt 0
 236 0158 97000000 		call	_Z4getcv@plt
 236      E7800000 
 237              	.LVL17:
  96:src/testFunctions.cpp **** 	putc(slovo);
 238              		.loc 1 96 2 is_stmt 1
 239              		.loc 1 96 6 is_stmt 0
 240 0160 97000000 		call	_Z4putcc@plt
 240      E7800000 
 241              	.LVL18:
  97:src/testFunctions.cpp **** 	slovo = getc();
 242              		.loc 1 97 2 is_stmt 1
 243              		.loc 1 97 14 is_stmt 0
 244 0168 97000000 		call	_Z4getcv@plt
 244      E7800000 
 245              	.LVL19:
  98:src/testFunctions.cpp **** 	putc(slovo);
 246              		.loc 1 98 2 is_stmt 1
 247              		.loc 1 98 6 is_stmt 0
 248 0170 97000000 		call	_Z4putcc@plt
 248      E7800000 
 249              	.LVL20:
  99:src/testFunctions.cpp **** 	printString("\nGotova nit3\n");
 250              		.loc 1 99 2 is_stmt 1
 251              		.loc 1 99 13 is_stmt 0
 252 0178 17050000 		lla	a0,.LC2
 252      13050500 
 253 0180 97000000 		call	_Z11printStringPKc@plt
 253      E7800000 
 254              	.LVL21:
 100:src/testFunctions.cpp **** }...
 255              		.loc 1 100 1
 256 0188 83308100 		ld	ra,8(sp)
 257              		.cfi_restore 1
 258 018c 03340100 		ld	s0,0(sp)
 259              		.cfi_restore 8
 260              		.cfi_def_cfa 2, 16
 261 0190 13010101 		addi	sp,sp,16
 262              		.cfi_def_cfa_offset 0
 263 0194 67800000 		jr	ra
 264              		.cfi_endproc
 265              	.LFE46:
 267              	.Letext0:
 268              		.file 2 "src/../h/../lib/hw.h"
 269              		.file 3 "src/../h/MemoryAllocator.hpp"
 270              		.file 4 "src/../h/syscall_c.hpp"
 271              		.file 5 "src/../h/helper.hpp"
GAS LISTING /tmp/ccPQGHlm.s 			page 8


DEFINED SYMBOLS
                            *ABS*:0000000000000000 testFunctions.cpp
     /tmp/ccPQGHlm.s:9      .text:0000000000000000 _Z10testMemoryv
     /tmp/ccPQGHlm.s:13     .text:0000000000000000 .L0 
     /tmp/ccPQGHlm.s:14     .text:0000000000000000 .L0 
     /tmp/ccPQGHlm.s:15     .text:0000000000000004 .L0 
     /tmp/ccPQGHlm.s:19     .text:0000000000000010 .L0 
     /tmp/ccPQGHlm.s:20     .text:0000000000000010 .L0 
     /tmp/ccPQGHlm.s:21     .text:0000000000000010 .L0 
     /tmp/ccPQGHlm.s:23     .text:0000000000000014 .L0 
     /tmp/ccPQGHlm.s:27     .text:0000000000000018 .L0 
     /tmp/ccPQGHlm.s:28     .text:0000000000000018 .L0 
     /tmp/ccPQGHlm.s:29     .text:0000000000000018 .L0 
     /tmp/ccPQGHlm.s:31     .text:0000000000000018 .L0 
     /tmp/ccPQGHlm.s:32     .text:0000000000000018 .L0 
     /tmp/ccPQGHlm.s:36     .text:000000000000001c .L0 
     /tmp/ccPQGHlm.s:39     .text:0000000000000024 .L0 
     /tmp/ccPQGHlm.s:40     .text:0000000000000024 .L0 
     /tmp/ccPQGHlm.s:47     .text:000000000000003c .L0 
     /tmp/ccPQGHlm.s:54     .text:0000000000000044 .L0 
     /tmp/ccPQGHlm.s:58     .text:0000000000000048 .L0 
     /tmp/ccPQGHlm.s:61     .text:0000000000000050 .L0 
     /tmp/ccPQGHlm.s:62     .text:0000000000000050 .L0 
     /tmp/ccPQGHlm.s:67     .text:0000000000000060 .L0 
     /tmp/ccPQGHlm.s:74     .text:0000000000000078 .L0 
     /tmp/ccPQGHlm.s:76     .text:000000000000007c .L0 
     /tmp/ccPQGHlm.s:81     .text:0000000000000084 .L0 
     /tmp/ccPQGHlm.s:89     .text:000000000000008c .L0 
     /tmp/ccPQGHlm.s:90     .text:000000000000008c .L0 
     /tmp/ccPQGHlm.s:94     .text:0000000000000094 .L0 
     /tmp/ccPQGHlm.s:98     .text:0000000000000098 .L0 
     /tmp/ccPQGHlm.s:101    .text:00000000000000a0 .L0 
     /tmp/ccPQGHlm.s:102    .text:00000000000000a0 .L0 
     /tmp/ccPQGHlm.s:109    .text:00000000000000b8 .L0 
     /tmp/ccPQGHlm.s:114    .text:00000000000000c0 .L0 
     /tmp/ccPQGHlm.s:115    .text:00000000000000c4 .L0 
     /tmp/ccPQGHlm.s:117    .text:00000000000000c8 .L0 
     /tmp/ccPQGHlm.s:119    .text:00000000000000cc .L0 
     /tmp/ccPQGHlm.s:121    .text:00000000000000d0 .L0 
     /tmp/ccPQGHlm.s:124    .text:00000000000000d4 .L0 
     /tmp/ccPQGHlm.s:126    .text:00000000000000d8 .L0 
     /tmp/ccPQGHlm.s:137    .text:00000000000000d8 _Z5nit1fPv
     /tmp/ccPQGHlm.s:140    .text:00000000000000d8 .L0 
     /tmp/ccPQGHlm.s:141    .text:00000000000000d8 .L0 
     /tmp/ccPQGHlm.s:142    .text:00000000000000dc .L0 
     /tmp/ccPQGHlm.s:145    .text:00000000000000e4 .L0 
     /tmp/ccPQGHlm.s:146    .text:00000000000000e4 .L0 
     /tmp/ccPQGHlm.s:148    .text:00000000000000e8 .L0 
     /tmp/ccPQGHlm.s:150    .text:00000000000000e8 .L0 
     /tmp/ccPQGHlm.s:151    .text:00000000000000e8 .L0 
     /tmp/ccPQGHlm.s:155    .text:00000000000000f8 .L0 
     /tmp/ccPQGHlm.s:156    .text:00000000000000fc .L0 
     /tmp/ccPQGHlm.s:158    .text:0000000000000100 .L0 
     /tmp/ccPQGHlm.s:159    .text:0000000000000100 .L0 
     /tmp/ccPQGHlm.s:161    .text:0000000000000104 .L0 
     /tmp/ccPQGHlm.s:163    .text:0000000000000108 .L0 
     /tmp/ccPQGHlm.s:174    .text:0000000000000108 _Z5nit2fPv
GAS LISTING /tmp/ccPQGHlm.s 			page 9


     /tmp/ccPQGHlm.s:177    .text:0000000000000108 .L0 
     /tmp/ccPQGHlm.s:179    .text:0000000000000108 .L0 
     /tmp/ccPQGHlm.s:180    .text:000000000000010c .L0 
     /tmp/ccPQGHlm.s:183    .text:0000000000000114 .L0 
     /tmp/ccPQGHlm.s:184    .text:0000000000000114 .L0 
     /tmp/ccPQGHlm.s:186    .text:0000000000000118 .L0 
     /tmp/ccPQGHlm.s:188    .text:0000000000000118 .L0 
     /tmp/ccPQGHlm.s:189    .text:0000000000000118 .L0 
     /tmp/ccPQGHlm.s:194    .text:0000000000000128 .L0 
     /tmp/ccPQGHlm.s:195    .text:000000000000012c .L0 
     /tmp/ccPQGHlm.s:197    .text:0000000000000130 .L0 
     /tmp/ccPQGHlm.s:198    .text:0000000000000130 .L0 
     /tmp/ccPQGHlm.s:200    .text:0000000000000134 .L0 
     /tmp/ccPQGHlm.s:202    .text:0000000000000138 .L0 
     /tmp/ccPQGHlm.s:213    .text:0000000000000138 _Z5nit3fPv
     /tmp/ccPQGHlm.s:216    .text:0000000000000138 .L0 
     /tmp/ccPQGHlm.s:217    .text:0000000000000138 .L0 
     /tmp/ccPQGHlm.s:218    .text:000000000000013c .L0 
     /tmp/ccPQGHlm.s:221    .text:0000000000000144 .L0 
     /tmp/ccPQGHlm.s:222    .text:0000000000000144 .L0 
     /tmp/ccPQGHlm.s:224    .text:0000000000000148 .L0 
     /tmp/ccPQGHlm.s:226    .text:0000000000000148 .L0 
     /tmp/ccPQGHlm.s:227    .text:0000000000000148 .L0 
     /tmp/ccPQGHlm.s:228    .text:0000000000000148 .L0 
     /tmp/ccPQGHlm.s:231    .text:0000000000000150 .L0 
     /tmp/ccPQGHlm.s:232    .text:0000000000000150 .L0 
     /tmp/ccPQGHlm.s:235    .text:0000000000000158 .L0 
     /tmp/ccPQGHlm.s:236    .text:0000000000000158 .L0 
     /tmp/ccPQGHlm.s:239    .text:0000000000000160 .L0 
     /tmp/ccPQGHlm.s:240    .text:0000000000000160 .L0 
     /tmp/ccPQGHlm.s:243    .text:0000000000000168 .L0 
     /tmp/ccPQGHlm.s:244    .text:0000000000000168 .L0 
     /tmp/ccPQGHlm.s:247    .text:0000000000000170 .L0 
     /tmp/ccPQGHlm.s:248    .text:0000000000000170 .L0 
     /tmp/ccPQGHlm.s:251    .text:0000000000000178 .L0 
     /tmp/ccPQGHlm.s:252    .text:0000000000000178 .L0 
     /tmp/ccPQGHlm.s:256    .text:0000000000000188 .L0 
     /tmp/ccPQGHlm.s:257    .text:000000000000018c .L0 
     /tmp/ccPQGHlm.s:259    .text:0000000000000190 .L0 
     /tmp/ccPQGHlm.s:260    .text:0000000000000190 .L0 
     /tmp/ccPQGHlm.s:262    .text:0000000000000194 .L0 
     /tmp/ccPQGHlm.s:264    .text:0000000000000198 .L0 
     /tmp/ccPQGHlm.s:272    .text:0000000000000198 .L0 
     /tmp/ccPQGHlm.s:131    .rodata.str1.8:0000000000000000 .LC0
     /tmp/ccPQGHlm.s:151    .text:00000000000000e8 .L0 
     /tmp/ccPQGHlm.s:168    .rodata.str1.8:0000000000000010 .LC1
     /tmp/ccPQGHlm.s:189    .text:0000000000000118 .L0 
     /tmp/ccPQGHlm.s:207    .rodata.str1.8:0000000000000020 .LC2
     /tmp/ccPQGHlm.s:252    .text:0000000000000178 .L0 
     /tmp/ccPQGHlm.s:50     .text:0000000000000044 .L8
     /tmp/ccPQGHlm.s:34     .text:000000000000001c .L3
     /tmp/ccPQGHlm.s:79     .text:0000000000000084 .L4
     /tmp/ccPQGHlm.s:56     .text:0000000000000048 .L2
     /tmp/ccPQGHlm.s:96     .text:0000000000000098 .L7
     /tmp/ccPQGHlm.s:111    .text:00000000000000c0 .L1
     /tmp/ccPQGHlm.s:85     .text:000000000000008c .L10
     /tmp/ccPQGHlm.s:92     .text:0000000000000094 .L6
GAS LISTING /tmp/ccPQGHlm.s 			page 10


     /tmp/ccPQGHlm.s:840    .debug_abbrev:0000000000000000 .Ldebug_abbrev0
     /tmp/ccPQGHlm.s:1560   .debug_str:0000000000000305 .LASF59
     /tmp/ccPQGHlm.s:1484   .debug_str:00000000000000cd .LASF60
     /tmp/ccPQGHlm.s:1542   .debug_str:000000000000025e .LASF61
     /tmp/ccPQGHlm.s:5      .text:0000000000000000 .Ltext0
     /tmp/ccPQGHlm.s:267    .text:0000000000000198 .Letext0
     /tmp/ccPQGHlm.s:1452   .debug_line:0000000000000000 .Ldebug_line0
     /tmp/ccPQGHlm.s:1488   .debug_str:00000000000000ef .LASF0
     /tmp/ccPQGHlm.s:1502   .debug_str:000000000000013a .LASF1
     /tmp/ccPQGHlm.s:1538   .debug_str:0000000000000249 .LASF2
     /tmp/ccPQGHlm.s:1540   .debug_str:0000000000000257 .LASF4
     /tmp/ccPQGHlm.s:1496   .debug_str:0000000000000110 .LASF3
     /tmp/ccPQGHlm.s:1454   .debug_str:0000000000000000 .LASF5
     /tmp/ccPQGHlm.s:1522   .debug_str:00000000000001c5 .LASF6
     /tmp/ccPQGHlm.s:1498   .debug_str:0000000000000122 .LASF7
     /tmp/ccPQGHlm.s:1480   .debug_str:00000000000000af .LASF8
     /tmp/ccPQGHlm.s:1482   .debug_str:00000000000000bf .LASF9
     /tmp/ccPQGHlm.s:1464   .debug_str:0000000000000042 .LASF10
     /tmp/ccPQGHlm.s:1476   .debug_str:000000000000009a .LASF11
     /tmp/ccPQGHlm.s:1468   .debug_str:0000000000000056 .LASF12
     /tmp/ccPQGHlm.s:1462   .debug_str:0000000000000032 .LASF13
     /tmp/ccPQGHlm.s:1552   .debug_str:00000000000002e0 .LASF14
     /tmp/ccPQGHlm.s:1474   .debug_str:0000000000000084 .LASF15
     /tmp/ccPQGHlm.s:1546   .debug_str:0000000000000282 .LASF16
     /tmp/ccPQGHlm.s:1518   .debug_str:00000000000001aa .LASF62
     /tmp/ccPQGHlm.s:1516   .debug_str:00000000000001a2 .LASF63
     /tmp/ccPQGHlm.s:1524   .debug_str:00000000000001d8 .LASF17
     /tmp/ccPQGHlm.s:1586   .debug_str:0000000000000454 .LASF18
     /tmp/ccPQGHlm.s:1532   .debug_str:0000000000000227 .LASF19
     /tmp/ccPQGHlm.s:1570   .debug_str:0000000000000405 .LASF20
     /tmp/ccPQGHlm.s:1506   .debug_str:000000000000015d .LASF21
     /tmp/ccPQGHlm.s:1526   .debug_str:00000000000001de .LASF25
     /tmp/ccPQGHlm.s:1466   .debug_str:0000000000000051 .LASF22
     /tmp/ccPQGHlm.s:1458   .debug_str:0000000000000020 .LASF23
     /tmp/ccPQGHlm.s:1500   .debug_str:0000000000000135 .LASF24
     /tmp/ccPQGHlm.s:1472   .debug_str:0000000000000075 .LASF26
     /tmp/ccPQGHlm.s:1530   .debug_str:000000000000021f .LASF27
     /tmp/ccPQGHlm.s:1512   .debug_str:0000000000000171 .LASF28
     /tmp/ccPQGHlm.s:1580   .debug_str:0000000000000434 .LASF29
     /tmp/ccPQGHlm.s:1562   .debug_str:00000000000003c9 .LASF31
     /tmp/ccPQGHlm.s:1478   .debug_str:00000000000000a9 .LASF30
     /tmp/ccPQGHlm.s:1514   .debug_str:0000000000000184 .LASF32
     /tmp/ccPQGHlm.s:1460   .debug_str:0000000000000025 .LASF33
     /tmp/ccPQGHlm.s:1528   .debug_str:00000000000001ed .LASF34
     /tmp/ccPQGHlm.s:1456   .debug_str:0000000000000007 .LASF64
     /tmp/ccPQGHlm.s:1534   .debug_str:000000000000022e .LASF35
     /tmp/ccPQGHlm.s:1574   .debug_str:0000000000000414 .LASF36
     /tmp/ccPQGHlm.s:1486   .debug_str:00000000000000e3 .LASF37
     /tmp/ccPQGHlm.s:1494   .debug_str:0000000000000106 .LASF65
     /tmp/ccPQGHlm.s:1550   .debug_str:00000000000002ab .LASF66
     /tmp/ccPQGHlm.s:1508   .debug_str:0000000000000167 .LASF38
     /tmp/ccPQGHlm.s:1556   .debug_str:00000000000002f5 .LASF39
     /tmp/ccPQGHlm.s:1572   .debug_str:000000000000040a .LASF67
     /tmp/ccPQGHlm.s:1490   .debug_str:00000000000000fc .LASF40
     /tmp/ccPQGHlm.s:1588   .debug_str:000000000000045e .LASF42
     /tmp/ccPQGHlm.s:1558   .debug_str:00000000000002fa .LASF44
     /tmp/ccPQGHlm.s:214    .text:0000000000000138 .LFB46
GAS LISTING /tmp/ccPQGHlm.s 			page 11


     /tmp/ccPQGHlm.s:265    .text:0000000000000198 .LFE46
     /tmp/ccPQGHlm.s:1564   .debug_str:00000000000003f4 .LASF41
     /tmp/ccPQGHlm.s:1384   .debug_loc:0000000000000000 .LLST4
     /tmp/ccPQGHlm.s:229    .text:0000000000000150 .LVL15
     /tmp/ccPQGHlm.s:233    .text:0000000000000158 .LVL16
     /tmp/ccPQGHlm.s:237    .text:0000000000000160 .LVL17
     /tmp/ccPQGHlm.s:241    .text:0000000000000168 .LVL18
     /tmp/ccPQGHlm.s:245    .text:0000000000000170 .LVL19
     /tmp/ccPQGHlm.s:249    .text:0000000000000178 .LVL20
     /tmp/ccPQGHlm.s:254    .text:0000000000000188 .LVL21
     /tmp/ccPQGHlm.s:1566   .debug_str:00000000000003fa .LASF43
     /tmp/ccPQGHlm.s:1578   .debug_str:0000000000000429 .LASF45
     /tmp/ccPQGHlm.s:175    .text:0000000000000108 .LFB45
     /tmp/ccPQGHlm.s:203    .text:0000000000000138 .LFE45
     /tmp/ccPQGHlm.s:1568   .debug_str:0000000000000400 .LASF68
     /tmp/ccPQGHlm.s:1399   .debug_loc:0000000000000049 .LLST3
     /tmp/ccPQGHlm.s:192    .text:0000000000000128 .LVL14
     /tmp/ccPQGHlm.s:1544   .debug_str:000000000000027c .LASF46
     /tmp/ccPQGHlm.s:1590   .debug_str:0000000000000464 .LASF47
     /tmp/ccPQGHlm.s:138    .text:00000000000000d8 .LFB44
     /tmp/ccPQGHlm.s:164    .text:0000000000000108 .LFE44
     /tmp/ccPQGHlm.s:153    .text:00000000000000f8 .LVL11
     /tmp/ccPQGHlm.s:1520   .debug_str:00000000000001ba .LASF48
     /tmp/ccPQGHlm.s:1504   .debug_str:000000000000014d .LASF49
     /tmp/ccPQGHlm.s:10     .text:0000000000000000 .LFB43
     /tmp/ccPQGHlm.s:127    .text:00000000000000d8 .LFE43
     /tmp/ccPQGHlm.s:1470   .debug_str:0000000000000066 .LASF50
     /tmp/ccPQGHlm.s:1536   .debug_str:000000000000023a .LASF51
     /tmp/ccPQGHlm.s:1582   .debug_str:000000000000043c .LASF52
     /tmp/ccPQGHlm.s:30     .text:0000000000000018 .LBB2
     /tmp/ccPQGHlm.s:51     .text:0000000000000044 .LBE2
     /tmp/ccPQGHlm.s:1413   .debug_loc:0000000000000082 .LLST0
     /tmp/ccPQGHlm.s:52     .text:0000000000000044 .LBB3
     /tmp/ccPQGHlm.s:86     .text:000000000000008c .LBE3
     /tmp/ccPQGHlm.s:1425   .debug_loc:00000000000000b9 .LLST1
     /tmp/ccPQGHlm.s:65     .text:0000000000000060 .LVL4
     /tmp/ccPQGHlm.s:87     .text:000000000000008c .LBB4
     /tmp/ccPQGHlm.s:112    .text:00000000000000c0 .LBE4
     /tmp/ccPQGHlm.s:1432   .debug_loc:00000000000000dc .LLST2
     /tmp/ccPQGHlm.s:91     .text:0000000000000094 .LVL8
     /tmp/ccPQGHlm.s:1576   .debug_str:0000000000000420 .LASF53
     /tmp/ccPQGHlm.s:1492   .debug_str:0000000000000101 .LASF55
     /tmp/ccPQGHlm.s:1554   .debug_str:00000000000002ec .LASF54
     /tmp/ccPQGHlm.s:1510   .debug_str:000000000000016c .LASF56
     /tmp/ccPQGHlm.s:1548   .debug_str:0000000000000298 .LASF57
     /tmp/ccPQGHlm.s:1584   .debug_str:0000000000000448 .LASF58
     /tmp/ccPQGHlm.s:178    .text:0000000000000108 .LVL12
     /tmp/ccPQGHlm.s:190    .text:0000000000000120 .LVL13
     /tmp/ccPQGHlm.s:26     .text:0000000000000018 .LVL0
     /tmp/ccPQGHlm.s:33     .text:000000000000001c .LVL1
     /tmp/ccPQGHlm.s:55     .text:0000000000000048 .LVL3
     /tmp/ccPQGHlm.s:82     .text:0000000000000088 .LVL6
     /tmp/ccPQGHlm.s:84     .text:000000000000008c .LVL7
     /tmp/ccPQGHlm.s:122    .text:00000000000000d0 .LVL10
     /tmp/ccPQGHlm.s:273    .debug_info:0000000000000000 .Ldebug_info0

UNDEFINED SYMBOLS
GAS LISTING /tmp/ccPQGHlm.s 			page 12


_ZN15MemoryAllocator7kmallocEmNS_7PurposeE
_ZN15MemoryAllocator5kfreeEPv
_Z11printStringPKc
_Z4getcv
_Z4putcc
