GAS LISTING /tmp/ccvFzc2i.s 			page 1


   1              		.file	"testcpp.cpp"
   2              		.option pic
   3              		.option norelax
   4              		.text
   5              	.Ltext0:
   6              		.section	.rodata.str1.8,"aMS",@progbits,1
   7              		.align	3
   8              	.LC0:
   9 0000 0A476F74 		.string	"\nGotova nit 1\n"
   9      6F766120 
   9      6E697420 
   9      310A00
  10              		.text
  11              		.align	2
  12              		.globl	_Z2f1Pv
  14              	_Z2f1Pv:
  15              	.LFB3:
  16              		.file 1 "src/testcpp.cpp"
   1:src/testcpp.cpp **** //
   2:src/testcpp.cpp **** // Created by os on 6/27/23.
   3:src/testcpp.cpp **** //
   4:src/testcpp.cpp **** #include "../h/syscall_c.hpp"
   5:src/testcpp.cpp **** #include "../h/syscall_cpp.hpp"
   6:src/testcpp.cpp **** 
   7:src/testcpp.cpp **** #include "../test/printing.hpp"
   8:src/testcpp.cpp **** 
   9:src/testcpp.cpp **** #include "../h/KMemory.hpp"
  10:src/testcpp.cpp **** 
  11:src/testcpp.cpp **** //Semaphore* s12,*s23,*s31;
  12:src/testcpp.cpp **** Thread* nit1, * nit2, * nit3;
  13:src/testcpp.cpp **** 
  14:src/testcpp.cpp **** 
  15:src/testcpp.cpp **** void f1(void* end) {
  17              		.loc 1 15 20
  18              		.cfi_startproc
  19              	.LVL0:
  20 0000 130101FF 		addi	sp,sp,-16
  21              		.cfi_def_cfa_offset 16
  22 0004 23341100 		sd	ra,8(sp)
  23 0008 23308100 		sd	s0,0(sp)
  24              		.cfi_offset 1, -8
  25              		.cfi_offset 8, -16
  26 000c 13040101 		addi	s0,sp,16
  27              		.cfi_def_cfa 8, 0
  16:src/testcpp.cpp **** 
  17:src/testcpp.cpp ****     time_sleep(10);
  28              		.loc 1 17 5
  29              		.loc 1 17 15 is_stmt 0
  30 0010 1305A000 		li	a0,10
  31              	.LVL1:
  32 0014 97000000 		call	_Z10time_sleepm@plt
  32      E7800000 
  33              	.LVL2:
  18:src/testcpp.cpp ****     printString("\nGotova nit 1\n");
  34              		.loc 1 18 5 is_stmt 1
  35              		.loc 1 18 16 is_stmt 0
  36 001c 17050000 		lla	a0,.LC0
GAS LISTING /tmp/ccvFzc2i.s 			page 2


  36      13050500 
  37 0024 97000000 		call	_Z11printStringPKc@plt
  37      E7800000 
  38              	.LVL3:
  19:src/testcpp.cpp **** }
  39              		.loc 1 19 1
  40 002c 83308100 		ld	ra,8(sp)
  41              		.cfi_restore 1
  42 0030 03340100 		ld	s0,0(sp)
  43              		.cfi_restore 8
  44              		.cfi_def_cfa 2, 16
  45 0034 13010101 		addi	sp,sp,16
  46              		.cfi_def_cfa_offset 0
  47 0038 67800000 		jr	ra
  48              		.cfi_endproc
  49              	.LFE3:
  51              		.section	.rodata.str1.8
  52 000f 00       		.align	3
  53              	.LC1:
  54 0010 0A476F74 		.string	"\nGotova nit 2\n"
  54      6F766120 
  54      6E697420 
  54      320A00
  55              		.text
  56              		.align	2
  57              		.globl	_Z2f2Pv
  59              	_Z2f2Pv:
  60              	.LFB4:
  20:src/testcpp.cpp **** 
  21:src/testcpp.cpp **** 
  22:src/testcpp.cpp **** void f2(void* end) {
  61              		.loc 1 22 20 is_stmt 1
  62              		.cfi_startproc
  63              	.LVL4:
  64 003c 130101FF 		addi	sp,sp,-16
  65              		.cfi_def_cfa_offset 16
  66 0040 23341100 		sd	ra,8(sp)
  67 0044 23308100 		sd	s0,0(sp)
  68              		.cfi_offset 1, -8
  69              		.cfi_offset 8, -16
  70 0048 13040101 		addi	s0,sp,16
  71              		.cfi_def_cfa 8, 0
  23:src/testcpp.cpp **** 
  24:src/testcpp.cpp **** 
  25:src/testcpp.cpp ****     printString("\nGotova nit 2\n");
  72              		.loc 1 25 5
  73              		.loc 1 25 16 is_stmt 0
  74 004c 17050000 		lla	a0,.LC1
  74      13050500 
  75              	.LVL5:
  76 0054 97000000 		call	_Z11printStringPKc@plt
  76      E7800000 
  77              	.LVL6:
  26:src/testcpp.cpp **** }
  78              		.loc 1 26 1
  79 005c 83308100 		ld	ra,8(sp)
  80              		.cfi_restore 1
GAS LISTING /tmp/ccvFzc2i.s 			page 3


  81 0060 03340100 		ld	s0,0(sp)
  82              		.cfi_restore 8
  83              		.cfi_def_cfa 2, 16
  84 0064 13010101 		addi	sp,sp,16
  85              		.cfi_def_cfa_offset 0
  86 0068 67800000 		jr	ra
  87              		.cfi_endproc
  88              	.LFE4:
  90              		.section	.rodata.str1.8
  91 001f 00       		.align	3
  92              	.LC2:
  93 0020 0A476F74 		.string	"\nGotova nit3\n"
  93      6F766120 
  93      6E697433 
  93      0A00
  94              		.text
  95              		.align	2
  96              		.globl	_Z2f3Pv
  98              	_Z2f3Pv:
  99              	.LFB5:
  27:src/testcpp.cpp **** 
  28:src/testcpp.cpp **** 
  29:src/testcpp.cpp **** void f3(void* end) {
 100              		.loc 1 29 20 is_stmt 1
 101              		.cfi_startproc
 102              	.LVL7:
 103 006c 130101FF 		addi	sp,sp,-16
 104              		.cfi_def_cfa_offset 16
 105 0070 23341100 		sd	ra,8(sp)
 106 0074 23308100 		sd	s0,0(sp)
 107              		.cfi_offset 1, -8
 108              		.cfi_offset 8, -16
 109 0078 13040101 		addi	s0,sp,16
 110              		.cfi_def_cfa 8, 0
  30:src/testcpp.cpp **** 
  31:src/testcpp.cpp ****     printString("\nGotova nit3\n");
 111              		.loc 1 31 5
 112              		.loc 1 31 16 is_stmt 0
 113 007c 17050000 		lla	a0,.LC2
 113      13050500 
 114              	.LVL8:
 115 0084 97000000 		call	_Z11printStringPKc@plt
 115      E7800000 
 116              	.LVL9:
  32:src/testcpp.cpp **** }
 117              		.loc 1 32 1
 118 008c 83308100 		ld	ra,8(sp)
 119              		.cfi_restore 1
 120 0090 03340100 		ld	s0,0(sp)
 121              		.cfi_restore 8
 122              		.cfi_def_cfa 2, 16
 123 0094 13010101 		addi	sp,sp,16
 124              		.cfi_def_cfa_offset 0
 125 0098 67800000 		jr	ra
 126              		.cfi_endproc
 127              	.LFE5:
 129              		.section	.rodata._ZN5timer18periodicActivationEv.str1.8,"aMS",@progbits,1
GAS LISTING /tmp/ccvFzc2i.s 			page 4


 130              		.align	3
 131              	.LC3:
 132 0000 54616A6D 		.string	"Tajmer: "
 132      65723A20 
 132      00
 133 0009 00000000 		.align	3
 133      000000
 134              	.LC4:
 135 0010 0A00     		.string	"\n"
 136              		.section	.text._ZN5timer18periodicActivationEv,"axG",@progbits,_ZN5timer18periodicActivationEv,com
 137              		.align	2
 138              		.weak	_ZN5timer18periodicActivationEv
 140              	_ZN5timer18periodicActivationEv:
 141              	.LFB17:
  33:src/testcpp.cpp **** 
  34:src/testcpp.cpp **** class pt : public PeriodicThread {
  35:src/testcpp.cpp **** public:
  36:src/testcpp.cpp ****     time_t period;
  37:src/testcpp.cpp ****     int counter = 5;
  38:src/testcpp.cpp **** 
  39:src/testcpp.cpp ****     explicit pt(time_t p) : PeriodicThread(p), period(p) {}
  40:src/testcpp.cpp **** 
  41:src/testcpp.cpp ****     void periodicActivation() override {
  42:src/testcpp.cpp ****         printString("Janko ");
  43:src/testcpp.cpp ****         sleep(period);
  44:src/testcpp.cpp ****         printInt(period);
  45:src/testcpp.cpp ****         printString("\n");
  46:src/testcpp.cpp ****         if (--counter == 0)terminate();
  47:src/testcpp.cpp ****     }
  48:src/testcpp.cpp **** };
  49:src/testcpp.cpp **** 
  50:src/testcpp.cpp **** class timer : public PeriodicThread {
  51:src/testcpp.cpp **** public:
  52:src/testcpp.cpp ****     int counter = 0;
  53:src/testcpp.cpp **** 
  54:src/testcpp.cpp ****     explicit timer() : PeriodicThread(1) {}
  55:src/testcpp.cpp **** 
  56:src/testcpp.cpp ****     void periodicActivation() override {
 142              		.loc 1 56 10 is_stmt 1
 143              		.cfi_startproc
 144              	.LVL10:
 145 0000 130101FE 		addi	sp,sp,-32
 146              		.cfi_def_cfa_offset 32
 147 0004 233C1100 		sd	ra,24(sp)
 148 0008 23388100 		sd	s0,16(sp)
 149 000c 23349100 		sd	s1,8(sp)
 150              		.cfi_offset 1, -8
 151              		.cfi_offset 8, -16
 152              		.cfi_offset 9, -24
 153 0010 13040102 		addi	s0,sp,32
 154              		.cfi_def_cfa 8, 0
 155 0014 93040500 		mv	s1,a0
  57:src/testcpp.cpp ****         printString("Tajmer: ");
 156              		.loc 1 57 9
 157              		.loc 1 57 20 is_stmt 0
 158 0018 17050000 		lla	a0,.LC3
 158      13050500 
GAS LISTING /tmp/ccvFzc2i.s 			page 5


 159              	.LVL11:
 160 0020 97000000 		call	_Z11printStringPKc@plt
 160      E7800000 
 161              	.LVL12:
  58:src/testcpp.cpp ****         printInt(counter++);
 162              		.loc 1 58 9 is_stmt 1
 163              		.loc 1 58 18 is_stmt 0
 164 0028 03A58402 		lw	a0,40(s1)
 165              		.loc 1 58 17
 166 002c 9B071500 		addiw	a5,a0,1
 167 0030 23A4F402 		sw	a5,40(s1)
 168 0034 13060000 		li	a2,0
 169 0038 9305A000 		li	a1,10
 170 003c 97000000 		call	_Z8printIntiii@plt
 170      E7800000 
 171              	.LVL13:
  59:src/testcpp.cpp ****         printString("\n");
 172              		.loc 1 59 9 is_stmt 1
 173              		.loc 1 59 20 is_stmt 0
 174 0044 17050000 		lla	a0,.LC4
 174      13050500 
 175 004c 97000000 		call	_Z11printStringPKc@plt
 175      E7800000 
 176              	.LVL14:
  60:src/testcpp.cpp ****     }
 177              		.loc 1 60 5
 178 0054 83308101 		ld	ra,24(sp)
 179              		.cfi_restore 1
 180 0058 03340101 		ld	s0,16(sp)
 181              		.cfi_restore 8
 182              		.cfi_def_cfa 2, 32
 183 005c 83348100 		ld	s1,8(sp)
 184              		.cfi_restore 9
 185              	.LVL15:
 186 0060 13010102 		addi	sp,sp,32
 187              		.cfi_def_cfa_offset 0
 188 0064 67800000 		jr	ra
 189              		.cfi_endproc
 190              	.LFE17:
 192              		.section	.text._ZN5timerD2Ev,"axG",@progbits,_ZN5timerD5Ev,comdat
 193              		.align	2
 194              		.weak	_ZN5timerD2Ev
 196              	_ZN5timerD2Ev:
 197              	.LFB21:
  50:src/testcpp.cpp **** public:
 198              		.loc 1 50 7 is_stmt 1
 199              		.cfi_startproc
 200              	.LVL16:
 201 0000 130101FF 		addi	sp,sp,-16
 202              		.cfi_def_cfa_offset 16
 203 0004 23341100 		sd	ra,8(sp)
 204 0008 23308100 		sd	s0,0(sp)
 205              		.cfi_offset 1, -8
 206              		.cfi_offset 8, -16
 207 000c 13040101 		addi	s0,sp,16
 208              		.cfi_def_cfa 8, 0
 209              	.LVL17:
GAS LISTING /tmp/ccvFzc2i.s 			page 6


 210              	.LBB17:
 211              	.LBB18:
 212              		.file 2 "src/../h/syscall_cpp.hpp"
   1:src/../h/syscall_cpp.hpp **** #ifndef _syscall_cpp
   2:src/../h/syscall_cpp.hpp **** #define _syscall_cpp
   3:src/../h/syscall_cpp.hpp **** 
   4:src/../h/syscall_cpp.hpp **** #include "../lib/hw.h"
   5:src/../h/syscall_cpp.hpp **** 
   6:src/../h/syscall_cpp.hpp **** void* operator new(size_t);
   7:src/../h/syscall_cpp.hpp **** 
   8:src/../h/syscall_cpp.hpp **** void* operator new[](size_t);
   9:src/../h/syscall_cpp.hpp **** 
  10:src/../h/syscall_cpp.hpp **** void operator delete(void*)
  11:src/../h/syscall_cpp.hpp **** 
  12:src/../h/syscall_cpp.hpp **** noexcept;
  13:src/../h/syscall_cpp.hpp **** 
  14:src/../h/syscall_cpp.hpp **** void operator delete[](void*)
  15:src/../h/syscall_cpp.hpp **** 
  16:src/../h/syscall_cpp.hpp **** noexcept;
  17:src/../h/syscall_cpp.hpp **** 
  18:src/../h/syscall_cpp.hpp **** class TCB;
  19:src/../h/syscall_cpp.hpp **** 
  20:src/../h/syscall_cpp.hpp **** typedef TCB* thread_t;
  21:src/../h/syscall_cpp.hpp **** 
  22:src/../h/syscall_cpp.hpp **** class KSem;
  23:src/../h/syscall_cpp.hpp **** 
  24:src/../h/syscall_cpp.hpp **** typedef KSem* sem_t;
  25:src/../h/syscall_cpp.hpp **** 
  26:src/../h/syscall_cpp.hpp **** class Thread {
  27:src/../h/syscall_cpp.hpp **** public:
  28:src/../h/syscall_cpp.hpp ****     //konstruktor koji pravi nit koja izvrsava zadatu funkciju sa zadatim argumentima, ne pokrece n
  29:src/../h/syscall_cpp.hpp ****     Thread(void (* body)(void*), void* arg);
  30:src/../h/syscall_cpp.hpp **** 
  31:src/../h/syscall_cpp.hpp ****     virtual ~Thread();
  32:src/../h/syscall_cpp.hpp **** 
  33:src/../h/syscall_cpp.hpp ****     //stavlja nit u Scheduler
  34:src/../h/syscall_cpp.hpp ****     int start();
  35:src/../h/syscall_cpp.hpp **** 
  36:src/../h/syscall_cpp.hpp ****     //pozivajuca (running) nit se suspenduje dok se nit ciji se metod poziva(this) ne zavrsi
  37:src/../h/syscall_cpp.hpp ****     void join();
  38:src/../h/syscall_cpp.hpp **** 
  39:src/../h/syscall_cpp.hpp ****     //sinhrona promena konteksta
  40:src/../h/syscall_cpp.hpp ****     static void dispatch();
  41:src/../h/syscall_cpp.hpp **** 
  42:src/../h/syscall_cpp.hpp ****     //uspavljuje tekucu nit na zadati period
  43:src/../h/syscall_cpp.hpp ****     static int sleep(time_t);
  44:src/../h/syscall_cpp.hpp **** 
  45:src/../h/syscall_cpp.hpp **** protected:
  46:src/../h/syscall_cpp.hpp ****     //konstruktor koji pravi nit koja izvrsava run metodu, ne stavlja je u Scheduler
  47:src/../h/syscall_cpp.hpp ****     Thread();
  48:src/../h/syscall_cpp.hpp **** 
  49:src/../h/syscall_cpp.hpp ****     //funkcija koju nit izvrsava, samo ako je nit napravljena podrazumevanim konstruktorom
  50:src/../h/syscall_cpp.hpp ****     virtual void run() {}
  51:src/../h/syscall_cpp.hpp **** 
  52:src/../h/syscall_cpp.hpp **** private:
  53:src/../h/syscall_cpp.hpp ****     //pokazivac na TCB strukturu kernela
  54:src/../h/syscall_cpp.hpp ****     thread_t myHandle;
GAS LISTING /tmp/ccvFzc2i.s 			page 7


  55:src/../h/syscall_cpp.hpp **** 
  56:src/../h/syscall_cpp.hpp ****     void (* body)(void*);
  57:src/../h/syscall_cpp.hpp **** 
  58:src/../h/syscall_cpp.hpp ****     void* arg;
  59:src/../h/syscall_cpp.hpp **** 
  60:src/../h/syscall_cpp.hpp ****     static void wrapper(void* thread);
  61:src/../h/syscall_cpp.hpp **** };
  62:src/../h/syscall_cpp.hpp **** 
  63:src/../h/syscall_cpp.hpp **** 
  64:src/../h/syscall_cpp.hpp **** class Semaphore {
  65:src/../h/syscall_cpp.hpp **** public:
  66:src/../h/syscall_cpp.hpp **** 
  67:src/../h/syscall_cpp.hpp ****     Semaphore(unsigned init = 1);
  68:src/../h/syscall_cpp.hpp **** 
  69:src/../h/syscall_cpp.hpp ****     virtual ~Semaphore();
  70:src/../h/syscall_cpp.hpp **** 
  71:src/../h/syscall_cpp.hpp ****     int wait();
  72:src/../h/syscall_cpp.hpp **** 
  73:src/../h/syscall_cpp.hpp ****     int signal();
  74:src/../h/syscall_cpp.hpp **** 
  75:src/../h/syscall_cpp.hpp **** private:
  76:src/../h/syscall_cpp.hpp ****     sem_t myHandle;
  77:src/../h/syscall_cpp.hpp **** };
  78:src/../h/syscall_cpp.hpp **** 
  79:src/../h/syscall_cpp.hpp **** 
  80:src/../h/syscall_cpp.hpp **** class PeriodicThread : public Thread {
 213              		.loc 2 80 7 is_stmt 0
 214 0010 97070000 		la	a5,_ZTV14PeriodicThread
 214      83B70700 
 215 0018 93870701 		addi	a5,a5,16
 216 001c 2330F500 		sd	a5,0(a0)
 217 0020 97000000 		call	_ZN6ThreadD2Ev@plt
 217      E7800000 
 218              	.LVL18:
 219              	.LBE18:
 220              	.LBE17:
  50:src/testcpp.cpp **** public:
 221              		.loc 1 50 7
 222 0028 83308100 		ld	ra,8(sp)
 223              		.cfi_restore 1
 224 002c 03340100 		ld	s0,0(sp)
 225              		.cfi_restore 8
 226              		.cfi_def_cfa 2, 16
 227 0030 13010101 		addi	sp,sp,16
 228              		.cfi_def_cfa_offset 0
 229 0034 67800000 		jr	ra
 230              		.cfi_endproc
 231              	.LFE21:
 233              		.weak	_ZN5timerD1Ev
 234              		.set	_ZN5timerD1Ev,_ZN5timerD2Ev
 235              		.section	.text._ZN5timerD0Ev,"axG",@progbits,_ZN5timerD5Ev,comdat
 236              		.align	2
 237              		.weak	_ZN5timerD0Ev
 239              	_ZN5timerD0Ev:
 240              	.LFB23:
  50:src/testcpp.cpp **** public:
 241              		.loc 1 50 7 is_stmt 1
GAS LISTING /tmp/ccvFzc2i.s 			page 8


 242              		.cfi_startproc
 243              	.LVL19:
 244 0000 130101FE 		addi	sp,sp,-32
 245              		.cfi_def_cfa_offset 32
 246 0004 233C1100 		sd	ra,24(sp)
 247 0008 23388100 		sd	s0,16(sp)
 248 000c 23349100 		sd	s1,8(sp)
 249              		.cfi_offset 1, -8
 250              		.cfi_offset 8, -16
 251              		.cfi_offset 9, -24
 252 0010 13040102 		addi	s0,sp,32
 253              		.cfi_def_cfa 8, 0
 254 0014 93040500 		mv	s1,a0
 255              	.LVL20:
 256              	.LBB19:
 257              	.LBB20:
 258              	.LBB21:
 259              		.loc 2 80 7 is_stmt 0
 260 0018 97070000 		la	a5,_ZTV14PeriodicThread
 260      83B70700 
 261 0020 93870701 		addi	a5,a5,16
 262 0024 2330F500 		sd	a5,0(a0)
 263 0028 97000000 		call	_ZN6ThreadD2Ev@plt
 263      E7800000 
 264              	.LVL21:
 265              	.LBE21:
 266              	.LBE20:
 267              	.LBE19:
  50:src/testcpp.cpp **** public:
 268              		.loc 1 50 7
 269 0030 13850400 		mv	a0,s1
 270 0034 97000000 		call	_ZdlPv@plt
 270      E7800000 
 271              	.LVL22:
 272 003c 83308101 		ld	ra,24(sp)
 273              		.cfi_restore 1
 274 0040 03340101 		ld	s0,16(sp)
 275              		.cfi_restore 8
 276              		.cfi_def_cfa 2, 32
 277 0044 83348100 		ld	s1,8(sp)
 278              		.cfi_restore 9
 279              	.LVL23:
 280 0048 13010102 		addi	sp,sp,32
 281              		.cfi_def_cfa_offset 0
 282 004c 67800000 		jr	ra
 283              		.cfi_endproc
 284              	.LFE23:
 286              		.text
 287              		.align	2
 288              		.globl	_Z4userPv
 290              	_Z4userPv:
 291              	.LFB18:
  61:src/testcpp.cpp **** };
  62:src/testcpp.cpp **** 
  63:src/testcpp.cpp **** void user(void*) {
 292              		.loc 1 63 18 is_stmt 1
 293              		.cfi_startproc
GAS LISTING /tmp/ccvFzc2i.s 			page 9


 294              		.cfi_personality 0x9b,DW.ref.__gxx_personality_v0
 295              		.cfi_lsda 0x1b,.LLSDA18
 296 009c 130101FD 		addi	sp,sp,-48
 297              		.cfi_def_cfa_offset 48
 298 00a0 23341102 		sd	ra,40(sp)
 299 00a4 23308102 		sd	s0,32(sp)
 300 00a8 233C9100 		sd	s1,24(sp)
 301 00ac 23382101 		sd	s2,16(sp)
 302              		.cfi_offset 1, -8
 303              		.cfi_offset 8, -16
 304              		.cfi_offset 9, -24
 305              		.cfi_offset 18, -32
 306 00b0 13040103 		addi	s0,sp,48
 307              		.cfi_def_cfa 8, 0
  64:src/testcpp.cpp **** //    printInt(KMemory::freeBlocksLeft);
  65:src/testcpp.cpp **** //    printString("\n");
  66:src/testcpp.cpp ****     int end = 0;
 308              		.loc 1 66 5
 309              		.loc 1 66 9 is_stmt 0
 310 00b4 232E04FC 		sw	zero,-36(s0)
  67:src/testcpp.cpp **** //    printInt(KMemory::freeBlocksLeft);
  68:src/testcpp.cpp **** //    printString("\n");
  69:src/testcpp.cpp ****     nit1 = new Thread(f1, &end);
 311              		.loc 1 69 5 is_stmt 1
 312              		.loc 1 69 31 is_stmt 0
 313 00b8 13050002 		li	a0,32
 314              	.LEHB0:
 315 00bc 97000000 		call	_Znwm@plt
 315      E7800000 
 316              	.LVL24:
 317              	.LEHE0:
 318 00c4 93040500 		mv	s1,a0
 319 00c8 1306C4FD 		addi	a2,s0,-36
 320 00cc 97050000 		lla	a1,_Z2f1Pv
 320      93850500 
 321              	.LEHB1:
 322 00d4 97000000 		call	_ZN6ThreadC1EPFvPvES0_@plt
 322      E7800000 
 323              	.LVL25:
 324              	.LEHE1:
 325              		.loc 1 69 10 discriminator 3
 326 00dc 97070000 		sd	s1,.LANCHOR0,a5
 326      23B09700 
  70:src/testcpp.cpp **** //    printInt(KMemory::freeBlocksLeft);
  71:src/testcpp.cpp **** //    printString("\n");
  72:src/testcpp.cpp ****     nit2 = new Thread(f2, &end);
 327              		.loc 1 72 5 is_stmt 1 discriminator 3
 328              		.loc 1 72 31 is_stmt 0 discriminator 3
 329 00e4 13050002 		li	a0,32
 330              	.LEHB2:
 331 00e8 97000000 		call	_Znwm@plt
 331      E7800000 
 332              	.LVL26:
 333              	.LEHE2:
 334 00f0 93040500 		mv	s1,a0
 335 00f4 1306C4FD 		addi	a2,s0,-36
 336 00f8 97050000 		lla	a1,_Z2f2Pv
GAS LISTING /tmp/ccvFzc2i.s 			page 10


 336      93850500 
 337              	.LEHB3:
 338 0100 97000000 		call	_ZN6ThreadC1EPFvPvES0_@plt
 338      E7800000 
 339              	.LVL27:
 340              	.LEHE3:
 341              		.loc 1 72 10 discriminator 3
 342 0108 97070000 		sd	s1,.LANCHOR0+8,a5
 342      23B09700 
  73:src/testcpp.cpp **** //    printInt(KMemory::freeBlocksLeft);
  74:src/testcpp.cpp **** //    printString("\n");
  75:src/testcpp.cpp ****     nit3 = new Thread(f3, &end);
 343              		.loc 1 75 5 is_stmt 1 discriminator 3
 344              		.loc 1 75 31 is_stmt 0 discriminator 3
 345 0110 13050002 		li	a0,32
 346              	.LEHB4:
 347 0114 97000000 		call	_Znwm@plt
 347      E7800000 
 348              	.LVL28:
 349              	.LEHE4:
 350 011c 93040500 		mv	s1,a0
 351 0120 1306C4FD 		addi	a2,s0,-36
 352 0124 97050000 		lla	a1,_Z2f3Pv
 352      93850500 
 353              	.LEHB5:
 354 012c 97000000 		call	_ZN6ThreadC1EPFvPvES0_@plt
 354      E7800000 
 355              	.LVL29:
 356              	.LEHE5:
 357              		.loc 1 75 10 discriminator 3
 358 0134 97070000 		sd	s1,.LANCHOR0+16,a5
 358      23B09700 
  76:src/testcpp.cpp **** //    printInt(KMemory::freeBlocksLeft);
  77:src/testcpp.cpp **** //    printString("\n");
  78:src/testcpp.cpp ****     PeriodicThread* per = new timer();
 359              		.loc 1 78 5 is_stmt 1 discriminator 3
 360              		.loc 1 78 37 is_stmt 0 discriminator 3
 361 013c 13050003 		li	a0,48
 362              	.LEHB6:
 363 0140 97000000 		call	_Znwm@plt
 363      E7800000 
 364              	.LVL30:
 365              	.LEHE6:
 366 0148 93040500 		mv	s1,a0
 367              	.LVL31:
 368              	.LBB22:
 369              	.LBB23:
  54:src/testcpp.cpp **** 
 370              		.loc 1 54 40 discriminator 3
 371 014c 93051000 		li	a1,1
 372              	.LEHB7:
 373 0150 97000000 		call	_ZN14PeriodicThreadC2Em@plt
 373      E7800000 
 374              	.LVL32:
 375              	.LEHE7:
  54:src/testcpp.cpp **** 
 376              		.loc 1 54 40
GAS LISTING /tmp/ccvFzc2i.s 			page 11


 377 0158 97070000 		lla	a5,_ZTV5timer+16
 377      93870700 
 378 0160 23B0F400 		sd	a5,0(s1)
 379 0164 23A40402 		sw	zero,40(s1)
 380              	.LVL33:
 381              	.LBE23:
 382              	.LBE22:
  79:src/testcpp.cpp **** //    printInt(KMemory::freeBlocksLeft);
  80:src/testcpp.cpp **** //    printString("\n");
  81:src/testcpp.cpp **** //    s12 = new Semaphore(0);
  82:src/testcpp.cpp **** //    printInt(KMemory::freeBlocksLeft);
  83:src/testcpp.cpp **** //    printString("\n");
  84:src/testcpp.cpp **** //    s23 = new Semaphore(0);
  85:src/testcpp.cpp **** //    printInt(KMemory::freeBlocksLeft);
  86:src/testcpp.cpp **** //    printString("\n");
  87:src/testcpp.cpp **** //    s31 = new Semaphore(1);
  88:src/testcpp.cpp **** //    printInt(KMemory::freeBlocksLeft);
  89:src/testcpp.cpp **** //    printString("\n");
  90:src/testcpp.cpp ****     nit1->start();
 383              		.loc 1 90 5 is_stmt 1
 384              		.loc 1 90 16 is_stmt 0
 385 0168 17090000 		lla	s2,.LANCHOR0
 385      13090900 
 386 0170 03350900 		ld	a0,0(s2)
 387              	.LEHB8:
 388 0174 97000000 		call	_ZN6Thread5startEv@plt
 388      E7800000 
 389              	.LVL34:
  91:src/testcpp.cpp ****     nit3->start();
 390              		.loc 1 91 5 is_stmt 1
 391              		.loc 1 91 16 is_stmt 0
 392 017c 03350901 		ld	a0,16(s2)
 393 0180 97000000 		call	_ZN6Thread5startEv@plt
 393      E7800000 
 394              	.LVL35:
  92:src/testcpp.cpp ****     nit2->start();
 395              		.loc 1 92 5 is_stmt 1
 396              		.loc 1 92 16 is_stmt 0
 397 0188 03358900 		ld	a0,8(s2)
 398 018c 97000000 		call	_ZN6Thread5startEv@plt
 398      E7800000 
 399              	.LVL36:
  93:src/testcpp.cpp ****     per->start();
 400              		.loc 1 93 5 is_stmt 1
 401              		.loc 1 93 15 is_stmt 0
 402 0194 13850400 		mv	a0,s1
 403 0198 97000000 		call	_ZN6Thread5startEv@plt
 403      E7800000 
 404              	.LVL37:
  94:src/testcpp.cpp **** 
  95:src/testcpp.cpp ****     nit1->join();
 405              		.loc 1 95 5 is_stmt 1
 406              		.loc 1 95 15 is_stmt 0
 407 01a0 03350900 		ld	a0,0(s2)
 408 01a4 97000000 		call	_ZN6Thread4joinEv@plt
 408      E7800000 
 409              	.LVL38:
GAS LISTING /tmp/ccvFzc2i.s 			page 12


  96:src/testcpp.cpp ****     nit2->join();
 410              		.loc 1 96 5 is_stmt 1
 411              		.loc 1 96 15 is_stmt 0
 412 01ac 03358900 		ld	a0,8(s2)
 413 01b0 97000000 		call	_ZN6Thread4joinEv@plt
 413      E7800000 
 414              	.LVL39:
  97:src/testcpp.cpp ****     nit3->join();
 415              		.loc 1 97 5 is_stmt 1
 416              		.loc 1 97 15 is_stmt 0
 417 01b8 03350901 		ld	a0,16(s2)
 418 01bc 97000000 		call	_ZN6Thread4joinEv@plt
 418      E7800000 
 419              	.LVL40:
  98:src/testcpp.cpp **** 
  99:src/testcpp.cpp **** 
 100:src/testcpp.cpp ****     //printString("\nGotove user niti\n");
 101:src/testcpp.cpp **** 
 102:src/testcpp.cpp ****     //printString("\nSad cu da izadjem iz usera\n");
 103:src/testcpp.cpp ****     per->terminate();
 420              		.loc 1 103 5 is_stmt 1
 421              		.loc 1 103 19 is_stmt 0
 422 01c4 13850400 		mv	a0,s1
 423 01c8 97000000 		call	_ZN14PeriodicThread9terminateEv@plt
 423      E7800000 
 424              	.LVL41:
 104:src/testcpp.cpp **** 
 105:src/testcpp.cpp **** //    printInt(KMemory::freeBlocksLeft);
 106:src/testcpp.cpp **** //    printString("\n");
 107:src/testcpp.cpp ****     delete nit1;
 425              		.loc 1 107 5 is_stmt 1
 426              		.loc 1 107 12 is_stmt 0
 427 01d0 03350900 		ld	a0,0(s2)
 428              		.loc 1 107 16
 429 01d4 63080500 		beqz	a0,.L14
 430              		.loc 1 107 12 discriminator 1
 431 01d8 83370500 		ld	a5,0(a0)
 432 01dc 83B78700 		ld	a5,8(a5)
 433 01e0 E7800700 		jalr	a5
 434              	.LVL42:
 435              	.L14:
 108:src/testcpp.cpp **** //    printInt(KMemory::freeBlocksLeft);
 109:src/testcpp.cpp **** //    printString("\n");
 110:src/testcpp.cpp ****     delete nit2;
 436              		.loc 1 110 5 is_stmt 1
 437              		.loc 1 110 12 is_stmt 0
 438 01e4 17050000 		ld	a0,.LANCHOR0+8
 438      03350500 
 439              		.loc 1 110 16
 440 01ec 63080500 		beqz	a0,.L15
 441              		.loc 1 110 12 discriminator 1
 442 01f0 83370500 		ld	a5,0(a0)
 443 01f4 83B78700 		ld	a5,8(a5)
 444 01f8 E7800700 		jalr	a5
 445              	.LVL43:
 446              	.L15:
 111:src/testcpp.cpp **** //    printInt(KMemory::freeBlocksLeft);
GAS LISTING /tmp/ccvFzc2i.s 			page 13


 112:src/testcpp.cpp **** //    printString("\n");
 113:src/testcpp.cpp ****     delete nit3;
 447              		.loc 1 113 5 is_stmt 1
 448              		.loc 1 113 12 is_stmt 0
 449 01fc 17050000 		ld	a0,.LANCHOR0+16
 449      03350500 
 450              		.loc 1 113 16
 451 0204 63080500 		beqz	a0,.L16
 452              		.loc 1 113 12 discriminator 1
 453 0208 83370500 		ld	a5,0(a0)
 454 020c 83B78700 		ld	a5,8(a5)
 455 0210 E7800700 		jalr	a5
 456              	.LVL44:
 457              	.L16:
 114:src/testcpp.cpp **** //    printInt(KMemory::freeBlocksLeft);
 115:src/testcpp.cpp **** //    printString("\n");
 116:src/testcpp.cpp ****     per->join();
 458              		.loc 1 116 5 is_stmt 1
 459              		.loc 1 116 14 is_stmt 0
 460 0214 13850400 		mv	a0,s1
 461 0218 97000000 		call	_ZN6Thread4joinEv@plt
 461      E7800000 
 462              	.LVL45:
 117:src/testcpp.cpp ****     delete per;
 463              		.loc 1 117 5 is_stmt 1
 464              		.loc 1 117 15 is_stmt 0
 465 0220 638A0400 		beqz	s1,.L17
 466              		.loc 1 117 12 discriminator 1
 467 0224 83B70400 		ld	a5,0(s1)
 468 0228 83B78700 		ld	a5,8(a5)
 469 022c 13850400 		mv	a0,s1
 470 0230 E7800700 		jalr	a5
 471              	.LVL46:
 472              	.L17:
 118:src/testcpp.cpp **** //    printInt(KMemory::freeBlocksLeft);
 119:src/testcpp.cpp **** //    printString("\n");
 120:src/testcpp.cpp **** 
 121:src/testcpp.cpp **** //    delete s12;
 122:src/testcpp.cpp **** //    printInt(KMemory::freeBlocksLeft);
 123:src/testcpp.cpp **** //    printString("\n");
 124:src/testcpp.cpp **** //    delete s23;
 125:src/testcpp.cpp **** //    printInt(KMemory::freeBlocksLeft);
 126:src/testcpp.cpp **** //    printString("\n");
 127:src/testcpp.cpp **** //    delete s31;
 128:src/testcpp.cpp **** //    printInt(KMemory::freeBlocksLeft);
 129:src/testcpp.cpp ****     printString("\n");
 473              		.loc 1 129 5 is_stmt 1
 474              		.loc 1 129 16 is_stmt 0
 475 0234 17050000 		lla	a0,.LC4
 475      13050500 
 476 023c 97000000 		call	_Z11printStringPKc@plt
 476      E7800000 
 477              	.LVL47:
 130:src/testcpp.cpp **** }
 478              		.loc 1 130 1
 479 0244 83308102 		ld	ra,40(sp)
 480              		.cfi_remember_state
GAS LISTING /tmp/ccvFzc2i.s 			page 14


 481              		.cfi_restore 1
 482 0248 03340102 		ld	s0,32(sp)
 483              		.cfi_restore 8
 484              		.cfi_def_cfa 2, 48
 485 024c 83348101 		ld	s1,24(sp)
 486              		.cfi_restore 9
 487              	.LVL48:
 488 0250 03390101 		ld	s2,16(sp)
 489              		.cfi_restore 18
 490 0254 13010103 		addi	sp,sp,48
 491              		.cfi_def_cfa_offset 0
 492 0258 67800000 		jr	ra
 493              	.L22:
 494              		.cfi_restore_state
 495 025c 13090500 		mv	s2,a0
  69:src/testcpp.cpp **** //    printInt(KMemory::freeBlocksLeft);
 496              		.loc 1 69 31
 497 0260 13850400 		mv	a0,s1
 498 0264 97000000 		call	_ZdlPv@plt
 498      E7800000 
 499              	.LVL49:
 500 026c 13050900 		mv	a0,s2
 501 0270 97000000 		call	_Unwind_Resume@plt
 501      E7800000 
 502              	.LVL50:
 503              	.L23:
 504 0278 13090500 		mv	s2,a0
  72:src/testcpp.cpp **** //    printInt(KMemory::freeBlocksLeft);
 505              		.loc 1 72 31
 506 027c 13850400 		mv	a0,s1
 507 0280 97000000 		call	_ZdlPv@plt
 507      E7800000 
 508              	.LVL51:
 509 0288 13050900 		mv	a0,s2
 510 028c 97000000 		call	_Unwind_Resume@plt
 510      E7800000 
 511              	.LVL52:
 512              	.L24:
 513 0294 13090500 		mv	s2,a0
  75:src/testcpp.cpp **** //    printInt(KMemory::freeBlocksLeft);
 514              		.loc 1 75 31
 515 0298 13850400 		mv	a0,s1
 516 029c 97000000 		call	_ZdlPv@plt
 516      E7800000 
 517              	.LVL53:
 518 02a4 13050900 		mv	a0,s2
 519 02a8 97000000 		call	_Unwind_Resume@plt
 519      E7800000 
 520              	.LVL54:
 521              	.L25:
 522 02b0 13090500 		mv	s2,a0
  78:src/testcpp.cpp **** //    printInt(KMemory::freeBlocksLeft);
 523              		.loc 1 78 37
 524 02b4 13850400 		mv	a0,s1
 525 02b8 97000000 		call	_ZdlPv@plt
 525      E7800000 
 526              	.LVL55:
GAS LISTING /tmp/ccvFzc2i.s 			page 15


 527 02c0 13050900 		mv	a0,s2
 528 02c4 97000000 		call	_Unwind_Resume@plt
 528      E7800000 
 529              	.LVL56:
 530              	.LEHE8:
 531              		.cfi_endproc
 532              	.LFE18:
 533              		.globl	__gxx_personality_v0
 534              		.section	.gcc_except_table,"a",@progbits
 535              	.LLSDA18:
 536 0000 FF       		.byte	0xff
 537 0001 FF       		.byte	0xff
 538 0002 03       		.byte	0x3
 539 0003 75       		.byte	0x75
 540 0004 00000000 		.4byte	.LEHB0-.LFB18
 541 0008 00000000 		.4byte	.LEHE0-.LEHB0
 542 000c 00000000 		.4byte	0
 543 0010 00       		.byte	0
 544 0011 00000000 		.4byte	.LEHB1-.LFB18
 545 0015 00000000 		.4byte	.LEHE1-.LEHB1
 546 0019 00000000 		.4byte	.L22-.LFB18
 547 001d 00       		.byte	0
 548 001e 00000000 		.4byte	.LEHB2-.LFB18
 549 0022 00000000 		.4byte	.LEHE2-.LEHB2
 550 0026 00000000 		.4byte	0
 551 002a 00       		.byte	0
 552 002b 00000000 		.4byte	.LEHB3-.LFB18
 553 002f 00000000 		.4byte	.LEHE3-.LEHB3
 554 0033 00000000 		.4byte	.L23-.LFB18
 555 0037 00       		.byte	0
 556 0038 00000000 		.4byte	.LEHB4-.LFB18
 557 003c 00000000 		.4byte	.LEHE4-.LEHB4
 558 0040 00000000 		.4byte	0
 559 0044 00       		.byte	0
 560 0045 00000000 		.4byte	.LEHB5-.LFB18
 561 0049 00000000 		.4byte	.LEHE5-.LEHB5
 562 004d 00000000 		.4byte	.L24-.LFB18
 563 0051 00       		.byte	0
 564 0052 00000000 		.4byte	.LEHB6-.LFB18
 565 0056 00000000 		.4byte	.LEHE6-.LEHB6
 566 005a 00000000 		.4byte	0
 567 005e 00       		.byte	0
 568 005f 00000000 		.4byte	.LEHB7-.LFB18
 569 0063 00000000 		.4byte	.LEHE7-.LEHB7
 570 0067 00000000 		.4byte	.L25-.LFB18
 571 006b 00       		.byte	0
 572 006c 00000000 		.4byte	.LEHB8-.LFB18
 573 0070 00000000 		.4byte	.LEHE8-.LEHB8
 574 0074 00000000 		.4byte	0
 575 0078 00       		.byte	0
 576              		.text
 578              		.section	.rodata.str1.8
 579 002e 0000     		.align	3
 580              	.LC5:
 581 0030 697A6C61 		.string	"izlazim iz user 2\n"
 581      7A696D20 
 581      697A2075 
GAS LISTING /tmp/ccvFzc2i.s 			page 16


 581      73657220 
 581      320A00
 582              		.text
 583              		.align	2
 584              		.globl	_Z5user2Pv
 586              	_Z5user2Pv:
 587              	.LFB19:
 131:src/testcpp.cpp **** 
 132:src/testcpp.cpp **** void user2(void*) {
 588              		.loc 1 132 19 is_stmt 1
 589              		.cfi_startproc
 590              		.cfi_personality 0x9b,DW.ref.__gxx_personality_v0
 591              		.cfi_lsda 0x1b,.LLSDA19
 592 02cc 130101FB 		addi	sp,sp,-80
 593              		.cfi_def_cfa_offset 80
 594 02d0 23341104 		sd	ra,72(sp)
 595 02d4 23308104 		sd	s0,64(sp)
 596 02d8 233C9102 		sd	s1,56(sp)
 597 02dc 23382103 		sd	s2,48(sp)
 598 02e0 23343103 		sd	s3,40(sp)
 599              		.cfi_offset 1, -8
 600              		.cfi_offset 8, -16
 601              		.cfi_offset 9, -24
 602              		.cfi_offset 18, -32
 603              		.cfi_offset 19, -40
 604 02e4 13040105 		addi	s0,sp,80
 605              		.cfi_def_cfa 8, 0
 133:src/testcpp.cpp ****     Semaphore* s12, * s23, * s31;
 606              		.loc 1 133 5
 134:src/testcpp.cpp ****     s12 = new Semaphore(0);
 607              		.loc 1 134 5
 608              		.loc 1 134 26 is_stmt 0
 609 02e8 13050001 		li	a0,16
 610              	.LEHB9:
 611 02ec 97000000 		call	_Znwm@plt
 611      E7800000 
 612              	.LVL57:
 613              	.LEHE9:
 614 02f4 93090500 		mv	s3,a0
 615 02f8 93050000 		li	a1,0
 616              	.LEHB10:
 617 02fc 97000000 		call	_ZN9SemaphoreC1Ej@plt
 617      E7800000 
 618              	.LVL58:
 619              	.LEHE10:
 135:src/testcpp.cpp ****     s23 = new Semaphore(0);
 620              		.loc 1 135 5 is_stmt 1 discriminator 3
 621              		.loc 1 135 26 is_stmt 0 discriminator 3
 622 0304 13050001 		li	a0,16
 623              	.LEHB11:
 624 0308 97000000 		call	_Znwm@plt
 624      E7800000 
 625              	.LVL59:
 626              	.LEHE11:
 627 0310 13090500 		mv	s2,a0
 628 0314 93050000 		li	a1,0
 629              	.LEHB12:
GAS LISTING /tmp/ccvFzc2i.s 			page 17


 630 0318 97000000 		call	_ZN9SemaphoreC1Ej@plt
 630      E7800000 
 631              	.LVL60:
 632              	.LEHE12:
 136:src/testcpp.cpp ****     s31 = new Semaphore(1);
 633              		.loc 1 136 5 is_stmt 1 discriminator 3
 634              		.loc 1 136 26 is_stmt 0 discriminator 3
 635 0320 13050001 		li	a0,16
 636              	.LEHB13:
 637 0324 97000000 		call	_Znwm@plt
 637      E7800000 
 638              	.LVL61:
 639              	.LEHE13:
 640 032c 93040500 		mv	s1,a0
 641 0330 93051000 		li	a1,1
 642              	.LEHB14:
 643 0334 97000000 		call	_ZN9SemaphoreC1Ej@plt
 643      E7800000 
 644              	.LVL62:
 645              	.LEHE14:
 137:src/testcpp.cpp ****     delete s12;
 646              		.loc 1 137 5 is_stmt 1 discriminator 3
 647              		.loc 1 137 15 is_stmt 0 discriminator 3
 648 033c 638A0900 		beqz	s3,.L29
 649              		.loc 1 137 12 discriminator 1
 650 0340 83B70900 		ld	a5,0(s3)
 651 0344 83B78700 		ld	a5,8(a5)
 652 0348 13850900 		mv	a0,s3
 653 034c E7800700 		jalr	a5
 654              	.LVL63:
 655              	.L29:
 138:src/testcpp.cpp ****     delete s23;
 656              		.loc 1 138 5 is_stmt 1
 657              		.loc 1 138 15 is_stmt 0
 658 0350 630A0900 		beqz	s2,.L30
 659              		.loc 1 138 12 discriminator 1
 660 0354 83370900 		ld	a5,0(s2)
 661 0358 83B78700 		ld	a5,8(a5)
 662 035c 13050900 		mv	a0,s2
 663 0360 E7800700 		jalr	a5
 664              	.LVL64:
 665              	.L30:
 139:src/testcpp.cpp ****     delete s31;
 666              		.loc 1 139 5 is_stmt 1
 667              		.loc 1 139 15 is_stmt 0
 668 0364 638A0400 		beqz	s1,.L31
 669              		.loc 1 139 12 discriminator 1
 670 0368 83B70400 		ld	a5,0(s1)
 671 036c 83B78700 		ld	a5,8(a5)
 672 0370 13850400 		mv	a0,s1
 673 0374 E7800700 		jalr	a5
 674              	.LVL65:
 675              	.L31:
 140:src/testcpp.cpp ****     printString("\n");
 676              		.loc 1 140 5 is_stmt 1
 677              		.loc 1 140 16 is_stmt 0
 678 0378 17050000 		lla	a0,.LC4
GAS LISTING /tmp/ccvFzc2i.s 			page 18


 678      13050500 
 679              	.LEHB15:
 680 0380 97000000 		call	_Z11printStringPKc@plt
 680      E7800000 
 681              	.LVL66:
 141:src/testcpp.cpp **** 
 142:src/testcpp.cpp ****     Thread t(f1, nullptr);
 682              		.loc 1 142 5 is_stmt 1
 683              		.loc 1 142 25 is_stmt 0
 684 0388 13060000 		li	a2,0
 685 038c 97050000 		lla	a1,_Z2f1Pv
 685      93850500 
 686 0394 930404FB 		addi	s1,s0,-80
 687              	.LVL67:
 688 0398 13850400 		mv	a0,s1
 689 039c 97000000 		call	_ZN6ThreadC1EPFvPvES0_@plt
 689      E7800000 
 690              	.LVL68:
 691              	.LEHE15:
 143:src/testcpp.cpp ****     t.start();
 692              		.loc 1 143 5 is_stmt 1
 693              		.loc 1 143 12 is_stmt 0
 694 03a4 13850400 		mv	a0,s1
 695              	.LEHB16:
 696 03a8 97000000 		call	_ZN6Thread5startEv@plt
 696      E7800000 
 697              	.LVL69:
 144:src/testcpp.cpp ****     time_sleep(20);
 698              		.loc 1 144 5 is_stmt 1
 699              		.loc 1 144 15 is_stmt 0
 700 03b0 13054001 		li	a0,20
 701 03b4 97000000 		call	_Z10time_sleepm@plt
 701      E7800000 
 702              	.LVL70:
 145:src/testcpp.cpp ****     Thread* t2 = new Thread(f2,nullptr);
 703              		.loc 1 145 5 is_stmt 1
 704              		.loc 1 145 39 is_stmt 0
 705 03bc 13050002 		li	a0,32
 706 03c0 97000000 		call	_Znwm@plt
 706      E7800000 
 707              	.LVL71:
 708              	.LEHE16:
 709 03c8 93040500 		mv	s1,a0
 710 03cc 13060000 		li	a2,0
 711 03d0 97050000 		lla	a1,_Z2f2Pv
 711      93850500 
 712              	.LEHB17:
 713 03d8 97000000 		call	_ZN6ThreadC1EPFvPvES0_@plt
 713      E7800000 
 714              	.LVL72:
 715              	.LEHE17:
 146:src/testcpp.cpp ****     t2->start();
 716              		.loc 1 146 5 is_stmt 1 discriminator 3
 717              		.loc 1 146 14 is_stmt 0 discriminator 3
 718 03e0 13850400 		mv	a0,s1
 719              	.LEHB18:
 720 03e4 97000000 		call	_ZN6Thread5startEv@plt
GAS LISTING /tmp/ccvFzc2i.s 			page 19


 720      E7800000 
 721              	.LVL73:
 147:src/testcpp.cpp ****     t2->join();
 722              		.loc 1 147 5 is_stmt 1
 723              		.loc 1 147 13 is_stmt 0
 724 03ec 13850400 		mv	a0,s1
 725 03f0 97000000 		call	_ZN6Thread4joinEv@plt
 725      E7800000 
 726              	.LVL74:
 148:src/testcpp.cpp ****     t.join();
 727              		.loc 1 148 5 is_stmt 1
 728              		.loc 1 148 11 is_stmt 0
 729 03f8 130504FB 		addi	a0,s0,-80
 730 03fc 97000000 		call	_ZN6Thread4joinEv@plt
 730      E7800000 
 731              	.LVL75:
 149:src/testcpp.cpp ****     delete t2;
 732              		.loc 1 149 5 is_stmt 1
 733              		.loc 1 149 14 is_stmt 0
 734 0404 638A0400 		beqz	s1,.L32
 735              		.loc 1 149 12 discriminator 1
 736 0408 83B70400 		ld	a5,0(s1)
 737 040c 83B78700 		ld	a5,8(a5)
 738 0410 13850400 		mv	a0,s1
 739 0414 E7800700 		jalr	a5
 740              	.LVL76:
 741              	.L32:
 150:src/testcpp.cpp ****     printString("izlazim iz user 2\n");
 742              		.loc 1 150 5 is_stmt 1
 743              		.loc 1 150 16 is_stmt 0
 744 0418 17050000 		lla	a0,.LC5
 744      13050500 
 745 0420 97000000 		call	_Z11printStringPKc@plt
 745      E7800000 
 746              	.LVL77:
 747              	.LEHE18:
 142:src/testcpp.cpp ****     t.start();
 748              		.loc 1 142 25
 749 0428 130504FB 		addi	a0,s0,-80
 750 042c 97000000 		call	_ZN6ThreadD1Ev@plt
 750      E7800000 
 751              	.LVL78:
 151:src/testcpp.cpp **** }...
 752              		.loc 1 151 1
 753 0434 83308104 		ld	ra,72(sp)
 754              		.cfi_remember_state
 755              		.cfi_restore 1
 756 0438 03340104 		ld	s0,64(sp)
 757              		.cfi_restore 8
 758              		.cfi_def_cfa 2, 80
 759 043c 83348103 		ld	s1,56(sp)
 760              		.cfi_restore 9
 761              	.LVL79:
 762 0440 03390103 		ld	s2,48(sp)
 763              		.cfi_restore 18
 764              	.LVL80:
 765 0444 83398102 		ld	s3,40(sp)
GAS LISTING /tmp/ccvFzc2i.s 			page 20


 766              		.cfi_restore 19
 767              	.LVL81:
 768 0448 13010105 		addi	sp,sp,80
 769              		.cfi_def_cfa_offset 0
 770 044c 67800000 		jr	ra
 771              	.L38:
 772              		.cfi_restore_state
 773 0450 93040500 		mv	s1,a0
 134:src/testcpp.cpp ****     s12 = new Semaphore(0);
 774              		.loc 1 134 26
 775 0454 13850900 		mv	a0,s3
 776 0458 97000000 		call	_ZdlPv@plt
 776      E7800000 
 777              	.LVL82:
 778 0460 13850400 		mv	a0,s1
 779              	.LEHB19:
 780 0464 97000000 		call	_Unwind_Resume@plt
 780      E7800000 
 781              	.LVL83:
 782              	.L39:
 783 046c 93040500 		mv	s1,a0
 135:src/testcpp.cpp ****     s23 = new Semaphore(0);
 784              		.loc 1 135 26
 785 0470 13050900 		mv	a0,s2
 786 0474 97000000 		call	_ZdlPv@plt
 786      E7800000 
 787              	.LVL84:
 788 047c 13850400 		mv	a0,s1
 789 0480 97000000 		call	_Unwind_Resume@plt
 789      E7800000 
 790              	.LVL85:
 791              	.L40:
 792 0488 13090500 		mv	s2,a0
 793              	.LVL86:
 136:src/testcpp.cpp ****     s31 = new Semaphore(1);
 794              		.loc 1 136 26
 795 048c 13850400 		mv	a0,s1
 796 0490 97000000 		call	_ZdlPv@plt
 796      E7800000 
 797              	.LVL87:
 798 0498 13050900 		mv	a0,s2
 799 049c 97000000 		call	_Unwind_Resume@plt
 799      E7800000 
 800              	.LVL88:
 801              	.L42:
 802 04a4 13090500 		mv	s2,a0
 803              	.LVL89:
 145:src/testcpp.cpp ****     Thread* t2 = new Thread(f2,nullptr);
 804              		.loc 1 145 39
 805 04a8 13850400 		mv	a0,s1
 806 04ac 97000000 		call	_ZdlPv@plt
 806      E7800000 
 807              	.LVL90:
 808              	.L37:
 142:src/testcpp.cpp ****     Thread t(f1, nullptr);
 809              		.loc 1 142 25
 810 04b4 130504FB 		addi	a0,s0,-80
GAS LISTING /tmp/ccvFzc2i.s 			page 21


 811 04b8 97000000 		call	_ZN6ThreadD1Ev@plt
 811      E7800000 
 812              	.LVL91:
 813 04c0 13050900 		mv	a0,s2
 814 04c4 97000000 		call	_Unwind_Resume@plt
 814      E7800000 
 815              	.LVL92:
 816              	.LEHE19:
 817              	.L41:
 818 04cc 13090500 		mv	s2,a0
 819              	.LVL93:
 820 04d0 6FF05FFE 		j	.L37
 821              		.cfi_endproc
 822              	.LFE19:
 823              		.section	.gcc_except_table
 824              	.LLSDA19:
 825 0079 FF       		.byte	0xff
 826 007a FF       		.byte	0xff
 827 007b 03       		.byte	0x3
 828 007c 8F01     		.byte	0x8f,0x1
 829 007e 00000000 		.4byte	.LEHB9-.LFB19
 830 0082 00000000 		.4byte	.LEHE9-.LEHB9
 831 0086 00000000 		.4byte	0
 832 008a 00       		.byte	0
 833 008b 00000000 		.4byte	.LEHB10-.LFB19
 834 008f 00000000 		.4byte	.LEHE10-.LEHB10
 835 0093 00000000 		.4byte	.L38-.LFB19
 836 0097 00       		.byte	0
 837 0098 00000000 		.4byte	.LEHB11-.LFB19
 838 009c 00000000 		.4byte	.LEHE11-.LEHB11
 839 00a0 00000000 		.4byte	0
 840 00a4 00       		.byte	0
 841 00a5 00000000 		.4byte	.LEHB12-.LFB19
 842 00a9 00000000 		.4byte	.LEHE12-.LEHB12
 843 00ad 00000000 		.4byte	.L39-.LFB19
 844 00b1 00       		.byte	0
 845 00b2 00000000 		.4byte	.LEHB13-.LFB19
 846 00b6 00000000 		.4byte	.LEHE13-.LEHB13
 847 00ba 00000000 		.4byte	0
 848 00be 00       		.byte	0
 849 00bf 00000000 		.4byte	.LEHB14-.LFB19
 850 00c3 00000000 		.4byte	.LEHE14-.LEHB14
 851 00c7 00000000 		.4byte	.L40-.LFB19
 852 00cb 00       		.byte	0
 853 00cc 00000000 		.4byte	.LEHB15-.LFB19
 854 00d0 00000000 		.4byte	.LEHE15-.LEHB15
 855 00d4 00000000 		.4byte	0
 856 00d8 00       		.byte	0
 857 00d9 00000000 		.4byte	.LEHB16-.LFB19
 858 00dd 00000000 		.4byte	.LEHE16-.LEHB16
 859 00e1 00000000 		.4byte	.L41-.LFB19
 860 00e5 00       		.byte	0
 861 00e6 00000000 		.4byte	.LEHB17-.LFB19
 862 00ea 00000000 		.4byte	.LEHE17-.LEHB17
 863 00ee 00000000 		.4byte	.L42-.LFB19
 864 00f2 00       		.byte	0
 865 00f3 00000000 		.4byte	.LEHB18-.LFB19
GAS LISTING /tmp/ccvFzc2i.s 			page 22


 866 00f7 00000000 		.4byte	.LEHE18-.LEHB18
 867 00fb 00000000 		.4byte	.L41-.LFB19
 868 00ff 00       		.byte	0
 869 0100 00000000 		.4byte	.LEHB19-.LFB19
 870 0104 00000000 		.4byte	.LEHE19-.LEHB19
 871 0108 00000000 		.4byte	0
 872 010c 00       		.byte	0
 873              		.text
 875              		.weak	_ZTV5timer
 876              		.section	.data.rel.ro._ZTV5timer,"awG",@progbits,_ZTV5timer,comdat
 877              		.align	3
 880              	_ZTV5timer:
 881 0000 00000000 		.dword	0
 881      00000000 
 882 0008 00000000 		.dword	0
 882      00000000 
 883 0010 00000000 		.dword	_ZN5timerD1Ev
 883      00000000 
 884 0018 00000000 		.dword	_ZN5timerD0Ev
 884      00000000 
 885 0020 00000000 		.dword	_ZN14PeriodicThread3runEv
 885      00000000 
 886 0028 00000000 		.dword	_ZN5timer18periodicActivationEv
 886      00000000 
 887              		.globl	nit3
 888              		.globl	nit2
 889              		.globl	nit1
 890              		.bss
 891              		.align	3
 892              		.set	.LANCHOR0,. + 0
 895              	nit1:
 896 0000 00000000 		.zero	8
 896      00000000 
 899              	nit2:
 900 0008 00000000 		.zero	8
 900      00000000 
 903              	nit3:
 904 0010 00000000 		.zero	8
 904      00000000 
 905              		.text
 906              	.Letext0:
 907              		.file 3 "src/../h/../lib/hw.h"
 908              		.file 4 "src/../h/syscall_c.hpp"
 909              		.file 5 "src/../test/printing.hpp"
 3485              		.align	3
 3488              	DW.ref.__gxx_personality_v0:
 3489 0000 00000000 		.dword	__gxx_personality_v0
 3489      00000000 
 3490              		.ident	"GCC: (Ubuntu 9.4.0-1ubuntu1~20.04) 9.4.0"
 3491              		.section	.note.GNU-stack,"",@progbits
GAS LISTING /tmp/ccvFzc2i.s 			page 23

