GAS LISTING /tmp/ccOoRIEU.s 			page 1


   1              		.file	"testFunctions.cpp"
   2              		.option pic
   3              		.option norelax
   4              		.text
   5              	.Ltext0:
   6              		.section	.rodata
   7              		.align	3
   8              	.LC0:
   9 0000 6E656100 		.string	"nea"
  10              		.text
  11              		.align	2
  12              		.globl	_Z10testMemoryv
  14              	_Z10testMemoryv:
  15              	.LFB47:
  16              		.file 1 "src/testFunctions.cpp"
   1:src/testFunctions.cpp **** //
   2:src/testFunctions.cpp **** // Created by os on 5/29/23.
   3:src/testFunctions.cpp **** //
   4:src/testFunctions.cpp **** #include "../h/MemoryAllocator.hpp"
   5:src/testFunctions.cpp **** #include "../h/helper.hpp"
   6:src/testFunctions.cpp **** //#include "../lib/console.h"
   7:src/testFunctions.cpp **** #include "../lib/hw.h"
   8:src/testFunctions.cpp **** #include "../h/helper.hpp"
   9:src/testFunctions.cpp **** #include "../h/Riscv.hpp"
  10:src/testFunctions.cpp **** #include "../h/syscall_c.hpp"
  11:src/testFunctions.cpp **** #include "../h/syscall_cpp.hpp"
  12:src/testFunctions.cpp **** #include "../h/List.hpp"
  13:src/testFunctions.cpp **** //#include "../h/MemoryAllocator.hpp"
  14:src/testFunctions.cpp **** #include "../h/TCB.hpp"
  15:src/testFunctions.cpp **** #include "../h/ThreadQueue.hpp"
  16:src/testFunctions.cpp **** //#include "../h/KSem.hpp"
  17:src/testFunctions.cpp **** 
  18:src/testFunctions.cpp **** #include "../test/printing.hpp"
  19:src/testFunctions.cpp **** #include "../h/KConsole.hpp"
  20:src/testFunctions.cpp **** 
  21:src/testFunctions.cpp **** extern "C" void interruptHandler();
  22:src/testFunctions.cpp **** 
  23:src/testFunctions.cpp **** void userMain();
  24:src/testFunctions.cpp **** 
  25:src/testFunctions.cpp **** void idle(void*);
  26:src/testFunctions.cpp **** 
  27:src/testFunctions.cpp **** void kernelConsumerFunction(void*);
  28:src/testFunctions.cpp **** //void printInteger(int i){
  29:src/testFunctions.cpp **** //	printInt(i);
  30:src/testFunctions.cpp **** //}
  31:src/testFunctions.cpp **** //extern Semaphore* semA;
  32:src/testFunctions.cpp **** 
  33:src/testFunctions.cpp **** char* upisi(size_t alociraj) {
  34:src/testFunctions.cpp ****     char* pok = (char*) MemoryAllocator::kmalloc(alociraj);
  35:src/testFunctions.cpp ****     if (pok) {
  36:src/testFunctions.cpp ****         for (uint64 i = 0; i < alociraj - sizeof(MemoryAllocator::UsedMemSegment); i++) {
  37:src/testFunctions.cpp ****             pok[i] = '8';
  38:src/testFunctions.cpp ****         }
  39:src/testFunctions.cpp ****     }
  40:src/testFunctions.cpp **** 
  41:src/testFunctions.cpp ****     return pok;
  42:src/testFunctions.cpp **** }
GAS LISTING /tmp/ccOoRIEU.s 			page 2


  43:src/testFunctions.cpp **** 
  44:src/testFunctions.cpp **** #pragma GCC optimize("O0")
  45:src/testFunctions.cpp **** 
  46:src/testFunctions.cpp **** void testMemory() {
  17              		.loc 1 46 19
  18              		.cfi_startproc
  19 0000 130101E6 		addi	sp,sp,-416
  20              		.cfi_def_cfa_offset 416
  21 0004 233C1118 		sd	ra,408(sp)
  22 0008 23388118 		sd	s0,400(sp)
  23              		.cfi_offset 1, -8
  24              		.cfi_offset 8, -16
  25 000c 1304011A 		addi	s0,sp,416
  26              		.cfi_def_cfa 8, 0
  47:src/testFunctions.cpp ****     char* pokazivaci[50];
  27              		.loc 1 47 5
  48:src/testFunctions.cpp ****     pokazivaci[0] = nullptr;
  28              		.loc 1 48 5
  29              		.loc 1 48 19 is_stmt 0
  30 0010 233004E6 		sd	zero,-416(s0)
  49:src/testFunctions.cpp ****     pokazivaci[0] = upisi(1024 + 768);
  31              		.loc 1 49 5 is_stmt 1
  32              		.loc 1 49 26 is_stmt 0
  33 0014 13050070 		li	a0,1792
  34 0018 97000000 		call	_Z5upisim
  34      E7800000 
  35              	.LVL0:
  36 0020 93070500 		mv	a5,a0
  37              		.loc 1 49 19
  38 0024 2330F4E6 		sd	a5,-416(s0)
  50:src/testFunctions.cpp ****     if (pokazivaci[0]) {
  39              		.loc 1 50 5 is_stmt 1
  40              		.loc 1 50 21 is_stmt 0
  41 0028 833704E6 		ld	a5,-416(s0)
  42              		.loc 1 50 5
  43 002c 638C0702 		beqz	a5,.L2
  51:src/testFunctions.cpp ****         if (pokazivaci[0][0] == '8') {
  44              		.loc 1 51 9 is_stmt 1
  45              		.loc 1 51 25 is_stmt 0
  46 0030 833704E6 		ld	a5,-416(s0)
  47              		.loc 1 51 28
  48 0034 83C70700 		lbu	a5,0(a5)
  49              		.loc 1 51 9
  50 0038 13870700 		mv	a4,a5
  51 003c 93078003 		li	a5,56
  52 0040 631AF700 		bne	a4,a5,.L3
  52:src/testFunctions.cpp ****             printString("nea");
  53              		.loc 1 52 13 is_stmt 1
  54              		.loc 1 52 24 is_stmt 0
  55 0044 17050000 		lla	a0,.LC0
  55      13050500 
  56 004c 97000000 		call	_Z11printStringPKc@plt
  56      E7800000 
  57              	.LVL1:
  58              	.L3:
  53:src/testFunctions.cpp ****         }
  54:src/testFunctions.cpp ****         MemoryAllocator::kfree(pokazivaci[0]);
GAS LISTING /tmp/ccOoRIEU.s 			page 3


  59              		.loc 1 54 9 is_stmt 1
  60              		.loc 1 54 44 is_stmt 0
  61 0054 833704E6 		ld	a5,-416(s0)
  62              		.loc 1 54 31
  63 0058 13850700 		mv	a0,a5
  64 005c 97000000 		call	_ZN15MemoryAllocator5kfreeEPv@plt
  64      E7800000 
  65              	.LVL2:
  66              	.L2:
  55:src/testFunctions.cpp ****     }
  56:src/testFunctions.cpp **** 
  57:src/testFunctions.cpp **** 
  58:src/testFunctions.cpp ****     pokazivaci[0] = upisi(4096);
  67              		.loc 1 58 5 is_stmt 1
  68              		.loc 1 58 26 is_stmt 0
  69 0064 37150000 		li	a0,4096
  70 0068 97000000 		call	_Z5upisim
  70      E7800000 
  71              	.LVL3:
  72 0070 93070500 		mv	a5,a0
  73              		.loc 1 58 19
  74 0074 2330F4E6 		sd	a5,-416(s0)
  59:src/testFunctions.cpp ****     if (pokazivaci[0]) {
  75              		.loc 1 59 5 is_stmt 1
  76              		.loc 1 59 21 is_stmt 0
  77 0078 833704E6 		ld	a5,-416(s0)
  78              		.loc 1 59 5
  79 007c 638A0700 		beqz	a5,.L4
  60:src/testFunctions.cpp ****         MemoryAllocator::kfree(pokazivaci[0]);
  80              		.loc 1 60 9 is_stmt 1
  81              		.loc 1 60 44 is_stmt 0
  82 0080 833704E6 		ld	a5,-416(s0)
  83              		.loc 1 60 31
  84 0084 13850700 		mv	a0,a5
  85 0088 97000000 		call	_ZN15MemoryAllocator5kfreeEPv@plt
  85      E7800000 
  86              	.LVL4:
  87              	.L4:
  61:src/testFunctions.cpp ****     }
  62:src/testFunctions.cpp **** 
  63:src/testFunctions.cpp ****     pokazivaci[0] = upisi(1024 + 768);
  88              		.loc 1 63 5 is_stmt 1
  89              		.loc 1 63 26 is_stmt 0
  90 0090 13050070 		li	a0,1792
  91 0094 97000000 		call	_Z5upisim
  91      E7800000 
  92              	.LVL5:
  93 009c 93070500 		mv	a5,a0
  94              		.loc 1 63 19
  95 00a0 2330F4E6 		sd	a5,-416(s0)
  64:src/testFunctions.cpp ****     MemoryAllocator::kfree(pokazivaci[0]);
  96              		.loc 1 64 5 is_stmt 1
  97              		.loc 1 64 40 is_stmt 0
  98 00a4 833704E6 		ld	a5,-416(s0)
  99              		.loc 1 64 27
 100 00a8 13850700 		mv	a0,a5
 101 00ac 97000000 		call	_ZN15MemoryAllocator5kfreeEPv@plt
GAS LISTING /tmp/ccOoRIEU.s 			page 4


 101      E7800000 
 102              	.LVL6:
  65:src/testFunctions.cpp **** 
  66:src/testFunctions.cpp **** }
 103              		.loc 1 66 1
 104 00b4 13000000 		nop
 105 00b8 83308119 		ld	ra,408(sp)
 106              		.cfi_restore 1
 107 00bc 03340119 		ld	s0,400(sp)
 108              		.cfi_restore 8
 109              		.cfi_def_cfa 2, 416
 110 00c0 1301011A 		addi	sp,sp,416
 111              		.cfi_def_cfa_offset 0
 112 00c4 67800000 		jr	ra
 113              		.cfi_endproc
 114              	.LFE47:
 116              		.section	.rodata
 117 0004 00000000 		.align	3
 118              	.LC1:
 119 0008 0A476F74 		.string	"\nGotova nit 1\n"
 119      6F766120 
 119      6E697420 
 119      310A00
 120              		.text
 121              		.align	2
 122              		.globl	_Z5nit1fPv
 124              	_Z5nit1fPv:
 125              	.LFB48:
  67:src/testFunctions.cpp **** 
  68:src/testFunctions.cpp **** void nit1f(void*) {
 126              		.loc 1 68 19 is_stmt 1
 127              		.cfi_startproc
 128 00c8 130101FE 		addi	sp,sp,-32
 129              		.cfi_def_cfa_offset 32
 130 00cc 233C1100 		sd	ra,24(sp)
 131 00d0 23388100 		sd	s0,16(sp)
 132              		.cfi_offset 1, -8
 133              		.cfi_offset 8, -16
 134 00d4 13040102 		addi	s0,sp,32
 135              		.cfi_def_cfa 8, 0
 136 00d8 2334A4FE 		sd	a0,-24(s0)
  69:src/testFunctions.cpp **** //	for(int i=0;i<3;i++){
  70:src/testFunctions.cpp **** //		printString("\nNit 1 dolazi na semafor\n");
  71:src/testFunctions.cpp **** //		//int res = sem_wait(semA);
  72:src/testFunctions.cpp **** //		int res = (*semA).wait();
  73:src/testFunctions.cpp **** //		if(res){
  74:src/testFunctions.cpp **** //			printString("\nNit 1 cekala na semaforu\n");
  75:src/testFunctions.cpp **** //		}
  76:src/testFunctions.cpp **** //		else{
  77:src/testFunctions.cpp **** //			printString("\nNit 1 nije cekala\n");
  78:src/testFunctions.cpp **** //		}
  79:src/testFunctions.cpp **** //		printString("\nsem_wait za nit 1 vratio ");
  80:src/testFunctions.cpp **** //		printInteger(res);
  81:src/testFunctions.cpp **** //		printString("\n");
  82:src/testFunctions.cpp **** //	}
  83:src/testFunctions.cpp **** 
  84:src/testFunctions.cpp ****     printString("\nGotova nit 1\n");
GAS LISTING /tmp/ccOoRIEU.s 			page 5


 137              		.loc 1 84 5
 138              		.loc 1 84 16 is_stmt 0
 139 00dc 17050000 		lla	a0,.LC1
 139      13050500 
 140 00e4 97000000 		call	_Z11printStringPKc@plt
 140      E7800000 
 141              	.LVL7:
  85:src/testFunctions.cpp **** }
 142              		.loc 1 85 1
 143 00ec 13000000 		nop
 144 00f0 83308101 		ld	ra,24(sp)
 145              		.cfi_restore 1
 146 00f4 03340101 		ld	s0,16(sp)
 147              		.cfi_restore 8
 148              		.cfi_def_cfa 2, 32
 149 00f8 13010102 		addi	sp,sp,32
 150              		.cfi_def_cfa_offset 0
 151 00fc 67800000 		jr	ra
 152              		.cfi_endproc
 153              	.LFE48:
 155              		.section	.rodata
 156 0017 00       		.align	3
 157              	.LC2:
 158 0018 0A476F74 		.string	"\nGotova nit 2\n"
 158      6F766120 
 158      6E697420 
 158      320A00
 159              		.text
 160              		.align	2
 161              		.globl	_Z5nit2fPv
 163              	_Z5nit2fPv:
 164              	.LFB49:
  86:src/testFunctions.cpp **** 
  87:src/testFunctions.cpp **** void nit2f(void* arg2) {
 165              		.loc 1 87 24 is_stmt 1
 166              		.cfi_startproc
 167              	.LVL8:
 168 0100 130101FE 		addi	sp,sp,-32
 169              		.cfi_def_cfa_offset 32
 170 0104 233C1100 		sd	ra,24(sp)
 171 0108 23388100 		sd	s0,16(sp)
 172              		.cfi_offset 1, -8
 173              		.cfi_offset 8, -16
 174 010c 13040102 		addi	s0,sp,32
 175              		.cfi_def_cfa 8, 0
 176 0110 2334A4FE 		sd	a0,-24(s0)
  88:src/testFunctions.cpp **** //	for(int i=0;i<3;i++){
  89:src/testFunctions.cpp **** //		printString("\nNit 2 daje signal\n");
  90:src/testFunctions.cpp **** //		//sem_signal(semA);
  91:src/testFunctions.cpp **** //		int res = (*semA).signal();
  92:src/testFunctions.cpp **** //		printString("\nPovratna vrednost signala je ");
  93:src/testFunctions.cpp **** //		printInteger(res);
  94:src/testFunctions.cpp **** //		printString("\n");
  95:src/testFunctions.cpp **** //		//sem_close(semA);
  96:src/testFunctions.cpp **** //		printString("\nNit 2 ubija semafor\n");
  97:src/testFunctions.cpp **** //		delete semA;
  98:src/testFunctions.cpp **** //
GAS LISTING /tmp/ccOoRIEU.s 			page 6


  99:src/testFunctions.cpp **** //	}
 100:src/testFunctions.cpp ****     printString("\nGotova nit 2\n");
 177              		.loc 1 100 5
 178              		.loc 1 100 16 is_stmt 0
 179 0114 17050000 		lla	a0,.LC2
 179      13050500 
 180              	.LVL9:
 181 011c 97000000 		call	_Z11printStringPKc@plt
 181      E7800000 
 182              	.LVL10:
 101:src/testFunctions.cpp **** }
 183              		.loc 1 101 1
 184 0124 13000000 		nop
 185 0128 83308101 		ld	ra,24(sp)
 186              		.cfi_restore 1
 187 012c 03340101 		ld	s0,16(sp)
 188              		.cfi_restore 8
 189              		.cfi_def_cfa 2, 32
 190              	.LVL11:
 191 0130 13010102 		addi	sp,sp,32
 192              		.cfi_def_cfa_offset 0
 193              	.LVL12:
 194 0134 67800000 		jr	ra
 195              		.cfi_endproc
 196              	.LFE49:
 198              		.section	.rodata
 199 0027 00       		.align	3
 200              	.LC3:
 201 0028 0A476F74 		.string	"\nGotova nit3\n"
 201      6F766120 
 201      6E697433 
 201      0A00
 202              		.text
 203              		.align	2
 204              		.globl	_Z5nit3fPv
 206              	_Z5nit3fPv:
 207              	.LFB50:
 102:src/testFunctions.cpp **** 
 103:src/testFunctions.cpp **** 
 104:src/testFunctions.cpp **** void nit3f(void*) {
 208              		.loc 1 104 19 is_stmt 1
 209              		.cfi_startproc
 210 0138 130101FD 		addi	sp,sp,-48
 211              		.cfi_def_cfa_offset 48
 212 013c 23341102 		sd	ra,40(sp)
 213 0140 23308102 		sd	s0,32(sp)
 214              		.cfi_offset 1, -8
 215              		.cfi_offset 8, -16
 216 0144 13040103 		addi	s0,sp,48
 217              		.cfi_def_cfa 8, 0
 218 0148 233CA4FC 		sd	a0,-40(s0)
 219              	.L10:
 105:src/testFunctions.cpp ****     char slovo;
 220              		.loc 1 105 5
 106:src/testFunctions.cpp ****     do {
 221              		.loc 1 106 5
 107:src/testFunctions.cpp ****         slovo = getc();
GAS LISTING /tmp/ccOoRIEU.s 			page 7


 222              		.loc 1 107 9
 223              		.loc 1 107 21 is_stmt 0
 224 014c 97000000 		call	_Z4getcv@plt
 224      E7800000 
 225              	.LVL13:
 226 0154 93070500 		mv	a5,a0
 227 0158 A307F4FE 		sb	a5,-17(s0)
 228              	.LVL14:
 108:src/testFunctions.cpp ****         putc(slovo);
 229              		.loc 1 108 9 is_stmt 1
 230              		.loc 1 108 13 is_stmt 0
 231 015c 8347F4FE 		lbu	a5,-17(s0)
 232              	.LVL15:
 233 0160 13850700 		mv	a0,a5
 234 0164 97000000 		call	_Z4putcc@plt
 234      E7800000 
 235              	.LVL16:
 109:src/testFunctions.cpp ****         if (slovo == '\r') putc('\n');
 236              		.loc 1 109 9 is_stmt 1
 237 016c 8347F4FE 		lbu	a5,-17(s0)
 238 0170 13F7F70F 		andi	a4,a5,0xff
 239 0174 9307D000 		li	a5,13
 240 0178 6318F700 		bne	a4,a5,.L8
 241              		.loc 1 109 28 discriminator 1
 242              		.loc 1 109 32 is_stmt 0 discriminator 1
 243 017c 1305A000 		li	a0,10
 244 0180 97000000 		call	_Z4putcc@plt
 244      E7800000 
 245              	.LVL17:
 246              	.L8:
 110:src/testFunctions.cpp ****     } while (slovo != '0');
 247              		.loc 1 110 20 is_stmt 1
 248 0188 8347F4FE 		lbu	a5,-17(s0)
 249 018c 13F7F70F 		andi	a4,a5,0xff
 250 0190 93070003 		li	a5,48
 251 0194 6304F700 		beq	a4,a5,.L9
 106:src/testFunctions.cpp ****         slovo = getc();
 252              		.loc 1 106 5 is_stmt 0
 253 0198 6FF05FFB 		j	.L10
 254              	.L9:
 111:src/testFunctions.cpp **** 
 112:src/testFunctions.cpp ****     printString("\nGotova nit3\n");
 255              		.loc 1 112 5 is_stmt 1
 256              		.loc 1 112 16 is_stmt 0
 257 019c 17050000 		lla	a0,.LC3
 257      13050500 
 258 01a4 97000000 		call	_Z11printStringPKc@plt
 258      E7800000 
 259              	.LVL18:
 113:src/testFunctions.cpp **** }
 260              		.loc 1 113 1
 261 01ac 13000000 		nop
 262 01b0 83308102 		ld	ra,40(sp)
 263              		.cfi_restore 1
 264 01b4 03340102 		ld	s0,32(sp)
 265              		.cfi_restore 8
 266              		.cfi_def_cfa 2, 48
GAS LISTING /tmp/ccOoRIEU.s 			page 8


 267              	.LVL19:
 268 01b8 13010103 		addi	sp,sp,48
 269              		.cfi_def_cfa_offset 0
 270              	.LVL20:
 271 01bc 67800000 		jr	ra
 272              		.cfi_endproc
 273              	.LFE50:
 275              		.align	2
 276              		.globl	_Z8testMainv
 278              	_Z8testMainv:
 279              	.LFB51:
 114:src/testFunctions.cpp **** 
 115:src/testFunctions.cpp **** int testMain() {
 280              		.loc 1 115 16 is_stmt 1
 281              		.cfi_startproc
 282 01c0 130101FF 		addi	sp,sp,-16
 283              		.cfi_def_cfa_offset 16
 284 01c4 23341100 		sd	ra,8(sp)
 285 01c8 23308100 		sd	s0,0(sp)
 286              		.cfi_offset 1, -8
 287              		.cfi_offset 8, -16
 288 01cc 13040101 		addi	s0,sp,16
 289              		.cfi_def_cfa 8, 0
 116:src/testFunctions.cpp **** //postavi adresu prekidne rutine u stvec
 117:src/testFunctions.cpp ****     __asm__ volatile("csrw stvec, %[handler]": :[handler] "r"(&interruptHandler));
 290              		.loc 1 117 5
 291              		.loc 1 117 82 is_stmt 0
 292 01d0 97070000 		la	a5,interruptHandler
 292      83B70700 
 293              	#APP
 294              	# 117 "src/testFunctions.cpp" 1
 118              	
 119:src/testFunctions.cpp ****     //inicijalizacija alokatora memorije
 120:src/testFunctions.cpp ****     MemoryAllocator::initMemoryAllocator();
 295              		csrw stvec, a5
 296              	# 0 "" 2
 297              		.loc 1 120 5 is_stmt 1
 298              		.loc 1 120 41 is_stmt 0
 299              	#NO_APP
 300 01dc 97000000 		call	_ZN15MemoryAllocator19initMemoryAllocatorEv@plt
 300      E7800000 
 301              	.LVL21:
 121:src/testFunctions.cpp **** 
 122:src/testFunctions.cpp ****     //inicijalizacija komunikacije sa konzolom
 123:src/testFunctions.cpp ****     KConsole::initKConsole();
 302              		.loc 1 123 5 is_stmt 1
 303              		.loc 1 123 27 is_stmt 0
 304 01e4 97000000 		call	_ZN8KConsole12initKConsoleEv@plt
 304      E7800000 
 305              	.LVL22:
 124:src/testFunctions.cpp ****     // testMemory();
 125:src/testFunctions.cpp **** 
 126:src/testFunctions.cpp **** 
 127:src/testFunctions.cpp **** 
 128:src/testFunctions.cpp ****     //testiranje alociranja memorije
 129:src/testFunctions.cpp ****     //testMemory();
 130:src/testFunctions.cpp **** //	uint64* ptr = new uint64;
GAS LISTING /tmp/ccOoRIEU.s 			page 9


 131:src/testFunctions.cpp **** //	*ptr = 6;
 132:src/testFunctions.cpp **** //	printInteger(*ptr);
 133:src/testFunctions.cpp **** 
 134:src/testFunctions.cpp ****     //testiranje liste
 135:src/testFunctions.cpp **** //	List<uint64>* lista = new List<uint64>();
 136:src/testFunctions.cpp **** //	uint64 num = 10;
 137:src/testFunctions.cpp **** //	lista->addFirst(&num);
 138:src/testFunctions.cpp **** //	println("");
 139:src/testFunctions.cpp **** //	printInteger(*(lista->peekFirst()));
 140:src/testFunctions.cpp **** //	delete lista;
 141:src/testFunctions.cpp **** //	println("");
 142:src/testFunctions.cpp **** 
 143:src/testFunctions.cpp ****     //testiranje kreiranja niti
 144:src/testFunctions.cpp **** //	thread_t glavnaNit = nullptr;
 145:src/testFunctions.cpp **** //	thread_t nit1 = nullptr;
 146:src/testFunctions.cpp **** //	thread_t nit2 = nullptr;
 147:src/testFunctions.cpp **** //	thread_t nit3 = nullptr;
 148:src/testFunctions.cpp **** //	thread_t idleNit = nullptr;
 149:src/testFunctions.cpp **** //	thread_t kernelConsumerThread = nullptr;
 150:src/testFunctions.cpp **** //	thread_create(&glavnaNit, nullptr, nullptr);
 151:src/testFunctions.cpp **** //	TCB::running = glavnaNit;
 152:src/testFunctions.cpp **** //	thread_create(&idleNit, idle, nullptr);
 153:src/testFunctions.cpp **** //	thread_create(&kernelConsumerThread, kernelConsumerFunction, nullptr);
 154:src/testFunctions.cpp **** //
 155:src/testFunctions.cpp **** //
 156:src/testFunctions.cpp **** //	thread_create(&nit1, nit1f, nullptr);
 157:src/testFunctions.cpp **** //	thread_create(&nit2, nit2f, nullptr);
 158:src/testFunctions.cpp **** //	thread_create(&nit3, nit3f, nullptr);
 159:src/testFunctions.cpp **** //
 160:src/testFunctions.cpp **** //	//omoguci prekide
 161:src/testFunctions.cpp **** //	Riscv::ms_sstatus(Riscv::SSTATUS_SIE);
 162:src/testFunctions.cpp **** //
 163:src/testFunctions.cpp **** //	thread_join(nit1);
 164:src/testFunctions.cpp **** //	thread_join(nit2);
 165:src/testFunctions.cpp **** //	thread_join(nit3);
 166:src/testFunctions.cpp **** //	//thread_join(idleNit);
 167:src/testFunctions.cpp **** //
 168:src/testFunctions.cpp **** //	printString("\nGotove user niti\n");
 169:src/testFunctions.cpp **** //
 170:src/testFunctions.cpp **** //	printString("\nSad cu da izadjem\n");
 171:src/testFunctions.cpp **** //	while(KConsole::outputHead!=KConsole::outputTail){}
 172:src/testFunctions.cpp **** //	//zabrani prekide
 173:src/testFunctions.cpp ****     Riscv::mc_sstatus(Riscv::SSTATUS_SIE);
 306              		.loc 1 173 5 is_stmt 1
 307              		.loc 1 173 22 is_stmt 0
 308 01ec 13052000 		li	a0,2
 309 01f0 97000000 		call	_ZN5Riscv10mc_sstatusEm
 309      E7800000 
 310              	.LVL23:
 174:src/testFunctions.cpp **** 
 175:src/testFunctions.cpp **** 
 176:src/testFunctions.cpp ****     return 0;
 311              		.loc 1 176 5 is_stmt 1
 312              		.loc 1 176 12 is_stmt 0
 313 01f8 93070000 		li	a5,0
 177:src/testFunctions.cpp **** }...
 314              		.loc 1 177 1
GAS LISTING /tmp/ccOoRIEU.s 			page 10


 315 01fc 13850700 		mv	a0,a5
 316 0200 83308100 		ld	ra,8(sp)
 317              		.cfi_restore 1
 318 0204 03340100 		ld	s0,0(sp)
 319              		.cfi_restore 8
 320              		.cfi_def_cfa 2, 16
 321 0208 13010101 		addi	sp,sp,16
 322              		.cfi_def_cfa_offset 0
 323 020c 67800000 		jr	ra
 324              		.cfi_endproc
 325              	.LFE51:
 327              		.section	.text._ZN5Riscv10mc_sstatusEm,"axG",@progbits,_ZN5Riscv10mc_sstatusEm,comdat
 328              		.align	2
 329              		.weak	_ZN5Riscv10mc_sstatusEm
 331              	_ZN5Riscv10mc_sstatusEm:
 332              	.LFB14:
 333              		.file 2 "src/../h/Riscv.hpp"
   1:src/../h/Riscv.hpp **** //
   2:src/../h/Riscv.hpp **** // Created by os on 5/17/23.
   3:src/../h/Riscv.hpp **** //
   4:src/../h/Riscv.hpp **** 
   5:src/../h/Riscv.hpp **** #ifndef PROJEKAT2023_RISCV_HPP
   6:src/../h/Riscv.hpp **** #define PROJEKAT2023_RISCV_HPP
   7:src/../h/Riscv.hpp **** 
   8:src/../h/Riscv.hpp **** #include "../lib/hw.h"
   9:src/../h/Riscv.hpp **** 
  10:src/../h/Riscv.hpp **** class Riscv {
  11:src/../h/Riscv.hpp **** public:
  12:src/../h/Riscv.hpp **** 
  13:src/../h/Riscv.hpp **** 	static void popSppSpie();
  14:src/../h/Riscv.hpp **** 
  15:src/../h/Riscv.hpp **** 	//stavljanje registara x3-x31 na stek
  16:src/../h/Riscv.hpp **** 	static void pushRegisters();    //implementacija u asm
  17:src/../h/Riscv.hpp **** 
  18:src/../h/Riscv.hpp **** 	//skidanje registara x3-x31 sa steka
  19:src/../h/Riscv.hpp **** 	static void popRegisters();     //implementacija u asm
  20:src/../h/Riscv.hpp **** 
  21:src/../h/Riscv.hpp **** 	//read scause
  22:src/../h/Riscv.hpp **** 	static uint64 r_scause();
  23:src/../h/Riscv.hpp **** 
  24:src/../h/Riscv.hpp **** 	//write scause
  25:src/../h/Riscv.hpp **** 	static void w_scause(uint64 scause);
  26:src/../h/Riscv.hpp **** 
  27:src/../h/Riscv.hpp **** 	//read sepc
  28:src/../h/Riscv.hpp **** 	static uint64 r_sepc();
  29:src/../h/Riscv.hpp **** 
  30:src/../h/Riscv.hpp **** 	//write sepc
  31:src/../h/Riscv.hpp **** 	static void w_sepc(uint64 sepc);
  32:src/../h/Riscv.hpp **** 
  33:src/../h/Riscv.hpp **** 	//read stvec
  34:src/../h/Riscv.hpp **** 	static uint64 r_stvec();
  35:src/../h/Riscv.hpp **** 
  36:src/../h/Riscv.hpp **** 	//write stvec
  37:src/../h/Riscv.hpp **** 	static void w_stvec(uint64 stvec);
  38:src/../h/Riscv.hpp **** 
  39:src/../h/Riscv.hpp **** 	enum BitMaskSip {
  40:src/../h/Riscv.hpp **** 		//postoji zahtev za softverski prekid
GAS LISTING /tmp/ccOoRIEU.s 			page 11


  41:src/../h/Riscv.hpp **** 		SIP_SSIP = (1 << 1),
  42:src/../h/Riscv.hpp **** 		//postoji prekid od tajmera
  43:src/../h/Riscv.hpp **** 		SIP_STIP = (1 << 5),
  44:src/../h/Riscv.hpp **** 		//postoji zahtev za spoljasnji hardverski prekid
  45:src/../h/Riscv.hpp **** 		SIP_SEIP = (1 << 9)
  46:src/../h/Riscv.hpp **** 	};
  47:src/../h/Riscv.hpp **** 
  48:src/../h/Riscv.hpp **** 	//mask set sip
  49:src/../h/Riscv.hpp **** 	static void ms_sip(uint64 mask);
  50:src/../h/Riscv.hpp **** 
  51:src/../h/Riscv.hpp **** 	//mask clear sip
  52:src/../h/Riscv.hpp **** 	static void mc_sip(uint64 mask);
  53:src/../h/Riscv.hpp **** 
  54:src/../h/Riscv.hpp **** 	//read sip
  55:src/../h/Riscv.hpp **** 	static uint64 r_sip();
  56:src/../h/Riscv.hpp **** 
  57:src/../h/Riscv.hpp **** 	//write sip
  58:src/../h/Riscv.hpp **** 	static void w_sip(uint64 sip);
  59:src/../h/Riscv.hpp **** 
  60:src/../h/Riscv.hpp **** 	//kada se pozove sret, SIE dobija vrednost SPIE, SPIE se postavlja na 1,
  61:src/../h/Riscv.hpp **** 	//rezim se postavlja na osnovu SPP bita, SPP se postavlja na 0
  62:src/../h/Riscv.hpp **** 	enum BitMaskSstatus {
  63:src/../h/Riscv.hpp **** 		//1 - dozvoljeni prekidi; 0- nedozvoljeni prekidi; igonrise se u korisnickom rezimu
  64:src/../h/Riscv.hpp **** 		SSTATUS_SIE = (1 << 1),
  65:src/../h/Riscv.hpp **** 		//prethodna vrednost bita SIE
  66:src/../h/Riscv.hpp **** 		SSTATUS_SPIE = (1 << 5),
  67:src/../h/Riscv.hpp **** 		//iz kog rezima se desio skok; 0 - iz korisnickog; 1 - iz sistemskog
  68:src/../h/Riscv.hpp **** 		SSTATUS_SPP = (1 << 8)
  69:src/../h/Riscv.hpp **** 	};
  70:src/../h/Riscv.hpp **** 
  71:src/../h/Riscv.hpp **** 	//mask set sstatus
  72:src/../h/Riscv.hpp **** 	static void ms_sstatus(uint64 mask);
  73:src/../h/Riscv.hpp **** 
  74:src/../h/Riscv.hpp **** 	//mask clear sstatus
  75:src/../h/Riscv.hpp **** 	static void mc_sstatus(uint64 mask);
  76:src/../h/Riscv.hpp **** 
  77:src/../h/Riscv.hpp **** 	//read sstatus
  78:src/../h/Riscv.hpp **** 	static uint64 r_sstatus();
  79:src/../h/Riscv.hpp **** 
  80:src/../h/Riscv.hpp **** 	//write sstatus
  81:src/../h/Riscv.hpp **** 	static void w_sstatus(uint64 sstatus);
  82:src/../h/Riscv.hpp **** 
  83:src/../h/Riscv.hpp **** 	//upisuje kod sistemskog poziva u registar a0
  84:src/../h/Riscv.hpp **** 	static void loadOpCode(uint64 opCode);
  85:src/../h/Riscv.hpp **** 
  86:src/../h/Riscv.hpp **** };
  87:src/../h/Riscv.hpp **** 
  88:src/../h/Riscv.hpp **** inline uint64 Riscv::r_scause() {
  89:src/../h/Riscv.hpp **** 	uint64 volatile scause;
  90:src/../h/Riscv.hpp **** 	__asm__ volatile("csrr %[scause], scause": [scause] "=r"(scause));
  91:src/../h/Riscv.hpp **** 	return scause;
  92:src/../h/Riscv.hpp **** }
  93:src/../h/Riscv.hpp **** 
  94:src/../h/Riscv.hpp **** inline void Riscv::w_scause(uint64 scause) {
  95:src/../h/Riscv.hpp **** 	__asm__ volatile("csrw scause, %[scause]": :[scause] "r"(scause));
  96:src/../h/Riscv.hpp **** }
  97:src/../h/Riscv.hpp **** 
GAS LISTING /tmp/ccOoRIEU.s 			page 12


  98:src/../h/Riscv.hpp **** inline uint64 Riscv::r_sepc() {
  99:src/../h/Riscv.hpp **** 	uint64 volatile sepc;
 100:src/../h/Riscv.hpp **** 	__asm__ volatile("csrr %[sepc], sepc": [sepc] "=r"(sepc));
 101:src/../h/Riscv.hpp **** 	return sepc;
 102:src/../h/Riscv.hpp **** }
 103:src/../h/Riscv.hpp **** 
 104:src/../h/Riscv.hpp **** inline void Riscv::w_sepc(uint64 sepc) {
 105:src/../h/Riscv.hpp **** 	__asm__ volatile("csrw sepc, %[sepc]": :[sepc] "r"(sepc));
 106:src/../h/Riscv.hpp **** }
 107:src/../h/Riscv.hpp **** 
 108:src/../h/Riscv.hpp **** inline uint64 Riscv::r_stvec() {
 109:src/../h/Riscv.hpp **** 	uint64 volatile stvec;
 110:src/../h/Riscv.hpp **** 	__asm__ volatile("csrr %[stvec], stvec": [stvec] "=r"(stvec));
 111:src/../h/Riscv.hpp **** 	return stvec;
 112:src/../h/Riscv.hpp **** }
 113:src/../h/Riscv.hpp **** 
 114:src/../h/Riscv.hpp **** inline void Riscv::w_stvec(uint64 stvec) {
 115:src/../h/Riscv.hpp **** 	__asm__ volatile("csrw stvec, %[stvec]": :[stvec] "r"(stvec));
 116:src/../h/Riscv.hpp **** }
 117:src/../h/Riscv.hpp **** 
 118:src/../h/Riscv.hpp **** inline void Riscv::ms_sip(uint64 mask) {
 119:src/../h/Riscv.hpp **** 	__asm__ volatile("csrs sip, %[mask]": :[mask] "r"(mask));
 120:src/../h/Riscv.hpp **** }
 121:src/../h/Riscv.hpp **** 
 122:src/../h/Riscv.hpp **** inline void Riscv::mc_sip(uint64 mask) {
 123:src/../h/Riscv.hpp **** 	__asm__ volatile("csrc sip, %[mask]": :[mask] "r"(mask));
 124:src/../h/Riscv.hpp **** }
 125:src/../h/Riscv.hpp **** 
 126:src/../h/Riscv.hpp **** inline uint64 Riscv::r_sip() {
 127:src/../h/Riscv.hpp **** 	uint64 volatile sip;
 128:src/../h/Riscv.hpp **** 	__asm__ volatile("csrr %[sip], sip": [sip] "=r"(sip));
 129:src/../h/Riscv.hpp **** 	return sip;
 130:src/../h/Riscv.hpp **** }
 131:src/../h/Riscv.hpp **** 
 132:src/../h/Riscv.hpp **** inline void Riscv::w_sip(uint64 sip) {
 133:src/../h/Riscv.hpp **** 	__asm__ volatile("csrw sip, %[sip]": :[sip] "r"(sip));
 134:src/../h/Riscv.hpp **** }
 135:src/../h/Riscv.hpp **** 
 136:src/../h/Riscv.hpp **** inline void Riscv::ms_sstatus(uint64 mask) {
 137:src/../h/Riscv.hpp **** 	__asm__ volatile("csrs sstatus, %[mask]": :[mask] "r"(mask));
 138:src/../h/Riscv.hpp **** }
 139:src/../h/Riscv.hpp **** 
 140:src/../h/Riscv.hpp **** inline void Riscv::mc_sstatus(uint64 mask) {
 334              		.loc 2 140 44 is_stmt 1
 335              		.cfi_startproc
 336              	.LVL24:
 337 0000 130101FF 		addi	sp,sp,-16
 338              		.cfi_def_cfa_offset 16
 339 0004 23348100 		sd	s0,8(sp)
 340              		.cfi_offset 8, -8
 341 0008 13040101 		addi	s0,sp,16
 342              		.cfi_def_cfa 8, 0
 141:src/../h/Riscv.hpp **** 	__asm__ volatile("csrc sstatus, %[mask]": :[mask] "r"(mask));
 343              		.loc 2 141 2
 344              		.loc 2 141 62 is_stmt 0
 345              	#APP
 346              	# 141 "src/../h/Riscv.hpp" 1
GAS LISTING /tmp/ccOoRIEU.s 			page 13


 142              	}
 347              		csrc sstatus, a0
 348              	# 0 "" 2
 349              		.loc 2 142 1
 350              	#NO_APP
 351 0010 03348100 		ld	s0,8(sp)
 352              		.cfi_restore 8
 353              		.cfi_def_cfa 2, 16
 354 0014 13010101 		addi	sp,sp,16
 355              		.cfi_def_cfa_offset 0
 356 0018 67800000 		jr	ra
 357              		.cfi_endproc
 358              	.LFE14:
 360              		.text
 361              		.align	2
 362              		.globl	_Z5upisim
 364              	_Z5upisim:
 365              	.LFB46:
  33:src/testFunctions.cpp **** char* upisi(size_t alociraj) {
 366              		.loc 1 33 30 is_stmt 1
 367              		.cfi_startproc
 368              	.LVL25:
 369 0210 130101FE 		addi	sp,sp,-32
 370              		.cfi_def_cfa_offset 32
 371 0214 233C1100 		sd	ra,24(sp)
 372 0218 23388100 		sd	s0,16(sp)
 373 021c 23349100 		sd	s1,8(sp)
 374              		.cfi_offset 1, -8
 375              		.cfi_offset 8, -16
 376              		.cfi_offset 9, -24
 377 0220 13040102 		addi	s0,sp,32
 378              		.cfi_def_cfa 8, 0
 379 0224 93040500 		mv	s1,a0
  34:src/testFunctions.cpp ****     char* pok = (char*) MemoryAllocator::kmalloc(alociraj);
 380              		.loc 1 34 5
  34:src/testFunctions.cpp ****     char* pok = (char*) MemoryAllocator::kmalloc(alociraj);
 381              		.loc 1 34 49 is_stmt 0
 382 0228 93053000 		li	a1,3
 383 022c 97000000 		call	_ZN15MemoryAllocator7kmallocEmNS_7PurposeE@plt
 383      E7800000 
 384              	.LVL26:
  35:src/testFunctions.cpp ****     if (pok) {
 385              		.loc 1 35 5 is_stmt 1
 386              	.LBB2:
 387 0234 63020502 		beqz	a0,.L15
 388              	.LBB3:
  36:src/testFunctions.cpp ****         for (uint64 i = 0; i < alociraj - sizeof(MemoryAllocator::UsedMemSegment); i++) {
 389              		.loc 1 36 21 is_stmt 0
 390 0238 93070000 		li	a5,0
 391 023c 6F004001 		j	.L17
 392              	.LVL27:
 393              	.L19:
  37:src/testFunctions.cpp ****             pok[i] = '8';
 394              		.loc 1 37 13 is_stmt 1 discriminator 2
  37:src/testFunctions.cpp ****             pok[i] = '8';
 395              		.loc 1 37 18 is_stmt 0 discriminator 2
 396 0240 3307F500 		add	a4,a0,a5
GAS LISTING /tmp/ccOoRIEU.s 			page 14


  37:src/testFunctions.cpp ****             pok[i] = '8';
 397              		.loc 1 37 20 discriminator 2
 398 0244 93068003 		li	a3,56
 399 0248 2300D700 		sb	a3,0(a4)
  36:src/testFunctions.cpp ****         for (uint64 i = 0; i < alociraj - sizeof(MemoryAllocator::UsedMemSegment); i++) {
 400              		.loc 1 36 9 is_stmt 1 discriminator 2
 401 024c 93871700 		addi	a5,a5,1
 402              	.LVL28:
 403              	.L17:
  36:src/testFunctions.cpp ****         for (uint64 i = 0; i < alociraj - sizeof(MemoryAllocator::UsedMemSegment); i++) {
 404              		.loc 1 36 30 discriminator 3
  36:src/testFunctions.cpp ****         for (uint64 i = 0; i < alociraj - sizeof(MemoryAllocator::UsedMemSegment); i++) {
 405              		.loc 1 36 41 is_stmt 0 discriminator 3
 406 0250 138704FE 		addi	a4,s1,-32
  36:src/testFunctions.cpp ****         for (uint64 i = 0; i < alociraj - sizeof(MemoryAllocator::UsedMemSegment); i++) {
 407              		.loc 1 36 30 discriminator 3
 408 0254 E3E6E7FE 		bgtu	a4,a5,.L19
 409              	.LVL29:
 410              	.L15:
 411              	.LBE3:
 412              	.LBE2:
  42:src/testFunctions.cpp **** }
 413              		.loc 1 42 1
 414 0258 83308101 		ld	ra,24(sp)
 415              		.cfi_restore 1
 416 025c 03340101 		ld	s0,16(sp)
 417              		.cfi_restore 8
 418              		.cfi_def_cfa 2, 32
 419 0260 83348100 		ld	s1,8(sp)
 420              		.cfi_restore 9
 421              	.LVL30:
 422 0264 13010102 		addi	sp,sp,32
 423              		.cfi_def_cfa_offset 0
 424 0268 67800000 		jr	ra
 425              		.cfi_endproc
 426              	.LFE46:
 428              	.Letext0:
 429              		.file 3 "src/../h/../lib/hw.h"
 430              		.file 4 "src/../h/MemoryAllocator.hpp"
 431              		.file 5 "src/../h/syscall_c.hpp"
 432              		.file 6 "src/../h/KConsole.hpp"
 433              		.file 7 "src/../test/printing.hpp"
GAS LISTING /tmp/ccOoRIEU.s 			page 15


DEFINED SYMBOLS
                            *ABS*:0000000000000000 testFunctions.cpp
     /tmp/ccOoRIEU.s:14     .text:0000000000000000 _Z10testMemoryv
     /tmp/ccOoRIEU.s:18     .text:0000000000000000 .L0 
     /tmp/ccOoRIEU.s:19     .text:0000000000000000 .L0 
     /tmp/ccOoRIEU.s:20     .text:0000000000000004 .L0 
     /tmp/ccOoRIEU.s:23     .text:000000000000000c .L0 
     /tmp/ccOoRIEU.s:24     .text:000000000000000c .L0 
     /tmp/ccOoRIEU.s:26     .text:0000000000000010 .L0 
     /tmp/ccOoRIEU.s:28     .text:0000000000000010 .L0 
     /tmp/ccOoRIEU.s:29     .text:0000000000000010 .L0 
     /tmp/ccOoRIEU.s:30     .text:0000000000000010 .L0 
     /tmp/ccOoRIEU.s:32     .text:0000000000000014 .L0 
     /tmp/ccOoRIEU.s:33     .text:0000000000000014 .L0 
     /tmp/ccOoRIEU.s:364    .text:0000000000000210 _Z5upisim
     /tmp/ccOoRIEU.s:38     .text:0000000000000024 .L0 
     /tmp/ccOoRIEU.s:40     .text:0000000000000028 .L0 
     /tmp/ccOoRIEU.s:41     .text:0000000000000028 .L0 
     /tmp/ccOoRIEU.s:43     .text:000000000000002c .L0 
     /tmp/ccOoRIEU.s:45     .text:0000000000000030 .L0 
     /tmp/ccOoRIEU.s:46     .text:0000000000000030 .L0 
     /tmp/ccOoRIEU.s:48     .text:0000000000000034 .L0 
     /tmp/ccOoRIEU.s:50     .text:0000000000000038 .L0 
     /tmp/ccOoRIEU.s:54     .text:0000000000000044 .L0 
     /tmp/ccOoRIEU.s:55     .text:0000000000000044 .L0 
     /tmp/ccOoRIEU.s:60     .text:0000000000000054 .L0 
     /tmp/ccOoRIEU.s:61     .text:0000000000000054 .L0 
     /tmp/ccOoRIEU.s:63     .text:0000000000000058 .L0 
     /tmp/ccOoRIEU.s:68     .text:0000000000000064 .L0 
     /tmp/ccOoRIEU.s:69     .text:0000000000000064 .L0 
     /tmp/ccOoRIEU.s:74     .text:0000000000000074 .L0 
     /tmp/ccOoRIEU.s:76     .text:0000000000000078 .L0 
     /tmp/ccOoRIEU.s:77     .text:0000000000000078 .L0 
     /tmp/ccOoRIEU.s:79     .text:000000000000007c .L0 
     /tmp/ccOoRIEU.s:81     .text:0000000000000080 .L0 
     /tmp/ccOoRIEU.s:82     .text:0000000000000080 .L0 
     /tmp/ccOoRIEU.s:84     .text:0000000000000084 .L0 
     /tmp/ccOoRIEU.s:89     .text:0000000000000090 .L0 
     /tmp/ccOoRIEU.s:90     .text:0000000000000090 .L0 
     /tmp/ccOoRIEU.s:95     .text:00000000000000a0 .L0 
     /tmp/ccOoRIEU.s:97     .text:00000000000000a4 .L0 
     /tmp/ccOoRIEU.s:98     .text:00000000000000a4 .L0 
     /tmp/ccOoRIEU.s:100    .text:00000000000000a8 .L0 
     /tmp/ccOoRIEU.s:104    .text:00000000000000b4 .L0 
     /tmp/ccOoRIEU.s:106    .text:00000000000000bc .L0 
     /tmp/ccOoRIEU.s:108    .text:00000000000000c0 .L0 
     /tmp/ccOoRIEU.s:109    .text:00000000000000c0 .L0 
     /tmp/ccOoRIEU.s:111    .text:00000000000000c4 .L0 
     /tmp/ccOoRIEU.s:113    .text:00000000000000c8 .L0 
     /tmp/ccOoRIEU.s:124    .text:00000000000000c8 _Z5nit1fPv
     /tmp/ccOoRIEU.s:127    .text:00000000000000c8 .L0 
     /tmp/ccOoRIEU.s:128    .text:00000000000000c8 .L0 
     /tmp/ccOoRIEU.s:129    .text:00000000000000cc .L0 
     /tmp/ccOoRIEU.s:132    .text:00000000000000d4 .L0 
     /tmp/ccOoRIEU.s:133    .text:00000000000000d4 .L0 
     /tmp/ccOoRIEU.s:135    .text:00000000000000d8 .L0 
     /tmp/ccOoRIEU.s:138    .text:00000000000000dc .L0 
GAS LISTING /tmp/ccOoRIEU.s 			page 16


     /tmp/ccOoRIEU.s:139    .text:00000000000000dc .L0 
     /tmp/ccOoRIEU.s:143    .text:00000000000000ec .L0 
     /tmp/ccOoRIEU.s:145    .text:00000000000000f4 .L0 
     /tmp/ccOoRIEU.s:147    .text:00000000000000f8 .L0 
     /tmp/ccOoRIEU.s:148    .text:00000000000000f8 .L0 
     /tmp/ccOoRIEU.s:150    .text:00000000000000fc .L0 
     /tmp/ccOoRIEU.s:152    .text:0000000000000100 .L0 
     /tmp/ccOoRIEU.s:163    .text:0000000000000100 _Z5nit2fPv
     /tmp/ccOoRIEU.s:166    .text:0000000000000100 .L0 
     /tmp/ccOoRIEU.s:168    .text:0000000000000100 .L0 
     /tmp/ccOoRIEU.s:169    .text:0000000000000104 .L0 
     /tmp/ccOoRIEU.s:172    .text:000000000000010c .L0 
     /tmp/ccOoRIEU.s:173    .text:000000000000010c .L0 
     /tmp/ccOoRIEU.s:175    .text:0000000000000110 .L0 
     /tmp/ccOoRIEU.s:178    .text:0000000000000114 .L0 
     /tmp/ccOoRIEU.s:179    .text:0000000000000114 .L0 
     /tmp/ccOoRIEU.s:184    .text:0000000000000124 .L0 
     /tmp/ccOoRIEU.s:186    .text:000000000000012c .L0 
     /tmp/ccOoRIEU.s:188    .text:0000000000000130 .L0 
     /tmp/ccOoRIEU.s:189    .text:0000000000000130 .L0 
     /tmp/ccOoRIEU.s:192    .text:0000000000000134 .L0 
     /tmp/ccOoRIEU.s:195    .text:0000000000000138 .L0 
     /tmp/ccOoRIEU.s:206    .text:0000000000000138 _Z5nit3fPv
     /tmp/ccOoRIEU.s:209    .text:0000000000000138 .L0 
     /tmp/ccOoRIEU.s:210    .text:0000000000000138 .L0 
     /tmp/ccOoRIEU.s:211    .text:000000000000013c .L0 
     /tmp/ccOoRIEU.s:214    .text:0000000000000144 .L0 
     /tmp/ccOoRIEU.s:215    .text:0000000000000144 .L0 
     /tmp/ccOoRIEU.s:217    .text:0000000000000148 .L0 
     /tmp/ccOoRIEU.s:221    .text:000000000000014c .L0 
     /tmp/ccOoRIEU.s:222    .text:000000000000014c .L0 
     /tmp/ccOoRIEU.s:223    .text:000000000000014c .L0 
     /tmp/ccOoRIEU.s:224    .text:000000000000014c .L0 
     /tmp/ccOoRIEU.s:230    .text:000000000000015c .L0 
     /tmp/ccOoRIEU.s:231    .text:000000000000015c .L0 
     /tmp/ccOoRIEU.s:237    .text:000000000000016c .L0 
     /tmp/ccOoRIEU.s:242    .text:000000000000017c .L0 
     /tmp/ccOoRIEU.s:243    .text:000000000000017c .L0 
     /tmp/ccOoRIEU.s:248    .text:0000000000000188 .L0 
     /tmp/ccOoRIEU.s:253    .text:0000000000000198 .L0 
     /tmp/ccOoRIEU.s:256    .text:000000000000019c .L0 
     /tmp/ccOoRIEU.s:257    .text:000000000000019c .L0 
     /tmp/ccOoRIEU.s:261    .text:00000000000001ac .L0 
     /tmp/ccOoRIEU.s:263    .text:00000000000001b4 .L0 
     /tmp/ccOoRIEU.s:265    .text:00000000000001b8 .L0 
     /tmp/ccOoRIEU.s:266    .text:00000000000001b8 .L0 
     /tmp/ccOoRIEU.s:269    .text:00000000000001bc .L0 
     /tmp/ccOoRIEU.s:272    .text:00000000000001c0 .L0 
     /tmp/ccOoRIEU.s:278    .text:00000000000001c0 _Z8testMainv
     /tmp/ccOoRIEU.s:281    .text:00000000000001c0 .L0 
     /tmp/ccOoRIEU.s:282    .text:00000000000001c0 .L0 
     /tmp/ccOoRIEU.s:283    .text:00000000000001c4 .L0 
     /tmp/ccOoRIEU.s:286    .text:00000000000001cc .L0 
     /tmp/ccOoRIEU.s:287    .text:00000000000001cc .L0 
     /tmp/ccOoRIEU.s:289    .text:00000000000001d0 .L0 
     /tmp/ccOoRIEU.s:291    .text:00000000000001d0 .L0 
     /tmp/ccOoRIEU.s:292    .text:00000000000001d0 .L0 
GAS LISTING /tmp/ccOoRIEU.s 			page 17


     /tmp/ccOoRIEU.s:298    .text:00000000000001dc .L0 
     /tmp/ccOoRIEU.s:300    .text:00000000000001dc .L0 
     /tmp/ccOoRIEU.s:303    .text:00000000000001e4 .L0 
     /tmp/ccOoRIEU.s:304    .text:00000000000001e4 .L0 
     /tmp/ccOoRIEU.s:307    .text:00000000000001ec .L0 
     /tmp/ccOoRIEU.s:308    .text:00000000000001ec .L0 
     /tmp/ccOoRIEU.s:331    .text._ZN5Riscv10mc_sstatusEm:0000000000000000 _ZN5Riscv10mc_sstatusEm
     /tmp/ccOoRIEU.s:312    .text:00000000000001f8 .L0 
     /tmp/ccOoRIEU.s:313    .text:00000000000001f8 .L0 
     /tmp/ccOoRIEU.s:315    .text:00000000000001fc .L0 
     /tmp/ccOoRIEU.s:317    .text:0000000000000204 .L0 
     /tmp/ccOoRIEU.s:319    .text:0000000000000208 .L0 
     /tmp/ccOoRIEU.s:320    .text:0000000000000208 .L0 
     /tmp/ccOoRIEU.s:322    .text:000000000000020c .L0 
     /tmp/ccOoRIEU.s:324    .text:0000000000000210 .L0 
     /tmp/ccOoRIEU.s:335    .text._ZN5Riscv10mc_sstatusEm:0000000000000000 .L0 
     /tmp/ccOoRIEU.s:337    .text._ZN5Riscv10mc_sstatusEm:0000000000000000 .L0 
     /tmp/ccOoRIEU.s:338    .text._ZN5Riscv10mc_sstatusEm:0000000000000004 .L0 
     /tmp/ccOoRIEU.s:340    .text._ZN5Riscv10mc_sstatusEm:0000000000000008 .L0 
     /tmp/ccOoRIEU.s:342    .text._ZN5Riscv10mc_sstatusEm:000000000000000c .L0 
     /tmp/ccOoRIEU.s:344    .text._ZN5Riscv10mc_sstatusEm:000000000000000c .L0 
  src/../h/Riscv.hpp:141    .text._ZN5Riscv10mc_sstatusEm:000000000000000c .L0 
     /tmp/ccOoRIEU.s:351    .text._ZN5Riscv10mc_sstatusEm:0000000000000010 .L0 
     /tmp/ccOoRIEU.s:352    .text._ZN5Riscv10mc_sstatusEm:0000000000000014 .L0 
     /tmp/ccOoRIEU.s:353    .text._ZN5Riscv10mc_sstatusEm:0000000000000014 .L0 
     /tmp/ccOoRIEU.s:355    .text._ZN5Riscv10mc_sstatusEm:0000000000000018 .L0 
     /tmp/ccOoRIEU.s:357    .text._ZN5Riscv10mc_sstatusEm:000000000000001c .L0 
     /tmp/ccOoRIEU.s:367    .text:0000000000000210 .L0 
     /tmp/ccOoRIEU.s:369    .text:0000000000000210 .L0 
     /tmp/ccOoRIEU.s:370    .text:0000000000000214 .L0 
     /tmp/ccOoRIEU.s:374    .text:0000000000000220 .L0 
     /tmp/ccOoRIEU.s:375    .text:0000000000000220 .L0 
     /tmp/ccOoRIEU.s:376    .text:0000000000000220 .L0 
     /tmp/ccOoRIEU.s:378    .text:0000000000000224 .L0 
     /tmp/ccOoRIEU.s:381    .text:0000000000000228 .L0 
     /tmp/ccOoRIEU.s:382    .text:0000000000000228 .L0 
     /tmp/ccOoRIEU.s:387    .text:0000000000000234 .L0 
     /tmp/ccOoRIEU.s:390    .text:0000000000000238 .L0 
     /tmp/ccOoRIEU.s:395    .text:0000000000000240 .L0 
     /tmp/ccOoRIEU.s:396    .text:0000000000000240 .L0 
     /tmp/ccOoRIEU.s:398    .text:0000000000000244 .L0 
     /tmp/ccOoRIEU.s:401    .text:000000000000024c .L0 
     /tmp/ccOoRIEU.s:405    .text:0000000000000250 .L0 
     /tmp/ccOoRIEU.s:406    .text:0000000000000250 .L0 
     /tmp/ccOoRIEU.s:408    .text:0000000000000254 .L0 
     /tmp/ccOoRIEU.s:414    .text:0000000000000258 .L0 
     /tmp/ccOoRIEU.s:415    .text:000000000000025c .L0 
     /tmp/ccOoRIEU.s:417    .text:0000000000000260 .L0 
     /tmp/ccOoRIEU.s:418    .text:0000000000000260 .L0 
     /tmp/ccOoRIEU.s:420    .text:0000000000000264 .L0 
     /tmp/ccOoRIEU.s:423    .text:0000000000000268 .L0 
     /tmp/ccOoRIEU.s:425    .text:000000000000026c .L0 
     /tmp/ccOoRIEU.s:434    .text:000000000000026c .L0 
     /tmp/ccOoRIEU.s:360    .text._ZN5Riscv10mc_sstatusEm:000000000000001c .L0 
     /tmp/ccOoRIEU.s:8      .rodata:0000000000000000 .LC0
     /tmp/ccOoRIEU.s:55     .text:0000000000000044 .L0 
     /tmp/ccOoRIEU.s:118    .rodata:0000000000000008 .LC1
GAS LISTING /tmp/ccOoRIEU.s 			page 18


     /tmp/ccOoRIEU.s:139    .text:00000000000000dc .L0 
     /tmp/ccOoRIEU.s:157    .rodata:0000000000000018 .LC2
     /tmp/ccOoRIEU.s:179    .text:0000000000000114 .L0 
     /tmp/ccOoRIEU.s:200    .rodata:0000000000000028 .LC3
     /tmp/ccOoRIEU.s:257    .text:000000000000019c .L0 
     /tmp/ccOoRIEU.s:292    .text:00000000000001d0 .L0 
     /tmp/ccOoRIEU.s:66     .text:0000000000000064 .L2
     /tmp/ccOoRIEU.s:58     .text:0000000000000054 .L3
     /tmp/ccOoRIEU.s:87     .text:0000000000000090 .L4
     /tmp/ccOoRIEU.s:246    .text:0000000000000188 .L8
     /tmp/ccOoRIEU.s:254    .text:000000000000019c .L9
     /tmp/ccOoRIEU.s:219    .text:000000000000014c .L10
     /tmp/ccOoRIEU.s:410    .text:0000000000000258 .L15
     /tmp/ccOoRIEU.s:403    .text:0000000000000250 .L17
     /tmp/ccOoRIEU.s:393    .text:0000000000000240 .L19
     /tmp/ccOoRIEU.s:1528   .debug_abbrev:0000000000000000 .Ldebug_abbrev0
     /tmp/ccOoRIEU.s:2661   .debug_str:0000000000000639 .LASF138
     /tmp/ccOoRIEU.s:2515   .debug_str:00000000000001f8 .LASF139
     /tmp/ccOoRIEU.s:2631   .debug_str:0000000000000556 .LASF140
     /tmp/ccOoRIEU.s:2431   .debug_ranges:0000000000000000 .Ldebug_ranges0
     /tmp/ccOoRIEU.s:2439   .debug_line:0000000000000000 .Ldebug_line0
     /tmp/ccOoRIEU.s:2525   .debug_str:000000000000023d .LASF0
     /tmp/ccOoRIEU.s:2545   .debug_str:00000000000002bc .LASF1
     /tmp/ccOoRIEU.s:2619   .debug_str:0000000000000501 .LASF2
     /tmp/ccOoRIEU.s:2495   .debug_str:0000000000000176 .LASF3
     /tmp/ccOoRIEU.s:2623   .debug_str:0000000000000527 .LASF4
     /tmp/ccOoRIEU.s:2537   .debug_str:000000000000027f .LASF5
     /tmp/ccOoRIEU.s:2443   .debug_str:0000000000000009 .LASF6
     /tmp/ccOoRIEU.s:2591   .debug_str:0000000000000431 .LASF7
     /tmp/ccOoRIEU.s:2539   .debug_str:0000000000000291 .LASF8
     /tmp/ccOoRIEU.s:2507   .debug_str:00000000000001b8 .LASF9
     /tmp/ccOoRIEU.s:2511   .debug_str:00000000000001dd .LASF10
     /tmp/ccOoRIEU.s:2465   .debug_str:0000000000000097 .LASF11
     /tmp/ccOoRIEU.s:2499   .debug_str:0000000000000188 .LASF12
     /tmp/ccOoRIEU.s:2475   .debug_str:00000000000000ce .LASF13
     /tmp/ccOoRIEU.s:2463   .debug_str:0000000000000087 .LASF14
     /tmp/ccOoRIEU.s:2649   .debug_str:00000000000005fa .LASF15
     /tmp/ccOoRIEU.s:2489   .debug_str:0000000000000136 .LASF16
     /tmp/ccOoRIEU.s:2639   .debug_str:0000000000000590 .LASF17
     /tmp/ccOoRIEU.s:2587   .debug_str:0000000000000403 .LASF40
     /tmp/ccOoRIEU.s:2585   .debug_str:00000000000003fb .LASF42
     /tmp/ccOoRIEU.s:2595   .debug_str:000000000000044a .LASF18
     /tmp/ccOoRIEU.s:2719   .debug_str:000000000000088f .LASF19
     /tmp/ccOoRIEU.s:2609   .debug_str:00000000000004bd .LASF20
     /tmp/ccOoRIEU.s:2681   .debug_str:0000000000000793 .LASF21
     /tmp/ccOoRIEU.s:2555   .debug_str:00000000000002fc .LASF22
     /tmp/ccOoRIEU.s:2599   .debug_str:000000000000045a .LASF26
     /tmp/ccOoRIEU.s:2467   .debug_str:00000000000000a6 .LASF23
     /tmp/ccOoRIEU.s:2451   .debug_str:0000000000000041 .LASF24
     /tmp/ccOoRIEU.s:2543   .debug_str:00000000000002b7 .LASF25
     /tmp/ccOoRIEU.s:2485   .debug_str:0000000000000121 .LASF27
     /tmp/ccOoRIEU.s:2607   .debug_str:00000000000004b5 .LASF28
     /tmp/ccOoRIEU.s:2569   .debug_str:0000000000000365 .LASF29
     /tmp/ccOoRIEU.s:2711   .debug_str:0000000000000843 .LASF30
     /tmp/ccOoRIEU.s:2665   .debug_str:0000000000000711 .LASF32
     /tmp/ccOoRIEU.s:2503   .debug_str:00000000000001a4 .LASF31
     /tmp/ccOoRIEU.s:2583   .debug_str:00000000000003dd .LASF33
GAS LISTING /tmp/ccOoRIEU.s 			page 19


     /tmp/ccOoRIEU.s:2453   .debug_str:0000000000000046 .LASF34
     /tmp/ccOoRIEU.s:2605   .debug_str:0000000000000483 .LASF35
     /tmp/ccOoRIEU.s:2709   .debug_str:000000000000082f .LASF47
     /tmp/ccOoRIEU.s:2565   .debug_str:0000000000000331 .LASF49
     /tmp/ccOoRIEU.s:2449   .debug_str:0000000000000028 .LASF56
     /tmp/ccOoRIEU.s:2611   .debug_str:00000000000004c4 .LASF36
     /tmp/ccOoRIEU.s:2689   .debug_str:00000000000007c1 .LASF37
     /tmp/ccOoRIEU.s:2523   .debug_str:0000000000000231 .LASF38
     /tmp/ccOoRIEU.s:2533   .debug_str:0000000000000267 .LASF84
     /tmp/ccOoRIEU.s:2647   .debug_str:00000000000005c5 .LASF86
     /tmp/ccOoRIEU.s:2557   .debug_str:0000000000000306 .LASF39
     /tmp/ccOoRIEU.s:2705   .debug_str:000000000000081f .LASF41
     /tmp/ccOoRIEU.s:2493   .debug_str:0000000000000167 .LASF43
     /tmp/ccOoRIEU.s:2497   .debug_str:000000000000017c .LASF44
     /tmp/ccOoRIEU.s:2659   .debug_str:000000000000062c .LASF45
     /tmp/ccOoRIEU.s:2479   .debug_str:00000000000000f6 .LASF46
     /tmp/ccOoRIEU.s:2517   .debug_str:000000000000020e .LASF48
     /tmp/ccOoRIEU.s:2575   .debug_str:0000000000000387 .LASF50
     /tmp/ccOoRIEU.s:2629   .debug_str:0000000000000548 .LASF51
     /tmp/ccOoRIEU.s:2491   .debug_str:000000000000014c .LASF52
     /tmp/ccOoRIEU.s:2529   .debug_str:0000000000000254 .LASF53
     /tmp/ccOoRIEU.s:2693   .debug_str:00000000000007d8 .LASF54
     /tmp/ccOoRIEU.s:2549   .debug_str:00000000000002da .LASF58
     /tmp/ccOoRIEU.s:2671   .debug_str:000000000000074d .LASF60
     /tmp/ccOoRIEU.s:2615   .debug_str:00000000000004ed .LASF55
     /tmp/ccOoRIEU.s:2581   .debug_str:00000000000003c8 .LASF57
     /tmp/ccOoRIEU.s:2601   .debug_str:0000000000000469 .LASF59
     /tmp/ccOoRIEU.s:2603   .debug_str:0000000000000470 .LASF61
     /tmp/ccOoRIEU.s:2573   .debug_str:0000000000000380 .LASF62
     /tmp/ccOoRIEU.s:2541   .debug_str:00000000000002a4 .LASF63
     /tmp/ccOoRIEU.s:2567   .debug_str:000000000000035d .LASF64
     /tmp/ccOoRIEU.s:2663   .debug_str:00000000000006fd .LASF65
     /tmp/ccOoRIEU.s:2571   .debug_str:0000000000000378 .LASF66
     /tmp/ccOoRIEU.s:2579   .debug_str:00000000000003b4 .LASF67
     /tmp/ccOoRIEU.s:2645   .debug_str:00000000000005be .LASF68
     /tmp/ccOoRIEU.s:2625   .debug_str:000000000000052e .LASF69
     /tmp/ccOoRIEU.s:2627   .debug_str:0000000000000541 .LASF70
     /tmp/ccOoRIEU.s:2471   .debug_str:00000000000000b6 .LASF71
     /tmp/ccOoRIEU.s:2487   .debug_str:0000000000000130 .LASF72
     /tmp/ccOoRIEU.s:2519   .debug_str:0000000000000219 .LASF73
     /tmp/ccOoRIEU.s:2531   .debug_str:0000000000000261 .LASF74
     /tmp/ccOoRIEU.s:2481   .debug_str:0000000000000102 .LASF75
     /tmp/ccOoRIEU.s:2445   .debug_str:0000000000000010 .LASF76
     /tmp/ccOoRIEU.s:2621   .debug_str:000000000000050f .LASF77
     /tmp/ccOoRIEU.s:2617   .debug_str:00000000000004f6 .LASF78
     /tmp/ccOoRIEU.s:2723   .debug_str:000000000000089f .LASF79
     /tmp/ccOoRIEU.s:2707   .debug_str:0000000000000825 .LASF80
     /tmp/ccOoRIEU.s:2713   .debug_str:000000000000084b .LASF81
     /tmp/ccOoRIEU.s:2701   .debug_str:000000000000080b .LASF82
     /tmp/ccOoRIEU.s:2561   .debug_str:0000000000000310 .LASF83
     /tmp/ccOoRIEU.s:2667   .debug_str:000000000000073c .LASF85
     /tmp/ccOoRIEU.s:2477   .debug_str:00000000000000de .LASF87
     /tmp/ccOoRIEU.s:2459   .debug_str:0000000000000070 .LASF88
     /tmp/ccOoRIEU.s:2641   .debug_str:00000000000005a6 .LASF141
     /tmp/ccOoRIEU.s:2655   .debug_str:000000000000061c .LASF89
     /tmp/ccOoRIEU.s:2553   .debug_str:00000000000002f3 .LASF90
     /tmp/ccOoRIEU.s:2633   .debug_str:0000000000000574 .LASF91
GAS LISTING /tmp/ccOoRIEU.s 			page 20


     /tmp/ccOoRIEU.s:2577   .debug_str:000000000000039f .LASF92
     /tmp/ccOoRIEU.s:2593   .debug_str:0000000000000444 .LASF93
     /tmp/ccOoRIEU.s:2725   .debug_str:00000000000008b7 .LASF94
     /tmp/ccOoRIEU.s:2461   .debug_str:0000000000000076 .LASF95
     /tmp/ccOoRIEU.s:2483   .debug_str:0000000000000114 .LASF96
     /tmp/ccOoRIEU.s:2673   .debug_str:0000000000000762 .LASF97
     /tmp/ccOoRIEU.s:2685   .debug_str:00000000000007a4 .LASF98
     /tmp/ccOoRIEU.s:2717   .debug_str:000000000000086d .LASF99
     /tmp/ccOoRIEU.s:2535   .debug_str:0000000000000271 .LASF100
     /tmp/ccOoRIEU.s:2589   .debug_str:0000000000000413 .LASF101
     /tmp/ccOoRIEU.s:2513   .debug_str:00000000000001eb .LASF102
     /tmp/ccOoRIEU.s:2613   .debug_str:00000000000004d0 .LASF103
     /tmp/ccOoRIEU.s:2455   .debug_str:0000000000000053 .LASF104
     /tmp/ccOoRIEU.s:2509   .debug_str:00000000000001c8 .LASF105
     /tmp/ccOoRIEU.s:2505   .debug_str:00000000000001aa .LASF106
     /tmp/ccOoRIEU.s:2653   .debug_str:000000000000060f .LASF107
     /tmp/ccOoRIEU.s:2441   .debug_str:0000000000000000 .LASF142
     /tmp/ccOoRIEU.s:2683   .debug_str:0000000000000798 .LASF108
     /tmp/ccOoRIEU.s:2447   .debug_str:000000000000001b .LASF109
     /tmp/ccOoRIEU.s:2527   .debug_str:000000000000024a .LASF110
     /tmp/ccOoRIEU.s:2597   .debug_str:0000000000000450 .LASF111
     /tmp/ccOoRIEU.s:2547   .debug_str:00000000000002cf .LASF112
     /tmp/ccOoRIEU.s:2687   .debug_str:00000000000007b6 .LASF113
     /tmp/ccOoRIEU.s:2635   .debug_str:000000000000057a .LASF114
     /tmp/ccOoRIEU.s:2679   .debug_str:000000000000078a .LASF125
     /tmp/ccOoRIEU.s:2501   .debug_str:0000000000000197 .LASF127
     /tmp/ccOoRIEU.s:279    .text:00000000000001c0 .LFB51
     /tmp/ccOoRIEU.s:325    .text:0000000000000210 .LFE51
     /tmp/ccOoRIEU.s:301    .text:00000000000001e4 .LVL21
     /tmp/ccOoRIEU.s:305    .text:00000000000001ec .LVL22
     /tmp/ccOoRIEU.s:310    .text:00000000000001f8 .LVL23
     /tmp/ccOoRIEU.s:2721   .debug_str:0000000000000899 .LASF116
     /tmp/ccOoRIEU.s:2657   .debug_str:0000000000000621 .LASF118
     /tmp/ccOoRIEU.s:207    .text:0000000000000138 .LFB50
     /tmp/ccOoRIEU.s:273    .text:00000000000001c0 .LFE50
     /tmp/ccOoRIEU.s:2669   .debug_str:0000000000000747 .LASF115
     /tmp/ccOoRIEU.s:2347   .debug_loc:0000000000000000 .LLST1
     /tmp/ccOoRIEU.s:225    .text:0000000000000154 .LVL13
     /tmp/ccOoRIEU.s:235    .text:000000000000016c .LVL16
     /tmp/ccOoRIEU.s:245    .text:0000000000000188 .LVL17
     /tmp/ccOoRIEU.s:259    .text:00000000000001ac .LVL18
     /tmp/ccOoRIEU.s:2675   .debug_str:000000000000077f .LASF117
     /tmp/ccOoRIEU.s:2699   .debug_str:0000000000000800 .LASF119
     /tmp/ccOoRIEU.s:164    .text:0000000000000100 .LFB49
     /tmp/ccOoRIEU.s:196    .text:0000000000000138 .LFE49
     /tmp/ccOoRIEU.s:2677   .debug_str:0000000000000785 .LASF129
     /tmp/ccOoRIEU.s:2369   .debug_loc:000000000000005f .LLST0
     /tmp/ccOoRIEU.s:182    .text:0000000000000124 .LVL10
     /tmp/ccOoRIEU.s:2637   .debug_str:000000000000058a .LASF120
     /tmp/ccOoRIEU.s:2691   .debug_str:00000000000007cd .LASF121
     /tmp/ccOoRIEU.s:125    .text:00000000000000c8 .LFB48
     /tmp/ccOoRIEU.s:153    .text:0000000000000100 .LFE48
     /tmp/ccOoRIEU.s:141    .text:00000000000000ec .LVL7
     /tmp/ccOoRIEU.s:2563   .debug_str:0000000000000326 .LASF122
     /tmp/ccOoRIEU.s:2551   .debug_str:00000000000002e3 .LASF123
     /tmp/ccOoRIEU.s:15     .text:0000000000000000 .LFB47
     /tmp/ccOoRIEU.s:114    .text:00000000000000c8 .LFE47
GAS LISTING /tmp/ccOoRIEU.s 			page 21


     /tmp/ccOoRIEU.s:2469   .debug_str:00000000000000ab .LASF124
     /tmp/ccOoRIEU.s:35     .text:0000000000000020 .LVL0
     /tmp/ccOoRIEU.s:57     .text:0000000000000054 .LVL1
     /tmp/ccOoRIEU.s:65     .text:0000000000000064 .LVL2
     /tmp/ccOoRIEU.s:71     .text:0000000000000070 .LVL3
     /tmp/ccOoRIEU.s:86     .text:0000000000000090 .LVL4
     /tmp/ccOoRIEU.s:92     .text:000000000000009c .LVL5
     /tmp/ccOoRIEU.s:102    .text:00000000000000b4 .LVL6
     /tmp/ccOoRIEU.s:2521   .debug_str:000000000000022b .LASF126
     /tmp/ccOoRIEU.s:2703   .debug_str:0000000000000815 .LASF128
     /tmp/ccOoRIEU.s:365    .text:0000000000000210 .LFB46
     /tmp/ccOoRIEU.s:426    .text:000000000000026c .LFE46
     /tmp/ccOoRIEU.s:2457   .debug_str:0000000000000067 .LASF130
     /tmp/ccOoRIEU.s:2391   .debug_loc:00000000000000be .LLST2
     /tmp/ccOoRIEU.s:388    .text:0000000000000238 .LBB3
     /tmp/ccOoRIEU.s:411    .text:0000000000000258 .LBE3
     /tmp/ccOoRIEU.s:2409   .debug_loc:000000000000010a .LLST3
     /tmp/ccOoRIEU.s:384    .text:0000000000000234 .LVL26
     /tmp/ccOoRIEU.s:332    .text._ZN5Riscv10mc_sstatusEm:0000000000000000 .LFB14
     /tmp/ccOoRIEU.s:358    .text._ZN5Riscv10mc_sstatusEm:000000000000001c .LFE14
     /tmp/ccOoRIEU.s:2695   .debug_str:00000000000007f2 .LASF131
     /tmp/ccOoRIEU.s:2697   .debug_str:00000000000007f7 .LASF132
     /tmp/ccOoRIEU.s:2473   .debug_str:00000000000000c9 .LASF134
     /tmp/ccOoRIEU.s:2651   .debug_str:0000000000000606 .LASF133
     /tmp/ccOoRIEU.s:2559   .debug_str:000000000000030b .LASF135
     /tmp/ccOoRIEU.s:2643   .debug_str:00000000000005ab .LASF136
     /tmp/ccOoRIEU.s:2715   .debug_str:0000000000000861 .LASF137
     /tmp/ccOoRIEU.s:228    .text:000000000000015c .LVL14
     /tmp/ccOoRIEU.s:232    .text:0000000000000160 .LVL15
     /tmp/ccOoRIEU.s:267    .text:00000000000001b8 .LVL19
     /tmp/ccOoRIEU.s:270    .text:00000000000001bc .LVL20
     /tmp/ccOoRIEU.s:167    .text:0000000000000100 .LVL8
     /tmp/ccOoRIEU.s:180    .text:000000000000011c .LVL9
     /tmp/ccOoRIEU.s:190    .text:0000000000000130 .LVL11
     /tmp/ccOoRIEU.s:193    .text:0000000000000134 .LVL12
     /tmp/ccOoRIEU.s:368    .text:0000000000000210 .LVL25
     /tmp/ccOoRIEU.s:421    .text:0000000000000264 .LVL30
     /tmp/ccOoRIEU.s:392    .text:0000000000000240 .LVL27
     /tmp/ccOoRIEU.s:409    .text:0000000000000258 .LVL29
     /tmp/ccOoRIEU.s:435    .debug_info:0000000000000000 .Ldebug_info0
     /tmp/ccOoRIEU.s:5      .text:0000000000000000 .Ltext0
     /tmp/ccOoRIEU.s:428    .text:000000000000026c .Letext0

UNDEFINED SYMBOLS
_Z11printStringPKc
_ZN15MemoryAllocator5kfreeEPv
_Z4getcv
_Z4putcc
interruptHandler
_ZN15MemoryAllocator19initMemoryAllocatorEv
_ZN8KConsole12initKConsoleEv
_ZN15MemoryAllocator7kmallocEmNS_7PurposeE
