GAS LISTING /tmp/ccTbpPJS.s 			page 1


   1              		.file	"ThreadQueue.cpp"
   2              		.option pic
   3              		.option norelax
   4              		.text
   5              	.Ltext0:
   6              		.align	2
   7              		.globl	_ZN11ThreadQueue7putLastEP3TCB
   9              	_ZN11ThreadQueue7putLastEP3TCB:
  10              	.LFB14:
  11              		.file 1 "src/ThreadQueue.cpp"
   1:src/ThreadQueue.cpp **** //
   2:src/ThreadQueue.cpp **** // Created by os on 6/4/23.
   3:src/ThreadQueue.cpp **** //
   4:src/ThreadQueue.cpp **** 
   5:src/ThreadQueue.cpp **** #include "../h/ThreadQueue.hpp"
   6:src/ThreadQueue.cpp **** 
   7:src/ThreadQueue.cpp **** void ThreadQueue::putLast(TCB* tcb) {
  12              		.loc 1 7 37
  13              		.cfi_startproc
  14              	.LVL0:
  15 0000 130101FE 		addi	sp,sp,-32
  16              		.cfi_def_cfa_offset 32
  17 0004 233C1100 		sd	ra,24(sp)
  18 0008 23388100 		sd	s0,16(sp)
  19 000c 23349100 		sd	s1,8(sp)
  20 0010 23302101 		sd	s2,0(sp)
  21              		.cfi_offset 1, -8
  22              		.cfi_offset 8, -16
  23              		.cfi_offset 9, -24
  24              		.cfi_offset 18, -32
  25 0014 13040102 		addi	s0,sp,32
  26              		.cfi_def_cfa 8, 0
  27 0018 93040500 		mv	s1,a0
  28 001c 13890500 		mv	s2,a1
   8:src/ThreadQueue.cpp ****     Node* newNode = new Node(tcb);
  29              		.loc 1 8 5
  30              	.LVL1:
  31              	.LBB15:
  32              	.LBB16:
  33              		.file 2 "src/../h/ThreadQueue.hpp"
   1:src/../h/ThreadQueue.hpp **** //
   2:src/../h/ThreadQueue.hpp **** // Created by os on 6/4/23.
   3:src/../h/ThreadQueue.hpp **** //
   4:src/../h/ThreadQueue.hpp **** 
   5:src/../h/ThreadQueue.hpp **** #ifndef PROJEKAT2023_THREADQUEUE_HPP
   6:src/../h/ThreadQueue.hpp **** #define PROJEKAT2023_THREADQUEUE_HPP
   7:src/../h/ThreadQueue.hpp **** 
   8:src/../h/ThreadQueue.hpp **** #include "../h/syscall_c.hpp"
   9:src/../h/ThreadQueue.hpp **** 
  10:src/../h/ThreadQueue.hpp **** class TCB;
  11:src/../h/ThreadQueue.hpp **** 
  12:src/../h/ThreadQueue.hpp **** class ThreadQueue {
  13:src/../h/ThreadQueue.hpp **** private:
  14:src/../h/ThreadQueue.hpp ****     struct Node {
  15:src/../h/ThreadQueue.hpp ****         TCB* data;
  16:src/../h/ThreadQueue.hpp ****         Node* next;
  17:src/../h/ThreadQueue.hpp **** 
GAS LISTING /tmp/ccTbpPJS.s 			page 2


  18:src/../h/ThreadQueue.hpp ****         Node(TCB* d) : data(d), next(nullptr) {}
  19:src/../h/ThreadQueue.hpp **** 
  20:src/../h/ThreadQueue.hpp ****         static void* operator new(size_t size) {
  21:src/../h/ThreadQueue.hpp ****             return mem_alloc(size);
  34              		.loc 2 21 13
  35              		.loc 2 21 29 is_stmt 0
  36 0020 13050001 		li	a0,16
  37              	.LVL2:
  38 0024 97000000 		call	_Z9mem_allocm@plt
  38      E7800000 
  39              	.LVL3:
  40              	.LBE16:
  41              	.LBE15:
  42              	.LBB17:
  43              	.LBB18:
  18:src/../h/ThreadQueue.hpp **** 
  44              		.loc 2 18 45
  45 002c 23302501 		sd	s2,0(a0)
  46 0030 23340500 		sd	zero,8(a0)
  47              	.LVL4:
  48              	.LBE18:
  49              	.LBE17:
   9:src/ThreadQueue.cpp ****     if (isEmpty()) {
  50              		.loc 1 9 5 is_stmt 1
  51              	.LBB19:
  52              	.LBB20:
  22:src/../h/ThreadQueue.hpp ****         }
  23:src/../h/ThreadQueue.hpp **** 
  24:src/../h/ThreadQueue.hpp ****         static void operator delete(void* ptr) {
  25:src/../h/ThreadQueue.hpp ****             mem_free(ptr);
  26:src/../h/ThreadQueue.hpp ****         }
  27:src/../h/ThreadQueue.hpp ****     };
  28:src/../h/ThreadQueue.hpp **** 
  29:src/../h/ThreadQueue.hpp ****     Node* front;
  30:src/../h/ThreadQueue.hpp ****     Node* back;
  31:src/../h/ThreadQueue.hpp **** 
  32:src/../h/ThreadQueue.hpp **** public:
  33:src/../h/ThreadQueue.hpp ****     ThreadQueue() : front(nullptr), back(nullptr) {}
  34:src/../h/ThreadQueue.hpp **** 
  35:src/../h/ThreadQueue.hpp ****     ThreadQueue(const ThreadQueue &) = delete;
  36:src/../h/ThreadQueue.hpp **** 
  37:src/../h/ThreadQueue.hpp ****     ThreadQueue &operator=(const ThreadQueue &) = delete;
  38:src/../h/ThreadQueue.hpp **** 
  39:src/../h/ThreadQueue.hpp ****     ~ThreadQueue() {
  40:src/../h/ThreadQueue.hpp ****         while (!isEmpty()) {
  41:src/../h/ThreadQueue.hpp ****             Node* node = front;
  42:src/../h/ThreadQueue.hpp ****             front = front->next;
  43:src/../h/ThreadQueue.hpp ****             delete node;
  44:src/../h/ThreadQueue.hpp ****         }
  45:src/../h/ThreadQueue.hpp ****     }
  46:src/../h/ThreadQueue.hpp **** 
  47:src/../h/ThreadQueue.hpp ****     bool isEmpty() const {
  48:src/../h/ThreadQueue.hpp ****         return front == nullptr;
  53              		.loc 2 48 9
  54              		.loc 2 48 16 is_stmt 0
  55 0034 83B70400 		ld	a5,0(s1)
  56              	.LVL5:
GAS LISTING /tmp/ccTbpPJS.s 			page 3


  57              	.LBE20:
  58              	.LBE19:
  59              		.loc 1 9 5
  60 0038 63840702 		beqz	a5,.L5
  10:src/ThreadQueue.cpp ****         front = back = newNode;
  11:src/ThreadQueue.cpp ****     } else {
  12:src/ThreadQueue.cpp ****         back->next = newNode;
  61              		.loc 1 12 9 is_stmt 1
  62 003c 83B78400 		ld	a5,8(s1)
  63              		.loc 1 12 20 is_stmt 0
  64 0040 23B4A700 		sd	a0,8(a5)
  13:src/ThreadQueue.cpp ****         back = newNode;
  65              		.loc 1 13 9 is_stmt 1
  66              		.loc 1 13 14 is_stmt 0
  67 0044 23B4A400 		sd	a0,8(s1)
  68              	.L1:
  14:src/ThreadQueue.cpp ****     }
  15:src/ThreadQueue.cpp **** }
  69              		.loc 1 15 1
  70 0048 83308101 		ld	ra,24(sp)
  71              		.cfi_remember_state
  72              		.cfi_restore 1
  73 004c 03340101 		ld	s0,16(sp)
  74              		.cfi_restore 8
  75              		.cfi_def_cfa 2, 32
  76 0050 83348100 		ld	s1,8(sp)
  77              		.cfi_restore 9
  78              	.LVL6:
  79 0054 03390100 		ld	s2,0(sp)
  80              		.cfi_restore 18
  81              	.LVL7:
  82 0058 13010102 		addi	sp,sp,32
  83              		.cfi_def_cfa_offset 0
  84 005c 67800000 		jr	ra
  85              	.LVL8:
  86              	.L5:
  87              		.cfi_restore_state
  10:src/ThreadQueue.cpp ****     } else {
  88              		.loc 1 10 9 is_stmt 1
  10:src/ThreadQueue.cpp ****     } else {
  89              		.loc 1 10 22 is_stmt 0
  90 0060 23B4A400 		sd	a0,8(s1)
  10:src/ThreadQueue.cpp ****     } else {
  91              		.loc 1 10 15
  92 0064 23B0A400 		sd	a0,0(s1)
  93 0068 6FF01FFE 		j	.L1
  94              		.cfi_endproc
  95              	.LFE14:
  97              		.align	2
  98              		.globl	_ZN11ThreadQueue8getFirstEv
 100              	_ZN11ThreadQueue8getFirstEv:
 101              	.LFB15:
  16:src/ThreadQueue.cpp **** 
  17:src/ThreadQueue.cpp **** TCB* ThreadQueue::getFirst() {
 102              		.loc 1 17 30 is_stmt 1
 103              		.cfi_startproc
 104              	.LVL9:
GAS LISTING /tmp/ccTbpPJS.s 			page 4


 105 006c 130101FE 		addi	sp,sp,-32
 106              		.cfi_def_cfa_offset 32
 107 0070 233C1100 		sd	ra,24(sp)
 108 0074 23388100 		sd	s0,16(sp)
 109 0078 23349100 		sd	s1,8(sp)
 110              		.cfi_offset 1, -8
 111              		.cfi_offset 8, -16
 112              		.cfi_offset 9, -24
 113 007c 13040102 		addi	s0,sp,32
 114              		.cfi_def_cfa 8, 0
 115 0080 93070500 		mv	a5,a0
  18:src/ThreadQueue.cpp ****     if (isEmpty()) {
 116              		.loc 1 18 5
 117              	.LVL10:
 118              	.LBB21:
 119              	.LBB22:
 120              		.loc 2 48 9
 121              		.loc 2 48 16 is_stmt 0
 122 0084 03350500 		ld	a0,0(a0)
 123              	.LVL11:
 124              	.LBE22:
 125              	.LBE21:
 126              		.loc 1 18 5
 127 0088 630E0502 		beqz	a0,.L9
  19:src/ThreadQueue.cpp ****         return nullptr;
  20:src/ThreadQueue.cpp ****     }
  21:src/ThreadQueue.cpp ****     Node* node = front;
 128              		.loc 1 21 5 is_stmt 1
 129              	.LVL12:
  22:src/ThreadQueue.cpp ****     TCB* tcb = node->data;
 130              		.loc 1 22 5
 131              		.loc 1 22 10 is_stmt 0
 132 008c 83340500 		ld	s1,0(a0)
 133              	.LVL13:
  23:src/ThreadQueue.cpp ****     front = front->next;
 134              		.loc 1 23 5 is_stmt 1
 135              		.loc 1 23 20 is_stmt 0
 136 0090 03378500 		ld	a4,8(a0)
 137              		.loc 1 23 11
 138 0094 23B0E700 		sd	a4,0(a5)
  24:src/ThreadQueue.cpp ****     if (front == nullptr) {
 139              		.loc 1 24 5 is_stmt 1
 140 0098 63020702 		beqz	a4,.L11
 141              	.L8:
  25:src/ThreadQueue.cpp ****         back = nullptr;
  26:src/ThreadQueue.cpp ****     }
  27:src/ThreadQueue.cpp ****     delete node;
 142              		.loc 1 27 5
 143              	.LVL14:
 144              	.LBB23:
 145              	.LBB24:
  25:src/../h/ThreadQueue.hpp ****         }
 146              		.loc 2 25 13
  25:src/../h/ThreadQueue.hpp ****         }
 147              		.loc 2 25 21 is_stmt 0
 148 009c 97000000 		call	_Z8mem_freePv@plt
 148      E7800000 
GAS LISTING /tmp/ccTbpPJS.s 			page 5


 149              	.LVL15:
 150              	.LBE24:
 151              	.LBE23:
  28:src/ThreadQueue.cpp ****     return tcb;
 152              		.loc 1 28 5 is_stmt 1
 153              	.L6:
  29:src/ThreadQueue.cpp **** }
 154              		.loc 1 29 1 is_stmt 0
 155 00a4 13850400 		mv	a0,s1
 156 00a8 83308101 		ld	ra,24(sp)
 157              		.cfi_remember_state
 158              		.cfi_restore 1
 159 00ac 03340101 		ld	s0,16(sp)
 160              		.cfi_restore 8
 161              		.cfi_def_cfa 2, 32
 162 00b0 83348100 		ld	s1,8(sp)
 163              		.cfi_restore 9
 164 00b4 13010102 		addi	sp,sp,32
 165              		.cfi_def_cfa_offset 0
 166 00b8 67800000 		jr	ra
 167              	.LVL16:
 168              	.L11:
 169              		.cfi_restore_state
  25:src/ThreadQueue.cpp ****     }
 170              		.loc 1 25 9 is_stmt 1
  25:src/ThreadQueue.cpp ****     }
 171              		.loc 1 25 14 is_stmt 0
 172 00bc 23B40700 		sd	zero,8(a5)
 173 00c0 6FF0DFFD 		j	.L8
 174              	.LVL17:
 175              	.L9:
  19:src/ThreadQueue.cpp ****     }
 176              		.loc 1 19 16
 177 00c4 93040500 		mv	s1,a0
 178 00c8 6FF0DFFD 		j	.L6
 179              		.cfi_endproc
 180              	.LFE15:
 182              		.align	2
 183              		.globl	_ZN11ThreadQueue6removeEP3TCB
 185              	_ZN11ThreadQueue6removeEP3TCB:
 186              	.LFB16:
  30:src/ThreadQueue.cpp **** 
  31:src/ThreadQueue.cpp **** int ThreadQueue::remove(TCB* tcb) {
 187              		.loc 1 31 35 is_stmt 1
 188              		.cfi_startproc
 189              	.LVL18:
 190 00cc 93060500 		mv	a3,a0
  32:src/ThreadQueue.cpp ****     if (front == nullptr) return -1;
 191              		.loc 1 32 5
 192              		.loc 1 32 9 is_stmt 0
 193 00d0 03350500 		ld	a0,0(a0)
 194              	.LVL19:
 195              		.loc 1 32 5
 196 00d4 630A0506 		beqz	a0,.L19
  33:src/ThreadQueue.cpp ****     Node* prev, * curr;
  34:src/ThreadQueue.cpp ****     for (prev = nullptr, curr = front; curr->data != tcb; prev = curr, curr = curr->next);
 197              		.loc 1 34 15
GAS LISTING /tmp/ccTbpPJS.s 			page 6


 198 00d8 13070000 		li	a4,0
 199              	.L15:
 200              	.LVL20:
 201              		.loc 1 34 51 is_stmt 1 discriminator 3
 202              		.loc 1 34 46 is_stmt 0 discriminator 3
 203 00dc 83370500 		ld	a5,0(a0)
 204              		.loc 1 34 51 discriminator 3
 205 00e0 6388B700 		beq	a5,a1,.L14
 206              		.loc 1 34 5 is_stmt 1 discriminator 2
 207              	.LVL21:
 208              		.loc 1 34 64 is_stmt 0 discriminator 2
 209 00e4 13070500 		mv	a4,a0
 210              		.loc 1 34 77 discriminator 2
 211 00e8 03358500 		ld	a0,8(a0)
 212              	.LVL22:
 213              		.loc 1 34 5 discriminator 2
 214 00ec 6FF01FFF 		j	.L15
 215              	.L14:
  35:src/ThreadQueue.cpp ****     if (curr->data != tcb) return -1;
 216              		.loc 1 35 5 is_stmt 1
  36:src/ThreadQueue.cpp ****     if (!prev) {
 217              		.loc 1 36 5
 218 00f0 63020704 		beqz	a4,.L25
  37:src/ThreadQueue.cpp ****         front = curr->next;
  38:src/ThreadQueue.cpp ****     } else {
  39:src/ThreadQueue.cpp ****         prev->next = curr->next;
 219              		.loc 1 39 9
 220              		.loc 1 39 28 is_stmt 0
 221 00f4 83378500 		ld	a5,8(a0)
 222              		.loc 1 39 20
 223 00f8 2334F700 		sd	a5,8(a4)
 224              	.L17:
  40:src/ThreadQueue.cpp ****     }
  41:src/ThreadQueue.cpp ****     if (curr == back) {
 225              		.loc 1 41 5 is_stmt 1
 226              		.loc 1 41 17 is_stmt 0
 227 00fc 83B78600 		ld	a5,8(a3)
 228              		.loc 1 41 5
 229 0100 6380A704 		beq	a5,a0,.L26
 230              	.L18:
  42:src/ThreadQueue.cpp ****         back = prev;
  43:src/ThreadQueue.cpp ****     }
  44:src/ThreadQueue.cpp ****     delete curr;
 231              		.loc 1 44 5 is_stmt 1
 232              		.loc 1 44 16 is_stmt 0
 233 0104 63060504 		beqz	a0,.L20
  31:src/ThreadQueue.cpp ****     if (front == nullptr) return -1;
 234              		.loc 1 31 35 discriminator 1
 235 0108 130101FF 		addi	sp,sp,-16
 236              		.cfi_def_cfa_offset 16
 237 010c 23341100 		sd	ra,8(sp)
 238 0110 23308100 		sd	s0,0(sp)
 239              		.cfi_offset 1, -8
 240              		.cfi_offset 8, -16
 241 0114 13040101 		addi	s0,sp,16
 242              		.cfi_def_cfa 8, 0
 243              	.LVL23:
GAS LISTING /tmp/ccTbpPJS.s 			page 7


 244              	.LBB25:
 245              	.LBB26:
  25:src/../h/ThreadQueue.hpp ****         }
 246              		.loc 2 25 13 is_stmt 1 discriminator 1
  25:src/../h/ThreadQueue.hpp ****         }
 247              		.loc 2 25 21 is_stmt 0 discriminator 1
 248 0118 97000000 		call	_Z8mem_freePv@plt
 248      E7800000 
 249              	.LVL24:
 250              	.LBE26:
 251              	.LBE25:
  45:src/ThreadQueue.cpp ****     return 0;
 252              		.loc 1 45 12 discriminator 1
 253 0120 13050000 		li	a0,0
  46:src/ThreadQueue.cpp **** }
 254              		.loc 1 46 1 discriminator 1
 255 0124 83308100 		ld	ra,8(sp)
 256              		.cfi_restore 1
 257 0128 03340100 		ld	s0,0(sp)
 258              		.cfi_restore 8
 259              		.cfi_def_cfa 2, 16
 260 012c 13010101 		addi	sp,sp,16
 261              		.cfi_def_cfa_offset 0
 262 0130 67800000 		jr	ra
 263              	.LVL25:
 264              	.L25:
  37:src/ThreadQueue.cpp ****     } else {
 265              		.loc 1 37 9 is_stmt 1
  37:src/ThreadQueue.cpp ****     } else {
 266              		.loc 1 37 23 is_stmt 0
 267 0134 83378500 		ld	a5,8(a0)
  37:src/ThreadQueue.cpp ****     } else {
 268              		.loc 1 37 15
 269 0138 23B0F600 		sd	a5,0(a3)
 270 013c 6FF01FFC 		j	.L17
 271              	.L26:
  42:src/ThreadQueue.cpp ****     }
 272              		.loc 1 42 9 is_stmt 1
  42:src/ThreadQueue.cpp ****     }
 273              		.loc 1 42 14 is_stmt 0
 274 0140 23B4E600 		sd	a4,8(a3)
 275 0144 6FF01FFC 		j	.L18
 276              	.LVL26:
 277              	.L19:
  32:src/ThreadQueue.cpp ****     Node* prev, * curr;
 278              		.loc 1 32 35
 279 0148 1305F0FF 		li	a0,-1
 280 014c 67800000 		ret
 281              	.LVL27:
 282              	.L20:
  45:src/ThreadQueue.cpp **** }
 283              		.loc 1 45 12
 284 0150 13050000 		li	a0,0
 285              	.LVL28:
 286              		.loc 1 46 1
 287 0154 67800000 		ret
 288              		.cfi_endproc
GAS LISTING /tmp/ccTbpPJS.s 			page 8


 289              	.LFE16:
 291              	.Letext0:
 292              		.file 3 "src/../h/../h/../lib/hw.h"
 293              		.file 4 "src/../h/../h/syscall_c.hpp"
GAS LISTING /tmp/ccTbpPJS.s 			page 9


DEFINED SYMBOLS
                            *ABS*:0000000000000000 ThreadQueue.cpp
     /tmp/ccTbpPJS.s:9      .text:0000000000000000 _ZN11ThreadQueue7putLastEP3TCB
     /tmp/ccTbpPJS.s:13     .text:0000000000000000 .L0 
     /tmp/ccTbpPJS.s:15     .text:0000000000000000 .L0 
     /tmp/ccTbpPJS.s:16     .text:0000000000000004 .L0 
     /tmp/ccTbpPJS.s:21     .text:0000000000000014 .L0 
     /tmp/ccTbpPJS.s:22     .text:0000000000000014 .L0 
     /tmp/ccTbpPJS.s:23     .text:0000000000000014 .L0 
     /tmp/ccTbpPJS.s:24     .text:0000000000000014 .L0 
     /tmp/ccTbpPJS.s:26     .text:0000000000000018 .L0 
     /tmp/ccTbpPJS.s:34     .text:0000000000000020 .L0 
     /tmp/ccTbpPJS.s:35     .text:0000000000000020 .L0 
     /tmp/ccTbpPJS.s:36     .text:0000000000000020 .L0 
     /tmp/ccTbpPJS.s:45     .text:000000000000002c .L0 
     /tmp/ccTbpPJS.s:53     .text:0000000000000034 .L0 
     /tmp/ccTbpPJS.s:54     .text:0000000000000034 .L0 
     /tmp/ccTbpPJS.s:55     .text:0000000000000034 .L0 
     /tmp/ccTbpPJS.s:60     .text:0000000000000038 .L0 
     /tmp/ccTbpPJS.s:62     .text:000000000000003c .L0 
     /tmp/ccTbpPJS.s:64     .text:0000000000000040 .L0 
     /tmp/ccTbpPJS.s:66     .text:0000000000000044 .L0 
     /tmp/ccTbpPJS.s:67     .text:0000000000000044 .L0 
     /tmp/ccTbpPJS.s:70     .text:0000000000000048 .L0 
     /tmp/ccTbpPJS.s:71     .text:000000000000004c .L0 
     /tmp/ccTbpPJS.s:72     .text:000000000000004c .L0 
     /tmp/ccTbpPJS.s:74     .text:0000000000000050 .L0 
     /tmp/ccTbpPJS.s:75     .text:0000000000000050 .L0 
     /tmp/ccTbpPJS.s:77     .text:0000000000000054 .L0 
     /tmp/ccTbpPJS.s:80     .text:0000000000000058 .L0 
     /tmp/ccTbpPJS.s:83     .text:000000000000005c .L0 
     /tmp/ccTbpPJS.s:87     .text:0000000000000060 .L0 
     /tmp/ccTbpPJS.s:89     .text:0000000000000060 .L0 
     /tmp/ccTbpPJS.s:90     .text:0000000000000060 .L0 
     /tmp/ccTbpPJS.s:92     .text:0000000000000064 .L0 
     /tmp/ccTbpPJS.s:94     .text:000000000000006c .L0 
     /tmp/ccTbpPJS.s:100    .text:000000000000006c _ZN11ThreadQueue8getFirstEv
     /tmp/ccTbpPJS.s:103    .text:000000000000006c .L0 
     /tmp/ccTbpPJS.s:105    .text:000000000000006c .L0 
     /tmp/ccTbpPJS.s:106    .text:0000000000000070 .L0 
     /tmp/ccTbpPJS.s:110    .text:000000000000007c .L0 
     /tmp/ccTbpPJS.s:111    .text:000000000000007c .L0 
     /tmp/ccTbpPJS.s:112    .text:000000000000007c .L0 
     /tmp/ccTbpPJS.s:114    .text:0000000000000080 .L0 
     /tmp/ccTbpPJS.s:120    .text:0000000000000084 .L0 
     /tmp/ccTbpPJS.s:121    .text:0000000000000084 .L0 
     /tmp/ccTbpPJS.s:122    .text:0000000000000084 .L0 
     /tmp/ccTbpPJS.s:127    .text:0000000000000088 .L0 
     /tmp/ccTbpPJS.s:130    .text:000000000000008c .L0 
     /tmp/ccTbpPJS.s:131    .text:000000000000008c .L0 
     /tmp/ccTbpPJS.s:132    .text:000000000000008c .L0 
     /tmp/ccTbpPJS.s:135    .text:0000000000000090 .L0 
     /tmp/ccTbpPJS.s:136    .text:0000000000000090 .L0 
     /tmp/ccTbpPJS.s:138    .text:0000000000000094 .L0 
     /tmp/ccTbpPJS.s:140    .text:0000000000000098 .L0 
     /tmp/ccTbpPJS.s:146    .text:000000000000009c .L0 
     /tmp/ccTbpPJS.s:147    .text:000000000000009c .L0 
GAS LISTING /tmp/ccTbpPJS.s 			page 10


     /tmp/ccTbpPJS.s:148    .text:000000000000009c .L0 
     /tmp/ccTbpPJS.s:154    .text:00000000000000a4 .L0 
     /tmp/ccTbpPJS.s:155    .text:00000000000000a4 .L0 
     /tmp/ccTbpPJS.s:157    .text:00000000000000ac .L0 
     /tmp/ccTbpPJS.s:158    .text:00000000000000ac .L0 
     /tmp/ccTbpPJS.s:160    .text:00000000000000b0 .L0 
     /tmp/ccTbpPJS.s:161    .text:00000000000000b0 .L0 
     /tmp/ccTbpPJS.s:163    .text:00000000000000b4 .L0 
     /tmp/ccTbpPJS.s:165    .text:00000000000000b8 .L0 
     /tmp/ccTbpPJS.s:169    .text:00000000000000bc .L0 
     /tmp/ccTbpPJS.s:171    .text:00000000000000bc .L0 
     /tmp/ccTbpPJS.s:172    .text:00000000000000bc .L0 
     /tmp/ccTbpPJS.s:177    .text:00000000000000c4 .L0 
     /tmp/ccTbpPJS.s:179    .text:00000000000000cc .L0 
     /tmp/ccTbpPJS.s:185    .text:00000000000000cc _ZN11ThreadQueue6removeEP3TCB
     /tmp/ccTbpPJS.s:188    .text:00000000000000cc .L0 
     /tmp/ccTbpPJS.s:190    .text:00000000000000cc .L0 
     /tmp/ccTbpPJS.s:192    .text:00000000000000d0 .L0 
     /tmp/ccTbpPJS.s:193    .text:00000000000000d0 .L0 
     /tmp/ccTbpPJS.s:196    .text:00000000000000d4 .L0 
     /tmp/ccTbpPJS.s:198    .text:00000000000000d8 .L0 
     /tmp/ccTbpPJS.s:202    .text:00000000000000dc .L0 
     /tmp/ccTbpPJS.s:203    .text:00000000000000dc .L0 
     /tmp/ccTbpPJS.s:205    .text:00000000000000e0 .L0 
     /tmp/ccTbpPJS.s:208    .text:00000000000000e4 .L0 
     /tmp/ccTbpPJS.s:209    .text:00000000000000e4 .L0 
     /tmp/ccTbpPJS.s:211    .text:00000000000000e8 .L0 
     /tmp/ccTbpPJS.s:214    .text:00000000000000ec .L0 
     /tmp/ccTbpPJS.s:217    .text:00000000000000f0 .L0 
     /tmp/ccTbpPJS.s:218    .text:00000000000000f0 .L0 
     /tmp/ccTbpPJS.s:220    .text:00000000000000f4 .L0 
     /tmp/ccTbpPJS.s:221    .text:00000000000000f4 .L0 
     /tmp/ccTbpPJS.s:223    .text:00000000000000f8 .L0 
     /tmp/ccTbpPJS.s:226    .text:00000000000000fc .L0 
     /tmp/ccTbpPJS.s:227    .text:00000000000000fc .L0 
     /tmp/ccTbpPJS.s:229    .text:0000000000000100 .L0 
     /tmp/ccTbpPJS.s:232    .text:0000000000000104 .L0 
     /tmp/ccTbpPJS.s:233    .text:0000000000000104 .L0 
     /tmp/ccTbpPJS.s:235    .text:0000000000000108 .L0 
     /tmp/ccTbpPJS.s:236    .text:000000000000010c .L0 
     /tmp/ccTbpPJS.s:239    .text:0000000000000114 .L0 
     /tmp/ccTbpPJS.s:240    .text:0000000000000114 .L0 
     /tmp/ccTbpPJS.s:242    .text:0000000000000118 .L0 
     /tmp/ccTbpPJS.s:247    .text:0000000000000118 .L0 
     /tmp/ccTbpPJS.s:248    .text:0000000000000118 .L0 
     /tmp/ccTbpPJS.s:253    .text:0000000000000120 .L0 
     /tmp/ccTbpPJS.s:255    .text:0000000000000124 .L0 
     /tmp/ccTbpPJS.s:256    .text:0000000000000128 .L0 
     /tmp/ccTbpPJS.s:258    .text:000000000000012c .L0 
     /tmp/ccTbpPJS.s:259    .text:000000000000012c .L0 
     /tmp/ccTbpPJS.s:261    .text:0000000000000130 .L0 
     /tmp/ccTbpPJS.s:266    .text:0000000000000134 .L0 
     /tmp/ccTbpPJS.s:267    .text:0000000000000134 .L0 
     /tmp/ccTbpPJS.s:269    .text:0000000000000138 .L0 
     /tmp/ccTbpPJS.s:273    .text:0000000000000140 .L0 
     /tmp/ccTbpPJS.s:274    .text:0000000000000140 .L0 
     /tmp/ccTbpPJS.s:279    .text:0000000000000148 .L0 
GAS LISTING /tmp/ccTbpPJS.s 			page 11


     /tmp/ccTbpPJS.s:284    .text:0000000000000150 .L0 
     /tmp/ccTbpPJS.s:287    .text:0000000000000154 .L0 
     /tmp/ccTbpPJS.s:288    .text:0000000000000158 .L0 
     /tmp/ccTbpPJS.s:294    .text:0000000000000158 .L0 
     /tmp/ccTbpPJS.s:86     .text:0000000000000060 .L5
     /tmp/ccTbpPJS.s:68     .text:0000000000000048 .L1
     /tmp/ccTbpPJS.s:175    .text:00000000000000c4 .L9
     /tmp/ccTbpPJS.s:168    .text:00000000000000bc .L11
     /tmp/ccTbpPJS.s:141    .text:000000000000009c .L8
     /tmp/ccTbpPJS.s:153    .text:00000000000000a4 .L6
     /tmp/ccTbpPJS.s:277    .text:0000000000000148 .L19
     /tmp/ccTbpPJS.s:215    .text:00000000000000f0 .L14
     /tmp/ccTbpPJS.s:199    .text:00000000000000dc .L15
     /tmp/ccTbpPJS.s:264    .text:0000000000000134 .L25
     /tmp/ccTbpPJS.s:271    .text:0000000000000140 .L26
     /tmp/ccTbpPJS.s:282    .text:0000000000000150 .L20
     /tmp/ccTbpPJS.s:224    .text:00000000000000fc .L17
     /tmp/ccTbpPJS.s:230    .text:0000000000000104 .L18
     /tmp/ccTbpPJS.s:928    .debug_abbrev:0000000000000000 .Ldebug_abbrev0
     /tmp/ccTbpPJS.s:1985   .debug_str:00000000000001c6 .LASF50
     /tmp/ccTbpPJS.s:1995   .debug_str:00000000000002d3 .LASF51
     /tmp/ccTbpPJS.s:2015   .debug_str:0000000000000370 .LASF52
     /tmp/ccTbpPJS.s:5      .text:0000000000000000 .Ltext0
     /tmp/ccTbpPJS.s:291    .text:0000000000000158 .Letext0
     /tmp/ccTbpPJS.s:1923   .debug_line:0000000000000000 .Ldebug_line0
     /tmp/ccTbpPJS.s:1993   .debug_str:00000000000002c6 .LASF0
     /tmp/ccTbpPJS.s:1973   .debug_str:0000000000000154 .LASF1
     /tmp/ccTbpPJS.s:1961   .debug_str:00000000000000f4 .LASF2
     /tmp/ccTbpPJS.s:1943   .debug_str:0000000000000081 .LASF4
     /tmp/ccTbpPJS.s:1971   .debug_str:0000000000000142 .LASF3
     /tmp/ccTbpPJS.s:1933   .debug_str:0000000000000044 .LASF5
     /tmp/ccTbpPJS.s:1929   .debug_str:0000000000000015 .LASF6
     /tmp/ccTbpPJS.s:1955   .debug_str:00000000000000cd .LASF7
     /tmp/ccTbpPJS.s:2001   .debug_str:0000000000000305 .LASF8
     /tmp/ccTbpPJS.s:1941   .debug_str:0000000000000073 .LASF9
     /tmp/ccTbpPJS.s:2041   .debug_str:0000000000000429 .LASF10
     /tmp/ccTbpPJS.s:1959   .debug_str:00000000000000e5 .LASF11
     /tmp/ccTbpPJS.s:2025   .debug_str:00000000000003cc .LASF12
     /tmp/ccTbpPJS.s:2005   .debug_str:000000000000032b .LASF13
     /tmp/ccTbpPJS.s:1975   .debug_str:0000000000000167 .LASF14
     /tmp/ccTbpPJS.s:1951   .debug_str:00000000000000ab .LASF15
     /tmp/ccTbpPJS.s:2003   .debug_str:0000000000000315 .LASF16
     /tmp/ccTbpPJS.s:1953   .debug_str:00000000000000c1 .LASF25
     /tmp/ccTbpPJS.s:2023   .debug_str:00000000000003c7 .LASF19
     /tmp/ccTbpPJS.s:1957   .debug_str:00000000000000e0 .LASF17
     /tmp/ccTbpPJS.s:1935   .debug_str:000000000000004b .LASF18
     /tmp/ccTbpPJS.s:1989   .debug_str:000000000000029a .LASF21
     /tmp/ccTbpPJS.s:2029   .debug_str:00000000000003e6 .LASF20
     /tmp/ccTbpPJS.s:1983   .debug_str:00000000000001ac .LASF22
     /tmp/ccTbpPJS.s:1987   .debug_str:000000000000028a .LASF53
     /tmp/ccTbpPJS.s:1979   .debug_str:0000000000000179 .LASF54
     /tmp/ccTbpPJS.s:1977   .debug_str:0000000000000173 .LASF23
     /tmp/ccTbpPJS.s:2035   .debug_str:0000000000000402 .LASF24
     /tmp/ccTbpPJS.s:1949   .debug_str:0000000000000096 .LASF27
     /tmp/ccTbpPJS.s:1981   .debug_str:0000000000000194 .LASF30
     /tmp/ccTbpPJS.s:2027   .debug_str:00000000000003dc .LASF55
     /tmp/ccTbpPJS.s:2021   .debug_str:00000000000003af .LASF56
GAS LISTING /tmp/ccTbpPJS.s 			page 12


     /tmp/ccTbpPJS.s:2039   .debug_str:000000000000041c .LASF26
     /tmp/ccTbpPJS.s:2037   .debug_str:0000000000000407 .LASF28
     /tmp/ccTbpPJS.s:2011   .debug_str:0000000000000349 .LASF29
     /tmp/ccTbpPJS.s:2017   .debug_str:000000000000038e .LASF31
     /tmp/ccTbpPJS.s:1997   .debug_str:00000000000002e7 .LASF32
     /tmp/ccTbpPJS.s:2013   .debug_str:0000000000000351 .LASF33
     /tmp/ccTbpPJS.s:1945   .debug_str:0000000000000088 .LASF34
     /tmp/ccTbpPJS.s:1931   .debug_str:0000000000000028 .LASF35
     /tmp/ccTbpPJS.s:1927   .debug_str:000000000000000e .LASF36
     /tmp/ccTbpPJS.s:1939   .debug_str:0000000000000055 .LASF37
     /tmp/ccTbpPJS.s:1967   .debug_str:0000000000000125 .LASF38
     /tmp/ccTbpPJS.s:1999   .debug_str:00000000000002ef .LASF57
     /tmp/ccTbpPJS.s:1947   .debug_str:0000000000000091 .LASF39
     /tmp/ccTbpPJS.s:186    .text:00000000000000cc .LFB16
     /tmp/ccTbpPJS.s:289    .text:0000000000000158 .LFE16
     /tmp/ccTbpPJS.s:1963   .debug_str:0000000000000102 .LASF42
     /tmp/ccTbpPJS.s:1685   .debug_loc:0000000000000000 .LLST11
     /tmp/ccTbpPJS.s:1707   .debug_loc:000000000000005f .LLST12
     /tmp/ccTbpPJS.s:2009   .debug_str:0000000000000344 .LASF40
     /tmp/ccTbpPJS.s:1725   .debug_loc:00000000000000ab .LLST13
     /tmp/ccTbpPJS.s:1937   .debug_str:0000000000000050 .LASF41
     /tmp/ccTbpPJS.s:1748   .debug_loc:000000000000011a .LLST14
     /tmp/ccTbpPJS.s:244    .text:0000000000000118 .LBB25
     /tmp/ccTbpPJS.s:251    .text:0000000000000120 .LBE25
     /tmp/ccTbpPJS.s:1772   .debug_loc:000000000000018a .LLST15
     /tmp/ccTbpPJS.s:249    .text:0000000000000120 .LVL24
     /tmp/ccTbpPJS.s:101    .text:000000000000006c .LFB15
     /tmp/ccTbpPJS.s:180    .text:00000000000000cc .LFE15
     /tmp/ccTbpPJS.s:1779   .debug_loc:00000000000001ad .LLST6
     /tmp/ccTbpPJS.s:2019   .debug_str:00000000000003aa .LASF43
     /tmp/ccTbpPJS.s:1801   .debug_loc:000000000000020c .LLST7
     /tmp/ccTbpPJS.s:1812   .debug_loc:0000000000000242 .LLST8
     /tmp/ccTbpPJS.s:118    .text:0000000000000084 .LBB21
     /tmp/ccTbpPJS.s:125    .text:0000000000000088 .LBE21
     /tmp/ccTbpPJS.s:1823   .debug_loc:0000000000000278 .LLST9
     /tmp/ccTbpPJS.s:144    .text:000000000000009c .LBB23
     /tmp/ccTbpPJS.s:151    .text:00000000000000a4 .LBE23
     /tmp/ccTbpPJS.s:1830   .debug_loc:000000000000029b .LLST10
     /tmp/ccTbpPJS.s:149    .text:00000000000000a4 .LVL15
     /tmp/ccTbpPJS.s:10     .text:0000000000000000 .LFB14
     /tmp/ccTbpPJS.s:95     .text:000000000000006c .LFE14
     /tmp/ccTbpPJS.s:1837   .debug_loc:00000000000002be .LLST0
     /tmp/ccTbpPJS.s:1859   .debug_loc:000000000000031d .LLST1
     /tmp/ccTbpPJS.s:1969   .debug_str:000000000000013a .LASF44
     /tmp/ccTbpPJS.s:31     .text:0000000000000020 .LBB15
     /tmp/ccTbpPJS.s:41     .text:000000000000002c .LBE15
     /tmp/ccTbpPJS.s:1881   .debug_loc:000000000000037c .LLST2
     /tmp/ccTbpPJS.s:39     .text:000000000000002c .LVL3
     /tmp/ccTbpPJS.s:42     .text:000000000000002c .LBB17
     /tmp/ccTbpPJS.s:49     .text:0000000000000034 .LBE17
     /tmp/ccTbpPJS.s:1889   .debug_loc:00000000000003a0 .LLST3
     /tmp/ccTbpPJS.s:1896   .debug_loc:00000000000003c3 .LLST4
     /tmp/ccTbpPJS.s:51     .text:0000000000000034 .LBB19
     /tmp/ccTbpPJS.s:58     .text:0000000000000038 .LBE19
     /tmp/ccTbpPJS.s:1903   .debug_loc:00000000000003e6 .LLST5
     /tmp/ccTbpPJS.s:2033   .debug_str:00000000000003fd .LASF45
     /tmp/ccTbpPJS.s:1965   .debug_str:0000000000000107 .LASF58
GAS LISTING /tmp/ccTbpPJS.s 			page 13


     /tmp/ccTbpPJS.s:1925   .debug_str:0000000000000000 .LASF46
     /tmp/ccTbpPJS.s:2007   .debug_str:000000000000033b .LASF48
     /tmp/ccTbpPJS.s:1991   .debug_str:00000000000002b8 .LASF47
     /tmp/ccTbpPJS.s:2031   .debug_str:00000000000003f3 .LASF49
     /tmp/ccTbpPJS.s:189    .text:00000000000000cc .LVL18
     /tmp/ccTbpPJS.s:194    .text:00000000000000d4 .LVL19
     /tmp/ccTbpPJS.s:263    .text:0000000000000134 .LVL25
     /tmp/ccTbpPJS.s:200    .text:00000000000000dc .LVL20
     /tmp/ccTbpPJS.s:207    .text:00000000000000e4 .LVL21
     /tmp/ccTbpPJS.s:212    .text:00000000000000ec .LVL22
     /tmp/ccTbpPJS.s:276    .text:0000000000000148 .LVL26
     /tmp/ccTbpPJS.s:281    .text:0000000000000150 .LVL27
     /tmp/ccTbpPJS.s:285    .text:0000000000000154 .LVL28
     /tmp/ccTbpPJS.s:243    .text:0000000000000118 .LVL23
     /tmp/ccTbpPJS.s:104    .text:000000000000006c .LVL9
     /tmp/ccTbpPJS.s:123    .text:0000000000000088 .LVL11
     /tmp/ccTbpPJS.s:167    .text:00000000000000bc .LVL16
     /tmp/ccTbpPJS.s:129    .text:000000000000008c .LVL12
     /tmp/ccTbpPJS.s:174    .text:00000000000000c4 .LVL17
     /tmp/ccTbpPJS.s:133    .text:0000000000000090 .LVL13
     /tmp/ccTbpPJS.s:117    .text:0000000000000084 .LVL10
     /tmp/ccTbpPJS.s:143    .text:000000000000009c .LVL14
     /tmp/ccTbpPJS.s:14     .text:0000000000000000 .LVL0
     /tmp/ccTbpPJS.s:37     .text:0000000000000024 .LVL2
     /tmp/ccTbpPJS.s:78     .text:0000000000000054 .LVL6
     /tmp/ccTbpPJS.s:85     .text:0000000000000060 .LVL8
     /tmp/ccTbpPJS.s:81     .text:0000000000000058 .LVL7
     /tmp/ccTbpPJS.s:30     .text:0000000000000020 .LVL1
     /tmp/ccTbpPJS.s:47     .text:0000000000000034 .LVL4
     /tmp/ccTbpPJS.s:56     .text:0000000000000038 .LVL5
     /tmp/ccTbpPJS.s:295    .debug_info:0000000000000000 .Ldebug_info0

UNDEFINED SYMBOLS
_Z9mem_allocm
_Z8mem_freePv
