GAS LISTING /tmp/ccaErzBx.s 			page 1


   1              		.file	"ThreadQueue.cpp"
   2              		.option pic
   3              		.option norelax
   4              		.text
   5              	.Ltext0:
   6              		.align	2
   7              		.globl	_ZN11ThreadQueue7putLastEP3TCB
   9              	_ZN11ThreadQueue7putLastEP3TCB:
  10              	.LFB17:
  11              		.file 1 "src/ThreadQueue.cpp"
   1:src/ThreadQueue.cpp **** //
   2:src/ThreadQueue.cpp **** // Created by os on 6/4/23.
   3:src/ThreadQueue.cpp **** //
   4:src/ThreadQueue.cpp **** 
   5:src/ThreadQueue.cpp **** #include "../h/ThreadQueue.hpp"
   6:src/ThreadQueue.cpp **** 
   7:src/ThreadQueue.cpp **** void ThreadQueue::putLast(TCB *tcb) {
  12              		.loc 1 7 37
  13              		.cfi_startproc
  14              	.LVL0:
  15 0000 130101FE 		addi	sp,sp,-32
  16              		.cfi_def_cfa_offset 32
  17 0004 233C1100 		sd	ra,24(sp)
  18 0008 23388100 		sd	s0,16(sp)
  19 000c 23349100 		sd	s1,8(sp)
  20 0010 23302101 		sd	s2,0(sp)
  21              		.cfi_offset 1, -8
  22              		.cfi_offset 8, -16
  23              		.cfi_offset 9, -24
  24              		.cfi_offset 18, -32
  25 0014 13040102 		addi	s0,sp,32
  26              		.cfi_def_cfa 8, 0
  27 0018 93040500 		mv	s1,a0
  28 001c 13890500 		mv	s2,a1
   8:src/ThreadQueue.cpp ****     Node *newNode = new Node(tcb);
  29              		.loc 1 8 5
  30              	.LVL1:
  31              	.LBB13:
  32              	.LBB14:
  33              		.file 2 "src/../h/ThreadQueue.hpp"
   1:src/../h/ThreadQueue.hpp **** //
   2:src/../h/ThreadQueue.hpp **** // Created by os on 6/4/23.
   3:src/../h/ThreadQueue.hpp **** //
   4:src/../h/ThreadQueue.hpp **** 
   5:src/../h/ThreadQueue.hpp **** #ifndef PROJEKAT2023_THREADQUEUE_HPP
   6:src/../h/ThreadQueue.hpp **** #define PROJEKAT2023_THREADQUEUE_HPP
   7:src/../h/ThreadQueue.hpp **** 
   8:src/../h/ThreadQueue.hpp **** #include "../h/MemoryAllocator.hpp"
   9:src/../h/ThreadQueue.hpp **** #include "../h/syscall_c.hpp"
  10:src/../h/ThreadQueue.hpp **** 
  11:src/../h/ThreadQueue.hpp **** class TCB;
  12:src/../h/ThreadQueue.hpp **** 
  13:src/../h/ThreadQueue.hpp **** class ThreadQueue {
  14:src/../h/ThreadQueue.hpp **** private:
  15:src/../h/ThreadQueue.hpp ****     struct Node {
  16:src/../h/ThreadQueue.hpp ****         TCB *data;
  17:src/../h/ThreadQueue.hpp ****         Node *next;
GAS LISTING /tmp/ccaErzBx.s 			page 2


  18:src/../h/ThreadQueue.hpp **** 
  19:src/../h/ThreadQueue.hpp ****         Node(TCB *d) : data(d), next(nullptr) {}
  20:src/../h/ThreadQueue.hpp **** 
  21:src/../h/ThreadQueue.hpp ****         static void *operator new(size_t size) {
  22:src/../h/ThreadQueue.hpp ****             return mem_alloc(size);
  34              		.loc 2 22 13
  35              		.loc 2 22 29 is_stmt 0
  36 0020 13050001 		li	a0,16
  37              	.LVL2:
  38 0024 97000000 		call	_Z9mem_allocm@plt
  38      E7800000 
  39              	.LVL3:
  40              	.LBE14:
  41              	.LBE13:
  42              	.LBB15:
  43              	.LBB16:
  19:src/../h/ThreadQueue.hpp **** 
  44              		.loc 2 19 45
  45 002c 23302501 		sd	s2,0(a0)
  46 0030 23340500 		sd	zero,8(a0)
  47              	.LVL4:
  48              	.LBE16:
  49              	.LBE15:
   9:src/ThreadQueue.cpp ****     if (isEmpty()) {
  50              		.loc 1 9 5 is_stmt 1
  51              	.LBB17:
  52              	.LBB18:
  23:src/../h/ThreadQueue.hpp ****         }
  24:src/../h/ThreadQueue.hpp **** 
  25:src/../h/ThreadQueue.hpp ****         static void operator delete(void *ptr) {
  26:src/../h/ThreadQueue.hpp ****             mem_free(ptr);
  27:src/../h/ThreadQueue.hpp ****         }
  28:src/../h/ThreadQueue.hpp ****     };
  29:src/../h/ThreadQueue.hpp **** 
  30:src/../h/ThreadQueue.hpp ****     Node *front;
  31:src/../h/ThreadQueue.hpp ****     Node *back;
  32:src/../h/ThreadQueue.hpp **** 
  33:src/../h/ThreadQueue.hpp **** public:
  34:src/../h/ThreadQueue.hpp ****     ThreadQueue() : front(nullptr), back(nullptr) {}
  35:src/../h/ThreadQueue.hpp **** 
  36:src/../h/ThreadQueue.hpp ****     ThreadQueue(const ThreadQueue &) = delete;
  37:src/../h/ThreadQueue.hpp **** 
  38:src/../h/ThreadQueue.hpp ****     ThreadQueue &operator=(const ThreadQueue &) = delete;
  39:src/../h/ThreadQueue.hpp **** 
  40:src/../h/ThreadQueue.hpp ****     ~ThreadQueue() {
  41:src/../h/ThreadQueue.hpp ****         while (!isEmpty()) {
  42:src/../h/ThreadQueue.hpp ****             Node *node = front;
  43:src/../h/ThreadQueue.hpp ****             front = front->next;
  44:src/../h/ThreadQueue.hpp ****             delete node;
  45:src/../h/ThreadQueue.hpp ****         }
  46:src/../h/ThreadQueue.hpp ****     }
  47:src/../h/ThreadQueue.hpp **** 
  48:src/../h/ThreadQueue.hpp ****     bool isEmpty() const {
  49:src/../h/ThreadQueue.hpp ****         bool ret = front == nullptr;
  53              		.loc 2 49 9
  54              		.loc 2 49 20 is_stmt 0
  55 0034 83B70400 		ld	a5,0(s1)
GAS LISTING /tmp/ccaErzBx.s 			page 3


  56              	.LVL5:
  50:src/../h/ThreadQueue.hpp ****         return ret;
  57              		.loc 2 50 9 is_stmt 1
  58              	.LBE18:
  59              	.LBE17:
  60              		.loc 1 9 5 is_stmt 0
  61 0038 63840702 		beqz	a5,.L5
  10:src/ThreadQueue.cpp ****         front = back = newNode;
  11:src/ThreadQueue.cpp ****     } else {
  12:src/ThreadQueue.cpp ****         back->next = newNode;
  62              		.loc 1 12 9 is_stmt 1
  63 003c 83B78400 		ld	a5,8(s1)
  64              		.loc 1 12 20 is_stmt 0
  65 0040 23B4A700 		sd	a0,8(a5)
  13:src/ThreadQueue.cpp ****         back = newNode;
  66              		.loc 1 13 9 is_stmt 1
  67              		.loc 1 13 14 is_stmt 0
  68 0044 23B4A400 		sd	a0,8(s1)
  69              	.L1:
  14:src/ThreadQueue.cpp ****     }
  15:src/ThreadQueue.cpp **** }
  70              		.loc 1 15 1
  71 0048 83308101 		ld	ra,24(sp)
  72              		.cfi_remember_state
  73              		.cfi_restore 1
  74 004c 03340101 		ld	s0,16(sp)
  75              		.cfi_restore 8
  76              		.cfi_def_cfa 2, 32
  77 0050 83348100 		ld	s1,8(sp)
  78              		.cfi_restore 9
  79              	.LVL6:
  80 0054 03390100 		ld	s2,0(sp)
  81              		.cfi_restore 18
  82              	.LVL7:
  83 0058 13010102 		addi	sp,sp,32
  84              		.cfi_def_cfa_offset 0
  85 005c 67800000 		jr	ra
  86              	.LVL8:
  87              	.L5:
  88              		.cfi_restore_state
  10:src/ThreadQueue.cpp ****     } else {
  89              		.loc 1 10 9 is_stmt 1
  10:src/ThreadQueue.cpp ****     } else {
  90              		.loc 1 10 22 is_stmt 0
  91 0060 23B4A400 		sd	a0,8(s1)
  10:src/ThreadQueue.cpp ****     } else {
  92              		.loc 1 10 15
  93 0064 23B0A400 		sd	a0,0(s1)
  94 0068 6FF01FFE 		j	.L1
  95              		.cfi_endproc
  96              	.LFE17:
  98              		.align	2
  99              		.globl	_ZN11ThreadQueue8getFirstEv
 101              	_ZN11ThreadQueue8getFirstEv:
 102              	.LFB18:
  16:src/ThreadQueue.cpp **** 
  17:src/ThreadQueue.cpp **** TCB *ThreadQueue::getFirst() {
GAS LISTING /tmp/ccaErzBx.s 			page 4


 103              		.loc 1 17 30 is_stmt 1
 104              		.cfi_startproc
 105              	.LVL9:
 106 006c 130101FE 		addi	sp,sp,-32
 107              		.cfi_def_cfa_offset 32
 108 0070 233C1100 		sd	ra,24(sp)
 109 0074 23388100 		sd	s0,16(sp)
 110 0078 23349100 		sd	s1,8(sp)
 111              		.cfi_offset 1, -8
 112              		.cfi_offset 8, -16
 113              		.cfi_offset 9, -24
 114 007c 13040102 		addi	s0,sp,32
 115              		.cfi_def_cfa 8, 0
 116 0080 93070500 		mv	a5,a0
  18:src/ThreadQueue.cpp ****     if (isEmpty()) {
 117              		.loc 1 18 5
 118              	.LVL10:
 119              	.LBB19:
 120              	.LBB20:
  49:src/../h/ThreadQueue.hpp ****         return ret;
 121              		.loc 2 49 9
  49:src/../h/ThreadQueue.hpp ****         return ret;
 122              		.loc 2 49 20 is_stmt 0
 123 0084 03350500 		ld	a0,0(a0)
 124              	.LVL11:
 125              		.loc 2 50 9 is_stmt 1
 126              	.LBE20:
 127              	.LBE19:
 128              		.loc 1 18 5 is_stmt 0
 129 0088 630E0502 		beqz	a0,.L9
  19:src/ThreadQueue.cpp ****         return nullptr;
  20:src/ThreadQueue.cpp ****     }
  21:src/ThreadQueue.cpp ****     Node *node = front;
 130              		.loc 1 21 5 is_stmt 1
 131              	.LVL12:
  22:src/ThreadQueue.cpp ****     TCB *tcb = node->data;
 132              		.loc 1 22 5
 133              		.loc 1 22 10 is_stmt 0
 134 008c 83340500 		ld	s1,0(a0)
 135              	.LVL13:
  23:src/ThreadQueue.cpp ****     front = front->next;
 136              		.loc 1 23 5 is_stmt 1
 137              		.loc 1 23 20 is_stmt 0
 138 0090 03378500 		ld	a4,8(a0)
 139              		.loc 1 23 11
 140 0094 23B0E700 		sd	a4,0(a5)
  24:src/ThreadQueue.cpp ****     if (front == nullptr) {
 141              		.loc 1 24 5 is_stmt 1
 142 0098 63020702 		beqz	a4,.L11
 143              	.L8:
  25:src/ThreadQueue.cpp ****         back = nullptr;
  26:src/ThreadQueue.cpp ****     }
  27:src/ThreadQueue.cpp ****     delete node;
 144              		.loc 1 27 5
 145              	.LVL14:
 146              	.LBB21:
 147              	.LBB22:
GAS LISTING /tmp/ccaErzBx.s 			page 5


  26:src/../h/ThreadQueue.hpp ****         }
 148              		.loc 2 26 13
  26:src/../h/ThreadQueue.hpp ****         }
 149              		.loc 2 26 21 is_stmt 0
 150 009c 97000000 		call	_Z8mem_freePv@plt
 150      E7800000 
 151              	.LVL15:
 152              	.LBE22:
 153              	.LBE21:
  28:src/ThreadQueue.cpp ****     return tcb;
 154              		.loc 1 28 5 is_stmt 1
 155              	.L6:
  29:src/ThreadQueue.cpp **** }...
 156              		.loc 1 29 1 is_stmt 0
 157 00a4 13850400 		mv	a0,s1
 158 00a8 83308101 		ld	ra,24(sp)
 159              		.cfi_remember_state
 160              		.cfi_restore 1
 161 00ac 03340101 		ld	s0,16(sp)
 162              		.cfi_restore 8
 163              		.cfi_def_cfa 2, 32
 164 00b0 83348100 		ld	s1,8(sp)
 165              		.cfi_restore 9
 166 00b4 13010102 		addi	sp,sp,32
 167              		.cfi_def_cfa_offset 0
 168 00b8 67800000 		jr	ra
 169              	.LVL16:
 170              	.L11:
 171              		.cfi_restore_state
  25:src/ThreadQueue.cpp ****         back = nullptr;
 172              		.loc 1 25 9 is_stmt 1
  25:src/ThreadQueue.cpp ****         back = nullptr;
 173              		.loc 1 25 14 is_stmt 0
 174 00bc 23B40700 		sd	zero,8(a5)
 175 00c0 6FF0DFFD 		j	.L8
 176              	.LVL17:
 177              	.L9:
  19:src/ThreadQueue.cpp ****         return nullptr;
 178              		.loc 1 19 16
 179 00c4 93040500 		mv	s1,a0
 180 00c8 6FF0DFFD 		j	.L6
 181              		.cfi_endproc
 182              	.LFE18:
 184              	.Letext0:
 185              		.file 3 "src/../h/../h/../lib/hw.h"
 186              		.file 4 "src/../h/../h/syscall_c.hpp"
GAS LISTING /tmp/ccaErzBx.s 			page 6


DEFINED SYMBOLS
                            *ABS*:0000000000000000 ThreadQueue.cpp
     /tmp/ccaErzBx.s:9      .text:0000000000000000 _ZN11ThreadQueue7putLastEP3TCB
     /tmp/ccaErzBx.s:13     .text:0000000000000000 .L0 
     /tmp/ccaErzBx.s:15     .text:0000000000000000 .L0 
     /tmp/ccaErzBx.s:16     .text:0000000000000004 .L0 
     /tmp/ccaErzBx.s:21     .text:0000000000000014 .L0 
     /tmp/ccaErzBx.s:22     .text:0000000000000014 .L0 
     /tmp/ccaErzBx.s:23     .text:0000000000000014 .L0 
     /tmp/ccaErzBx.s:24     .text:0000000000000014 .L0 
     /tmp/ccaErzBx.s:26     .text:0000000000000018 .L0 
     /tmp/ccaErzBx.s:34     .text:0000000000000020 .L0 
     /tmp/ccaErzBx.s:35     .text:0000000000000020 .L0 
     /tmp/ccaErzBx.s:36     .text:0000000000000020 .L0 
     /tmp/ccaErzBx.s:45     .text:000000000000002c .L0 
     /tmp/ccaErzBx.s:53     .text:0000000000000034 .L0 
     /tmp/ccaErzBx.s:54     .text:0000000000000034 .L0 
     /tmp/ccaErzBx.s:55     .text:0000000000000034 .L0 
     /tmp/ccaErzBx.s:60     .text:0000000000000038 .L0 
     /tmp/ccaErzBx.s:61     .text:0000000000000038 .L0 
     /tmp/ccaErzBx.s:63     .text:000000000000003c .L0 
     /tmp/ccaErzBx.s:65     .text:0000000000000040 .L0 
     /tmp/ccaErzBx.s:67     .text:0000000000000044 .L0 
     /tmp/ccaErzBx.s:68     .text:0000000000000044 .L0 
     /tmp/ccaErzBx.s:71     .text:0000000000000048 .L0 
     /tmp/ccaErzBx.s:72     .text:000000000000004c .L0 
     /tmp/ccaErzBx.s:73     .text:000000000000004c .L0 
     /tmp/ccaErzBx.s:75     .text:0000000000000050 .L0 
     /tmp/ccaErzBx.s:76     .text:0000000000000050 .L0 
     /tmp/ccaErzBx.s:78     .text:0000000000000054 .L0 
     /tmp/ccaErzBx.s:81     .text:0000000000000058 .L0 
     /tmp/ccaErzBx.s:84     .text:000000000000005c .L0 
     /tmp/ccaErzBx.s:88     .text:0000000000000060 .L0 
     /tmp/ccaErzBx.s:90     .text:0000000000000060 .L0 
     /tmp/ccaErzBx.s:91     .text:0000000000000060 .L0 
     /tmp/ccaErzBx.s:93     .text:0000000000000064 .L0 
     /tmp/ccaErzBx.s:95     .text:000000000000006c .L0 
     /tmp/ccaErzBx.s:101    .text:000000000000006c _ZN11ThreadQueue8getFirstEv
     /tmp/ccaErzBx.s:104    .text:000000000000006c .L0 
     /tmp/ccaErzBx.s:106    .text:000000000000006c .L0 
     /tmp/ccaErzBx.s:107    .text:0000000000000070 .L0 
     /tmp/ccaErzBx.s:111    .text:000000000000007c .L0 
     /tmp/ccaErzBx.s:112    .text:000000000000007c .L0 
     /tmp/ccaErzBx.s:113    .text:000000000000007c .L0 
     /tmp/ccaErzBx.s:115    .text:0000000000000080 .L0 
     /tmp/ccaErzBx.s:121    .text:0000000000000084 .L0 
     /tmp/ccaErzBx.s:122    .text:0000000000000084 .L0 
     /tmp/ccaErzBx.s:123    .text:0000000000000084 .L0 
     /tmp/ccaErzBx.s:128    .text:0000000000000088 .L0 
     /tmp/ccaErzBx.s:129    .text:0000000000000088 .L0 
     /tmp/ccaErzBx.s:132    .text:000000000000008c .L0 
     /tmp/ccaErzBx.s:133    .text:000000000000008c .L0 
     /tmp/ccaErzBx.s:134    .text:000000000000008c .L0 
     /tmp/ccaErzBx.s:137    .text:0000000000000090 .L0 
     /tmp/ccaErzBx.s:138    .text:0000000000000090 .L0 
     /tmp/ccaErzBx.s:140    .text:0000000000000094 .L0 
     /tmp/ccaErzBx.s:142    .text:0000000000000098 .L0 
GAS LISTING /tmp/ccaErzBx.s 			page 7


     /tmp/ccaErzBx.s:148    .text:000000000000009c .L0 
     /tmp/ccaErzBx.s:149    .text:000000000000009c .L0 
     /tmp/ccaErzBx.s:150    .text:000000000000009c .L0 
     /tmp/ccaErzBx.s:156    .text:00000000000000a4 .L0 
     /tmp/ccaErzBx.s:157    .text:00000000000000a4 .L0 
     /tmp/ccaErzBx.s:159    .text:00000000000000ac .L0 
     /tmp/ccaErzBx.s:160    .text:00000000000000ac .L0 
     /tmp/ccaErzBx.s:162    .text:00000000000000b0 .L0 
     /tmp/ccaErzBx.s:163    .text:00000000000000b0 .L0 
     /tmp/ccaErzBx.s:165    .text:00000000000000b4 .L0 
     /tmp/ccaErzBx.s:167    .text:00000000000000b8 .L0 
     /tmp/ccaErzBx.s:171    .text:00000000000000bc .L0 
     /tmp/ccaErzBx.s:173    .text:00000000000000bc .L0 
     /tmp/ccaErzBx.s:174    .text:00000000000000bc .L0 
     /tmp/ccaErzBx.s:179    .text:00000000000000c4 .L0 
     /tmp/ccaErzBx.s:181    .text:00000000000000cc .L0 
     /tmp/ccaErzBx.s:187    .text:00000000000000cc .L0 
     /tmp/ccaErzBx.s:87     .text:0000000000000060 .L5
     /tmp/ccaErzBx.s:69     .text:0000000000000048 .L1
     /tmp/ccaErzBx.s:177    .text:00000000000000c4 .L9
     /tmp/ccaErzBx.s:170    .text:00000000000000bc .L11
     /tmp/ccaErzBx.s:143    .text:000000000000009c .L8
     /tmp/ccaErzBx.s:155    .text:00000000000000a4 .L6
     /tmp/ccaErzBx.s:765    .debug_abbrev:0000000000000000 .Ldebug_abbrev0
     /tmp/ccaErzBx.s:1746   .debug_str:00000000000001b2 .LASF46
     /tmp/ccaErzBx.s:1756   .debug_str:00000000000002bf .LASF47
     /tmp/ccaErzBx.s:1772   .debug_str:0000000000000341 .LASF48
     /tmp/ccaErzBx.s:5      .text:0000000000000000 .Ltext0
     /tmp/ccaErzBx.s:184    .text:00000000000000cc .Letext0
     /tmp/ccaErzBx.s:1688   .debug_line:0000000000000000 .Ldebug_line0
     /tmp/ccaErzBx.s:1754   .debug_str:00000000000002b2 .LASF0
     /tmp/ccaErzBx.s:1734   .debug_str:0000000000000140 .LASF1
     /tmp/ccaErzBx.s:1722   .debug_str:00000000000000e0 .LASF2
     /tmp/ccaErzBx.s:1704   .debug_str:000000000000006d .LASF4
     /tmp/ccaErzBx.s:1732   .debug_str:000000000000012e .LASF3
     /tmp/ccaErzBx.s:1698   .debug_str:0000000000000053 .LASF5
     /tmp/ccaErzBx.s:1694   .debug_str:0000000000000024 .LASF6
     /tmp/ccaErzBx.s:1716   .debug_str:00000000000000b9 .LASF7
     /tmp/ccaErzBx.s:1760   .debug_str:00000000000002db .LASF8
     /tmp/ccaErzBx.s:1702   .debug_str:000000000000005f .LASF9
     /tmp/ccaErzBx.s:1798   .debug_str:00000000000003fa .LASF10
     /tmp/ccaErzBx.s:1720   .debug_str:00000000000000d1 .LASF11
     /tmp/ccaErzBx.s:1782   .debug_str:000000000000039d .LASF12
     /tmp/ccaErzBx.s:1764   .debug_str:0000000000000301 .LASF13
     /tmp/ccaErzBx.s:1736   .debug_str:0000000000000153 .LASF14
     /tmp/ccaErzBx.s:1712   .debug_str:0000000000000097 .LASF15
     /tmp/ccaErzBx.s:1762   .debug_str:00000000000002eb .LASF16
     /tmp/ccaErzBx.s:1708   .debug_str:000000000000007d .LASF17
     /tmp/ccaErzBx.s:1714   .debug_str:00000000000000ad .LASF26
     /tmp/ccaErzBx.s:1780   .debug_str:0000000000000398 .LASF20
     /tmp/ccaErzBx.s:1718   .debug_str:00000000000000cc .LASF18
     /tmp/ccaErzBx.s:1700   .debug_str:000000000000005a .LASF19
     /tmp/ccaErzBx.s:1750   .debug_str:0000000000000286 .LASF22
     /tmp/ccaErzBx.s:1786   .debug_str:00000000000003b7 .LASF21
     /tmp/ccaErzBx.s:1744   .debug_str:0000000000000198 .LASF23
     /tmp/ccaErzBx.s:1748   .debug_str:0000000000000276 .LASF49
     /tmp/ccaErzBx.s:1740   .debug_str:0000000000000165 .LASF50
GAS LISTING /tmp/ccaErzBx.s 			page 8


     /tmp/ccaErzBx.s:1738   .debug_str:000000000000015f .LASF24
     /tmp/ccaErzBx.s:1792   .debug_str:00000000000003d3 .LASF25
     /tmp/ccaErzBx.s:1710   .debug_str:0000000000000082 .LASF28
     /tmp/ccaErzBx.s:1742   .debug_str:0000000000000180 .LASF31
     /tmp/ccaErzBx.s:1784   .debug_str:00000000000003ad .LASF51
     /tmp/ccaErzBx.s:1778   .debug_str:0000000000000380 .LASF52
     /tmp/ccaErzBx.s:1796   .debug_str:00000000000003ed .LASF27
     /tmp/ccaErzBx.s:1794   .debug_str:00000000000003d8 .LASF29
     /tmp/ccaErzBx.s:1768   .debug_str:000000000000031a .LASF30
     /tmp/ccaErzBx.s:1774   .debug_str:000000000000035f .LASF32
     /tmp/ccaErzBx.s:1758   .debug_str:00000000000002d3 .LASF33
     /tmp/ccaErzBx.s:1770   .debug_str:0000000000000322 .LASF34
     /tmp/ccaErzBx.s:1706   .debug_str:0000000000000074 .LASF35
     /tmp/ccaErzBx.s:1696   .debug_str:0000000000000037 .LASF36
     /tmp/ccaErzBx.s:1728   .debug_str:0000000000000111 .LASF37
     /tmp/ccaErzBx.s:1692   .debug_str:000000000000000e .LASF53
     /tmp/ccaErzBx.s:102    .text:000000000000006c .LFB18
     /tmp/ccaErzBx.s:182    .text:00000000000000cc .LFE18
     /tmp/ccaErzBx.s:1724   .debug_str:00000000000000ee .LASF39
     /tmp/ccaErzBx.s:1544   .debug_loc:0000000000000000 .LLST6
     /tmp/ccaErzBx.s:1776   .debug_str:000000000000037b .LASF38
     /tmp/ccaErzBx.s:1566   .debug_loc:000000000000005f .LLST7
     /tmp/ccaErzBx.s:1577   .debug_loc:0000000000000095 .LLST8
     /tmp/ccaErzBx.s:119    .text:0000000000000084 .LBB19
     /tmp/ccaErzBx.s:127    .text:0000000000000088 .LBE19
     /tmp/ccaErzBx.s:1588   .debug_loc:00000000000000cb .LLST9
     /tmp/ccaErzBx.s:146    .text:000000000000009c .LBB21
     /tmp/ccaErzBx.s:153    .text:00000000000000a4 .LBE21
     /tmp/ccaErzBx.s:1595   .debug_loc:00000000000000ee .LLST10
     /tmp/ccaErzBx.s:151    .text:00000000000000a4 .LVL15
     /tmp/ccaErzBx.s:10     .text:0000000000000000 .LFB17
     /tmp/ccaErzBx.s:96     .text:000000000000006c .LFE17
     /tmp/ccaErzBx.s:1602   .debug_loc:0000000000000111 .LLST0
     /tmp/ccaErzBx.s:1624   .debug_loc:0000000000000170 .LLST1
     /tmp/ccaErzBx.s:1730   .debug_str:0000000000000126 .LASF40
     /tmp/ccaErzBx.s:31     .text:0000000000000020 .LBB13
     /tmp/ccaErzBx.s:41     .text:000000000000002c .LBE13
     /tmp/ccaErzBx.s:1646   .debug_loc:00000000000001cf .LLST2
     /tmp/ccaErzBx.s:39     .text:000000000000002c .LVL3
     /tmp/ccaErzBx.s:42     .text:000000000000002c .LBB15
     /tmp/ccaErzBx.s:49     .text:0000000000000034 .LBE15
     /tmp/ccaErzBx.s:1654   .debug_loc:00000000000001f3 .LLST3
     /tmp/ccaErzBx.s:1661   .debug_loc:0000000000000216 .LLST4
     /tmp/ccaErzBx.s:51     .text:0000000000000034 .LBB17
     /tmp/ccaErzBx.s:59     .text:0000000000000038 .LBE17
     /tmp/ccaErzBx.s:1668   .debug_loc:0000000000000239 .LLST5
     /tmp/ccaErzBx.s:1790   .debug_str:00000000000003ce .LASF41
     /tmp/ccaErzBx.s:1726   .debug_str:00000000000000f3 .LASF54
     /tmp/ccaErzBx.s:1690   .debug_str:0000000000000000 .LASF42
     /tmp/ccaErzBx.s:1766   .debug_str:0000000000000311 .LASF44
     /tmp/ccaErzBx.s:1752   .debug_str:00000000000002a4 .LASF43
     /tmp/ccaErzBx.s:1788   .debug_str:00000000000003c4 .LASF45
     /tmp/ccaErzBx.s:105    .text:000000000000006c .LVL9
     /tmp/ccaErzBx.s:124    .text:0000000000000088 .LVL11
     /tmp/ccaErzBx.s:169    .text:00000000000000bc .LVL16
     /tmp/ccaErzBx.s:131    .text:000000000000008c .LVL12
     /tmp/ccaErzBx.s:176    .text:00000000000000c4 .LVL17
GAS LISTING /tmp/ccaErzBx.s 			page 9


     /tmp/ccaErzBx.s:135    .text:0000000000000090 .LVL13
     /tmp/ccaErzBx.s:118    .text:0000000000000084 .LVL10
     /tmp/ccaErzBx.s:145    .text:000000000000009c .LVL14
     /tmp/ccaErzBx.s:14     .text:0000000000000000 .LVL0
     /tmp/ccaErzBx.s:37     .text:0000000000000024 .LVL2
     /tmp/ccaErzBx.s:79     .text:0000000000000054 .LVL6
     /tmp/ccaErzBx.s:86     .text:0000000000000060 .LVL8
     /tmp/ccaErzBx.s:82     .text:0000000000000058 .LVL7
     /tmp/ccaErzBx.s:30     .text:0000000000000020 .LVL1
     /tmp/ccaErzBx.s:47     .text:0000000000000034 .LVL4
     /tmp/ccaErzBx.s:56     .text:0000000000000038 .LVL5
     /tmp/ccaErzBx.s:188    .debug_info:0000000000000000 .Ldebug_info0

UNDEFINED SYMBOLS
_Z9mem_allocm
_Z8mem_freePv
