GAS LISTING /tmp/ccJOOExl.s 			page 1


   1              		.file	"userMain.cpp"
   2              		.option pic
   3              		.option norelax
   4              		.text
   5              	.Ltext0:
   6              		.section	.rodata.str1.8,"aMS",@progbits,1
   7              		.align	3
   8              	.LC0:
   9 0000 556E6573 		.string	"Unesite broj testa? [1-7]\n"
   9      69746520 
   9      62726F6A 
   9      20746573 
   9      74613F20 
  10 001b 00000000 		.align	3
  10      00
  11              	.LC1:
  12 0020 4E696A65 		.string	"Nije navedeno da je zadatak 3 implementiran\n"
  12      206E6176 
  12      6564656E 
  12      6F206461 
  12      206A6520 
  13 004d 000000   		.align	3
  14              	.LC2:
  15 0050 4E696A65 		.string	"Nije navedeno da je zadatak 4 implementiran\n"
  15      206E6176 
  15      6564656E 
  15      6F206461 
  15      206A6520 
  16 007d 000000   		.align	3
  17              	.LC3:
  18 0080 54455354 		.string	"TEST 1 (zadatak 2, niti C API i sinhrona promena konteksta)\n"
  18      20312028 
  18      7A616461 
  18      74616B20 
  18      322C206E 
  19 00bd 000000   		.align	3
  20              	.LC4:
  21 00c0 54455354 		.string	"TEST 2 (zadatak 2., niti CPP API i sinhrona promena konteksta)\n"
  21      20322028 
  21      7A616461 
  21      74616B20 
  21      322E2C20 
  22              		.align	3
  23              	.LC5:
  24 0100 54657374 		.string	"Test se nije uspesno zavrsio\n"
  24      20736520 
  24      6E696A65 
  24      20757370 
  24      65736E6F 
  25 011e 0000     		.align	3
  26              	.LC6:
  27 0120 54455354 		.string	"TEST 7 (zadatak 2., testiranje da li se korisnicki kod izvrsava u korisnickom rezimu)\n"
  27      20372028 
  27      7A616461 
  27      74616B20 
  27      322E2C20 
  28 0177 00       		.align	3
GAS LISTING /tmp/ccJOOExl.s 			page 2


  29              	.LC7:
  30 0178 4E697374 		.string	"Niste uneli odgovarajuci broj za test\n"
  30      6520756E 
  30      656C6920 
  30      6F64676F 
  30      76617261 
  31              		.text
  32              		.align	2
  33              		.globl	_Z8userMainv
  35              	_Z8userMainv:
  36              	.LFB0:
  37              		.file 1 "src/userMain.cpp"
   1:src/userMain.cpp **** #include "../h/printing.hpp"
   2:src/userMain.cpp **** 
   3:src/userMain.cpp **** #define LEVEL_1_IMPLEMENTED 0
   4:src/userMain.cpp **** #define LEVEL_2_IMPLEMENTED 1
   5:src/userMain.cpp **** #define LEVEL_3_IMPLEMENTED 0
   6:src/userMain.cpp **** #define LEVEL_4_IMPLEMENTED 0
   7:src/userMain.cpp **** 
   8:src/userMain.cpp **** #if LEVEL_2_IMPLEMENTED == 1
   9:src/userMain.cpp **** // TEST 1 (zadatak 2, niti C API i sinhrona promena konteksta)
  10:src/userMain.cpp **** #include "../h/Threads_C_API_test.hpp"
  11:src/userMain.cpp **** // TEST 2 (zadatak 2., niti CPP API i sinhrona promena konteksta)
  12:src/userMain.cpp **** #include "../h/Threads_CPP_API_test.hpp"
  13:src/userMain.cpp **** // TEST 7 (zadatak 2., testiranje da li se korisnicki kod izvrsava u korisnickom rezimu)
  14:src/userMain.cpp **** #include "../h/System_Mode_test.hpp"
  15:src/userMain.cpp **** #endif
  16:src/userMain.cpp **** 
  17:src/userMain.cpp **** #if LEVEL_3_IMPLEMENTED == 1
  18:src/userMain.cpp **** // TEST 3 (zadatak 3., kompletan C API sa semaforima, sinhrona promena konteksta)
  19:src/userMain.cpp **** #include "../h/ConsumerProducer_C_API_test.hpp"
  20:src/userMain.cpp **** // TEST 4 (zadatak 3., kompletan CPP API sa semaforima, sinhrona promena konteksta)
  21:src/userMain.cpp **** #include "../h/ConsumerProducer_CPP_Sync_API_test.hpp"
  22:src/userMain.cpp **** #endif
  23:src/userMain.cpp **** 
  24:src/userMain.cpp **** #if LEVEL_4_IMPLEMENTED == 1
  25:src/userMain.cpp **** // TEST 5 (zadatak 4., thread_sleep test C API)
  26:src/userMain.cpp **** #include "../h/ThreadSleep_C_API_test.hpp"
  27:src/userMain.cpp **** // TEST 6 (zadatak 4. CPP API i asinhrona promena konteksta)
  28:src/userMain.cpp **** #include "../h/ConsumerProducer_CPP_API_test.hpp"
  29:src/userMain.cpp **** #include "../h/System_Mode_test.hpp"
  30:src/userMain.cpp **** 
  31:src/userMain.cpp **** #endif
  32:src/userMain.cpp **** 
  33:src/userMain.cpp **** void userMain() {
  38              		.loc 1 33 17
  39              		.cfi_startproc
  40 0000 130101FE 		addi	sp,sp,-32
  41              		.cfi_def_cfa_offset 32
  42 0004 233C1100 		sd	ra,24(sp)
  43 0008 23388100 		sd	s0,16(sp)
  44 000c 23349100 		sd	s1,8(sp)
  45 0010 23302101 		sd	s2,0(sp)
  46              		.cfi_offset 1, -8
  47              		.cfi_offset 8, -16
  48              		.cfi_offset 9, -24
  49              		.cfi_offset 18, -32
GAS LISTING /tmp/ccJOOExl.s 			page 3


  50 0014 13040102 		addi	s0,sp,32
  51              		.cfi_def_cfa 8, 0
  34:src/userMain.cpp ****     printString("Unesite broj testa? [1-7]\n");
  52              		.loc 1 34 5
  53              		.loc 1 34 16 is_stmt 0
  54 0018 17050000 		lla	a0,.LC0
  54      13050500 
  55 0020 97000000 		call	_Z11printStringPKc@plt
  55      E7800000 
  56              	.LVL0:
  35:src/userMain.cpp ****     int test = getc() - '0';
  57              		.loc 1 35 5 is_stmt 1
  58              		.loc 1 35 20 is_stmt 0
  59 0028 97000000 		call	_Z4getcv@plt
  59      E7800000 
  60              	.LVL1:
  61 0030 1B090500 		sext.w	s2,a0
  62              		.loc 1 35 25
  63 0034 9B0405FD 		addiw	s1,a0,-48
  64              	.LVL2:
  36:src/userMain.cpp ****     getc(); // Enter posle broja
  65              		.loc 1 36 5 is_stmt 1
  66              		.loc 1 36 9 is_stmt 0
  67 0038 97000000 		call	_Z4getcv@plt
  67      E7800000 
  68              	.LVL3:
  37:src/userMain.cpp **** 
  38:src/userMain.cpp ****     if ((test >= 1 && test <= 2) || test == 7) {
  69              		.loc 1 38 5 is_stmt 1
  39:src/userMain.cpp ****         if (LEVEL_2_IMPLEMENTED == 0) {
  40:src/userMain.cpp ****             printString("Nije navedeno da je zadatak 2 implementiran\n");
  41:src/userMain.cpp ****             return;
  42:src/userMain.cpp ****         }
  43:src/userMain.cpp ****     }
  44:src/userMain.cpp **** 
  45:src/userMain.cpp ****     if (test >= 3 && test <= 4) {
  70              		.loc 1 45 5
  71              		.loc 1 45 19 is_stmt 0
  72 0040 1B07D9FC 		addiw	a4,s2,-51
  73              		.loc 1 45 5
  74 0044 93071000 		li	a5,1
  75 0048 63F6E704 		bleu	a4,a5,.L11
  46:src/userMain.cpp ****         if (LEVEL_3_IMPLEMENTED == 0) {
  47:src/userMain.cpp ****             printString("Nije navedeno da je zadatak 3 implementiran\n");
  48:src/userMain.cpp ****             return;
  49:src/userMain.cpp ****         }
  50:src/userMain.cpp ****     }
  51:src/userMain.cpp **** 
  52:src/userMain.cpp ****     if (test >= 5 && test <= 6) {
  76              		.loc 1 52 5 is_stmt 1
  77              		.loc 1 52 19 is_stmt 0
  78 004c 1B09B9FC 		addiw	s2,s2,-53
  79              	.LVL4:
  80              		.loc 1 52 5
  81 0050 93071000 		li	a5,1
  82 0054 63F42707 		bleu	s2,a5,.L12
  53:src/userMain.cpp ****         if (LEVEL_4_IMPLEMENTED == 0) {
GAS LISTING /tmp/ccJOOExl.s 			page 4


  54:src/userMain.cpp ****             printString("Nije navedeno da je zadatak 4 implementiran\n");
  55:src/userMain.cpp ****             return;
  56:src/userMain.cpp ****         }
  57:src/userMain.cpp ****     }
  58:src/userMain.cpp **** 
  59:src/userMain.cpp ****     switch (test) {
  83              		.loc 1 59 5 is_stmt 1
  84 0058 93076000 		li	a5,6
  85 005c 63CA9706 		bgt	s1,a5,.L5
  86 0060 93073000 		li	a5,3
  87 0064 63D0F404 		bge	s1,a5,.L1
  88 0068 93071000 		li	a5,1
  89 006c 638CF408 		beq	s1,a5,.L6
  90 0070 93072000 		li	a5,2
  91 0074 6396F40A 		bne	s1,a5,.L8
  60:src/userMain.cpp ****         case 1:
  61:src/userMain.cpp **** #if LEVEL_2_IMPLEMENTED == 1
  62:src/userMain.cpp ****             Threads_C_API_test();
  63:src/userMain.cpp ****             printString("TEST 1 (zadatak 2, niti C API i sinhrona promena konteksta)\n");
  64:src/userMain.cpp **** #endif
  65:src/userMain.cpp ****             break;
  66:src/userMain.cpp ****         case 2:
  92              		.loc 1 66 9
  67:src/userMain.cpp **** #if LEVEL_2_IMPLEMENTED == 1
  68:src/userMain.cpp ****             Threads_CPP_API_test();
  93              		.loc 1 68 13
  94              		.loc 1 68 33 is_stmt 0
  95 0078 97000000 		call	_Z20Threads_CPP_API_testv@plt
  95      E7800000 
  96              	.LVL5:
  69:src/userMain.cpp ****             printString("TEST 2 (zadatak 2., niti CPP API i sinhrona promena konteksta)\n");
  97              		.loc 1 69 13 is_stmt 1
  98              		.loc 1 69 24 is_stmt 0
  99 0080 17050000 		lla	a0,.LC4
  99      13050500 
 100 0088 97000000 		call	_Z11printStringPKc@plt
 100      E7800000 
 101              	.LVL6:
  70:src/userMain.cpp **** #endif
  71:src/userMain.cpp ****             break;
 102              		.loc 1 71 13 is_stmt 1
 103 0090 6F004001 		j	.L1
 104              	.LVL7:
 105              	.L11:
  46:src/userMain.cpp ****             printString("Nije navedeno da je zadatak 3 implementiran\n");
 106              		.loc 1 46 9
  47:src/userMain.cpp ****             return;
 107              		.loc 1 47 13
  47:src/userMain.cpp ****             return;
 108              		.loc 1 47 24 is_stmt 0
 109 0094 17050000 		lla	a0,.LC1
 109      13050500 
 110 009c 97000000 		call	_Z11printStringPKc@plt
 110      E7800000 
 111              	.LVL8:
  48:src/userMain.cpp ****         }
 112              		.loc 1 48 13 is_stmt 1
GAS LISTING /tmp/ccJOOExl.s 			page 5


 113              	.L1:
  72:src/userMain.cpp ****         case 3:
  73:src/userMain.cpp **** #if LEVEL_3_IMPLEMENTED == 1
  74:src/userMain.cpp ****             producerConsumer_C_API();
  75:src/userMain.cpp ****             printString("TEST 3 (zadatak 3., kompletan C API sa semaforima, sinhrona promena kontek
  76:src/userMain.cpp **** #endif
  77:src/userMain.cpp ****             break;
  78:src/userMain.cpp ****         case 4:
  79:src/userMain.cpp **** #if LEVEL_3_IMPLEMENTED == 1
  80:src/userMain.cpp ****             producerConsumer_CPP_Sync_API();
  81:src/userMain.cpp ****             printString("TEST 4 (zadatak 3., kompletan CPP API sa semaforima, sinhrona promena kont
  82:src/userMain.cpp **** #endif
  83:src/userMain.cpp ****             break;
  84:src/userMain.cpp ****         case 5:
  85:src/userMain.cpp **** #if LEVEL_4_IMPLEMENTED == 1
  86:src/userMain.cpp ****             testSleeping();
  87:src/userMain.cpp ****             printString("TEST 5 (zadatak 4., thread_sleep test C API)\n");
  88:src/userMain.cpp **** #endif
  89:src/userMain.cpp ****             break;
  90:src/userMain.cpp ****         case 6:
  91:src/userMain.cpp **** #if LEVEL_4_IMPLEMENTED == 1
  92:src/userMain.cpp ****             testConsumerProducer();
  93:src/userMain.cpp ****             printString("TEST 6 (zadatak 4. CPP API i asinhrona promena konteksta)\n");
  94:src/userMain.cpp **** #endif
  95:src/userMain.cpp ****             break;
  96:src/userMain.cpp ****         case 7:
  97:src/userMain.cpp **** #if LEVEL_2_IMPLEMENTED == 1
  98:src/userMain.cpp ****             System_Mode_test();
  99:src/userMain.cpp ****             printString("Test se nije uspesno zavrsio\n");
 100:src/userMain.cpp ****             printString("TEST 7 (zadatak 2., testiranje da li se korisnicki kod izvrsava u korisnic
 101:src/userMain.cpp **** #endif
 102:src/userMain.cpp ****             break;
 103:src/userMain.cpp ****         default:
 104:src/userMain.cpp ****             printString("Niste uneli odgovarajuci broj za test\n");
 105:src/userMain.cpp ****     }
 106:src/userMain.cpp **** }...
 114              		.loc 1 106 1 is_stmt 0
 115 00a4 83308101 		ld	ra,24(sp)
 116              		.cfi_remember_state
 117              		.cfi_restore 1
 118 00a8 03340101 		ld	s0,16(sp)
 119              		.cfi_restore 8
 120              		.cfi_def_cfa 2, 32
 121 00ac 83348100 		ld	s1,8(sp)
 122              		.cfi_restore 9
 123 00b0 03390100 		ld	s2,0(sp)
 124              		.cfi_restore 18
 125 00b4 13010102 		addi	sp,sp,32
 126              		.cfi_def_cfa_offset 0
 127 00b8 67800000 		jr	ra
 128              	.L12:
 129              		.cfi_restore_state
  53:src/userMain.cpp ****         if (LEVEL_4_IMPLEMENTED == 0) {
 130              		.loc 1 53 9 is_stmt 1
  54:src/userMain.cpp ****             printString("Nije navedeno da je zadatak 4 implementiran\n");
 131              		.loc 1 54 13
  54:src/userMain.cpp ****             printString("Nije navedeno da je zadatak 4 implementiran\n");
GAS LISTING /tmp/ccJOOExl.s 			page 6


 132              		.loc 1 54 24 is_stmt 0
 133 00bc 17050000 		lla	a0,.LC2
 133      13050500 
 134 00c4 97000000 		call	_Z11printStringPKc@plt
 134      E7800000 
 135              	.LVL9:
  55:src/userMain.cpp ****             return;
 136              		.loc 1 55 13 is_stmt 1
 137 00cc 6FF09FFD 		j	.L1
 138              	.L5:
  59:src/userMain.cpp ****     switch (test) {
 139              		.loc 1 59 5 is_stmt 0
 140 00d0 93077000 		li	a5,7
 141 00d4 6396F404 		bne	s1,a5,.L8
  96:src/userMain.cpp ****         case 7:
 142              		.loc 1 96 9 is_stmt 1
  98:src/userMain.cpp ****             System_Mode_test();
 143              		.loc 1 98 13
  98:src/userMain.cpp ****             System_Mode_test();
 144              		.loc 1 98 29 is_stmt 0
 145 00d8 97000000 		call	_Z16System_Mode_testv@plt
 145      E7800000 
 146              	.LVL10:
  99:src/userMain.cpp ****             printString("Test se nije uspesno zavrsio\n");
 147              		.loc 1 99 13 is_stmt 1
  99:src/userMain.cpp ****             printString("Test se nije uspesno zavrsio\n");
 148              		.loc 1 99 24 is_stmt 0
 149 00e0 17050000 		lla	a0,.LC5
 149      13050500 
 150 00e8 97000000 		call	_Z11printStringPKc@plt
 150      E7800000 
 151              	.LVL11:
 100:src/userMain.cpp ****             printString("TEST 7 (zadatak 2., testiranje da li se korisnicki kod izvrsava u korisnic
 152              		.loc 1 100 13 is_stmt 1
 100:src/userMain.cpp ****             printString("TEST 7 (zadatak 2., testiranje da li se korisnicki kod izvrsava u korisnic
 153              		.loc 1 100 24 is_stmt 0
 154 00f0 17050000 		lla	a0,.LC6
 154      13050500 
 155 00f8 97000000 		call	_Z11printStringPKc@plt
 155      E7800000 
 156              	.LVL12:
 102:src/userMain.cpp ****             break;
 157              		.loc 1 102 13 is_stmt 1
 158 0100 6FF05FFA 		j	.L1
 159              	.L6:
  60:src/userMain.cpp ****         case 1:
 160              		.loc 1 60 9
  62:src/userMain.cpp ****             Threads_C_API_test();
 161              		.loc 1 62 13
  62:src/userMain.cpp ****             Threads_C_API_test();
 162              		.loc 1 62 31 is_stmt 0
 163 0104 97000000 		call	_Z18Threads_C_API_testv@plt
 163      E7800000 
 164              	.LVL13:
  63:src/userMain.cpp ****             printString("TEST 1 (zadatak 2, niti C API i sinhrona promena konteksta)\n");
 165              		.loc 1 63 13 is_stmt 1
  63:src/userMain.cpp ****             printString("TEST 1 (zadatak 2, niti C API i sinhrona promena konteksta)\n");
GAS LISTING /tmp/ccJOOExl.s 			page 7


 166              		.loc 1 63 24 is_stmt 0
 167 010c 17050000 		lla	a0,.LC3
 167      13050500 
 168 0114 97000000 		call	_Z11printStringPKc@plt
 168      E7800000 
 169              	.LVL14:
  65:src/userMain.cpp ****             break;
 170              		.loc 1 65 13 is_stmt 1
 171 011c 6FF09FF8 		j	.L1
 172              	.L8:
 103:src/userMain.cpp ****         default:
 173              		.loc 1 103 9
 104:src/userMain.cpp ****             printString("Niste uneli odgovarajuci broj za test\n");
 174              		.loc 1 104 13
 104:src/userMain.cpp ****             printString("Niste uneli odgovarajuci broj za test\n");
 175              		.loc 1 104 24 is_stmt 0
 176 0120 17050000 		lla	a0,.LC7
 176      13050500 
 177 0128 97000000 		call	_Z11printStringPKc@plt
 177      E7800000 
 178              	.LVL15:
 179 0130 6FF05FF7 		j	.L1
 180              		.cfi_endproc
 181              	.LFE0:
 183              	.Letext0:
 184              		.file 2 "src/../h/../h/../lib/hw.h"
 185              		.file 3 "src/../h/printing.hpp"
 186              		.file 4 "src/../h/../h/syscall_c.hpp"
 187              		.file 5 "src/../h/Threads_CPP_API_test.hpp"
 188              		.file 6 "src/../h/System_Mode_test.hpp"
 189              		.file 7 "src/../h/Threads_C_API_test.hpp"
GAS LISTING /tmp/ccJOOExl.s 			page 8

