GAS LISTING /tmp/ccIqOuhT.s 			page 1


   1              		.file	"maincpp.cpp"
   2              		.option pic
   3              		.option norelax
   4              		.text
   5              	.Ltext0:
   6              		.section	.text._ZN10IdleThread3runEv,"axG",@progbits,_ZN10IdleThread3runEv,comdat
   7              		.align	2
   8              		.weak	_ZN10IdleThread3runEv
  10              	_ZN10IdleThread3runEv:
  11              	.LFB44:
  12              		.file 1 "visak/maincpp.cpp"
   1:visak/maincpp.cpp **** //
   2:visak/maincpp.cpp **** // Created by os on 6/27/23.
   3:visak/maincpp.cpp **** //
   4:visak/maincpp.cpp **** #include "../lib/hw.h"
   5:visak/maincpp.cpp **** #include "../h/Riscv.hpp"
   6:visak/maincpp.cpp **** #include "../h/KMemory.hpp"
   7:visak/maincpp.cpp **** #include "../h/KConsole.hpp"
   8:visak/maincpp.cpp **** #include "../h/TCB.hpp"
   9:visak/maincpp.cpp **** #include "../h/syscall_c.hpp"
  10:visak/maincpp.cpp **** #include "../h/syscall_cpp.hpp"
  11:visak/maincpp.cpp **** 
  12:visak/maincpp.cpp **** class IdleThread : public Thread {
  13:visak/maincpp.cpp ****     void run() override {
  13              		.loc 1 13 10
  14              		.cfi_startproc
  15              	.LVL0:
  16 0000 130101FF 		addi	sp,sp,-16
  17              		.cfi_def_cfa_offset 16
  18 0004 23341100 		sd	ra,8(sp)
  19 0008 23308100 		sd	s0,0(sp)
  20              		.cfi_offset 1, -8
  21              		.cfi_offset 8, -16
  22 000c 13040101 		addi	s0,sp,16
  23              		.cfi_def_cfa 8, 0
  24              	.LVL1:
  25              	.L2:
  14:visak/maincpp.cpp ****         while (1) { thread_dispatch(); }
  26              		.loc 1 14 9 discriminator 1
  27              		.loc 1 14 21 discriminator 1
  28              		.loc 1 14 36 is_stmt 0 discriminator 1
  29 0010 97000000 		call	_Z15thread_dispatchv@plt
  29      E7800000 
  30              	.LVL2:
  31              		.loc 1 14 9 is_stmt 1 discriminator 1
  32 0018 6FF09FFF 		j	.L2
  33              		.cfi_endproc
  34              	.LFE44:
  36              		.section	.text._ZN10IdleThreadD2Ev,"axG",@progbits,_ZN10IdleThreadD5Ev,comdat
  37              		.align	2
  38              		.weak	_ZN10IdleThreadD2Ev
  40              	_ZN10IdleThreadD2Ev:
  41              	.LFB58:
  12:visak/maincpp.cpp ****     void run() override {
  42              		.loc 1 12 7
  43              		.cfi_startproc
  44              	.LVL3:
GAS LISTING /tmp/ccIqOuhT.s 			page 2


  45 0000 130101FF 		addi	sp,sp,-16
  46              		.cfi_def_cfa_offset 16
  47 0004 23341100 		sd	ra,8(sp)
  48 0008 23308100 		sd	s0,0(sp)
  49              		.cfi_offset 1, -8
  50              		.cfi_offset 8, -16
  51 000c 13040101 		addi	s0,sp,16
  52              		.cfi_def_cfa 8, 0
  53              	.LBB31:
  12:visak/maincpp.cpp ****     void run() override {
  54              		.loc 1 12 7 is_stmt 0
  55 0010 97070000 		lla	a5,_ZTV10IdleThread+16
  55      93870700 
  56 0018 2330F500 		sd	a5,0(a0)
  57 001c 97000000 		call	_ZN6ThreadD2Ev@plt
  57      E7800000 
  58              	.LVL4:
  59              	.LBE31:
  60 0024 83308100 		ld	ra,8(sp)
  61              		.cfi_restore 1
  62 0028 03340100 		ld	s0,0(sp)
  63              		.cfi_restore 8
  64              		.cfi_def_cfa 2, 16
  65 002c 13010101 		addi	sp,sp,16
  66              		.cfi_def_cfa_offset 0
  67 0030 67800000 		jr	ra
  68              		.cfi_endproc
  69              	.LFE58:
  71              		.weak	_ZN10IdleThreadD1Ev
  72              		.set	_ZN10IdleThreadD1Ev,_ZN10IdleThreadD2Ev
  73              		.section	.text._ZN10IdleThreadD0Ev,"axG",@progbits,_ZN10IdleThreadD5Ev,comdat
  74              		.align	2
  75              		.weak	_ZN10IdleThreadD0Ev
  77              	_ZN10IdleThreadD0Ev:
  78              	.LFB60:
  12:visak/maincpp.cpp ****     void run() override {
  79              		.loc 1 12 7 is_stmt 1
  80              		.cfi_startproc
  81              	.LVL5:
  82 0000 130101FE 		addi	sp,sp,-32
  83              		.cfi_def_cfa_offset 32
  84 0004 233C1100 		sd	ra,24(sp)
  85 0008 23388100 		sd	s0,16(sp)
  86 000c 23349100 		sd	s1,8(sp)
  87              		.cfi_offset 1, -8
  88              		.cfi_offset 8, -16
  89              		.cfi_offset 9, -24
  90 0010 13040102 		addi	s0,sp,32
  91              		.cfi_def_cfa 8, 0
  92 0014 93040500 		mv	s1,a0
  93              	.LVL6:
  94              	.LBB32:
  95              	.LBB33:
  12:visak/maincpp.cpp ****     void run() override {
  96              		.loc 1 12 7 is_stmt 0
  97 0018 97070000 		lla	a5,_ZTV10IdleThread+16
  97      93870700 
GAS LISTING /tmp/ccIqOuhT.s 			page 3


  98 0020 2330F500 		sd	a5,0(a0)
  99 0024 97000000 		call	_ZN6ThreadD2Ev@plt
  99      E7800000 
 100              	.LVL7:
 101              	.LBE33:
 102              	.LBE32:
 103 002c 13850400 		mv	a0,s1
 104 0030 97000000 		call	_ZdlPv@plt
 104      E7800000 
 105              	.LVL8:
 106 0038 83308101 		ld	ra,24(sp)
 107              		.cfi_restore 1
 108 003c 03340101 		ld	s0,16(sp)
 109              		.cfi_restore 8
 110              		.cfi_def_cfa 2, 32
 111 0040 83348100 		ld	s1,8(sp)
 112              		.cfi_restore 9
 113              	.LVL9:
 114 0044 13010102 		addi	sp,sp,32
 115              		.cfi_def_cfa_offset 0
 116 0048 67800000 		jr	ra
 117              		.cfi_endproc
 118              	.LFE60:
 120              		.section	.text._ZN14KernelConsumerD2Ev,"axG",@progbits,_ZN14KernelConsumerD5Ev,comdat
 121              		.align	2
 122              		.weak	_ZN14KernelConsumerD2Ev
 124              	_ZN14KernelConsumerD2Ev:
 125              	.LFB54:
  15:visak/maincpp.cpp ****     }
  16:visak/maincpp.cpp **** };
  17:visak/maincpp.cpp **** 
  18:visak/maincpp.cpp **** class KernelConsumer : public Thread {
 126              		.loc 1 18 7 is_stmt 1
 127              		.cfi_startproc
 128              	.LVL10:
 129 0000 130101FF 		addi	sp,sp,-16
 130              		.cfi_def_cfa_offset 16
 131 0004 23341100 		sd	ra,8(sp)
 132 0008 23308100 		sd	s0,0(sp)
 133              		.cfi_offset 1, -8
 134              		.cfi_offset 8, -16
 135 000c 13040101 		addi	s0,sp,16
 136              		.cfi_def_cfa 8, 0
 137              	.LBB34:
 138              		.loc 1 18 7 is_stmt 0
 139 0010 97070000 		lla	a5,_ZTV14KernelConsumer+16
 139      93870700 
 140 0018 2330F500 		sd	a5,0(a0)
 141 001c 97000000 		call	_ZN6ThreadD2Ev@plt
 141      E7800000 
 142              	.LVL11:
 143              	.LBE34:
 144 0024 83308100 		ld	ra,8(sp)
 145              		.cfi_restore 1
 146 0028 03340100 		ld	s0,0(sp)
 147              		.cfi_restore 8
 148              		.cfi_def_cfa 2, 16
GAS LISTING /tmp/ccIqOuhT.s 			page 4


 149 002c 13010101 		addi	sp,sp,16
 150              		.cfi_def_cfa_offset 0
 151 0030 67800000 		jr	ra
 152              		.cfi_endproc
 153              	.LFE54:
 155              		.weak	_ZN14KernelConsumerD1Ev
 156              		.set	_ZN14KernelConsumerD1Ev,_ZN14KernelConsumerD2Ev
 157              		.section	.text._ZN14KernelConsumerD0Ev,"axG",@progbits,_ZN14KernelConsumerD5Ev,comdat
 158              		.align	2
 159              		.weak	_ZN14KernelConsumerD0Ev
 161              	_ZN14KernelConsumerD0Ev:
 162              	.LFB56:
 163              		.loc 1 18 7 is_stmt 1
 164              		.cfi_startproc
 165              	.LVL12:
 166 0000 130101FE 		addi	sp,sp,-32
 167              		.cfi_def_cfa_offset 32
 168 0004 233C1100 		sd	ra,24(sp)
 169 0008 23388100 		sd	s0,16(sp)
 170 000c 23349100 		sd	s1,8(sp)
 171              		.cfi_offset 1, -8
 172              		.cfi_offset 8, -16
 173              		.cfi_offset 9, -24
 174 0010 13040102 		addi	s0,sp,32
 175              		.cfi_def_cfa 8, 0
 176 0014 93040500 		mv	s1,a0
 177              	.LVL13:
 178              	.LBB35:
 179              	.LBB36:
 180              		.loc 1 18 7 is_stmt 0
 181 0018 97070000 		lla	a5,_ZTV14KernelConsumer+16
 181      93870700 
 182 0020 2330F500 		sd	a5,0(a0)
 183 0024 97000000 		call	_ZN6ThreadD2Ev@plt
 183      E7800000 
 184              	.LVL14:
 185              	.LBE36:
 186              	.LBE35:
 187 002c 13850400 		mv	a0,s1
 188 0030 97000000 		call	_ZdlPv@plt
 188      E7800000 
 189              	.LVL15:
 190 0038 83308101 		ld	ra,24(sp)
 191              		.cfi_restore 1
 192 003c 03340101 		ld	s0,16(sp)
 193              		.cfi_restore 8
 194              		.cfi_def_cfa 2, 32
 195 0040 83348100 		ld	s1,8(sp)
 196              		.cfi_restore 9
 197              	.LVL16:
 198 0044 13010102 		addi	sp,sp,32
 199              		.cfi_def_cfa_offset 0
 200 0048 67800000 		jr	ra
 201              		.cfi_endproc
 202              	.LFE56:
 204              		.section	.text._ZN14KernelConsumer3runEv,"axG",@progbits,_ZN14KernelConsumer3runEv,comdat
 205              		.align	2
GAS LISTING /tmp/ccIqOuhT.s 			page 5


 206              		.weak	_ZN14KernelConsumer3runEv
 208              	_ZN14KernelConsumer3runEv:
 209              	.LFB45:
  19:visak/maincpp.cpp ****     void run() override {
 210              		.loc 1 19 10 is_stmt 1
 211              		.cfi_startproc
 212              	.LVL17:
 213 0000 130101FF 		addi	sp,sp,-16
 214              		.cfi_def_cfa_offset 16
 215 0004 23341100 		sd	ra,8(sp)
 216 0008 23308100 		sd	s0,0(sp)
 217              		.cfi_offset 1, -8
 218              		.cfi_offset 8, -16
 219 000c 13040101 		addi	s0,sp,16
 220              		.cfi_def_cfa 8, 0
 221 0010 6F008002 		j	.L14
 222              	.LVL18:
 223              	.L16:
 224              	.LBB37:
  20:visak/maincpp.cpp ****         while (1) {
  21:visak/maincpp.cpp ****             char c = KConsole::getFromOutput();
  22:visak/maincpp.cpp ****             while (!(KConsole::getSRvalue() & CONSOLE_TX_STATUS_BIT)) {}
  23:visak/maincpp.cpp ****             KConsole::setDRvalue(c);
 225              		.loc 1 23 13
 226              	.LBB38:
 227              	.LBB39:
 228              		.file 2 "visak/../h/KConsole.hpp"
   1:visak/../h/KConsole.hpp **** //
   2:visak/../h/KConsole.hpp **** // Created by os on 6/7/23.
   3:visak/../h/KConsole.hpp **** //
   4:visak/../h/KConsole.hpp **** 
   5:visak/../h/KConsole.hpp **** #ifndef PROJEKAT2023_KCONSOLE_HPP
   6:visak/../h/KConsole.hpp **** #define PROJEKAT2023_KCONSOLE_HPP
   7:visak/../h/KConsole.hpp **** 
   8:visak/../h/KConsole.hpp **** #include "../lib/hw.h"
   9:visak/../h/KConsole.hpp **** 
  10:visak/../h/KConsole.hpp **** class KSem;
  11:visak/../h/KConsole.hpp **** 
  12:visak/../h/KConsole.hpp **** typedef KSem* sem_t;
  13:visak/../h/KConsole.hpp **** 
  14:visak/../h/KConsole.hpp **** class KConsole {
  15:visak/../h/KConsole.hpp **** public:
  16:visak/../h/KConsole.hpp ****     static void initKConsole();
  17:visak/../h/KConsole.hpp **** 
  18:visak/../h/KConsole.hpp ****     //stavlja karakter u izlazni bafer konzole
  19:visak/../h/KConsole.hpp ****     static void kputc(char c);
  20:visak/../h/KConsole.hpp **** 
  21:visak/../h/KConsole.hpp ****     //uzima karakter iz ulaznog bafera konzole
  22:visak/../h/KConsole.hpp ****     static char kgetc();
  23:visak/../h/KConsole.hpp **** 
  24:visak/../h/KConsole.hpp ****     //vraca karakter iz izlaznog bafera; ako je bafer prazan, blokira se dok se ne napuni
  25:visak/../h/KConsole.hpp ****     static char getFromOutput();
  26:visak/../h/KConsole.hpp **** 
  27:visak/../h/KConsole.hpp ****     //stavlja karakter u ulazni bafer; ako je bafer pun, ignorise se
  28:visak/../h/KConsole.hpp ****     static void placeInInput(char c);
  29:visak/../h/KConsole.hpp **** 
  30:visak/../h/KConsole.hpp ****     //ispis svih preostalih karaktera u izlaznom baferu
GAS LISTING /tmp/ccIqOuhT.s 			page 6


  31:visak/../h/KConsole.hpp ****     static void flush() {
  32:visak/../h/KConsole.hpp ****         __asm__ volatile("li a0, 0x43");
  33:visak/../h/KConsole.hpp ****         __asm__ volatile("ecall");
  34:visak/../h/KConsole.hpp ****     }
  35:visak/../h/KConsole.hpp **** 
  36:visak/../h/KConsole.hpp ****     static uint8 getSRvalue() { return *sr; }
  37:visak/../h/KConsole.hpp **** 
  38:visak/../h/KConsole.hpp ****     static uint8 getDRvalue() { return *dr; }
  39:visak/../h/KConsole.hpp **** 
  40:visak/../h/KConsole.hpp ****     static void setDRvalue(char c) { *dr = c; }
 229              		.loc 2 40 38
 230 0014 97070000 		la	a5,_ZN8KConsole2drE
 230      83B70700 
 231 001c 83B70700 		ld	a5,0(a5)
 232              		.loc 2 40 42 is_stmt 0
 233 0020 2380A700 		sb	a0,0(a5)
 234              	.LVL19:
 235              	.LBE39:
 236              	.LBE38:
  24:visak/maincpp.cpp ****             sem_signal(KConsole::getOutputBufferHasSpace());
 237              		.loc 1 24 13 is_stmt 1
 238              	.LBB40:
 239              	.LBB41:
  41:visak/../h/KConsole.hpp **** 
  42:visak/../h/KConsole.hpp ****     static sem_t getOutputBufferHasSpace() { return outputBufferHasSpace; }
 240              		.loc 2 42 46
 241              	.LBE41:
 242              	.LBE40:
 243              		.loc 1 24 23 is_stmt 0
 244 0024 97070000 		la	a5,_ZN8KConsole20outputBufferHasSpaceE
 244      83B70700 
 245 002c 03B50700 		ld	a0,0(a5)
 246              	.LVL20:
 247 0030 97000000 		call	_Z10sem_signalP4KSem@plt
 247      E7800000 
 248              	.LVL21:
 249              	.LBE37:
  20:visak/maincpp.cpp ****             char c = KConsole::getFromOutput();
 250              		.loc 1 20 9 is_stmt 1
 251              	.L14:
  20:visak/maincpp.cpp ****             char c = KConsole::getFromOutput();
 252              		.loc 1 20 9
 253              	.LBB44:
  21:visak/maincpp.cpp ****             while (!(KConsole::getSRvalue() & CONSOLE_TX_STATUS_BIT)) {}
 254              		.loc 1 21 13
  21:visak/maincpp.cpp ****             while (!(KConsole::getSRvalue() & CONSOLE_TX_STATUS_BIT)) {}
 255              		.loc 1 21 45 is_stmt 0
 256 0038 97000000 		call	_ZN8KConsole13getFromOutputEv@plt
 256      E7800000 
 257              	.LVL22:
 258              	.L13:
  22:visak/maincpp.cpp ****             KConsole::setDRvalue(c);
 259              		.loc 1 22 13 is_stmt 1
  22:visak/maincpp.cpp ****             KConsole::setDRvalue(c);
 260              		.loc 1 22 20
 261              	.LBB42:
 262              	.LBB43:
GAS LISTING /tmp/ccIqOuhT.s 			page 7


  36:visak/../h/KConsole.hpp **** 
 263              		.loc 2 36 33
  36:visak/../h/KConsole.hpp **** 
 264              		.loc 2 36 40 is_stmt 0
 265 0040 97070000 		la	a5,_ZN8KConsole2srE
 265      83B70700 
 266 0048 83B70700 		ld	a5,0(a5)
  36:visak/../h/KConsole.hpp **** 
 267              		.loc 2 36 41
 268 004c 83C70700 		lbu	a5,0(a5)
 269              	.LBE43:
 270              	.LBE42:
  22:visak/maincpp.cpp ****             KConsole::setDRvalue(c);
 271              		.loc 1 22 20
 272 0050 93F70702 		andi	a5,a5,32
 273 0054 E38607FE 		beqz	a5,.L13
 274 0058 6FF0DFFB 		j	.L16
 275              	.LBE44:
 276              		.cfi_endproc
 277              	.LFE45:
 279              		.text
 280              		.align	2
 281              		.globl	_Z7maincppv
 283              	_Z7maincppv:
 284              	.LFB46:
  25:visak/maincpp.cpp ****         }
  26:visak/maincpp.cpp ****     }
  27:visak/maincpp.cpp **** };
  28:visak/maincpp.cpp **** 
  29:visak/maincpp.cpp **** extern "C" void interruptHandler();
  30:visak/maincpp.cpp **** 
  31:visak/maincpp.cpp **** void userMain();
  32:visak/maincpp.cpp **** 
  33:visak/maincpp.cpp **** void user(void*);
  34:visak/maincpp.cpp **** void user2(void*);
  35:visak/maincpp.cpp **** int maincpp() {
 285              		.loc 1 35 15 is_stmt 1
 286              		.cfi_startproc
 287              		.cfi_personality 0x9b,DW.ref.__gxx_personality_v0
 288              		.cfi_lsda 0x1b,.LLSDA46
 289 0000 130101FC 		addi	sp,sp,-64
 290              		.cfi_def_cfa_offset 64
 291 0004 233C1102 		sd	ra,56(sp)
 292 0008 23388102 		sd	s0,48(sp)
 293 000c 23349102 		sd	s1,40(sp)
 294 0010 23302103 		sd	s2,32(sp)
 295 0014 233C3101 		sd	s3,24(sp)
 296              		.cfi_offset 1, -8
 297              		.cfi_offset 8, -16
 298              		.cfi_offset 9, -24
 299              		.cfi_offset 18, -32
 300              		.cfi_offset 19, -40
 301 0018 13040104 		addi	s0,sp,64
 302              		.cfi_def_cfa 8, 0
  36:visak/maincpp.cpp ****     //postavljanje adrese prekidne rutine u stvec
  37:visak/maincpp.cpp ****     __asm__ volatile("csrw stvec, %[handler]": :[handler] "r"(&interruptHandler));
 303              		.loc 1 37 5
GAS LISTING /tmp/ccIqOuhT.s 			page 8


 304              		.loc 1 37 82 is_stmt 0
 305 001c 97070000 		la	a5,interruptHandler
 305      83B70700 
 306              	#APP
 307              	# 37 "visak/maincpp.cpp" 1
  38              	
  39:visak/maincpp.cpp ****     //inicijalizacija alokatora memorije
  40:visak/maincpp.cpp ****     KMemory::initializeMemory();
 308              		csrw stvec, a5
 309              	# 0 "" 2
 310              		.loc 1 40 5 is_stmt 1
 311              	.LEHB0:
 312              		.loc 1 40 30 is_stmt 0
 313              	#NO_APP
 314 0028 97000000 		call	_ZN7KMemory16initializeMemoryEv@plt
 314      E7800000 
 315              	.LVL23:
  41:visak/maincpp.cpp **** 
  42:visak/maincpp.cpp ****     //inicijalizacija komunikacije sa konzolom
  43:visak/maincpp.cpp ****     KConsole::initKConsole();
 316              		.loc 1 43 5 is_stmt 1
 317              		.loc 1 43 27 is_stmt 0
 318 0030 97000000 		call	_ZN8KConsole12initKConsoleEv@plt
 318      E7800000 
 319              	.LVL24:
  44:visak/maincpp.cpp **** 
  45:visak/maincpp.cpp ****     //pravljenje niti
  46:visak/maincpp.cpp ****     thread_t mainHandle;
 320              		.loc 1 46 5 is_stmt 1
  47:visak/maincpp.cpp ****     Thread* idleHandle = new IdleThread();
 321              		.loc 1 47 5
 322              		.loc 1 47 41 is_stmt 0
 323 0038 13050002 		li	a0,32
 324 003c 97000000 		call	_Znwm@plt
 324      E7800000 
 325              	.LVL25:
 326              	.LEHE0:
 327 0044 13090500 		mv	s2,a0
 328 0048 23300500 		sd	zero,0(a0)
 329 004c 23340500 		sd	zero,8(a0)
 330 0050 23380500 		sd	zero,16(a0)
 331 0054 233C0500 		sd	zero,24(a0)
 332              	.LVL26:
 333              	.LEHB1:
 334              	.LBB45:
 335              	.LBB46:
  12:visak/maincpp.cpp ****     void run() override {
 336              		.loc 1 12 7
 337 0058 97000000 		call	_ZN6ThreadC2Ev@plt
 337      E7800000 
 338              	.LVL27:
 339              	.LEHE1:
 340 0060 97070000 		lla	a5,_ZTV10IdleThread+16
 340      93870700 
 341 0068 2330F900 		sd	a5,0(s2)
 342              	.LVL28:
 343              	.LBE46:
GAS LISTING /tmp/ccIqOuhT.s 			page 9


 344              	.LBE45:
  48:visak/maincpp.cpp ****     Thread* consoleOutputHandle = new KernelConsumer();
 345              		.loc 1 48 5 is_stmt 1
 346              		.loc 1 48 54 is_stmt 0
 347 006c 13050002 		li	a0,32
 348              	.LEHB2:
 349 0070 97000000 		call	_Znwm@plt
 349      E7800000 
 350              	.LVL29:
 351              	.LEHE2:
 352 0078 93040500 		mv	s1,a0
 353 007c 23300500 		sd	zero,0(a0)
 354 0080 23340500 		sd	zero,8(a0)
 355 0084 23380500 		sd	zero,16(a0)
 356 0088 233C0500 		sd	zero,24(a0)
 357              	.LVL30:
 358              	.LEHB3:
 359              	.LBB47:
 360              	.LBB48:
  18:visak/maincpp.cpp ****     void run() override {
 361              		.loc 1 18 7
 362 008c 97000000 		call	_ZN6ThreadC2Ev@plt
 362      E7800000 
 363              	.LVL31:
 364              	.LEHE3:
 365 0094 97070000 		lla	a5,_ZTV14KernelConsumer+16
 365      93870700 
 366 009c 23B0F400 		sd	a5,0(s1)
 367              	.LVL32:
 368              	.LBE48:
 369              	.LBE47:
  49:visak/maincpp.cpp ****     Thread* userThr = new Thread((TCB::Body)userMain, nullptr);
 370              		.loc 1 49 5 is_stmt 1
 371              		.loc 1 49 62 is_stmt 0
 372 00a0 13050002 		li	a0,32
 373              	.LEHB4:
 374 00a4 97000000 		call	_Znwm@plt
 374      E7800000 
 375              	.LVL33:
 376              	.LEHE4:
 377 00ac 93090500 		mv	s3,a0
 378 00b0 13060000 		li	a2,0
 379 00b4 97050000 		la	a1,_Z8userMainv
 379      83B50500 
 380              	.LEHB5:
 381 00bc 97000000 		call	_ZN6ThreadC1EPFvPvES0_@plt
 381      E7800000 
 382              	.LVL34:
 383              	.LEHE5:
 384 00c4 6F008005 		j	.L27
 385              	.LVL35:
 386              	.L21:
 387 00c8 93040500 		mv	s1,a0
  47:visak/maincpp.cpp ****     Thread* consoleOutputHandle = new KernelConsumer();
 388              		.loc 1 47 41
 389 00cc 13050900 		mv	a0,s2
 390 00d0 97000000 		call	_ZdlPv@plt
GAS LISTING /tmp/ccIqOuhT.s 			page 10


 390      E7800000 
 391              	.LVL36:
 392 00d8 13850400 		mv	a0,s1
 393              	.LEHB6:
 394 00dc 97000000 		call	_Unwind_Resume@plt
 394      E7800000 
 395              	.LVL37:
 396              	.L22:
 397 00e4 13090500 		mv	s2,a0
 398              	.LVL38:
  48:visak/maincpp.cpp ****     Thread* userThr = new Thread((TCB::Body)userMain, nullptr);
 399              		.loc 1 48 54
 400 00e8 13850400 		mv	a0,s1
 401 00ec 97000000 		call	_ZdlPv@plt
 401      E7800000 
 402              	.LVL39:
 403 00f4 13050900 		mv	a0,s2
 404 00f8 97000000 		call	_Unwind_Resume@plt
 404      E7800000 
 405              	.LVL40:
 406              	.L23:
 407 0100 93040500 		mv	s1,a0
 408              	.LVL41:
 409              		.loc 1 49 62
 410 0104 13850900 		mv	a0,s3
 411 0108 97000000 		call	_ZdlPv@plt
 411      E7800000 
 412              	.LVL42:
 413 0110 13850400 		mv	a0,s1
 414 0114 97000000 		call	_Unwind_Resume@plt
 414      E7800000 
 415              	.LVL43:
 416              	.L27:
  50:visak/maincpp.cpp ****     //Thread* userThr = new Thread(user, nullptr);
  51:visak/maincpp.cpp ****     thread_create(&mainHandle, (TCB::Body)main, nullptr);
 417              		.loc 1 51 5 is_stmt 1 discriminator 3
 418              		.loc 1 51 18 is_stmt 0 discriminator 3
 419 011c 13060000 		li	a2,0
 420 0120 97050000 		la	a1,main
 420      83B50500 
 421 0128 130584FC 		addi	a0,s0,-56
 422 012c 97000000 		call	_Z13thread_createPP3TCBPFvPvES2_@plt
 422      E7800000 
 423              	.LVL44:
  52:visak/maincpp.cpp ****     TCB::setRunning(mainHandle);
 424              		.loc 1 52 5 is_stmt 1 discriminator 3
 425              		.loc 1 52 20 is_stmt 0 discriminator 3
 426 0134 833784FC 		ld	a5,-56(s0)
 427              	.LVL45:
 428              	.LBB49:
 429              	.LBB50:
 430              		.file 3 "visak/../h/TCB.hpp"
   1:visak/../h/TCB.hpp **** //
   2:visak/../h/TCB.hpp **** // Created by os on 5/23/23.
   3:visak/../h/TCB.hpp **** //
   4:visak/../h/TCB.hpp **** 
   5:visak/../h/TCB.hpp **** #ifndef PROJEKAT2023_TCB_HPP
GAS LISTING /tmp/ccIqOuhT.s 			page 11


   6:visak/../h/TCB.hpp **** #define PROJEKAT2023_TCB_HPP
   7:visak/../h/TCB.hpp **** 
   8:visak/../h/TCB.hpp **** #include "../lib/hw.h"
   9:visak/../h/TCB.hpp **** #include "../h/ThreadQueue.hpp"
  10:visak/../h/TCB.hpp **** 
  11:visak/../h/TCB.hpp **** int main();
  12:visak/../h/TCB.hpp **** 
  13:visak/../h/TCB.hpp **** class TCB {
  14:visak/../h/TCB.hpp **** public:
  15:visak/../h/TCB.hpp ****     friend class Scheduler;
  16:visak/../h/TCB.hpp **** 
  17:visak/../h/TCB.hpp ****     using Body = void (*)(void*);
  18:visak/../h/TCB.hpp **** 
  19:visak/../h/TCB.hpp ****     enum ThreadStatus {
  20:visak/../h/TCB.hpp ****         CREATED, ACTIVE, BLOCKED, JOINING, SLEEPING, FINISHED
  21:visak/../h/TCB.hpp ****     };
  22:visak/../h/TCB.hpp **** 
  23:visak/../h/TCB.hpp ****     static TCB* createThread(Body function, void* args, uint64* stack);
  24:visak/../h/TCB.hpp **** 
  25:visak/../h/TCB.hpp ****     void setStatus(ThreadStatus stat) { this->status = stat; }
  26:visak/../h/TCB.hpp **** 
  27:visak/../h/TCB.hpp ****     ThreadStatus getStatus() { return this->status; }
  28:visak/../h/TCB.hpp **** 
  29:visak/../h/TCB.hpp ****     uint64 getTimeSlice() { return timeSlice; }
  30:visak/../h/TCB.hpp **** 
  31:visak/../h/TCB.hpp ****     Body getBody() { return threadFunction; }
  32:visak/../h/TCB.hpp **** 
  33:visak/../h/TCB.hpp ****     ThreadQueue* getListOfJoiningThreads() { return &waitingToJoin; }
  34:visak/../h/TCB.hpp **** 
  35:visak/../h/TCB.hpp ****     void setMySemaphore(KSem* sem) { mySemaphore = sem; }
  36:visak/../h/TCB.hpp **** 
  37:visak/../h/TCB.hpp ****     void setJoiningWithTCB(TCB* tcb) { joiningWithTCB = tcb; }
  38:visak/../h/TCB.hpp **** 
  39:visak/../h/TCB.hpp ****     static TCB* getRunning() { return running; }
  40:visak/../h/TCB.hpp **** 
  41:visak/../h/TCB.hpp ****     static void setRunning(TCB* newRunning) { running = newRunning; }
 431              		.loc 3 41 47 is_stmt 1 discriminator 3
 432              		.loc 3 41 55 is_stmt 0 discriminator 3
 433 0138 17070000 		la	a4,_ZN3TCB7runningE
 433      03370700 
 434 0140 2330F700 		sd	a5,0(a4)
 435              	.LVL46:
 436              	.LBE50:
 437              	.LBE49:
  53:visak/maincpp.cpp ****     mainHandle->setStatus(TCB::ACTIVE);
 438              		.loc 1 53 5 is_stmt 1 discriminator 3
 439              	.LBB51:
 440              	.LBB52:
  25:visak/../h/TCB.hpp **** 
 441              		.loc 3 25 41 discriminator 3
  25:visak/../h/TCB.hpp **** 
 442              		.loc 3 25 54 is_stmt 0 discriminator 3
 443 0144 13071000 		li	a4,1
 444 0148 23ACE704 		sw	a4,88(a5)
 445              	.LVL47:
 446              	.LBE52:
 447              	.LBE51:
GAS LISTING /tmp/ccIqOuhT.s 			page 12


  54:visak/maincpp.cpp ****     idleHandle->start();
 448              		.loc 1 54 5 is_stmt 1 discriminator 3
 449              		.loc 1 54 22 is_stmt 0 discriminator 3
 450 014c 13050900 		mv	a0,s2
 451 0150 97000000 		call	_ZN6Thread5startEv@plt
 451      E7800000 
 452              	.LVL48:
  55:visak/maincpp.cpp ****     consoleOutputHandle->start();
 453              		.loc 1 55 5 is_stmt 1 discriminator 3
 454              		.loc 1 55 31 is_stmt 0 discriminator 3
 455 0158 13850400 		mv	a0,s1
 456 015c 97000000 		call	_ZN6Thread5startEv@plt
 456      E7800000 
 457              	.LVL49:
  56:visak/maincpp.cpp ****     userThr->start();
 458              		.loc 1 56 5 is_stmt 1 discriminator 3
 459              		.loc 1 56 19 is_stmt 0 discriminator 3
 460 0164 13850900 		mv	a0,s3
 461 0168 97000000 		call	_ZN6Thread5startEv@plt
 461      E7800000 
 462              	.LVL50:
  57:visak/maincpp.cpp **** 
  58:visak/maincpp.cpp ****     //omogucavanje prekida
  59:visak/maincpp.cpp ****     Riscv::ms_sstatus(Riscv::SSTATUS_SIE);
 463              		.loc 1 59 5 is_stmt 1 discriminator 3
 464              	.LBB53:
 465              	.LBB54:
 466              		.file 4 "visak/../h/Riscv.hpp"
   1:visak/../h/Riscv.hpp **** //
   2:visak/../h/Riscv.hpp **** // Created by os on 5/17/23.
   3:visak/../h/Riscv.hpp **** //
   4:visak/../h/Riscv.hpp **** 
   5:visak/../h/Riscv.hpp **** #ifndef PROJEKAT2023_RISCV_HPP
   6:visak/../h/Riscv.hpp **** #define PROJEKAT2023_RISCV_HPP
   7:visak/../h/Riscv.hpp **** 
   8:visak/../h/Riscv.hpp **** #include "../lib/hw.h"
   9:visak/../h/Riscv.hpp **** 
  10:visak/../h/Riscv.hpp **** class Riscv {
  11:visak/../h/Riscv.hpp **** public:
  12:visak/../h/Riscv.hpp **** 
  13:visak/../h/Riscv.hpp **** 	static void returnFromInterrupt();
  14:visak/../h/Riscv.hpp **** 
  15:visak/../h/Riscv.hpp **** 	enum BitMaskSip {
  16:visak/../h/Riscv.hpp **** 		//postoji zahtev za softverski prekid
  17:visak/../h/Riscv.hpp **** 		SIP_SSIP = (1 << 1),
  18:visak/../h/Riscv.hpp **** 		//postoji prekid od tajmera
  19:visak/../h/Riscv.hpp **** 		SIP_STIP = (1 << 5),
  20:visak/../h/Riscv.hpp **** 		//postoji zahtev za spoljasnji hardverski prekid
  21:visak/../h/Riscv.hpp **** 		SIP_SEIP = (1 << 9)
  22:visak/../h/Riscv.hpp **** 	};
  23:visak/../h/Riscv.hpp **** 
  24:visak/../h/Riscv.hpp **** 	//mask set sip
  25:visak/../h/Riscv.hpp **** 	static void ms_sip(uint64 mask);
  26:visak/../h/Riscv.hpp **** 
  27:visak/../h/Riscv.hpp **** 	//mask clear sip
  28:visak/../h/Riscv.hpp **** 	static void mc_sip(uint64 mask);
  29:visak/../h/Riscv.hpp **** 
GAS LISTING /tmp/ccIqOuhT.s 			page 13


  30:visak/../h/Riscv.hpp **** 	//kada se pozove sret, SIE dobija vrednost SPIE, SPIE se postavlja na 1,
  31:visak/../h/Riscv.hpp **** 	//rezim se postavlja na osnovu SPP bita, SPP se postavlja na 0
  32:visak/../h/Riscv.hpp **** 	enum BitMaskSstatus {
  33:visak/../h/Riscv.hpp **** 		//1 - dozvoljeni prekidi; 0- nedozvoljeni prekidi; igonrise se u korisnickom rezimu
  34:visak/../h/Riscv.hpp **** 		SSTATUS_SIE = (1 << 1),
  35:visak/../h/Riscv.hpp **** 		//prethodna vrednost bita SIE
  36:visak/../h/Riscv.hpp **** 		SSTATUS_SPIE = (1 << 5),
  37:visak/../h/Riscv.hpp **** 		//iz kog rezima se desio skok; 0 - iz korisnickog; 1 - iz sistemskog
  38:visak/../h/Riscv.hpp **** 		SSTATUS_SPP = (1 << 8)
  39:visak/../h/Riscv.hpp **** 	};
  40:visak/../h/Riscv.hpp **** 
  41:visak/../h/Riscv.hpp **** 	//mask set sstatus
  42:visak/../h/Riscv.hpp **** 	static void ms_sstatus(uint64 mask);
  43:visak/../h/Riscv.hpp **** 
  44:visak/../h/Riscv.hpp **** 	//mask clear sstatus
  45:visak/../h/Riscv.hpp **** 	static void mc_sstatus(uint64 mask);
  46:visak/../h/Riscv.hpp **** 
  47:visak/../h/Riscv.hpp **** };
  48:visak/../h/Riscv.hpp **** 
  49:visak/../h/Riscv.hpp **** inline void Riscv::ms_sip(uint64 mask) {
  50:visak/../h/Riscv.hpp **** 	__asm__ volatile("csrs sip, %[mask]": :[mask] "r"(mask));
  51:visak/../h/Riscv.hpp **** }
  52:visak/../h/Riscv.hpp **** 
  53:visak/../h/Riscv.hpp **** inline void Riscv::mc_sip(uint64 mask) {
  54:visak/../h/Riscv.hpp **** 	__asm__ volatile("csrc sip, %[mask]": :[mask] "r"(mask));
  55:visak/../h/Riscv.hpp **** }
  56:visak/../h/Riscv.hpp **** 
  57:visak/../h/Riscv.hpp **** inline void Riscv::ms_sstatus(uint64 mask) {
  58:visak/../h/Riscv.hpp **** 	__asm__ volatile("csrs sstatus, %[mask]": :[mask] "r"(mask));
 467              		.loc 4 58 2 discriminator 3
 468              		.loc 4 58 62 is_stmt 0 discriminator 3
 469 0170 93042000 		li	s1,2
 470              	.LVL51:
 471              	#APP
 472              	# 58 "visak/../h/Riscv.hpp" 1
  59              	}
 473              		csrs sstatus, s1
 474              	# 0 "" 2
 475              	.LVL52:
 476              	#NO_APP
 477              	.LBE54:
 478              	.LBE53:
  60:visak/maincpp.cpp **** 
  61:visak/maincpp.cpp ****     //cekanje da se userMain zavrsi
  62:visak/maincpp.cpp ****     userThr->join();
 479              		.loc 1 62 5 is_stmt 1 discriminator 3
 480              		.loc 1 62 18 is_stmt 0 discriminator 3
 481 0178 13850900 		mv	a0,s3
 482 017c 97000000 		call	_ZN6Thread4joinEv@plt
 482      E7800000 
 483              	.LVL53:
 484              	.LEHE6:
  63:visak/maincpp.cpp **** 
  64:visak/maincpp.cpp ****     //flush output bafera za konzolu
  65:visak/maincpp.cpp ****     KConsole::flush();
 485              		.loc 1 65 5 is_stmt 1 discriminator 3
 486              	.LBB55:
GAS LISTING /tmp/ccIqOuhT.s 			page 14


 487              	.LBB56:
  32:visak/../h/KConsole.hpp ****         __asm__ volatile("ecall");
 488              		.loc 2 32 9 discriminator 3
  32:visak/../h/KConsole.hpp ****         __asm__ volatile("ecall");
 489              		.loc 2 32 40 is_stmt 0 discriminator 3
 490              	#APP
 491              	# 32 "visak/../h/KConsole.hpp" 1
  33:visak/../h/KConsole.hpp ****     }
 492              		li a0, 0x43
 493              	# 0 "" 2
 494              		.loc 2 33 9 is_stmt 1 discriminator 3
  33:visak/../h/KConsole.hpp ****     }
 495              		.loc 2 33 34 is_stmt 0 discriminator 3
 496              	# 33 "visak/../h/KConsole.hpp" 1
 497              		ecall
 498              	# 0 "" 2
 499              	#NO_APP
 500              	.LBE56:
 501              	.LBE55:
  66:visak/maincpp.cpp **** 
  67:visak/maincpp.cpp ****     //maskiranje svih prekida
  68:visak/maincpp.cpp ****     Riscv::mc_sstatus(Riscv::SSTATUS_SIE);
 502              		.loc 1 68 5 is_stmt 1 discriminator 3
 503              	.LVL54:
 504              	.LBB57:
 505              	.LBB58:
  60:visak/../h/Riscv.hpp **** 
  61:visak/../h/Riscv.hpp **** inline void Riscv::mc_sstatus(uint64 mask) {
  62:visak/../h/Riscv.hpp **** 	__asm__ volatile("csrc sstatus, %[mask]": :[mask] "r"(mask));
 506              		.loc 4 62 2 discriminator 3
 507              		.loc 4 62 62 is_stmt 0 discriminator 3
 508              	#APP
 509              	# 62 "visak/../h/Riscv.hpp" 1
  63              	}
 510              		csrc sstatus, s1
 511              	# 0 "" 2
 512              	.LVL55:
 513              	#NO_APP
 514              	.LBE58:
 515              	.LBE57:
  69:visak/maincpp.cpp **** 
  70:visak/maincpp.cpp ****     return 0;
 516              		.loc 1 70 5 is_stmt 1 discriminator 3
  71:visak/maincpp.cpp **** }...
 517              		.loc 1 71 1 is_stmt 0 discriminator 3
 518 0190 13050000 		li	a0,0
 519 0194 83308103 		ld	ra,56(sp)
 520              		.cfi_restore 1
 521 0198 03340103 		ld	s0,48(sp)
 522              		.cfi_restore 8
 523              		.cfi_def_cfa 2, 64
 524 019c 83348102 		ld	s1,40(sp)
 525              		.cfi_restore 9
 526 01a0 03390102 		ld	s2,32(sp)
 527              		.cfi_restore 18
 528              	.LVL56:
 529 01a4 83398101 		ld	s3,24(sp)
GAS LISTING /tmp/ccIqOuhT.s 			page 15


 530              		.cfi_restore 19
 531              	.LVL57:
 532 01a8 13010104 		addi	sp,sp,64
 533              		.cfi_def_cfa_offset 0
 534 01ac 67800000 		jr	ra
 535              		.cfi_endproc
 536              	.LFE46:
 537              		.globl	__gxx_personality_v0
 538              		.section	.gcc_except_table,"a",@progbits
 539              	.LLSDA46:
 540 0000 FF       		.byte	0xff
 541 0001 FF       		.byte	0xff
 542 0002 03       		.byte	0x3
 543 0003 5B       		.byte	0x5b
 544 0004 00000000 		.4byte	.LEHB0-.LFB46
 545 0008 00000000 		.4byte	.LEHE0-.LEHB0
 546 000c 00000000 		.4byte	0
 547 0010 00       		.byte	0
 548 0011 00000000 		.4byte	.LEHB1-.LFB46
 549 0015 00000000 		.4byte	.LEHE1-.LEHB1
 550 0019 00000000 		.4byte	.L21-.LFB46
 551 001d 00       		.byte	0
 552 001e 00000000 		.4byte	.LEHB2-.LFB46
 553 0022 00000000 		.4byte	.LEHE2-.LEHB2
 554 0026 00000000 		.4byte	0
 555 002a 00       		.byte	0
 556 002b 00000000 		.4byte	.LEHB3-.LFB46
 557 002f 00000000 		.4byte	.LEHE3-.LEHB3
 558 0033 00000000 		.4byte	.L22-.LFB46
 559 0037 00       		.byte	0
 560 0038 00000000 		.4byte	.LEHB4-.LFB46
 561 003c 00000000 		.4byte	.LEHE4-.LEHB4
 562 0040 00000000 		.4byte	0
 563 0044 00       		.byte	0
 564 0045 00000000 		.4byte	.LEHB5-.LFB46
 565 0049 00000000 		.4byte	.LEHE5-.LEHB5
 566 004d 00000000 		.4byte	.L23-.LFB46
 567 0051 00       		.byte	0
 568 0052 00000000 		.4byte	.LEHB6-.LFB46
 569 0056 00000000 		.4byte	.LEHE6-.LEHB6
 570 005a 00000000 		.4byte	0
 571 005e 00       		.byte	0
 572              		.text
 574              		.weak	_ZTV10IdleThread
 575              		.section	.data.rel.ro.local._ZTV10IdleThread,"awG",@progbits,_ZTV10IdleThread,comdat
 576              		.align	3
 579              	_ZTV10IdleThread:
 580 0000 00000000 		.dword	0
 580      00000000 
 581 0008 00000000 		.dword	0
 581      00000000 
 582 0010 00000000 		.dword	_ZN10IdleThreadD1Ev
 582      00000000 
 583 0018 00000000 		.dword	_ZN10IdleThreadD0Ev
 583      00000000 
 584 0020 00000000 		.dword	_ZN10IdleThread3runEv
 584      00000000 
GAS LISTING /tmp/ccIqOuhT.s 			page 16


 585              		.weak	_ZTV14KernelConsumer
 586              		.section	.data.rel.ro.local._ZTV14KernelConsumer,"awG",@progbits,_ZTV14KernelConsumer,comdat
 587              		.align	3
 590              	_ZTV14KernelConsumer:
 591 0000 00000000 		.dword	0
 591      00000000 
 592 0008 00000000 		.dword	0
 592      00000000 
 593 0010 00000000 		.dword	_ZN14KernelConsumerD1Ev
 593      00000000 
 594 0018 00000000 		.dword	_ZN14KernelConsumerD0Ev
 594      00000000 
 595 0020 00000000 		.dword	_ZN14KernelConsumer3runEv
 595      00000000 
 596              		.text
 597              	.Letext0:
 598              		.file 5 "visak/../lib/hw.h"
 599              		.file 6 "visak/../h/KMemory.hpp"
 600              		.file 7 "visak/../h/../h/../h/syscall_c.hpp"
 601              		.file 8 "visak/../h/../h/ThreadQueue.hpp"
 602              		.file 9 "visak/../h/syscall_cpp.hpp"
 4715              		.align	3
 4718              	DW.ref.__gxx_personality_v0:
 4719 0000 00000000 		.dword	__gxx_personality_v0
 4719      00000000 
 4720              		.ident	"GCC: (Ubuntu 9.4.0-1ubuntu1~20.04) 9.4.0"
 4721              		.section	.note.GNU-stack,"",@progbits
GAS LISTING /tmp/ccIqOuhT.s 			page 17

