GAS LISTING /tmp/cc31WkXu.s 			page 1


   1              		.file	"MemoryAllocator.cpp"
   2              		.option pic
   3              		.option norelax
   4              		.text
   5              	.Ltext0:
   6              		.align	2
   7              		.globl	_ZN15MemoryAllocator7kmallocEmNS_7PurposeE
   9              	_ZN15MemoryAllocator7kmallocEmNS_7PurposeE:
  10              	.LFB7:
  11              		.file 1 "visak/MemoryAllocator.cpp"
   1:visak/MemoryAllocator.cpp **** //
   2:visak/MemoryAllocator.cpp **** // Created by os on 5/12/23.
   3:visak/MemoryAllocator.cpp **** //
   4:visak/MemoryAllocator.cpp **** 
   5:visak/MemoryAllocator.cpp **** #include "MemoryAllocator.hpp"
   6:visak/MemoryAllocator.cpp **** #include "helper.hpp"
   7:visak/MemoryAllocator.cpp **** #include "../h/Riscv.hpp"
   8:visak/MemoryAllocator.cpp **** #include "../test/printing.hpp"
   9:visak/MemoryAllocator.cpp **** 
  10:visak/MemoryAllocator.cpp **** bool MemoryAllocator::initialized = false;
  11:visak/MemoryAllocator.cpp **** MemoryAllocator::FreeMemSegment* MemoryAllocator::freeMemHead = nullptr;
  12:visak/MemoryAllocator.cpp **** MemoryAllocator::UsedMemSegment* MemoryAllocator::usedMemHead = nullptr;
  13:visak/MemoryAllocator.cpp **** 
  14:visak/MemoryAllocator.cpp **** #pragma GCC optimize("O0")
  15:visak/MemoryAllocator.cpp **** 
  16:visak/MemoryAllocator.cpp **** void* MemoryAllocator::kmalloc(size_t size, Purpose pur) {
  12              		.loc 1 16 58
  13              		.cfi_startproc
  14              	.LVL0:
  15 0000 130101FA 		addi	sp,sp,-96
  16              		.cfi_def_cfa_offset 96
  17 0004 233C8104 		sd	s0,88(sp)
  18              		.cfi_offset 8, -8
  19 0008 13040106 		addi	s0,sp,96
  20              		.cfi_def_cfa 8, 0
  21 000c 2334A4FA 		sd	a0,-88(s0)
  22 0010 93870500 		mv	a5,a1
  23 0014 2322F4FA 		sw	a5,-92(s0)
  17:visak/MemoryAllocator.cpp ****     //size je u broju bajtova, ukljucuje i mesto potrebno za zaglavlje UsedMemSegment
  18:visak/MemoryAllocator.cpp ****     if (size <= 0) return nullptr;
  24              		.loc 1 18 5
  25 0018 833784FA 		ld	a5,-88(s0)
  26 001c 63960700 		bnez	a5,.L2
  27              		.loc 1 18 20 discriminator 1
  28              		.loc 1 18 27 is_stmt 0 discriminator 1
  29 0020 93070000 		li	a5,0
  30 0024 6F004020 		j	.L3
  31              	.L2:
  19:visak/MemoryAllocator.cpp ****     //alokacija uvek zaokruzena na blokove
  20:visak/MemoryAllocator.cpp ****     //size += sizeof(UsedMemSegment); ;prebaceno u mem_alloc
  21:visak/MemoryAllocator.cpp ****     size_t blocks = size / MEM_BLOCK_SIZE + (size % MEM_BLOCK_SIZE ? 1 : 0);
  32              		.loc 1 21 5 is_stmt 1
  33              		.loc 1 21 26 is_stmt 0
  34 0028 833784FA 		ld	a5,-88(s0)
  35 002c 13D76700 		srli	a4,a5,6
  36              		.loc 1 21 51
  37 0030 833784FA 		ld	a5,-88(s0)
GAS LISTING /tmp/cc31WkXu.s 			page 2


  38 0034 93F7F703 		andi	a5,a5,63
  39              		.loc 1 21 68
  40 0038 63860700 		beqz	a5,.L4
  41              		.loc 1 21 68 discriminator 1
  42 003c 93071000 		li	a5,1
  43 0040 6F008000 		j	.L5
  44              	.L4:
  45              		.loc 1 21 68 discriminator 2
  46 0044 93070000 		li	a5,0
  47              	.L5:
  48              		.loc 1 21 12 discriminator 4
  49 0048 B387E700 		add	a5,a5,a4
  50 004c 2334F4FC 		sd	a5,-56(s0)
  51              	.LVL1:
  22:visak/MemoryAllocator.cpp ****     size = blocks * MEM_BLOCK_SIZE;
  52              		.loc 1 22 5 is_stmt 1 discriminator 4
  53              		.loc 1 22 10 is_stmt 0 discriminator 4
  54 0050 833784FC 		ld	a5,-56(s0)
  55 0054 93976700 		slli	a5,a5,6
  56              	.LVL2:
  57 0058 2334F4FA 		sd	a5,-88(s0)
  58              	.LVL3:
  23:visak/MemoryAllocator.cpp **** 
  24:visak/MemoryAllocator.cpp ****     //trazenje slobodnog segmenta po first-fit algoritmu
  25:visak/MemoryAllocator.cpp ****     FreeMemSegment* prevFree = nullptr;
  59              		.loc 1 25 5 is_stmt 1 discriminator 4
  60              		.loc 1 25 21 is_stmt 0 discriminator 4
  61 005c 233404FE 		sd	zero,-24(s0)
  62              	.LVL4:
  26:visak/MemoryAllocator.cpp ****     for (FreeMemSegment* firstFit = freeMemHead; firstFit; prevFree = firstFit, firstFit = firstFit
  63              		.loc 1 26 5 is_stmt 1 discriminator 4
  64              	.LBB2:
  65              		.loc 1 26 26 is_stmt 0 discriminator 4
  66 0060 97070000 		lla	a5,_ZN15MemoryAllocator11freeMemHeadE
  66      93870700 
  67              	.LVL5:
  68 0068 83B70700 		ld	a5,0(a5)
  69 006c 2330F4FE 		sd	a5,-32(s0)
  70              	.LVL6:
  71              	.L17:
  72              		.loc 1 26 50 is_stmt 1 discriminator 1
  73 0070 833704FE 		ld	a5,-32(s0)
  74 0074 6388071A 		beqz	a5,.L6
  75              	.LBB3:
  27:visak/MemoryAllocator.cpp ****         if (firstFit->size < size) continue;
  76              		.loc 1 27 9
  77              		.loc 1 27 23 is_stmt 0
  78 0078 833704FE 		ld	a5,-32(s0)
  79 007c 83B78700 		ld	a5,8(a5)
  80              		.loc 1 27 9
  81 0080 033784FA 		ld	a4,-88(s0)
  82 0084 63E2E718 		bgtu	a4,a5,.L19
  28:visak/MemoryAllocator.cpp **** 
  29:visak/MemoryAllocator.cpp ****         //pravljenje novog slobodnog fragmenta od ostatka fragmenta
  30:visak/MemoryAllocator.cpp ****         FreeMemSegment* remainderFree = (FreeMemSegment*) ((char*) firstFit + size);
  83              		.loc 1 30 9 is_stmt 1
  84              		.loc 1 30 25 is_stmt 0
GAS LISTING /tmp/cc31WkXu.s 			page 3


  85 0088 033704FE 		ld	a4,-32(s0)
  86 008c 833784FA 		ld	a5,-88(s0)
  87 0090 B307F700 		add	a5,a4,a5
  88 0094 2330F4FC 		sd	a5,-64(s0)
  89              	.LVL7:
  31:visak/MemoryAllocator.cpp ****         size_t remainingSize = firstFit->size - size;
  90              		.loc 1 31 9 is_stmt 1
  91              		.loc 1 31 42 is_stmt 0
  92 0098 833704FE 		ld	a5,-32(s0)
  93              	.LVL8:
  94 009c 03B78700 		ld	a4,8(a5)
  95              		.loc 1 31 16
  96 00a0 833784FA 		ld	a5,-88(s0)
  97 00a4 B307F740 		sub	a5,a4,a5
  98 00a8 233CF4FA 		sd	a5,-72(s0)
  99              	.LVL9:
  32:visak/MemoryAllocator.cpp ****         if (remainingSize <= sizeof(UsedMemSegment)) {
 100              		.loc 1 32 9 is_stmt 1
 101 00ac 033784FB 		ld	a4,-72(s0)
 102 00b0 93070002 		li	a5,32
 103              	.LVL10:
 104 00b4 63E4E704 		bgtu	a4,a5,.L9
  33:visak/MemoryAllocator.cpp ****             //ne preostaje dovoljno veliki slobodni segment;dodeljujemo ceo trenutno alociranom;rem
  34:visak/MemoryAllocator.cpp ****             size += remainingSize;
 105              		.loc 1 34 13
 106              		.loc 1 34 18 is_stmt 0
 107 00b8 033784FA 		ld	a4,-88(s0)
 108              	.LVL11:
 109 00bc 833784FB 		ld	a5,-72(s0)
 110 00c0 B307F700 		add	a5,a4,a5
 111 00c4 2334F4FA 		sd	a5,-88(s0)
 112              	.LVL12:
  35:visak/MemoryAllocator.cpp ****             if (prevFree) {
 113              		.loc 1 35 13 is_stmt 1
 114 00c8 833784FE 		ld	a5,-24(s0)
 115              	.LVL13:
 116 00cc 638C0700 		beqz	a5,.L10
  36:visak/MemoryAllocator.cpp ****                 prevFree->next = firstFit->next;
 117              		.loc 1 36 17
 118              		.loc 1 36 44 is_stmt 0
 119 00d0 833704FE 		ld	a5,-32(s0)
 120 00d4 03B70700 		ld	a4,0(a5)
 121              		.loc 1 36 32
 122 00d8 833784FE 		ld	a5,-24(s0)
 123 00dc 23B0E700 		sd	a4,0(a5)
 124 00e0 6F000006 		j	.L11
 125              	.L10:
  37:visak/MemoryAllocator.cpp ****             } else {
  38:visak/MemoryAllocator.cpp ****                 freeMemHead = firstFit->next;
 126              		.loc 1 38 17 is_stmt 1
 127              		.loc 1 38 41 is_stmt 0
 128 00e4 833704FE 		ld	a5,-32(s0)
 129 00e8 03B70700 		ld	a4,0(a5)
 130              		.loc 1 38 29
 131 00ec 97070000 		lla	a5,_ZN15MemoryAllocator11freeMemHeadE
 131      93870700 
 132 00f4 23B0E700 		sd	a4,0(a5)
GAS LISTING /tmp/cc31WkXu.s 			page 4


 133 00f8 6F008004 		j	.L11
 134              	.LVL14:
 135              	.L9:
  39:visak/MemoryAllocator.cpp ****             }
  40:visak/MemoryAllocator.cpp ****         } else {
  41:visak/MemoryAllocator.cpp ****             remainderFree->size = remainingSize;
 136              		.loc 1 41 13 is_stmt 1
 137              		.loc 1 41 33 is_stmt 0
 138 00fc 833704FC 		ld	a5,-64(s0)
 139 0100 033784FB 		ld	a4,-72(s0)
 140              	.LVL15:
 141 0104 23B4E700 		sd	a4,8(a5)
  42:visak/MemoryAllocator.cpp ****             remainderFree->next = firstFit->next;
 142              		.loc 1 42 13 is_stmt 1
 143              		.loc 1 42 45 is_stmt 0
 144 0108 833704FE 		ld	a5,-32(s0)
 145 010c 03B70700 		ld	a4,0(a5)
 146              		.loc 1 42 33
 147 0110 833704FC 		ld	a5,-64(s0)
 148 0114 23B0E700 		sd	a4,0(a5)
  43:visak/MemoryAllocator.cpp ****             if (prevFree) {
 149              		.loc 1 43 13 is_stmt 1
 150 0118 833784FE 		ld	a5,-24(s0)
 151 011c 638A0700 		beqz	a5,.L12
  44:visak/MemoryAllocator.cpp ****                 prevFree->next = remainderFree;
 152              		.loc 1 44 17
 153              		.loc 1 44 32 is_stmt 0
 154 0120 833784FE 		ld	a5,-24(s0)
 155 0124 033704FC 		ld	a4,-64(s0)
 156 0128 23B0E700 		sd	a4,0(a5)
 157 012c 6F004001 		j	.L11
 158              	.L12:
  45:visak/MemoryAllocator.cpp ****             } else {
  46:visak/MemoryAllocator.cpp ****                 freeMemHead = remainderFree;
 159              		.loc 1 46 17 is_stmt 1
 160              		.loc 1 46 29 is_stmt 0
 161 0130 97070000 		lla	a5,_ZN15MemoryAllocator11freeMemHeadE
 161      93870700 
 162 0138 033704FC 		ld	a4,-64(s0)
 163 013c 23B0E700 		sd	a4,0(a5)
 164              	.L11:
  47:visak/MemoryAllocator.cpp ****             }
  48:visak/MemoryAllocator.cpp ****         }
  49:visak/MemoryAllocator.cpp ****         //ubacivanje novog fragmenta u listu zauzetih fragmenata
  50:visak/MemoryAllocator.cpp ****         UsedMemSegment* newUsed = (UsedMemSegment*) firstFit;
 165              		.loc 1 50 9 is_stmt 1
 166              		.loc 1 50 25 is_stmt 0
 167 0140 833704FE 		ld	a5,-32(s0)
 168 0144 2338F4FA 		sd	a5,-80(s0)
 169              	.LVL16:
  51:visak/MemoryAllocator.cpp ****         newUsed->size = size;
 170              		.loc 1 51 9 is_stmt 1
 171              		.loc 1 51 23 is_stmt 0
 172 0148 833704FB 		ld	a5,-80(s0)
 173 014c 033784FA 		ld	a4,-88(s0)
 174 0150 23B4E700 		sd	a4,8(a5)
  52:visak/MemoryAllocator.cpp ****         newUsed->purpose = pur;
GAS LISTING /tmp/cc31WkXu.s 			page 5


 175              		.loc 1 52 9 is_stmt 1
 176              		.loc 1 52 26 is_stmt 0
 177 0154 833704FB 		ld	a5,-80(s0)
 178 0158 032744FA 		lw	a4,-92(s0)
 179 015c 23A8E700 		sw	a4,16(a5)
  53:visak/MemoryAllocator.cpp ****         newUsed->usableFirstAddress = (char*) newUsed + sizeof(UsedMemSegment);
 180              		.loc 1 53 9 is_stmt 1
 181              		.loc 1 53 55 is_stmt 0
 182 0160 833704FB 		ld	a5,-80(s0)
 183 0164 13870702 		addi	a4,a5,32
 184              		.loc 1 53 37
 185 0168 833704FB 		ld	a5,-80(s0)
 186 016c 23BCE700 		sd	a4,24(a5)
  54:visak/MemoryAllocator.cpp ****         UsedMemSegment* prevUsed = nullptr;
 187              		.loc 1 54 9 is_stmt 1
 188              		.loc 1 54 25 is_stmt 0
 189 0170 233C04FC 		sd	zero,-40(s0)
 190              	.LVL17:
  55:visak/MemoryAllocator.cpp ****         for (UsedMemSegment* cur = usedMemHead;
 191              		.loc 1 55 9 is_stmt 1
 192              	.LBB4:
 193              		.loc 1 55 30 is_stmt 0
 194 0174 97070000 		lla	a5,_ZN15MemoryAllocator11usedMemHeadE
 194      93870700 
 195              	.LVL18:
 196 017c 83B70700 		ld	a5,0(a5)
 197 0180 2338F4FC 		sd	a5,-48(s0)
 198              	.LVL19:
 199              	.L14:
  56:visak/MemoryAllocator.cpp ****              cur && ((char*) cur < (char*) newUsed); cur = cur->next) {
 200              		.loc 1 56 18 is_stmt 1 discriminator 3
 201 0184 833704FD 		ld	a5,-48(s0)
 202 0188 63840702 		beqz	a5,.L13
 203              		.loc 1 56 18 is_stmt 0 discriminator 1
 204 018c 033704FD 		ld	a4,-48(s0)
 205 0190 833704FB 		ld	a5,-80(s0)
 206 0194 637EF700 		bgeu	a4,a5,.L13
  57:visak/MemoryAllocator.cpp ****             prevUsed = cur;
 207              		.loc 1 57 13 is_stmt 1 discriminator 2
 208              		.loc 1 57 22 is_stmt 0 discriminator 2
 209 0198 833704FD 		ld	a5,-48(s0)
 210 019c 233CF4FC 		sd	a5,-40(s0)
 211              	.LVL20:
  55:visak/MemoryAllocator.cpp ****         for (UsedMemSegment* cur = usedMemHead;
 212              		.loc 1 55 9 is_stmt 1 discriminator 2
  56:visak/MemoryAllocator.cpp ****              cur && ((char*) cur < (char*) newUsed); cur = cur->next) {
 213              		.loc 1 56 58 is_stmt 0 discriminator 2
 214 01a0 833704FD 		ld	a5,-48(s0)
 215 01a4 83B70700 		ld	a5,0(a5)
 216 01a8 2338F4FC 		sd	a5,-48(s0)
 217              	.LVL21:
  55:visak/MemoryAllocator.cpp ****         for (UsedMemSegment* cur = usedMemHead;
 218              		.loc 1 55 9 discriminator 2
 219 01ac 6FF09FFD 		j	.L14
 220              	.LVL22:
 221              	.L13:
 222              	.LBE4:
GAS LISTING /tmp/cc31WkXu.s 			page 6


  58:visak/MemoryAllocator.cpp ****         }
  59:visak/MemoryAllocator.cpp ****         if (!prevUsed) {
 223              		.loc 1 59 9 is_stmt 1
 224 01b0 833784FD 		ld	a5,-40(s0)
 225 01b4 63960702 		bnez	a5,.L15
  60:visak/MemoryAllocator.cpp ****             newUsed->next = usedMemHead;
 226              		.loc 1 60 13
 227              		.loc 1 60 27 is_stmt 0
 228 01b8 97070000 		lla	a5,_ZN15MemoryAllocator11usedMemHeadE
 228      93870700 
 229 01c0 03B70700 		ld	a4,0(a5)
 230 01c4 833704FB 		ld	a5,-80(s0)
 231 01c8 23B0E700 		sd	a4,0(a5)
  61:visak/MemoryAllocator.cpp ****             usedMemHead = newUsed;
 232              		.loc 1 61 13 is_stmt 1
 233              		.loc 1 61 25 is_stmt 0
 234 01cc 97070000 		lla	a5,_ZN15MemoryAllocator11usedMemHeadE
 234      93870700 
 235 01d4 033704FB 		ld	a4,-80(s0)
 236 01d8 23B0E700 		sd	a4,0(a5)
 237 01dc 6F000002 		j	.L16
 238              	.L15:
  62:visak/MemoryAllocator.cpp ****         } else {
  63:visak/MemoryAllocator.cpp ****             newUsed->next = prevUsed->next;
 239              		.loc 1 63 13 is_stmt 1
 240              		.loc 1 63 39 is_stmt 0
 241 01e0 833784FD 		ld	a5,-40(s0)
 242 01e4 03B70700 		ld	a4,0(a5)
 243              		.loc 1 63 27
 244 01e8 833704FB 		ld	a5,-80(s0)
 245 01ec 23B0E700 		sd	a4,0(a5)
  64:visak/MemoryAllocator.cpp ****             prevUsed->next = newUsed;
 246              		.loc 1 64 13 is_stmt 1
 247              		.loc 1 64 28 is_stmt 0
 248 01f0 833784FD 		ld	a5,-40(s0)
 249 01f4 033704FB 		ld	a4,-80(s0)
 250 01f8 23B0E700 		sd	a4,0(a5)
 251              	.L16:
  65:visak/MemoryAllocator.cpp ****         }
  66:visak/MemoryAllocator.cpp ****         //return (char*)newUsed + sizeof(UsedMemSegment);
  67:visak/MemoryAllocator.cpp ****         return newUsed->usableFirstAddress;
 252              		.loc 1 67 9 is_stmt 1
 253              		.loc 1 67 25 is_stmt 0
 254 01fc 833704FB 		ld	a5,-80(s0)
 255 0200 83B78701 		ld	a5,24(a5)
 256 0204 6F004002 		j	.L3
 257              	.LVL23:
 258              	.L19:
  27:visak/MemoryAllocator.cpp **** 
 259              		.loc 1 27 36
 260 0208 13000000 		nop
 261              	.LBE3:
  26:visak/MemoryAllocator.cpp ****         if (firstFit->size < size) continue;
 262              		.loc 1 26 5 is_stmt 1
  26:visak/MemoryAllocator.cpp ****         if (firstFit->size < size) continue;
 263              		.loc 1 26 69 is_stmt 0
 264 020c 833704FE 		ld	a5,-32(s0)
GAS LISTING /tmp/cc31WkXu.s 			page 7


 265 0210 2334F4FE 		sd	a5,-24(s0)
 266              	.LVL24:
  26:visak/MemoryAllocator.cpp ****         if (firstFit->size < size) continue;
 267              		.loc 1 26 90
 268 0214 833704FE 		ld	a5,-32(s0)
 269 0218 83B70700 		ld	a5,0(a5)
 270              	.LVL25:
 271 021c 2330F4FE 		sd	a5,-32(s0)
 272              	.LVL26:
  26:visak/MemoryAllocator.cpp ****         if (firstFit->size < size) continue;
 273              		.loc 1 26 5
 274 0220 6FF01FE5 		j	.L17
 275              	.L6:
 276              	.LBE2:
  68:visak/MemoryAllocator.cpp ****     }
  69:visak/MemoryAllocator.cpp ****     return nullptr;
 277              		.loc 1 69 5 is_stmt 1
 278              		.loc 1 69 12 is_stmt 0
 279 0224 93070000 		li	a5,0
 280              	.LVL27:
 281              	.L3:
  70:visak/MemoryAllocator.cpp **** }
 282              		.loc 1 70 1
 283 0228 13850700 		mv	a0,a5
 284 022c 03348105 		ld	s0,88(sp)
 285              		.cfi_restore 8
 286              		.cfi_def_cfa 2, 96
 287              	.LVL28:
 288 0230 13010106 		addi	sp,sp,96
 289              		.cfi_def_cfa_offset 0
 290              	.LVL29:
 291 0234 67800000 		jr	ra
 292              		.cfi_endproc
 293              	.LFE7:
 295              		.align	2
 296              		.globl	_ZN15MemoryAllocator5kfreeEPv
 298              	_ZN15MemoryAllocator5kfreeEPv:
 299              	.LFB8:
  71:visak/MemoryAllocator.cpp **** 
  72:visak/MemoryAllocator.cpp **** #pragma GCC optimize("O0")
  73:visak/MemoryAllocator.cpp **** 
  74:visak/MemoryAllocator.cpp **** int MemoryAllocator::kfree(void* ptr) {
 300              		.loc 1 74 39 is_stmt 1
 301              		.cfi_startproc
 302              	.LVL30:
 303 0238 130101FB 		addi	sp,sp,-80
 304              		.cfi_def_cfa_offset 80
 305 023c 23341104 		sd	ra,72(sp)
 306 0240 23308104 		sd	s0,64(sp)
 307              		.cfi_offset 1, -8
 308              		.cfi_offset 8, -16
 309 0244 13040105 		addi	s0,sp,80
 310              		.cfi_def_cfa 8, 0
 311 0248 233CA4FA 		sd	a0,-72(s0)
  75:visak/MemoryAllocator.cpp ****     if (!ptr) return 0;
 312              		.loc 1 75 5
 313 024c 833784FB 		ld	a5,-72(s0)
GAS LISTING /tmp/cc31WkXu.s 			page 8


 314 0250 63960700 		bnez	a5,.L21
 315              		.loc 1 75 15 discriminator 1
 316              		.loc 1 75 22 is_stmt 0 discriminator 1
 317 0254 93070000 		li	a5,0
 318 0258 6F004017 		j	.L22
 319              	.L21:
  76:visak/MemoryAllocator.cpp ****     if (!usedMemHead) return -1;
 320              		.loc 1 76 5 is_stmt 1
 321              		.loc 1 76 9 is_stmt 0
 322 025c 97070000 		lla	a5,_ZN15MemoryAllocator11usedMemHeadE
 322      93870700 
 323 0264 83B70700 		ld	a5,0(a5)
 324              		.loc 1 76 5
 325 0268 63960700 		bnez	a5,.L23
 326              		.loc 1 76 23 is_stmt 1 discriminator 1
 327              		.loc 1 76 31 is_stmt 0 discriminator 1
 328 026c 9307F0FF 		li	a5,-1
 329 0270 6F00C015 		j	.L22
 330              	.L23:
  77:visak/MemoryAllocator.cpp ****     //ptr pokazuje na usableFirstAddress, pre toga je zaglavlje segmenta
  78:visak/MemoryAllocator.cpp ****     ptr = (char*) ptr - sizeof(UsedMemSegment);
 331              		.loc 1 78 5 is_stmt 1
 332              		.loc 1 78 9 is_stmt 0
 333 0274 833784FB 		ld	a5,-72(s0)
 334 0278 938707FE 		addi	a5,a5,-32
 335 027c 233CF4FA 		sd	a5,-72(s0)
 336              	.LVL31:
  79:visak/MemoryAllocator.cpp **** 
  80:visak/MemoryAllocator.cpp ****     //trazenje adrese ptr u listi zauzetih segmenata
  81:visak/MemoryAllocator.cpp ****     UsedMemSegment* currentUsed = usedMemHead;
 337              		.loc 1 81 5 is_stmt 1
 338              		.loc 1 81 21 is_stmt 0
 339 0280 97070000 		lla	a5,_ZN15MemoryAllocator11usedMemHeadE
 339      93870700 
 340              	.LVL32:
 341 0288 83B70700 		ld	a5,0(a5)
 342 028c 2334F4FE 		sd	a5,-24(s0)
 343              	.LVL33:
  82:visak/MemoryAllocator.cpp ****     UsedMemSegment* prevUsed = nullptr;
 344              		.loc 1 82 5 is_stmt 1
 345              		.loc 1 82 21 is_stmt 0
 346 0290 233004FE 		sd	zero,-32(s0)
 347              	.LVL34:
 348              	.L25:
  83:visak/MemoryAllocator.cpp ****     for (; currentUsed && ((char*) currentUsed != (char*) ptr); currentUsed = currentUsed->next) {
 349              		.loc 1 83 5 is_stmt 1 discriminator 3
 350              		.loc 1 83 24 discriminator 3
 351 0294 833784FE 		ld	a5,-24(s0)
 352 0298 63840702 		beqz	a5,.L24
 353              		.loc 1 83 24 is_stmt 0 discriminator 1
 354 029c 033784FE 		ld	a4,-24(s0)
 355 02a0 833784FB 		ld	a5,-72(s0)
 356 02a4 630EF700 		beq	a4,a5,.L24
  84:visak/MemoryAllocator.cpp ****         prevUsed = currentUsed;
 357              		.loc 1 84 9 is_stmt 1 discriminator 2
 358              		.loc 1 84 18 is_stmt 0 discriminator 2
 359 02a8 833784FE 		ld	a5,-24(s0)
GAS LISTING /tmp/cc31WkXu.s 			page 9


 360 02ac 2330F4FE 		sd	a5,-32(s0)
 361              	.LVL35:
  83:visak/MemoryAllocator.cpp ****     for (; currentUsed && ((char*) currentUsed != (char*) ptr); currentUsed = currentUsed->next) {
 362              		.loc 1 83 5 is_stmt 1 discriminator 2
  83:visak/MemoryAllocator.cpp ****     for (; currentUsed && ((char*) currentUsed != (char*) ptr); currentUsed = currentUsed->next) {
 363              		.loc 1 83 77 is_stmt 0 discriminator 2
 364 02b0 833784FE 		ld	a5,-24(s0)
 365 02b4 83B70700 		ld	a5,0(a5)
 366 02b8 2334F4FE 		sd	a5,-24(s0)
 367              	.LVL36:
  83:visak/MemoryAllocator.cpp ****     for (; currentUsed && ((char*) currentUsed != (char*) ptr); currentUsed = currentUsed->next) {
 368              		.loc 1 83 5 discriminator 2
 369 02bc 6FF09FFD 		j	.L25
 370              	.LVL37:
 371              	.L24:
  85:visak/MemoryAllocator.cpp ****     }
  86:visak/MemoryAllocator.cpp ****     if ((char*) currentUsed != (char*) ptr) return -1;    //adresa ne odgovara segmentu alociranom 
 372              		.loc 1 86 5 is_stmt 1
 373 02c0 033784FE 		ld	a4,-24(s0)
 374 02c4 833784FB 		ld	a5,-72(s0)
 375 02c8 6306F700 		beq	a4,a5,.L26
 376              		.loc 1 86 45 discriminator 1
 377              		.loc 1 86 53 is_stmt 0 discriminator 1
 378 02cc 9307F0FF 		li	a5,-1
 379 02d0 6F00C00F 		j	.L22
 380              	.L26:
  87:visak/MemoryAllocator.cpp **** 
  88:visak/MemoryAllocator.cpp ****     //izbacivanje iz liste zauzetih segmenata
  89:visak/MemoryAllocator.cpp ****     if (prevUsed) prevUsed->next = currentUsed->next;
 381              		.loc 1 89 5 is_stmt 1
 382 02d4 833704FE 		ld	a5,-32(s0)
 383 02d8 638C0700 		beqz	a5,.L27
 384              		.loc 1 89 19 discriminator 1
 385              		.loc 1 89 49 is_stmt 0 discriminator 1
 386 02dc 833784FE 		ld	a5,-24(s0)
 387 02e0 03B70700 		ld	a4,0(a5)
 388              		.loc 1 89 34 discriminator 1
 389 02e4 833704FE 		ld	a5,-32(s0)
 390 02e8 23B0E700 		sd	a4,0(a5)
 391 02ec 6F008001 		j	.L28
 392              	.L27:
  90:visak/MemoryAllocator.cpp ****     else usedMemHead = currentUsed->next;
 393              		.loc 1 90 10 is_stmt 1
 394              		.loc 1 90 37 is_stmt 0
 395 02f0 833784FE 		ld	a5,-24(s0)
 396 02f4 03B70700 		ld	a4,0(a5)
 397              		.loc 1 90 22
 398 02f8 97070000 		lla	a5,_ZN15MemoryAllocator11usedMemHeadE
 398      93870700 
 399 0300 23B0E700 		sd	a4,0(a5)
 400              	.L28:
  91:visak/MemoryAllocator.cpp **** 
  92:visak/MemoryAllocator.cpp ****     //oslobadjanje segmenta i ubacivanje u listu slobodnih
  93:visak/MemoryAllocator.cpp ****     FreeMemSegment* prevFree = nullptr;
 401              		.loc 1 93 5 is_stmt 1
 402              		.loc 1 93 21 is_stmt 0
 403 0304 233C04FC 		sd	zero,-40(s0)
GAS LISTING /tmp/cc31WkXu.s 			page 10


 404              	.LVL38:
  94:visak/MemoryAllocator.cpp ****     FreeMemSegment* nextFree = freeMemHead;
 405              		.loc 1 94 5 is_stmt 1
 406              		.loc 1 94 21 is_stmt 0
 407 0308 97070000 		lla	a5,_ZN15MemoryAllocator11freeMemHeadE
 407      93870700 
 408 0310 83B70700 		ld	a5,0(a5)
 409 0314 2338F4FC 		sd	a5,-48(s0)
 410              	.LVL39:
 411              	.L30:
  95:visak/MemoryAllocator.cpp ****     for (; nextFree && (char*) nextFree < (char*) ptr; prevFree = nextFree, nextFree = nextFree->ne
 412              		.loc 1 95 5 is_stmt 1 discriminator 3
 413              		.loc 1 95 21 discriminator 3
 414 0318 833704FD 		ld	a5,-48(s0)
 415 031c 63840702 		beqz	a5,.L29
 416              		.loc 1 95 21 is_stmt 0 discriminator 1
 417 0320 033704FD 		ld	a4,-48(s0)
 418 0324 833784FB 		ld	a5,-72(s0)
 419 0328 637EF700 		bgeu	a4,a5,.L29
 420              		.loc 1 95 5 is_stmt 1 discriminator 2
 421              		.loc 1 95 65 is_stmt 0 discriminator 2
 422 032c 833704FD 		ld	a5,-48(s0)
 423 0330 233CF4FC 		sd	a5,-40(s0)
 424              	.LVL40:
 425              		.loc 1 95 86 discriminator 2
 426 0334 833704FD 		ld	a5,-48(s0)
 427 0338 83B70700 		ld	a5,0(a5)
 428 033c 2338F4FC 		sd	a5,-48(s0)
 429              	.LVL41:
 430              		.loc 1 95 5 discriminator 2
 431 0340 6FF09FFD 		j	.L30
 432              	.LVL42:
 433              	.L29:
  96:visak/MemoryAllocator.cpp ****     FreeMemSegment* newFree = (FreeMemSegment*) ptr;
 434              		.loc 1 96 5 is_stmt 1
 435              		.loc 1 96 21 is_stmt 0
 436 0344 833784FB 		ld	a5,-72(s0)
 437 0348 2334F4FC 		sd	a5,-56(s0)
 438              	.LVL43:
  97:visak/MemoryAllocator.cpp ****     size_t segmentSize = ((UsedMemSegment*) ptr)->size;
 439              		.loc 1 97 5 is_stmt 1
 440              		.loc 1 97 12 is_stmt 0
 441 034c 833784FB 		ld	a5,-72(s0)
 442 0350 83B78700 		ld	a5,8(a5)
 443              	.LVL44:
 444 0354 2330F4FC 		sd	a5,-64(s0)
 445              	.LVL45:
  98:visak/MemoryAllocator.cpp ****     newFree->size = segmentSize;
 446              		.loc 1 98 5 is_stmt 1
 447              		.loc 1 98 19 is_stmt 0
 448 0358 833784FC 		ld	a5,-56(s0)
 449              	.LVL46:
 450 035c 033704FC 		ld	a4,-64(s0)
 451 0360 23B4E700 		sd	a4,8(a5)
 452              	.LVL47:
  99:visak/MemoryAllocator.cpp ****     if (prevFree) {
 453              		.loc 1 99 5 is_stmt 1
GAS LISTING /tmp/cc31WkXu.s 			page 11


 454 0364 833784FD 		ld	a5,-40(s0)
 455 0368 63820702 		beqz	a5,.L31
 100:visak/MemoryAllocator.cpp ****         newFree->next = prevFree->next;
 456              		.loc 1 100 9
 457              		.loc 1 100 35 is_stmt 0
 458 036c 833784FD 		ld	a5,-40(s0)
 459 0370 03B70700 		ld	a4,0(a5)
 460              	.LVL48:
 461              		.loc 1 100 23
 462 0374 833784FC 		ld	a5,-56(s0)
 463 0378 23B0E700 		sd	a4,0(a5)
 101:visak/MemoryAllocator.cpp ****         prevFree->next = newFree;
 464              		.loc 1 101 9 is_stmt 1
 465              		.loc 1 101 24 is_stmt 0
 466 037c 833784FD 		ld	a5,-40(s0)
 467 0380 033784FC 		ld	a4,-56(s0)
 468 0384 23B0E700 		sd	a4,0(a5)
 469              	.LVL49:
 470 0388 6F008002 		j	.L32
 471              	.LVL50:
 472              	.L31:
 102:visak/MemoryAllocator.cpp ****     } else {
 103:visak/MemoryAllocator.cpp ****         newFree->next = freeMemHead;
 473              		.loc 1 103 9 is_stmt 1
 474              		.loc 1 103 23 is_stmt 0
 475 038c 97070000 		lla	a5,_ZN15MemoryAllocator11freeMemHeadE
 475      93870700 
 476 0394 03B70700 		ld	a4,0(a5)
 477              	.LVL51:
 478 0398 833784FC 		ld	a5,-56(s0)
 479 039c 23B0E700 		sd	a4,0(a5)
 480              	.LVL52:
 104:visak/MemoryAllocator.cpp ****         freeMemHead = newFree;
 481              		.loc 1 104 9 is_stmt 1
 482              		.loc 1 104 21 is_stmt 0
 483 03a0 97070000 		lla	a5,_ZN15MemoryAllocator11freeMemHeadE
 483      93870700 
 484 03a8 033784FC 		ld	a4,-56(s0)
 485 03ac 23B0E700 		sd	a4,0(a5)
 486              	.L32:
 105:visak/MemoryAllocator.cpp ****     }
 106:visak/MemoryAllocator.cpp **** 
 107:visak/MemoryAllocator.cpp ****     //spajanje uzastopnih slobodnih segmenata
 108:visak/MemoryAllocator.cpp ****     tryToJoin(newFree);
 487              		.loc 1 108 5 is_stmt 1
 488              		.loc 1 108 14 is_stmt 0
 489 03b0 033584FC 		ld	a0,-56(s0)
 490 03b4 97000000 		call	_ZN15MemoryAllocator9tryToJoinEPNS_14FreeMemSegmentE
 490      E7800000 
 491              	.LVL53:
 109:visak/MemoryAllocator.cpp ****     tryToJoin(prevFree);
 492              		.loc 1 109 5 is_stmt 1
 493              		.loc 1 109 14 is_stmt 0
 494 03bc 033584FD 		ld	a0,-40(s0)
 495 03c0 97000000 		call	_ZN15MemoryAllocator9tryToJoinEPNS_14FreeMemSegmentE
 495      E7800000 
 496              	.LVL54:
GAS LISTING /tmp/cc31WkXu.s 			page 12


 110:visak/MemoryAllocator.cpp ****     return 0;
 497              		.loc 1 110 5 is_stmt 1
 498              		.loc 1 110 12 is_stmt 0
 499 03c8 93070000 		li	a5,0
 500              	.LVL55:
 501              	.L22:
 111:visak/MemoryAllocator.cpp **** }
 502              		.loc 1 111 1
 503 03cc 13850700 		mv	a0,a5
 504 03d0 83308104 		ld	ra,72(sp)
 505              		.cfi_restore 1
 506 03d4 03340104 		ld	s0,64(sp)
 507              		.cfi_restore 8
 508              		.cfi_def_cfa 2, 80
 509              	.LVL56:
 510 03d8 13010105 		addi	sp,sp,80
 511              		.cfi_def_cfa_offset 0
 512              	.LVL57:
 513 03dc 67800000 		jr	ra
 514              		.cfi_endproc
 515              	.LFE8:
 517              		.align	2
 518              		.globl	_ZN15MemoryAllocator9tryToJoinEPNS_14FreeMemSegmentE
 520              	_ZN15MemoryAllocator9tryToJoinEPNS_14FreeMemSegmentE:
 521              	.LFB9:
 112:visak/MemoryAllocator.cpp **** 
 113:visak/MemoryAllocator.cpp **** #pragma GCC optimize("O0")
 114:visak/MemoryAllocator.cpp **** 
 115:visak/MemoryAllocator.cpp **** int MemoryAllocator::tryToJoin(MemoryAllocator::FreeMemSegment* current) {
 522              		.loc 1 115 74 is_stmt 1
 523              		.cfi_startproc
 524              	.LVL58:
 525 03e0 130101FC 		addi	sp,sp,-64
 526              		.cfi_def_cfa_offset 64
 527 03e4 233C8102 		sd	s0,56(sp)
 528              		.cfi_offset 8, -8
 529 03e8 13040104 		addi	s0,sp,64
 530              		.cfi_def_cfa 8, 0
 531 03ec 2334A4FC 		sd	a0,-56(s0)
 116:visak/MemoryAllocator.cpp ****     if (!current) return 0;
 532              		.loc 1 116 5
 533 03f0 833784FC 		ld	a5,-56(s0)
 534 03f4 63960700 		bnez	a5,.L34
 535              		.loc 1 116 19 discriminator 1
 536              		.loc 1 116 26 is_stmt 0 discriminator 1
 537 03f8 93070000 		li	a5,0
 538 03fc 6F00000A 		j	.L35
 539              	.L34:
 117:visak/MemoryAllocator.cpp ****     bool nextExists = current->next != nullptr;
 540              		.loc 1 117 5 is_stmt 1
 541              		.loc 1 117 32 is_stmt 0
 542 0400 833784FC 		ld	a5,-56(s0)
 543 0404 83B70700 		ld	a5,0(a5)
 544              		.loc 1 117 10
 545 0408 B337F000 		snez	a5,a5
 546 040c A307F4FE 		sb	a5,-17(s0)
 547              	.LVL59:
GAS LISTING /tmp/cc31WkXu.s 			page 13


 118:visak/MemoryAllocator.cpp ****     char* nextAddr = (char*) current + current->size;
 548              		.loc 1 118 5 is_stmt 1
 549              		.loc 1 118 49 is_stmt 0
 550 0410 833784FC 		ld	a5,-56(s0)
 551              	.LVL60:
 552 0414 83B78700 		ld	a5,8(a5)
 553              		.loc 1 118 11
 554 0418 033784FC 		ld	a4,-56(s0)
 555 041c B307F700 		add	a5,a4,a5
 556 0420 2330F4FE 		sd	a5,-32(s0)
 557              	.LVL61:
 119:visak/MemoryAllocator.cpp ****     char* cnext = (char*) current->next;
 558              		.loc 1 119 5 is_stmt 1
 559              		.loc 1 119 11 is_stmt 0
 560 0424 833784FC 		ld	a5,-56(s0)
 561              	.LVL62:
 562 0428 83B70700 		ld	a5,0(a5)
 563 042c 233CF4FC 		sd	a5,-40(s0)
 564              	.LVL63:
 120:visak/MemoryAllocator.cpp ****     bool nextIsConnected = (nextAddr == cnext);
 565              		.loc 1 120 5 is_stmt 1
 566              		.loc 1 120 10 is_stmt 0
 567 0430 033704FE 		ld	a4,-32(s0)
 568 0434 833784FD 		ld	a5,-40(s0)
 569 0438 B307F740 		sub	a5,a4,a5
 570              	.LVL64:
 571 043c 93B71700 		seqz	a5,a5
 572 0440 A30BF4FC 		sb	a5,-41(s0)
 573              	.LVL65:
 121:visak/MemoryAllocator.cpp ****     if (nextExists && nextIsConnected) {
 574              		.loc 1 121 5 is_stmt 1
 575 0444 8347F4FE 		lbu	a5,-17(s0)
 576              	.LVL66:
 577 0448 93F7F70F 		andi	a5,a5,0xff
 578 044c 63860704 		beqz	a5,.L36
 579              		.loc 1 121 20 is_stmt 0 discriminator 1
 580 0450 834774FD 		lbu	a5,-41(s0)
 581 0454 93F7F70F 		andi	a5,a5,0xff
 582 0458 63800704 		beqz	a5,.L36
 122:visak/MemoryAllocator.cpp ****         current->size += current->next->size;
 583              		.loc 1 122 9 is_stmt 1
 584              		.loc 1 122 23 is_stmt 0
 585 045c 833784FC 		ld	a5,-56(s0)
 586 0460 03B78700 		ld	a4,8(a5)
 587              		.loc 1 122 35
 588 0464 833784FC 		ld	a5,-56(s0)
 589 0468 83B70700 		ld	a5,0(a5)
 590              		.loc 1 122 41
 591 046c 83B78700 		ld	a5,8(a5)
 592              		.loc 1 122 23
 593 0470 3307F700 		add	a4,a4,a5
 594 0474 833784FC 		ld	a5,-56(s0)
 595 0478 23B4E700 		sd	a4,8(a5)
 123:visak/MemoryAllocator.cpp ****         current->next = current->next->next;
 596              		.loc 1 123 9 is_stmt 1
 597              		.loc 1 123 34 is_stmt 0
 598 047c 833784FC 		ld	a5,-56(s0)
GAS LISTING /tmp/cc31WkXu.s 			page 14


 599 0480 83B70700 		ld	a5,0(a5)
 600              		.loc 1 123 40
 601 0484 03B70700 		ld	a4,0(a5)
 602              		.loc 1 123 23
 603 0488 833784FC 		ld	a5,-56(s0)
 604 048c 23B0E700 		sd	a4,0(a5)
 605              	.LVL67:
 124:visak/MemoryAllocator.cpp ****         return 1;
 606              		.loc 1 124 9 is_stmt 1
 607              		.loc 1 124 16 is_stmt 0
 608 0490 93071000 		li	a5,1
 609 0494 6F008000 		j	.L35
 610              	.LVL68:
 611              	.L36:
 125:visak/MemoryAllocator.cpp ****     } else return 0;
 612              		.loc 1 125 12 is_stmt 1
 613              		.loc 1 125 19 is_stmt 0
 614 0498 93070000 		li	a5,0
 615              	.LVL69:
 616              	.L35:
 126:visak/MemoryAllocator.cpp **** }
 617              		.loc 1 126 1
 618 049c 13850700 		mv	a0,a5
 619              	.LVL70:
 620 04a0 03348103 		ld	s0,56(sp)
 621              		.cfi_restore 8
 622              		.cfi_def_cfa 2, 64
 623              	.LVL71:
 624 04a4 13010104 		addi	sp,sp,64
 625              		.cfi_def_cfa_offset 0
 626              	.LVL72:
 627 04a8 67800000 		jr	ra
 628              		.cfi_endproc
 629              	.LFE9:
 631              		.align	2
 632              		.globl	_ZN15MemoryAllocator12checkPurposeEPvNS_7PurposeE
 634              	_ZN15MemoryAllocator12checkPurposeEPvNS_7PurposeE:
 635              	.LFB10:
 127:visak/MemoryAllocator.cpp **** 
 128:visak/MemoryAllocator.cpp **** bool MemoryAllocator::checkPurpose(void* ptr, MemoryAllocator::Purpose p) {
 636              		.loc 1 128 75 is_stmt 1
 637              		.cfi_startproc
 638              	.LVL73:
 639 04ac 130101FE 		addi	sp,sp,-32
 640              		.cfi_def_cfa_offset 32
 641 04b0 233C8100 		sd	s0,24(sp)
 642              		.cfi_offset 8, -8
 643 04b4 13040102 		addi	s0,sp,32
 644              		.cfi_def_cfa 8, 0
 645 04b8 2334A4FE 		sd	a0,-24(s0)
 646 04bc 93870500 		mv	a5,a1
 647 04c0 2322F4FE 		sw	a5,-28(s0)
 129:visak/MemoryAllocator.cpp ****     ptr = (char*) ptr - sizeof(UsedMemSegment);
 648              		.loc 1 129 5
 649              		.loc 1 129 9 is_stmt 0
 650 04c4 833784FE 		ld	a5,-24(s0)
 651 04c8 938707FE 		addi	a5,a5,-32
GAS LISTING /tmp/cc31WkXu.s 			page 15


 652 04cc 2334F4FE 		sd	a5,-24(s0)
 653              	.LVL74:
 130:visak/MemoryAllocator.cpp ****     return ((UsedMemSegment*) ptr)->purpose == p;
 654              		.loc 1 130 5 is_stmt 1
 655              		.loc 1 130 37 is_stmt 0
 656 04d0 833784FE 		ld	a5,-24(s0)
 657 04d4 03A70701 		lw	a4,16(a5)
 658              		.loc 1 130 48
 659 04d8 832744FE 		lw	a5,-28(s0)
 660              	.LVL75:
 661 04dc 9B870700 		sext.w	a5,a5
 662 04e0 B387E740 		sub	a5,a5,a4
 663 04e4 93B71700 		seqz	a5,a5
 664 04e8 93F7F70F 		andi	a5,a5,0xff
 131:visak/MemoryAllocator.cpp **** }
 665              		.loc 1 131 1
 666 04ec 13850700 		mv	a0,a5
 667 04f0 03348101 		ld	s0,24(sp)
 668              		.cfi_restore 8
 669              		.cfi_def_cfa 2, 32
 670              	.LVL76:
 671 04f4 13010102 		addi	sp,sp,32
 672              		.cfi_def_cfa_offset 0
 673              	.LVL77:
 674 04f8 67800000 		jr	ra
 675              		.cfi_endproc
 676              	.LFE10:
 678              		.align	2
 679              		.globl	_ZN15MemoryAllocator19initMemoryAllocatorEv
 681              	_ZN15MemoryAllocator19initMemoryAllocatorEv:
 682              	.LFB11:
 132:visak/MemoryAllocator.cpp **** 
 133:visak/MemoryAllocator.cpp **** void MemoryAllocator::initMemoryAllocator() {
 683              		.loc 1 133 45 is_stmt 1
 684              		.cfi_startproc
 685 04fc 130101FF 		addi	sp,sp,-16
 686              		.cfi_def_cfa_offset 16
 687 0500 23348100 		sd	s0,8(sp)
 688              		.cfi_offset 8, -8
 689 0504 13040101 		addi	s0,sp,16
 690              		.cfi_def_cfa 8, 0
 134:visak/MemoryAllocator.cpp **** //pocetna inicijalizacija
 135:visak/MemoryAllocator.cpp ****     if (!initialized) {
 691              		.loc 1 135 5
 692              		.loc 1 135 9 is_stmt 0
 693 0508 97070000 		lla	a5,_ZN15MemoryAllocator11initializedE
 693      93870700 
 694 0510 83C70700 		lbu	a5,0(a5)
 695 0514 93C71700 		xori	a5,a5,1
 696 0518 93F7F70F 		andi	a5,a5,0xff
 697              		.loc 1 135 5
 698 051c 638A0706 		beqz	a5,.L41
 136:visak/MemoryAllocator.cpp ****         freeMemHead = (FreeMemSegment*) HEAP_START_ADDR;
 699              		.loc 1 136 9 is_stmt 1
 700              		.loc 1 136 21 is_stmt 0
 701 0520 97070000 		la	a5,HEAP_START_ADDR
 701      83B70700 
GAS LISTING /tmp/cc31WkXu.s 			page 16


 702 0528 03B70700 		ld	a4,0(a5)
 703 052c 97070000 		lla	a5,_ZN15MemoryAllocator11freeMemHeadE
 703      93870700 
 704 0534 23B0E700 		sd	a4,0(a5)
 137:visak/MemoryAllocator.cpp ****         freeMemHead->next = nullptr;
 705              		.loc 1 137 9 is_stmt 1
 706              		.loc 1 137 22 is_stmt 0
 707 0538 97070000 		lla	a5,_ZN15MemoryAllocator11freeMemHeadE
 707      93870700 
 708 0540 83B70700 		ld	a5,0(a5)
 709              		.loc 1 137 27
 710 0544 23B00700 		sd	zero,0(a5)
 138:visak/MemoryAllocator.cpp ****         //freeMemHead->prev = nullptr;
 139:visak/MemoryAllocator.cpp ****         freeMemHead->size = (char*) HEAP_END_ADDR - (char*) HEAP_START_ADDR;//- sizeof(FreeMemSegme
 711              		.loc 1 139 9 is_stmt 1
 712              		.loc 1 139 29 is_stmt 0
 713 0548 97070000 		la	a5,HEAP_END_ADDR
 713      83B70700 
 714 0550 03B70700 		ld	a4,0(a5)
 715              		.loc 1 139 53
 716 0554 97070000 		la	a5,HEAP_START_ADDR
 716      83B70700 
 717 055c 83B70700 		ld	a5,0(a5)
 718              		.loc 1 139 51
 719 0560 3307F740 		sub	a4,a4,a5
 720              		.loc 1 139 22
 721 0564 97070000 		lla	a5,_ZN15MemoryAllocator11freeMemHeadE
 721      93870700 
 722 056c 83B70700 		ld	a5,0(a5)
 723              		.loc 1 139 27
 724 0570 23B4E700 		sd	a4,8(a5)
 140:visak/MemoryAllocator.cpp ****         usedMemHead = nullptr;
 725              		.loc 1 140 9 is_stmt 1
 726              		.loc 1 140 21 is_stmt 0
 727 0574 97070000 		lla	a5,_ZN15MemoryAllocator11usedMemHeadE
 727      93870700 
 728 057c 23B00700 		sd	zero,0(a5)
 141:visak/MemoryAllocator.cpp **** 
 142:visak/MemoryAllocator.cpp ****         initialized = true;
 729              		.loc 1 142 9 is_stmt 1
 730              		.loc 1 142 21 is_stmt 0
 731 0580 97070000 		lla	a5,_ZN15MemoryAllocator11initializedE
 731      93870700 
 732 0588 13071000 		li	a4,1
 733 058c 2380E700 		sb	a4,0(a5)
 734              	.L41:
 143:visak/MemoryAllocator.cpp ****     }
 144:visak/MemoryAllocator.cpp **** }
 735              		.loc 1 144 1
 736 0590 13000000 		nop
 737 0594 03348100 		ld	s0,8(sp)
 738              		.cfi_restore 8
 739              		.cfi_def_cfa 2, 16
 740 0598 13010101 		addi	sp,sp,16
 741              		.cfi_def_cfa_offset 0
 742 059c 67800000 		jr	ra
 743              		.cfi_endproc
GAS LISTING /tmp/cc31WkXu.s 			page 17


 744              	.LFE11:
 746              		.globl	_ZN15MemoryAllocator11usedMemHeadE
 747              		.bss
 748              		.align	3
 751              	_ZN15MemoryAllocator11usedMemHeadE:
 752 0000 00000000 		.zero	8
 752      00000000 
 753              		.globl	_ZN15MemoryAllocator11freeMemHeadE
 754              		.align	3
 757              	_ZN15MemoryAllocator11freeMemHeadE:
 758 0008 00000000 		.zero	8
 758      00000000 
 759              		.globl	_ZN15MemoryAllocator11initializedE
 762              	_ZN15MemoryAllocator11initializedE:
 763 0010 00       		.zero	1
 764              		.text
 765              	.Letext0:
 766              		.file 2 "visak/../lib/hw.h"
 767              		.file 3 "visak/MemoryAllocator.hpp"
 768              		.file 4 "visak/../test/../h/syscall_c.hpp"
GAS LISTING /tmp/cc31WkXu.s 			page 18


DEFINED SYMBOLS
                            *ABS*:0000000000000000 MemoryAllocator.cpp
     /tmp/cc31WkXu.s:9      .text:0000000000000000 _ZN15MemoryAllocator7kmallocEmNS_7PurposeE
     /tmp/cc31WkXu.s:13     .text:0000000000000000 .L0 
     /tmp/cc31WkXu.s:15     .text:0000000000000000 .L0 
     /tmp/cc31WkXu.s:16     .text:0000000000000004 .L0 
     /tmp/cc31WkXu.s:18     .text:0000000000000008 .L0 
     /tmp/cc31WkXu.s:20     .text:000000000000000c .L0 
     /tmp/cc31WkXu.s:25     .text:0000000000000018 .L0 
     /tmp/cc31WkXu.s:28     .text:0000000000000020 .L0 
     /tmp/cc31WkXu.s:29     .text:0000000000000020 .L0 
     /tmp/cc31WkXu.s:33     .text:0000000000000028 .L0 
     /tmp/cc31WkXu.s:34     .text:0000000000000028 .L0 
     /tmp/cc31WkXu.s:37     .text:0000000000000030 .L0 
     /tmp/cc31WkXu.s:40     .text:0000000000000038 .L0 
     /tmp/cc31WkXu.s:42     .text:000000000000003c .L0 
     /tmp/cc31WkXu.s:46     .text:0000000000000044 .L0 
     /tmp/cc31WkXu.s:49     .text:0000000000000048 .L0 
     /tmp/cc31WkXu.s:53     .text:0000000000000050 .L0 
     /tmp/cc31WkXu.s:54     .text:0000000000000050 .L0 
     /tmp/cc31WkXu.s:60     .text:000000000000005c .L0 
     /tmp/cc31WkXu.s:61     .text:000000000000005c .L0 
     /tmp/cc31WkXu.s:65     .text:0000000000000060 .L0 
     /tmp/cc31WkXu.s:757    .bss:0000000000000008 _ZN15MemoryAllocator11freeMemHeadE
     /tmp/cc31WkXu.s:66     .text:0000000000000060 .L0 
     /tmp/cc31WkXu.s:73     .text:0000000000000070 .L0 
     /tmp/cc31WkXu.s:77     .text:0000000000000078 .L0 
     /tmp/cc31WkXu.s:78     .text:0000000000000078 .L0 
     /tmp/cc31WkXu.s:81     .text:0000000000000080 .L0 
     /tmp/cc31WkXu.s:84     .text:0000000000000088 .L0 
     /tmp/cc31WkXu.s:85     .text:0000000000000088 .L0 
     /tmp/cc31WkXu.s:91     .text:0000000000000098 .L0 
     /tmp/cc31WkXu.s:92     .text:0000000000000098 .L0 
     /tmp/cc31WkXu.s:96     .text:00000000000000a0 .L0 
     /tmp/cc31WkXu.s:101    .text:00000000000000ac .L0 
     /tmp/cc31WkXu.s:106    .text:00000000000000b8 .L0 
     /tmp/cc31WkXu.s:107    .text:00000000000000b8 .L0 
     /tmp/cc31WkXu.s:114    .text:00000000000000c8 .L0 
     /tmp/cc31WkXu.s:118    .text:00000000000000d0 .L0 
     /tmp/cc31WkXu.s:119    .text:00000000000000d0 .L0 
     /tmp/cc31WkXu.s:122    .text:00000000000000d8 .L0 
     /tmp/cc31WkXu.s:127    .text:00000000000000e4 .L0 
     /tmp/cc31WkXu.s:128    .text:00000000000000e4 .L0 
     /tmp/cc31WkXu.s:131    .text:00000000000000ec .L0 
     /tmp/cc31WkXu.s:137    .text:00000000000000fc .L0 
     /tmp/cc31WkXu.s:138    .text:00000000000000fc .L0 
     /tmp/cc31WkXu.s:143    .text:0000000000000108 .L0 
     /tmp/cc31WkXu.s:144    .text:0000000000000108 .L0 
     /tmp/cc31WkXu.s:147    .text:0000000000000110 .L0 
     /tmp/cc31WkXu.s:150    .text:0000000000000118 .L0 
     /tmp/cc31WkXu.s:153    .text:0000000000000120 .L0 
     /tmp/cc31WkXu.s:154    .text:0000000000000120 .L0 
     /tmp/cc31WkXu.s:160    .text:0000000000000130 .L0 
     /tmp/cc31WkXu.s:161    .text:0000000000000130 .L0 
     /tmp/cc31WkXu.s:166    .text:0000000000000140 .L0 
     /tmp/cc31WkXu.s:167    .text:0000000000000140 .L0 
     /tmp/cc31WkXu.s:171    .text:0000000000000148 .L0 
GAS LISTING /tmp/cc31WkXu.s 			page 19


     /tmp/cc31WkXu.s:172    .text:0000000000000148 .L0 
     /tmp/cc31WkXu.s:176    .text:0000000000000154 .L0 
     /tmp/cc31WkXu.s:177    .text:0000000000000154 .L0 
     /tmp/cc31WkXu.s:181    .text:0000000000000160 .L0 
     /tmp/cc31WkXu.s:182    .text:0000000000000160 .L0 
     /tmp/cc31WkXu.s:185    .text:0000000000000168 .L0 
     /tmp/cc31WkXu.s:188    .text:0000000000000170 .L0 
     /tmp/cc31WkXu.s:189    .text:0000000000000170 .L0 
     /tmp/cc31WkXu.s:193    .text:0000000000000174 .L0 
     /tmp/cc31WkXu.s:751    .bss:0000000000000000 _ZN15MemoryAllocator11usedMemHeadE
     /tmp/cc31WkXu.s:194    .text:0000000000000174 .L0 
     /tmp/cc31WkXu.s:201    .text:0000000000000184 .L0 
     /tmp/cc31WkXu.s:204    .text:000000000000018c .L0 
     /tmp/cc31WkXu.s:208    .text:0000000000000198 .L0 
     /tmp/cc31WkXu.s:209    .text:0000000000000198 .L0 
     /tmp/cc31WkXu.s:213    .text:00000000000001a0 .L0 
     /tmp/cc31WkXu.s:214    .text:00000000000001a0 .L0 
     /tmp/cc31WkXu.s:219    .text:00000000000001ac .L0 
     /tmp/cc31WkXu.s:224    .text:00000000000001b0 .L0 
     /tmp/cc31WkXu.s:227    .text:00000000000001b8 .L0 
     /tmp/cc31WkXu.s:228    .text:00000000000001b8 .L0 
     /tmp/cc31WkXu.s:233    .text:00000000000001cc .L0 
     /tmp/cc31WkXu.s:234    .text:00000000000001cc .L0 
     /tmp/cc31WkXu.s:240    .text:00000000000001e0 .L0 
     /tmp/cc31WkXu.s:241    .text:00000000000001e0 .L0 
     /tmp/cc31WkXu.s:244    .text:00000000000001e8 .L0 
     /tmp/cc31WkXu.s:247    .text:00000000000001f0 .L0 
     /tmp/cc31WkXu.s:248    .text:00000000000001f0 .L0 
     /tmp/cc31WkXu.s:253    .text:00000000000001fc .L0 
     /tmp/cc31WkXu.s:254    .text:00000000000001fc .L0 
     /tmp/cc31WkXu.s:260    .text:0000000000000208 .L0 
     /tmp/cc31WkXu.s:263    .text:000000000000020c .L0 
     /tmp/cc31WkXu.s:264    .text:000000000000020c .L0 
     /tmp/cc31WkXu.s:268    .text:0000000000000214 .L0 
     /tmp/cc31WkXu.s:274    .text:0000000000000220 .L0 
     /tmp/cc31WkXu.s:278    .text:0000000000000224 .L0 
     /tmp/cc31WkXu.s:279    .text:0000000000000224 .L0 
     /tmp/cc31WkXu.s:283    .text:0000000000000228 .L0 
     /tmp/cc31WkXu.s:285    .text:0000000000000230 .L0 
     /tmp/cc31WkXu.s:286    .text:0000000000000230 .L0 
     /tmp/cc31WkXu.s:289    .text:0000000000000234 .L0 
     /tmp/cc31WkXu.s:292    .text:0000000000000238 .L0 
     /tmp/cc31WkXu.s:298    .text:0000000000000238 _ZN15MemoryAllocator5kfreeEPv
     /tmp/cc31WkXu.s:301    .text:0000000000000238 .L0 
     /tmp/cc31WkXu.s:303    .text:0000000000000238 .L0 
     /tmp/cc31WkXu.s:304    .text:000000000000023c .L0 
     /tmp/cc31WkXu.s:307    .text:0000000000000244 .L0 
     /tmp/cc31WkXu.s:308    .text:0000000000000244 .L0 
     /tmp/cc31WkXu.s:310    .text:0000000000000248 .L0 
     /tmp/cc31WkXu.s:313    .text:000000000000024c .L0 
     /tmp/cc31WkXu.s:316    .text:0000000000000254 .L0 
     /tmp/cc31WkXu.s:317    .text:0000000000000254 .L0 
     /tmp/cc31WkXu.s:321    .text:000000000000025c .L0 
     /tmp/cc31WkXu.s:322    .text:000000000000025c .L0 
     /tmp/cc31WkXu.s:325    .text:0000000000000268 .L0 
     /tmp/cc31WkXu.s:327    .text:000000000000026c .L0 
     /tmp/cc31WkXu.s:328    .text:000000000000026c .L0 
GAS LISTING /tmp/cc31WkXu.s 			page 20


     /tmp/cc31WkXu.s:332    .text:0000000000000274 .L0 
     /tmp/cc31WkXu.s:333    .text:0000000000000274 .L0 
     /tmp/cc31WkXu.s:338    .text:0000000000000280 .L0 
     /tmp/cc31WkXu.s:339    .text:0000000000000280 .L0 
     /tmp/cc31WkXu.s:345    .text:0000000000000290 .L0 
     /tmp/cc31WkXu.s:346    .text:0000000000000290 .L0 
     /tmp/cc31WkXu.s:350    .text:0000000000000294 .L0 
     /tmp/cc31WkXu.s:351    .text:0000000000000294 .L0 
     /tmp/cc31WkXu.s:354    .text:000000000000029c .L0 
     /tmp/cc31WkXu.s:358    .text:00000000000002a8 .L0 
     /tmp/cc31WkXu.s:359    .text:00000000000002a8 .L0 
     /tmp/cc31WkXu.s:363    .text:00000000000002b0 .L0 
     /tmp/cc31WkXu.s:364    .text:00000000000002b0 .L0 
     /tmp/cc31WkXu.s:369    .text:00000000000002bc .L0 
     /tmp/cc31WkXu.s:373    .text:00000000000002c0 .L0 
     /tmp/cc31WkXu.s:377    .text:00000000000002cc .L0 
     /tmp/cc31WkXu.s:378    .text:00000000000002cc .L0 
     /tmp/cc31WkXu.s:382    .text:00000000000002d4 .L0 
     /tmp/cc31WkXu.s:385    .text:00000000000002dc .L0 
     /tmp/cc31WkXu.s:386    .text:00000000000002dc .L0 
     /tmp/cc31WkXu.s:389    .text:00000000000002e4 .L0 
     /tmp/cc31WkXu.s:394    .text:00000000000002f0 .L0 
     /tmp/cc31WkXu.s:395    .text:00000000000002f0 .L0 
     /tmp/cc31WkXu.s:398    .text:00000000000002f8 .L0 
     /tmp/cc31WkXu.s:402    .text:0000000000000304 .L0 
     /tmp/cc31WkXu.s:403    .text:0000000000000304 .L0 
     /tmp/cc31WkXu.s:406    .text:0000000000000308 .L0 
     /tmp/cc31WkXu.s:407    .text:0000000000000308 .L0 
     /tmp/cc31WkXu.s:413    .text:0000000000000318 .L0 
     /tmp/cc31WkXu.s:414    .text:0000000000000318 .L0 
     /tmp/cc31WkXu.s:417    .text:0000000000000320 .L0 
     /tmp/cc31WkXu.s:421    .text:000000000000032c .L0 
     /tmp/cc31WkXu.s:422    .text:000000000000032c .L0 
     /tmp/cc31WkXu.s:426    .text:0000000000000334 .L0 
     /tmp/cc31WkXu.s:431    .text:0000000000000340 .L0 
     /tmp/cc31WkXu.s:435    .text:0000000000000344 .L0 
     /tmp/cc31WkXu.s:436    .text:0000000000000344 .L0 
     /tmp/cc31WkXu.s:440    .text:000000000000034c .L0 
     /tmp/cc31WkXu.s:441    .text:000000000000034c .L0 
     /tmp/cc31WkXu.s:447    .text:0000000000000358 .L0 
     /tmp/cc31WkXu.s:448    .text:0000000000000358 .L0 
     /tmp/cc31WkXu.s:454    .text:0000000000000364 .L0 
     /tmp/cc31WkXu.s:457    .text:000000000000036c .L0 
     /tmp/cc31WkXu.s:458    .text:000000000000036c .L0 
     /tmp/cc31WkXu.s:462    .text:0000000000000374 .L0 
     /tmp/cc31WkXu.s:465    .text:000000000000037c .L0 
     /tmp/cc31WkXu.s:466    .text:000000000000037c .L0 
     /tmp/cc31WkXu.s:474    .text:000000000000038c .L0 
     /tmp/cc31WkXu.s:475    .text:000000000000038c .L0 
     /tmp/cc31WkXu.s:482    .text:00000000000003a0 .L0 
     /tmp/cc31WkXu.s:483    .text:00000000000003a0 .L0 
     /tmp/cc31WkXu.s:488    .text:00000000000003b0 .L0 
     /tmp/cc31WkXu.s:489    .text:00000000000003b0 .L0 
     /tmp/cc31WkXu.s:520    .text:00000000000003e0 _ZN15MemoryAllocator9tryToJoinEPNS_14FreeMemSegmentE
     /tmp/cc31WkXu.s:493    .text:00000000000003bc .L0 
     /tmp/cc31WkXu.s:494    .text:00000000000003bc .L0 
     /tmp/cc31WkXu.s:498    .text:00000000000003c8 .L0 
GAS LISTING /tmp/cc31WkXu.s 			page 21


     /tmp/cc31WkXu.s:499    .text:00000000000003c8 .L0 
     /tmp/cc31WkXu.s:503    .text:00000000000003cc .L0 
     /tmp/cc31WkXu.s:505    .text:00000000000003d4 .L0 
     /tmp/cc31WkXu.s:507    .text:00000000000003d8 .L0 
     /tmp/cc31WkXu.s:508    .text:00000000000003d8 .L0 
     /tmp/cc31WkXu.s:511    .text:00000000000003dc .L0 
     /tmp/cc31WkXu.s:514    .text:00000000000003e0 .L0 
     /tmp/cc31WkXu.s:523    .text:00000000000003e0 .L0 
     /tmp/cc31WkXu.s:525    .text:00000000000003e0 .L0 
     /tmp/cc31WkXu.s:526    .text:00000000000003e4 .L0 
     /tmp/cc31WkXu.s:528    .text:00000000000003e8 .L0 
     /tmp/cc31WkXu.s:530    .text:00000000000003ec .L0 
     /tmp/cc31WkXu.s:533    .text:00000000000003f0 .L0 
     /tmp/cc31WkXu.s:536    .text:00000000000003f8 .L0 
     /tmp/cc31WkXu.s:537    .text:00000000000003f8 .L0 
     /tmp/cc31WkXu.s:541    .text:0000000000000400 .L0 
     /tmp/cc31WkXu.s:542    .text:0000000000000400 .L0 
     /tmp/cc31WkXu.s:545    .text:0000000000000408 .L0 
     /tmp/cc31WkXu.s:549    .text:0000000000000410 .L0 
     /tmp/cc31WkXu.s:550    .text:0000000000000410 .L0 
     /tmp/cc31WkXu.s:554    .text:0000000000000418 .L0 
     /tmp/cc31WkXu.s:559    .text:0000000000000424 .L0 
     /tmp/cc31WkXu.s:560    .text:0000000000000424 .L0 
     /tmp/cc31WkXu.s:566    .text:0000000000000430 .L0 
     /tmp/cc31WkXu.s:567    .text:0000000000000430 .L0 
     /tmp/cc31WkXu.s:575    .text:0000000000000444 .L0 
     /tmp/cc31WkXu.s:580    .text:0000000000000450 .L0 
     /tmp/cc31WkXu.s:584    .text:000000000000045c .L0 
     /tmp/cc31WkXu.s:585    .text:000000000000045c .L0 
     /tmp/cc31WkXu.s:588    .text:0000000000000464 .L0 
     /tmp/cc31WkXu.s:591    .text:000000000000046c .L0 
     /tmp/cc31WkXu.s:593    .text:0000000000000470 .L0 
     /tmp/cc31WkXu.s:597    .text:000000000000047c .L0 
     /tmp/cc31WkXu.s:598    .text:000000000000047c .L0 
     /tmp/cc31WkXu.s:601    .text:0000000000000484 .L0 
     /tmp/cc31WkXu.s:603    .text:0000000000000488 .L0 
     /tmp/cc31WkXu.s:607    .text:0000000000000490 .L0 
     /tmp/cc31WkXu.s:608    .text:0000000000000490 .L0 
     /tmp/cc31WkXu.s:613    .text:0000000000000498 .L0 
     /tmp/cc31WkXu.s:614    .text:0000000000000498 .L0 
     /tmp/cc31WkXu.s:618    .text:000000000000049c .L0 
     /tmp/cc31WkXu.s:621    .text:00000000000004a4 .L0 
     /tmp/cc31WkXu.s:622    .text:00000000000004a4 .L0 
     /tmp/cc31WkXu.s:625    .text:00000000000004a8 .L0 
     /tmp/cc31WkXu.s:628    .text:00000000000004ac .L0 
     /tmp/cc31WkXu.s:634    .text:00000000000004ac _ZN15MemoryAllocator12checkPurposeEPvNS_7PurposeE
     /tmp/cc31WkXu.s:637    .text:00000000000004ac .L0 
     /tmp/cc31WkXu.s:639    .text:00000000000004ac .L0 
     /tmp/cc31WkXu.s:640    .text:00000000000004b0 .L0 
     /tmp/cc31WkXu.s:642    .text:00000000000004b4 .L0 
     /tmp/cc31WkXu.s:644    .text:00000000000004b8 .L0 
     /tmp/cc31WkXu.s:649    .text:00000000000004c4 .L0 
     /tmp/cc31WkXu.s:650    .text:00000000000004c4 .L0 
     /tmp/cc31WkXu.s:655    .text:00000000000004d0 .L0 
     /tmp/cc31WkXu.s:656    .text:00000000000004d0 .L0 
     /tmp/cc31WkXu.s:659    .text:00000000000004d8 .L0 
     /tmp/cc31WkXu.s:666    .text:00000000000004ec .L0 
GAS LISTING /tmp/cc31WkXu.s 			page 22


     /tmp/cc31WkXu.s:668    .text:00000000000004f4 .L0 
     /tmp/cc31WkXu.s:669    .text:00000000000004f4 .L0 
     /tmp/cc31WkXu.s:672    .text:00000000000004f8 .L0 
     /tmp/cc31WkXu.s:675    .text:00000000000004fc .L0 
     /tmp/cc31WkXu.s:681    .text:00000000000004fc _ZN15MemoryAllocator19initMemoryAllocatorEv
     /tmp/cc31WkXu.s:684    .text:00000000000004fc .L0 
     /tmp/cc31WkXu.s:685    .text:00000000000004fc .L0 
     /tmp/cc31WkXu.s:686    .text:0000000000000500 .L0 
     /tmp/cc31WkXu.s:688    .text:0000000000000504 .L0 
     /tmp/cc31WkXu.s:690    .text:0000000000000508 .L0 
     /tmp/cc31WkXu.s:692    .text:0000000000000508 .L0 
     /tmp/cc31WkXu.s:762    .bss:0000000000000010 _ZN15MemoryAllocator11initializedE
     /tmp/cc31WkXu.s:693    .text:0000000000000508 .L0 
     /tmp/cc31WkXu.s:698    .text:000000000000051c .L0 
     /tmp/cc31WkXu.s:700    .text:0000000000000520 .L0 
     /tmp/cc31WkXu.s:701    .text:0000000000000520 .L0 
     /tmp/cc31WkXu.s:706    .text:0000000000000538 .L0 
     /tmp/cc31WkXu.s:707    .text:0000000000000538 .L0 
     /tmp/cc31WkXu.s:710    .text:0000000000000544 .L0 
     /tmp/cc31WkXu.s:712    .text:0000000000000548 .L0 
     /tmp/cc31WkXu.s:713    .text:0000000000000548 .L0 
     /tmp/cc31WkXu.s:716    .text:0000000000000554 .L0 
     /tmp/cc31WkXu.s:719    .text:0000000000000560 .L0 
     /tmp/cc31WkXu.s:721    .text:0000000000000564 .L0 
     /tmp/cc31WkXu.s:724    .text:0000000000000570 .L0 
     /tmp/cc31WkXu.s:726    .text:0000000000000574 .L0 
     /tmp/cc31WkXu.s:727    .text:0000000000000574 .L0 
     /tmp/cc31WkXu.s:730    .text:0000000000000580 .L0 
     /tmp/cc31WkXu.s:731    .text:0000000000000580 .L0 
     /tmp/cc31WkXu.s:736    .text:0000000000000590 .L0 
     /tmp/cc31WkXu.s:738    .text:0000000000000598 .L0 
     /tmp/cc31WkXu.s:739    .text:0000000000000598 .L0 
     /tmp/cc31WkXu.s:741    .text:000000000000059c .L0 
     /tmp/cc31WkXu.s:743    .text:00000000000005a0 .L0 
     /tmp/cc31WkXu.s:769    .text:00000000000005a0 .L0 
     /tmp/cc31WkXu.s:66     .text:0000000000000060 .L0 
     /tmp/cc31WkXu.s:131    .text:00000000000000ec .L0 
     /tmp/cc31WkXu.s:161    .text:0000000000000130 .L0 
     /tmp/cc31WkXu.s:194    .text:0000000000000174 .L0 
     /tmp/cc31WkXu.s:228    .text:00000000000001b8 .L0 
     /tmp/cc31WkXu.s:234    .text:00000000000001cc .L0 
     /tmp/cc31WkXu.s:322    .text:000000000000025c .L0 
     /tmp/cc31WkXu.s:339    .text:0000000000000280 .L0 
     /tmp/cc31WkXu.s:398    .text:00000000000002f8 .L0 
     /tmp/cc31WkXu.s:407    .text:0000000000000308 .L0 
     /tmp/cc31WkXu.s:475    .text:000000000000038c .L0 
     /tmp/cc31WkXu.s:483    .text:00000000000003a0 .L0 
     /tmp/cc31WkXu.s:693    .text:0000000000000508 .L0 
     /tmp/cc31WkXu.s:701    .text:0000000000000520 .L0 
     /tmp/cc31WkXu.s:703    .text:000000000000052c .L0 
     /tmp/cc31WkXu.s:707    .text:0000000000000538 .L0 
     /tmp/cc31WkXu.s:713    .text:0000000000000548 .L0 
     /tmp/cc31WkXu.s:716    .text:0000000000000554 .L0 
     /tmp/cc31WkXu.s:721    .text:0000000000000564 .L0 
     /tmp/cc31WkXu.s:727    .text:0000000000000574 .L0 
     /tmp/cc31WkXu.s:731    .text:0000000000000580 .L0 
     /tmp/cc31WkXu.s:31     .text:0000000000000028 .L2
GAS LISTING /tmp/cc31WkXu.s 			page 23


     /tmp/cc31WkXu.s:281    .text:0000000000000228 .L3
     /tmp/cc31WkXu.s:44     .text:0000000000000044 .L4
     /tmp/cc31WkXu.s:47     .text:0000000000000048 .L5
     /tmp/cc31WkXu.s:275    .text:0000000000000224 .L6
     /tmp/cc31WkXu.s:258    .text:0000000000000208 .L19
     /tmp/cc31WkXu.s:135    .text:00000000000000fc .L9
     /tmp/cc31WkXu.s:125    .text:00000000000000e4 .L10
     /tmp/cc31WkXu.s:164    .text:0000000000000140 .L11
     /tmp/cc31WkXu.s:158    .text:0000000000000130 .L12
     /tmp/cc31WkXu.s:221    .text:00000000000001b0 .L13
     /tmp/cc31WkXu.s:199    .text:0000000000000184 .L14
     /tmp/cc31WkXu.s:238    .text:00000000000001e0 .L15
     /tmp/cc31WkXu.s:251    .text:00000000000001fc .L16
     /tmp/cc31WkXu.s:71     .text:0000000000000070 .L17
     /tmp/cc31WkXu.s:319    .text:000000000000025c .L21
     /tmp/cc31WkXu.s:501    .text:00000000000003cc .L22
     /tmp/cc31WkXu.s:330    .text:0000000000000274 .L23
     /tmp/cc31WkXu.s:371    .text:00000000000002c0 .L24
     /tmp/cc31WkXu.s:348    .text:0000000000000294 .L25
     /tmp/cc31WkXu.s:380    .text:00000000000002d4 .L26
     /tmp/cc31WkXu.s:392    .text:00000000000002f0 .L27
     /tmp/cc31WkXu.s:400    .text:0000000000000304 .L28
     /tmp/cc31WkXu.s:433    .text:0000000000000344 .L29
     /tmp/cc31WkXu.s:411    .text:0000000000000318 .L30
     /tmp/cc31WkXu.s:472    .text:000000000000038c .L31
     /tmp/cc31WkXu.s:486    .text:00000000000003b0 .L32
     /tmp/cc31WkXu.s:539    .text:0000000000000400 .L34
     /tmp/cc31WkXu.s:616    .text:000000000000049c .L35
     /tmp/cc31WkXu.s:611    .text:0000000000000498 .L36
     /tmp/cc31WkXu.s:734    .text:0000000000000590 .L41
     /tmp/cc31WkXu.s:1393   .debug_abbrev:0000000000000000 .Ldebug_abbrev0
     /tmp/cc31WkXu.s:2544   .debug_str:00000000000003b1 .LASF58
     /tmp/cc31WkXu.s:2562   .debug_str:00000000000004d1 .LASF59
     /tmp/cc31WkXu.s:2478   .debug_str:0000000000000185 .LASF60
     /tmp/cc31WkXu.s:5      .text:0000000000000000 .Ltext0
     /tmp/cc31WkXu.s:765    .text:00000000000005a0 .Letext0
     /tmp/cc31WkXu.s:2426   .debug_line:0000000000000000 .Ldebug_line0
     /tmp/cc31WkXu.s:2500   .debug_str:0000000000000269 .LASF0
     /tmp/cc31WkXu.s:2508   .debug_str:0000000000000289 .LASF1
     /tmp/cc31WkXu.s:2490   .debug_str:0000000000000203 .LASF2
     /tmp/cc31WkXu.s:2484   .debug_str:00000000000001dd .LASF4
     /tmp/cc31WkXu.s:2538   .debug_str:0000000000000377 .LASF3
     /tmp/cc31WkXu.s:2440   .debug_str:0000000000000051 .LASF5
     /tmp/cc31WkXu.s:2512   .debug_str:00000000000002a8 .LASF6
     /tmp/cc31WkXu.s:2498   .debug_str:0000000000000256 .LASF7
     /tmp/cc31WkXu.s:2554   .debug_str:00000000000004a9 .LASF8
     /tmp/cc31WkXu.s:2476   .debug_str:0000000000000177 .LASF9
     /tmp/cc31WkXu.s:2524   .debug_str:00000000000002e8 .LASF10
     /tmp/cc31WkXu.s:2546   .debug_str:0000000000000475 .LASF11
     /tmp/cc31WkXu.s:2442   .debug_str:0000000000000058 .LASF12
     /tmp/cc31WkXu.s:2432   .debug_str:000000000000002a .LASF13
     /tmp/cc31WkXu.s:2448   .debug_str:000000000000009e .LASF14
     /tmp/cc31WkXu.s:2532   .debug_str:000000000000032d .LASF15
     /tmp/cc31WkXu.s:2460   .debug_str:0000000000000108 .LASF16
     /tmp/cc31WkXu.s:2488   .debug_str:00000000000001f3 .LASF61
     /tmp/cc31WkXu.s:2482   .debug_str:00000000000001d5 .LASF62
     /tmp/cc31WkXu.s:2502   .debug_str:0000000000000276 .LASF17
GAS LISTING /tmp/cc31WkXu.s 			page 24


     /tmp/cc31WkXu.s:2556   .debug_str:00000000000004b9 .LASF18
     /tmp/cc31WkXu.s:2520   .debug_str:00000000000002d5 .LASF19
     /tmp/cc31WkXu.s:2506   .debug_str:0000000000000284 .LASF20
     /tmp/cc31WkXu.s:2528   .debug_str:0000000000000300 .LASF21
     /tmp/cc31WkXu.s:2550   .debug_str:000000000000048c .LASF24
     /tmp/cc31WkXu.s:2560   .debug_str:00000000000004cc .LASF22
     /tmp/cc31WkXu.s:2540   .debug_str:0000000000000389 .LASF23
     /tmp/cc31WkXu.s:2486   .debug_str:00000000000001e4 .LASF25
     /tmp/cc31WkXu.s:2534   .debug_str:0000000000000343 .LASF26
     /tmp/cc31WkXu.s:2446   .debug_str:000000000000008b .LASF27
     /tmp/cc31WkXu.s:2548   .debug_str:0000000000000484 .LASF28
     /tmp/cc31WkXu.s:2458   .debug_str:00000000000000dd .LASF30
     /tmp/cc31WkXu.s:2452   .debug_str:00000000000000be .LASF29
     /tmp/cc31WkXu.s:2430   .debug_str:000000000000000c .LASF31
     /tmp/cc31WkXu.s:2516   .debug_str:00000000000002c0 .LASF32
     /tmp/cc31WkXu.s:2480   .debug_str:00000000000001a3 .LASF33
     /tmp/cc31WkXu.s:2450   .debug_str:00000000000000aa .LASF63
     /tmp/cc31WkXu.s:2536   .debug_str:000000000000034b .LASF64
     /tmp/cc31WkXu.s:2464   .debug_str:000000000000012e .LASF65
     /tmp/cc31WkXu.s:2428   .debug_str:0000000000000000 .LASF34
     /tmp/cc31WkXu.s:2472   .debug_str:000000000000015f .LASF35
     /tmp/cc31WkXu.s:2522   .debug_str:00000000000002dc .LASF36
     /tmp/cc31WkXu.s:2466   .debug_str:0000000000000147 .LASF66
     /tmp/cc31WkXu.s:2492   .debug_str:0000000000000211 .LASF67
     /tmp/cc31WkXu.s:2468   .debug_str:0000000000000151 .LASF37
     /tmp/cc31WkXu.s:2542   .debug_str:000000000000038e .LASF38
     /tmp/cc31WkXu.s:2444   .debug_str:0000000000000068 .LASF39
     /tmp/cc31WkXu.s:2530   .debug_str:000000000000030a .LASF40
     /tmp/cc31WkXu.s:682    .text:00000000000004fc .LFB11
     /tmp/cc31WkXu.s:744    .text:00000000000005a0 .LFE11
     /tmp/cc31WkXu.s:635    .text:00000000000004ac .LFB10
     /tmp/cc31WkXu.s:676    .text:00000000000004fc .LFE10
     /tmp/cc31WkXu.s:1968   .debug_loc:0000000000000000 .LLST21
     /tmp/cc31WkXu.s:521    .text:00000000000003e0 .LFB9
     /tmp/cc31WkXu.s:629    .text:00000000000004ac .LFE9
     /tmp/cc31WkXu.s:2504   .debug_str:000000000000027c .LASF41
     /tmp/cc31WkXu.s:1994   .debug_loc:0000000000000072 .LLST16
     /tmp/cc31WkXu.s:2454   .debug_str:00000000000000c4 .LASF42
     /tmp/cc31WkXu.s:2016   .debug_loc:00000000000000d1 .LLST17
     /tmp/cc31WkXu.s:2436   .debug_str:0000000000000042 .LASF43
     /tmp/cc31WkXu.s:2028   .debug_loc:0000000000000108 .LLST18
     /tmp/cc31WkXu.s:2438   .debug_str:000000000000004b .LASF44
     /tmp/cc31WkXu.s:2044   .debug_loc:0000000000000152 .LLST19
     /tmp/cc31WkXu.s:2462   .debug_str:000000000000011e .LASF45
     /tmp/cc31WkXu.s:2068   .debug_loc:00000000000001b3 .LLST20
     /tmp/cc31WkXu.s:2514   .debug_str:00000000000002bb .LASF46
     /tmp/cc31WkXu.s:299    .text:0000000000000238 .LFB8
     /tmp/cc31WkXu.s:515    .text:00000000000003e0 .LFE8
     /tmp/cc31WkXu.s:2080   .debug_loc:00000000000001ea .LLST9
     /tmp/cc31WkXu.s:2510   .debug_str:000000000000029c .LASF47
     /tmp/cc31WkXu.s:2106   .debug_loc:000000000000025e .LLST10
     /tmp/cc31WkXu.s:2470   .debug_str:0000000000000156 .LASF48
     /tmp/cc31WkXu.s:2127   .debug_loc:00000000000002bc .LLST11
     /tmp/cc31WkXu.s:2494   .debug_str:0000000000000246 .LASF49
     /tmp/cc31WkXu.s:2149   .debug_loc:000000000000031b .LLST12
     /tmp/cc31WkXu.s:2558   .debug_str:00000000000004c3 .LASF50
     /tmp/cc31WkXu.s:2171   .debug_loc:000000000000037a .LLST13
GAS LISTING /tmp/cc31WkXu.s 			page 25


     /tmp/cc31WkXu.s:2434   .debug_str:000000000000003a .LASF51
     /tmp/cc31WkXu.s:2188   .debug_loc:00000000000003c5 .LLST14
     /tmp/cc31WkXu.s:2474   .debug_str:000000000000016b .LASF52
     /tmp/cc31WkXu.s:2200   .debug_loc:00000000000003fd .LLST15
     /tmp/cc31WkXu.s:491    .text:00000000000003bc .LVL53
     /tmp/cc31WkXu.s:496    .text:00000000000003c8 .LVL54
     /tmp/cc31WkXu.s:10     .text:0000000000000000 .LFB7
     /tmp/cc31WkXu.s:293    .text:0000000000000238 .LFE7
     /tmp/cc31WkXu.s:2249   .debug_loc:00000000000004b6 .LLST0
     /tmp/cc31WkXu.s:2496   .debug_str:000000000000024f .LASF53
     /tmp/cc31WkXu.s:2284   .debug_loc:0000000000000552 .LLST1
     /tmp/cc31WkXu.s:2296   .debug_loc:0000000000000589 .LLST2
     /tmp/cc31WkXu.s:64     .text:0000000000000060 .LBB2
     /tmp/cc31WkXu.s:276    .text:0000000000000224 .LBE2
     /tmp/cc31WkXu.s:2526   .debug_str:00000000000002f7 .LASF54
     /tmp/cc31WkXu.s:2313   .debug_loc:00000000000005d4 .LLST3
     /tmp/cc31WkXu.s:75     .text:0000000000000078 .LBB3
     /tmp/cc31WkXu.s:261    .text:000000000000020c .LBE3
     /tmp/cc31WkXu.s:2552   .debug_str:000000000000049b .LASF55
     /tmp/cc31WkXu.s:2325   .debug_loc:000000000000060b .LLST4
     /tmp/cc31WkXu.s:2456   .debug_str:00000000000000cf .LASF56
     /tmp/cc31WkXu.s:2337   .debug_loc:0000000000000642 .LLST5
     /tmp/cc31WkXu.s:2518   .debug_str:00000000000002cd .LASF57
     /tmp/cc31WkXu.s:2362   .debug_loc:00000000000006b5 .LLST6
     /tmp/cc31WkXu.s:2374   .debug_loc:00000000000006ec .LLST7
     /tmp/cc31WkXu.s:192    .text:0000000000000174 .LBB4
     /tmp/cc31WkXu.s:222    .text:00000000000001b0 .LBE4
     /tmp/cc31WkXu.s:2396   .debug_loc:000000000000074b .LLST8
     /tmp/cc31WkXu.s:638    .text:00000000000004ac .LVL73
     /tmp/cc31WkXu.s:653    .text:00000000000004d0 .LVL74
     /tmp/cc31WkXu.s:660    .text:00000000000004dc .LVL75
     /tmp/cc31WkXu.s:670    .text:00000000000004f4 .LVL76
     /tmp/cc31WkXu.s:673    .text:00000000000004f8 .LVL77
     /tmp/cc31WkXu.s:524    .text:00000000000003e0 .LVL58
     /tmp/cc31WkXu.s:619    .text:00000000000004a0 .LVL70
     /tmp/cc31WkXu.s:623    .text:00000000000004a4 .LVL71
     /tmp/cc31WkXu.s:626    .text:00000000000004a8 .LVL72
     /tmp/cc31WkXu.s:547    .text:0000000000000410 .LVL59
     /tmp/cc31WkXu.s:551    .text:0000000000000414 .LVL60
     /tmp/cc31WkXu.s:615    .text:000000000000049c .LVL69
     /tmp/cc31WkXu.s:557    .text:0000000000000424 .LVL61
     /tmp/cc31WkXu.s:561    .text:0000000000000428 .LVL62
     /tmp/cc31WkXu.s:610    .text:0000000000000498 .LVL68
     /tmp/cc31WkXu.s:564    .text:0000000000000430 .LVL63
     /tmp/cc31WkXu.s:570    .text:000000000000043c .LVL64
     /tmp/cc31WkXu.s:605    .text:0000000000000490 .LVL67
     /tmp/cc31WkXu.s:573    .text:0000000000000444 .LVL65
     /tmp/cc31WkXu.s:576    .text:0000000000000448 .LVL66
     /tmp/cc31WkXu.s:302    .text:0000000000000238 .LVL30
     /tmp/cc31WkXu.s:336    .text:0000000000000280 .LVL31
     /tmp/cc31WkXu.s:340    .text:0000000000000288 .LVL32
     /tmp/cc31WkXu.s:509    .text:00000000000003d8 .LVL56
     /tmp/cc31WkXu.s:512    .text:00000000000003dc .LVL57
     /tmp/cc31WkXu.s:343    .text:0000000000000290 .LVL33
     /tmp/cc31WkXu.s:347    .text:0000000000000294 .LVL34
     /tmp/cc31WkXu.s:367    .text:00000000000002bc .LVL36
     /tmp/cc31WkXu.s:370    .text:00000000000002c0 .LVL37
GAS LISTING /tmp/cc31WkXu.s 			page 26


     /tmp/cc31WkXu.s:500    .text:00000000000003cc .LVL55
     /tmp/cc31WkXu.s:361    .text:00000000000002b0 .LVL35
     /tmp/cc31WkXu.s:404    .text:0000000000000308 .LVL38
     /tmp/cc31WkXu.s:424    .text:0000000000000334 .LVL40
     /tmp/cc31WkXu.s:429    .text:0000000000000340 .LVL41
     /tmp/cc31WkXu.s:432    .text:0000000000000344 .LVL42
     /tmp/cc31WkXu.s:410    .text:0000000000000318 .LVL39
     /tmp/cc31WkXu.s:438    .text:000000000000034c .LVL43
     /tmp/cc31WkXu.s:443    .text:0000000000000354 .LVL44
     /tmp/cc31WkXu.s:445    .text:0000000000000358 .LVL45
     /tmp/cc31WkXu.s:449    .text:000000000000035c .LVL46
     /tmp/cc31WkXu.s:452    .text:0000000000000364 .LVL47
     /tmp/cc31WkXu.s:460    .text:0000000000000374 .LVL48
     /tmp/cc31WkXu.s:469    .text:0000000000000388 .LVL49
     /tmp/cc31WkXu.s:471    .text:000000000000038c .LVL50
     /tmp/cc31WkXu.s:477    .text:0000000000000398 .LVL51
     /tmp/cc31WkXu.s:480    .text:00000000000003a0 .LVL52
     /tmp/cc31WkXu.s:14     .text:0000000000000000 .LVL0
     /tmp/cc31WkXu.s:58     .text:000000000000005c .LVL3
     /tmp/cc31WkXu.s:67     .text:0000000000000068 .LVL5
     /tmp/cc31WkXu.s:112    .text:00000000000000c8 .LVL12
     /tmp/cc31WkXu.s:115    .text:00000000000000cc .LVL13
     /tmp/cc31WkXu.s:287    .text:0000000000000230 .LVL28
     /tmp/cc31WkXu.s:290    .text:0000000000000234 .LVL29
     /tmp/cc31WkXu.s:51     .text:0000000000000050 .LVL1
     /tmp/cc31WkXu.s:56     .text:0000000000000058 .LVL2
     /tmp/cc31WkXu.s:280    .text:0000000000000228 .LVL27
     /tmp/cc31WkXu.s:62     .text:0000000000000060 .LVL4
     /tmp/cc31WkXu.s:266    .text:0000000000000214 .LVL24
     /tmp/cc31WkXu.s:270    .text:000000000000021c .LVL25
     /tmp/cc31WkXu.s:70     .text:0000000000000070 .LVL6
     /tmp/cc31WkXu.s:272    .text:0000000000000220 .LVL26
     /tmp/cc31WkXu.s:89     .text:0000000000000098 .LVL7
     /tmp/cc31WkXu.s:93     .text:000000000000009c .LVL8
     /tmp/cc31WkXu.s:257    .text:0000000000000208 .LVL23
     /tmp/cc31WkXu.s:99     .text:00000000000000ac .LVL9
     /tmp/cc31WkXu.s:103    .text:00000000000000b4 .LVL10
     /tmp/cc31WkXu.s:108    .text:00000000000000bc .LVL11
     /tmp/cc31WkXu.s:134    .text:00000000000000fc .LVL14
     /tmp/cc31WkXu.s:140    .text:0000000000000104 .LVL15
     /tmp/cc31WkXu.s:169    .text:0000000000000148 .LVL16
     /tmp/cc31WkXu.s:195    .text:000000000000017c .LVL18
     /tmp/cc31WkXu.s:190    .text:0000000000000174 .LVL17
     /tmp/cc31WkXu.s:211    .text:00000000000001a0 .LVL20
     /tmp/cc31WkXu.s:217    .text:00000000000001ac .LVL21
     /tmp/cc31WkXu.s:220    .text:00000000000001b0 .LVL22
     /tmp/cc31WkXu.s:198    .text:0000000000000184 .LVL19
     /tmp/cc31WkXu.s:770    .debug_info:0000000000000000 .Ldebug_info0

UNDEFINED SYMBOLS
HEAP_START_ADDR
HEAP_END_ADDR
