GAS LISTING /tmp/ccPDxJLS.s 			page 1


   1              		.file	"testcpp.cpp"
   2              		.option pic
   3              		.option norelax
   4              		.text
   5              	.Ltext0:
   6              		.section	.rodata.str1.8,"aMS",@progbits,1
   7              		.align	3
   8              	.LC0:
   9 0000 53756D61 		.string	"Suma reda "
   9      20726564 
   9      612000
  10 000b 00000000 		.align	3
  10      00
  11              	.LC1:
  12 0010 2E203D20 		.string	". = "
  12      00
  13 0015 000000   		.align	3
  14              	.LC2:
  15 0018 0A00     		.string	"\n"
  16              		.text
  17              		.align	2
  18              		.globl	_Z6sumRowPv
  20              	_Z6sumRowPv:
  21              	.LFB14:
  22              		.file 1 "visak/testcpp.cpp"
   1:visak/testcpp.cpp **** //
   2:visak/testcpp.cpp **** // Created by os on 6/27/23.
   3:visak/testcpp.cpp **** //
   4:visak/testcpp.cpp **** #include "../h/syscall_c.hpp"
   5:visak/testcpp.cpp **** #include "../h/syscall_cpp.hpp"
   6:visak/testcpp.cpp **** 
   7:visak/testcpp.cpp **** #include "../test/printing.hpp"
   8:visak/testcpp.cpp **** 
   9:visak/testcpp.cpp **** //Semaphore* s12,*s23,*s31;
  10:visak/testcpp.cpp **** Thread* nit1, * nit2, * nit3;
  11:visak/testcpp.cpp **** 
  12:visak/testcpp.cpp **** uint64 fact(uint64 i) {
  13:visak/testcpp.cpp ****     if (i <= 1) return 1;
  14:visak/testcpp.cpp ****     if (i % 2) thread_dispatch();
  15:visak/testcpp.cpp ****     return i * fact(i - 1);
  16:visak/testcpp.cpp **** }
  17:visak/testcpp.cpp **** 
  18:visak/testcpp.cpp **** void f1(void* end) {
  19:visak/testcpp.cpp ****     uint64 i = fact(*(uint64*)end);
  20:visak/testcpp.cpp ****     printString("f1: i=");
  21:visak/testcpp.cpp ****     printInt(i);
  22:visak/testcpp.cpp ****     printString("\nGotova nit 1\n");
  23:visak/testcpp.cpp **** }
  24:visak/testcpp.cpp **** 
  25:visak/testcpp.cpp **** 
  26:visak/testcpp.cpp **** void f2(void* end) {
  27:visak/testcpp.cpp ****     uint64 i = fact(20);
  28:visak/testcpp.cpp ****     printString("f2: i=");
  29:visak/testcpp.cpp ****     printInt(i);
  30:visak/testcpp.cpp **** 
  31:visak/testcpp.cpp ****     printString("\nGotova nit 2\n");
  32:visak/testcpp.cpp **** }
GAS LISTING /tmp/ccPDxJLS.s 			page 2


  33:visak/testcpp.cpp **** 
  34:visak/testcpp.cpp **** 
  35:visak/testcpp.cpp **** static void f3(void* end) {
  36:visak/testcpp.cpp ****     time_t sleep_time = *((time_t*)end);
  37:visak/testcpp.cpp ****     int i = 6;
  38:visak/testcpp.cpp ****     while (--i > 0) {
  39:visak/testcpp.cpp **** 
  40:visak/testcpp.cpp ****         printString("Hello ");
  41:visak/testcpp.cpp ****         printInt(sleep_time);
  42:visak/testcpp.cpp ****         printString(" !\n");
  43:visak/testcpp.cpp ****         time_sleep(sleep_time);
  44:visak/testcpp.cpp ****     }
  45:visak/testcpp.cpp ****     //printString("\nGotova nit3\n");
  46:visak/testcpp.cpp **** }
  47:visak/testcpp.cpp **** 
  48:visak/testcpp.cpp **** 
  49:visak/testcpp.cpp **** class timer1 : public PeriodicThread {
  50:visak/testcpp.cpp **** public:
  51:visak/testcpp.cpp ****     int counter = 0;
  52:visak/testcpp.cpp **** 
  53:visak/testcpp.cpp ****     explicit timer1() : PeriodicThread(1) {}
  54:visak/testcpp.cpp **** 
  55:visak/testcpp.cpp ****     void periodicActivation() override {
  56:visak/testcpp.cpp ****         printString("Tajmer: ");
  57:visak/testcpp.cpp ****         printInt(counter++);
  58:visak/testcpp.cpp ****         printString("\n");
  59:visak/testcpp.cpp ****     }
  60:visak/testcpp.cpp **** };
  61:visak/testcpp.cpp **** 
  62:visak/testcpp.cpp **** struct rowdesc {
  63:visak/testcpp.cpp ****     uint64* row;
  64:visak/testcpp.cpp ****     int len;
  65:visak/testcpp.cpp ****     int num;
  66:visak/testcpp.cpp **** };
  67:visak/testcpp.cpp **** 
  68:visak/testcpp.cpp **** void sumRow(void* rowd) {
  23              		.loc 1 68 25
  24              		.cfi_startproc
  25              	.LVL0:
  69:visak/testcpp.cpp ****     if (!rowd) return;
  26              		.loc 1 69 5
  27 0000 6300050C 		beqz	a0,.L7
  68:visak/testcpp.cpp ****     if (!rowd) return;
  28              		.loc 1 68 25 is_stmt 0
  29 0004 130101FD 		addi	sp,sp,-48
  30              		.cfi_def_cfa_offset 48
  31 0008 23341102 		sd	ra,40(sp)
  32 000c 23308102 		sd	s0,32(sp)
  33 0010 233C9100 		sd	s1,24(sp)
  34              		.cfi_offset 1, -8
  35              		.cfi_offset 8, -16
  36              		.cfi_offset 9, -24
  37 0014 13040103 		addi	s0,sp,48
  38              		.cfi_def_cfa 8, 0
  70:visak/testcpp.cpp ****     rowdesc rd = *(rowdesc*)rowd;
  39              		.loc 1 70 5 is_stmt 1
  40              		.loc 1 70 13 is_stmt 0
GAS LISTING /tmp/ccPDxJLS.s 			page 3


  41 0018 83370500 		ld	a5,0(a0)
  42 001c 2338F4FC 		sd	a5,-48(s0)
  43 0020 83378500 		ld	a5,8(a0)
  44 0024 233CF4FC 		sd	a5,-40(s0)
  71:visak/testcpp.cpp ****     uint64 sum = 0;
  45              		.loc 1 71 5 is_stmt 1
  46              	.LVL1:
  72:visak/testcpp.cpp ****     for (int i = 0; i < rd.len; i++) {
  47              		.loc 1 72 5
  48              	.LBB28:
  49              		.loc 1 72 14 is_stmt 0
  50 0028 93070000 		li	a5,0
  51              	.LBE28:
  71:visak/testcpp.cpp ****     uint64 sum = 0;
  52              		.loc 1 71 12
  53 002c 93040000 		li	s1,0
  54              	.LVL2:
  55              	.L5:
  56              	.LBB29:
  57              		.loc 1 72 23 is_stmt 1 discriminator 3
  58              		.loc 1 72 28 is_stmt 0 discriminator 3
  59 0030 032784FD 		lw	a4,-40(s0)
  60              		.loc 1 72 23 discriminator 3
  61 0034 63D0E702 		ble	a4,a5,.L4
  73:visak/testcpp.cpp ****         sum += rd.row[i];
  62              		.loc 1 73 9 is_stmt 1 discriminator 2
  63              		.loc 1 73 24 is_stmt 0 discriminator 2
  64 0038 93963700 		slli	a3,a5,3
  65 003c 033704FD 		ld	a4,-48(s0)
  66 0040 3307D700 		add	a4,a4,a3
  67 0044 03370700 		ld	a4,0(a4)
  68              		.loc 1 73 13 discriminator 2
  69 0048 B384E400 		add	s1,s1,a4
  70              	.LVL3:
  72:visak/testcpp.cpp ****     for (int i = 0; i < rd.len; i++) {
  71              		.loc 1 72 5 is_stmt 1 discriminator 2
  72 004c 9B871700 		addiw	a5,a5,1
  73              	.LVL4:
  74 0050 6FF01FFE 		j	.L5
  75              	.LVL5:
  76              	.L4:
  77              	.LBE29:
  74:visak/testcpp.cpp ****     }
  75:visak/testcpp.cpp ****     printString("Suma reda ");
  78              		.loc 1 75 5
  79              		.loc 1 75 16 is_stmt 0
  80 0054 17050000 		lla	a0,.LC0
  80      13050500 
  81              	.LVL6:
  82 005c 97000000 		call	_Z11printStringPKc@plt
  82      E7800000 
  83              	.LVL7:
  76:visak/testcpp.cpp ****     printInt(rd.num);
  84              		.loc 1 76 5 is_stmt 1
  85              		.loc 1 76 13 is_stmt 0
  86 0064 13060000 		li	a2,0
  87 0068 9305A000 		li	a1,10
GAS LISTING /tmp/ccPDxJLS.s 			page 4


  88 006c 0325C4FD 		lw	a0,-36(s0)
  89 0070 97000000 		call	_Z8printIntiii@plt
  89      E7800000 
  90              	.LVL8:
  77:visak/testcpp.cpp ****     printString(". = ");
  91              		.loc 1 77 5 is_stmt 1
  92              		.loc 1 77 16 is_stmt 0
  93 0078 17050000 		lla	a0,.LC1
  93      13050500 
  94 0080 97000000 		call	_Z11printStringPKc@plt
  94      E7800000 
  95              	.LVL9:
  78:visak/testcpp.cpp ****     printInt(sum);
  96              		.loc 1 78 5 is_stmt 1
  97              		.loc 1 78 13 is_stmt 0
  98 0088 13060000 		li	a2,0
  99 008c 9305A000 		li	a1,10
 100 0090 1B850400 		sext.w	a0,s1
 101 0094 97000000 		call	_Z8printIntiii@plt
 101      E7800000 
 102              	.LVL10:
  79:visak/testcpp.cpp ****     printString("\n");
 103              		.loc 1 79 5 is_stmt 1
 104              		.loc 1 79 16 is_stmt 0
 105 009c 17050000 		lla	a0,.LC2
 105      13050500 
 106 00a4 97000000 		call	_Z11printStringPKc@plt
 106      E7800000 
 107              	.LVL11:
  80:visak/testcpp.cpp **** }
 108              		.loc 1 80 1
 109 00ac 83308102 		ld	ra,40(sp)
 110              		.cfi_restore 1
 111 00b0 03340102 		ld	s0,32(sp)
 112              		.cfi_restore 8
 113              		.cfi_def_cfa 2, 48
 114 00b4 83348101 		ld	s1,24(sp)
 115              		.cfi_restore 9
 116              	.LVL12:
 117 00b8 13010103 		addi	sp,sp,48
 118              		.cfi_def_cfa_offset 0
 119 00bc 67800000 		jr	ra
 120              	.LVL13:
 121              	.L7:
 122 00c0 67800000 		ret
 123              		.cfi_endproc
 124              	.LFE14:
 126              		.section	.rodata._ZN6timer118periodicActivationEv.str1.8,"aMS",@progbits,1
 127              		.align	3
 128              	.LC3:
 129 0000 54616A6D 		.string	"Tajmer: "
 129      65723A20 
 129      00
 130              		.section	.text._ZN6timer118periodicActivationEv,"axG",@progbits,_ZN6timer118periodicActivationEv,c
 131              		.align	2
 132              		.weak	_ZN6timer118periodicActivationEv
 134              	_ZN6timer118periodicActivationEv:
GAS LISTING /tmp/ccPDxJLS.s 			page 5


 135              	.LFB13:
  55:visak/testcpp.cpp ****         printString("Tajmer: ");
 136              		.loc 1 55 10 is_stmt 1
 137              		.cfi_startproc
 138              	.LVL14:
 139 0000 130101FE 		addi	sp,sp,-32
 140              		.cfi_def_cfa_offset 32
 141 0004 233C1100 		sd	ra,24(sp)
 142 0008 23388100 		sd	s0,16(sp)
 143 000c 23349100 		sd	s1,8(sp)
 144              		.cfi_offset 1, -8
 145              		.cfi_offset 8, -16
 146              		.cfi_offset 9, -24
 147 0010 13040102 		addi	s0,sp,32
 148              		.cfi_def_cfa 8, 0
 149 0014 93040500 		mv	s1,a0
  56:visak/testcpp.cpp ****         printInt(counter++);
 150              		.loc 1 56 9
  56:visak/testcpp.cpp ****         printInt(counter++);
 151              		.loc 1 56 20 is_stmt 0
 152 0018 17050000 		lla	a0,.LC3
 152      13050500 
 153              	.LVL15:
 154 0020 97000000 		call	_Z11printStringPKc@plt
 154      E7800000 
 155              	.LVL16:
  57:visak/testcpp.cpp ****         printString("\n");
 156              		.loc 1 57 9 is_stmt 1
  57:visak/testcpp.cpp ****         printString("\n");
 157              		.loc 1 57 18 is_stmt 0
 158 0028 03A58402 		lw	a0,40(s1)
  57:visak/testcpp.cpp ****         printString("\n");
 159              		.loc 1 57 17
 160 002c 9B071500 		addiw	a5,a0,1
 161 0030 23A4F402 		sw	a5,40(s1)
 162 0034 13060000 		li	a2,0
 163 0038 9305A000 		li	a1,10
 164 003c 97000000 		call	_Z8printIntiii@plt
 164      E7800000 
 165              	.LVL17:
  58:visak/testcpp.cpp ****     }
 166              		.loc 1 58 9 is_stmt 1
  58:visak/testcpp.cpp ****     }
 167              		.loc 1 58 20 is_stmt 0
 168 0044 17050000 		lla	a0,.LC2
 168      13050500 
 169 004c 97000000 		call	_Z11printStringPKc@plt
 169      E7800000 
 170              	.LVL18:
  59:visak/testcpp.cpp **** };
 171              		.loc 1 59 5
 172 0054 83308101 		ld	ra,24(sp)
 173              		.cfi_restore 1
 174 0058 03340101 		ld	s0,16(sp)
 175              		.cfi_restore 8
 176              		.cfi_def_cfa 2, 32
 177 005c 83348100 		ld	s1,8(sp)
GAS LISTING /tmp/ccPDxJLS.s 			page 6


 178              		.cfi_restore 9
 179              	.LVL19:
 180 0060 13010102 		addi	sp,sp,32
 181              		.cfi_def_cfa_offset 0
 182 0064 67800000 		jr	ra
 183              		.cfi_endproc
 184              	.LFE13:
 186              		.section	.rodata.str1.8
 187 001a 00000000 		.align	3
 187      0000
 188              	.LC4:
 189 0020 48656C6C 		.string	"Hello "
 189      6F2000
 190 0027 00       		.align	3
 191              	.LC5:
 192 0028 20210A00 		.string	" !\n"
 193              		.text
 194              		.align	2
 196              	_ZL2f3Pv:
 197              	.LFB5:
  35:visak/testcpp.cpp ****     time_t sleep_time = *((time_t*)end);
 198              		.loc 1 35 27 is_stmt 1
 199              		.cfi_startproc
 200              	.LVL20:
 201 00c4 130101FE 		addi	sp,sp,-32
 202              		.cfi_def_cfa_offset 32
 203 00c8 233C1100 		sd	ra,24(sp)
 204 00cc 23388100 		sd	s0,16(sp)
 205 00d0 23349100 		sd	s1,8(sp)
 206 00d4 23302101 		sd	s2,0(sp)
 207              		.cfi_offset 1, -8
 208              		.cfi_offset 8, -16
 209              		.cfi_offset 9, -24
 210              		.cfi_offset 18, -32
 211 00d8 13040102 		addi	s0,sp,32
 212              		.cfi_def_cfa 8, 0
  36:visak/testcpp.cpp ****     int i = 6;
 213              		.loc 1 36 5
  36:visak/testcpp.cpp ****     int i = 6;
 214              		.loc 1 36 12 is_stmt 0
 215 00dc 03390500 		ld	s2,0(a0)
 216              	.LVL21:
  37:visak/testcpp.cpp ****     while (--i > 0) {
 217              		.loc 1 37 5 is_stmt 1
  37:visak/testcpp.cpp ****     while (--i > 0) {
 218              		.loc 1 37 9 is_stmt 0
 219 00e0 93046000 		li	s1,6
 220              	.LVL22:
 221              	.L14:
  38:visak/testcpp.cpp **** 
 222              		.loc 1 38 5 is_stmt 1
  38:visak/testcpp.cpp **** 
 223              		.loc 1 38 16
 224 00e4 9B84F4FF 		addiw	s1,s1,-1
 225              	.LVL23:
 226 00e8 63549004 		blez	s1,.L12
  40:visak/testcpp.cpp ****         printInt(sleep_time);
GAS LISTING /tmp/ccPDxJLS.s 			page 7


 227              		.loc 1 40 9
  40:visak/testcpp.cpp ****         printInt(sleep_time);
 228              		.loc 1 40 20 is_stmt 0
 229 00ec 17050000 		lla	a0,.LC4
 229      13050500 
 230 00f4 97000000 		call	_Z11printStringPKc@plt
 230      E7800000 
 231              	.LVL24:
  41:visak/testcpp.cpp ****         printString(" !\n");
 232              		.loc 1 41 9 is_stmt 1
  41:visak/testcpp.cpp ****         printString(" !\n");
 233              		.loc 1 41 17 is_stmt 0
 234 00fc 13060000 		li	a2,0
 235 0100 9305A000 		li	a1,10
 236 0104 1B050900 		sext.w	a0,s2
 237 0108 97000000 		call	_Z8printIntiii@plt
 237      E7800000 
 238              	.LVL25:
  42:visak/testcpp.cpp ****         time_sleep(sleep_time);
 239              		.loc 1 42 9 is_stmt 1
  42:visak/testcpp.cpp ****         time_sleep(sleep_time);
 240              		.loc 1 42 20 is_stmt 0
 241 0110 17050000 		lla	a0,.LC5
 241      13050500 
 242 0118 97000000 		call	_Z11printStringPKc@plt
 242      E7800000 
 243              	.LVL26:
  43:visak/testcpp.cpp ****     }
 244              		.loc 1 43 9 is_stmt 1
  43:visak/testcpp.cpp ****     }
 245              		.loc 1 43 19 is_stmt 0
 246 0120 13050900 		mv	a0,s2
 247 0124 97000000 		call	_Z10time_sleepm@plt
 247      E7800000 
 248              	.LVL27:
  38:visak/testcpp.cpp **** 
 249              		.loc 1 38 5
 250 012c 6FF09FFB 		j	.L14
 251              	.L12:
  46:visak/testcpp.cpp **** 
 252              		.loc 1 46 1
 253 0130 83308101 		ld	ra,24(sp)
 254              		.cfi_restore 1
 255 0134 03340101 		ld	s0,16(sp)
 256              		.cfi_restore 8
 257              		.cfi_def_cfa 2, 32
 258 0138 83348100 		ld	s1,8(sp)
 259              		.cfi_restore 9
 260 013c 03390100 		ld	s2,0(sp)
 261              		.cfi_restore 18
 262              	.LVL28:
 263 0140 13010102 		addi	sp,sp,32
 264              		.cfi_def_cfa_offset 0
 265 0144 67800000 		jr	ra
 266              		.cfi_endproc
 267              	.LFE5:
 269              		.section	.text._ZN6timer1D2Ev,"axG",@progbits,_ZN6timer1D5Ev,comdat
GAS LISTING /tmp/ccPDxJLS.s 			page 8


 270              		.align	2
 271              		.weak	_ZN6timer1D2Ev
 273              	_ZN6timer1D2Ev:
 274              	.LFB18:
  49:visak/testcpp.cpp **** public:
 275              		.loc 1 49 7 is_stmt 1
 276              		.cfi_startproc
 277              	.LVL29:
 278 0000 130101FF 		addi	sp,sp,-16
 279              		.cfi_def_cfa_offset 16
 280 0004 23341100 		sd	ra,8(sp)
 281 0008 23308100 		sd	s0,0(sp)
 282              		.cfi_offset 1, -8
 283              		.cfi_offset 8, -16
 284 000c 13040101 		addi	s0,sp,16
 285              		.cfi_def_cfa 8, 0
 286              	.LVL30:
 287              	.LBB30:
 288              	.LBB31:
 289              		.file 2 "visak/../h/syscall_cpp.hpp"
   1:visak/../h/syscall_cpp.hpp **** #ifndef _syscall_cpp
   2:visak/../h/syscall_cpp.hpp **** #define _syscall_cpp
   3:visak/../h/syscall_cpp.hpp **** 
   4:visak/../h/syscall_cpp.hpp **** #include "../lib/hw.h"
   5:visak/../h/syscall_cpp.hpp **** 
   6:visak/../h/syscall_cpp.hpp **** void* operator new(size_t);
   7:visak/../h/syscall_cpp.hpp **** 
   8:visak/../h/syscall_cpp.hpp **** void* operator new[](size_t);
   9:visak/../h/syscall_cpp.hpp **** 
  10:visak/../h/syscall_cpp.hpp **** void operator delete(void*)
  11:visak/../h/syscall_cpp.hpp **** 
  12:visak/../h/syscall_cpp.hpp **** noexcept;
  13:visak/../h/syscall_cpp.hpp **** 
  14:visak/../h/syscall_cpp.hpp **** void operator delete[](void*)
  15:visak/../h/syscall_cpp.hpp **** 
  16:visak/../h/syscall_cpp.hpp **** noexcept;
  17:visak/../h/syscall_cpp.hpp **** 
  18:visak/../h/syscall_cpp.hpp **** class TCB;
  19:visak/../h/syscall_cpp.hpp **** 
  20:visak/../h/syscall_cpp.hpp **** typedef TCB* thread_t;
  21:visak/../h/syscall_cpp.hpp **** 
  22:visak/../h/syscall_cpp.hpp **** class KSem;
  23:visak/../h/syscall_cpp.hpp **** 
  24:visak/../h/syscall_cpp.hpp **** typedef KSem* sem_t;
  25:visak/../h/syscall_cpp.hpp **** 
  26:visak/../h/syscall_cpp.hpp **** class Thread {
  27:visak/../h/syscall_cpp.hpp **** public:
  28:visak/../h/syscall_cpp.hpp ****     //konstruktor koji pravi nit koja izvrsava zadatu funkciju sa zadatim argumentima, ne pokrece n
  29:visak/../h/syscall_cpp.hpp ****     Thread(void (* body)(void*), void* arg);
  30:visak/../h/syscall_cpp.hpp **** 
  31:visak/../h/syscall_cpp.hpp ****     virtual ~Thread();
  32:visak/../h/syscall_cpp.hpp **** 
  33:visak/../h/syscall_cpp.hpp ****     //stavlja nit u Scheduler
  34:visak/../h/syscall_cpp.hpp ****     int start();
  35:visak/../h/syscall_cpp.hpp **** 
  36:visak/../h/syscall_cpp.hpp ****     //pozivajuca (running) nit se suspenduje dok se nit ciji se metod poziva(this) ne zavrsi
  37:visak/../h/syscall_cpp.hpp ****     void join();
GAS LISTING /tmp/ccPDxJLS.s 			page 9


  38:visak/../h/syscall_cpp.hpp **** 
  39:visak/../h/syscall_cpp.hpp ****     //sinhrona promena konteksta
  40:visak/../h/syscall_cpp.hpp ****     static void dispatch();
  41:visak/../h/syscall_cpp.hpp **** 
  42:visak/../h/syscall_cpp.hpp ****     //uspavljuje tekucu nit na zadati period
  43:visak/../h/syscall_cpp.hpp ****     static int sleep(time_t);
  44:visak/../h/syscall_cpp.hpp **** 
  45:visak/../h/syscall_cpp.hpp **** protected:
  46:visak/../h/syscall_cpp.hpp ****     //konstruktor koji pravi nit koja izvrsava run metodu, ne stavlja je u Scheduler
  47:visak/../h/syscall_cpp.hpp ****     Thread();
  48:visak/../h/syscall_cpp.hpp **** 
  49:visak/../h/syscall_cpp.hpp ****     //funkcija koju nit izvrsava, samo ako je nit napravljena podrazumevanim konstruktorom
  50:visak/../h/syscall_cpp.hpp ****     virtual void run() {}
  51:visak/../h/syscall_cpp.hpp **** 
  52:visak/../h/syscall_cpp.hpp **** private:
  53:visak/../h/syscall_cpp.hpp ****     //pokazivac na TCB strukturu kernela
  54:visak/../h/syscall_cpp.hpp ****     thread_t myHandle;
  55:visak/../h/syscall_cpp.hpp **** 
  56:visak/../h/syscall_cpp.hpp ****     void (* body)(void*);
  57:visak/../h/syscall_cpp.hpp **** 
  58:visak/../h/syscall_cpp.hpp ****     void* arg;
  59:visak/../h/syscall_cpp.hpp **** 
  60:visak/../h/syscall_cpp.hpp ****     static void wrapper(void* thread);
  61:visak/../h/syscall_cpp.hpp **** };
  62:visak/../h/syscall_cpp.hpp **** 
  63:visak/../h/syscall_cpp.hpp **** 
  64:visak/../h/syscall_cpp.hpp **** class Semaphore {
  65:visak/../h/syscall_cpp.hpp **** public:
  66:visak/../h/syscall_cpp.hpp **** 
  67:visak/../h/syscall_cpp.hpp ****     Semaphore(unsigned init = 1);
  68:visak/../h/syscall_cpp.hpp **** 
  69:visak/../h/syscall_cpp.hpp ****     virtual ~Semaphore();
  70:visak/../h/syscall_cpp.hpp **** 
  71:visak/../h/syscall_cpp.hpp ****     int wait();
  72:visak/../h/syscall_cpp.hpp **** 
  73:visak/../h/syscall_cpp.hpp ****     int signal();
  74:visak/../h/syscall_cpp.hpp **** 
  75:visak/../h/syscall_cpp.hpp **** private:
  76:visak/../h/syscall_cpp.hpp ****     sem_t myHandle;
  77:visak/../h/syscall_cpp.hpp **** };
  78:visak/../h/syscall_cpp.hpp **** 
  79:visak/../h/syscall_cpp.hpp **** 
  80:visak/../h/syscall_cpp.hpp **** class PeriodicThread : public Thread {
 290              		.loc 2 80 7 is_stmt 0
 291 0010 97070000 		la	a5,_ZTV14PeriodicThread
 291      83B70700 
 292 0018 93870701 		addi	a5,a5,16
 293 001c 2330F500 		sd	a5,0(a0)
 294 0020 97000000 		call	_ZN6ThreadD2Ev@plt
 294      E7800000 
 295              	.LVL31:
 296              	.LBE31:
 297              	.LBE30:
  49:visak/testcpp.cpp **** public:
 298              		.loc 1 49 7
 299 0028 83308100 		ld	ra,8(sp)
 300              		.cfi_restore 1
GAS LISTING /tmp/ccPDxJLS.s 			page 10


 301 002c 03340100 		ld	s0,0(sp)
 302              		.cfi_restore 8
 303              		.cfi_def_cfa 2, 16
 304 0030 13010101 		addi	sp,sp,16
 305              		.cfi_def_cfa_offset 0
 306 0034 67800000 		jr	ra
 307              		.cfi_endproc
 308              	.LFE18:
 310              		.weak	_ZN6timer1D1Ev
 311              		.set	_ZN6timer1D1Ev,_ZN6timer1D2Ev
 312              		.section	.text._ZN6timer1D0Ev,"axG",@progbits,_ZN6timer1D5Ev,comdat
 313              		.align	2
 314              		.weak	_ZN6timer1D0Ev
 316              	_ZN6timer1D0Ev:
 317              	.LFB20:
  49:visak/testcpp.cpp **** public:
 318              		.loc 1 49 7 is_stmt 1
 319              		.cfi_startproc
 320              	.LVL32:
 321 0000 130101FE 		addi	sp,sp,-32
 322              		.cfi_def_cfa_offset 32
 323 0004 233C1100 		sd	ra,24(sp)
 324 0008 23388100 		sd	s0,16(sp)
 325 000c 23349100 		sd	s1,8(sp)
 326              		.cfi_offset 1, -8
 327              		.cfi_offset 8, -16
 328              		.cfi_offset 9, -24
 329 0010 13040102 		addi	s0,sp,32
 330              		.cfi_def_cfa 8, 0
 331 0014 93040500 		mv	s1,a0
 332              	.LVL33:
 333              	.LBB32:
 334              	.LBB33:
 335              	.LBB34:
 336              		.loc 2 80 7 is_stmt 0
 337 0018 97070000 		la	a5,_ZTV14PeriodicThread
 337      83B70700 
 338 0020 93870701 		addi	a5,a5,16
 339 0024 2330F500 		sd	a5,0(a0)
 340 0028 97000000 		call	_ZN6ThreadD2Ev@plt
 340      E7800000 
 341              	.LVL34:
 342              	.LBE34:
 343              	.LBE33:
 344              	.LBE32:
  49:visak/testcpp.cpp **** public:
 345              		.loc 1 49 7
 346 0030 13850400 		mv	a0,s1
 347 0034 97000000 		call	_ZdlPv@plt
 347      E7800000 
 348              	.LVL35:
 349 003c 83308101 		ld	ra,24(sp)
 350              		.cfi_restore 1
 351 0040 03340101 		ld	s0,16(sp)
 352              		.cfi_restore 8
 353              		.cfi_def_cfa 2, 32
 354 0044 83348100 		ld	s1,8(sp)
GAS LISTING /tmp/ccPDxJLS.s 			page 11


 355              		.cfi_restore 9
 356              	.LVL36:
 357 0048 13010102 		addi	sp,sp,32
 358              		.cfi_def_cfa_offset 0
 359 004c 67800000 		jr	ra
 360              		.cfi_endproc
 361              	.LFE20:
 363              		.text
 364              		.align	2
 365              		.globl	_Z4factm
 367              	_Z4factm:
 368              	.LFB2:
  12:visak/testcpp.cpp ****     if (i <= 1) return 1;
 369              		.loc 1 12 23 is_stmt 1
 370              		.cfi_startproc
 371              	.LVL37:
  13:visak/testcpp.cpp ****     if (i % 2) thread_dispatch();
 372              		.loc 1 13 5
 373 0148 93071000 		li	a5,1
 374 014c 63FAA704 		bleu	a0,a5,.L23
  12:visak/testcpp.cpp ****     if (i <= 1) return 1;
 375              		.loc 1 12 23 is_stmt 0
 376 0150 130101FE 		addi	sp,sp,-32
 377              		.cfi_def_cfa_offset 32
 378 0154 233C1100 		sd	ra,24(sp)
 379 0158 23388100 		sd	s0,16(sp)
 380 015c 23349100 		sd	s1,8(sp)
 381              		.cfi_offset 1, -8
 382              		.cfi_offset 8, -16
 383              		.cfi_offset 9, -24
 384 0160 13040102 		addi	s0,sp,32
 385              		.cfi_def_cfa 8, 0
 386 0164 93040500 		mv	s1,a0
  14:visak/testcpp.cpp ****     return i * fact(i - 1);
 387              		.loc 1 14 5 is_stmt 1
  14:visak/testcpp.cpp ****     return i * fact(i - 1);
 388              		.loc 1 14 11 is_stmt 0
 389 0168 93771500 		andi	a5,a0,1
  14:visak/testcpp.cpp ****     return i * fact(i - 1);
 390              		.loc 1 14 5
 391 016c 63940702 		bnez	a5,.L28
 392              	.LVL38:
 393              	.L22:
  15:visak/testcpp.cpp **** }
 394              		.loc 1 15 5 is_stmt 1
  15:visak/testcpp.cpp **** }
 395              		.loc 1 15 20 is_stmt 0
 396 0170 1385F4FF 		addi	a0,s1,-1
 397 0174 97000000 		call	_Z4factm
 397      E7800000 
 398              	.LVL39:
  15:visak/testcpp.cpp **** }
 399              		.loc 1 15 26
 400 017c 3385A402 		mul	a0,s1,a0
  16:visak/testcpp.cpp **** 
 401              		.loc 1 16 1
 402 0180 83308101 		ld	ra,24(sp)
GAS LISTING /tmp/ccPDxJLS.s 			page 12


 403              		.cfi_remember_state
 404              		.cfi_restore 1
 405 0184 03340101 		ld	s0,16(sp)
 406              		.cfi_restore 8
 407              		.cfi_def_cfa 2, 32
 408 0188 83348100 		ld	s1,8(sp)
 409              		.cfi_restore 9
 410              	.LVL40:
 411 018c 13010102 		addi	sp,sp,32
 412              		.cfi_def_cfa_offset 0
 413 0190 67800000 		jr	ra
 414              	.LVL41:
 415              	.L28:
 416              		.cfi_restore_state
  14:visak/testcpp.cpp ****     return i * fact(i - 1);
 417              		.loc 1 14 16 is_stmt 1 discriminator 1
  14:visak/testcpp.cpp ****     return i * fact(i - 1);
 418              		.loc 1 14 31 is_stmt 0 discriminator 1
 419 0194 97000000 		call	_Z15thread_dispatchv@plt
 419      E7800000 
 420              	.LVL42:
 421 019c 6FF05FFD 		j	.L22
 422              	.LVL43:
 423              	.L23:
 424              		.cfi_def_cfa_register 2
 425              		.cfi_restore 1
 426              		.cfi_restore 8
 427              		.cfi_restore 9
  13:visak/testcpp.cpp ****     if (i % 2) thread_dispatch();
 428              		.loc 1 13 24
 429 01a0 13051000 		li	a0,1
 430              	.LVL44:
  16:visak/testcpp.cpp **** 
 431              		.loc 1 16 1
 432 01a4 67800000 		ret
 433              		.cfi_endproc
 434              	.LFE2:
 436              		.section	.rodata.str1.8
 437 002c 00000000 		.align	3
 438              	.LC6:
 439 0030 66313A20 		.string	"f1: i="
 439      693D00
 440 0037 00       		.align	3
 441              	.LC7:
 442 0038 0A476F74 		.string	"\nGotova nit 1\n"
 442      6F766120 
 442      6E697420 
 442      310A00
 443              		.text
 444              		.align	2
 445              		.globl	_Z2f1Pv
 447              	_Z2f1Pv:
 448              	.LFB3:
  18:visak/testcpp.cpp ****     uint64 i = fact(*(uint64*)end);
 449              		.loc 1 18 20 is_stmt 1
 450              		.cfi_startproc
 451              	.LVL45:
GAS LISTING /tmp/ccPDxJLS.s 			page 13


 452 01a8 130101FE 		addi	sp,sp,-32
 453              		.cfi_def_cfa_offset 32
 454 01ac 233C1100 		sd	ra,24(sp)
 455 01b0 23388100 		sd	s0,16(sp)
 456 01b4 23349100 		sd	s1,8(sp)
 457              		.cfi_offset 1, -8
 458              		.cfi_offset 8, -16
 459              		.cfi_offset 9, -24
 460 01b8 13040102 		addi	s0,sp,32
 461              		.cfi_def_cfa 8, 0
  19:visak/testcpp.cpp ****     printString("f1: i=");
 462              		.loc 1 19 5
  19:visak/testcpp.cpp ****     printString("f1: i=");
 463              		.loc 1 19 20 is_stmt 0
 464 01bc 03350500 		ld	a0,0(a0)
 465              	.LVL46:
 466 01c0 97000000 		call	_Z4factm
 466      E7800000 
 467              	.LVL47:
 468 01c8 93040500 		mv	s1,a0
 469              	.LVL48:
  20:visak/testcpp.cpp ****     printInt(i);
 470              		.loc 1 20 5 is_stmt 1
  20:visak/testcpp.cpp ****     printInt(i);
 471              		.loc 1 20 16 is_stmt 0
 472 01cc 17050000 		lla	a0,.LC6
 472      13050500 
 473 01d4 97000000 		call	_Z11printStringPKc@plt
 473      E7800000 
 474              	.LVL49:
  21:visak/testcpp.cpp ****     printString("\nGotova nit 1\n");
 475              		.loc 1 21 5 is_stmt 1
  21:visak/testcpp.cpp ****     printString("\nGotova nit 1\n");
 476              		.loc 1 21 13 is_stmt 0
 477 01dc 13060000 		li	a2,0
 478 01e0 9305A000 		li	a1,10
 479 01e4 1B850400 		sext.w	a0,s1
 480 01e8 97000000 		call	_Z8printIntiii@plt
 480      E7800000 
 481              	.LVL50:
  22:visak/testcpp.cpp **** }
 482              		.loc 1 22 5 is_stmt 1
  22:visak/testcpp.cpp **** }
 483              		.loc 1 22 16 is_stmt 0
 484 01f0 17050000 		lla	a0,.LC7
 484      13050500 
 485 01f8 97000000 		call	_Z11printStringPKc@plt
 485      E7800000 
 486              	.LVL51:
  23:visak/testcpp.cpp **** 
 487              		.loc 1 23 1
 488 0200 83308101 		ld	ra,24(sp)
 489              		.cfi_restore 1
 490 0204 03340101 		ld	s0,16(sp)
 491              		.cfi_restore 8
 492              		.cfi_def_cfa 2, 32
 493 0208 83348100 		ld	s1,8(sp)
GAS LISTING /tmp/ccPDxJLS.s 			page 14


 494              		.cfi_restore 9
 495              	.LVL52:
 496 020c 13010102 		addi	sp,sp,32
 497              		.cfi_def_cfa_offset 0
 498 0210 67800000 		jr	ra
 499              		.cfi_endproc
 500              	.LFE3:
 502              		.section	.rodata.str1.8
 503 0047 00       		.align	3
 504              	.LC8:
 505 0048 66323A20 		.string	"f2: i="
 505      693D00
 506 004f 00       		.align	3
 507              	.LC9:
 508 0050 0A476F74 		.string	"\nGotova nit 2\n"
 508      6F766120 
 508      6E697420 
 508      320A00
 509              		.text
 510              		.align	2
 511              		.globl	_Z2f2Pv
 513              	_Z2f2Pv:
 514              	.LFB4:
  26:visak/testcpp.cpp ****     uint64 i = fact(20);
 515              		.loc 1 26 20 is_stmt 1
 516              		.cfi_startproc
 517              	.LVL53:
 518 0214 130101FE 		addi	sp,sp,-32
 519              		.cfi_def_cfa_offset 32
 520 0218 233C1100 		sd	ra,24(sp)
 521 021c 23388100 		sd	s0,16(sp)
 522 0220 23349100 		sd	s1,8(sp)
 523              		.cfi_offset 1, -8
 524              		.cfi_offset 8, -16
 525              		.cfi_offset 9, -24
 526 0224 13040102 		addi	s0,sp,32
 527              		.cfi_def_cfa 8, 0
  27:visak/testcpp.cpp ****     printString("f2: i=");
 528              		.loc 1 27 5
  27:visak/testcpp.cpp ****     printString("f2: i=");
 529              		.loc 1 27 20 is_stmt 0
 530 0228 13054001 		li	a0,20
 531              	.LVL54:
 532 022c 97000000 		call	_Z4factm
 532      E7800000 
 533              	.LVL55:
 534 0234 93040500 		mv	s1,a0
 535              	.LVL56:
  28:visak/testcpp.cpp ****     printInt(i);
 536              		.loc 1 28 5 is_stmt 1
  28:visak/testcpp.cpp ****     printInt(i);
 537              		.loc 1 28 16 is_stmt 0
 538 0238 17050000 		lla	a0,.LC8
 538      13050500 
 539 0240 97000000 		call	_Z11printStringPKc@plt
 539      E7800000 
 540              	.LVL57:
GAS LISTING /tmp/ccPDxJLS.s 			page 15


  29:visak/testcpp.cpp **** 
 541              		.loc 1 29 5 is_stmt 1
  29:visak/testcpp.cpp **** 
 542              		.loc 1 29 13 is_stmt 0
 543 0248 13060000 		li	a2,0
 544 024c 9305A000 		li	a1,10
 545 0250 1B850400 		sext.w	a0,s1
 546 0254 97000000 		call	_Z8printIntiii@plt
 546      E7800000 
 547              	.LVL58:
  31:visak/testcpp.cpp **** }
 548              		.loc 1 31 5 is_stmt 1
  31:visak/testcpp.cpp **** }
 549              		.loc 1 31 16 is_stmt 0
 550 025c 17050000 		lla	a0,.LC9
 550      13050500 
 551 0264 97000000 		call	_Z11printStringPKc@plt
 551      E7800000 
 552              	.LVL59:
  32:visak/testcpp.cpp **** 
 553              		.loc 1 32 1
 554 026c 83308101 		ld	ra,24(sp)
 555              		.cfi_restore 1
 556 0270 03340101 		ld	s0,16(sp)
 557              		.cfi_restore 8
 558              		.cfi_def_cfa 2, 32
 559 0274 83348100 		ld	s1,8(sp)
 560              		.cfi_restore 9
 561              	.LVL60:
 562 0278 13010102 		addi	sp,sp,32
 563              		.cfi_def_cfa_offset 0
 564 027c 67800000 		jr	ra
 565              		.cfi_endproc
 566              	.LFE4:
 568              		.section	.rodata.str1.8
 569 005f 00       		.align	3
 570              	.LC10:
 571 0060 2000     		.string	" "
 572              		.text
 573              		.align	2
 574              		.globl	_Z4userPv
 576              	_Z4userPv:
 577              	.LFB15:
  81:visak/testcpp.cpp **** 
  82:visak/testcpp.cpp **** void user(void*) {
 578              		.loc 1 82 18 is_stmt 1
 579              		.cfi_startproc
 580 0280 130101BD 		addi	sp,sp,-1072
 581              		.cfi_def_cfa_offset 1072
 582 0284 23341142 		sd	ra,1064(sp)
 583 0288 23308142 		sd	s0,1056(sp)
 584 028c 233C9140 		sd	s1,1048(sp)
 585 0290 23382141 		sd	s2,1040(sp)
 586              		.cfi_offset 1, -8
 587              		.cfi_offset 8, -16
 588              		.cfi_offset 9, -24
 589              		.cfi_offset 18, -32
GAS LISTING /tmp/ccPDxJLS.s 			page 16


 590 0294 13040143 		addi	s0,sp,1072
 591              		.cfi_def_cfa 8, 0
  83:visak/testcpp.cpp ****     const int dim = 10;
 592              		.loc 1 83 5
 593              	.LVL61:
  84:visak/testcpp.cpp ****     uint64 matrix[dim][dim];
 594              		.loc 1 84 5
  85:visak/testcpp.cpp ****     for (int i = 0; i < dim; i++) {
 595              		.loc 1 85 5
 596              	.LBB35:
 597              		.loc 1 85 14 is_stmt 0
 598 0298 13090000 		li	s2,0
 599 029c 6F00C009 		j	.L39
 600              	.LVL62:
 601              	.L45:
 602              	.LBB36:
  86:visak/testcpp.cpp ****         for (int j = 0; j < dim; j++) {
  87:visak/testcpp.cpp ****             matrix[i][j] = ((i * 10 + j) * ((i+j) * j ^ i<<j)) % 100;
  88:visak/testcpp.cpp ****             printInt(matrix[i][j]);
  89:visak/testcpp.cpp ****             if (j == dim - 1) printString("\n");
 603              		.loc 1 89 31 is_stmt 1 discriminator 1
 604              		.loc 1 89 42 is_stmt 0 discriminator 1
 605 02a0 17050000 		lla	a0,.LC2
 605      13050500 
 606 02a8 97000000 		call	_Z11printStringPKc@plt
 606      E7800000 
 607              	.LVL63:
 608              	.L37:
  86:visak/testcpp.cpp ****         for (int j = 0; j < dim; j++) {
 609              		.loc 1 86 9 is_stmt 1 discriminator 2
 610 02b0 9B841400 		addiw	s1,s1,1
 611              	.LVL64:
 612              	.L38:
  86:visak/testcpp.cpp ****         for (int j = 0; j < dim; j++) {
 613              		.loc 1 86 27 discriminator 1
 614 02b4 93079000 		li	a5,9
 615 02b8 63CE9706 		bgt	s1,a5,.L35
  87:visak/testcpp.cpp ****             printInt(matrix[i][j]);
 616              		.loc 1 87 13
  87:visak/testcpp.cpp ****             printInt(matrix[i][j]);
 617              		.loc 1 87 32 is_stmt 0
 618 02bc 9B172900 		slliw	a5,s2,2
 619 02c0 BB872701 		addw	a5,a5,s2
 620 02c4 1B951700 		slliw	a0,a5,1
  87:visak/testcpp.cpp ****             printInt(matrix[i][j]);
 621              		.loc 1 87 37
 622 02c8 3B059500 		addw	a0,a0,s1
  87:visak/testcpp.cpp ****             printInt(matrix[i][j]);
 623              		.loc 1 87 47
 624 02cc BB079900 		addw	a5,s2,s1
  87:visak/testcpp.cpp ****             printInt(matrix[i][j]);
 625              		.loc 1 87 51
 626 02d0 BB879702 		mulw	a5,a5,s1
  87:visak/testcpp.cpp ****             printInt(matrix[i][j]);
 627              		.loc 1 87 58
 628 02d4 3B179900 		sllw	a4,s2,s1
  87:visak/testcpp.cpp ****             printInt(matrix[i][j]);
GAS LISTING /tmp/ccPDxJLS.s 			page 17


 629              		.loc 1 87 55
 630 02d8 B3C7E700 		xor	a5,a5,a4
  87:visak/testcpp.cpp ****             printInt(matrix[i][j]);
 631              		.loc 1 87 42
 632 02dc 3B05F502 		mulw	a0,a0,a5
  87:visak/testcpp.cpp ****             printInt(matrix[i][j]);
 633              		.loc 1 87 64
 634 02e0 93074006 		li	a5,100
 635 02e4 3B65F502 		remw	a0,a0,a5
  87:visak/testcpp.cpp ****             printInt(matrix[i][j]);
 636              		.loc 1 87 26
 637 02e8 13172900 		slli	a4,s2,2
 638 02ec 33072701 		add	a4,a4,s2
 639 02f0 93171700 		slli	a5,a4,1
 640 02f4 B3879700 		add	a5,a5,s1
 641 02f8 93973700 		slli	a5,a5,3
 642 02fc 130704FE 		addi	a4,s0,-32
 643 0300 B307F700 		add	a5,a4,a5
 644 0304 23B0A7CE 		sd	a0,-800(a5)
  88:visak/testcpp.cpp ****             if (j == dim - 1) printString("\n");
 645              		.loc 1 88 13 is_stmt 1
  88:visak/testcpp.cpp ****             if (j == dim - 1) printString("\n");
 646              		.loc 1 88 21 is_stmt 0
 647 0308 13060000 		li	a2,0
 648 030c 9305A000 		li	a1,10
 649 0310 97000000 		call	_Z8printIntiii@plt
 649      E7800000 
 650              	.LVL65:
 651              		.loc 1 89 13 is_stmt 1
 652 0318 93079000 		li	a5,9
 653 031c E382F4F8 		beq	s1,a5,.L45
  90:visak/testcpp.cpp ****             else printString(" ");
 654              		.loc 1 90 18
 655              		.loc 1 90 29 is_stmt 0
 656 0320 17050000 		lla	a0,.LC10
 656      13050500 
 657 0328 97000000 		call	_Z11printStringPKc@plt
 657      E7800000 
 658              	.LVL66:
 659 0330 6FF01FF8 		j	.L37
 660              	.L35:
 661              	.LBE36:
  85:visak/testcpp.cpp ****         for (int j = 0; j < dim; j++) {
 662              		.loc 1 85 5 is_stmt 1 discriminator 2
 663 0334 1B091900 		addiw	s2,s2,1
 664              	.LVL67:
 665              	.L39:
  85:visak/testcpp.cpp ****         for (int j = 0; j < dim; j++) {
 666              		.loc 1 85 23 discriminator 1
 667 0338 93079000 		li	a5,9
 668 033c 63C62701 		bgt	s2,a5,.L42
 669              	.LBB37:
  86:visak/testcpp.cpp ****             matrix[i][j] = ((i * 10 + j) * ((i+j) * j ^ i<<j)) % 100;
 670              		.loc 1 86 18 is_stmt 0
 671 0340 93040000 		li	s1,0
 672 0344 6FF01FF7 		j	.L38
 673              	.L42:
GAS LISTING /tmp/ccPDxJLS.s 			page 18


 674              	.LBE37:
 675              	.LBE35:
 676              	.LBB38:
  91:visak/testcpp.cpp ****         }
  92:visak/testcpp.cpp ****     }
  93:visak/testcpp.cpp ****     thread_t handles[dim];
  94:visak/testcpp.cpp ****     rowdesc rds[dim];
  95:visak/testcpp.cpp ****     for (int i = 0; i < dim; i++) {
 677              		.loc 1 95 14
 678 0348 93040000 		li	s1,0
 679              	.L34:
 680              	.LVL68:
 681              		.loc 1 95 23 is_stmt 1 discriminator 1
 682 034c 93079000 		li	a5,9
 683 0350 63C09706 		bgt	s1,a5,.L43
  96:visak/testcpp.cpp **** 
  97:visak/testcpp.cpp ****         rds[i].row = matrix[i];
 684              		.loc 1 97 9
 685              		.loc 1 97 30 is_stmt 0
 686 0354 93972400 		slli	a5,s1,2
 687 0358 B3879700 		add	a5,a5,s1
 688 035c 93964700 		slli	a3,a5,4
 689 0360 130704CC 		addi	a4,s0,-832
 690 0364 3307D700 		add	a4,a4,a3
 691              		.loc 1 97 20
 692 0368 93964400 		slli	a3,s1,4
 693 036c 930704FE 		addi	a5,s0,-32
 694 0370 B387D700 		add	a5,a5,a3
 695 0374 23B8E7BE 		sd	a4,-1040(a5)
  98:visak/testcpp.cpp ****         rds[i].len = dim;
 696              		.loc 1 98 9 is_stmt 1
 697              		.loc 1 98 20 is_stmt 0
 698 0378 1307A000 		li	a4,10
 699 037c 23ACE7BE 		sw	a4,-1032(a5)
  99:visak/testcpp.cpp ****         rds[i].num = i;
 700              		.loc 1 99 9 is_stmt 1
 701              		.loc 1 99 20 is_stmt 0
 702 0380 23AE97BE 		sw	s1,-1028(a5)
 100:visak/testcpp.cpp ****         thread_create(&handles[i], sumRow, &rds[i]);
 703              		.loc 1 100 9 is_stmt 1
 704              		.loc 1 100 22 is_stmt 0
 705 0384 93973400 		slli	a5,s1,3
 706 0388 130604BD 		addi	a2,s0,-1072
 707 038c 3306D600 		add	a2,a2,a3
 708 0390 97050000 		lla	a1,_Z6sumRowPv
 708      93850500 
 709 0398 130504C7 		addi	a0,s0,-912
 710 039c 3305F500 		add	a0,a0,a5
 711 03a0 97000000 		call	_Z13thread_createPP3TCBPFvPvES2_@plt
 711      E7800000 
 712              	.LVL69:
  95:visak/testcpp.cpp **** 
 713              		.loc 1 95 5 is_stmt 1
 714 03a8 9B841400 		addiw	s1,s1,1
 715              	.LVL70:
 716 03ac 6FF01FFA 		j	.L34
 717              	.LVL71:
GAS LISTING /tmp/ccPDxJLS.s 			page 19


 718              	.L43:
 719              	.LBE38:
 720              	.LBB39:
 101:visak/testcpp.cpp ****     }
 102:visak/testcpp.cpp ****     for (int i = 0; i < dim; i++) {
 721              		.loc 1 102 14 is_stmt 0
 722 03b0 93040000 		li	s1,0
 723              	.LVL72:
 724              	.L40:
 725              		.loc 1 102 23 is_stmt 1 discriminator 1
 726 03b4 93079000 		li	a5,9
 727 03b8 63C29702 		bgt	s1,a5,.L33
 103:visak/testcpp.cpp ****         thread_join(handles[i]);
 728              		.loc 1 103 9
 729              		.loc 1 103 20 is_stmt 0
 730 03bc 93973400 		slli	a5,s1,3
 731 03c0 130704FE 		addi	a4,s0,-32
 732 03c4 B307F700 		add	a5,a4,a5
 733 03c8 03B507C9 		ld	a0,-880(a5)
 734 03cc 97000000 		call	_Z11thread_joinP3TCB@plt
 734      E7800000 
 735              	.LVL73:
 102:visak/testcpp.cpp ****         thread_join(handles[i]);
 736              		.loc 1 102 5 is_stmt 1
 737 03d4 9B841400 		addiw	s1,s1,1
 738              	.LVL74:
 739 03d8 6FF0DFFD 		j	.L40
 740              	.LVL75:
 741              	.L33:
 742              	.LBE39:
 104:visak/testcpp.cpp ****     }
 105:visak/testcpp.cpp **** }
 743              		.loc 1 105 1 is_stmt 0
 744 03dc 83308142 		ld	ra,1064(sp)
 745              		.cfi_restore 1
 746 03e0 03340142 		ld	s0,1056(sp)
 747              		.cfi_restore 8
 748              		.cfi_def_cfa 2, 1072
 749 03e4 83348141 		ld	s1,1048(sp)
 750              		.cfi_restore 9
 751              	.LVL76:
 752 03e8 03390141 		ld	s2,1040(sp)
 753              		.cfi_restore 18
 754              	.LVL77:
 755 03ec 13010143 		addi	sp,sp,1072
 756              		.cfi_def_cfa_offset 0
 757 03f0 67800000 		jr	ra
 758              		.cfi_endproc
 759              	.LFE15:
 761              		.section	.rodata.str1.8
 762 0062 00000000 		.align	3
 762      0000
 763              	.LC11:
 764 0068 697A6C61 		.string	"izlazim iz user 2\n"
 764      7A696D20 
 764      697A2075 
 764      73657220 
GAS LISTING /tmp/ccPDxJLS.s 			page 20


 764      320A00
 765              		.text
 766              		.align	2
 767              		.globl	_Z5user2Pv
 769              	_Z5user2Pv:
 770              	.LFB16:
 106:visak/testcpp.cpp **** 
 107:visak/testcpp.cpp **** void user2(void*) {
 771              		.loc 1 107 19 is_stmt 1
 772              		.cfi_startproc
 773              		.cfi_personality 0x9b,DW.ref.__gxx_personality_v0
 774              		.cfi_lsda 0x1b,.LLSDA16
 775 03f4 130101F9 		addi	sp,sp,-112
 776              		.cfi_def_cfa_offset 112
 777 03f8 23341106 		sd	ra,104(sp)
 778 03fc 23308106 		sd	s0,96(sp)
 779 0400 233C9104 		sd	s1,88(sp)
 780              		.cfi_offset 1, -8
 781              		.cfi_offset 8, -16
 782              		.cfi_offset 9, -24
 783 0404 13040107 		addi	s0,sp,112
 784              		.cfi_def_cfa 8, 0
 108:visak/testcpp.cpp ****     const int sleepy_thread_count = 2;
 785              		.loc 1 108 5
 786              	.LVL78:
 109:visak/testcpp.cpp ****     time_t sleep_times[sleepy_thread_count] = {10, 20};
 787              		.loc 1 109 5
 788              		.loc 1 109 12 is_stmt 0
 789 0408 9307A000 		li	a5,10
 790 040c 2338F4FC 		sd	a5,-48(s0)
 791 0410 93074001 		li	a5,20
 792 0414 233CF4FC 		sd	a5,-40(s0)
 110:visak/testcpp.cpp ****     thread_t sleepyThread[sleepy_thread_count];
 793              		.loc 1 110 5 is_stmt 1
 111:visak/testcpp.cpp ****     timer1 t;
 794              		.loc 1 111 5
 795              	.LVL79:
 796              	.LBB40:
 797              	.LBB41:
 798              	.LBB42:
  53:visak/testcpp.cpp **** 
 799              		.loc 1 53 41 is_stmt 0
 800 0418 93051000 		li	a1,1
 801 041c 930404F9 		addi	s1,s0,-112
 802              	.LVL80:
 803 0420 13850400 		mv	a0,s1
 804              	.LEHB0:
 805 0424 97000000 		call	_ZN14PeriodicThreadC2Em@plt
 805      E7800000 
 806              	.LVL81:
 807              	.LEHE0:
 808 042c 97070000 		lla	a5,_ZTV6timer1+16
 808      93870700 
 809 0434 2338F4F8 		sd	a5,-112(s0)
 810 0438 232C04FA 		sw	zero,-72(s0)
 811              	.LVL82:
 812              	.LBE42:
GAS LISTING /tmp/ccPDxJLS.s 			page 21


 813              	.LBE41:
 814              	.LBE40:
 112:visak/testcpp.cpp ****     t.start();
 815              		.loc 1 112 5 is_stmt 1
 816              		.loc 1 112 12 is_stmt 0
 817 043c 13850400 		mv	a0,s1
 818              	.LEHB1:
 819 0440 97000000 		call	_ZN6Thread5startEv@plt
 819      E7800000 
 820              	.LVL83:
 821              	.LBB43:
 113:visak/testcpp.cpp ****     for (int i = 0; i < sleepy_thread_count; i++) {
 822              		.loc 1 113 14
 823 0448 93040000 		li	s1,0
 824 044c 6F008000 		j	.L48
 825              	.LVL84:
 826              	.L53:
 827              		.loc 1 113 5 is_stmt 1 discriminator 2
 828 0450 9B841400 		addiw	s1,s1,1
 829              	.LVL85:
 830              	.L48:
 831              		.loc 1 113 23 discriminator 1
 832 0454 93071000 		li	a5,1
 833 0458 63C69702 		bgt	s1,a5,.L47
 114:visak/testcpp.cpp ****         thread_create(&sleepyThread[i], f3, sleep_times + i);
 834              		.loc 1 114 9
 835              		.loc 1 114 57 is_stmt 0
 836 045c 13953400 		slli	a0,s1,3
 837              		.loc 1 114 22
 838 0460 130604FD 		addi	a2,s0,-48
 839 0464 3306A600 		add	a2,a2,a0
 840 0468 97050000 		lla	a1,_ZL2f3Pv
 840      93850500 
 841 0470 930704FC 		addi	a5,s0,-64
 842 0474 3385A700 		add	a0,a5,a0
 843 0478 97000000 		call	_Z13thread_createPP3TCBPFvPvES2_@plt
 843      E7800000 
 844              	.LVL86:
 845 0480 6FF01FFD 		j	.L53
 846              	.L47:
 847              	.LBE43:
 115:visak/testcpp.cpp ****     }
 116:visak/testcpp.cpp **** 
 117:visak/testcpp.cpp ****     thread_join(sleepyThread[0]);
 848              		.loc 1 117 5 is_stmt 1
 849              		.loc 1 117 16 is_stmt 0
 850 0484 033504FC 		ld	a0,-64(s0)
 851 0488 97000000 		call	_Z11thread_joinP3TCB@plt
 851      E7800000 
 852              	.LVL87:
 118:visak/testcpp.cpp ****     thread_join(sleepyThread[1]);
 853              		.loc 1 118 5 is_stmt 1
 854              		.loc 1 118 16 is_stmt 0
 855 0490 033584FC 		ld	a0,-56(s0)
 856 0494 97000000 		call	_Z11thread_joinP3TCB@plt
 856      E7800000 
 857              	.LVL88:
GAS LISTING /tmp/ccPDxJLS.s 			page 22


 119:visak/testcpp.cpp ****     t.terminate();
 858              		.loc 1 119 5 is_stmt 1
 859              		.loc 1 119 16 is_stmt 0
 860 049c 130504F9 		addi	a0,s0,-112
 861 04a0 97000000 		call	_ZN14PeriodicThread9terminateEv@plt
 861      E7800000 
 862              	.LVL89:
 120:visak/testcpp.cpp ****     //t.join();
 121:visak/testcpp.cpp ****     printString("izlazim iz user 2\n");
 863              		.loc 1 121 5 is_stmt 1
 864              		.loc 1 121 16 is_stmt 0
 865 04a8 17050000 		lla	a0,.LC11
 865      13050500 
 866 04b0 97000000 		call	_Z11printStringPKc@plt
 866      E7800000 
 867              	.LVL90:
 868              	.LEHE1:
 869              	.LBB44:
 870              	.LBB45:
 871              	.LBB46:
 872              		.loc 2 80 7
 873 04b8 97070000 		la	a5,_ZTV14PeriodicThread
 873      83B70700 
 874 04c0 93870701 		addi	a5,a5,16
 875 04c4 2338F4F8 		sd	a5,-112(s0)
 876 04c8 130504F9 		addi	a0,s0,-112
 877              	.LVL91:
 878 04cc 97000000 		call	_ZN6ThreadD2Ev@plt
 878      E7800000 
 879              	.LVL92:
 880              	.LBE46:
 881              	.LBE45:
 882              	.LBE44:
 122:visak/testcpp.cpp **** }...
 883              		.loc 1 122 1
 884 04d4 83308106 		ld	ra,104(sp)
 885              		.cfi_remember_state
 886              		.cfi_restore 1
 887 04d8 03340106 		ld	s0,96(sp)
 888              		.cfi_restore 8
 889              		.cfi_def_cfa 2, 112
 890 04dc 83348105 		ld	s1,88(sp)
 891              		.cfi_restore 9
 892              	.LVL93:
 893 04e0 13010107 		addi	sp,sp,112
 894              		.cfi_def_cfa_offset 0
 895 04e4 67800000 		jr	ra
 896              	.L50:
 897              		.cfi_restore_state
 898 04e8 93040500 		mv	s1,a0
 899              	.LVL94:
 900              	.LBB47:
 901              	.LBB48:
 902              	.LBB49:
 903              		.loc 2 80 7
 904 04ec 97070000 		la	a5,_ZTV14PeriodicThread
 904      83B70700 
GAS LISTING /tmp/ccPDxJLS.s 			page 23


 905 04f4 93870701 		addi	a5,a5,16
 906 04f8 2338F4F8 		sd	a5,-112(s0)
 907 04fc 130504F9 		addi	a0,s0,-112
 908              	.LVL95:
 909 0500 97000000 		call	_ZN6ThreadD2Ev@plt
 909      E7800000 
 910              	.LVL96:
 911 0508 13850400 		mv	a0,s1
 912              	.LEHB2:
 913 050c 97000000 		call	_Unwind_Resume@plt
 913      E7800000 
 914              	.LVL97:
 915              	.LEHE2:
 916              	.LBE49:
 917              	.LBE48:
 918              	.LBE47:
 919              		.cfi_endproc
 920              	.LFE16:
 921              		.globl	__gxx_personality_v0
 922              		.section	.gcc_except_table,"a",@progbits
 923              	.LLSDA16:
 924 0000 FF       		.byte	0xff
 925 0001 FF       		.byte	0xff
 926 0002 03       		.byte	0x3
 927 0003 27       		.byte	0x27
 928 0004 00000000 		.4byte	.LEHB0-.LFB16
 929 0008 00000000 		.4byte	.LEHE0-.LEHB0
 930 000c 00000000 		.4byte	0
 931 0010 00       		.byte	0
 932 0011 00000000 		.4byte	.LEHB1-.LFB16
 933 0015 00000000 		.4byte	.LEHE1-.LEHB1
 934 0019 00000000 		.4byte	.L50-.LFB16
 935 001d 00       		.byte	0
 936 001e 00000000 		.4byte	.LEHB2-.LFB16
 937 0022 00000000 		.4byte	.LEHE2-.LEHB2
 938 0026 00000000 		.4byte	0
 939 002a 00       		.byte	0
 940              		.text
 942              		.weak	_ZTV6timer1
 943              		.section	.data.rel.ro._ZTV6timer1,"awG",@progbits,_ZTV6timer1,comdat
 944              		.align	3
 947              	_ZTV6timer1:
 948 0000 00000000 		.dword	0
 948      00000000 
 949 0008 00000000 		.dword	0
 949      00000000 
 950 0010 00000000 		.dword	_ZN6timer1D1Ev
 950      00000000 
 951 0018 00000000 		.dword	_ZN6timer1D0Ev
 951      00000000 
 952 0020 00000000 		.dword	_ZN14PeriodicThread3runEv
 952      00000000 
 953 0028 00000000 		.dword	_ZN6timer118periodicActivationEv
 953      00000000 
 954              		.globl	nit3
 955              		.globl	nit2
 956              		.globl	nit1
GAS LISTING /tmp/ccPDxJLS.s 			page 24


 957              		.bss
 958              		.align	3
 961              	nit3:
 962 0000 00000000 		.zero	8
 962      00000000 
 965              	nit2:
 966 0008 00000000 		.zero	8
 966      00000000 
 969              	nit1:
 970 0010 00000000 		.zero	8
 970      00000000 
 971              		.text
 972              	.Letext0:
 973              		.file 3 "visak/../h/../lib/hw.h"
 974              		.file 4 "visak/../h/syscall_c.hpp"
 975              		.file 5 "visak/../test/printing.hpp"
 4007              		.align	3
 4010              	DW.ref.__gxx_personality_v0:
 4011 0000 00000000 		.dword	__gxx_personality_v0
 4011      00000000 
 4012              		.ident	"GCC: (Ubuntu 9.4.0-1ubuntu1~20.04) 9.4.0"
 4013              		.section	.note.GNU-stack,"",@progbits
GAS LISTING /tmp/ccPDxJLS.s 			page 25


DEFINED SYMBOLS
                            *ABS*:0000000000000000 testcpp.cpp
     /tmp/ccPDxJLS.s:20     .text:0000000000000000 _Z6sumRowPv
     /tmp/ccPDxJLS.s:24     .text:0000000000000000 .L0 
     /tmp/ccPDxJLS.s:26     .text:0000000000000000 .L0 
     /tmp/ccPDxJLS.s:27     .text:0000000000000000 .L0 
     /tmp/ccPDxJLS.s:29     .text:0000000000000004 .L0 
     /tmp/ccPDxJLS.s:30     .text:0000000000000008 .L0 
     /tmp/ccPDxJLS.s:34     .text:0000000000000014 .L0 
     /tmp/ccPDxJLS.s:35     .text:0000000000000014 .L0 
     /tmp/ccPDxJLS.s:36     .text:0000000000000014 .L0 
     /tmp/ccPDxJLS.s:38     .text:0000000000000018 .L0 
     /tmp/ccPDxJLS.s:40     .text:0000000000000018 .L0 
     /tmp/ccPDxJLS.s:41     .text:0000000000000018 .L0 
     /tmp/ccPDxJLS.s:47     .text:0000000000000028 .L0 
     /tmp/ccPDxJLS.s:49     .text:0000000000000028 .L0 
     /tmp/ccPDxJLS.s:50     .text:0000000000000028 .L0 
     /tmp/ccPDxJLS.s:53     .text:000000000000002c .L0 
     /tmp/ccPDxJLS.s:58     .text:0000000000000030 .L0 
     /tmp/ccPDxJLS.s:59     .text:0000000000000030 .L0 
     /tmp/ccPDxJLS.s:61     .text:0000000000000034 .L0 
     /tmp/ccPDxJLS.s:63     .text:0000000000000038 .L0 
     /tmp/ccPDxJLS.s:64     .text:0000000000000038 .L0 
     /tmp/ccPDxJLS.s:69     .text:0000000000000048 .L0 
     /tmp/ccPDxJLS.s:72     .text:000000000000004c .L0 
     /tmp/ccPDxJLS.s:79     .text:0000000000000054 .L0 
     /tmp/ccPDxJLS.s:80     .text:0000000000000054 .L0 
     /tmp/ccPDxJLS.s:85     .text:0000000000000064 .L0 
     /tmp/ccPDxJLS.s:86     .text:0000000000000064 .L0 
     /tmp/ccPDxJLS.s:92     .text:0000000000000078 .L0 
     /tmp/ccPDxJLS.s:93     .text:0000000000000078 .L0 
     /tmp/ccPDxJLS.s:97     .text:0000000000000088 .L0 
     /tmp/ccPDxJLS.s:98     .text:0000000000000088 .L0 
     /tmp/ccPDxJLS.s:104    .text:000000000000009c .L0 
     /tmp/ccPDxJLS.s:105    .text:000000000000009c .L0 
     /tmp/ccPDxJLS.s:109    .text:00000000000000ac .L0 
     /tmp/ccPDxJLS.s:110    .text:00000000000000b0 .L0 
     /tmp/ccPDxJLS.s:112    .text:00000000000000b4 .L0 
     /tmp/ccPDxJLS.s:113    .text:00000000000000b4 .L0 
     /tmp/ccPDxJLS.s:115    .text:00000000000000b8 .L0 
     /tmp/ccPDxJLS.s:118    .text:00000000000000bc .L0 
     /tmp/ccPDxJLS.s:123    .text:00000000000000c4 .L0 
     /tmp/ccPDxJLS.s:134    .text._ZN6timer118periodicActivationEv:0000000000000000 _ZN6timer118periodicActivationEv
     /tmp/ccPDxJLS.s:137    .text._ZN6timer118periodicActivationEv:0000000000000000 .L0 
     /tmp/ccPDxJLS.s:139    .text._ZN6timer118periodicActivationEv:0000000000000000 .L0 
     /tmp/ccPDxJLS.s:140    .text._ZN6timer118periodicActivationEv:0000000000000004 .L0 
     /tmp/ccPDxJLS.s:144    .text._ZN6timer118periodicActivationEv:0000000000000010 .L0 
     /tmp/ccPDxJLS.s:145    .text._ZN6timer118periodicActivationEv:0000000000000010 .L0 
     /tmp/ccPDxJLS.s:146    .text._ZN6timer118periodicActivationEv:0000000000000010 .L0 
     /tmp/ccPDxJLS.s:148    .text._ZN6timer118periodicActivationEv:0000000000000014 .L0 
     /tmp/ccPDxJLS.s:151    .text._ZN6timer118periodicActivationEv:0000000000000018 .L0 
     /tmp/ccPDxJLS.s:152    .text._ZN6timer118periodicActivationEv:0000000000000018 .L0 
     /tmp/ccPDxJLS.s:157    .text._ZN6timer118periodicActivationEv:0000000000000028 .L0 
     /tmp/ccPDxJLS.s:158    .text._ZN6timer118periodicActivationEv:0000000000000028 .L0 
     /tmp/ccPDxJLS.s:160    .text._ZN6timer118periodicActivationEv:000000000000002c .L0 
     /tmp/ccPDxJLS.s:167    .text._ZN6timer118periodicActivationEv:0000000000000044 .L0 
     /tmp/ccPDxJLS.s:168    .text._ZN6timer118periodicActivationEv:0000000000000044 .L0 
GAS LISTING /tmp/ccPDxJLS.s 			page 26


     /tmp/ccPDxJLS.s:172    .text._ZN6timer118periodicActivationEv:0000000000000054 .L0 
     /tmp/ccPDxJLS.s:173    .text._ZN6timer118periodicActivationEv:0000000000000058 .L0 
     /tmp/ccPDxJLS.s:175    .text._ZN6timer118periodicActivationEv:000000000000005c .L0 
     /tmp/ccPDxJLS.s:176    .text._ZN6timer118periodicActivationEv:000000000000005c .L0 
     /tmp/ccPDxJLS.s:178    .text._ZN6timer118periodicActivationEv:0000000000000060 .L0 
     /tmp/ccPDxJLS.s:181    .text._ZN6timer118periodicActivationEv:0000000000000064 .L0 
     /tmp/ccPDxJLS.s:183    .text._ZN6timer118periodicActivationEv:0000000000000068 .L0 
     /tmp/ccPDxJLS.s:196    .text:00000000000000c4 _ZL2f3Pv
     /tmp/ccPDxJLS.s:199    .text:00000000000000c4 .L0 
     /tmp/ccPDxJLS.s:201    .text:00000000000000c4 .L0 
     /tmp/ccPDxJLS.s:202    .text:00000000000000c8 .L0 
     /tmp/ccPDxJLS.s:207    .text:00000000000000d8 .L0 
     /tmp/ccPDxJLS.s:208    .text:00000000000000d8 .L0 
     /tmp/ccPDxJLS.s:209    .text:00000000000000d8 .L0 
     /tmp/ccPDxJLS.s:210    .text:00000000000000d8 .L0 
     /tmp/ccPDxJLS.s:212    .text:00000000000000dc .L0 
     /tmp/ccPDxJLS.s:214    .text:00000000000000dc .L0 
     /tmp/ccPDxJLS.s:215    .text:00000000000000dc .L0 
     /tmp/ccPDxJLS.s:218    .text:00000000000000e0 .L0 
     /tmp/ccPDxJLS.s:219    .text:00000000000000e0 .L0 
     /tmp/ccPDxJLS.s:223    .text:00000000000000e4 .L0 
     /tmp/ccPDxJLS.s:224    .text:00000000000000e4 .L0 
     /tmp/ccPDxJLS.s:228    .text:00000000000000ec .L0 
     /tmp/ccPDxJLS.s:229    .text:00000000000000ec .L0 
     /tmp/ccPDxJLS.s:233    .text:00000000000000fc .L0 
     /tmp/ccPDxJLS.s:234    .text:00000000000000fc .L0 
     /tmp/ccPDxJLS.s:240    .text:0000000000000110 .L0 
     /tmp/ccPDxJLS.s:241    .text:0000000000000110 .L0 
     /tmp/ccPDxJLS.s:245    .text:0000000000000120 .L0 
     /tmp/ccPDxJLS.s:246    .text:0000000000000120 .L0 
     /tmp/ccPDxJLS.s:250    .text:000000000000012c .L0 
     /tmp/ccPDxJLS.s:253    .text:0000000000000130 .L0 
     /tmp/ccPDxJLS.s:254    .text:0000000000000134 .L0 
     /tmp/ccPDxJLS.s:256    .text:0000000000000138 .L0 
     /tmp/ccPDxJLS.s:257    .text:0000000000000138 .L0 
     /tmp/ccPDxJLS.s:259    .text:000000000000013c .L0 
     /tmp/ccPDxJLS.s:261    .text:0000000000000140 .L0 
     /tmp/ccPDxJLS.s:264    .text:0000000000000144 .L0 
     /tmp/ccPDxJLS.s:266    .text:0000000000000148 .L0 
     /tmp/ccPDxJLS.s:273    .text._ZN6timer1D2Ev:0000000000000000 _ZN6timer1D2Ev
     /tmp/ccPDxJLS.s:276    .text._ZN6timer1D2Ev:0000000000000000 .L0 
     /tmp/ccPDxJLS.s:278    .text._ZN6timer1D2Ev:0000000000000000 .L0 
     /tmp/ccPDxJLS.s:279    .text._ZN6timer1D2Ev:0000000000000004 .L0 
     /tmp/ccPDxJLS.s:282    .text._ZN6timer1D2Ev:000000000000000c .L0 
     /tmp/ccPDxJLS.s:283    .text._ZN6timer1D2Ev:000000000000000c .L0 
     /tmp/ccPDxJLS.s:285    .text._ZN6timer1D2Ev:0000000000000010 .L0 
     /tmp/ccPDxJLS.s:291    .text._ZN6timer1D2Ev:0000000000000010 .L0 
     /tmp/ccPDxJLS.s:299    .text._ZN6timer1D2Ev:0000000000000028 .L0 
     /tmp/ccPDxJLS.s:300    .text._ZN6timer1D2Ev:000000000000002c .L0 
     /tmp/ccPDxJLS.s:302    .text._ZN6timer1D2Ev:0000000000000030 .L0 
     /tmp/ccPDxJLS.s:303    .text._ZN6timer1D2Ev:0000000000000030 .L0 
     /tmp/ccPDxJLS.s:305    .text._ZN6timer1D2Ev:0000000000000034 .L0 
     /tmp/ccPDxJLS.s:307    .text._ZN6timer1D2Ev:0000000000000038 .L0 
     /tmp/ccPDxJLS.s:273    .text._ZN6timer1D2Ev:0000000000000000 _ZN6timer1D1Ev
     /tmp/ccPDxJLS.s:316    .text._ZN6timer1D0Ev:0000000000000000 _ZN6timer1D0Ev
     /tmp/ccPDxJLS.s:319    .text._ZN6timer1D0Ev:0000000000000000 .L0 
     /tmp/ccPDxJLS.s:321    .text._ZN6timer1D0Ev:0000000000000000 .L0 
GAS LISTING /tmp/ccPDxJLS.s 			page 27


     /tmp/ccPDxJLS.s:322    .text._ZN6timer1D0Ev:0000000000000004 .L0 
     /tmp/ccPDxJLS.s:326    .text._ZN6timer1D0Ev:0000000000000010 .L0 
     /tmp/ccPDxJLS.s:327    .text._ZN6timer1D0Ev:0000000000000010 .L0 
     /tmp/ccPDxJLS.s:328    .text._ZN6timer1D0Ev:0000000000000010 .L0 
     /tmp/ccPDxJLS.s:330    .text._ZN6timer1D0Ev:0000000000000014 .L0 
     /tmp/ccPDxJLS.s:337    .text._ZN6timer1D0Ev:0000000000000018 .L0 
     /tmp/ccPDxJLS.s:346    .text._ZN6timer1D0Ev:0000000000000030 .L0 
     /tmp/ccPDxJLS.s:350    .text._ZN6timer1D0Ev:0000000000000040 .L0 
     /tmp/ccPDxJLS.s:352    .text._ZN6timer1D0Ev:0000000000000044 .L0 
     /tmp/ccPDxJLS.s:353    .text._ZN6timer1D0Ev:0000000000000044 .L0 
     /tmp/ccPDxJLS.s:355    .text._ZN6timer1D0Ev:0000000000000048 .L0 
     /tmp/ccPDxJLS.s:358    .text._ZN6timer1D0Ev:000000000000004c .L0 
     /tmp/ccPDxJLS.s:360    .text._ZN6timer1D0Ev:0000000000000050 .L0 
     /tmp/ccPDxJLS.s:367    .text:0000000000000148 _Z4factm
     /tmp/ccPDxJLS.s:370    .text:0000000000000148 .L0 
     /tmp/ccPDxJLS.s:372    .text:0000000000000148 .L0 
     /tmp/ccPDxJLS.s:373    .text:0000000000000148 .L0 
     /tmp/ccPDxJLS.s:376    .text:0000000000000150 .L0 
     /tmp/ccPDxJLS.s:377    .text:0000000000000154 .L0 
     /tmp/ccPDxJLS.s:381    .text:0000000000000160 .L0 
     /tmp/ccPDxJLS.s:382    .text:0000000000000160 .L0 
     /tmp/ccPDxJLS.s:383    .text:0000000000000160 .L0 
     /tmp/ccPDxJLS.s:385    .text:0000000000000164 .L0 
     /tmp/ccPDxJLS.s:388    .text:0000000000000168 .L0 
     /tmp/ccPDxJLS.s:389    .text:0000000000000168 .L0 
     /tmp/ccPDxJLS.s:391    .text:000000000000016c .L0 
     /tmp/ccPDxJLS.s:395    .text:0000000000000170 .L0 
     /tmp/ccPDxJLS.s:396    .text:0000000000000170 .L0 
     /tmp/ccPDxJLS.s:400    .text:000000000000017c .L0 
     /tmp/ccPDxJLS.s:402    .text:0000000000000180 .L0 
     /tmp/ccPDxJLS.s:403    .text:0000000000000184 .L0 
     /tmp/ccPDxJLS.s:404    .text:0000000000000184 .L0 
     /tmp/ccPDxJLS.s:406    .text:0000000000000188 .L0 
     /tmp/ccPDxJLS.s:407    .text:0000000000000188 .L0 
     /tmp/ccPDxJLS.s:409    .text:000000000000018c .L0 
     /tmp/ccPDxJLS.s:412    .text:0000000000000190 .L0 
     /tmp/ccPDxJLS.s:416    .text:0000000000000194 .L0 
     /tmp/ccPDxJLS.s:418    .text:0000000000000194 .L0 
     /tmp/ccPDxJLS.s:419    .text:0000000000000194 .L0 
     /tmp/ccPDxJLS.s:424    .text:00000000000001a0 .L0 
     /tmp/ccPDxJLS.s:425    .text:00000000000001a0 .L0 
     /tmp/ccPDxJLS.s:426    .text:00000000000001a0 .L0 
     /tmp/ccPDxJLS.s:427    .text:00000000000001a0 .L0 
     /tmp/ccPDxJLS.s:429    .text:00000000000001a0 .L0 
     /tmp/ccPDxJLS.s:432    .text:00000000000001a4 .L0 
     /tmp/ccPDxJLS.s:433    .text:00000000000001a8 .L0 
     /tmp/ccPDxJLS.s:447    .text:00000000000001a8 _Z2f1Pv
     /tmp/ccPDxJLS.s:450    .text:00000000000001a8 .L0 
     /tmp/ccPDxJLS.s:452    .text:00000000000001a8 .L0 
     /tmp/ccPDxJLS.s:453    .text:00000000000001ac .L0 
     /tmp/ccPDxJLS.s:457    .text:00000000000001b8 .L0 
     /tmp/ccPDxJLS.s:458    .text:00000000000001b8 .L0 
     /tmp/ccPDxJLS.s:459    .text:00000000000001b8 .L0 
     /tmp/ccPDxJLS.s:461    .text:00000000000001bc .L0 
     /tmp/ccPDxJLS.s:463    .text:00000000000001bc .L0 
     /tmp/ccPDxJLS.s:464    .text:00000000000001bc .L0 
     /tmp/ccPDxJLS.s:471    .text:00000000000001cc .L0 
GAS LISTING /tmp/ccPDxJLS.s 			page 28


     /tmp/ccPDxJLS.s:472    .text:00000000000001cc .L0 
     /tmp/ccPDxJLS.s:476    .text:00000000000001dc .L0 
     /tmp/ccPDxJLS.s:477    .text:00000000000001dc .L0 
     /tmp/ccPDxJLS.s:483    .text:00000000000001f0 .L0 
     /tmp/ccPDxJLS.s:484    .text:00000000000001f0 .L0 
     /tmp/ccPDxJLS.s:488    .text:0000000000000200 .L0 
     /tmp/ccPDxJLS.s:489    .text:0000000000000204 .L0 
     /tmp/ccPDxJLS.s:491    .text:0000000000000208 .L0 
     /tmp/ccPDxJLS.s:492    .text:0000000000000208 .L0 
     /tmp/ccPDxJLS.s:494    .text:000000000000020c .L0 
     /tmp/ccPDxJLS.s:497    .text:0000000000000210 .L0 
     /tmp/ccPDxJLS.s:499    .text:0000000000000214 .L0 
     /tmp/ccPDxJLS.s:513    .text:0000000000000214 _Z2f2Pv
     /tmp/ccPDxJLS.s:516    .text:0000000000000214 .L0 
     /tmp/ccPDxJLS.s:518    .text:0000000000000214 .L0 
     /tmp/ccPDxJLS.s:519    .text:0000000000000218 .L0 
     /tmp/ccPDxJLS.s:523    .text:0000000000000224 .L0 
     /tmp/ccPDxJLS.s:524    .text:0000000000000224 .L0 
     /tmp/ccPDxJLS.s:525    .text:0000000000000224 .L0 
     /tmp/ccPDxJLS.s:527    .text:0000000000000228 .L0 
     /tmp/ccPDxJLS.s:529    .text:0000000000000228 .L0 
     /tmp/ccPDxJLS.s:530    .text:0000000000000228 .L0 
     /tmp/ccPDxJLS.s:537    .text:0000000000000238 .L0 
     /tmp/ccPDxJLS.s:538    .text:0000000000000238 .L0 
     /tmp/ccPDxJLS.s:542    .text:0000000000000248 .L0 
     /tmp/ccPDxJLS.s:543    .text:0000000000000248 .L0 
     /tmp/ccPDxJLS.s:549    .text:000000000000025c .L0 
     /tmp/ccPDxJLS.s:550    .text:000000000000025c .L0 
     /tmp/ccPDxJLS.s:554    .text:000000000000026c .L0 
     /tmp/ccPDxJLS.s:555    .text:0000000000000270 .L0 
     /tmp/ccPDxJLS.s:557    .text:0000000000000274 .L0 
     /tmp/ccPDxJLS.s:558    .text:0000000000000274 .L0 
     /tmp/ccPDxJLS.s:560    .text:0000000000000278 .L0 
     /tmp/ccPDxJLS.s:563    .text:000000000000027c .L0 
     /tmp/ccPDxJLS.s:565    .text:0000000000000280 .L0 
     /tmp/ccPDxJLS.s:576    .text:0000000000000280 _Z4userPv
     /tmp/ccPDxJLS.s:579    .text:0000000000000280 .L0 
     /tmp/ccPDxJLS.s:580    .text:0000000000000280 .L0 
     /tmp/ccPDxJLS.s:581    .text:0000000000000284 .L0 
     /tmp/ccPDxJLS.s:586    .text:0000000000000294 .L0 
     /tmp/ccPDxJLS.s:587    .text:0000000000000294 .L0 
     /tmp/ccPDxJLS.s:588    .text:0000000000000294 .L0 
     /tmp/ccPDxJLS.s:589    .text:0000000000000294 .L0 
     /tmp/ccPDxJLS.s:591    .text:0000000000000298 .L0 
     /tmp/ccPDxJLS.s:594    .text:0000000000000298 .L0 
     /tmp/ccPDxJLS.s:595    .text:0000000000000298 .L0 
     /tmp/ccPDxJLS.s:597    .text:0000000000000298 .L0 
     /tmp/ccPDxJLS.s:598    .text:0000000000000298 .L0 
     /tmp/ccPDxJLS.s:604    .text:00000000000002a0 .L0 
     /tmp/ccPDxJLS.s:605    .text:00000000000002a0 .L0 
     /tmp/ccPDxJLS.s:610    .text:00000000000002b0 .L0 
     /tmp/ccPDxJLS.s:614    .text:00000000000002b4 .L0 
     /tmp/ccPDxJLS.s:617    .text:00000000000002bc .L0 
     /tmp/ccPDxJLS.s:618    .text:00000000000002bc .L0 
     /tmp/ccPDxJLS.s:622    .text:00000000000002c8 .L0 
     /tmp/ccPDxJLS.s:624    .text:00000000000002cc .L0 
     /tmp/ccPDxJLS.s:626    .text:00000000000002d0 .L0 
GAS LISTING /tmp/ccPDxJLS.s 			page 29


     /tmp/ccPDxJLS.s:628    .text:00000000000002d4 .L0 
     /tmp/ccPDxJLS.s:630    .text:00000000000002d8 .L0 
     /tmp/ccPDxJLS.s:632    .text:00000000000002dc .L0 
     /tmp/ccPDxJLS.s:634    .text:00000000000002e0 .L0 
     /tmp/ccPDxJLS.s:637    .text:00000000000002e8 .L0 
     /tmp/ccPDxJLS.s:646    .text:0000000000000308 .L0 
     /tmp/ccPDxJLS.s:647    .text:0000000000000308 .L0 
     /tmp/ccPDxJLS.s:652    .text:0000000000000318 .L0 
     /tmp/ccPDxJLS.s:655    .text:0000000000000320 .L0 
     /tmp/ccPDxJLS.s:656    .text:0000000000000320 .L0 
     /tmp/ccPDxJLS.s:663    .text:0000000000000334 .L0 
     /tmp/ccPDxJLS.s:667    .text:0000000000000338 .L0 
     /tmp/ccPDxJLS.s:671    .text:0000000000000340 .L0 
     /tmp/ccPDxJLS.s:678    .text:0000000000000348 .L0 
     /tmp/ccPDxJLS.s:682    .text:000000000000034c .L0 
     /tmp/ccPDxJLS.s:685    .text:0000000000000354 .L0 
     /tmp/ccPDxJLS.s:686    .text:0000000000000354 .L0 
     /tmp/ccPDxJLS.s:692    .text:0000000000000368 .L0 
     /tmp/ccPDxJLS.s:697    .text:0000000000000378 .L0 
     /tmp/ccPDxJLS.s:698    .text:0000000000000378 .L0 
     /tmp/ccPDxJLS.s:701    .text:0000000000000380 .L0 
     /tmp/ccPDxJLS.s:702    .text:0000000000000380 .L0 
     /tmp/ccPDxJLS.s:704    .text:0000000000000384 .L0 
     /tmp/ccPDxJLS.s:705    .text:0000000000000384 .L0 
     /tmp/ccPDxJLS.s:714    .text:00000000000003a8 .L0 
     /tmp/ccPDxJLS.s:722    .text:00000000000003b0 .L0 
     /tmp/ccPDxJLS.s:726    .text:00000000000003b4 .L0 
     /tmp/ccPDxJLS.s:729    .text:00000000000003bc .L0 
     /tmp/ccPDxJLS.s:730    .text:00000000000003bc .L0 
     /tmp/ccPDxJLS.s:737    .text:00000000000003d4 .L0 
     /tmp/ccPDxJLS.s:744    .text:00000000000003dc .L0 
     /tmp/ccPDxJLS.s:745    .text:00000000000003e0 .L0 
     /tmp/ccPDxJLS.s:747    .text:00000000000003e4 .L0 
     /tmp/ccPDxJLS.s:748    .text:00000000000003e4 .L0 
     /tmp/ccPDxJLS.s:750    .text:00000000000003e8 .L0 
     /tmp/ccPDxJLS.s:753    .text:00000000000003ec .L0 
     /tmp/ccPDxJLS.s:756    .text:00000000000003f0 .L0 
     /tmp/ccPDxJLS.s:758    .text:00000000000003f4 .L0 
     /tmp/ccPDxJLS.s:769    .text:00000000000003f4 _Z5user2Pv
     /tmp/ccPDxJLS.s:772    .text:00000000000003f4 .L0 
     /tmp/ccPDxJLS.s:4010   .data.rel.local.DW.ref.__gxx_personality_v0:0000000000000000 DW.ref.__gxx_personality_v0
     /tmp/ccPDxJLS.s:775    .text:00000000000003f4 .L0 
     /tmp/ccPDxJLS.s:776    .text:00000000000003f8 .L0 
     /tmp/ccPDxJLS.s:780    .text:0000000000000404 .L0 
     /tmp/ccPDxJLS.s:781    .text:0000000000000404 .L0 
     /tmp/ccPDxJLS.s:782    .text:0000000000000404 .L0 
     /tmp/ccPDxJLS.s:784    .text:0000000000000408 .L0 
     /tmp/ccPDxJLS.s:787    .text:0000000000000408 .L0 
     /tmp/ccPDxJLS.s:788    .text:0000000000000408 .L0 
     /tmp/ccPDxJLS.s:789    .text:0000000000000408 .L0 
     /tmp/ccPDxJLS.s:794    .text:0000000000000418 .L0 
     /tmp/ccPDxJLS.s:799    .text:0000000000000418 .L0 
     /tmp/ccPDxJLS.s:800    .text:0000000000000418 .L0 
     /tmp/ccPDxJLS.s:947    .data.rel.ro._ZTV6timer1:0000000000000000 _ZTV6timer1
     /tmp/ccPDxJLS.s:816    .text:000000000000043c .L0 
     /tmp/ccPDxJLS.s:817    .text:000000000000043c .L0 
     /tmp/ccPDxJLS.s:823    .text:0000000000000448 .L0 
GAS LISTING /tmp/ccPDxJLS.s 			page 30


     /tmp/ccPDxJLS.s:828    .text:0000000000000450 .L0 
     /tmp/ccPDxJLS.s:832    .text:0000000000000454 .L0 
     /tmp/ccPDxJLS.s:835    .text:000000000000045c .L0 
     /tmp/ccPDxJLS.s:836    .text:000000000000045c .L0 
     /tmp/ccPDxJLS.s:838    .text:0000000000000460 .L0 
     /tmp/ccPDxJLS.s:849    .text:0000000000000484 .L0 
     /tmp/ccPDxJLS.s:850    .text:0000000000000484 .L0 
     /tmp/ccPDxJLS.s:854    .text:0000000000000490 .L0 
     /tmp/ccPDxJLS.s:855    .text:0000000000000490 .L0 
     /tmp/ccPDxJLS.s:859    .text:000000000000049c .L0 
     /tmp/ccPDxJLS.s:860    .text:000000000000049c .L0 
     /tmp/ccPDxJLS.s:864    .text:00000000000004a8 .L0 
     /tmp/ccPDxJLS.s:865    .text:00000000000004a8 .L0 
     /tmp/ccPDxJLS.s:873    .text:00000000000004b8 .L0 
     /tmp/ccPDxJLS.s:884    .text:00000000000004d4 .L0 
     /tmp/ccPDxJLS.s:885    .text:00000000000004d8 .L0 
     /tmp/ccPDxJLS.s:886    .text:00000000000004d8 .L0 
     /tmp/ccPDxJLS.s:888    .text:00000000000004dc .L0 
     /tmp/ccPDxJLS.s:889    .text:00000000000004dc .L0 
     /tmp/ccPDxJLS.s:891    .text:00000000000004e0 .L0 
     /tmp/ccPDxJLS.s:894    .text:00000000000004e4 .L0 
     /tmp/ccPDxJLS.s:897    .text:00000000000004e8 .L0 
     /tmp/ccPDxJLS.s:904    .text:00000000000004ec .L0 
     /tmp/ccPDxJLS.s:919    .text:0000000000000514 .L0 
     /tmp/ccPDxJLS.s:961    .bss:0000000000000000 nit3
     /tmp/ccPDxJLS.s:965    .bss:0000000000000008 nit2
     /tmp/ccPDxJLS.s:969    .bss:0000000000000010 nit1
     /tmp/ccPDxJLS.s:976    .text:0000000000000514 .L0 
     /tmp/ccPDxJLS.s:186    .text._ZN6timer118periodicActivationEv:0000000000000068 .L0 
     /tmp/ccPDxJLS.s:312    .text._ZN6timer1D2Ev:0000000000000038 .L0 
     /tmp/ccPDxJLS.s:363    .text._ZN6timer1D0Ev:0000000000000050 .L0 
     /tmp/ccPDxJLS.s:8      .rodata.str1.8:0000000000000000 .LC0
     /tmp/ccPDxJLS.s:80     .text:0000000000000054 .L0 
     /tmp/ccPDxJLS.s:11     .rodata.str1.8:0000000000000010 .LC1
     /tmp/ccPDxJLS.s:93     .text:0000000000000078 .L0 
     /tmp/ccPDxJLS.s:14     .rodata.str1.8:0000000000000018 .LC2
     /tmp/ccPDxJLS.s:105    .text:000000000000009c .L0 
     /tmp/ccPDxJLS.s:188    .rodata.str1.8:0000000000000020 .LC4
     /tmp/ccPDxJLS.s:229    .text:00000000000000ec .L0 
     /tmp/ccPDxJLS.s:191    .rodata.str1.8:0000000000000028 .LC5
     /tmp/ccPDxJLS.s:241    .text:0000000000000110 .L0 
     /tmp/ccPDxJLS.s:438    .rodata.str1.8:0000000000000030 .LC6
     /tmp/ccPDxJLS.s:472    .text:00000000000001cc .L0 
     /tmp/ccPDxJLS.s:441    .rodata.str1.8:0000000000000038 .LC7
     /tmp/ccPDxJLS.s:484    .text:00000000000001f0 .L0 
     /tmp/ccPDxJLS.s:504    .rodata.str1.8:0000000000000048 .LC8
     /tmp/ccPDxJLS.s:538    .text:0000000000000238 .L0 
     /tmp/ccPDxJLS.s:507    .rodata.str1.8:0000000000000050 .LC9
     /tmp/ccPDxJLS.s:550    .text:000000000000025c .L0 
     /tmp/ccPDxJLS.s:605    .text:00000000000002a0 .L0 
     /tmp/ccPDxJLS.s:570    .rodata.str1.8:0000000000000060 .LC10
     /tmp/ccPDxJLS.s:656    .text:0000000000000320 .L0 
     /tmp/ccPDxJLS.s:708    .text:0000000000000390 .L0 
     /tmp/ccPDxJLS.s:808    .text:000000000000042c .L0 
     /tmp/ccPDxJLS.s:840    .text:0000000000000468 .L0 
     /tmp/ccPDxJLS.s:763    .rodata.str1.8:0000000000000068 .LC11
     /tmp/ccPDxJLS.s:865    .text:00000000000004a8 .L0 
GAS LISTING /tmp/ccPDxJLS.s 			page 31


     /tmp/ccPDxJLS.s:873    .text:00000000000004b8 .L0 
     /tmp/ccPDxJLS.s:904    .text:00000000000004ec .L0 
     /tmp/ccPDxJLS.s:121    .text:00000000000000c0 .L7
     /tmp/ccPDxJLS.s:76     .text:0000000000000054 .L4
     /tmp/ccPDxJLS.s:55     .text:0000000000000030 .L5
     /tmp/ccPDxJLS.s:251    .text:0000000000000130 .L12
     /tmp/ccPDxJLS.s:221    .text:00000000000000e4 .L14
     /tmp/ccPDxJLS.s:423    .text:00000000000001a0 .L23
     /tmp/ccPDxJLS.s:415    .text:0000000000000194 .L28
     /tmp/ccPDxJLS.s:393    .text:0000000000000170 .L22
     /tmp/ccPDxJLS.s:665    .text:0000000000000338 .L39
     /tmp/ccPDxJLS.s:660    .text:0000000000000334 .L35
     /tmp/ccPDxJLS.s:601    .text:00000000000002a0 .L45
     /tmp/ccPDxJLS.s:608    .text:00000000000002b0 .L37
     /tmp/ccPDxJLS.s:673    .text:0000000000000348 .L42
     /tmp/ccPDxJLS.s:612    .text:00000000000002b4 .L38
     /tmp/ccPDxJLS.s:718    .text:00000000000003b0 .L43
     /tmp/ccPDxJLS.s:679    .text:000000000000034c .L34
     /tmp/ccPDxJLS.s:741    .text:00000000000003dc .L33
     /tmp/ccPDxJLS.s:724    .text:00000000000003b4 .L40
     /tmp/ccPDxJLS.s:830    .text:0000000000000454 .L48
     /tmp/ccPDxJLS.s:846    .text:0000000000000484 .L47
     /tmp/ccPDxJLS.s:826    .text:0000000000000450 .L53
     /tmp/ccPDxJLS.s:128    .rodata._ZN6timer118periodicActivationEv.str1.8:0000000000000000 .LC3
     /tmp/ccPDxJLS.s:152    .text._ZN6timer118periodicActivationEv:0000000000000018 .L0 
     /tmp/ccPDxJLS.s:168    .text._ZN6timer118periodicActivationEv:0000000000000044 .L0 
     /tmp/ccPDxJLS.s:291    .text._ZN6timer1D2Ev:0000000000000010 .L0 
     /tmp/ccPDxJLS.s:337    .text._ZN6timer1D0Ev:0000000000000018 .L0 
     /tmp/ccPDxJLS.s:804    .text:0000000000000424 .LEHB0
     /tmp/ccPDxJLS.s:770    .text:00000000000003f4 .LFB16
     /tmp/ccPDxJLS.s:807    .text:000000000000042c .LEHE0
     /tmp/ccPDxJLS.s:818    .text:0000000000000440 .LEHB1
     /tmp/ccPDxJLS.s:868    .text:00000000000004b8 .LEHE1
     /tmp/ccPDxJLS.s:896    .text:00000000000004e8 .L50
     /tmp/ccPDxJLS.s:912    .text:000000000000050c .LEHB2
     /tmp/ccPDxJLS.s:915    .text:0000000000000514 .LEHE2
     /tmp/ccPDxJLS.s:2493   .debug_abbrev:0000000000000000 .Ldebug_abbrev0
     /tmp/ccPDxJLS.s:3978   .debug_str:00000000000003ed .LASF72
     /tmp/ccPDxJLS.s:3840   .debug_str:0000000000000015 .LASF73
     /tmp/ccPDxJLS.s:3888   .debug_str:0000000000000186 .LASF74
     /tmp/ccPDxJLS.s:3808   .debug_ranges:0000000000000000 .Ldebug_ranges0
     /tmp/ccPDxJLS.s:3832   .debug_line:0000000000000000 .Ldebug_line0
     /tmp/ccPDxJLS.s:3992   .debug_str:000000000000051c .LASF0
     /tmp/ccPDxJLS.s:3940   .debug_str:00000000000002cb .LASF1
     /tmp/ccPDxJLS.s:3908   .debug_str:0000000000000221 .LASF2
     /tmp/ccPDxJLS.s:3926   .debug_str:0000000000000279 .LASF4
     /tmp/ccPDxJLS.s:3970   .debug_str:00000000000003a6 .LASF3
     /tmp/ccPDxJLS.s:3848   .debug_str:0000000000000045 .LASF5
     /tmp/ccPDxJLS.s:3876   .debug_str:000000000000012c .LASF6
     /tmp/ccPDxJLS.s:3946   .debug_str:000000000000030e .LASF7
     /tmp/ccPDxJLS.s:3924   .debug_str:0000000000000266 .LASF8
     /tmp/ccPDxJLS.s:3986   .debug_str:00000000000004df .LASF9
     /tmp/ccPDxJLS.s:3886   .debug_str:0000000000000178 .LASF10
     /tmp/ccPDxJLS.s:3952   .debug_str:0000000000000338 .LASF11
     /tmp/ccPDxJLS.s:3980   .debug_str:00000000000004b1 .LASF12
     /tmp/ccPDxJLS.s:3850   .debug_str:000000000000004c .LASF13
     /tmp/ccPDxJLS.s:3934   .debug_str:00000000000002a6 .LASF14
GAS LISTING /tmp/ccPDxJLS.s 			page 32


     /tmp/ccPDxJLS.s:3856   .debug_str:0000000000000075 .LASF15
     /tmp/ccPDxJLS.s:3964   .debug_str:0000000000000376 .LASF16
     /tmp/ccPDxJLS.s:3868   .debug_str:00000000000000e8 .LASF17
     /tmp/ccPDxJLS.s:3834   .debug_str:0000000000000000 .LASF18
     /tmp/ccPDxJLS.s:3892   .debug_str:00000000000001b9 .LASF19
     /tmp/ccPDxJLS.s:3984   .debug_str:00000000000004d8 .LASF26
     /tmp/ccPDxJLS.s:3884   .debug_str:0000000000000165 .LASF31
     /tmp/ccPDxJLS.s:3910   .debug_str:000000000000022f .LASF33
     /tmp/ccPDxJLS.s:3916   .debug_str:000000000000024c .LASF20
     /tmp/ccPDxJLS.s:3918   .debug_str:0000000000000251 .LASF21
     /tmp/ccPDxJLS.s:3922   .debug_str:0000000000000261 .LASF22
     /tmp/ccPDxJLS.s:3950   .debug_str:0000000000000330 .LASF75
     /tmp/ccPDxJLS.s:3836   .debug_str:0000000000000009 .LASF23
     /tmp/ccPDxJLS.s:3874   .debug_str:000000000000011b .LASF24
     /tmp/ccPDxJLS.s:3878   .debug_str:0000000000000133 .LASF25
     /tmp/ccPDxJLS.s:3914   .debug_str:0000000000000244 .LASF76
     /tmp/ccPDxJLS.s:3912   .debug_str:0000000000000235 .LASF40
     /tmp/ccPDxJLS.s:3900   .debug_str:00000000000001f1 .LASF28
     /tmp/ccPDxJLS.s:3990   .debug_str:00000000000004fb .LASF29
     /tmp/ccPDxJLS.s:3932   .debug_str:000000000000029e .LASF77
     /tmp/ccPDxJLS.s:3968   .debug_str:0000000000000397 .LASF78
     /tmp/ccPDxJLS.s:3948   .debug_str:0000000000000321 .LASF27
     /tmp/ccPDxJLS.s:3852   .debug_str:000000000000005c .LASF79
     /tmp/ccPDxJLS.s:3898   .debug_str:00000000000001d9 .LASF80
     /tmp/ccPDxJLS.s:3862   .debug_str:000000000000009e .LASF30
     /tmp/ccPDxJLS.s:3976   .debug_str:00000000000003cd .LASF32
     /tmp/ccPDxJLS.s:3846   .debug_str:000000000000003b .LASF34
     /tmp/ccPDxJLS.s:3958   .debug_str:000000000000035a .LASF35
     /tmp/ccPDxJLS.s:3954   .debug_str:0000000000000347 .LASF36
     /tmp/ccPDxJLS.s:3870   .debug_str:00000000000000fe .LASF37
     /tmp/ccPDxJLS.s:317    .text._ZN6timer1D0Ev:0000000000000000 .LFB20
     /tmp/ccPDxJLS.s:361    .text._ZN6timer1D0Ev:0000000000000050 .LFE20
     /tmp/ccPDxJLS.s:3471   .debug_loc:0000000000000000 .LLST9
     /tmp/ccPDxJLS.s:333    .text._ZN6timer1D0Ev:0000000000000018 .LBB32
     /tmp/ccPDxJLS.s:344    .text._ZN6timer1D0Ev:0000000000000030 .LBE32
     /tmp/ccPDxJLS.s:3489   .debug_loc:000000000000004c .LLST10
     /tmp/ccPDxJLS.s:334    .text._ZN6timer1D0Ev:0000000000000018 .LBB33
     /tmp/ccPDxJLS.s:343    .text._ZN6timer1D0Ev:0000000000000030 .LBE33
     /tmp/ccPDxJLS.s:341    .text._ZN6timer1D0Ev:0000000000000030 .LVL34
     /tmp/ccPDxJLS.s:348    .text._ZN6timer1D0Ev:000000000000003c .LVL35
     /tmp/ccPDxJLS.s:4000   .debug_str:0000000000000557 .LASF38
     /tmp/ccPDxJLS.s:274    .text._ZN6timer1D2Ev:0000000000000000 .LFB18
     /tmp/ccPDxJLS.s:308    .text._ZN6timer1D2Ev:0000000000000038 .LFE18
     /tmp/ccPDxJLS.s:3500   .debug_loc:0000000000000082 .LLST7
     /tmp/ccPDxJLS.s:287    .text._ZN6timer1D2Ev:0000000000000010 .LBB30
     /tmp/ccPDxJLS.s:297    .text._ZN6timer1D2Ev:0000000000000028 .LBE30
     /tmp/ccPDxJLS.s:3514   .debug_loc:00000000000000bb .LLST8
     /tmp/ccPDxJLS.s:295    .text._ZN6timer1D2Ev:0000000000000028 .LVL31
     /tmp/ccPDxJLS.s:3928   .debug_str:0000000000000280 .LASF39
     /tmp/ccPDxJLS.s:3920   .debug_str:0000000000000256 .LASF41
     /tmp/ccPDxJLS.s:920    .text:0000000000000514 .LFE16
     /tmp/ccPDxJLS.s:3998   .debug_str:0000000000000543 .LASF42
     /tmp/ccPDxJLS.s:3844   .debug_str:000000000000002f .LASF43
     /tmp/ccPDxJLS.s:3858   .debug_str:0000000000000081 .LASF44
     /tmp/ccPDxJLS.s:821    .text:0000000000000448 .LBB43
     /tmp/ccPDxJLS.s:847    .text:0000000000000484 .LBE43
     /tmp/ccPDxJLS.s:3528   .debug_loc:00000000000000f4 .LLST22
GAS LISTING /tmp/ccPDxJLS.s 			page 33


     /tmp/ccPDxJLS.s:844    .text:0000000000000480 .LVL86
     /tmp/ccPDxJLS.s:796    .text:0000000000000418 .LBB40
     /tmp/ccPDxJLS.s:814    .text:000000000000043c .LBE40
     /tmp/ccPDxJLS.s:3535   .debug_loc:0000000000000117 .LLST21
     /tmp/ccPDxJLS.s:806    .text:000000000000042c .LVL81
     /tmp/ccPDxJLS.s:869    .text:00000000000004b8 .LBB44
     /tmp/ccPDxJLS.s:882    .text:00000000000004d4 .LBE44
     /tmp/ccPDxJLS.s:3546   .debug_loc:000000000000014d .LLST23
     /tmp/ccPDxJLS.s:870    .text:00000000000004b8 .LBB45
     /tmp/ccPDxJLS.s:881    .text:00000000000004d4 .LBE45
     /tmp/ccPDxJLS.s:879    .text:00000000000004d4 .LVL92
     /tmp/ccPDxJLS.s:900    .text:00000000000004ec .LBB47
     /tmp/ccPDxJLS.s:918    .text:0000000000000514 .LBE47
     /tmp/ccPDxJLS.s:3561   .debug_loc:0000000000000196 .LLST25
     /tmp/ccPDxJLS.s:901    .text:00000000000004ec .LBB48
     /tmp/ccPDxJLS.s:917    .text:0000000000000514 .LBE48
     /tmp/ccPDxJLS.s:910    .text:0000000000000508 .LVL96
     /tmp/ccPDxJLS.s:820    .text:0000000000000448 .LVL83
     /tmp/ccPDxJLS.s:852    .text:0000000000000490 .LVL87
     /tmp/ccPDxJLS.s:857    .text:000000000000049c .LVL88
     /tmp/ccPDxJLS.s:862    .text:00000000000004a8 .LVL89
     /tmp/ccPDxJLS.s:867    .text:00000000000004b8 .LVL90
     /tmp/ccPDxJLS.s:914    .text:0000000000000514 .LVL97
     /tmp/ccPDxJLS.s:3938   .debug_str:00000000000002c6 .LASF45
     /tmp/ccPDxJLS.s:3906   .debug_str:0000000000000217 .LASF46
     /tmp/ccPDxJLS.s:577    .text:0000000000000280 .LFB15
     /tmp/ccPDxJLS.s:759    .text:00000000000003f4 .LFE15
     /tmp/ccPDxJLS.s:3996   .debug_str:000000000000053c .LASF47
     /tmp/ccPDxJLS.s:3864   .debug_str:00000000000000c8 .LASF48
     /tmp/ccPDxJLS.s:596    .text:0000000000000298 .LBB35
     /tmp/ccPDxJLS.s:675    .text:0000000000000348 .LBE35
     /tmp/ccPDxJLS.s:3576   .debug_loc:00000000000001df .LLST17
     /tmp/ccPDxJLS.s:3588   .debug_loc:0000000000000216 .LLST18
     /tmp/ccPDxJLS.s:607    .text:00000000000002b0 .LVL63
     /tmp/ccPDxJLS.s:650    .text:0000000000000318 .LVL65
     /tmp/ccPDxJLS.s:658    .text:0000000000000330 .LVL66
     /tmp/ccPDxJLS.s:676    .text:0000000000000348 .LBB38
     /tmp/ccPDxJLS.s:719    .text:00000000000003b0 .LBE38
     /tmp/ccPDxJLS.s:3595   .debug_loc:0000000000000239 .LLST19
     /tmp/ccPDxJLS.s:712    .text:00000000000003a8 .LVL69
     /tmp/ccPDxJLS.s:720    .text:00000000000003b0 .LBB39
     /tmp/ccPDxJLS.s:742    .text:00000000000003dc .LBE39
     /tmp/ccPDxJLS.s:3606   .debug_loc:000000000000026f .LLST20
     /tmp/ccPDxJLS.s:735    .text:00000000000003d4 .LVL73
     /tmp/ccPDxJLS.s:3904   .debug_str:0000000000000210 .LASF49
     /tmp/ccPDxJLS.s:3988   .debug_str:00000000000004ef .LASF50
     /tmp/ccPDxJLS.s:21     .text:0000000000000000 .LFB14
     /tmp/ccPDxJLS.s:124    .text:00000000000000c4 .LFE14
     /tmp/ccPDxJLS.s:3838   .debug_str:0000000000000010 .LASF54
     /tmp/ccPDxJLS.s:3617   .debug_loc:00000000000002a5 .LLST0
     /tmp/ccPDxJLS.s:3635   .debug_loc:00000000000002f1 .LLST1
     /tmp/ccPDxJLS.s:3647   .debug_loc:0000000000000328 .LLST2
     /tmp/ccPDxJLS.s:83     .text:0000000000000064 .LVL7
     /tmp/ccPDxJLS.s:90     .text:0000000000000078 .LVL8
     /tmp/ccPDxJLS.s:95     .text:0000000000000088 .LVL9
     /tmp/ccPDxJLS.s:102    .text:000000000000009c .LVL10
     /tmp/ccPDxJLS.s:107    .text:00000000000000ac .LVL11
GAS LISTING /tmp/ccPDxJLS.s 			page 34


     /tmp/ccPDxJLS.s:135    .text._ZN6timer118periodicActivationEv:0000000000000000 .LFB13
     /tmp/ccPDxJLS.s:184    .text._ZN6timer118periodicActivationEv:0000000000000068 .LFE13
     /tmp/ccPDxJLS.s:3663   .debug_loc:0000000000000372 .LLST3
     /tmp/ccPDxJLS.s:155    .text._ZN6timer118periodicActivationEv:0000000000000028 .LVL16
     /tmp/ccPDxJLS.s:165    .text._ZN6timer118periodicActivationEv:0000000000000044 .LVL17
     /tmp/ccPDxJLS.s:170    .text._ZN6timer118periodicActivationEv:0000000000000054 .LVL18
     /tmp/ccPDxJLS.s:3962   .debug_str:0000000000000367 .LASF51
     /tmp/ccPDxJLS.s:3982   .debug_str:00000000000004c0 .LASF52
     /tmp/ccPDxJLS.s:3930   .debug_str:0000000000000286 .LASF53
     /tmp/ccPDxJLS.s:197    .text:00000000000000c4 .LFB5
     /tmp/ccPDxJLS.s:267    .text:0000000000000148 .LFE5
     /tmp/ccPDxJLS.s:3681   .debug_loc:00000000000003be .LLST4
     /tmp/ccPDxJLS.s:3880   .debug_str:0000000000000145 .LASF55
     /tmp/ccPDxJLS.s:3695   .debug_loc:00000000000003f7 .LLST5
     /tmp/ccPDxJLS.s:3702   .debug_loc:000000000000041a .LLST6
     /tmp/ccPDxJLS.s:231    .text:00000000000000fc .LVL24
     /tmp/ccPDxJLS.s:238    .text:0000000000000110 .LVL25
     /tmp/ccPDxJLS.s:243    .text:0000000000000120 .LVL26
     /tmp/ccPDxJLS.s:248    .text:000000000000012c .LVL27
     /tmp/ccPDxJLS.s:3960   .debug_str:000000000000035f .LASF56
     /tmp/ccPDxJLS.s:514    .text:0000000000000214 .LFB4
     /tmp/ccPDxJLS.s:566    .text:0000000000000280 .LFE4
     /tmp/ccPDxJLS.s:3714   .debug_loc:0000000000000451 .LLST15
     /tmp/ccPDxJLS.s:3728   .debug_loc:000000000000048a .LLST16
     /tmp/ccPDxJLS.s:533    .text:0000000000000234 .LVL55
     /tmp/ccPDxJLS.s:540    .text:0000000000000248 .LVL57
     /tmp/ccPDxJLS.s:547    .text:000000000000025c .LVL58
     /tmp/ccPDxJLS.s:552    .text:000000000000026c .LVL59
     /tmp/ccPDxJLS.s:3842   .debug_str:0000000000000027 .LASF57
     /tmp/ccPDxJLS.s:448    .text:00000000000001a8 .LFB3
     /tmp/ccPDxJLS.s:500    .text:0000000000000214 .LFE3
     /tmp/ccPDxJLS.s:3735   .debug_loc:00000000000004ad .LLST13
     /tmp/ccPDxJLS.s:3749   .debug_loc:00000000000004e6 .LLST14
     /tmp/ccPDxJLS.s:467    .text:00000000000001c8 .LVL47
     /tmp/ccPDxJLS.s:474    .text:00000000000001dc .LVL49
     /tmp/ccPDxJLS.s:481    .text:00000000000001f0 .LVL50
     /tmp/ccPDxJLS.s:486    .text:0000000000000200 .LVL51
     /tmp/ccPDxJLS.s:3972   .debug_str:00000000000003b8 .LASF81
     /tmp/ccPDxJLS.s:3854   .debug_str:000000000000006c .LASF82
     /tmp/ccPDxJLS.s:368    .text:0000000000000148 .LFB2
     /tmp/ccPDxJLS.s:434    .text:00000000000001a8 .LFE2
     /tmp/ccPDxJLS.s:3756   .debug_loc:0000000000000509 .LLST12
     /tmp/ccPDxJLS.s:398    .text:000000000000017c .LVL39
     /tmp/ccPDxJLS.s:420    .text:000000000000019c .LVL42
     /tmp/ccPDxJLS.s:4002   .debug_str:0000000000000566 .LASF58
     /tmp/ccPDxJLS.s:3974   .debug_str:00000000000003bd .LASF59
     /tmp/ccPDxJLS.s:3944   .debug_str:00000000000002ed .LASF60
     /tmp/ccPDxJLS.s:3872   .debug_str:000000000000010d .LASF61
     /tmp/ccPDxJLS.s:3890   .debug_str:00000000000001a4 .LASF62
     /tmp/ccPDxJLS.s:3896   .debug_str:00000000000001cd .LASF63
     /tmp/ccPDxJLS.s:3994   .debug_str:0000000000000529 .LASF64
     /tmp/ccPDxJLS.s:3902   .debug_str:0000000000000204 .LASF65
     /tmp/ccPDxJLS.s:3894   .debug_str:00000000000001be .LASF83
     /tmp/ccPDxJLS.s:3866   .debug_str:00000000000000d0 .LASF84
     /tmp/ccPDxJLS.s:3942   .debug_str:00000000000002de .LASF66
     /tmp/ccPDxJLS.s:3956   .debug_str:0000000000000351 .LASF67
     /tmp/ccPDxJLS.s:3936   .debug_str:00000000000002b6 .LASF68
GAS LISTING /tmp/ccPDxJLS.s 			page 35


     /tmp/ccPDxJLS.s:3966   .debug_str:000000000000038c .LASF69
     /tmp/ccPDxJLS.s:3882   .debug_str:0000000000000150 .LASF70
     /tmp/ccPDxJLS.s:3860   .debug_str:000000000000008e .LASF71
     /tmp/ccPDxJLS.s:320    .text._ZN6timer1D0Ev:0000000000000000 .LVL32
     /tmp/ccPDxJLS.s:356    .text._ZN6timer1D0Ev:0000000000000048 .LVL36
     /tmp/ccPDxJLS.s:332    .text._ZN6timer1D0Ev:0000000000000018 .LVL33
     /tmp/ccPDxJLS.s:277    .text._ZN6timer1D2Ev:0000000000000000 .LVL29
     /tmp/ccPDxJLS.s:286    .text._ZN6timer1D2Ev:0000000000000010 .LVL30
     /tmp/ccPDxJLS.s:825    .text:0000000000000450 .LVL84
     /tmp/ccPDxJLS.s:892    .text:00000000000004e0 .LVL93
     /tmp/ccPDxJLS.s:795    .text:0000000000000418 .LVL79
     /tmp/ccPDxJLS.s:802    .text:0000000000000420 .LVL80
     /tmp/ccPDxJLS.s:811    .text:000000000000043c .LVL82
     /tmp/ccPDxJLS.s:877    .text:00000000000004cc .LVL91
     /tmp/ccPDxJLS.s:899    .text:00000000000004ec .LVL94
     /tmp/ccPDxJLS.s:908    .text:0000000000000500 .LVL95
     /tmp/ccPDxJLS.s:593    .text:0000000000000298 .LVL61
     /tmp/ccPDxJLS.s:600    .text:00000000000002a0 .LVL62
     /tmp/ccPDxJLS.s:754    .text:00000000000003ec .LVL77
     /tmp/ccPDxJLS.s:664    .text:0000000000000338 .LVL67
     /tmp/ccPDxJLS.s:680    .text:000000000000034c .LVL68
     /tmp/ccPDxJLS.s:715    .text:00000000000003ac .LVL70
     /tmp/ccPDxJLS.s:717    .text:00000000000003b0 .LVL71
     /tmp/ccPDxJLS.s:723    .text:00000000000003b4 .LVL72
     /tmp/ccPDxJLS.s:738    .text:00000000000003d8 .LVL74
     /tmp/ccPDxJLS.s:740    .text:00000000000003dc .LVL75
     /tmp/ccPDxJLS.s:751    .text:00000000000003e8 .LVL76
     /tmp/ccPDxJLS.s:25     .text:0000000000000000 .LVL0
     /tmp/ccPDxJLS.s:81     .text:000000000000005c .LVL6
     /tmp/ccPDxJLS.s:120    .text:00000000000000c0 .LVL13
     /tmp/ccPDxJLS.s:46     .text:0000000000000028 .LVL1
     /tmp/ccPDxJLS.s:54     .text:0000000000000030 .LVL2
     /tmp/ccPDxJLS.s:116    .text:00000000000000b8 .LVL12
     /tmp/ccPDxJLS.s:73     .text:0000000000000050 .LVL4
     /tmp/ccPDxJLS.s:75     .text:0000000000000054 .LVL5
     /tmp/ccPDxJLS.s:138    .text._ZN6timer118periodicActivationEv:0000000000000000 .LVL14
     /tmp/ccPDxJLS.s:153    .text._ZN6timer118periodicActivationEv:0000000000000020 .LVL15
     /tmp/ccPDxJLS.s:179    .text._ZN6timer118periodicActivationEv:0000000000000060 .LVL19
     /tmp/ccPDxJLS.s:200    .text:00000000000000c4 .LVL20
     /tmp/ccPDxJLS.s:220    .text:00000000000000e4 .LVL22
     /tmp/ccPDxJLS.s:216    .text:00000000000000e0 .LVL21
     /tmp/ccPDxJLS.s:262    .text:0000000000000140 .LVL28
     /tmp/ccPDxJLS.s:225    .text:00000000000000e8 .LVL23
     /tmp/ccPDxJLS.s:517    .text:0000000000000214 .LVL53
     /tmp/ccPDxJLS.s:531    .text:000000000000022c .LVL54
     /tmp/ccPDxJLS.s:535    .text:0000000000000238 .LVL56
     /tmp/ccPDxJLS.s:561    .text:0000000000000278 .LVL60
     /tmp/ccPDxJLS.s:451    .text:00000000000001a8 .LVL45
     /tmp/ccPDxJLS.s:465    .text:00000000000001c0 .LVL46
     /tmp/ccPDxJLS.s:469    .text:00000000000001cc .LVL48
     /tmp/ccPDxJLS.s:495    .text:000000000000020c .LVL52
     /tmp/ccPDxJLS.s:371    .text:0000000000000148 .LVL37
     /tmp/ccPDxJLS.s:392    .text:0000000000000170 .LVL38
     /tmp/ccPDxJLS.s:410    .text:000000000000018c .LVL40
     /tmp/ccPDxJLS.s:414    .text:0000000000000194 .LVL41
     /tmp/ccPDxJLS.s:422    .text:00000000000001a0 .LVL43
     /tmp/ccPDxJLS.s:430    .text:00000000000001a4 .LVL44
GAS LISTING /tmp/ccPDxJLS.s 			page 36


     /tmp/ccPDxJLS.s:977    .debug_info:0000000000000000 .Ldebug_info0
     /tmp/ccPDxJLS.s:5      .text:0000000000000000 .Ltext0
     /tmp/ccPDxJLS.s:972    .text:0000000000000514 .Letext0
     /tmp/ccPDxJLS.s:48     .text:0000000000000028 .LBB28
     /tmp/ccPDxJLS.s:51     .text:000000000000002c .LBE28
     /tmp/ccPDxJLS.s:56     .text:0000000000000030 .LBB29
     /tmp/ccPDxJLS.s:77     .text:0000000000000054 .LBE29
     /tmp/ccPDxJLS.s:602    .text:00000000000002a0 .LBB36
     /tmp/ccPDxJLS.s:661    .text:0000000000000334 .LBE36
     /tmp/ccPDxJLS.s:669    .text:0000000000000340 .LBB37
     /tmp/ccPDxJLS.s:674    .text:0000000000000348 .LBE37
     /tmp/ccPDxJLS.s:923    .gcc_except_table:0000000000000000 .LLSDA16
                           .group:0000000000000000 _ZN6timer1D5Ev

UNDEFINED SYMBOLS
_Z11printStringPKc
_Z8printIntiii
_Z10time_sleepm
_ZTV14PeriodicThread
_ZN6ThreadD2Ev
_ZdlPv
_Z15thread_dispatchv
_Z13thread_createPP3TCBPFvPvES2_
_Z11thread_joinP3TCB
_ZN14PeriodicThreadC2Em
_ZN6Thread5startEv
_ZN14PeriodicThread9terminateEv
_Unwind_Resume
__gxx_personality_v0
_ZN14PeriodicThread3runEv
