GAS LISTING /tmp/ccADpnGq.s 			page 1


   1              		.file	"testFunctions.cpp"
   2              		.option pic
   3              		.option norelax
   4              		.text
   5              	.Ltext0:
   6              		.align	2
   7              		.globl	_Z13emptyFunctionPv
   9              	_Z13emptyFunctionPv:
  10              	.LFB54:
  11              		.file 1 "visak/testFunctions.cpp"
   1:visak/testFunctions.cpp **** //
   2:visak/testFunctions.cpp **** // Created by os on 5/29/23.
   3:visak/testFunctions.cpp **** //
   4:visak/testFunctions.cpp **** #include "../lib/hw.h"
   5:visak/testFunctions.cpp **** #include "../h/Riscv.hpp"
   6:visak/testFunctions.cpp **** #include "../h/KMemory.hpp"
   7:visak/testFunctions.cpp **** #include "../h/KConsole.hpp"
   8:visak/testFunctions.cpp **** #include "../h/TCB.hpp"
   9:visak/testFunctions.cpp **** #include "../h/syscall_c.hpp"
  10:visak/testFunctions.cpp **** #include "../h/syscall_cpp.hpp"
  11:visak/testFunctions.cpp **** 
  12:visak/testFunctions.cpp **** #include "../test/printing.hpp"
  13:visak/testFunctions.cpp **** 
  14:visak/testFunctions.cpp **** extern "C" void interruptHandler();
  15:visak/testFunctions.cpp **** 
  16:visak/testFunctions.cpp **** void userMain();
  17:visak/testFunctions.cpp **** 
  18:visak/testFunctions.cpp **** void idle(void*);
  19:visak/testFunctions.cpp **** 
  20:visak/testFunctions.cpp **** void kernelConsumerFunction(void*);
  21:visak/testFunctions.cpp **** 
  22:visak/testFunctions.cpp **** 
  23:visak/testFunctions.cpp **** void emptyFunction(void*) {}
  12              		.loc 1 23 27
  13              		.cfi_startproc
  14 0000 130101FF 		addi	sp,sp,-16
  15              		.cfi_def_cfa_offset 16
  16 0004 23348100 		sd	s0,8(sp)
  17              		.cfi_offset 8, -8
  18 0008 13040101 		addi	s0,sp,16
  19              		.cfi_def_cfa 8, 0
  20              		.loc 1 23 28 is_stmt 0
  21 000c 03348100 		ld	s0,8(sp)
  22              		.cfi_restore 8
  23              		.cfi_def_cfa 2, 16
  24 0010 13010101 		addi	sp,sp,16
  25              		.cfi_def_cfa_offset 0
  26 0014 67800000 		jr	ra
  27              		.cfi_endproc
  28              	.LFE54:
  30              		.align	2
  31              		.globl	_Z5nit1fPv
  33              	_Z5nit1fPv:
  34              	.LFB55:
  24:visak/testFunctions.cpp **** 
  25:visak/testFunctions.cpp **** void nit1f(void*) {
  35              		.loc 1 25 19 is_stmt 1
GAS LISTING /tmp/ccADpnGq.s 			page 2


  36              		.cfi_startproc
  37 0018 130101FE 		addi	sp,sp,-32
  38              		.cfi_def_cfa_offset 32
  39 001c 233C1100 		sd	ra,24(sp)
  40 0020 23388100 		sd	s0,16(sp)
  41              		.cfi_offset 1, -8
  42              		.cfi_offset 8, -16
  43 0024 13040102 		addi	s0,sp,32
  44              		.cfi_def_cfa 8, 0
  45              	.L4:
  26:visak/testFunctions.cpp ****     while (true) {
  46              		.loc 1 26 5
  47              	.LBB10:
  27:visak/testFunctions.cpp ****         thread_t handle;
  48              		.loc 1 27 9
  28:visak/testFunctions.cpp ****         thread_create(&handle, emptyFunction, nullptr);
  49              		.loc 1 28 9
  50              		.loc 1 28 22 is_stmt 0
  51 0028 13060000 		li	a2,0
  52 002c 97050000 		lla	a1,_Z13emptyFunctionPv
  52      93850500 
  53 0034 130584FE 		addi	a0,s0,-24
  54 0038 97000000 		call	_Z13thread_createPP3TCBPFvPvES2_@plt
  54      E7800000 
  55              	.LVL0:
  56              	.LBE10:
  26:visak/testFunctions.cpp ****     while (true) {
  57              		.loc 1 26 5 is_stmt 1
  58 0040 6FF09FFE 		j	.L4
  59              		.cfi_endproc
  60              	.LFE55:
  62              		.section	.rodata.str1.8,"aMS",@progbits,1
  63              		.align	3
  64              	.LC0:
  65 0000 0A476F74 		.string	"\nGotova nit 2\n"
  65      6F766120 
  65      6E697420 
  65      320A00
  66              		.text
  67              		.align	2
  68              		.globl	_Z5nit2fPv
  70              	_Z5nit2fPv:
  71              	.LFB56:
  29:visak/testFunctions.cpp ****     }
  30:visak/testFunctions.cpp **** 
  31:visak/testFunctions.cpp ****     printString("\nGotova nit 1\n");
  32:visak/testFunctions.cpp **** }
  33:visak/testFunctions.cpp **** 
  34:visak/testFunctions.cpp **** void nit2f(void* arg2) {
  72              		.loc 1 34 24
  73              		.cfi_startproc
  74              	.LVL1:
  75 0044 130101FF 		addi	sp,sp,-16
  76              		.cfi_def_cfa_offset 16
  77 0048 23341100 		sd	ra,8(sp)
  78 004c 23308100 		sd	s0,0(sp)
  79              		.cfi_offset 1, -8
GAS LISTING /tmp/ccADpnGq.s 			page 3


  80              		.cfi_offset 8, -16
  81 0050 13040101 		addi	s0,sp,16
  82              		.cfi_def_cfa 8, 0
  35:visak/testFunctions.cpp ****     printString("\nGotova nit 2\n");
  83              		.loc 1 35 5
  84              		.loc 1 35 16 is_stmt 0
  85 0054 17050000 		lla	a0,.LC0
  85      13050500 
  86              	.LVL2:
  87 005c 97000000 		call	_Z11printStringPKc@plt
  87      E7800000 
  88              	.LVL3:
  36:visak/testFunctions.cpp **** }
  89              		.loc 1 36 1
  90 0064 83308100 		ld	ra,8(sp)
  91              		.cfi_restore 1
  92 0068 03340100 		ld	s0,0(sp)
  93              		.cfi_restore 8
  94              		.cfi_def_cfa 2, 16
  95 006c 13010101 		addi	sp,sp,16
  96              		.cfi_def_cfa_offset 0
  97 0070 67800000 		jr	ra
  98              		.cfi_endproc
  99              	.LFE56:
 101              		.section	.rodata.str1.8
 102 000f 00       		.align	3
 103              	.LC1:
 104 0010 0A476F74 		.string	"\nGotova nit3\n"
 104      6F766120 
 104      6E697433 
 104      0A00
 105              		.text
 106              		.align	2
 107              		.globl	_Z5nit3fPv
 109              	_Z5nit3fPv:
 110              	.LFB57:
  37:visak/testFunctions.cpp **** 
  38:visak/testFunctions.cpp **** 
  39:visak/testFunctions.cpp **** void nit3f(void*) {
 111              		.loc 1 39 19 is_stmt 1
 112              		.cfi_startproc
 113 0074 130101FE 		addi	sp,sp,-32
 114              		.cfi_def_cfa_offset 32
 115 0078 233C1100 		sd	ra,24(sp)
 116 007c 23388100 		sd	s0,16(sp)
 117 0080 23349100 		sd	s1,8(sp)
 118              		.cfi_offset 1, -8
 119              		.cfi_offset 8, -16
 120              		.cfi_offset 9, -24
 121 0084 13040102 		addi	s0,sp,32
 122              		.cfi_def_cfa 8, 0
 123 0088 6F008001 		j	.L10
 124              	.LVL4:
 125              	.L13:
  40:visak/testFunctions.cpp ****     char slovo;
  41:visak/testFunctions.cpp ****     do {
  42:visak/testFunctions.cpp ****         slovo = getc();
GAS LISTING /tmp/ccADpnGq.s 			page 4


  43:visak/testFunctions.cpp ****         putc(slovo);
  44:visak/testFunctions.cpp ****         if (slovo == '\r') putc('\n');
 126              		.loc 1 44 28 discriminator 1
 127              		.loc 1 44 32 is_stmt 0 discriminator 1
 128 008c 1305A000 		li	a0,10
 129 0090 97000000 		call	_Z4putcc@plt
 129      E7800000 
 130              	.LVL5:
 131              	.L9:
  45:visak/testFunctions.cpp ****     } while (slovo != '0');
 132              		.loc 1 45 20 is_stmt 1
 133 0098 93070003 		li	a5,48
 134 009c 6382F402 		beq	s1,a5,.L12
 135              	.LVL6:
 136              	.L10:
  40:visak/testFunctions.cpp ****     char slovo;
 137              		.loc 1 40 5
  41:visak/testFunctions.cpp ****         slovo = getc();
 138              		.loc 1 41 5
  42:visak/testFunctions.cpp ****         putc(slovo);
 139              		.loc 1 42 9
  42:visak/testFunctions.cpp ****         putc(slovo);
 140              		.loc 1 42 21 is_stmt 0
 141 00a0 97000000 		call	_Z4getcv@plt
 141      E7800000 
 142              	.LVL7:
 143 00a8 93040500 		mv	s1,a0
 144              	.LVL8:
  43:visak/testFunctions.cpp ****         if (slovo == '\r') putc('\n');
 145              		.loc 1 43 9 is_stmt 1
  43:visak/testFunctions.cpp ****         if (slovo == '\r') putc('\n');
 146              		.loc 1 43 13 is_stmt 0
 147 00ac 97000000 		call	_Z4putcc@plt
 147      E7800000 
 148              	.LVL9:
  44:visak/testFunctions.cpp ****     } while (slovo != '0');
 149              		.loc 1 44 9 is_stmt 1
 150 00b4 9307D000 		li	a5,13
 151 00b8 E390F4FE 		bne	s1,a5,.L9
 152 00bc 6FF01FFD 		j	.L13
 153              	.L12:
  46:visak/testFunctions.cpp **** 
  47:visak/testFunctions.cpp ****     printString("\nGotova nit3\n");
 154              		.loc 1 47 5
 155              		.loc 1 47 16 is_stmt 0
 156 00c0 17050000 		lla	a0,.LC1
 156      13050500 
 157 00c8 97000000 		call	_Z11printStringPKc@plt
 157      E7800000 
 158              	.LVL10:
  48:visak/testFunctions.cpp **** }
 159              		.loc 1 48 1
 160 00d0 83308101 		ld	ra,24(sp)
 161              		.cfi_restore 1
 162 00d4 03340101 		ld	s0,16(sp)
 163              		.cfi_restore 8
 164              		.cfi_def_cfa 2, 32
GAS LISTING /tmp/ccADpnGq.s 			page 5


 165 00d8 83348100 		ld	s1,8(sp)
 166              		.cfi_restore 9
 167              	.LVL11:
 168 00dc 13010102 		addi	sp,sp,32
 169              		.cfi_def_cfa_offset 0
 170 00e0 67800000 		jr	ra
 171              		.cfi_endproc
 172              	.LFE57:
 174              		.section	.rodata.str1.8
 175 001e 0000     		.align	3
 176              	.LC2:
 177 0020 0A476F74 		.string	"\nGotove user niti\n"
 177      6F766520 
 177      75736572 
 177      206E6974 
 177      690A00
 178 0033 00000000 		.align	3
 178      00
 179              	.LC3:
 180 0038 0A536164 		.string	"\nSad cu da izadjem\n"
 180      20637520 
 180      64612069 
 180      7A61646A 
 180      656D0A00 
 181              		.text
 182              		.align	2
 183              		.globl	_Z5main5v
 185              	_Z5main5v:
 186              	.LFB58:
  49:visak/testFunctions.cpp **** 
  50:visak/testFunctions.cpp **** 
  51:visak/testFunctions.cpp **** int main5() {
 187              		.loc 1 51 13 is_stmt 1
 188              		.cfi_startproc
 189 00e4 130101FB 		addi	sp,sp,-80
 190              		.cfi_def_cfa_offset 80
 191 00e8 23341104 		sd	ra,72(sp)
 192 00ec 23308104 		sd	s0,64(sp)
 193 00f0 233C9102 		sd	s1,56(sp)
 194              		.cfi_offset 1, -8
 195              		.cfi_offset 8, -16
 196              		.cfi_offset 9, -24
 197 00f4 13040105 		addi	s0,sp,80
 198              		.cfi_def_cfa 8, 0
  52:visak/testFunctions.cpp **** //postavi adresu prekidne rutine u stvec
  53:visak/testFunctions.cpp ****     __asm__ volatile("csrw stvec, %[handler]": :[handler] "r"(&interruptHandler));
 199              		.loc 1 53 5
 200              		.loc 1 53 82 is_stmt 0
 201 00f8 97070000 		la	a5,interruptHandler
 201      83B70700 
 202              	#APP
 203              	# 53 "visak/testFunctions.cpp" 1
  54              	
  55:visak/testFunctions.cpp ****     //inicijalizacija alokatora memorije
  56:visak/testFunctions.cpp ****     KMemory::initializeMemory();
 204              		csrw stvec, a5
 205              	# 0 "" 2
GAS LISTING /tmp/ccADpnGq.s 			page 6


 206              		.loc 1 56 5 is_stmt 1
 207              		.loc 1 56 30 is_stmt 0
 208              	#NO_APP
 209 0104 97000000 		call	_ZN7KMemory16initializeMemoryEv@plt
 209      E7800000 
 210              	.LVL12:
  57:visak/testFunctions.cpp **** 
  58:visak/testFunctions.cpp ****     //inicijalizacija komunikacije sa konzolom
  59:visak/testFunctions.cpp ****     KConsole::initKConsole();
 211              		.loc 1 59 5 is_stmt 1
 212              		.loc 1 59 27 is_stmt 0
 213 010c 97000000 		call	_ZN8KConsole12initKConsoleEv@plt
 213      E7800000 
 214              	.LVL13:
  60:visak/testFunctions.cpp **** 
  61:visak/testFunctions.cpp ****     //testiranje kreiranja niti
  62:visak/testFunctions.cpp ****     thread_t glavnaNit = nullptr;
 215              		.loc 1 62 5 is_stmt 1
 216              		.loc 1 62 14 is_stmt 0
 217 0114 233C04FC 		sd	zero,-40(s0)
  63:visak/testFunctions.cpp ****     thread_t nit1 = nullptr;
 218              		.loc 1 63 5 is_stmt 1
 219              		.loc 1 63 14 is_stmt 0
 220 0118 233804FC 		sd	zero,-48(s0)
  64:visak/testFunctions.cpp ****     thread_t nit2 = nullptr;
 221              		.loc 1 64 5 is_stmt 1
 222              		.loc 1 64 14 is_stmt 0
 223 011c 233404FC 		sd	zero,-56(s0)
  65:visak/testFunctions.cpp ****     thread_t nit3 = nullptr;
 224              		.loc 1 65 5 is_stmt 1
 225              		.loc 1 65 14 is_stmt 0
 226 0120 233004FC 		sd	zero,-64(s0)
  66:visak/testFunctions.cpp ****     thread_t idleNit = nullptr;
 227              		.loc 1 66 5 is_stmt 1
 228              		.loc 1 66 14 is_stmt 0
 229 0124 233C04FA 		sd	zero,-72(s0)
  67:visak/testFunctions.cpp ****     thread_t kernelConsumerThread = nullptr;
 230              		.loc 1 67 5 is_stmt 1
 231              		.loc 1 67 14 is_stmt 0
 232 0128 233804FA 		sd	zero,-80(s0)
  68:visak/testFunctions.cpp ****     thread_create(&glavnaNit, (TCB::Body)main, nullptr);
 233              		.loc 1 68 5 is_stmt 1
 234              		.loc 1 68 18 is_stmt 0
 235 012c 13060000 		li	a2,0
 236 0130 97050000 		la	a1,main
 236      83B50500 
 237 0138 130584FD 		addi	a0,s0,-40
 238 013c 97000000 		call	_Z13thread_createPP3TCBPFvPvES2_@plt
 238      E7800000 
 239              	.LVL14:
  69:visak/testFunctions.cpp ****     TCB::setRunning(glavnaNit);
 240              		.loc 1 69 5 is_stmt 1
 241              	.LBB11:
 242              	.LBB12:
 243              		.file 2 "visak/../h/TCB.hpp"
   1:visak/../h/TCB.hpp **** //
   2:visak/../h/TCB.hpp **** // Created by os on 5/23/23.
GAS LISTING /tmp/ccADpnGq.s 			page 7


   3:visak/../h/TCB.hpp **** //
   4:visak/../h/TCB.hpp **** 
   5:visak/../h/TCB.hpp **** #ifndef PROJEKAT2023_TCB_HPP
   6:visak/../h/TCB.hpp **** #define PROJEKAT2023_TCB_HPP
   7:visak/../h/TCB.hpp **** 
   8:visak/../h/TCB.hpp **** #include "../lib/hw.h"
   9:visak/../h/TCB.hpp **** #include "../h/ThreadQueue.hpp"
  10:visak/../h/TCB.hpp **** 
  11:visak/../h/TCB.hpp **** int main();
  12:visak/../h/TCB.hpp **** 
  13:visak/../h/TCB.hpp **** class TCB {
  14:visak/../h/TCB.hpp **** public:
  15:visak/../h/TCB.hpp ****     friend class Scheduler;
  16:visak/../h/TCB.hpp **** 
  17:visak/../h/TCB.hpp ****     using Body = void (*)(void*);
  18:visak/../h/TCB.hpp **** 
  19:visak/../h/TCB.hpp ****     enum ThreadStatus {
  20:visak/../h/TCB.hpp ****         CREATED, ACTIVE, BLOCKED, JOINING, SLEEPING, FINISHED
  21:visak/../h/TCB.hpp ****     };
  22:visak/../h/TCB.hpp **** 
  23:visak/../h/TCB.hpp ****     static TCB* createThread(Body function, void* args, uint64* stack);
  24:visak/../h/TCB.hpp **** 
  25:visak/../h/TCB.hpp ****     void setStatus(ThreadStatus stat) { this->status = stat; }
  26:visak/../h/TCB.hpp **** 
  27:visak/../h/TCB.hpp ****     ThreadStatus getStatus() { return this->status; }
  28:visak/../h/TCB.hpp **** 
  29:visak/../h/TCB.hpp ****     uint64 getTimeSlice() { return timeSlice; }
  30:visak/../h/TCB.hpp **** 
  31:visak/../h/TCB.hpp ****     Body getBody() { return threadFunction; }
  32:visak/../h/TCB.hpp **** 
  33:visak/../h/TCB.hpp ****     ThreadQueue* getListOfJoiningThreads() { return &waitingToJoin; }
  34:visak/../h/TCB.hpp **** 
  35:visak/../h/TCB.hpp ****     void setMySemaphore(KSem* sem) { mySemaphore = sem; }
  36:visak/../h/TCB.hpp **** 
  37:visak/../h/TCB.hpp ****     void setJoiningWithTCB(TCB* tcb) { joiningWithTCB = tcb; }
  38:visak/../h/TCB.hpp **** 
  39:visak/../h/TCB.hpp ****     static TCB* getRunning() { return running; }
  40:visak/../h/TCB.hpp **** 
  41:visak/../h/TCB.hpp ****     static void setRunning(TCB* newRunning) { running = newRunning; }
 244              		.loc 2 41 47
 245              		.loc 2 41 55 is_stmt 0
 246 0144 033784FD 		ld	a4,-40(s0)
 247 0148 97070000 		la	a5,_ZN3TCB7runningE
 247      83B70700 
 248 0150 23B0E700 		sd	a4,0(a5)
 249              	.LVL15:
 250              	.LBE12:
 251              	.LBE11:
  70:visak/testFunctions.cpp ****     thread_create(&idleNit, idle, nullptr);
 252              		.loc 1 70 5 is_stmt 1
 253              		.loc 1 70 18 is_stmt 0
 254 0154 13060000 		li	a2,0
 255 0158 97050000 		la	a1,_Z4idlePv
 255      83B50500 
 256 0160 130584FB 		addi	a0,s0,-72
 257 0164 97000000 		call	_Z13thread_createPP3TCBPFvPvES2_@plt
 257      E7800000 
GAS LISTING /tmp/ccADpnGq.s 			page 8


 258              	.LVL16:
  71:visak/testFunctions.cpp ****     thread_create(&kernelConsumerThread, kernelConsumerFunction, nullptr);
 259              		.loc 1 71 5 is_stmt 1
 260              		.loc 1 71 18 is_stmt 0
 261 016c 13060000 		li	a2,0
 262 0170 97050000 		la	a1,_Z22kernelConsumerFunctionPv
 262      83B50500 
 263 0178 130504FB 		addi	a0,s0,-80
 264 017c 97000000 		call	_Z13thread_createPP3TCBPFvPvES2_@plt
 264      E7800000 
 265              	.LVL17:
  72:visak/testFunctions.cpp **** 
  73:visak/testFunctions.cpp **** 
  74:visak/testFunctions.cpp ****     thread_create(&nit1, nit1f, nullptr);
 266              		.loc 1 74 5 is_stmt 1
 267              		.loc 1 74 18 is_stmt 0
 268 0184 13060000 		li	a2,0
 269 0188 97050000 		lla	a1,_Z5nit1fPv
 269      93850500 
 270 0190 130504FD 		addi	a0,s0,-48
 271 0194 97000000 		call	_Z13thread_createPP3TCBPFvPvES2_@plt
 271      E7800000 
 272              	.LVL18:
  75:visak/testFunctions.cpp ****     thread_create(&nit2, nit2f, nullptr);
 273              		.loc 1 75 5 is_stmt 1
 274              		.loc 1 75 18 is_stmt 0
 275 019c 13060000 		li	a2,0
 276 01a0 97050000 		lla	a1,_Z5nit2fPv
 276      93850500 
 277 01a8 130584FC 		addi	a0,s0,-56
 278 01ac 97000000 		call	_Z13thread_createPP3TCBPFvPvES2_@plt
 278      E7800000 
 279              	.LVL19:
  76:visak/testFunctions.cpp ****     thread_create(&nit3, nit3f, nullptr);
 280              		.loc 1 76 5 is_stmt 1
 281              		.loc 1 76 18 is_stmt 0
 282 01b4 13060000 		li	a2,0
 283 01b8 97050000 		lla	a1,_Z5nit3fPv
 283      93850500 
 284 01c0 130504FC 		addi	a0,s0,-64
 285 01c4 97000000 		call	_Z13thread_createPP3TCBPFvPvES2_@plt
 285      E7800000 
 286              	.LVL20:
  77:visak/testFunctions.cpp **** 
  78:visak/testFunctions.cpp ****     //omoguci prekide
  79:visak/testFunctions.cpp ****     Riscv::ms_sstatus(Riscv::SSTATUS_SIE);
 287              		.loc 1 79 5 is_stmt 1
 288              	.LBB13:
 289              	.LBB14:
 290              		.file 3 "visak/../h/Riscv.hpp"
   1:visak/../h/Riscv.hpp **** //
   2:visak/../h/Riscv.hpp **** // Created by os on 5/17/23.
   3:visak/../h/Riscv.hpp **** //
   4:visak/../h/Riscv.hpp **** 
   5:visak/../h/Riscv.hpp **** #ifndef PROJEKAT2023_RISCV_HPP
   6:visak/../h/Riscv.hpp **** #define PROJEKAT2023_RISCV_HPP
   7:visak/../h/Riscv.hpp **** 
GAS LISTING /tmp/ccADpnGq.s 			page 9


   8:visak/../h/Riscv.hpp **** #include "../lib/hw.h"
   9:visak/../h/Riscv.hpp **** 
  10:visak/../h/Riscv.hpp **** class Riscv {
  11:visak/../h/Riscv.hpp **** public:
  12:visak/../h/Riscv.hpp **** 
  13:visak/../h/Riscv.hpp **** 	static void returnFromInterrupt();
  14:visak/../h/Riscv.hpp **** 
  15:visak/../h/Riscv.hpp **** 	//read scause
  16:visak/../h/Riscv.hpp **** 	static uint64 r_scause();
  17:visak/../h/Riscv.hpp **** 
  18:visak/../h/Riscv.hpp **** 	//write scause
  19:visak/../h/Riscv.hpp **** 	static void w_scause(uint64 scause);
  20:visak/../h/Riscv.hpp **** 
  21:visak/../h/Riscv.hpp **** 	//read sepc
  22:visak/../h/Riscv.hpp **** 	static uint64 r_sepc();
  23:visak/../h/Riscv.hpp **** 
  24:visak/../h/Riscv.hpp **** 	//write sepc
  25:visak/../h/Riscv.hpp **** 	static void w_sepc(uint64 sepc);
  26:visak/../h/Riscv.hpp **** 
  27:visak/../h/Riscv.hpp **** 	//read stvec
  28:visak/../h/Riscv.hpp **** 	static uint64 r_stvec();
  29:visak/../h/Riscv.hpp **** 
  30:visak/../h/Riscv.hpp **** 	//write stvec
  31:visak/../h/Riscv.hpp **** 	static void w_stvec(uint64 stvec);
  32:visak/../h/Riscv.hpp **** 
  33:visak/../h/Riscv.hpp **** 	enum BitMaskSip {
  34:visak/../h/Riscv.hpp **** 		//postoji zahtev za softverski prekid
  35:visak/../h/Riscv.hpp **** 		SIP_SSIP = (1 << 1),
  36:visak/../h/Riscv.hpp **** 		//postoji prekid od tajmera
  37:visak/../h/Riscv.hpp **** 		SIP_STIP = (1 << 5),
  38:visak/../h/Riscv.hpp **** 		//postoji zahtev za spoljasnji hardverski prekid
  39:visak/../h/Riscv.hpp **** 		SIP_SEIP = (1 << 9)
  40:visak/../h/Riscv.hpp **** 	};
  41:visak/../h/Riscv.hpp **** 
  42:visak/../h/Riscv.hpp **** 	//mask set sip
  43:visak/../h/Riscv.hpp **** 	static void ms_sip(uint64 mask);
  44:visak/../h/Riscv.hpp **** 
  45:visak/../h/Riscv.hpp **** 	//mask clear sip
  46:visak/../h/Riscv.hpp **** 	static void mc_sip(uint64 mask);
  47:visak/../h/Riscv.hpp **** 
  48:visak/../h/Riscv.hpp **** 	//read sip
  49:visak/../h/Riscv.hpp **** 	static uint64 r_sip();
  50:visak/../h/Riscv.hpp **** 
  51:visak/../h/Riscv.hpp **** 	//write sip
  52:visak/../h/Riscv.hpp **** 	static void w_sip(uint64 sip);
  53:visak/../h/Riscv.hpp **** 
  54:visak/../h/Riscv.hpp **** 	//kada se pozove sret, SIE dobija vrednost SPIE, SPIE se postavlja na 1,
  55:visak/../h/Riscv.hpp **** 	//rezim se postavlja na osnovu SPP bita, SPP se postavlja na 0
  56:visak/../h/Riscv.hpp **** 	enum BitMaskSstatus {
  57:visak/../h/Riscv.hpp **** 		//1 - dozvoljeni prekidi; 0- nedozvoljeni prekidi; igonrise se u korisnickom rezimu
  58:visak/../h/Riscv.hpp **** 		SSTATUS_SIE = (1 << 1),
  59:visak/../h/Riscv.hpp **** 		//prethodna vrednost bita SIE
  60:visak/../h/Riscv.hpp **** 		SSTATUS_SPIE = (1 << 5),
  61:visak/../h/Riscv.hpp **** 		//iz kog rezima se desio skok; 0 - iz korisnickog; 1 - iz sistemskog
  62:visak/../h/Riscv.hpp **** 		SSTATUS_SPP = (1 << 8)
  63:visak/../h/Riscv.hpp **** 	};
  64:visak/../h/Riscv.hpp **** 
GAS LISTING /tmp/ccADpnGq.s 			page 10


  65:visak/../h/Riscv.hpp **** 	//mask set sstatus
  66:visak/../h/Riscv.hpp **** 	static void ms_sstatus(uint64 mask);
  67:visak/../h/Riscv.hpp **** 
  68:visak/../h/Riscv.hpp **** 	//mask clear sstatus
  69:visak/../h/Riscv.hpp **** 	static void mc_sstatus(uint64 mask);
  70:visak/../h/Riscv.hpp **** 
  71:visak/../h/Riscv.hpp **** 	//read sstatus
  72:visak/../h/Riscv.hpp **** 	static uint64 r_sstatus();
  73:visak/../h/Riscv.hpp **** 
  74:visak/../h/Riscv.hpp **** 	//write sstatus
  75:visak/../h/Riscv.hpp **** 	static void w_sstatus(uint64 sstatus);
  76:visak/../h/Riscv.hpp **** 
  77:visak/../h/Riscv.hpp **** };
  78:visak/../h/Riscv.hpp **** 
  79:visak/../h/Riscv.hpp **** inline uint64 Riscv::r_scause() {
  80:visak/../h/Riscv.hpp **** 	uint64 volatile scause;
  81:visak/../h/Riscv.hpp **** 	__asm__ volatile("csrr %[scause], scause": [scause] "=r"(scause));
  82:visak/../h/Riscv.hpp **** 	return scause;
  83:visak/../h/Riscv.hpp **** }
  84:visak/../h/Riscv.hpp **** 
  85:visak/../h/Riscv.hpp **** inline void Riscv::w_scause(uint64 scause) {
  86:visak/../h/Riscv.hpp **** 	__asm__ volatile("csrw scause, %[scause]": :[scause] "r"(scause));
  87:visak/../h/Riscv.hpp **** }
  88:visak/../h/Riscv.hpp **** 
  89:visak/../h/Riscv.hpp **** inline uint64 Riscv::r_sepc() {
  90:visak/../h/Riscv.hpp **** 	uint64 volatile sepc;
  91:visak/../h/Riscv.hpp **** 	__asm__ volatile("csrr %[sepc], sepc": [sepc] "=r"(sepc));
  92:visak/../h/Riscv.hpp **** 	return sepc;
  93:visak/../h/Riscv.hpp **** }
  94:visak/../h/Riscv.hpp **** 
  95:visak/../h/Riscv.hpp **** inline void Riscv::w_sepc(uint64 sepc) {
  96:visak/../h/Riscv.hpp **** 	__asm__ volatile("csrw sepc, %[sepc]": :[sepc] "r"(sepc));
  97:visak/../h/Riscv.hpp **** }
  98:visak/../h/Riscv.hpp **** 
  99:visak/../h/Riscv.hpp **** inline uint64 Riscv::r_stvec() {
 100:visak/../h/Riscv.hpp **** 	uint64 volatile stvec;
 101:visak/../h/Riscv.hpp **** 	__asm__ volatile("csrr %[stvec], stvec": [stvec] "=r"(stvec));
 102:visak/../h/Riscv.hpp **** 	return stvec;
 103:visak/../h/Riscv.hpp **** }
 104:visak/../h/Riscv.hpp **** 
 105:visak/../h/Riscv.hpp **** inline void Riscv::w_stvec(uint64 stvec) {
 106:visak/../h/Riscv.hpp **** 	__asm__ volatile("csrw stvec, %[stvec]": :[stvec] "r"(stvec));
 107:visak/../h/Riscv.hpp **** }
 108:visak/../h/Riscv.hpp **** 
 109:visak/../h/Riscv.hpp **** inline void Riscv::ms_sip(uint64 mask) {
 110:visak/../h/Riscv.hpp **** 	__asm__ volatile("csrs sip, %[mask]": :[mask] "r"(mask));
 111:visak/../h/Riscv.hpp **** }
 112:visak/../h/Riscv.hpp **** 
 113:visak/../h/Riscv.hpp **** inline void Riscv::mc_sip(uint64 mask) {
 114:visak/../h/Riscv.hpp **** 	__asm__ volatile("csrc sip, %[mask]": :[mask] "r"(mask));
 115:visak/../h/Riscv.hpp **** }
 116:visak/../h/Riscv.hpp **** 
 117:visak/../h/Riscv.hpp **** inline uint64 Riscv::r_sip() {
 118:visak/../h/Riscv.hpp **** 	uint64 volatile sip;
 119:visak/../h/Riscv.hpp **** 	__asm__ volatile("csrr %[sip], sip": [sip] "=r"(sip));
 120:visak/../h/Riscv.hpp **** 	return sip;
 121:visak/../h/Riscv.hpp **** }
GAS LISTING /tmp/ccADpnGq.s 			page 11


 122:visak/../h/Riscv.hpp **** 
 123:visak/../h/Riscv.hpp **** inline void Riscv::w_sip(uint64 sip) {
 124:visak/../h/Riscv.hpp **** 	__asm__ volatile("csrw sip, %[sip]": :[sip] "r"(sip));
 125:visak/../h/Riscv.hpp **** }
 126:visak/../h/Riscv.hpp **** 
 127:visak/../h/Riscv.hpp **** inline void Riscv::ms_sstatus(uint64 mask) {
 128:visak/../h/Riscv.hpp **** 	__asm__ volatile("csrs sstatus, %[mask]": :[mask] "r"(mask));
 291              		.loc 3 128 2
 292              		.loc 3 128 62 is_stmt 0
 293 01cc 93042000 		li	s1,2
 294              	#APP
 295              	# 128 "visak/../h/Riscv.hpp" 1
 129              	}
 296              		csrs sstatus, s1
 297              	# 0 "" 2
 298              	.LVL21:
 299              	#NO_APP
 300              	.LBE14:
 301              	.LBE13:
  80:visak/testFunctions.cpp **** 
  81:visak/testFunctions.cpp ****     thread_join(nit1);
 302              		.loc 1 81 5 is_stmt 1
 303              		.loc 1 81 16 is_stmt 0
 304 01d4 033504FD 		ld	a0,-48(s0)
 305 01d8 97000000 		call	_Z11thread_joinP3TCB@plt
 305      E7800000 
 306              	.LVL22:
  82:visak/testFunctions.cpp ****     thread_join(nit2);
 307              		.loc 1 82 5 is_stmt 1
 308              		.loc 1 82 16 is_stmt 0
 309 01e0 033584FC 		ld	a0,-56(s0)
 310 01e4 97000000 		call	_Z11thread_joinP3TCB@plt
 310      E7800000 
 311              	.LVL23:
  83:visak/testFunctions.cpp ****     thread_join(nit3);
 312              		.loc 1 83 5 is_stmt 1
 313              		.loc 1 83 16 is_stmt 0
 314 01ec 033504FC 		ld	a0,-64(s0)
 315 01f0 97000000 		call	_Z11thread_joinP3TCB@plt
 315      E7800000 
 316              	.LVL24:
  84:visak/testFunctions.cpp ****     //thread_join(idleNit);
  85:visak/testFunctions.cpp **** 
  86:visak/testFunctions.cpp ****     printString("\nGotove user niti\n");
 317              		.loc 1 86 5 is_stmt 1
 318              		.loc 1 86 16 is_stmt 0
 319 01f8 17050000 		lla	a0,.LC2
 319      13050500 
 320 0200 97000000 		call	_Z11printStringPKc@plt
 320      E7800000 
 321              	.LVL25:
  87:visak/testFunctions.cpp **** 
  88:visak/testFunctions.cpp ****     printString("\nSad cu da izadjem\n");
 322              		.loc 1 88 5 is_stmt 1
 323              		.loc 1 88 16 is_stmt 0
 324 0208 17050000 		lla	a0,.LC3
 324      13050500 
GAS LISTING /tmp/ccADpnGq.s 			page 12


 325 0210 97000000 		call	_Z11printStringPKc@plt
 325      E7800000 
 326              	.LVL26:
  89:visak/testFunctions.cpp ****     KConsole::flush();
 327              		.loc 1 89 5 is_stmt 1
 328              	.LBB15:
 329              	.LBB16:
 330              		.file 4 "visak/../h/KConsole.hpp"
   1:visak/../h/KConsole.hpp **** //
   2:visak/../h/KConsole.hpp **** // Created by os on 6/7/23.
   3:visak/../h/KConsole.hpp **** //
   4:visak/../h/KConsole.hpp **** 
   5:visak/../h/KConsole.hpp **** #ifndef PROJEKAT2023_KCONSOLE_HPP
   6:visak/../h/KConsole.hpp **** #define PROJEKAT2023_KCONSOLE_HPP
   7:visak/../h/KConsole.hpp **** 
   8:visak/../h/KConsole.hpp **** #include "../lib/hw.h"
   9:visak/../h/KConsole.hpp **** 
  10:visak/../h/KConsole.hpp **** class KSem;
  11:visak/../h/KConsole.hpp **** 
  12:visak/../h/KConsole.hpp **** typedef KSem* sem_t;
  13:visak/../h/KConsole.hpp **** 
  14:visak/../h/KConsole.hpp **** class KConsole {
  15:visak/../h/KConsole.hpp **** public:
  16:visak/../h/KConsole.hpp ****     static void initKConsole();
  17:visak/../h/KConsole.hpp **** 
  18:visak/../h/KConsole.hpp ****     //stavlja karakter u izlazni bafer konzole
  19:visak/../h/KConsole.hpp ****     static void kputc(char c);
  20:visak/../h/KConsole.hpp **** 
  21:visak/../h/KConsole.hpp ****     //uzima karakter iz ulaznog bafera konzole
  22:visak/../h/KConsole.hpp ****     static char kgetc();
  23:visak/../h/KConsole.hpp **** 
  24:visak/../h/KConsole.hpp ****     //vraca karakter iz izlaznog bafera; ako je bafer prazan, blokira se dok se ne napuni
  25:visak/../h/KConsole.hpp ****     static char getFromOutput();
  26:visak/../h/KConsole.hpp **** 
  27:visak/../h/KConsole.hpp ****     //stavlja karakter u ulazni bafer; ako je bafer pun, ignorise se
  28:visak/../h/KConsole.hpp ****     static void placeInInput(char c);
  29:visak/../h/KConsole.hpp **** 
  30:visak/../h/KConsole.hpp ****     //ispis svih preostalih karaktera u izlaznom baferu
  31:visak/../h/KConsole.hpp ****     static void flush() {
  32:visak/../h/KConsole.hpp ****         __asm__ volatile("li a0, 0x43");
 331              		.loc 4 32 9
 332              		.loc 4 32 40 is_stmt 0
 333              	#APP
 334              	# 32 "visak/../h/KConsole.hpp" 1
  33              	        __asm__ volatile("ecall");
 335              		li a0, 0x43
 336              	# 0 "" 2
 337              		.loc 4 33 9 is_stmt 1
 338              		.loc 4 33 34 is_stmt 0
 339              	# 33 "visak/../h/KConsole.hpp" 1
  34              	    }
 340              		ecall
 341              	# 0 "" 2
 342              	#NO_APP
 343              	.LBE16:
 344              	.LBE15:
  90:visak/testFunctions.cpp **** //	//zabrani prekide
GAS LISTING /tmp/ccADpnGq.s 			page 13


  91:visak/testFunctions.cpp ****     Riscv::mc_sstatus(Riscv::SSTATUS_SIE);
 345              		.loc 1 91 5 is_stmt 1
 346              	.LVL27:
 347              	.LBB17:
 348              	.LBB18:
 130:visak/../h/Riscv.hpp **** 
 131:visak/../h/Riscv.hpp **** inline void Riscv::mc_sstatus(uint64 mask) {
 132:visak/../h/Riscv.hpp **** 	__asm__ volatile("csrc sstatus, %[mask]": :[mask] "r"(mask));
 349              		.loc 3 132 2
 350              		.loc 3 132 62 is_stmt 0
 351              	#APP
 352              	# 132 "visak/../h/Riscv.hpp" 1
 133              	}
 353              		csrc sstatus, s1
 354              	# 0 "" 2
 355              	.LVL28:
 356              	#NO_APP
 357              	.LBE18:
 358              	.LBE17:
  92:visak/testFunctions.cpp **** 
  93:visak/testFunctions.cpp **** 
  94:visak/testFunctions.cpp ****     return 0;
 359              		.loc 1 94 5 is_stmt 1
  95:visak/testFunctions.cpp **** }...
 360              		.loc 1 95 1 is_stmt 0
 361 0224 13050000 		li	a0,0
 362 0228 83308104 		ld	ra,72(sp)
 363              		.cfi_restore 1
 364 022c 03340104 		ld	s0,64(sp)
 365              		.cfi_restore 8
 366              		.cfi_def_cfa 2, 80
 367 0230 83348103 		ld	s1,56(sp)
 368              		.cfi_restore 9
 369 0234 13010105 		addi	sp,sp,80
 370              		.cfi_def_cfa_offset 0
 371 0238 67800000 		jr	ra
 372              		.cfi_endproc
 373              	.LFE58:
 375              	.Letext0:
 376              		.file 5 "visak/../lib/hw.h"
 377              		.file 6 "visak/../h/KMemory.hpp"
 378              		.file 7 "visak/../h/../h/../h/syscall_c.hpp"
 379              		.file 8 "visak/../h/../h/ThreadQueue.hpp"
 380              		.file 9 "visak/../test/printing.hpp"
GAS LISTING /tmp/ccADpnGq.s 			page 14


DEFINED SYMBOLS
                            *ABS*:0000000000000000 testFunctions.cpp
     /tmp/ccADpnGq.s:9      .text:0000000000000000 _Z13emptyFunctionPv
     /tmp/ccADpnGq.s:13     .text:0000000000000000 .L0 
     /tmp/ccADpnGq.s:14     .text:0000000000000000 .L0 
     /tmp/ccADpnGq.s:15     .text:0000000000000004 .L0 
     /tmp/ccADpnGq.s:17     .text:0000000000000008 .L0 
     /tmp/ccADpnGq.s:19     .text:000000000000000c .L0 
     /tmp/ccADpnGq.s:21     .text:000000000000000c .L0 
     /tmp/ccADpnGq.s:22     .text:0000000000000010 .L0 
     /tmp/ccADpnGq.s:23     .text:0000000000000010 .L0 
     /tmp/ccADpnGq.s:25     .text:0000000000000014 .L0 
     /tmp/ccADpnGq.s:27     .text:0000000000000018 .L0 
     /tmp/ccADpnGq.s:33     .text:0000000000000018 _Z5nit1fPv
     /tmp/ccADpnGq.s:36     .text:0000000000000018 .L0 
     /tmp/ccADpnGq.s:37     .text:0000000000000018 .L0 
     /tmp/ccADpnGq.s:38     .text:000000000000001c .L0 
     /tmp/ccADpnGq.s:41     .text:0000000000000024 .L0 
     /tmp/ccADpnGq.s:42     .text:0000000000000024 .L0 
     /tmp/ccADpnGq.s:44     .text:0000000000000028 .L0 
     /tmp/ccADpnGq.s:48     .text:0000000000000028 .L0 
     /tmp/ccADpnGq.s:49     .text:0000000000000028 .L0 
     /tmp/ccADpnGq.s:50     .text:0000000000000028 .L0 
     /tmp/ccADpnGq.s:51     .text:0000000000000028 .L0 
     /tmp/ccADpnGq.s:58     .text:0000000000000040 .L0 
     /tmp/ccADpnGq.s:59     .text:0000000000000044 .L0 
     /tmp/ccADpnGq.s:70     .text:0000000000000044 _Z5nit2fPv
     /tmp/ccADpnGq.s:73     .text:0000000000000044 .L0 
     /tmp/ccADpnGq.s:75     .text:0000000000000044 .L0 
     /tmp/ccADpnGq.s:76     .text:0000000000000048 .L0 
     /tmp/ccADpnGq.s:79     .text:0000000000000050 .L0 
     /tmp/ccADpnGq.s:80     .text:0000000000000050 .L0 
     /tmp/ccADpnGq.s:82     .text:0000000000000054 .L0 
     /tmp/ccADpnGq.s:84     .text:0000000000000054 .L0 
     /tmp/ccADpnGq.s:85     .text:0000000000000054 .L0 
     /tmp/ccADpnGq.s:90     .text:0000000000000064 .L0 
     /tmp/ccADpnGq.s:91     .text:0000000000000068 .L0 
     /tmp/ccADpnGq.s:93     .text:000000000000006c .L0 
     /tmp/ccADpnGq.s:94     .text:000000000000006c .L0 
     /tmp/ccADpnGq.s:96     .text:0000000000000070 .L0 
     /tmp/ccADpnGq.s:98     .text:0000000000000074 .L0 
     /tmp/ccADpnGq.s:109    .text:0000000000000074 _Z5nit3fPv
     /tmp/ccADpnGq.s:112    .text:0000000000000074 .L0 
     /tmp/ccADpnGq.s:113    .text:0000000000000074 .L0 
     /tmp/ccADpnGq.s:114    .text:0000000000000078 .L0 
     /tmp/ccADpnGq.s:118    .text:0000000000000084 .L0 
     /tmp/ccADpnGq.s:119    .text:0000000000000084 .L0 
     /tmp/ccADpnGq.s:120    .text:0000000000000084 .L0 
     /tmp/ccADpnGq.s:122    .text:0000000000000088 .L0 
     /tmp/ccADpnGq.s:127    .text:000000000000008c .L0 
     /tmp/ccADpnGq.s:128    .text:000000000000008c .L0 
     /tmp/ccADpnGq.s:133    .text:0000000000000098 .L0 
     /tmp/ccADpnGq.s:138    .text:00000000000000a0 .L0 
     /tmp/ccADpnGq.s:139    .text:00000000000000a0 .L0 
     /tmp/ccADpnGq.s:140    .text:00000000000000a0 .L0 
     /tmp/ccADpnGq.s:141    .text:00000000000000a0 .L0 
     /tmp/ccADpnGq.s:146    .text:00000000000000ac .L0 
GAS LISTING /tmp/ccADpnGq.s 			page 15


     /tmp/ccADpnGq.s:147    .text:00000000000000ac .L0 
     /tmp/ccADpnGq.s:150    .text:00000000000000b4 .L0 
     /tmp/ccADpnGq.s:155    .text:00000000000000c0 .L0 
     /tmp/ccADpnGq.s:156    .text:00000000000000c0 .L0 
     /tmp/ccADpnGq.s:160    .text:00000000000000d0 .L0 
     /tmp/ccADpnGq.s:161    .text:00000000000000d4 .L0 
     /tmp/ccADpnGq.s:163    .text:00000000000000d8 .L0 
     /tmp/ccADpnGq.s:164    .text:00000000000000d8 .L0 
     /tmp/ccADpnGq.s:166    .text:00000000000000dc .L0 
     /tmp/ccADpnGq.s:169    .text:00000000000000e0 .L0 
     /tmp/ccADpnGq.s:171    .text:00000000000000e4 .L0 
     /tmp/ccADpnGq.s:185    .text:00000000000000e4 _Z5main5v
     /tmp/ccADpnGq.s:188    .text:00000000000000e4 .L0 
     /tmp/ccADpnGq.s:189    .text:00000000000000e4 .L0 
     /tmp/ccADpnGq.s:190    .text:00000000000000e8 .L0 
     /tmp/ccADpnGq.s:194    .text:00000000000000f4 .L0 
     /tmp/ccADpnGq.s:195    .text:00000000000000f4 .L0 
     /tmp/ccADpnGq.s:196    .text:00000000000000f4 .L0 
     /tmp/ccADpnGq.s:198    .text:00000000000000f8 .L0 
     /tmp/ccADpnGq.s:200    .text:00000000000000f8 .L0 
     /tmp/ccADpnGq.s:201    .text:00000000000000f8 .L0 
     /tmp/ccADpnGq.s:207    .text:0000000000000104 .L0 
     /tmp/ccADpnGq.s:209    .text:0000000000000104 .L0 
     /tmp/ccADpnGq.s:212    .text:000000000000010c .L0 
     /tmp/ccADpnGq.s:213    .text:000000000000010c .L0 
     /tmp/ccADpnGq.s:216    .text:0000000000000114 .L0 
     /tmp/ccADpnGq.s:217    .text:0000000000000114 .L0 
     /tmp/ccADpnGq.s:219    .text:0000000000000118 .L0 
     /tmp/ccADpnGq.s:220    .text:0000000000000118 .L0 
     /tmp/ccADpnGq.s:222    .text:000000000000011c .L0 
     /tmp/ccADpnGq.s:223    .text:000000000000011c .L0 
     /tmp/ccADpnGq.s:225    .text:0000000000000120 .L0 
     /tmp/ccADpnGq.s:226    .text:0000000000000120 .L0 
     /tmp/ccADpnGq.s:228    .text:0000000000000124 .L0 
     /tmp/ccADpnGq.s:229    .text:0000000000000124 .L0 
     /tmp/ccADpnGq.s:231    .text:0000000000000128 .L0 
     /tmp/ccADpnGq.s:232    .text:0000000000000128 .L0 
     /tmp/ccADpnGq.s:234    .text:000000000000012c .L0 
     /tmp/ccADpnGq.s:235    .text:000000000000012c .L0 
     /tmp/ccADpnGq.s:244    .text:0000000000000144 .L0 
     /tmp/ccADpnGq.s:245    .text:0000000000000144 .L0 
     /tmp/ccADpnGq.s:246    .text:0000000000000144 .L0 
     /tmp/ccADpnGq.s:253    .text:0000000000000154 .L0 
     /tmp/ccADpnGq.s:254    .text:0000000000000154 .L0 
     /tmp/ccADpnGq.s:260    .text:000000000000016c .L0 
     /tmp/ccADpnGq.s:261    .text:000000000000016c .L0 
     /tmp/ccADpnGq.s:267    .text:0000000000000184 .L0 
     /tmp/ccADpnGq.s:268    .text:0000000000000184 .L0 
     /tmp/ccADpnGq.s:274    .text:000000000000019c .L0 
     /tmp/ccADpnGq.s:275    .text:000000000000019c .L0 
     /tmp/ccADpnGq.s:281    .text:00000000000001b4 .L0 
     /tmp/ccADpnGq.s:282    .text:00000000000001b4 .L0 
     /tmp/ccADpnGq.s:291    .text:00000000000001cc .L0 
     /tmp/ccADpnGq.s:292    .text:00000000000001cc .L0 
     /tmp/ccADpnGq.s:293    .text:00000000000001cc .L0 
     /tmp/ccADpnGq.s:303    .text:00000000000001d4 .L0 
     /tmp/ccADpnGq.s:304    .text:00000000000001d4 .L0 
GAS LISTING /tmp/ccADpnGq.s 			page 16


     /tmp/ccADpnGq.s:308    .text:00000000000001e0 .L0 
     /tmp/ccADpnGq.s:309    .text:00000000000001e0 .L0 
     /tmp/ccADpnGq.s:313    .text:00000000000001ec .L0 
     /tmp/ccADpnGq.s:314    .text:00000000000001ec .L0 
     /tmp/ccADpnGq.s:318    .text:00000000000001f8 .L0 
     /tmp/ccADpnGq.s:319    .text:00000000000001f8 .L0 
     /tmp/ccADpnGq.s:323    .text:0000000000000208 .L0 
     /tmp/ccADpnGq.s:324    .text:0000000000000208 .L0 
     /tmp/ccADpnGq.s:331    .text:0000000000000218 .L0 
     /tmp/ccADpnGq.s:332    .text:0000000000000218 .L0 
visak/../h/KConsole.hpp:32     .text:0000000000000218 .L0 
     /tmp/ccADpnGq.s:338    .text:000000000000021c .L0 
visak/../h/KConsole.hpp:33     .text:000000000000021c .L0 
     /tmp/ccADpnGq.s:349    .text:0000000000000220 .L0 
     /tmp/ccADpnGq.s:350    .text:0000000000000220 .L0 
visak/../h/Riscv.hpp:132    .text:0000000000000220 .L0 
     /tmp/ccADpnGq.s:360    .text:0000000000000224 .L0 
     /tmp/ccADpnGq.s:361    .text:0000000000000224 .L0 
     /tmp/ccADpnGq.s:363    .text:000000000000022c .L0 
     /tmp/ccADpnGq.s:365    .text:0000000000000230 .L0 
     /tmp/ccADpnGq.s:366    .text:0000000000000230 .L0 
     /tmp/ccADpnGq.s:368    .text:0000000000000234 .L0 
     /tmp/ccADpnGq.s:370    .text:0000000000000238 .L0 
     /tmp/ccADpnGq.s:372    .text:000000000000023c .L0 
     /tmp/ccADpnGq.s:381    .text:000000000000023c .L0 
     /tmp/ccADpnGq.s:52     .text:000000000000002c .L0 
     /tmp/ccADpnGq.s:64     .rodata.str1.8:0000000000000000 .LC0
     /tmp/ccADpnGq.s:85     .text:0000000000000054 .L0 
     /tmp/ccADpnGq.s:103    .rodata.str1.8:0000000000000010 .LC1
     /tmp/ccADpnGq.s:156    .text:00000000000000c0 .L0 
     /tmp/ccADpnGq.s:201    .text:00000000000000f8 .L0 
     /tmp/ccADpnGq.s:236    .text:0000000000000130 .L0 
     /tmp/ccADpnGq.s:247    .text:0000000000000148 .L0 
     /tmp/ccADpnGq.s:255    .text:0000000000000158 .L0 
     /tmp/ccADpnGq.s:262    .text:0000000000000170 .L0 
     /tmp/ccADpnGq.s:269    .text:0000000000000188 .L0 
     /tmp/ccADpnGq.s:276    .text:00000000000001a0 .L0 
     /tmp/ccADpnGq.s:283    .text:00000000000001b8 .L0 
     /tmp/ccADpnGq.s:176    .rodata.str1.8:0000000000000020 .LC2
     /tmp/ccADpnGq.s:319    .text:00000000000001f8 .L0 
     /tmp/ccADpnGq.s:179    .rodata.str1.8:0000000000000038 .LC3
     /tmp/ccADpnGq.s:324    .text:0000000000000208 .L0 
     /tmp/ccADpnGq.s:45     .text:0000000000000028 .L4
     /tmp/ccADpnGq.s:136    .text:00000000000000a0 .L10
     /tmp/ccADpnGq.s:153    .text:00000000000000c0 .L12
     /tmp/ccADpnGq.s:131    .text:0000000000000098 .L9
     /tmp/ccADpnGq.s:125    .text:000000000000008c .L13
     /tmp/ccADpnGq.s:2163   .debug_abbrev:0000000000000000 .Ldebug_abbrev0
     /tmp/ccADpnGq.s:3623   .debug_str:0000000000000b04 .LASF224
     /tmp/ccADpnGq.s:3687   .debug_str:0000000000000d86 .LASF225
     /tmp/ccADpnGq.s:3575   .debug_str:00000000000009c9 .LASF226
     /tmp/ccADpnGq.s:5      .text:0000000000000000 .Ltext0
     /tmp/ccADpnGq.s:375    .text:000000000000023c .Letext0
     /tmp/ccADpnGq.s:3253   .debug_line:0000000000000000 .Ldebug_line0
     /tmp/ccADpnGq.s:3403   .debug_str:0000000000000493 .LASF0
     /tmp/ccADpnGq.s:3431   .debug_str:0000000000000558 .LASF1
     /tmp/ccADpnGq.s:3555   .debug_str:0000000000000929 .LASF2
GAS LISTING /tmp/ccADpnGq.s 			page 17


     /tmp/ccADpnGq.s:3351   .debug_str:00000000000002ee .LASF3
     /tmp/ccADpnGq.s:3567   .debug_str:000000000000098d .LASF4
     /tmp/ccADpnGq.s:3417   .debug_str:00000000000004fa .LASF5
     /tmp/ccADpnGq.s:3273   .debug_str:000000000000008c .LASF6
     /tmp/ccADpnGq.s:3523   .debug_str:0000000000000838 .LASF7
     /tmp/ccADpnGq.s:3515   .debug_str:0000000000000805 .LASF8
     /tmp/ccADpnGq.s:3421   .debug_str:0000000000000519 .LASF9
     /tmp/ccADpnGq.s:3379   .debug_str:00000000000003c9 .LASF10
     /tmp/ccADpnGq.s:3393   .debug_str:0000000000000435 .LASF11
     /tmp/ccADpnGq.s:3305   .debug_str:0000000000000170 .LASF12
     /tmp/ccADpnGq.s:3365   .debug_str:0000000000000363 .LASF13
     /tmp/ccADpnGq.s:3319   .debug_str:00000000000001e5 .LASF14
     /tmp/ccADpnGq.s:3303   .debug_str:0000000000000160 .LASF15
     /tmp/ccADpnGq.s:3597   .debug_str:0000000000000a68 .LASF16
     /tmp/ccADpnGq.s:3347   .debug_str:00000000000002ba .LASF17
     /tmp/ccADpnGq.s:3587   .debug_str:0000000000000a26 .LASF18
     /tmp/ccADpnGq.s:3675   .debug_str:0000000000000d0c .LASF48
     /tmp/ccADpnGq.s:3659   .debug_str:0000000000000cbd .LASF108
     /tmp/ccADpnGq.s:3357   .debug_str:0000000000000318 .LASF19
     /tmp/ccADpnGq.s:3621   .debug_str:0000000000000af7 .LASF20
     /tmp/ccADpnGq.s:3329   .debug_str:000000000000024d .LASF21
     /tmp/ccADpnGq.s:3465   .debug_str:0000000000000639 .LASF50
     /tmp/ccADpnGq.s:3649   .debug_str:0000000000000c71 .LASF52
     /tmp/ccADpnGq.s:3647   .debug_str:0000000000000c68 .LASF22
     /tmp/ccADpnGq.s:3635   .debug_str:0000000000000c0c .LASF24
     /tmp/ccADpnGq.s:3551   .debug_str:0000000000000915 .LASF26
     /tmp/ccADpnGq.s:3501   .debug_str:0000000000000779 .LASF28
     /tmp/ccADpnGq.s:3529   .debug_str:0000000000000851 .LASF23
     /tmp/ccADpnGq.s:3537   .debug_str:000000000000088a .LASF25
     /tmp/ccADpnGq.s:3485   .debug_str:0000000000000701 .LASF27
     /tmp/ccADpnGq.s:3423   .debug_str:000000000000052c .LASF29
     /tmp/ccADpnGq.s:3689   .debug_str:0000000000000d9e .LASF30
     /tmp/ccADpnGq.s:3625   .debug_str:0000000000000bc8 .LASF31
     /tmp/ccADpnGq.s:3481   .debug_str:00000000000006da .LASF32
     /tmp/ccADpnGq.s:3499   .debug_str:0000000000000765 .LASF33
     /tmp/ccADpnGq.s:3593   .debug_str:0000000000000a54 .LASF34
     /tmp/ccADpnGq.s:3569   .debug_str:0000000000000994 .LASF35
     /tmp/ccADpnGq.s:3571   .debug_str:00000000000009a7 .LASF36
     /tmp/ccADpnGq.s:3313   .debug_str:00000000000001b0 .LASF37
     /tmp/ccADpnGq.s:3343   .debug_str:00000000000002a0 .LASF38
     /tmp/ccADpnGq.s:3399   .debug_str:0000000000000475 .LASF39
     /tmp/ccADpnGq.s:3409   .debug_str:00000000000004bf .LASF40
     /tmp/ccADpnGq.s:3333   .debug_str:0000000000000260 .LASF41
     /tmp/ccADpnGq.s:3275   .debug_str:0000000000000093 .LASF42
     /tmp/ccADpnGq.s:3559   .debug_str:0000000000000941 .LASF43
     /tmp/ccADpnGq.s:3553   .debug_str:000000000000091e .LASF44
     /tmp/ccADpnGq.s:3711   .debug_str:0000000000000e28 .LASF45
     /tmp/ccADpnGq.s:3677   .debug_str:0000000000000d12 .LASF46
     /tmp/ccADpnGq.s:3697   .debug_str:0000000000000dbc .LASF47
     /tmp/ccADpnGq.s:3671   .debug_str:0000000000000cec .LASF63
     /tmp/ccADpnGq.s:3463   .debug_str:0000000000000623 .LASF65
     /tmp/ccADpnGq.s:3355   .debug_str:0000000000000310 .LASF49
     /tmp/ccADpnGq.s:3299   .debug_str:0000000000000140 .LASF51
     /tmp/ccADpnGq.s:3531   .debug_str:0000000000000858 .LASF53
     /tmp/ccADpnGq.s:3371   .debug_str:0000000000000392 .LASF54
     /tmp/ccADpnGq.s:3383   .debug_str:00000000000003eb .LASF56
     /tmp/ccADpnGq.s:3373   .debug_str:000000000000039a .LASF55
GAS LISTING /tmp/ccADpnGq.s 			page 18


     /tmp/ccADpnGq.s:3407   .debug_str:00000000000004aa .LASF57
     /tmp/ccADpnGq.s:3401   .debug_str:0000000000000487 .LASF58
     /tmp/ccADpnGq.s:3459   .debug_str:0000000000000612 .LASF59
     /tmp/ccADpnGq.s:3561   .debug_str:0000000000000959 .LASF60
     /tmp/ccADpnGq.s:3535   .debug_str:0000000000000880 .LASF61
     /tmp/ccADpnGq.s:3519   .debug_str:000000000000081e .LASF62
     /tmp/ccADpnGq.s:3509   .debug_str:00000000000007d3 .LASF64
     /tmp/ccADpnGq.s:3277   .debug_str:000000000000009e .LASF66
     /tmp/ccADpnGq.s:3455   .debug_str:00000000000005fb .LASF67
     /tmp/ccADpnGq.s:3297   .debug_str:000000000000013a .LASF68
     /tmp/ccADpnGq.s:3589   .debug_str:0000000000000a3c .LASF227
     /tmp/ccADpnGq.s:3451   .debug_str:00000000000005de .LASF69
     /tmp/ccADpnGq.s:3335   .debug_str:0000000000000272 .LASF70
     /tmp/ccADpnGq.s:3637   .debug_str:0000000000000c21 .LASF71
     /tmp/ccADpnGq.s:3577   .debug_str:00000000000009e7 .LASF72
     /tmp/ccADpnGq.s:3493   .debug_str:000000000000072e .LASF73
     /tmp/ccADpnGq.s:3517   .debug_str:0000000000000818 .LASF74
     /tmp/ccADpnGq.s:3479   .debug_str:00000000000006c5 .LASF75
     /tmp/ccADpnGq.s:3415   .debug_str:00000000000004ec .LASF76
     /tmp/ccADpnGq.s:3513   .debug_str:00000000000007e7 .LASF77
     /tmp/ccADpnGq.s:3397   .debug_str:0000000000000468 .LASF78
     /tmp/ccADpnGq.s:3547   .debug_str:00000000000008e8 .LASF79
     /tmp/ccADpnGq.s:3651   .debug_str:0000000000000c92 .LASF80
     /tmp/ccADpnGq.s:3295   .debug_str:0000000000000125 .LASF81
     /tmp/ccADpnGq.s:3271   .debug_str:0000000000000081 .LASF82
     /tmp/ccADpnGq.s:3679   .debug_str:0000000000000d1c .LASF83
     /tmp/ccADpnGq.s:3257   .debug_str:000000000000001b .LASF84
     /tmp/ccADpnGq.s:3377   .debug_str:00000000000003ae .LASF85
     /tmp/ccADpnGq.s:3605   .debug_str:0000000000000a96 .LASF86
     /tmp/ccADpnGq.s:3255   .debug_str:0000000000000000 .LASF87
     /tmp/ccADpnGq.s:3449   .debug_str:00000000000005c6 .LASF88
     /tmp/ccADpnGq.s:3363   .debug_str:000000000000033b .LASF89
     /tmp/ccADpnGq.s:3563   .debug_str:0000000000000971 .LASF90
     /tmp/ccADpnGq.s:3309   .debug_str:0000000000000184 .LASF91
     /tmp/ccADpnGq.s:3311   .debug_str:00000000000001a2 .LASF92
     /tmp/ccADpnGq.s:3705   .debug_str:0000000000000dfe .LASF93
     /tmp/ccADpnGq.s:3617   .debug_str:0000000000000ade .LASF94
     /tmp/ccADpnGq.s:3289   .debug_str:00000000000000ff .LASF95
     /tmp/ccADpnGq.s:3391   .debug_str:0000000000000420 .LASF96
     /tmp/ccADpnGq.s:3609   .debug_str:0000000000000aa9 .LASF97
     /tmp/ccADpnGq.s:3375   .debug_str:00000000000003a0 .LASF98
     /tmp/ccADpnGq.s:3261   .debug_str:000000000000002e .LASF228
     /tmp/ccADpnGq.s:3653   .debug_str:0000000000000c98 .LASF99
     /tmp/ccADpnGq.s:3341   .debug_str:0000000000000293 .LASF100
     /tmp/ccADpnGq.s:3405   .debug_str:00000000000004a0 .LASF101
     /tmp/ccADpnGq.s:3525   .debug_str:000000000000083f .LASF102
     /tmp/ccADpnGq.s:3433   .debug_str:000000000000056b .LASF103
     /tmp/ccADpnGq.s:3657   .debug_str:0000000000000cb2 .LASF104
     /tmp/ccADpnGq.s:3579   .debug_str:00000000000009ed .LASF105
     /tmp/ccADpnGq.s:3611   .debug_str:0000000000000ab6 .LASF106
     /tmp/ccADpnGq.s:3669   .debug_str:0000000000000ce3 .LASF107
     /tmp/ccADpnGq.s:3581   .debug_str:00000000000009fd .LASF109
     /tmp/ccADpnGq.s:3527   .debug_str:0000000000000849 .LASF110
     /tmp/ccADpnGq.s:3331   .debug_str:0000000000000259 .LASF111
     /tmp/ccADpnGq.s:3259   .debug_str:0000000000000026 .LASF112
     /tmp/ccADpnGq.s:3385   .debug_str:0000000000000401 .LASF113
     /tmp/ccADpnGq.s:3427   .debug_str:0000000000000544 .LASF114
GAS LISTING /tmp/ccADpnGq.s 			page 19


     /tmp/ccADpnGq.s:3293   .debug_str:000000000000011c .LASF115
     /tmp/ccADpnGq.s:3607   .debug_str:0000000000000aa1 .LASF167
     /tmp/ccADpnGq.s:3595   .debug_str:0000000000000a5b .LASF116
     /tmp/ccADpnGq.s:3685   .debug_str:0000000000000d64 .LASF117
     /tmp/ccADpnGq.s:3507   .debug_str:00000000000007ce .LASF229
     /tmp/ccADpnGq.s:3691   .debug_str:0000000000000da6 .LASF118
     /tmp/ccADpnGq.s:3395   .debug_str:0000000000000443 .LASF119
     /tmp/ccADpnGq.s:3543   .debug_str:00000000000008c6 .LASF120
     /tmp/ccADpnGq.s:3453   .debug_str:00000000000005e7 .LASF122
     /tmp/ccADpnGq.s:3437   .debug_str:000000000000057e .LASF121
     /tmp/ccADpnGq.s:3541   .debug_str:00000000000008ae .LASF123
     /tmp/ccADpnGq.s:3533   .debug_str:0000000000000878 .LASF124
     /tmp/ccADpnGq.s:3457   .debug_str:0000000000000600 .LASF125
     /tmp/ccADpnGq.s:3683   .debug_str:0000000000000d4c .LASF126
     /tmp/ccADpnGq.s:3467   .debug_str:000000000000064d .LASF127
     /tmp/ccADpnGq.s:3317   .debug_str:00000000000001d6 .LASF128
     /tmp/ccADpnGq.s:3413   .debug_str:00000000000004cd .LASF129
     /tmp/ccADpnGq.s:3381   .debug_str:00000000000003d9 .LASF130
     /tmp/ccADpnGq.s:3483   .debug_str:00000000000006e2 .LASF131
     /tmp/ccADpnGq.s:3339   .debug_str:0000000000000288 .LASF132
     /tmp/ccADpnGq.s:3585   .debug_str:0000000000000a10 .LASF133
     /tmp/ccADpnGq.s:3263   .debug_str:0000000000000037 .LASF134
     /tmp/ccADpnGq.s:3613   .debug_str:0000000000000abb .LASF135
     /tmp/ccADpnGq.s:3645   .debug_str:0000000000000c54 .LASF136
     /tmp/ccADpnGq.s:3503   .debug_str:000000000000078e .LASF137
     /tmp/ccADpnGq.s:3643   .debug_str:0000000000000c49 .LASF138
     /tmp/ccADpnGq.s:3369   .debug_str:000000000000037a .LASF139
     /tmp/ccADpnGq.s:3715   .debug_str:0000000000000e4d .LASF140
     /tmp/ccADpnGq.s:3573   .debug_str:00000000000009ae .LASF141
     /tmp/ccADpnGq.s:3337   .debug_str:000000000000027f .LASF142
     /tmp/ccADpnGq.s:3315   .debug_str:00000000000001c3 .LASF143
     /tmp/ccADpnGq.s:3443   .debug_str:00000000000005ae .LASF144
     /tmp/ccADpnGq.s:3279   .debug_str:00000000000000b4 .LASF145
     /tmp/ccADpnGq.s:3387   .debug_str:0000000000000409 .LASF146
     /tmp/ccADpnGq.s:3545   .debug_str:00000000000008d0 .LASF147
     /tmp/ccADpnGq.s:3713   .debug_str:0000000000000e40 .LASF148
     /tmp/ccADpnGq.s:3389   .debug_str:0000000000000414 .LASF149
     /tmp/ccADpnGq.s:3267   .debug_str:0000000000000049 .LASF150
     /tmp/ccADpnGq.s:3497   .debug_str:0000000000000758 .LASF151
     /tmp/ccADpnGq.s:3701   .debug_str:0000000000000dde .LASF230
     /tmp/ccADpnGq.s:3633   .debug_str:0000000000000c04 .LASF152
     /tmp/ccADpnGq.s:3301   .debug_str:0000000000000151 .LASF153
     /tmp/ccADpnGq.s:3707   .debug_str:0000000000000e1c .LASF154
     /tmp/ccADpnGq.s:3603   .debug_str:0000000000000a91 .LASF155
     /tmp/ccADpnGq.s:3627   .debug_str:0000000000000bdc .LASF156
     /tmp/ccADpnGq.s:3549   .debug_str:0000000000000905 .LASF157
     /tmp/ccADpnGq.s:3511   .debug_str:00000000000007db .LASF158
     /tmp/ccADpnGq.s:3359   .debug_str:0000000000000324 .LASF159
     /tmp/ccADpnGq.s:3565   .debug_str:000000000000097f .LASF160
     /tmp/ccADpnGq.s:3665   .debug_str:0000000000000cd7 .LASF161
     /tmp/ccADpnGq.s:3477   .debug_str:00000000000006b9 .LASF162
     /tmp/ccADpnGq.s:3717   .debug_str:0000000000000e5b .LASF163
     /tmp/ccADpnGq.s:3619   .debug_str:0000000000000aef .LASF164
     /tmp/ccADpnGq.s:3539   .debug_str:000000000000089d .LASF165
     /tmp/ccADpnGq.s:3325   .debug_str:0000000000000225 .LASF173
     /tmp/ccADpnGq.s:3269   .debug_str:0000000000000059 .LASF174
     /tmp/ccADpnGq.s:3489   .debug_str:0000000000000716 .LASF166
GAS LISTING /tmp/ccADpnGq.s 			page 20


     /tmp/ccADpnGq.s:3667   .debug_str:0000000000000cde .LASF168
     /tmp/ccADpnGq.s:3425   .debug_str:000000000000053f .LASF169
     /tmp/ccADpnGq.s:3307   .debug_str:000000000000017f .LASF170
     /tmp/ccADpnGq.s:3349   .debug_str:00000000000002d0 .LASF171
     /tmp/ccADpnGq.s:3327   .debug_str:0000000000000233 .LASF172
     /tmp/ccADpnGq.s:3321   .debug_str:00000000000001f5 .LASF175
     /tmp/ccADpnGq.s:3285   .debug_str:00000000000000e4 .LASF176
     /tmp/ccADpnGq.s:3473   .debug_str:0000000000000695 .LASF177
     /tmp/ccADpnGq.s:3283   .debug_str:00000000000000cf .LASF178
     /tmp/ccADpnGq.s:3599   .debug_str:0000000000000a74 .LASF179
     /tmp/ccADpnGq.s:3557   .debug_str:0000000000000937 .LASF192
     /tmp/ccADpnGq.s:3629   .debug_str:0000000000000be6 .LASF194
     /tmp/ccADpnGq.s:3419   .debug_str:000000000000050c .LASF180
     /tmp/ccADpnGq.s:3681   .debug_str:0000000000000d37 .LASF181
     /tmp/ccADpnGq.s:3411   .debug_str:00000000000004c5 .LASF182
     /tmp/ccADpnGq.s:3353   .debug_str:00000000000002f4 .LASF183
     /tmp/ccADpnGq.s:3435   .debug_str:0000000000000576 .LASF184
     /tmp/ccADpnGq.s:3475   .debug_str:000000000000069a .LASF185
     /tmp/ccADpnGq.s:3291   .debug_str:0000000000000113 .LASF186
     /tmp/ccADpnGq.s:3471   .debug_str:0000000000000679 .LASF187
     /tmp/ccADpnGq.s:3265   .debug_str:0000000000000042 .LASF188
     /tmp/ccADpnGq.s:3439   .debug_str:000000000000058b .LASF189
     /tmp/ccADpnGq.s:3323   .debug_str:0000000000000210 .LASF190
     /tmp/ccADpnGq.s:3673   .debug_str:0000000000000cf6 .LASF191
     /tmp/ccADpnGq.s:3663   .debug_str:0000000000000cd1 .LASF193
     /tmp/ccADpnGq.s:3703   .debug_str:0000000000000df4 .LASF195
     /tmp/ccADpnGq.s:186    .text:00000000000000e4 .LFB58
     /tmp/ccADpnGq.s:373    .text:000000000000023c .LFE58
     /tmp/ccADpnGq.s:3361   .debug_str:0000000000000331 .LASF196
     /tmp/ccADpnGq.s:3601   .debug_str:0000000000000a8c .LASF197
     /tmp/ccADpnGq.s:3441   .debug_str:00000000000005a9 .LASF198
     /tmp/ccADpnGq.s:3445   .debug_str:00000000000005b6 .LASF199
     /tmp/ccADpnGq.s:3367   .debug_str:0000000000000372 .LASF200
     /tmp/ccADpnGq.s:3287   .debug_str:00000000000000ea .LASF201
     /tmp/ccADpnGq.s:241    .text:0000000000000144 .LBB11
     /tmp/ccADpnGq.s:251    .text:0000000000000154 .LBE11
     /tmp/ccADpnGq.s:3191   .debug_loc:0000000000000000 .LLST2
     /tmp/ccADpnGq.s:288    .text:00000000000001cc .LBB13
     /tmp/ccADpnGq.s:301    .text:00000000000001d4 .LBE13
     /tmp/ccADpnGq.s:3199   .debug_loc:0000000000000024 .LLST3
     /tmp/ccADpnGq.s:328    .text:0000000000000218 .LBB15
     /tmp/ccADpnGq.s:344    .text:0000000000000220 .LBE15
     /tmp/ccADpnGq.s:347    .text:0000000000000220 .LBB17
     /tmp/ccADpnGq.s:358    .text:0000000000000224 .LBE17
     /tmp/ccADpnGq.s:3207   .debug_loc:0000000000000048 .LLST4
     /tmp/ccADpnGq.s:210    .text:000000000000010c .LVL12
     /tmp/ccADpnGq.s:214    .text:0000000000000114 .LVL13
     /tmp/ccADpnGq.s:239    .text:0000000000000144 .LVL14
     /tmp/ccADpnGq.s:258    .text:000000000000016c .LVL16
     /tmp/ccADpnGq.s:265    .text:0000000000000184 .LVL17
     /tmp/ccADpnGq.s:272    .text:000000000000019c .LVL18
     /tmp/ccADpnGq.s:279    .text:00000000000001b4 .LVL19
     /tmp/ccADpnGq.s:286    .text:00000000000001cc .LVL20
     /tmp/ccADpnGq.s:306    .text:00000000000001e0 .LVL22
     /tmp/ccADpnGq.s:311    .text:00000000000001ec .LVL23
     /tmp/ccADpnGq.s:316    .text:00000000000001f8 .LVL24
     /tmp/ccADpnGq.s:321    .text:0000000000000208 .LVL25
GAS LISTING /tmp/ccADpnGq.s 			page 21


     /tmp/ccADpnGq.s:326    .text:0000000000000218 .LVL26
     /tmp/ccADpnGq.s:3709   .debug_str:0000000000000e22 .LASF202
     /tmp/ccADpnGq.s:3615   .debug_str:0000000000000ad3 .LASF203
     /tmp/ccADpnGq.s:110    .text:0000000000000074 .LFB57
     /tmp/ccADpnGq.s:172    .text:00000000000000e4 .LFE57
     /tmp/ccADpnGq.s:3631   .debug_str:0000000000000bfe .LASF204
     /tmp/ccADpnGq.s:3215   .debug_loc:000000000000006c .LLST1
     /tmp/ccADpnGq.s:130    .text:0000000000000098 .LVL5
     /tmp/ccADpnGq.s:142    .text:00000000000000a8 .LVL7
     /tmp/ccADpnGq.s:148    .text:00000000000000b4 .LVL9
     /tmp/ccADpnGq.s:158    .text:00000000000000d0 .LVL10
     /tmp/ccADpnGq.s:3639   .debug_str:0000000000000c3e .LASF205
     /tmp/ccADpnGq.s:3447   .debug_str:00000000000005bb .LASF206
     /tmp/ccADpnGq.s:71     .text:0000000000000044 .LFB56
     /tmp/ccADpnGq.s:99     .text:0000000000000074 .LFE56
     /tmp/ccADpnGq.s:3641   .debug_str:0000000000000c44 .LASF231
     /tmp/ccADpnGq.s:3226   .debug_loc:00000000000000a2 .LLST0
     /tmp/ccADpnGq.s:88     .text:0000000000000064 .LVL3
     /tmp/ccADpnGq.s:3583   .debug_str:0000000000000a0a .LASF207
     /tmp/ccADpnGq.s:3521   .debug_str:000000000000082d .LASF208
     /tmp/ccADpnGq.s:34     .text:0000000000000018 .LFB55
     /tmp/ccADpnGq.s:60     .text:0000000000000044 .LFE55
     /tmp/ccADpnGq.s:47     .text:0000000000000028 .LBB10
     /tmp/ccADpnGq.s:56     .text:0000000000000040 .LBE10
     /tmp/ccADpnGq.s:3695   .debug_str:0000000000000db5 .LASF209
     /tmp/ccADpnGq.s:55     .text:0000000000000040 .LVL0
     /tmp/ccADpnGq.s:3487   .debug_str:0000000000000708 .LASF210
     /tmp/ccADpnGq.s:3345   .debug_str:00000000000002a6 .LASF211
     /tmp/ccADpnGq.s:10     .text:0000000000000000 .LFB54
     /tmp/ccADpnGq.s:28     .text:0000000000000018 .LFE54
     /tmp/ccADpnGq.s:3429   .debug_str:000000000000054d .LASF212
     /tmp/ccADpnGq.s:3661   .debug_str:0000000000000ccc .LASF213
     /tmp/ccADpnGq.s:3505   .debug_str:00000000000007ad .LASF214
     /tmp/ccADpnGq.s:3655   .debug_str:0000000000000ca4 .LASF216
     /tmp/ccADpnGq.s:3495   .debug_str:0000000000000743 .LASF215
     /tmp/ccADpnGq.s:3491   .debug_str:0000000000000722 .LASF217
     /tmp/ccADpnGq.s:3591   .debug_str:0000000000000a41 .LASF218
     /tmp/ccADpnGq.s:3699   .debug_str:0000000000000dd2 .LASF219
     /tmp/ccADpnGq.s:3281   .debug_str:00000000000000c6 .LASF220
     /tmp/ccADpnGq.s:3461   .debug_str:000000000000061e .LASF221
     /tmp/ccADpnGq.s:3469   .debug_str:0000000000000670 .LASF222
     /tmp/ccADpnGq.s:3693   .debug_str:0000000000000db0 .LASF223
     /tmp/ccADpnGq.s:249    .text:0000000000000154 .LVL15
     /tmp/ccADpnGq.s:298    .text:00000000000001d4 .LVL21
     /tmp/ccADpnGq.s:346    .text:0000000000000220 .LVL27
     /tmp/ccADpnGq.s:355    .text:0000000000000224 .LVL28
     /tmp/ccADpnGq.s:124    .text:000000000000008c .LVL4
     /tmp/ccADpnGq.s:135    .text:00000000000000a0 .LVL6
     /tmp/ccADpnGq.s:144    .text:00000000000000ac .LVL8
     /tmp/ccADpnGq.s:167    .text:00000000000000dc .LVL11
     /tmp/ccADpnGq.s:74     .text:0000000000000044 .LVL1
     /tmp/ccADpnGq.s:86     .text:000000000000005c .LVL2
     /tmp/ccADpnGq.s:382    .debug_info:0000000000000000 .Ldebug_info0

UNDEFINED SYMBOLS
_Z13thread_createPP3TCBPFvPvES2_
_Z11printStringPKc
GAS LISTING /tmp/ccADpnGq.s 			page 22


_Z4putcc
_Z4getcv
interruptHandler
_ZN7KMemory16initializeMemoryEv
_ZN8KConsole12initKConsoleEv
main
_ZN3TCB7runningE
_Z4idlePv
_Z22kernelConsumerFunctionPv
_Z11thread_joinP3TCB
