GAS LISTING /tmp/ccO1uTng.s 			page 1


   1              		.file	"testFunctions.cpp"
   2              		.option pic
   3              		.option norelax
   4              		.text
   5              	.Ltext0:
   6              		.align	2
   7              		.globl	_Z13emptyFunctionPv
   9              	_Z13emptyFunctionPv:
  10              	.LFB44:
  11              		.file 1 "visak/testFunctions.cpp"
   1:visak/testFunctions.cpp **** //
   2:visak/testFunctions.cpp **** // Created by os on 5/29/23.
   3:visak/testFunctions.cpp **** //
   4:visak/testFunctions.cpp **** #include "../lib/hw.h"
   5:visak/testFunctions.cpp **** #include "../h/Riscv.hpp"
   6:visak/testFunctions.cpp **** #include "../h/KMemory.hpp"
   7:visak/testFunctions.cpp **** #include "../h/KConsole.hpp"
   8:visak/testFunctions.cpp **** #include "../h/TCB.hpp"
   9:visak/testFunctions.cpp **** #include "../h/syscall_c.hpp"
  10:visak/testFunctions.cpp **** #include "../h/syscall_cpp.hpp"
  11:visak/testFunctions.cpp **** 
  12:visak/testFunctions.cpp **** #include "../test/printing.hpp"
  13:visak/testFunctions.cpp **** 
  14:visak/testFunctions.cpp **** extern "C" void interruptHandler();
  15:visak/testFunctions.cpp **** 
  16:visak/testFunctions.cpp **** void userMain();
  17:visak/testFunctions.cpp **** 
  18:visak/testFunctions.cpp **** void idle(void*);
  19:visak/testFunctions.cpp **** 
  20:visak/testFunctions.cpp **** void kernelConsumerFunction(void*);
  21:visak/testFunctions.cpp **** 
  22:visak/testFunctions.cpp **** 
  23:visak/testFunctions.cpp **** void emptyFunction(void*) {}
  12              		.loc 1 23 27
  13              		.cfi_startproc
  14 0000 130101FF 		addi	sp,sp,-16
  15              		.cfi_def_cfa_offset 16
  16 0004 23348100 		sd	s0,8(sp)
  17              		.cfi_offset 8, -8
  18 0008 13040101 		addi	s0,sp,16
  19              		.cfi_def_cfa 8, 0
  20              		.loc 1 23 28 is_stmt 0
  21 000c 03348100 		ld	s0,8(sp)
  22              		.cfi_restore 8
  23              		.cfi_def_cfa 2, 16
  24 0010 13010101 		addi	sp,sp,16
  25              		.cfi_def_cfa_offset 0
  26 0014 67800000 		jr	ra
  27              		.cfi_endproc
  28              	.LFE44:
  30              		.align	2
  31              		.globl	_Z5nit1fPv
  33              	_Z5nit1fPv:
  34              	.LFB45:
  24:visak/testFunctions.cpp **** 
  25:visak/testFunctions.cpp **** void nit1f(void*) {
  35              		.loc 1 25 19 is_stmt 1
GAS LISTING /tmp/ccO1uTng.s 			page 2


  36              		.cfi_startproc
  37 0018 130101FE 		addi	sp,sp,-32
  38              		.cfi_def_cfa_offset 32
  39 001c 233C1100 		sd	ra,24(sp)
  40 0020 23388100 		sd	s0,16(sp)
  41              		.cfi_offset 1, -8
  42              		.cfi_offset 8, -16
  43 0024 13040102 		addi	s0,sp,32
  44              		.cfi_def_cfa 8, 0
  45              	.L4:
  26:visak/testFunctions.cpp ****     while (true) {
  46              		.loc 1 26 5
  47              	.LBB10:
  27:visak/testFunctions.cpp ****         thread_t handle;
  48              		.loc 1 27 9
  28:visak/testFunctions.cpp ****         thread_create(&handle, emptyFunction, nullptr);
  49              		.loc 1 28 9
  50              		.loc 1 28 22 is_stmt 0
  51 0028 13060000 		li	a2,0
  52 002c 97050000 		lla	a1,_Z13emptyFunctionPv
  52      93850500 
  53 0034 130584FE 		addi	a0,s0,-24
  54 0038 97000000 		call	_Z13thread_createPP3TCBPFvPvES2_@plt
  54      E7800000 
  55              	.LVL0:
  56              	.LBE10:
  26:visak/testFunctions.cpp ****     while (true) {
  57              		.loc 1 26 5 is_stmt 1
  58 0040 6FF09FFE 		j	.L4
  59              		.cfi_endproc
  60              	.LFE45:
  62              		.section	.rodata.str1.8,"aMS",@progbits,1
  63              		.align	3
  64              	.LC0:
  65 0000 0A476F74 		.string	"\nGotova nit 2\n"
  65      6F766120 
  65      6E697420 
  65      320A00
  66              		.text
  67              		.align	2
  68              		.globl	_Z5nit2fPv
  70              	_Z5nit2fPv:
  71              	.LFB46:
  29:visak/testFunctions.cpp ****     }
  30:visak/testFunctions.cpp **** 
  31:visak/testFunctions.cpp ****     printString("\nGotova nit 1\n");
  32:visak/testFunctions.cpp **** }
  33:visak/testFunctions.cpp **** 
  34:visak/testFunctions.cpp **** void nit2f(void* arg2) {
  72              		.loc 1 34 24
  73              		.cfi_startproc
  74              	.LVL1:
  75 0044 130101FF 		addi	sp,sp,-16
  76              		.cfi_def_cfa_offset 16
  77 0048 23341100 		sd	ra,8(sp)
  78 004c 23308100 		sd	s0,0(sp)
  79              		.cfi_offset 1, -8
GAS LISTING /tmp/ccO1uTng.s 			page 3


  80              		.cfi_offset 8, -16
  81 0050 13040101 		addi	s0,sp,16
  82              		.cfi_def_cfa 8, 0
  35:visak/testFunctions.cpp ****     printString("\nGotova nit 2\n");
  83              		.loc 1 35 5
  84              		.loc 1 35 16 is_stmt 0
  85 0054 17050000 		lla	a0,.LC0
  85      13050500 
  86              	.LVL2:
  87 005c 97000000 		call	_Z11printStringPKc@plt
  87      E7800000 
  88              	.LVL3:
  36:visak/testFunctions.cpp **** }
  89              		.loc 1 36 1
  90 0064 83308100 		ld	ra,8(sp)
  91              		.cfi_restore 1
  92 0068 03340100 		ld	s0,0(sp)
  93              		.cfi_restore 8
  94              		.cfi_def_cfa 2, 16
  95 006c 13010101 		addi	sp,sp,16
  96              		.cfi_def_cfa_offset 0
  97 0070 67800000 		jr	ra
  98              		.cfi_endproc
  99              	.LFE46:
 101              		.section	.rodata.str1.8
 102 000f 00       		.align	3
 103              	.LC1:
 104 0010 0A476F74 		.string	"\nGotova nit3\n"
 104      6F766120 
 104      6E697433 
 104      0A00
 105              		.text
 106              		.align	2
 107              		.globl	_Z5nit3fPv
 109              	_Z5nit3fPv:
 110              	.LFB47:
  37:visak/testFunctions.cpp **** 
  38:visak/testFunctions.cpp **** 
  39:visak/testFunctions.cpp **** void nit3f(void*) {
 111              		.loc 1 39 19 is_stmt 1
 112              		.cfi_startproc
 113 0074 130101FE 		addi	sp,sp,-32
 114              		.cfi_def_cfa_offset 32
 115 0078 233C1100 		sd	ra,24(sp)
 116 007c 23388100 		sd	s0,16(sp)
 117 0080 23349100 		sd	s1,8(sp)
 118              		.cfi_offset 1, -8
 119              		.cfi_offset 8, -16
 120              		.cfi_offset 9, -24
 121 0084 13040102 		addi	s0,sp,32
 122              		.cfi_def_cfa 8, 0
 123 0088 6F008001 		j	.L10
 124              	.LVL4:
 125              	.L13:
  40:visak/testFunctions.cpp ****     char slovo;
  41:visak/testFunctions.cpp ****     do {
  42:visak/testFunctions.cpp ****         slovo = getc();
GAS LISTING /tmp/ccO1uTng.s 			page 4


  43:visak/testFunctions.cpp ****         putc(slovo);
  44:visak/testFunctions.cpp ****         if (slovo == '\r') putc('\n');
 126              		.loc 1 44 28 discriminator 1
 127              		.loc 1 44 32 is_stmt 0 discriminator 1
 128 008c 1305A000 		li	a0,10
 129 0090 97000000 		call	_Z4putcc@plt
 129      E7800000 
 130              	.LVL5:
 131              	.L9:
  45:visak/testFunctions.cpp ****     } while (slovo != '0');
 132              		.loc 1 45 20 is_stmt 1
 133 0098 93070003 		li	a5,48
 134 009c 6382F402 		beq	s1,a5,.L12
 135              	.LVL6:
 136              	.L10:
  40:visak/testFunctions.cpp ****     char slovo;
 137              		.loc 1 40 5
  41:visak/testFunctions.cpp ****         slovo = getc();
 138              		.loc 1 41 5
  42:visak/testFunctions.cpp ****         putc(slovo);
 139              		.loc 1 42 9
  42:visak/testFunctions.cpp ****         putc(slovo);
 140              		.loc 1 42 21 is_stmt 0
 141 00a0 97000000 		call	_Z4getcv@plt
 141      E7800000 
 142              	.LVL7:
 143 00a8 93040500 		mv	s1,a0
 144              	.LVL8:
  43:visak/testFunctions.cpp ****         if (slovo == '\r') putc('\n');
 145              		.loc 1 43 9 is_stmt 1
  43:visak/testFunctions.cpp ****         if (slovo == '\r') putc('\n');
 146              		.loc 1 43 13 is_stmt 0
 147 00ac 97000000 		call	_Z4putcc@plt
 147      E7800000 
 148              	.LVL9:
  44:visak/testFunctions.cpp ****     } while (slovo != '0');
 149              		.loc 1 44 9 is_stmt 1
 150 00b4 9307D000 		li	a5,13
 151 00b8 E390F4FE 		bne	s1,a5,.L9
 152 00bc 6FF01FFD 		j	.L13
 153              	.L12:
  46:visak/testFunctions.cpp **** 
  47:visak/testFunctions.cpp ****     printString("\nGotova nit3\n");
 154              		.loc 1 47 5
 155              		.loc 1 47 16 is_stmt 0
 156 00c0 17050000 		lla	a0,.LC1
 156      13050500 
 157 00c8 97000000 		call	_Z11printStringPKc@plt
 157      E7800000 
 158              	.LVL10:
  48:visak/testFunctions.cpp **** }
 159              		.loc 1 48 1
 160 00d0 83308101 		ld	ra,24(sp)
 161              		.cfi_restore 1
 162 00d4 03340101 		ld	s0,16(sp)
 163              		.cfi_restore 8
 164              		.cfi_def_cfa 2, 32
GAS LISTING /tmp/ccO1uTng.s 			page 5


 165 00d8 83348100 		ld	s1,8(sp)
 166              		.cfi_restore 9
 167              	.LVL11:
 168 00dc 13010102 		addi	sp,sp,32
 169              		.cfi_def_cfa_offset 0
 170 00e0 67800000 		jr	ra
 171              		.cfi_endproc
 172              	.LFE47:
 174              		.section	.rodata.str1.8
 175 001e 0000     		.align	3
 176              	.LC2:
 177 0020 0A476F74 		.string	"\nGotove user niti\n"
 177      6F766520 
 177      75736572 
 177      206E6974 
 177      690A00
 178 0033 00000000 		.align	3
 178      00
 179              	.LC3:
 180 0038 0A536164 		.string	"\nSad cu da izadjem\n"
 180      20637520 
 180      64612069 
 180      7A61646A 
 180      656D0A00 
 181              		.text
 182              		.align	2
 183              		.globl	_Z5main5v
 185              	_Z5main5v:
 186              	.LFB48:
  49:visak/testFunctions.cpp **** 
  50:visak/testFunctions.cpp **** 
  51:visak/testFunctions.cpp **** int main5() {
 187              		.loc 1 51 13 is_stmt 1
 188              		.cfi_startproc
 189 00e4 130101FB 		addi	sp,sp,-80
 190              		.cfi_def_cfa_offset 80
 191 00e8 23341104 		sd	ra,72(sp)
 192 00ec 23308104 		sd	s0,64(sp)
 193 00f0 233C9102 		sd	s1,56(sp)
 194              		.cfi_offset 1, -8
 195              		.cfi_offset 8, -16
 196              		.cfi_offset 9, -24
 197 00f4 13040105 		addi	s0,sp,80
 198              		.cfi_def_cfa 8, 0
  52:visak/testFunctions.cpp **** //postavi adresu prekidne rutine u stvec
  53:visak/testFunctions.cpp ****     __asm__ volatile("csrw stvec, %[handler]": :[handler] "r"(&interruptHandler));
 199              		.loc 1 53 5
 200              		.loc 1 53 82 is_stmt 0
 201 00f8 97070000 		la	a5,interruptHandler
 201      83B70700 
 202              	#APP
 203              	# 53 "visak/testFunctions.cpp" 1
  54              	
  55:visak/testFunctions.cpp ****     //inicijalizacija alokatora memorije
  56:visak/testFunctions.cpp ****     KMemory::initializeMemory();
 204              		csrw stvec, a5
 205              	# 0 "" 2
GAS LISTING /tmp/ccO1uTng.s 			page 6


 206              		.loc 1 56 5 is_stmt 1
 207              		.loc 1 56 30 is_stmt 0
 208              	#NO_APP
 209 0104 97000000 		call	_ZN7KMemory16initializeMemoryEv@plt
 209      E7800000 
 210              	.LVL12:
  57:visak/testFunctions.cpp **** 
  58:visak/testFunctions.cpp ****     //inicijalizacija komunikacije sa konzolom
  59:visak/testFunctions.cpp ****     KConsole::initKConsole();
 211              		.loc 1 59 5 is_stmt 1
 212              		.loc 1 59 27 is_stmt 0
 213 010c 97000000 		call	_ZN8KConsole12initKConsoleEv@plt
 213      E7800000 
 214              	.LVL13:
  60:visak/testFunctions.cpp **** 
  61:visak/testFunctions.cpp ****     //testiranje kreiranja niti
  62:visak/testFunctions.cpp ****     thread_t glavnaNit = nullptr;
 215              		.loc 1 62 5 is_stmt 1
 216              		.loc 1 62 14 is_stmt 0
 217 0114 233C04FC 		sd	zero,-40(s0)
  63:visak/testFunctions.cpp ****     thread_t nit1 = nullptr;
 218              		.loc 1 63 5 is_stmt 1
 219              		.loc 1 63 14 is_stmt 0
 220 0118 233804FC 		sd	zero,-48(s0)
  64:visak/testFunctions.cpp ****     thread_t nit2 = nullptr;
 221              		.loc 1 64 5 is_stmt 1
 222              		.loc 1 64 14 is_stmt 0
 223 011c 233404FC 		sd	zero,-56(s0)
  65:visak/testFunctions.cpp ****     thread_t nit3 = nullptr;
 224              		.loc 1 65 5 is_stmt 1
 225              		.loc 1 65 14 is_stmt 0
 226 0120 233004FC 		sd	zero,-64(s0)
  66:visak/testFunctions.cpp ****     thread_t idleNit = nullptr;
 227              		.loc 1 66 5 is_stmt 1
 228              		.loc 1 66 14 is_stmt 0
 229 0124 233C04FA 		sd	zero,-72(s0)
  67:visak/testFunctions.cpp ****     thread_t kernelConsumerThread = nullptr;
 230              		.loc 1 67 5 is_stmt 1
 231              		.loc 1 67 14 is_stmt 0
 232 0128 233804FA 		sd	zero,-80(s0)
  68:visak/testFunctions.cpp ****     thread_create(&glavnaNit, (TCB::Body)main, nullptr);
 233              		.loc 1 68 5 is_stmt 1
 234              		.loc 1 68 18 is_stmt 0
 235 012c 13060000 		li	a2,0
 236 0130 97050000 		la	a1,main
 236      83B50500 
 237 0138 130584FD 		addi	a0,s0,-40
 238 013c 97000000 		call	_Z13thread_createPP3TCBPFvPvES2_@plt
 238      E7800000 
 239              	.LVL14:
  69:visak/testFunctions.cpp ****     TCB::setRunning(glavnaNit);
 240              		.loc 1 69 5 is_stmt 1
 241              	.LBB11:
 242              	.LBB12:
 243              		.file 2 "visak/../h/TCB.hpp"
   1:visak/../h/TCB.hpp **** //
   2:visak/../h/TCB.hpp **** // Created by os on 5/23/23.
GAS LISTING /tmp/ccO1uTng.s 			page 7


   3:visak/../h/TCB.hpp **** //
   4:visak/../h/TCB.hpp **** 
   5:visak/../h/TCB.hpp **** #ifndef PROJEKAT2023_TCB_HPP
   6:visak/../h/TCB.hpp **** #define PROJEKAT2023_TCB_HPP
   7:visak/../h/TCB.hpp **** 
   8:visak/../h/TCB.hpp **** #include "../lib/hw.h"
   9:visak/../h/TCB.hpp **** #include "../h/ThreadQueue.hpp"
  10:visak/../h/TCB.hpp **** 
  11:visak/../h/TCB.hpp **** int main();
  12:visak/../h/TCB.hpp **** 
  13:visak/../h/TCB.hpp **** class TCB {
  14:visak/../h/TCB.hpp **** public:
  15:visak/../h/TCB.hpp ****     friend class Scheduler;
  16:visak/../h/TCB.hpp **** 
  17:visak/../h/TCB.hpp ****     using Body = void (*)(void*);
  18:visak/../h/TCB.hpp **** 
  19:visak/../h/TCB.hpp ****     enum ThreadStatus {
  20:visak/../h/TCB.hpp ****         CREATED, ACTIVE, BLOCKED, JOINING, SLEEPING, FINISHED
  21:visak/../h/TCB.hpp ****     };
  22:visak/../h/TCB.hpp **** 
  23:visak/../h/TCB.hpp ****     static TCB* createThread(Body function, void* args, uint64* stack);
  24:visak/../h/TCB.hpp **** 
  25:visak/../h/TCB.hpp ****     void setStatus(ThreadStatus stat) { this->status = stat; }
  26:visak/../h/TCB.hpp **** 
  27:visak/../h/TCB.hpp ****     ThreadStatus getStatus() { return this->status; }
  28:visak/../h/TCB.hpp **** 
  29:visak/../h/TCB.hpp ****     uint64 getTimeSlice() { return timeSlice; }
  30:visak/../h/TCB.hpp **** 
  31:visak/../h/TCB.hpp ****     Body getBody() { return threadFunction; }
  32:visak/../h/TCB.hpp **** 
  33:visak/../h/TCB.hpp ****     ThreadQueue* getListOfJoiningThreads() { return &waitingToJoin; }
  34:visak/../h/TCB.hpp **** 
  35:visak/../h/TCB.hpp ****     void setMySemaphore(KSem* sem) { mySemaphore = sem; }
  36:visak/../h/TCB.hpp **** 
  37:visak/../h/TCB.hpp ****     void setJoiningWithTCB(TCB* tcb) { joiningWithTCB = tcb; }
  38:visak/../h/TCB.hpp **** 
  39:visak/../h/TCB.hpp ****     static TCB* getRunning() { return running; }
  40:visak/../h/TCB.hpp **** 
  41:visak/../h/TCB.hpp ****     static void setRunning(TCB* newRunning) { running = newRunning; }
 244              		.loc 2 41 47
 245              		.loc 2 41 55 is_stmt 0
 246 0144 033784FD 		ld	a4,-40(s0)
 247 0148 97070000 		la	a5,_ZN3TCB7runningE
 247      83B70700 
 248 0150 23B0E700 		sd	a4,0(a5)
 249              	.LVL15:
 250              	.LBE12:
 251              	.LBE11:
  70:visak/testFunctions.cpp ****     thread_create(&idleNit, idle, nullptr);
 252              		.loc 1 70 5 is_stmt 1
 253              		.loc 1 70 18 is_stmt 0
 254 0154 13060000 		li	a2,0
 255 0158 97050000 		la	a1,_Z4idlePv
 255      83B50500 
 256 0160 130584FB 		addi	a0,s0,-72
 257 0164 97000000 		call	_Z13thread_createPP3TCBPFvPvES2_@plt
 257      E7800000 
GAS LISTING /tmp/ccO1uTng.s 			page 8


 258              	.LVL16:
  71:visak/testFunctions.cpp ****     thread_create(&kernelConsumerThread, kernelConsumerFunction, nullptr);
 259              		.loc 1 71 5 is_stmt 1
 260              		.loc 1 71 18 is_stmt 0
 261 016c 13060000 		li	a2,0
 262 0170 97050000 		la	a1,_Z22kernelConsumerFunctionPv
 262      83B50500 
 263 0178 130504FB 		addi	a0,s0,-80
 264 017c 97000000 		call	_Z13thread_createPP3TCBPFvPvES2_@plt
 264      E7800000 
 265              	.LVL17:
  72:visak/testFunctions.cpp **** 
  73:visak/testFunctions.cpp **** 
  74:visak/testFunctions.cpp ****     thread_create(&nit1, nit1f, nullptr);
 266              		.loc 1 74 5 is_stmt 1
 267              		.loc 1 74 18 is_stmt 0
 268 0184 13060000 		li	a2,0
 269 0188 97050000 		lla	a1,_Z5nit1fPv
 269      93850500 
 270 0190 130504FD 		addi	a0,s0,-48
 271 0194 97000000 		call	_Z13thread_createPP3TCBPFvPvES2_@plt
 271      E7800000 
 272              	.LVL18:
  75:visak/testFunctions.cpp ****     thread_create(&nit2, nit2f, nullptr);
 273              		.loc 1 75 5 is_stmt 1
 274              		.loc 1 75 18 is_stmt 0
 275 019c 13060000 		li	a2,0
 276 01a0 97050000 		lla	a1,_Z5nit2fPv
 276      93850500 
 277 01a8 130584FC 		addi	a0,s0,-56
 278 01ac 97000000 		call	_Z13thread_createPP3TCBPFvPvES2_@plt
 278      E7800000 
 279              	.LVL19:
  76:visak/testFunctions.cpp ****     thread_create(&nit3, nit3f, nullptr);
 280              		.loc 1 76 5 is_stmt 1
 281              		.loc 1 76 18 is_stmt 0
 282 01b4 13060000 		li	a2,0
 283 01b8 97050000 		lla	a1,_Z5nit3fPv
 283      93850500 
 284 01c0 130504FC 		addi	a0,s0,-64
 285 01c4 97000000 		call	_Z13thread_createPP3TCBPFvPvES2_@plt
 285      E7800000 
 286              	.LVL20:
  77:visak/testFunctions.cpp **** 
  78:visak/testFunctions.cpp ****     //omoguci prekide
  79:visak/testFunctions.cpp ****     Riscv::ms_sstatus(Riscv::SSTATUS_SIE);
 287              		.loc 1 79 5 is_stmt 1
 288              	.LBB13:
 289              	.LBB14:
 290              		.file 3 "visak/../h/Riscv.hpp"
   1:visak/../h/Riscv.hpp **** //
   2:visak/../h/Riscv.hpp **** // Created by os on 5/17/23.
   3:visak/../h/Riscv.hpp **** //
   4:visak/../h/Riscv.hpp **** 
   5:visak/../h/Riscv.hpp **** #ifndef PROJEKAT2023_RISCV_HPP
   6:visak/../h/Riscv.hpp **** #define PROJEKAT2023_RISCV_HPP
   7:visak/../h/Riscv.hpp **** 
GAS LISTING /tmp/ccO1uTng.s 			page 9


   8:visak/../h/Riscv.hpp **** #include "../lib/hw.h"
   9:visak/../h/Riscv.hpp **** 
  10:visak/../h/Riscv.hpp **** class Riscv {
  11:visak/../h/Riscv.hpp **** public:
  12:visak/../h/Riscv.hpp **** 
  13:visak/../h/Riscv.hpp **** 	static void returnFromInterrupt();
  14:visak/../h/Riscv.hpp **** 
  15:visak/../h/Riscv.hpp **** 	enum BitMaskSip {
  16:visak/../h/Riscv.hpp **** 		//postoji zahtev za softverski prekid
  17:visak/../h/Riscv.hpp **** 		SIP_SSIP = (1 << 1),
  18:visak/../h/Riscv.hpp **** 		//postoji prekid od tajmera
  19:visak/../h/Riscv.hpp **** 		SIP_STIP = (1 << 5),
  20:visak/../h/Riscv.hpp **** 		//postoji zahtev za spoljasnji hardverski prekid
  21:visak/../h/Riscv.hpp **** 		SIP_SEIP = (1 << 9)
  22:visak/../h/Riscv.hpp **** 	};
  23:visak/../h/Riscv.hpp **** 
  24:visak/../h/Riscv.hpp **** 	//mask set sip
  25:visak/../h/Riscv.hpp **** 	static void ms_sip(uint64 mask);
  26:visak/../h/Riscv.hpp **** 
  27:visak/../h/Riscv.hpp **** 	//mask clear sip
  28:visak/../h/Riscv.hpp **** 	static void mc_sip(uint64 mask);
  29:visak/../h/Riscv.hpp **** 
  30:visak/../h/Riscv.hpp **** 	//kada se pozove sret, SIE dobija vrednost SPIE, SPIE se postavlja na 1,
  31:visak/../h/Riscv.hpp **** 	//rezim se postavlja na osnovu SPP bita, SPP se postavlja na 0
  32:visak/../h/Riscv.hpp **** 	enum BitMaskSstatus {
  33:visak/../h/Riscv.hpp **** 		//1 - dozvoljeni prekidi; 0- nedozvoljeni prekidi; igonrise se u korisnickom rezimu
  34:visak/../h/Riscv.hpp **** 		SSTATUS_SIE = (1 << 1),
  35:visak/../h/Riscv.hpp **** 		//prethodna vrednost bita SIE
  36:visak/../h/Riscv.hpp **** 		SSTATUS_SPIE = (1 << 5),
  37:visak/../h/Riscv.hpp **** 		//iz kog rezima se desio skok; 0 - iz korisnickog; 1 - iz sistemskog
  38:visak/../h/Riscv.hpp **** 		SSTATUS_SPP = (1 << 8)
  39:visak/../h/Riscv.hpp **** 	};
  40:visak/../h/Riscv.hpp **** 
  41:visak/../h/Riscv.hpp **** 	//mask set sstatus
  42:visak/../h/Riscv.hpp **** 	static void ms_sstatus(uint64 mask);
  43:visak/../h/Riscv.hpp **** 
  44:visak/../h/Riscv.hpp **** 	//mask clear sstatus
  45:visak/../h/Riscv.hpp **** 	static void mc_sstatus(uint64 mask);
  46:visak/../h/Riscv.hpp **** 
  47:visak/../h/Riscv.hpp **** };
  48:visak/../h/Riscv.hpp **** 
  49:visak/../h/Riscv.hpp **** inline void Riscv::ms_sip(uint64 mask) {
  50:visak/../h/Riscv.hpp **** 	__asm__ volatile("csrs sip, %[mask]": :[mask] "r"(mask));
  51:visak/../h/Riscv.hpp **** }
  52:visak/../h/Riscv.hpp **** 
  53:visak/../h/Riscv.hpp **** inline void Riscv::mc_sip(uint64 mask) {
  54:visak/../h/Riscv.hpp **** 	__asm__ volatile("csrc sip, %[mask]": :[mask] "r"(mask));
  55:visak/../h/Riscv.hpp **** }
  56:visak/../h/Riscv.hpp **** 
  57:visak/../h/Riscv.hpp **** inline void Riscv::ms_sstatus(uint64 mask) {
  58:visak/../h/Riscv.hpp **** 	__asm__ volatile("csrs sstatus, %[mask]": :[mask] "r"(mask));
 291              		.loc 3 58 2
 292              		.loc 3 58 62 is_stmt 0
 293 01cc 93042000 		li	s1,2
 294              	#APP
 295              	# 58 "visak/../h/Riscv.hpp" 1
  59              	}
GAS LISTING /tmp/ccO1uTng.s 			page 10


 296              		csrs sstatus, s1
 297              	# 0 "" 2
 298              	.LVL21:
 299              	#NO_APP
 300              	.LBE14:
 301              	.LBE13:
  80:visak/testFunctions.cpp **** 
  81:visak/testFunctions.cpp ****     thread_join(nit1);
 302              		.loc 1 81 5 is_stmt 1
 303              		.loc 1 81 16 is_stmt 0
 304 01d4 033504FD 		ld	a0,-48(s0)
 305 01d8 97000000 		call	_Z11thread_joinP3TCB@plt
 305      E7800000 
 306              	.LVL22:
  82:visak/testFunctions.cpp ****     thread_join(nit2);
 307              		.loc 1 82 5 is_stmt 1
 308              		.loc 1 82 16 is_stmt 0
 309 01e0 033584FC 		ld	a0,-56(s0)
 310 01e4 97000000 		call	_Z11thread_joinP3TCB@plt
 310      E7800000 
 311              	.LVL23:
  83:visak/testFunctions.cpp ****     thread_join(nit3);
 312              		.loc 1 83 5 is_stmt 1
 313              		.loc 1 83 16 is_stmt 0
 314 01ec 033504FC 		ld	a0,-64(s0)
 315 01f0 97000000 		call	_Z11thread_joinP3TCB@plt
 315      E7800000 
 316              	.LVL24:
  84:visak/testFunctions.cpp ****     //thread_join(idleNit);
  85:visak/testFunctions.cpp **** 
  86:visak/testFunctions.cpp ****     printString("\nGotove user niti\n");
 317              		.loc 1 86 5 is_stmt 1
 318              		.loc 1 86 16 is_stmt 0
 319 01f8 17050000 		lla	a0,.LC2
 319      13050500 
 320 0200 97000000 		call	_Z11printStringPKc@plt
 320      E7800000 
 321              	.LVL25:
  87:visak/testFunctions.cpp **** 
  88:visak/testFunctions.cpp ****     printString("\nSad cu da izadjem\n");
 322              		.loc 1 88 5 is_stmt 1
 323              		.loc 1 88 16 is_stmt 0
 324 0208 17050000 		lla	a0,.LC3
 324      13050500 
 325 0210 97000000 		call	_Z11printStringPKc@plt
 325      E7800000 
 326              	.LVL26:
  89:visak/testFunctions.cpp ****     KConsole::flush();
 327              		.loc 1 89 5 is_stmt 1
 328              	.LBB15:
 329              	.LBB16:
 330              		.file 4 "visak/../h/KConsole.hpp"
   1:visak/../h/KConsole.hpp **** //
   2:visak/../h/KConsole.hpp **** // Created by os on 6/7/23.
   3:visak/../h/KConsole.hpp **** //
   4:visak/../h/KConsole.hpp **** 
   5:visak/../h/KConsole.hpp **** #ifndef PROJEKAT2023_KCONSOLE_HPP
GAS LISTING /tmp/ccO1uTng.s 			page 11


   6:visak/../h/KConsole.hpp **** #define PROJEKAT2023_KCONSOLE_HPP
   7:visak/../h/KConsole.hpp **** 
   8:visak/../h/KConsole.hpp **** #include "../lib/hw.h"
   9:visak/../h/KConsole.hpp **** 
  10:visak/../h/KConsole.hpp **** class KSem;
  11:visak/../h/KConsole.hpp **** 
  12:visak/../h/KConsole.hpp **** typedef KSem* sem_t;
  13:visak/../h/KConsole.hpp **** 
  14:visak/../h/KConsole.hpp **** class KConsole {
  15:visak/../h/KConsole.hpp **** public:
  16:visak/../h/KConsole.hpp ****     static void initKConsole();
  17:visak/../h/KConsole.hpp **** 
  18:visak/../h/KConsole.hpp ****     //stavlja karakter u izlazni bafer konzole
  19:visak/../h/KConsole.hpp ****     static void kputc(char c);
  20:visak/../h/KConsole.hpp **** 
  21:visak/../h/KConsole.hpp ****     //uzima karakter iz ulaznog bafera konzole
  22:visak/../h/KConsole.hpp ****     static char kgetc();
  23:visak/../h/KConsole.hpp **** 
  24:visak/../h/KConsole.hpp ****     //vraca karakter iz izlaznog bafera; ako je bafer prazan, blokira se dok se ne napuni
  25:visak/../h/KConsole.hpp ****     static char getFromOutput();
  26:visak/../h/KConsole.hpp **** 
  27:visak/../h/KConsole.hpp ****     //stavlja karakter u ulazni bafer; ako je bafer pun, ignorise se
  28:visak/../h/KConsole.hpp ****     static void placeInInput(char c);
  29:visak/../h/KConsole.hpp **** 
  30:visak/../h/KConsole.hpp ****     //ispis svih preostalih karaktera u izlaznom baferu
  31:visak/../h/KConsole.hpp ****     static void flush() {
  32:visak/../h/KConsole.hpp ****         __asm__ volatile("li a0, 0x43");
 331              		.loc 4 32 9
 332              		.loc 4 32 40 is_stmt 0
 333              	#APP
 334              	# 32 "visak/../h/KConsole.hpp" 1
  33              	        __asm__ volatile("ecall");
 335              		li a0, 0x43
 336              	# 0 "" 2
 337              		.loc 4 33 9 is_stmt 1
 338              		.loc 4 33 34 is_stmt 0
 339              	# 33 "visak/../h/KConsole.hpp" 1
  34              	    }
 340              		ecall
 341              	# 0 "" 2
 342              	#NO_APP
 343              	.LBE16:
 344              	.LBE15:
  90:visak/testFunctions.cpp **** //	//zabrani prekide
  91:visak/testFunctions.cpp ****     Riscv::mc_sstatus(Riscv::SSTATUS_SIE);
 345              		.loc 1 91 5 is_stmt 1
 346              	.LVL27:
 347              	.LBB17:
 348              	.LBB18:
  60:visak/../h/Riscv.hpp **** 
  61:visak/../h/Riscv.hpp **** inline void Riscv::mc_sstatus(uint64 mask) {
  62:visak/../h/Riscv.hpp **** 	__asm__ volatile("csrc sstatus, %[mask]": :[mask] "r"(mask));
 349              		.loc 3 62 2
 350              		.loc 3 62 62 is_stmt 0
 351              	#APP
 352              	# 62 "visak/../h/Riscv.hpp" 1
  63              	}
GAS LISTING /tmp/ccO1uTng.s 			page 12


 353              		csrc sstatus, s1
 354              	# 0 "" 2
 355              	.LVL28:
 356              	#NO_APP
 357              	.LBE18:
 358              	.LBE17:
  92:visak/testFunctions.cpp **** 
  93:visak/testFunctions.cpp **** 
  94:visak/testFunctions.cpp ****     return 0;
 359              		.loc 1 94 5 is_stmt 1
  95:visak/testFunctions.cpp **** }...
 360              		.loc 1 95 1 is_stmt 0
 361 0224 13050000 		li	a0,0
 362 0228 83308104 		ld	ra,72(sp)
 363              		.cfi_restore 1
 364 022c 03340104 		ld	s0,64(sp)
 365              		.cfi_restore 8
 366              		.cfi_def_cfa 2, 80
 367 0230 83348103 		ld	s1,56(sp)
 368              		.cfi_restore 9
 369 0234 13010105 		addi	sp,sp,80
 370              		.cfi_def_cfa_offset 0
 371 0238 67800000 		jr	ra
 372              		.cfi_endproc
 373              	.LFE48:
 375              	.Letext0:
 376              		.file 5 "visak/../lib/hw.h"
 377              		.file 6 "visak/../h/KMemory.hpp"
 378              		.file 7 "visak/../h/../h/../h/syscall_c.hpp"
 379              		.file 8 "visak/../h/../h/ThreadQueue.hpp"
 380              		.file 9 "visak/../test/printing.hpp"
GAS LISTING /tmp/ccO1uTng.s 			page 13

