GAS LISTING /tmp/ccMjsTf5.s 			page 1


   1              		.file	"ThreadSleep_C_API_test.cpp"
   2              		.option pic
   3              		.option norelax
   4              		.text
   5              	.Ltext0:
   6              		.section	.rodata.str1.8,"aMS",@progbits,1
   7              		.align	3
   8              	.LC0:
   9 0000 48656C6C 		.string	"Hello "
   9      6F2000
  10 0007 00       		.align	3
  11              	.LC1:
  12 0008 20210A00 		.string	" !\n"
  13              		.text
  14              		.align	2
  16              	_ZL9sleepyRunPv:
  17              	.LFB2:
  18              		.file 1 "test/ThreadSleep_C_API_test.cpp"
   1:test/ThreadSleep_C_API_test.cpp **** #include "../h/syscall_c.hpp"
   2:test/ThreadSleep_C_API_test.cpp **** 
   3:test/ThreadSleep_C_API_test.cpp **** #include "../h/syscall_cpp.hpp"
   4:test/ThreadSleep_C_API_test.cpp **** 
   5:test/ThreadSleep_C_API_test.cpp **** #include "printing.hpp"
   6:test/ThreadSleep_C_API_test.cpp **** 
   7:test/ThreadSleep_C_API_test.cpp **** static volatile bool finished[2];
   8:test/ThreadSleep_C_API_test.cpp **** 
   9:test/ThreadSleep_C_API_test.cpp **** static void sleepyRun(void* arg) {
  19              		.loc 1 9 34
  20              		.cfi_startproc
  21              	.LVL0:
  22 0000 130101FE 		addi	sp,sp,-32
  23              		.cfi_def_cfa_offset 32
  24 0004 233C1100 		sd	ra,24(sp)
  25 0008 23388100 		sd	s0,16(sp)
  26 000c 23349100 		sd	s1,8(sp)
  27 0010 23302101 		sd	s2,0(sp)
  28              		.cfi_offset 1, -8
  29              		.cfi_offset 8, -16
  30              		.cfi_offset 9, -24
  31              		.cfi_offset 18, -32
  32 0014 13040102 		addi	s0,sp,32
  33              		.cfi_def_cfa 8, 0
  10:test/ThreadSleep_C_API_test.cpp ****     time_t sleep_time = *((time_t*)arg);
  34              		.loc 1 10 5
  35              		.loc 1 10 12 is_stmt 0
  36 0018 03390500 		ld	s2,0(a0)
  37              	.LVL1:
  11:test/ThreadSleep_C_API_test.cpp ****     int i = 6;
  38              		.loc 1 11 5 is_stmt 1
  39              		.loc 1 11 9 is_stmt 0
  40 001c 93046000 		li	s1,6
  41              	.LVL2:
  42              	.L3:
  12:test/ThreadSleep_C_API_test.cpp ****     while (--i > 0) {
  43              		.loc 1 12 5 is_stmt 1
  44              		.loc 1 12 16
  45 0020 9B84F4FF 		addiw	s1,s1,-1
GAS LISTING /tmp/ccMjsTf5.s 			page 2


  46              	.LVL3:
  47 0024 63549004 		blez	s1,.L2
  13:test/ThreadSleep_C_API_test.cpp **** 
  14:test/ThreadSleep_C_API_test.cpp ****         printString("Hello ");
  48              		.loc 1 14 9
  49              		.loc 1 14 20 is_stmt 0
  50 0028 17050000 		lla	a0,.LC0
  50      13050500 
  51 0030 97000000 		call	_Z11printStringPKc@plt
  51      E7800000 
  52              	.LVL4:
  15:test/ThreadSleep_C_API_test.cpp ****         printInt(sleep_time);
  53              		.loc 1 15 9 is_stmt 1
  54              		.loc 1 15 17 is_stmt 0
  55 0038 13060000 		li	a2,0
  56 003c 9305A000 		li	a1,10
  57 0040 1B050900 		sext.w	a0,s2
  58 0044 97000000 		call	_Z8printIntiii@plt
  58      E7800000 
  59              	.LVL5:
  16:test/ThreadSleep_C_API_test.cpp ****         printString(" !\n");
  60              		.loc 1 16 9 is_stmt 1
  61              		.loc 1 16 20 is_stmt 0
  62 004c 17050000 		lla	a0,.LC1
  62      13050500 
  63 0054 97000000 		call	_Z11printStringPKc@plt
  63      E7800000 
  64              	.LVL6:
  17:test/ThreadSleep_C_API_test.cpp ****         time_sleep(sleep_time);
  65              		.loc 1 17 9 is_stmt 1
  66              		.loc 1 17 19 is_stmt 0
  67 005c 13050900 		mv	a0,s2
  68 0060 97000000 		call	_Z10time_sleepm@plt
  68      E7800000 
  69              	.LVL7:
  12:test/ThreadSleep_C_API_test.cpp **** 
  70              		.loc 1 12 5
  71 0068 6FF09FFB 		j	.L3
  72              	.L2:
  18:test/ThreadSleep_C_API_test.cpp ****     }
  19:test/ThreadSleep_C_API_test.cpp ****     finished[sleep_time / 10 - 1] = true;
  73              		.loc 1 19 5 is_stmt 1
  74              		.loc 1 19 25 is_stmt 0
  75 006c 9307A000 		li	a5,10
  76 0070 3359F902 		divu	s2,s2,a5
  77              	.LVL8:
  78              		.loc 1 19 30
  79 0074 1309F9FF 		addi	s2,s2,-1
  80              		.loc 1 19 35
  81 0078 97070000 		lla	a5,.LANCHOR0
  81      93870700 
  82 0080 33892701 		add	s2,a5,s2
  83 0084 93071000 		li	a5,1
  84 0088 2300F900 		sb	a5,0(s2)
  20:test/ThreadSleep_C_API_test.cpp **** }
  85              		.loc 1 20 1
  86 008c 83308101 		ld	ra,24(sp)
GAS LISTING /tmp/ccMjsTf5.s 			page 3


  87              		.cfi_restore 1
  88 0090 03340101 		ld	s0,16(sp)
  89              		.cfi_restore 8
  90              		.cfi_def_cfa 2, 32
  91 0094 83348100 		ld	s1,8(sp)
  92              		.cfi_restore 9
  93 0098 03390100 		ld	s2,0(sp)
  94              		.cfi_restore 18
  95 009c 13010102 		addi	sp,sp,32
  96              		.cfi_def_cfa_offset 0
  97 00a0 67800000 		jr	ra
  98              		.cfi_endproc
  99              	.LFE2:
 101              		.align	2
 102              		.globl	_Z12testSleepingv
 104              	_Z12testSleepingv:
 105              	.LFB11:
  21:test/ThreadSleep_C_API_test.cpp **** 
  22:test/ThreadSleep_C_API_test.cpp **** class timer : public PeriodicThread {
  23:test/ThreadSleep_C_API_test.cpp **** public:
  24:test/ThreadSleep_C_API_test.cpp ****     int counter = 0;
  25:test/ThreadSleep_C_API_test.cpp **** 
  26:test/ThreadSleep_C_API_test.cpp ****     explicit timer() : PeriodicThread(1) {}
  27:test/ThreadSleep_C_API_test.cpp **** 
  28:test/ThreadSleep_C_API_test.cpp ****     void periodicActivation() override {
  29:test/ThreadSleep_C_API_test.cpp ****         printString("Tajmer: ");
  30:test/ThreadSleep_C_API_test.cpp ****         printInt(counter++);
  31:test/ThreadSleep_C_API_test.cpp ****         printString("\n");
  32:test/ThreadSleep_C_API_test.cpp ****     }
  33:test/ThreadSleep_C_API_test.cpp **** };
  34:test/ThreadSleep_C_API_test.cpp **** 
  35:test/ThreadSleep_C_API_test.cpp **** void testSleeping() {
 106              		.loc 1 35 21 is_stmt 1
 107              		.cfi_startproc
 108 00a4 130101FC 		addi	sp,sp,-64
 109              		.cfi_def_cfa_offset 64
 110 00a8 233C1102 		sd	ra,56(sp)
 111 00ac 23388102 		sd	s0,48(sp)
 112 00b0 23349102 		sd	s1,40(sp)
 113              		.cfi_offset 1, -8
 114              		.cfi_offset 8, -16
 115              		.cfi_offset 9, -24
 116 00b4 13040104 		addi	s0,sp,64
 117              		.cfi_def_cfa 8, 0
  36:test/ThreadSleep_C_API_test.cpp ****     const int sleepy_thread_count = 2;
 118              		.loc 1 36 5
 119              	.LVL9:
  37:test/ThreadSleep_C_API_test.cpp ****     time_t sleep_times[sleepy_thread_count] = {10, 20};
 120              		.loc 1 37 5
 121              		.loc 1 37 12 is_stmt 0
 122 00b8 9307A000 		li	a5,10
 123 00bc 2338F4FC 		sd	a5,-48(s0)
 124 00c0 93074001 		li	a5,20
 125 00c4 233CF4FC 		sd	a5,-40(s0)
  38:test/ThreadSleep_C_API_test.cpp ****     thread_t sleepyThread[sleepy_thread_count];
 126              		.loc 1 38 5 is_stmt 1
  39:test/ThreadSleep_C_API_test.cpp ****     //timer t;
GAS LISTING /tmp/ccMjsTf5.s 			page 4


  40:test/ThreadSleep_C_API_test.cpp ****     //t.start();
  41:test/ThreadSleep_C_API_test.cpp ****     for (int i = 0; i < sleepy_thread_count; i++) {
 127              		.loc 1 41 5
 128              	.LVL10:
 129              	.LBB2:
 130              		.loc 1 41 14 is_stmt 0
 131 00c8 93040000 		li	s1,0
 132 00cc 6F00C002 		j	.L7
 133              	.LVL11:
 134              	.L10:
  42:test/ThreadSleep_C_API_test.cpp ****         thread_create(&sleepyThread[i], sleepyRun, sleep_times + i);
 135              		.loc 1 42 9 is_stmt 1
 136              		.loc 1 42 64 is_stmt 0
 137 00d0 93973400 		slli	a5,s1,3
 138              		.loc 1 42 22
 139 00d4 130604FD 		addi	a2,s0,-48
 140 00d8 3306F600 		add	a2,a2,a5
 141 00dc 97050000 		lla	a1,_ZL9sleepyRunPv
 141      93850500 
 142 00e4 130504FC 		addi	a0,s0,-64
 143 00e8 3305F500 		add	a0,a0,a5
 144 00ec 97000000 		call	_Z13thread_createPP3TCBPFvPvES2_@plt
 144      E7800000 
 145              	.LVL12:
  41:test/ThreadSleep_C_API_test.cpp ****         thread_create(&sleepyThread[i], sleepyRun, sleep_times + i);
 146              		.loc 1 41 5 is_stmt 1
 147 00f4 9B841400 		addiw	s1,s1,1
 148              	.LVL13:
 149              	.L7:
  41:test/ThreadSleep_C_API_test.cpp ****         thread_create(&sleepyThread[i], sleepyRun, sleep_times + i);
 150              		.loc 1 41 23 discriminator 1
 151 00f8 93071000 		li	a5,1
 152 00fc E3DA97FC 		ble	s1,a5,.L10
 153              	.L8:
 154              	.LBE2:
  43:test/ThreadSleep_C_API_test.cpp ****     }
  44:test/ThreadSleep_C_API_test.cpp ****     while (!(finished[0] && finished[1])) {}
 155              		.loc 1 44 5
 156              		.loc 1 44 12
 157              		.loc 1 44 24 is_stmt 0
 158 0100 97070000 		lbu	a5,.LANCHOR0
 158      83C70700 
 159              		.loc 1 44 12
 160 0108 E38C07FE 		beqz	a5,.L8
 161              		.loc 1 44 39 discriminator 2
 162 010c 97070000 		lbu	a5,.LANCHOR0+1
 162      83C70700 
 163              		.loc 1 44 12 discriminator 2
 164 0114 E38607FE 		beqz	a5,.L8
  45:test/ThreadSleep_C_API_test.cpp ****     //t.terminate();
  46:test/ThreadSleep_C_API_test.cpp ****     //t.join();
  47:test/ThreadSleep_C_API_test.cpp **** }
 165              		.loc 1 47 1
 166 0118 83308103 		ld	ra,56(sp)
 167              		.cfi_restore 1
 168 011c 03340103 		ld	s0,48(sp)
 169              		.cfi_restore 8
GAS LISTING /tmp/ccMjsTf5.s 			page 5


 170              		.cfi_def_cfa 2, 64
 171 0120 83348102 		ld	s1,40(sp)
 172              		.cfi_restore 9
 173              	.LVL14:
 174 0124 13010104 		addi	sp,sp,64
 175              		.cfi_def_cfa_offset 0
 176 0128 67800000 		jr	ra
 177              		.cfi_endproc
 178              	.LFE11:
 180              		.bss
 181              		.align	3
 182              		.set	.LANCHOR0,. + 0
 185              	_ZL8finished:
 186 0000 0000     		.zero	2
 187              		.text
 188              	.Letext0:
 189              		.file 2 "test/../h/../lib/hw.h"
 190              		.file 3 "test/../h/syscall_c.hpp"
 191              		.file 4 "test/printing.hpp"
GAS LISTING /tmp/ccMjsTf5.s 			page 6


DEFINED SYMBOLS
                            *ABS*:0000000000000000 ThreadSleep_C_API_test.cpp
     /tmp/ccMjsTf5.s:16     .text:0000000000000000 _ZL9sleepyRunPv
     /tmp/ccMjsTf5.s:20     .text:0000000000000000 .L0 
     /tmp/ccMjsTf5.s:22     .text:0000000000000000 .L0 
     /tmp/ccMjsTf5.s:23     .text:0000000000000004 .L0 
     /tmp/ccMjsTf5.s:28     .text:0000000000000014 .L0 
     /tmp/ccMjsTf5.s:29     .text:0000000000000014 .L0 
     /tmp/ccMjsTf5.s:30     .text:0000000000000014 .L0 
     /tmp/ccMjsTf5.s:31     .text:0000000000000014 .L0 
     /tmp/ccMjsTf5.s:33     .text:0000000000000018 .L0 
     /tmp/ccMjsTf5.s:35     .text:0000000000000018 .L0 
     /tmp/ccMjsTf5.s:36     .text:0000000000000018 .L0 
     /tmp/ccMjsTf5.s:39     .text:000000000000001c .L0 
     /tmp/ccMjsTf5.s:40     .text:000000000000001c .L0 
     /tmp/ccMjsTf5.s:44     .text:0000000000000020 .L0 
     /tmp/ccMjsTf5.s:45     .text:0000000000000020 .L0 
     /tmp/ccMjsTf5.s:49     .text:0000000000000028 .L0 
     /tmp/ccMjsTf5.s:50     .text:0000000000000028 .L0 
     /tmp/ccMjsTf5.s:54     .text:0000000000000038 .L0 
     /tmp/ccMjsTf5.s:55     .text:0000000000000038 .L0 
     /tmp/ccMjsTf5.s:61     .text:000000000000004c .L0 
     /tmp/ccMjsTf5.s:62     .text:000000000000004c .L0 
     /tmp/ccMjsTf5.s:66     .text:000000000000005c .L0 
     /tmp/ccMjsTf5.s:67     .text:000000000000005c .L0 
     /tmp/ccMjsTf5.s:71     .text:0000000000000068 .L0 
     /tmp/ccMjsTf5.s:74     .text:000000000000006c .L0 
     /tmp/ccMjsTf5.s:75     .text:000000000000006c .L0 
     /tmp/ccMjsTf5.s:79     .text:0000000000000074 .L0 
     /tmp/ccMjsTf5.s:81     .text:0000000000000078 .L0 
     /tmp/ccMjsTf5.s:86     .text:000000000000008c .L0 
     /tmp/ccMjsTf5.s:87     .text:0000000000000090 .L0 
     /tmp/ccMjsTf5.s:89     .text:0000000000000094 .L0 
     /tmp/ccMjsTf5.s:90     .text:0000000000000094 .L0 
     /tmp/ccMjsTf5.s:92     .text:0000000000000098 .L0 
     /tmp/ccMjsTf5.s:94     .text:000000000000009c .L0 
     /tmp/ccMjsTf5.s:96     .text:00000000000000a0 .L0 
     /tmp/ccMjsTf5.s:98     .text:00000000000000a4 .L0 
     /tmp/ccMjsTf5.s:104    .text:00000000000000a4 _Z12testSleepingv
     /tmp/ccMjsTf5.s:107    .text:00000000000000a4 .L0 
     /tmp/ccMjsTf5.s:108    .text:00000000000000a4 .L0 
     /tmp/ccMjsTf5.s:109    .text:00000000000000a8 .L0 
     /tmp/ccMjsTf5.s:113    .text:00000000000000b4 .L0 
     /tmp/ccMjsTf5.s:114    .text:00000000000000b4 .L0 
     /tmp/ccMjsTf5.s:115    .text:00000000000000b4 .L0 
     /tmp/ccMjsTf5.s:117    .text:00000000000000b8 .L0 
     /tmp/ccMjsTf5.s:120    .text:00000000000000b8 .L0 
     /tmp/ccMjsTf5.s:121    .text:00000000000000b8 .L0 
     /tmp/ccMjsTf5.s:122    .text:00000000000000b8 .L0 
     /tmp/ccMjsTf5.s:127    .text:00000000000000c8 .L0 
     /tmp/ccMjsTf5.s:130    .text:00000000000000c8 .L0 
     /tmp/ccMjsTf5.s:131    .text:00000000000000c8 .L0 
     /tmp/ccMjsTf5.s:136    .text:00000000000000d0 .L0 
     /tmp/ccMjsTf5.s:137    .text:00000000000000d0 .L0 
     /tmp/ccMjsTf5.s:139    .text:00000000000000d4 .L0 
     /tmp/ccMjsTf5.s:147    .text:00000000000000f4 .L0 
     /tmp/ccMjsTf5.s:151    .text:00000000000000f8 .L0 
GAS LISTING /tmp/ccMjsTf5.s 			page 7


     /tmp/ccMjsTf5.s:156    .text:0000000000000100 .L0 
     /tmp/ccMjsTf5.s:157    .text:0000000000000100 .L0 
     /tmp/ccMjsTf5.s:158    .text:0000000000000100 .L0 
     /tmp/ccMjsTf5.s:160    .text:0000000000000108 .L0 
     /tmp/ccMjsTf5.s:162    .text:000000000000010c .L0 
     /tmp/ccMjsTf5.s:164    .text:0000000000000114 .L0 
     /tmp/ccMjsTf5.s:166    .text:0000000000000118 .L0 
     /tmp/ccMjsTf5.s:167    .text:000000000000011c .L0 
     /tmp/ccMjsTf5.s:169    .text:0000000000000120 .L0 
     /tmp/ccMjsTf5.s:170    .text:0000000000000120 .L0 
     /tmp/ccMjsTf5.s:172    .text:0000000000000124 .L0 
     /tmp/ccMjsTf5.s:175    .text:0000000000000128 .L0 
     /tmp/ccMjsTf5.s:177    .text:000000000000012c .L0 
     /tmp/ccMjsTf5.s:182    .bss:0000000000000000 .LANCHOR0
     /tmp/ccMjsTf5.s:185    .bss:0000000000000000 _ZL8finished
     /tmp/ccMjsTf5.s:192    .text:000000000000012c .L0 
     /tmp/ccMjsTf5.s:8      .rodata.str1.8:0000000000000000 .LC0
     /tmp/ccMjsTf5.s:50     .text:0000000000000028 .L0 
     /tmp/ccMjsTf5.s:11     .rodata.str1.8:0000000000000008 .LC1
     /tmp/ccMjsTf5.s:62     .text:000000000000004c .L0 
     /tmp/ccMjsTf5.s:81     .text:0000000000000078 .L0 
     /tmp/ccMjsTf5.s:141    .text:00000000000000dc .L0 
     /tmp/ccMjsTf5.s:158    .text:0000000000000100 .L0 
     /tmp/ccMjsTf5.s:162    .text:000000000000010c .L0 
     /tmp/ccMjsTf5.s:72     .text:000000000000006c .L2
     /tmp/ccMjsTf5.s:42     .text:0000000000000020 .L3
     /tmp/ccMjsTf5.s:149    .text:00000000000000f8 .L7
     /tmp/ccMjsTf5.s:134    .text:00000000000000d0 .L10
     /tmp/ccMjsTf5.s:153    .text:0000000000000100 .L8
     /tmp/ccMjsTf5.s:582    .debug_abbrev:0000000000000000 .Ldebug_abbrev0
     /tmp/ccMjsTf5.s:1049   .debug_str:0000000000000129 .LASF34
     /tmp/ccMjsTf5.s:1025   .debug_str:000000000000005e .LASF35
     /tmp/ccMjsTf5.s:1077   .debug_str:00000000000002a9 .LASF36
     /tmp/ccMjsTf5.s:5      .text:0000000000000000 .Ltext0
     /tmp/ccMjsTf5.s:188    .text:000000000000012c .Letext0
     /tmp/ccMjsTf5.s:1007   .debug_line:0000000000000000 .Ldebug_line0
     /tmp/ccMjsTf5.s:1053   .debug_str:00000000000001fc .LASF0
     /tmp/ccMjsTf5.s:1039   .debug_str:00000000000000e7 .LASF1
     /tmp/ccMjsTf5.s:1033   .debug_str:00000000000000b3 .LASF2
     /tmp/ccMjsTf5.s:1017   .debug_str:0000000000000033 .LASF4
     /tmp/ccMjsTf5.s:1037   .debug_str:00000000000000d5 .LASF3
     /tmp/ccMjsTf5.s:1013   .debug_str:000000000000001e .LASF5
     /tmp/ccMjsTf5.s:1059   .debug_str:0000000000000219 .LASF6
     /tmp/ccMjsTf5.s:1011   .debug_str:000000000000000b .LASF7
     /tmp/ccMjsTf5.s:1027   .debug_str:000000000000007e .LASF8
     /tmp/ccMjsTf5.s:1061   .debug_str:0000000000000220 .LASF9
     /tmp/ccMjsTf5.s:1015   .debug_str:0000000000000025 .LASF10
     /tmp/ccMjsTf5.s:1087   .debug_str:0000000000000300 .LASF11
     /tmp/ccMjsTf5.s:1029   .debug_str:0000000000000091 .LASF12
     /tmp/ccMjsTf5.s:1083   .debug_str:00000000000002e4 .LASF13
     /tmp/ccMjsTf5.s:1067   .debug_str:000000000000024f .LASF14
     /tmp/ccMjsTf5.s:1045   .debug_str:0000000000000111 .LASF15
     /tmp/ccMjsTf5.s:1023   .debug_str:0000000000000048 .LASF16
     /tmp/ccMjsTf5.s:1063   .debug_str:0000000000000230 .LASF17
     /tmp/ccMjsTf5.s:1065   .debug_str:0000000000000246 .LASF18
     /tmp/ccMjsTf5.s:1057   .debug_str:0000000000000214 .LASF19
     /tmp/ccMjsTf5.s:1019   .debug_str:000000000000003a .LASF20
GAS LISTING /tmp/ccMjsTf5.s 			page 8


     /tmp/ccMjsTf5.s:1043   .debug_str:0000000000000108 .LASF21
     /tmp/ccMjsTf5.s:1081   .debug_str:00000000000002d7 .LASF37
     /tmp/ccMjsTf5.s:1069   .debug_str:000000000000025f .LASF38
     /tmp/ccMjsTf5.s:105    .text:00000000000000a4 .LFB11
     /tmp/ccMjsTf5.s:178    .text:000000000000012c .LFE11
     /tmp/ccMjsTf5.s:1035   .debug_str:00000000000000c1 .LASF22
     /tmp/ccMjsTf5.s:1047   .debug_str:000000000000011d .LASF23
     /tmp/ccMjsTf5.s:1071   .debug_str:0000000000000271 .LASF24
     /tmp/ccMjsTf5.s:129    .text:00000000000000c8 .LBB2
     /tmp/ccMjsTf5.s:154    .text:0000000000000100 .LBE2
     /tmp/ccMjsTf5.s:949    .debug_loc:0000000000000000 .LLST3
     /tmp/ccMjsTf5.s:145    .text:00000000000000f4 .LVL12
     /tmp/ccMjsTf5.s:1075   .debug_str:000000000000029f .LASF39
     /tmp/ccMjsTf5.s:17     .text:0000000000000000 .LFB2
     /tmp/ccMjsTf5.s:99     .text:00000000000000a4 .LFE2
     /tmp/ccMjsTf5.s:961    .debug_loc:0000000000000037 .LLST0
     /tmp/ccMjsTf5.s:1009   .debug_str:0000000000000000 .LASF25
     /tmp/ccMjsTf5.s:975    .debug_loc:0000000000000070 .LLST1
     /tmp/ccMjsTf5.s:982    .debug_loc:0000000000000093 .LLST2
     /tmp/ccMjsTf5.s:52     .text:0000000000000038 .LVL4
     /tmp/ccMjsTf5.s:59     .text:000000000000004c .LVL5
     /tmp/ccMjsTf5.s:64     .text:000000000000005c .LVL6
     /tmp/ccMjsTf5.s:69     .text:0000000000000068 .LVL7
     /tmp/ccMjsTf5.s:1073   .debug_str:000000000000027e .LASF26
     /tmp/ccMjsTf5.s:1041   .debug_str:00000000000000fa .LASF28
     /tmp/ccMjsTf5.s:1031   .debug_str:00000000000000a0 .LASF27
     /tmp/ccMjsTf5.s:1085   .debug_str:00000000000002f4 .LASF29
     /tmp/ccMjsTf5.s:1051   .debug_str:00000000000001ed .LASF30
     /tmp/ccMjsTf5.s:1021   .debug_str:000000000000003f .LASF31
     /tmp/ccMjsTf5.s:1079   .debug_str:00000000000002c7 .LASF32
     /tmp/ccMjsTf5.s:1055   .debug_str:0000000000000209 .LASF33
     /tmp/ccMjsTf5.s:128    .text:00000000000000c8 .LVL10
     /tmp/ccMjsTf5.s:133    .text:00000000000000d0 .LVL11
     /tmp/ccMjsTf5.s:173    .text:0000000000000124 .LVL14
     /tmp/ccMjsTf5.s:21     .text:0000000000000000 .LVL0
     /tmp/ccMjsTf5.s:41     .text:0000000000000020 .LVL2
     /tmp/ccMjsTf5.s:37     .text:000000000000001c .LVL1
     /tmp/ccMjsTf5.s:77     .text:0000000000000074 .LVL8
     /tmp/ccMjsTf5.s:46     .text:0000000000000024 .LVL3
     /tmp/ccMjsTf5.s:193    .debug_info:0000000000000000 .Ldebug_info0

UNDEFINED SYMBOLS
_Z11printStringPKc
_Z8printIntiii
_Z10time_sleepm
_Z13thread_createPP3TCBPFvPvES2_
